ARM GAS  C:\Users\DELL\AppData\Local\Temp\ccL84Lpd.s 			page 1


   1              		.cpu cortex-m33
   2              		.arch armv8-m.main
   3              		.fpu fpv5-sp-d16
   4              		.arch_extension dsp
   5              		.eabi_attribute 27, 1
   6              		.eabi_attribute 28, 1
   7              		.eabi_attribute 20, 1
   8              		.eabi_attribute 21, 1
   9              		.eabi_attribute 23, 3
  10              		.eabi_attribute 24, 1
  11              		.eabi_attribute 25, 1
  12              		.eabi_attribute 26, 1
  13              		.eabi_attribute 30, 1
  14              		.eabi_attribute 34, 1
  15              		.eabi_attribute 18, 4
  16              		.file	"a7677s.c"
  17              		.text
  18              	.Ltext0:
  19              		.cfi_sections	.debug_frame
  20              		.file 1 "SynaptiX_FDK/components/modules/a76xx/a7677s.c"
  21              		.section	.text.sx_gpio_write,"ax",%progbits
  22              		.align	1
  23              		.syntax unified
  24              		.thumb
  25              		.thumb_func
  27              	sx_gpio_write:
  28              	.LVL0:
  29              	.LFB5:
  30              		.file 2 "SynaptiX_FDK/components/peripherals/gpio/sx_gpio.h"
   1:SynaptiX_FDK/components/peripherals/gpio/sx_gpio.h **** #ifndef SX_GPIO_H
   2:SynaptiX_FDK/components/peripherals/gpio/sx_gpio.h **** #define SX_GPIO_H
   3:SynaptiX_FDK/components/peripherals/gpio/sx_gpio.h **** #ifdef __cplusplus
   4:SynaptiX_FDK/components/peripherals/gpio/sx_gpio.h **** extern "C" {
   5:SynaptiX_FDK/components/peripherals/gpio/sx_gpio.h **** #endif
   6:SynaptiX_FDK/components/peripherals/gpio/sx_gpio.h **** 
   7:SynaptiX_FDK/components/peripherals/gpio/sx_gpio.h **** #include <stdint.h>
   8:SynaptiX_FDK/components/peripherals/gpio/sx_gpio.h **** 
   9:SynaptiX_FDK/components/peripherals/gpio/sx_gpio.h **** typedef enum SX_GPIO_VALUE{
  10:SynaptiX_FDK/components/peripherals/gpio/sx_gpio.h ****     SX_GPIO_LOW = 0,
  11:SynaptiX_FDK/components/peripherals/gpio/sx_gpio.h ****     SX_GPIO_HIGH = 1
  12:SynaptiX_FDK/components/peripherals/gpio/sx_gpio.h **** } SX_GPIO_VALUE;
  13:SynaptiX_FDK/components/peripherals/gpio/sx_gpio.h **** 
  14:SynaptiX_FDK/components/peripherals/gpio/sx_gpio.h **** typedef struct sx_gpio sx_gpio_t;
  15:SynaptiX_FDK/components/peripherals/gpio/sx_gpio.h **** 
  16:SynaptiX_FDK/components/peripherals/gpio/sx_gpio.h **** typedef struct {
  17:SynaptiX_FDK/components/peripherals/gpio/sx_gpio.h ****     void    *port;
  18:SynaptiX_FDK/components/peripherals/gpio/sx_gpio.h ****     uint16_t pin;
  19:SynaptiX_FDK/components/peripherals/gpio/sx_gpio.h **** } sx_gpio_pin_t;
  20:SynaptiX_FDK/components/peripherals/gpio/sx_gpio.h **** 
  21:SynaptiX_FDK/components/peripherals/gpio/sx_gpio.h **** typedef struct sx_gpio_ops{
  22:SynaptiX_FDK/components/peripherals/gpio/sx_gpio.h ****     int (*write)(sx_gpio_t *gpio, SX_GPIO_VALUE value);
  23:SynaptiX_FDK/components/peripherals/gpio/sx_gpio.h ****     int (*read)(sx_gpio_t *gpio, SX_GPIO_VALUE *value);
  24:SynaptiX_FDK/components/peripherals/gpio/sx_gpio.h ****     int (*toggle)(sx_gpio_t *gpio);
  25:SynaptiX_FDK/components/peripherals/gpio/sx_gpio.h **** } sx_gpio_ops_t;
  26:SynaptiX_FDK/components/peripherals/gpio/sx_gpio.h **** 
  27:SynaptiX_FDK/components/peripherals/gpio/sx_gpio.h **** typedef struct sx_gpio{
  28:SynaptiX_FDK/components/peripherals/gpio/sx_gpio.h ****     sx_gpio_ops_t *ops;
ARM GAS  C:\Users\DELL\AppData\Local\Temp\ccL84Lpd.s 			page 2


  29:SynaptiX_FDK/components/peripherals/gpio/sx_gpio.h ****     void *pDriver;
  30:SynaptiX_FDK/components/peripherals/gpio/sx_gpio.h ****     SX_GPIO_VALUE value;
  31:SynaptiX_FDK/components/peripherals/gpio/sx_gpio.h **** } sx_gpio_t;
  32:SynaptiX_FDK/components/peripherals/gpio/sx_gpio.h **** 
  33:SynaptiX_FDK/components/peripherals/gpio/sx_gpio.h **** static inline void sx_gpio_init(sx_gpio_t *gpio, sx_gpio_ops_t *ops, void *pDriver){
  34:SynaptiX_FDK/components/peripherals/gpio/sx_gpio.h ****     gpio->ops = ops;
  35:SynaptiX_FDK/components/peripherals/gpio/sx_gpio.h ****     gpio->pDriver = pDriver;
  36:SynaptiX_FDK/components/peripherals/gpio/sx_gpio.h ****     gpio->value = SX_GPIO_LOW;
  37:SynaptiX_FDK/components/peripherals/gpio/sx_gpio.h **** }
  38:SynaptiX_FDK/components/peripherals/gpio/sx_gpio.h **** 
  39:SynaptiX_FDK/components/peripherals/gpio/sx_gpio.h **** static inline int sx_gpio_write(sx_gpio_t *gpio, SX_GPIO_VALUE value){
  31              		.loc 2 39 70 view -0
  32              		.cfi_startproc
  33              		@ args = 0, pretend = 0, frame = 0
  34              		@ frame_needed = 0, uses_anonymous_args = 0
  35              		.loc 2 39 70 is_stmt 0 view .LVU1
  36 0000 38B5     		push	{r3, r4, r5, lr}
  37              	.LCFI0:
  38              		.cfi_def_cfa_offset 16
  39              		.cfi_offset 3, -16
  40              		.cfi_offset 4, -12
  41              		.cfi_offset 5, -8
  42              		.cfi_offset 14, -4
  40:SynaptiX_FDK/components/peripherals/gpio/sx_gpio.h ****     if(gpio->ops && gpio->ops->write){
  43              		.loc 2 40 5 is_stmt 1 view .LVU2
  44              		.loc 2 40 12 is_stmt 0 view .LVU3
  45 0002 0368     		ldr	r3, [r0]
  46              		.loc 2 40 7 view .LVU4
  47 0004 3BB1     		cbz	r3, .L4
  48 0006 0446     		mov	r4, r0
  49 0008 0D46     		mov	r5, r1
  50              		.loc 2 40 30 discriminator 1 view .LVU5
  51 000a 1B68     		ldr	r3, [r3]
  52              		.loc 2 40 18 discriminator 1 view .LVU6
  53 000c 33B1     		cbz	r3, .L5
  54              	.LBB28:
  41:SynaptiX_FDK/components/peripherals/gpio/sx_gpio.h ****         int ret = gpio->ops->write(gpio, value);
  55              		.loc 2 41 9 is_stmt 1 view .LVU7
  56              		.loc 2 41 19 is_stmt 0 view .LVU8
  57 000e 9847     		blx	r3
  58              	.LVL1:
  42:SynaptiX_FDK/components/peripherals/gpio/sx_gpio.h ****         if(ret == 0){
  59              		.loc 2 42 9 is_stmt 1 view .LVU9
  60              		.loc 2 42 11 is_stmt 0 view .LVU10
  61 0010 00B9     		cbnz	r0, .L1
  43:SynaptiX_FDK/components/peripherals/gpio/sx_gpio.h ****             gpio->value = value;
  62              		.loc 2 43 13 is_stmt 1 view .LVU11
  63              		.loc 2 43 25 is_stmt 0 view .LVU12
  64 0012 2572     		strb	r5, [r4, #8]
  44:SynaptiX_FDK/components/peripherals/gpio/sx_gpio.h ****         }
  45:SynaptiX_FDK/components/peripherals/gpio/sx_gpio.h ****         return ret;
  65              		.loc 2 45 9 is_stmt 1 view .LVU13
  66              	.LVL2:
  67              	.L1:
  68              		.loc 2 45 9 is_stmt 0 view .LVU14
  69              	.LBE28:
  46:SynaptiX_FDK/components/peripherals/gpio/sx_gpio.h ****     }
ARM GAS  C:\Users\DELL\AppData\Local\Temp\ccL84Lpd.s 			page 3


  47:SynaptiX_FDK/components/peripherals/gpio/sx_gpio.h ****     return -1;
  48:SynaptiX_FDK/components/peripherals/gpio/sx_gpio.h **** }
  70              		.loc 2 48 1 view .LVU15
  71 0014 38BD     		pop	{r3, r4, r5, pc}
  72              	.LVL3:
  73              	.L4:
  47:SynaptiX_FDK/components/peripherals/gpio/sx_gpio.h **** }
  74              		.loc 2 47 12 view .LVU16
  75 0016 4FF0FF30 		mov	r0, #-1
  76              	.LVL4:
  47:SynaptiX_FDK/components/peripherals/gpio/sx_gpio.h **** }
  77              		.loc 2 47 12 view .LVU17
  78 001a FBE7     		b	.L1
  79              	.LVL5:
  80              	.L5:
  47:SynaptiX_FDK/components/peripherals/gpio/sx_gpio.h **** }
  81              		.loc 2 47 12 view .LVU18
  82 001c 4FF0FF30 		mov	r0, #-1
  83              	.LVL6:
  47:SynaptiX_FDK/components/peripherals/gpio/sx_gpio.h **** }
  84              		.loc 2 47 12 view .LVU19
  85 0020 F8E7     		b	.L1
  86              		.cfi_endproc
  87              	.LFE5:
  89              		.section	.text.a7677s_power_is_busy,"ax",%progbits
  90              		.align	1
  91              		.syntax unified
  92              		.thumb
  93              		.thumb_func
  95              	a7677s_power_is_busy:
  96              	.LVL7:
  97              	.LFB18:
   1:SynaptiX_FDK/components/modules/a76xx/a7677s.c **** #include <stdint.h>
   2:SynaptiX_FDK/components/modules/a76xx/a7677s.c **** #include <stdio.h>
   3:SynaptiX_FDK/components/modules/a76xx/a7677s.c **** #include <stdlib.h>
   4:SynaptiX_FDK/components/modules/a76xx/a7677s.c **** #include <ctype.h>
   5:SynaptiX_FDK/components/modules/a76xx/a7677s.c **** #include "a7677s.h"
   6:SynaptiX_FDK/components/modules/a76xx/a7677s.c **** #include "sx_gpio.h"
   7:SynaptiX_FDK/components/modules/a76xx/a7677s.c **** #include "logger.h"
   8:SynaptiX_FDK/components/modules/a76xx/a7677s.c **** #include "string.h"
   9:SynaptiX_FDK/components/modules/a76xx/a7677s.c **** 
  10:SynaptiX_FDK/components/modules/a76xx/a7677s.c **** #define pModem(dce) ((modem_t *)&dce->base)
  11:SynaptiX_FDK/components/modules/a76xx/a7677s.c **** #define pDCE(modem) ((a7677s_t *)modem)
  12:SynaptiX_FDK/components/modules/a76xx/a7677s.c **** 
  13:SynaptiX_FDK/components/modules/a76xx/a7677s.c **** static const char *TAG = "A7677S";
  14:SynaptiX_FDK/components/modules/a76xx/a7677s.c **** 
  15:SynaptiX_FDK/components/modules/a76xx/a7677s.c **** /* --- AT command table (mirrors the pattern already used in sim76xx.c) --- */
  16:SynaptiX_FDK/components/modules/a76xx/a7677s.c **** #define CMD_AT              0
  17:SynaptiX_FDK/components/modules/a76xx/a7677s.c **** #define CMD_CPOF            1
  18:SynaptiX_FDK/components/modules/a76xx/a7677s.c **** #define CMD_CREG_SET        2
  19:SynaptiX_FDK/components/modules/a76xx/a7677s.c **** #define CMD_CREG_POLL       3
  20:SynaptiX_FDK/components/modules/a76xx/a7677s.c **** #define CMD_COPS_SET        4
  21:SynaptiX_FDK/components/modules/a76xx/a7677s.c **** #define CMD_COPS_QUERY      5
  22:SynaptiX_FDK/components/modules/a76xx/a7677s.c **** #define CMD_CGDCONT_QUERY   6
  23:SynaptiX_FDK/components/modules/a76xx/a7677s.c **** #define CMD_CFUN_0          7
  24:SynaptiX_FDK/components/modules/a76xx/a7677s.c **** #define CMD_CFUN_1          8
  25:SynaptiX_FDK/components/modules/a76xx/a7677s.c **** #define CMD_CGSN            9    /* AT+CGSN - read IMEI, once during start() */
ARM GAS  C:\Users\DELL\AppData\Local\Temp\ccL84Lpd.s 			page 4


  26:SynaptiX_FDK/components/modules/a76xx/a7677s.c **** #define CMD_CGPADDR         10   /* AT+CGPADDR=1 - read PDP IP, once during start() */
  27:SynaptiX_FDK/components/modules/a76xx/a7677s.c **** #define CMD_CSQ             11   /* AT+CSQ - read signal quality, polled periodically once ready */
  28:SynaptiX_FDK/components/modules/a76xx/a7677s.c **** #define CMD_DYNAMIC         12   /* CGDCONT/CGAUTH/CGACT - built at runtime, need apn/user/pass */
  29:SynaptiX_FDK/components/modules/a76xx/a7677s.c **** 
  30:SynaptiX_FDK/components/modules/a76xx/a7677s.c **** static modem_command_t command[] = {
  31:SynaptiX_FDK/components/modules/a76xx/a7677s.c ****     [CMD_AT]            = {.cmd = "AT\r\n",              .res_success = "\r\nOK\r\n", .res_fail = "
  32:SynaptiX_FDK/components/modules/a76xx/a7677s.c ****     [CMD_CPOF]          = {.cmd = "AT+CPOF\r\n",         .res_success = "\r\nOK\r\n", .res_fail = "
  33:SynaptiX_FDK/components/modules/a76xx/a7677s.c ****     [CMD_CREG_SET]      = {.cmd = "AT+CREG=1\r\n",       .res_success = "\r\nOK\r\n", .res_fail = "
  34:SynaptiX_FDK/components/modules/a76xx/a7677s.c ****     [CMD_CREG_POLL]     = {.cmd = "AT+CREG?\r\n",        .res_success = "\r\nOK\r\n", .res_fail = "
  35:SynaptiX_FDK/components/modules/a76xx/a7677s.c ****     [CMD_COPS_SET]      = {.cmd = "AT+COPS=0\r\n",       .res_success = "\r\nOK\r\n", .res_fail = "
  36:SynaptiX_FDK/components/modules/a76xx/a7677s.c ****     [CMD_COPS_QUERY]    = {.cmd = "AT+COPS?\r\n",        .res_success = "\r\nOK\r\n", .res_fail = "
  37:SynaptiX_FDK/components/modules/a76xx/a7677s.c ****     [CMD_CGDCONT_QUERY] = {.cmd = "AT+CGDCONT?\r\n",     .res_success = "\r\nOK\r\n", .res_fail = "
  38:SynaptiX_FDK/components/modules/a76xx/a7677s.c ****     [CMD_CFUN_0]        = {.cmd = "AT+CFUN=0\r\n",       .res_success = "\r\nOK\r\n", .res_fail = "
  39:SynaptiX_FDK/components/modules/a76xx/a7677s.c ****     [CMD_CFUN_1]        = {.cmd = "AT+CFUN=1\r\n",       .res_success = "\r\nOK\r\n", .res_fail = "
  40:SynaptiX_FDK/components/modules/a76xx/a7677s.c ****     [CMD_CGSN]          = {.cmd = "AT+CGSN\r\n",         .res_success = "\r\nOK\r\n", .res_fail = "
  41:SynaptiX_FDK/components/modules/a76xx/a7677s.c ****     [CMD_CGPADDR]       = {.cmd = "AT+CGPADDR=1\r\n",    .res_success = "\r\nOK\r\n", .res_fail = "
  42:SynaptiX_FDK/components/modules/a76xx/a7677s.c ****     [CMD_CSQ]           = {.cmd = "AT+CSQ\r\n",          .res_success = "\r\nOK\r\n", .res_fail = "
  43:SynaptiX_FDK/components/modules/a76xx/a7677s.c ****     [CMD_DYNAMIC]       = {0},
  44:SynaptiX_FDK/components/modules/a76xx/a7677s.c **** };
  45:SynaptiX_FDK/components/modules/a76xx/a7677s.c **** 
  46:SynaptiX_FDK/components/modules/a76xx/a7677s.c **** /* Scratch buffer for the CGDCONT/CGAUTH/CGACT commands built at runtime
  47:SynaptiX_FDK/components/modules/a76xx/a7677s.c ****  * (need apn/username/password filled in) — mirrors s_dyn_cmd_buf in
  48:SynaptiX_FDK/components/modules/a76xx/a7677s.c ****  * sim76xx.c. Not re-entrant, matches the existing single-instance
  49:SynaptiX_FDK/components/modules/a76xx/a7677s.c ****  * assumption already made by the command[] table above. */
  50:SynaptiX_FDK/components/modules/a76xx/a7677s.c **** static char s_dyn_cmd_buf[96];
  51:SynaptiX_FDK/components/modules/a76xx/a7677s.c **** 
  52:SynaptiX_FDK/components/modules/a76xx/a7677s.c **** /* Separate scratch buffer for MQTT dynamic commands (broker URL, topic, payload
  53:SynaptiX_FDK/components/modules/a76xx/a7677s.c ****  * length lines, etc.).  Kept separate from s_dyn_cmd_buf so an in-flight init
  54:SynaptiX_FDK/components/modules/a76xx/a7677s.c ****  * command and an MQTT command never share the same buffer — even though the
  55:SynaptiX_FDK/components/modules/a76xx/a7677s.c ****  * state machines are mutually exclusive at runtime, having distinct buffers
  56:SynaptiX_FDK/components/modules/a76xx/a7677s.c ****  * makes the invariant explicit and avoids subtle bugs during future refactors.
  57:SynaptiX_FDK/components/modules/a76xx/a7677s.c ****  * Size covers the longest possible AT+CMQTTCONNECT line:
  58:SynaptiX_FDK/components/modules/a76xx/a7677s.c ****  *   "AT+CMQTTCONNECT=0,\"tcp://<256 chars>\",64800,1,\"<256>\",\"<256>\"\r\n"
  59:SynaptiX_FDK/components/modules/a76xx/a7677s.c ****  *   = ~850 chars worst case; A7677S_MQTT_DYN_CMD_MAX is 384 which covers
  60:SynaptiX_FDK/components/modules/a76xx/a7677s.c ****  *   all practical broker URLs/credentials (broker <= 100, user/pass <= 64). */
  61:SynaptiX_FDK/components/modules/a76xx/a7677s.c **** static char s_mqtt_dyn_cmd_buf[A7677S_MQTT_DYN_CMD_MAX];
  62:SynaptiX_FDK/components/modules/a76xx/a7677s.c **** 
  63:SynaptiX_FDK/components/modules/a76xx/a7677s.c **** static void cb_at_probe(modem_t *modem, const char *response, modem_response_st_t res, void *arg);
  64:SynaptiX_FDK/components/modules/a76xx/a7677s.c **** static void cb_cpof(modem_t *modem, const char *response, modem_response_st_t res, void *arg);
  65:SynaptiX_FDK/components/modules/a76xx/a7677s.c **** 
  66:SynaptiX_FDK/components/modules/a76xx/a7677s.c **** static void restart_init(a7677s_t *dce);
  67:SynaptiX_FDK/components/modules/a76xx/a7677s.c **** static void send_init_cmd(a7677s_t *dce, int idx, modem_command_response_callback_t cb, uint32_t ti
  68:SynaptiX_FDK/components/modules/a76xx/a7677s.c **** static void send_init_dynamic(a7677s_t *dce, const char *cmd_str, modem_command_response_callback_t
  69:SynaptiX_FDK/components/modules/a76xx/a7677s.c **** 
  70:SynaptiX_FDK/components/modules/a76xx/a7677s.c **** /* MQTT sequence callbacks (forward declarations). */
  71:SynaptiX_FDK/components/modules/a76xx/a7677s.c **** static void cb_mqtt_start         (modem_t *modem, const char *response, modem_response_st_t res, v
  72:SynaptiX_FDK/components/modules/a76xx/a7677s.c **** static void cb_mqtt_accq          (modem_t *modem, const char *response, modem_response_st_t res, v
  73:SynaptiX_FDK/components/modules/a76xx/a7677s.c **** static void cb_mqtt_cfg_version   (modem_t *modem, const char *response, modem_response_st_t res, v
  74:SynaptiX_FDK/components/modules/a76xx/a7677s.c **** static void cb_mqtt_connect       (modem_t *modem, const char *response, modem_response_st_t res, v
  75:SynaptiX_FDK/components/modules/a76xx/a7677s.c **** static void cb_mqtt_disc          (modem_t *modem, const char *response, modem_response_st_t res, v
  76:SynaptiX_FDK/components/modules/a76xx/a7677s.c **** static void cb_mqtt_rel           (modem_t *modem, const char *response, modem_response_st_t res, v
  77:SynaptiX_FDK/components/modules/a76xx/a7677s.c **** static void cb_mqtt_stop          (modem_t *modem, const char *response, modem_response_st_t res, v
  78:SynaptiX_FDK/components/modules/a76xx/a7677s.c **** static void cb_mqtt_pub_topic     (modem_t *modem, const char *response, modem_response_st_t res, v
  79:SynaptiX_FDK/components/modules/a76xx/a7677s.c **** static void cb_mqtt_pub_topic_data(modem_t *modem, const char *response, modem_response_st_t res, v
  80:SynaptiX_FDK/components/modules/a76xx/a7677s.c **** static void cb_mqtt_pub_payload   (modem_t *modem, const char *response, modem_response_st_t res, v
  81:SynaptiX_FDK/components/modules/a76xx/a7677s.c **** static void cb_mqtt_pub_payload_data(modem_t *modem, const char *response, modem_response_st_t res,
  82:SynaptiX_FDK/components/modules/a76xx/a7677s.c **** static void cb_mqtt_pub_send      (modem_t *modem, const char *response, modem_response_st_t res, v
ARM GAS  C:\Users\DELL\AppData\Local\Temp\ccL84Lpd.s 			page 5


  83:SynaptiX_FDK/components/modules/a76xx/a7677s.c **** static void cb_mqtt_sub_topic     (modem_t *modem, const char *response, modem_response_st_t res, v
  84:SynaptiX_FDK/components/modules/a76xx/a7677s.c **** static void cb_mqtt_sub_topic_data(modem_t *modem, const char *response, modem_response_st_t res, v
  85:SynaptiX_FDK/components/modules/a76xx/a7677s.c **** static void cb_mqtt_sub_send      (modem_t *modem, const char *response, modem_response_st_t res, v
  86:SynaptiX_FDK/components/modules/a76xx/a7677s.c **** 
  87:SynaptiX_FDK/components/modules/a76xx/a7677s.c **** /* TLS cert-upload / SSL-config sequence callbacks. Order mirrors
  88:SynaptiX_FDK/components/modules/a76xx/a7677s.c ****  * a7677s_mqtt_state_t: START -> [CERT_CA -> CERT_CLIENT -> CERT_KEY]
  89:SynaptiX_FDK/components/modules/a76xx/a7677s.c ****  * -> SSLCFG_CACERT -> SSLCFG_CLIENTCERT -> SSLCFG_CLIENTKEY
  90:SynaptiX_FDK/components/modules/a76xx/a7677s.c ****  * -> SSLCFG_AUTHMODE -> SSLBIND -> ACCQ. Only entered when mqtt_use_ssl=1
  91:SynaptiX_FDK/components/modules/a76xx/a7677s.c ****  * (see cb_mqtt_start()). Each *_prompt callback fires after the modem sends
  92:SynaptiX_FDK/components/modules/a76xx/a7677s.c ****  * ">" for AT+CCERTDOWN; each *_data callback fires after the raw PEM bytes
  93:SynaptiX_FDK/components/modules/a76xx/a7677s.c ****  * are accepted (OK). */
  94:SynaptiX_FDK/components/modules/a76xx/a7677s.c **** static void cb_mqtt_cert_ca_prompt      (modem_t *modem, const char *response, modem_response_st_t 
  95:SynaptiX_FDK/components/modules/a76xx/a7677s.c **** static void cb_mqtt_cert_ca_data        (modem_t *modem, const char *response, modem_response_st_t 
  96:SynaptiX_FDK/components/modules/a76xx/a7677s.c **** static void cb_mqtt_cert_client_prompt  (modem_t *modem, const char *response, modem_response_st_t 
  97:SynaptiX_FDK/components/modules/a76xx/a7677s.c **** static void cb_mqtt_cert_client_data    (modem_t *modem, const char *response, modem_response_st_t 
  98:SynaptiX_FDK/components/modules/a76xx/a7677s.c **** static void cb_mqtt_cert_key_prompt     (modem_t *modem, const char *response, modem_response_st_t 
  99:SynaptiX_FDK/components/modules/a76xx/a7677s.c **** static void cb_mqtt_cert_key_data       (modem_t *modem, const char *response, modem_response_st_t 
 100:SynaptiX_FDK/components/modules/a76xx/a7677s.c **** static void cb_mqtt_sslcfg_cacert       (modem_t *modem, const char *response, modem_response_st_t 
 101:SynaptiX_FDK/components/modules/a76xx/a7677s.c **** static void cb_mqtt_sslcfg_clientcert   (modem_t *modem, const char *response, modem_response_st_t 
 102:SynaptiX_FDK/components/modules/a76xx/a7677s.c **** static void cb_mqtt_sslcfg_clientkey    (modem_t *modem, const char *response, modem_response_st_t 
 103:SynaptiX_FDK/components/modules/a76xx/a7677s.c **** static void cb_mqtt_sslcfg_authmode     (modem_t *modem, const char *response, modem_response_st_t 
 104:SynaptiX_FDK/components/modules/a76xx/a7677s.c **** static void cb_mqtt_sslbind             (modem_t *modem, const char *response, modem_response_st_t 
 105:SynaptiX_FDK/components/modules/a76xx/a7677s.c **** 
 106:SynaptiX_FDK/components/modules/a76xx/a7677s.c **** /* begin_ssl_cert_block(): entry point from cb_mqtt_start() when use_ssl=1.
 107:SynaptiX_FDK/components/modules/a76xx/a7677s.c ****  * Uploads whichever of CA/client-cert/client-key were supplied (skipping
 108:SynaptiX_FDK/components/modules/a76xx/a7677s.c ****  * any not set), then falls through to begin_sslcfg_block(). */
 109:SynaptiX_FDK/components/modules/a76xx/a7677s.c **** static void begin_ssl_cert_block(a7677s_t *dce);
 110:SynaptiX_FDK/components/modules/a76xx/a7677s.c **** /* begin_sslcfg_block(): runs the AT+CSSLCFG/AT+CMQTTSSLCFG sequence that
 111:SynaptiX_FDK/components/modules/a76xx/a7677s.c ****  * always executes when use_ssl=1, regardless of whether any certs were
 112:SynaptiX_FDK/components/modules/a76xx/a7677s.c ****  * uploaded (this is what actually sets authmode=0 in the no-cert case).
 113:SynaptiX_FDK/components/modules/a76xx/a7677s.c ****  * Called either directly from begin_ssl_cert_block() (no certs at all) or
 114:SynaptiX_FDK/components/modules/a76xx/a7677s.c ****  * after the last requested cert finishes uploading. */
 115:SynaptiX_FDK/components/modules/a76xx/a7677s.c **** static void begin_sslcfg_block(a7677s_t *dce);
 116:SynaptiX_FDK/components/modules/a76xx/a7677s.c **** static void advance_to_accq(a7677s_t *dce);
 117:SynaptiX_FDK/components/modules/a76xx/a7677s.c **** 
 118:SynaptiX_FDK/components/modules/a76xx/a7677s.c **** /* Helper: send a dynamic MQTT command (built into s_mqtt_dyn_cmd_buf). */
 119:SynaptiX_FDK/components/modules/a76xx/a7677s.c **** static void send_mqtt_dynamic(a7677s_t *dce, const char *cmd_str,
 120:SynaptiX_FDK/components/modules/a76xx/a7677s.c ****                                const char *res_success, const char *res_fail,
 121:SynaptiX_FDK/components/modules/a76xx/a7677s.c ****                                modem_command_response_callback_t cb,
 122:SynaptiX_FDK/components/modules/a76xx/a7677s.c ****                                uint32_t timeout_ms);
 123:SynaptiX_FDK/components/modules/a76xx/a7677s.c **** 
 124:SynaptiX_FDK/components/modules/a76xx/a7677s.c **** /* URC (Unsolicited Result Code) scanner — reassembles +CMQTTRXSTART/TOPIC/
 125:SynaptiX_FDK/components/modules/a76xx/a7677s.c ****  * PAYLOAD/END, +CMQTTCONNLOST, and +CGEV PDN-deactivation lines. Runs only
 126:SynaptiX_FDK/components/modules/a76xx/a7677s.c ****  * while !modem_is_busy(), see a7677s_poll(). Fully self-contained inside
 127:SynaptiX_FDK/components/modules/a76xx/a7677s.c ****  * this driver: the service layer never sees any of this, it only ever gets
 128:SynaptiX_FDK/components/modules/a76xx/a7677s.c ****  * mqtt_incoming_cb/mqtt_connlost_cb fired through the generic
 129:SynaptiX_FDK/components/modules/a76xx/a7677s.c ****  * modem_ops_t.mqtt_set_callbacks() vtable entry. */
 130:SynaptiX_FDK/components/modules/a76xx/a7677s.c **** static void urc_poll(a7677s_t *dce);
 131:SynaptiX_FDK/components/modules/a76xx/a7677s.c **** static void urc_reset_rx_state(a7677s_t *dce);
 132:SynaptiX_FDK/components/modules/a76xx/a7677s.c **** static void urc_process_header_line(a7677s_t *dce, char *line);
 133:SynaptiX_FDK/components/modules/a76xx/a7677s.c **** 
 134:SynaptiX_FDK/components/modules/a76xx/a7677s.c **** /* modem_ops_t.mqtt_set_callbacks wrapper — thin adapter so the service layer
 135:SynaptiX_FDK/components/modules/a76xx/a7677s.c ****  * calls this only through the vtable, never a7677s_mqtt_register_callbacks()
 136:SynaptiX_FDK/components/modules/a76xx/a7677s.c ****  * directly. */
 137:SynaptiX_FDK/components/modules/a76xx/a7677s.c **** static void a7677s_mqtt_set_callbacks(void *ctx, mqtt_incoming_cb_t incoming_cb,
 138:SynaptiX_FDK/components/modules/a76xx/a7677s.c ****                                        mqtt_connlost_cb_t connlost_cb,
 139:SynaptiX_FDK/components/modules/a76xx/a7677s.c ****                                        void *user_ctx);
ARM GAS  C:\Users\DELL\AppData\Local\Temp\ccL84Lpd.s 			page 6


 140:SynaptiX_FDK/components/modules/a76xx/a7677s.c **** 
 141:SynaptiX_FDK/components/modules/a76xx/a7677s.c **** /* Helper: fire the in-flight MQTT op callback and clear it. */
 142:SynaptiX_FDK/components/modules/a76xx/a7677s.c **** static void mqtt_op_done(a7677s_t *dce, modem_ops_result_t result);
 143:SynaptiX_FDK/components/modules/a76xx/a7677s.c **** 
 144:SynaptiX_FDK/components/modules/a76xx/a7677s.c **** static void cb_init_at        (modem_t *modem, const char *response, modem_response_st_t res, void 
 145:SynaptiX_FDK/components/modules/a76xx/a7677s.c **** static void cb_cgdcont        (modem_t *modem, const char *response, modem_response_st_t res, void 
 146:SynaptiX_FDK/components/modules/a76xx/a7677s.c **** static void cb_cgauth         (modem_t *modem, const char *response, modem_response_st_t res, void 
 147:SynaptiX_FDK/components/modules/a76xx/a7677s.c **** static void cb_cgact          (modem_t *modem, const char *response, modem_response_st_t res, void 
 148:SynaptiX_FDK/components/modules/a76xx/a7677s.c **** static void cb_creg_set       (modem_t *modem, const char *response, modem_response_st_t res, void 
 149:SynaptiX_FDK/components/modules/a76xx/a7677s.c **** static void cb_creg_poll      (modem_t *modem, const char *response, modem_response_st_t res, void 
 150:SynaptiX_FDK/components/modules/a76xx/a7677s.c **** static void cb_cops_set       (modem_t *modem, const char *response, modem_response_st_t res, void 
 151:SynaptiX_FDK/components/modules/a76xx/a7677s.c **** static void cb_cops_query     (modem_t *modem, const char *response, modem_response_st_t res, void 
 152:SynaptiX_FDK/components/modules/a76xx/a7677s.c **** static void cb_cgdcont_query  (modem_t *modem, const char *response, modem_response_st_t res, void 
 153:SynaptiX_FDK/components/modules/a76xx/a7677s.c **** static void cb_get_imei       (modem_t *modem, const char *response, modem_response_st_t res, void 
 154:SynaptiX_FDK/components/modules/a76xx/a7677s.c **** static void cb_get_ip         (modem_t *modem, const char *response, modem_response_st_t res, void 
 155:SynaptiX_FDK/components/modules/a76xx/a7677s.c **** static void cb_csq            (modem_t *modem, const char *response, modem_response_st_t res, void 
 156:SynaptiX_FDK/components/modules/a76xx/a7677s.c **** static void cb_cfun_0         (modem_t *modem, const char *response, modem_response_st_t res, void 
 157:SynaptiX_FDK/components/modules/a76xx/a7677s.c **** static void cb_cfun_1         (modem_t *modem, const char *response, modem_response_st_t res, void 
 158:SynaptiX_FDK/components/modules/a76xx/a7677s.c **** 
 159:SynaptiX_FDK/components/modules/a76xx/a7677s.c **** /*Implit declaration*/
 160:SynaptiX_FDK/components/modules/a76xx/a7677s.c **** static bool a7677s_is_ready(void *ctx);
 161:SynaptiX_FDK/components/modules/a76xx/a7677s.c **** 
 162:SynaptiX_FDK/components/modules/a76xx/a7677s.c **** /* ------------------------------------------------------------------ */
 163:SynaptiX_FDK/components/modules/a76xx/a7677s.c **** /*  Init                                                                */
 164:SynaptiX_FDK/components/modules/a76xx/a7677s.c **** /* ------------------------------------------------------------------ */
 165:SynaptiX_FDK/components/modules/a76xx/a7677s.c **** 
 166:SynaptiX_FDK/components/modules/a76xx/a7677s.c **** void a7677s_init(a7677s_t *dce)
 167:SynaptiX_FDK/components/modules/a76xx/a7677s.c **** {
 168:SynaptiX_FDK/components/modules/a76xx/a7677s.c ****     modem_init(pModem(dce));
 169:SynaptiX_FDK/components/modules/a76xx/a7677s.c ****     dce->power_state    = A7677S_PWR_IDLE;
 170:SynaptiX_FDK/components/modules/a76xx/a7677s.c ****     dce->power_elapsed  = 0;
 171:SynaptiX_FDK/components/modules/a76xx/a7677s.c ****     dce->at_probe_pending = 0;
 172:SynaptiX_FDK/components/modules/a76xx/a7677s.c **** 
 173:SynaptiX_FDK/components/modules/a76xx/a7677s.c ****     dce->init_state       = A7677S_INIT_IDLE;
 174:SynaptiX_FDK/components/modules/a76xx/a7677s.c ****     dce->init_elapsed     = 0;
 175:SynaptiX_FDK/components/modules/a76xx/a7677s.c ****     dce->init_retry_count = 0;
 176:SynaptiX_FDK/components/modules/a76xx/a7677s.c ****     dce->creg_poll_count  = 0;
 177:SynaptiX_FDK/components/modules/a76xx/a7677s.c ****     dce->init_cmd_pending = 0;
 178:SynaptiX_FDK/components/modules/a76xx/a7677s.c ****     dce->apn[0]      = '\0';
 179:SynaptiX_FDK/components/modules/a76xx/a7677s.c ****     dce->username[0] = '\0';
 180:SynaptiX_FDK/components/modules/a76xx/a7677s.c ****     dce->password[0] = '\0';
 181:SynaptiX_FDK/components/modules/a76xx/a7677s.c **** 
 182:SynaptiX_FDK/components/modules/a76xx/a7677s.c ****     dce->low_power_active = 0;
 183:SynaptiX_FDK/components/modules/a76xx/a7677s.c ****     dce->cfun_cmd_pending  = 0;
 184:SynaptiX_FDK/components/modules/a76xx/a7677s.c ****     dce->cfun_cb           = NULL;
 185:SynaptiX_FDK/components/modules/a76xx/a7677s.c **** 
 186:SynaptiX_FDK/components/modules/a76xx/a7677s.c ****     dce->ready_cb     = NULL;
 187:SynaptiX_FDK/components/modules/a76xx/a7677s.c ****     dce->ready_cb_ctx = NULL;
 188:SynaptiX_FDK/components/modules/a76xx/a7677s.c ****     dce->error_cb     = NULL;
 189:SynaptiX_FDK/components/modules/a76xx/a7677s.c ****     dce->error_cb_ctx = NULL;
 190:SynaptiX_FDK/components/modules/a76xx/a7677s.c ****     dce->was_ready    = 0;
 191:SynaptiX_FDK/components/modules/a76xx/a7677s.c **** 
 192:SynaptiX_FDK/components/modules/a76xx/a7677s.c ****     dce->imei[0]           = '\0';
 193:SynaptiX_FDK/components/modules/a76xx/a7677s.c ****     dce->ip[0]             = '\0';
 194:SynaptiX_FDK/components/modules/a76xx/a7677s.c ****     dce->rssi              = A7677S_RSSI_UNKNOWN;
 195:SynaptiX_FDK/components/modules/a76xx/a7677s.c ****     dce->rssi_poll_elapsed = 0;
 196:SynaptiX_FDK/components/modules/a76xx/a7677s.c ****     dce->rssi_cmd_pending  = 0;
ARM GAS  C:\Users\DELL\AppData\Local\Temp\ccL84Lpd.s 			page 7


 197:SynaptiX_FDK/components/modules/a76xx/a7677s.c ****     dce->csq_fail_count    = 0;
 198:SynaptiX_FDK/components/modules/a76xx/a7677s.c **** 
 199:SynaptiX_FDK/components/modules/a76xx/a7677s.c ****     dce->mqtt_state       = A7677S_MQTT_IDLE;
 200:SynaptiX_FDK/components/modules/a76xx/a7677s.c ****     dce->mqtt_cmd_pending = 0;
 201:SynaptiX_FDK/components/modules/a76xx/a7677s.c ****     dce->mqtt_client_id[0] = '\0';
 202:SynaptiX_FDK/components/modules/a76xx/a7677s.c ****     dce->mqtt_broker[0]    = '\0';
 203:SynaptiX_FDK/components/modules/a76xx/a7677s.c ****     dce->mqtt_username[0]  = '\0';
 204:SynaptiX_FDK/components/modules/a76xx/a7677s.c ****     dce->mqtt_password[0]  = '\0';
 205:SynaptiX_FDK/components/modules/a76xx/a7677s.c ****     dce->mqtt_keepalive    = 60;
 206:SynaptiX_FDK/components/modules/a76xx/a7677s.c ****     dce->mqtt_clean_session = 1;
 207:SynaptiX_FDK/components/modules/a76xx/a7677s.c ****     dce->mqtt_use_ssl      = 0;
 208:SynaptiX_FDK/components/modules/a76xx/a7677s.c ****     dce->mqtt_pub_topic[0]   = '\0';
 209:SynaptiX_FDK/components/modules/a76xx/a7677s.c ****     dce->mqtt_pub_payload[0] = '\0';
 210:SynaptiX_FDK/components/modules/a76xx/a7677s.c ****     dce->mqtt_pub_topic_len   = 0;
 211:SynaptiX_FDK/components/modules/a76xx/a7677s.c ****     dce->mqtt_pub_payload_len = 0;
 212:SynaptiX_FDK/components/modules/a76xx/a7677s.c ****     dce->mqtt_pub_qos    = 0;
 213:SynaptiX_FDK/components/modules/a76xx/a7677s.c ****     dce->mqtt_pub_retain = 0;
 214:SynaptiX_FDK/components/modules/a76xx/a7677s.c ****     dce->mqtt_sub_topic[0]  = '\0';
 215:SynaptiX_FDK/components/modules/a76xx/a7677s.c ****     dce->mqtt_sub_topic_len = 0;
 216:SynaptiX_FDK/components/modules/a76xx/a7677s.c ****     dce->mqtt_sub_qos = 0;
 217:SynaptiX_FDK/components/modules/a76xx/a7677s.c ****     dce->mqtt_op_cb = NULL;
 218:SynaptiX_FDK/components/modules/a76xx/a7677s.c ****     dce->mqtt_rx_state       = A7677S_MQTT_RX_IDLE;
 219:SynaptiX_FDK/components/modules/a76xx/a7677s.c ****     dce->mqtt_rx_topic[0]    = '\0';
 220:SynaptiX_FDK/components/modules/a76xx/a7677s.c ****     dce->mqtt_rx_payload[0]  = '\0';
 221:SynaptiX_FDK/components/modules/a76xx/a7677s.c ****     dce->mqtt_rx_topic_len   = 0;
 222:SynaptiX_FDK/components/modules/a76xx/a7677s.c ****     dce->mqtt_rx_payload_len = 0;
 223:SynaptiX_FDK/components/modules/a76xx/a7677s.c ****     dce->mqtt_rx_topic_total_len   = 0;
 224:SynaptiX_FDK/components/modules/a76xx/a7677s.c ****     dce->mqtt_rx_payload_total_len = 0;
 225:SynaptiX_FDK/components/modules/a76xx/a7677s.c ****     dce->mqtt_incoming_cb  = NULL;
 226:SynaptiX_FDK/components/modules/a76xx/a7677s.c ****     dce->mqtt_connlost_cb  = NULL;
 227:SynaptiX_FDK/components/modules/a76xx/a7677s.c ****     dce->mqtt_user_ctx     = NULL;
 228:SynaptiX_FDK/components/modules/a76xx/a7677s.c **** 
 229:SynaptiX_FDK/components/modules/a76xx/a7677s.c ****     dce->urc_buf[0] = '\0';
 230:SynaptiX_FDK/components/modules/a76xx/a7677s.c ****     dce->urc_buf_len = 0;
 231:SynaptiX_FDK/components/modules/a76xx/a7677s.c ****     dce->urc_chunk_remaining = 0;
 232:SynaptiX_FDK/components/modules/a76xx/a7677s.c **** 
 233:SynaptiX_FDK/components/modules/a76xx/a7677s.c ****     log_debug(TAG, "Initializing");
 234:SynaptiX_FDK/components/modules/a76xx/a7677s.c **** }
 235:SynaptiX_FDK/components/modules/a76xx/a7677s.c **** 
 236:SynaptiX_FDK/components/modules/a76xx/a7677s.c **** void a7677s_set_full_apn(a7677s_t *dce, const char *apn, const char *username, const char *password
 237:SynaptiX_FDK/components/modules/a76xx/a7677s.c **** {
 238:SynaptiX_FDK/components/modules/a76xx/a7677s.c ****     strncpy(dce->apn, apn ? apn : "", sizeof(dce->apn) - 1);
 239:SynaptiX_FDK/components/modules/a76xx/a7677s.c ****     dce->apn[sizeof(dce->apn) - 1] = '\0';
 240:SynaptiX_FDK/components/modules/a76xx/a7677s.c **** 
 241:SynaptiX_FDK/components/modules/a76xx/a7677s.c ****     strncpy(dce->username, username ? username : "", sizeof(dce->username) - 1);
 242:SynaptiX_FDK/components/modules/a76xx/a7677s.c ****     dce->username[sizeof(dce->username) - 1] = '\0';
 243:SynaptiX_FDK/components/modules/a76xx/a7677s.c **** 
 244:SynaptiX_FDK/components/modules/a76xx/a7677s.c ****     strncpy(dce->password, password ? password : "", sizeof(dce->password) - 1);
 245:SynaptiX_FDK/components/modules/a76xx/a7677s.c ****     dce->password[sizeof(dce->password) - 1] = '\0';
 246:SynaptiX_FDK/components/modules/a76xx/a7677s.c **** 
 247:SynaptiX_FDK/components/modules/a76xx/a7677s.c ****     log_info(TAG, "APN config: %s | User: %s | Pass: %s",
 248:SynaptiX_FDK/components/modules/a76xx/a7677s.c ****              dce->apn,
 249:SynaptiX_FDK/components/modules/a76xx/a7677s.c ****              dce->username[0] ? dce->username : "(none)",
 250:SynaptiX_FDK/components/modules/a76xx/a7677s.c ****              dce->password[0] ? dce->password : "(none)");
 251:SynaptiX_FDK/components/modules/a76xx/a7677s.c **** }
 252:SynaptiX_FDK/components/modules/a76xx/a7677s.c **** 
 253:SynaptiX_FDK/components/modules/a76xx/a7677s.c **** /* ------------------------------------------------------------------ */
ARM GAS  C:\Users\DELL\AppData\Local\Temp\ccL84Lpd.s 			page 8


 254:SynaptiX_FDK/components/modules/a76xx/a7677s.c **** /*  Power state machine                                                */
 255:SynaptiX_FDK/components/modules/a76xx/a7677s.c **** /* ------------------------------------------------------------------ */
 256:SynaptiX_FDK/components/modules/a76xx/a7677s.c **** 
 257:SynaptiX_FDK/components/modules/a76xx/a7677s.c **** static void a7677s_power_on_start(void *ctx)
 258:SynaptiX_FDK/components/modules/a76xx/a7677s.c **** {
 259:SynaptiX_FDK/components/modules/a76xx/a7677s.c ****     a7677s_t *dce = (a7677s_t *)ctx;
 260:SynaptiX_FDK/components/modules/a76xx/a7677s.c **** 
 261:SynaptiX_FDK/components/modules/a76xx/a7677s.c ****     log_info(TAG, "Power On start");
 262:SynaptiX_FDK/components/modules/a76xx/a7677s.c ****     dce->power_state      = A7677S_PWR_PULSE_HIGH;
 263:SynaptiX_FDK/components/modules/a76xx/a7677s.c ****     dce->power_elapsed    = 0;
 264:SynaptiX_FDK/components/modules/a76xx/a7677s.c ****     dce->at_probe_pending = 0;
 265:SynaptiX_FDK/components/modules/a76xx/a7677s.c ****     /* PWRKEY pulse pattern is identical to sim76xx (same physical circuit),
 266:SynaptiX_FDK/components/modules/a76xx/a7677s.c ****      * but here it is driven by state machine timing inside poll() instead
 267:SynaptiX_FDK/components/modules/a76xx/a7677s.c ****      * of sx_delay_ms(), so the main loop is never blocked. */
 268:SynaptiX_FDK/components/modules/a76xx/a7677s.c ****     sx_gpio_write(&dce->base.pwrPin, SX_GPIO_HIGH);
 269:SynaptiX_FDK/components/modules/a76xx/a7677s.c **** }
 270:SynaptiX_FDK/components/modules/a76xx/a7677s.c **** 
 271:SynaptiX_FDK/components/modules/a76xx/a7677s.c **** static void a7677s_power_off_start(void *ctx)
 272:SynaptiX_FDK/components/modules/a76xx/a7677s.c **** {
 273:SynaptiX_FDK/components/modules/a76xx/a7677s.c ****     a7677s_t *dce = (a7677s_t *)ctx;
 274:SynaptiX_FDK/components/modules/a76xx/a7677s.c **** 
 275:SynaptiX_FDK/components/modules/a76xx/a7677s.c ****     log_info(TAG, "Power Off start (AT+CPOF)");
 276:SynaptiX_FDK/components/modules/a76xx/a7677s.c ****     /* No powerPin/VBAT cutoff on this board revision (hasPowerPin stays 0,
 277:SynaptiX_FDK/components/modules/a76xx/a7677s.c ****      * see modem_init()) — graceful shutdown relies solely on AT+CPOF.
 278:SynaptiX_FDK/components/modules/a76xx/a7677s.c ****      * modem_send_command() itself is non-blocking; the OK/timeout arrives
 279:SynaptiX_FDK/components/modules/a76xx/a7677s.c ****      * later via modem_poll(), handled by cb_cpof() below. */
 280:SynaptiX_FDK/components/modules/a76xx/a7677s.c ****     dce->power_state   = A7677S_PWR_OFF_WAIT;
 281:SynaptiX_FDK/components/modules/a76xx/a7677s.c ****     dce->power_elapsed = 0;
 282:SynaptiX_FDK/components/modules/a76xx/a7677s.c ****     command[CMD_CPOF].callback = cb_cpof;
 283:SynaptiX_FDK/components/modules/a76xx/a7677s.c ****     command[CMD_CPOF].arg      = dce;
 284:SynaptiX_FDK/components/modules/a76xx/a7677s.c ****     modem_send_command(pModem(dce), &command[CMD_CPOF], A7677S_TIMEOUT_CPOF);
 285:SynaptiX_FDK/components/modules/a76xx/a7677s.c **** }
 286:SynaptiX_FDK/components/modules/a76xx/a7677s.c **** 
 287:SynaptiX_FDK/components/modules/a76xx/a7677s.c **** /* Last-resort hard reset via the physical RST line (LTE_RESET_Pin, through
 288:SynaptiX_FDK/components/modules/a76xx/a7677s.c ****  * Q2 — see resetPin's doc-comment in a7677s.h). Bypasses AT+CPOF and the
 289:SynaptiX_FDK/components/modules/a76xx/a7677s.c ****  * PWRKEY pulse entirely: this is for the case where the module has stopped
 290:SynaptiX_FDK/components/modules/a76xx/a7677s.c ****  * responding to AT at all, or repeated power_off_start()/power_on_start()
 291:SynaptiX_FDK/components/modules/a76xx/a7677s.c ****  * cycles have themselves failed to recover it. Unconditionally overrides
 292:SynaptiX_FDK/components/modules/a76xx/a7677s.c ****  * whatever power_state/init_state the driver was in — an emergency
 293:SynaptiX_FDK/components/modules/a76xx/a7677s.c ****  * escalation, not a normal sequenced call — so unlike start() it does not
 294:SynaptiX_FDK/components/modules/a76xx/a7677s.c ****  * check power_is_busy() first. Any AT command that happened to be in flight
 295:SynaptiX_FDK/components/modules/a76xx/a7677s.c ****  * is abandoned; its callback (if any) will not fire. */
 296:SynaptiX_FDK/components/modules/a76xx/a7677s.c **** static void a7677s_hard_reset(void *ctx)
 297:SynaptiX_FDK/components/modules/a76xx/a7677s.c **** {
 298:SynaptiX_FDK/components/modules/a76xx/a7677s.c ****     a7677s_t *dce = (a7677s_t *)ctx;
 299:SynaptiX_FDK/components/modules/a76xx/a7677s.c **** 
 300:SynaptiX_FDK/components/modules/a76xx/a7677s.c ****     log_error(TAG, "Hard reset via RST pin (emergency recovery)");
 301:SynaptiX_FDK/components/modules/a76xx/a7677s.c ****     dce->power_state      = A7677S_PWR_RST_PULSE;
 302:SynaptiX_FDK/components/modules/a76xx/a7677s.c ****     dce->power_elapsed    = 0;
 303:SynaptiX_FDK/components/modules/a76xx/a7677s.c ****     dce->at_probe_pending = 0;
 304:SynaptiX_FDK/components/modules/a76xx/a7677s.c ****     dce->init_state       = A7677S_INIT_IDLE;
 305:SynaptiX_FDK/components/modules/a76xx/a7677s.c ****     dce->init_retry_count = 0;
 306:SynaptiX_FDK/components/modules/a76xx/a7677s.c ****     sx_gpio_write(&dce->resetPin, SX_GPIO_HIGH);
 307:SynaptiX_FDK/components/modules/a76xx/a7677s.c **** }
 308:SynaptiX_FDK/components/modules/a76xx/a7677s.c **** 
 309:SynaptiX_FDK/components/modules/a76xx/a7677s.c **** /* Clears stale UART/RX-buffer state only — see modem_ops.h's doc-comment on
 310:SynaptiX_FDK/components/modules/a76xx/a7677s.c ****  * comm_reset for why this is needed separately from power-cycling. Does NOT
ARM GAS  C:\Users\DELL\AppData\Local\Temp\ccL84Lpd.s 			page 9


 311:SynaptiX_FDK/components/modules/a76xx/a7677s.c ****  * touch power_state/init_state/mqtt_state: those are sequenced by their own
 312:SynaptiX_FDK/components/modules/a76xx/a7677s.c ****  * state machines (power_on_start()/start()/etc) and callers are expected to
 313:SynaptiX_FDK/components/modules/a76xx/a7677s.c ****  * drive those separately, same as before this existed. */
 314:SynaptiX_FDK/components/modules/a76xx/a7677s.c **** static void a7677s_comm_reset(void *ctx)
 315:SynaptiX_FDK/components/modules/a76xx/a7677s.c **** {
 316:SynaptiX_FDK/components/modules/a76xx/a7677s.c ****     a7677s_t *dce = (a7677s_t *)ctx;
 317:SynaptiX_FDK/components/modules/a76xx/a7677s.c **** 
 318:SynaptiX_FDK/components/modules/a76xx/a7677s.c ****     pModem(dce)->isBusy  = 0;
 319:SynaptiX_FDK/components/modules/a76xx/a7677s.c ****     pModem(dce)->buff_id = 0;
 320:SynaptiX_FDK/components/modules/a76xx/a7677s.c ****     memset(pModem(dce)->buff, 0, MODEM_RX_BUFFER_SIZE);
 321:SynaptiX_FDK/components/modules/a76xx/a7677s.c **** }
 322:SynaptiX_FDK/components/modules/a76xx/a7677s.c **** 
 323:SynaptiX_FDK/components/modules/a76xx/a7677s.c **** static bool a7677s_power_is_busy(void *ctx)
 324:SynaptiX_FDK/components/modules/a76xx/a7677s.c **** {
  98              		.loc 1 324 1 is_stmt 1 view -0
  99              		.cfi_startproc
 100              		@ args = 0, pretend = 0, frame = 0
 101              		@ frame_needed = 0, uses_anonymous_args = 0
 102              		@ link register save eliminated.
 325:SynaptiX_FDK/components/modules/a76xx/a7677s.c ****     a7677s_t *dce = (a7677s_t *)ctx;
 103              		.loc 1 325 5 view .LVU21
 326:SynaptiX_FDK/components/modules/a76xx/a7677s.c ****     return (dce->power_state != A7677S_PWR_IDLE) &&
 104              		.loc 1 326 5 view .LVU22
 105              		.loc 1 326 16 is_stmt 0 view .LVU23
 106 0000 90F88032 		ldrb	r3, [r0, #640]	@ zero_extendqisi2
 107              		.loc 1 326 50 view .LVU24
 108 0004 2BB1     		cbz	r3, .L9
 109              		.loc 1 326 50 discriminator 1 view .LVU25
 110 0006 052B     		cmp	r3, #5
 111 0008 01D0     		beq	.L11
 112              		.loc 1 326 50 discriminator 3 view .LVU26
 113 000a 0120     		movs	r0, #1
 114              	.LVL8:
 327:SynaptiX_FDK/components/modules/a76xx/a7677s.c ****            (dce->power_state != A7677S_PWR_READY);
 328:SynaptiX_FDK/components/modules/a76xx/a7677s.c **** }
 115              		.loc 1 328 1 view .LVU27
 116 000c 7047     		bx	lr
 117              	.LVL9:
 118              	.L11:
 326:SynaptiX_FDK/components/modules/a76xx/a7677s.c ****     return (dce->power_state != A7677S_PWR_IDLE) &&
 119              		.loc 1 326 50 discriminator 4 view .LVU28
 120 000e 0020     		movs	r0, #0
 121              	.LVL10:
 326:SynaptiX_FDK/components/modules/a76xx/a7677s.c ****     return (dce->power_state != A7677S_PWR_IDLE) &&
 122              		.loc 1 326 50 discriminator 4 view .LVU29
 123 0010 7047     		bx	lr
 124              	.LVL11:
 125              	.L9:
 326:SynaptiX_FDK/components/modules/a76xx/a7677s.c ****     return (dce->power_state != A7677S_PWR_IDLE) &&
 126              		.loc 1 326 50 discriminator 4 view .LVU30
 127 0012 0020     		movs	r0, #0
 128              	.LVL12:
 326:SynaptiX_FDK/components/modules/a76xx/a7677s.c ****     return (dce->power_state != A7677S_PWR_IDLE) &&
 129              		.loc 1 326 50 discriminator 4 view .LVU31
 130 0014 7047     		bx	lr
 131              		.cfi_endproc
 132              	.LFE18:
ARM GAS  C:\Users\DELL\AppData\Local\Temp\ccL84Lpd.s 			page 10


 134              		.section	.text.a7677s_is_ready,"ax",%progbits
 135              		.align	1
 136              		.syntax unified
 137              		.thumb
 138              		.thumb_func
 140              	a7677s_is_ready:
 141              	.LVL13:
 142              	.LFB40:
 329:SynaptiX_FDK/components/modules/a76xx/a7677s.c **** 
 330:SynaptiX_FDK/components/modules/a76xx/a7677s.c **** static void cb_at_probe(modem_t *modem, const char *response, modem_response_st_t res, void *arg)
 331:SynaptiX_FDK/components/modules/a76xx/a7677s.c **** {
 332:SynaptiX_FDK/components/modules/a76xx/a7677s.c ****     a7677s_t *dce = pDCE(modem);
 333:SynaptiX_FDK/components/modules/a76xx/a7677s.c ****     dce->at_probe_pending = 0;
 334:SynaptiX_FDK/components/modules/a76xx/a7677s.c **** 
 335:SynaptiX_FDK/components/modules/a76xx/a7677s.c ****     if (res == MODEM_RESPONSE_SUCCESS) {
 336:SynaptiX_FDK/components/modules/a76xx/a7677s.c ****         log_info(TAG, "Module responsive, boot confirmed");
 337:SynaptiX_FDK/components/modules/a76xx/a7677s.c ****         dce->power_state   = A7677S_PWR_READY;
 338:SynaptiX_FDK/components/modules/a76xx/a7677s.c ****         dce->power_elapsed = 0;
 339:SynaptiX_FDK/components/modules/a76xx/a7677s.c ****     }
 340:SynaptiX_FDK/components/modules/a76xx/a7677s.c ****     /* On FAIL/TIMEOUT: stay in A7677S_PWR_WAIT_BOOT, poll() will send the
 341:SynaptiX_FDK/components/modules/a76xx/a7677s.c ****      * next probe after another A7677S_BOOT_PROBE_MS — this is the expected,
 342:SynaptiX_FDK/components/modules/a76xx/a7677s.c ****      * normal path while the module is still booting. */
 343:SynaptiX_FDK/components/modules/a76xx/a7677s.c **** }
 344:SynaptiX_FDK/components/modules/a76xx/a7677s.c **** 
 345:SynaptiX_FDK/components/modules/a76xx/a7677s.c **** static void cb_cpof(modem_t *modem, const char *response, modem_response_st_t res, void *arg)
 346:SynaptiX_FDK/components/modules/a76xx/a7677s.c **** {
 347:SynaptiX_FDK/components/modules/a76xx/a7677s.c ****     a7677s_t *dce = pDCE(modem);
 348:SynaptiX_FDK/components/modules/a76xx/a7677s.c ****     /* Whether AT+CPOF succeeded, failed, or timed out, the power sequence
 349:SynaptiX_FDK/components/modules/a76xx/a7677s.c ****      * is considered finished from the state machine's point of view — a
 350:SynaptiX_FDK/components/modules/a76xx/a7677s.c ****      * failed/timeout CPOF still leaves the caller free to retry
 351:SynaptiX_FDK/components/modules/a76xx/a7677s.c ****      * power_off_start() again later; power_is_busy() must not stay stuck
 352:SynaptiX_FDK/components/modules/a76xx/a7677s.c ****      * forever. */
 353:SynaptiX_FDK/components/modules/a76xx/a7677s.c ****     if (res != MODEM_RESPONSE_SUCCESS) {
 354:SynaptiX_FDK/components/modules/a76xx/a7677s.c ****         log_error(TAG, "AT+CPOF did not complete cleanly (res=%d)", res);
 355:SynaptiX_FDK/components/modules/a76xx/a7677s.c ****     } else {
 356:SynaptiX_FDK/components/modules/a76xx/a7677s.c ****         log_info(TAG, "Power Off OK");
 357:SynaptiX_FDK/components/modules/a76xx/a7677s.c ****     }
 358:SynaptiX_FDK/components/modules/a76xx/a7677s.c ****     dce->power_state   = A7677S_PWR_IDLE;
 359:SynaptiX_FDK/components/modules/a76xx/a7677s.c ****     dce->power_elapsed = 0;
 360:SynaptiX_FDK/components/modules/a76xx/a7677s.c **** }
 361:SynaptiX_FDK/components/modules/a76xx/a7677s.c **** 
 362:SynaptiX_FDK/components/modules/a76xx/a7677s.c **** static void a7677s_poll(void *ctx, uint32_t ts)
 363:SynaptiX_FDK/components/modules/a76xx/a7677s.c **** {
 364:SynaptiX_FDK/components/modules/a76xx/a7677s.c ****     a7677s_t *dce = (a7677s_t *)ctx;
 365:SynaptiX_FDK/components/modules/a76xx/a7677s.c **** 
 366:SynaptiX_FDK/components/modules/a76xx/a7677s.c ****     /* Always pump the underlying command/response state machine first, so
 367:SynaptiX_FDK/components/modules/a76xx/a7677s.c ****      * any in-flight AT command (probe or CPOF) gets its callback fired
 368:SynaptiX_FDK/components/modules/a76xx/a7677s.c ****      * before we act on power_state below. */
 369:SynaptiX_FDK/components/modules/a76xx/a7677s.c ****     modem_poll(pModem(dce), ts);
 370:SynaptiX_FDK/components/modules/a76xx/a7677s.c **** 
 371:SynaptiX_FDK/components/modules/a76xx/a7677s.c ****     /* URC scanner: only safe to read the UART for unsolicited lines while
 372:SynaptiX_FDK/components/modules/a76xx/a7677s.c ****      * no AT command is currently awaiting its response (modem_poll() above
 373:SynaptiX_FDK/components/modules/a76xx/a7677s.c ****      * owns the UART/modem->buff channel exclusively whenever isBusy is 1).
 374:SynaptiX_FDK/components/modules/a76xx/a7677s.c ****      * Since modem_poll() just ran and may have cleared isBusy in the same
 375:SynaptiX_FDK/components/modules/a76xx/a7677s.c ****      * tick (command completed), checking is_busy() here, after it, means a
 376:SynaptiX_FDK/components/modules/a76xx/a7677s.c ****      * URC arriving in the same tick a command just completed is still
 377:SynaptiX_FDK/components/modules/a76xx/a7677s.c ****      * picked up — no extra tick of latency. */
ARM GAS  C:\Users\DELL\AppData\Local\Temp\ccL84Lpd.s 			page 11


 378:SynaptiX_FDK/components/modules/a76xx/a7677s.c ****     if (!modem_is_busy(pModem(dce))) {
 379:SynaptiX_FDK/components/modules/a76xx/a7677s.c ****         urc_poll(dce);
 380:SynaptiX_FDK/components/modules/a76xx/a7677s.c ****     }
 381:SynaptiX_FDK/components/modules/a76xx/a7677s.c **** 
 382:SynaptiX_FDK/components/modules/a76xx/a7677s.c ****     /* set_on_ready/set_on_error edge detection — must run every tick,
 383:SynaptiX_FDK/components/modules/a76xx/a7677s.c ****      * independent of which state machine below is active. Only fires each
 384:SynaptiX_FDK/components/modules/a76xx/a7677s.c ****      * callback once per transition (never repeatedly while steady). A 1->0
 385:SynaptiX_FDK/components/modules/a76xx/a7677s.c ****      * transition caused by entering low power on purpose is NOT treated as
 386:SynaptiX_FDK/components/modules/a76xx/a7677s.c ****      * an error (low_power_active is part of is_ready()'s own definition, so
 387:SynaptiX_FDK/components/modules/a76xx/a7677s.c ****      * a deliberate enter_low_power() call would otherwise look identical to
 388:SynaptiX_FDK/components/modules/a76xx/a7677s.c ****      * an unexpected drop — excluded explicitly below). */
 389:SynaptiX_FDK/components/modules/a76xx/a7677s.c ****     {
 390:SynaptiX_FDK/components/modules/a76xx/a7677s.c ****         bool now_ready = a7677s_is_ready(dce);
 391:SynaptiX_FDK/components/modules/a76xx/a7677s.c ****         if (now_ready && !dce->was_ready) {
 392:SynaptiX_FDK/components/modules/a76xx/a7677s.c ****             if (dce->ready_cb) dce->ready_cb(dce->ready_cb_ctx);
 393:SynaptiX_FDK/components/modules/a76xx/a7677s.c ****         } else if (!now_ready && dce->was_ready && !dce->low_power_active) {
 394:SynaptiX_FDK/components/modules/a76xx/a7677s.c ****             if (dce->error_cb) dce->error_cb(dce->error_cb_ctx);
 395:SynaptiX_FDK/components/modules/a76xx/a7677s.c ****         }
 396:SynaptiX_FDK/components/modules/a76xx/a7677s.c ****         dce->was_ready = now_ready;
 397:SynaptiX_FDK/components/modules/a76xx/a7677s.c ****     }
 398:SynaptiX_FDK/components/modules/a76xx/a7677s.c **** 
 399:SynaptiX_FDK/components/modules/a76xx/a7677s.c ****     /* Periodic AT+CSQ refresh for get_rssi() — only while ready, and only
 400:SynaptiX_FDK/components/modules/a76xx/a7677s.c ****      * when no other AT command (init sequence, MQTT, CFUN) is already in
 401:SynaptiX_FDK/components/modules/a76xx/a7677s.c ****      * flight, since this shares the same single command/response channel
 402:SynaptiX_FDK/components/modules/a76xx/a7677s.c ****      * as everything else in modem_send_command()/modem_poll(). Skipping a
 403:SynaptiX_FDK/components/modules/a76xx/a7677s.c ****      * tick when busy just delays the refresh slightly; it is re-attempted
 404:SynaptiX_FDK/components/modules/a76xx/a7677s.c ****      * every tick thereafter since rssi_poll_elapsed keeps accumulating. */
 405:SynaptiX_FDK/components/modules/a76xx/a7677s.c ****     if (a7677s_is_ready(dce) && !dce->rssi_cmd_pending &&
 406:SynaptiX_FDK/components/modules/a76xx/a7677s.c ****         !modem_is_busy(pModem(dce)) && !dce->init_cmd_pending &&
 407:SynaptiX_FDK/components/modules/a76xx/a7677s.c ****         !dce->mqtt_cmd_pending && !dce->cfun_cmd_pending)
 408:SynaptiX_FDK/components/modules/a76xx/a7677s.c ****     {
 409:SynaptiX_FDK/components/modules/a76xx/a7677s.c ****         dce->rssi_poll_elapsed += ts;
 410:SynaptiX_FDK/components/modules/a76xx/a7677s.c ****         if (dce->rssi_poll_elapsed >= A7677S_RSSI_POLL_MS) {
 411:SynaptiX_FDK/components/modules/a76xx/a7677s.c ****             dce->rssi_poll_elapsed = 0;
 412:SynaptiX_FDK/components/modules/a76xx/a7677s.c ****             dce->rssi_cmd_pending  = 1;
 413:SynaptiX_FDK/components/modules/a76xx/a7677s.c ****             command[CMD_CSQ].callback = cb_csq;
 414:SynaptiX_FDK/components/modules/a76xx/a7677s.c ****             command[CMD_CSQ].arg      = dce;
 415:SynaptiX_FDK/components/modules/a76xx/a7677s.c ****             modem_send_command(pModem(dce), &command[CMD_CSQ], A7677S_TIMEOUT_CSQ);
 416:SynaptiX_FDK/components/modules/a76xx/a7677s.c ****         }
 417:SynaptiX_FDK/components/modules/a76xx/a7677s.c ****     }
 418:SynaptiX_FDK/components/modules/a76xx/a7677s.c **** 
 419:SynaptiX_FDK/components/modules/a76xx/a7677s.c ****     switch (dce->power_state) {
 420:SynaptiX_FDK/components/modules/a76xx/a7677s.c **** 
 421:SynaptiX_FDK/components/modules/a76xx/a7677s.c ****     case A7677S_PWR_PULSE_HIGH:
 422:SynaptiX_FDK/components/modules/a76xx/a7677s.c ****         dce->power_elapsed += ts;
 423:SynaptiX_FDK/components/modules/a76xx/a7677s.c ****         if (dce->power_elapsed >= A7677S_PULSE_HIGH_MS) {
 424:SynaptiX_FDK/components/modules/a76xx/a7677s.c ****             sx_gpio_write(&dce->base.pwrPin, SX_GPIO_LOW);
 425:SynaptiX_FDK/components/modules/a76xx/a7677s.c ****             dce->power_state   = A7677S_PWR_PULSE_LOW;
 426:SynaptiX_FDK/components/modules/a76xx/a7677s.c ****             dce->power_elapsed = 0;
 427:SynaptiX_FDK/components/modules/a76xx/a7677s.c ****         }
 428:SynaptiX_FDK/components/modules/a76xx/a7677s.c ****         break;
 429:SynaptiX_FDK/components/modules/a76xx/a7677s.c **** 
 430:SynaptiX_FDK/components/modules/a76xx/a7677s.c ****     case A7677S_PWR_PULSE_LOW:
 431:SynaptiX_FDK/components/modules/a76xx/a7677s.c ****         dce->power_elapsed += ts;
 432:SynaptiX_FDK/components/modules/a76xx/a7677s.c ****         if (dce->power_elapsed >= A7677S_PULSE_LOW_MS) {
 433:SynaptiX_FDK/components/modules/a76xx/a7677s.c ****             sx_gpio_write(&dce->base.pwrPin, SX_GPIO_HIGH);
 434:SynaptiX_FDK/components/modules/a76xx/a7677s.c ****             dce->power_state      = A7677S_PWR_WAIT_BOOT;
ARM GAS  C:\Users\DELL\AppData\Local\Temp\ccL84Lpd.s 			page 12


 435:SynaptiX_FDK/components/modules/a76xx/a7677s.c ****             dce->power_elapsed    = 0;
 436:SynaptiX_FDK/components/modules/a76xx/a7677s.c ****             dce->at_probe_pending = 0;
 437:SynaptiX_FDK/components/modules/a76xx/a7677s.c ****         }
 438:SynaptiX_FDK/components/modules/a76xx/a7677s.c ****         break;
 439:SynaptiX_FDK/components/modules/a76xx/a7677s.c **** 
 440:SynaptiX_FDK/components/modules/a76xx/a7677s.c ****     case A7677S_PWR_RST_PULSE:
 441:SynaptiX_FDK/components/modules/a76xx/a7677s.c ****         dce->power_elapsed += ts;
 442:SynaptiX_FDK/components/modules/a76xx/a7677s.c ****         if (dce->power_elapsed >= A7677S_RST_PULSE_MS) {
 443:SynaptiX_FDK/components/modules/a76xx/a7677s.c ****             /* Release: MCU drives resetPin back LOW, Q2 turns off, and the
 444:SynaptiX_FDK/components/modules/a76xx/a7677s.c ****              * module's own RESET pin floats back high via its internal VBAT
 445:SynaptiX_FDK/components/modules/a76xx/a7677s.c ****              * pull-up — normal operation resumes and the module reboots on
 446:SynaptiX_FDK/components/modules/a76xx/a7677s.c ****              * its own. Reuse A7677S_PWR_WAIT_BOOT's existing AT-probe logic
 447:SynaptiX_FDK/components/modules/a76xx/a7677s.c ****              * to confirm boot completion, same as after a PWRKEY cycle. */
 448:SynaptiX_FDK/components/modules/a76xx/a7677s.c ****             sx_gpio_write(&dce->resetPin, SX_GPIO_LOW);
 449:SynaptiX_FDK/components/modules/a76xx/a7677s.c ****             dce->power_state      = A7677S_PWR_WAIT_BOOT;
 450:SynaptiX_FDK/components/modules/a76xx/a7677s.c ****             dce->power_elapsed    = 0;
 451:SynaptiX_FDK/components/modules/a76xx/a7677s.c ****             dce->at_probe_pending = 0;
 452:SynaptiX_FDK/components/modules/a76xx/a7677s.c ****         }
 453:SynaptiX_FDK/components/modules/a76xx/a7677s.c ****         break;
 454:SynaptiX_FDK/components/modules/a76xx/a7677s.c **** 
 455:SynaptiX_FDK/components/modules/a76xx/a7677s.c ****     case A7677S_PWR_WAIT_BOOT:
 456:SynaptiX_FDK/components/modules/a76xx/a7677s.c ****         dce->power_elapsed += ts;
 457:SynaptiX_FDK/components/modules/a76xx/a7677s.c ****         if (!dce->at_probe_pending &&
 458:SynaptiX_FDK/components/modules/a76xx/a7677s.c ****             dce->power_elapsed >= A7677S_BOOT_PROBE_MS &&
 459:SynaptiX_FDK/components/modules/a76xx/a7677s.c ****             !modem_is_busy(pModem(dce))) {
 460:SynaptiX_FDK/components/modules/a76xx/a7677s.c ****             dce->power_elapsed    = 0;
 461:SynaptiX_FDK/components/modules/a76xx/a7677s.c ****             dce->at_probe_pending = 1;
 462:SynaptiX_FDK/components/modules/a76xx/a7677s.c ****             command[CMD_AT].callback = cb_at_probe;
 463:SynaptiX_FDK/components/modules/a76xx/a7677s.c ****             command[CMD_AT].arg      = dce;
 464:SynaptiX_FDK/components/modules/a76xx/a7677s.c ****             modem_send_command(pModem(dce), &command[CMD_AT], A7677S_TIMEOUT_AT);
 465:SynaptiX_FDK/components/modules/a76xx/a7677s.c ****         }
 466:SynaptiX_FDK/components/modules/a76xx/a7677s.c ****         break;
 467:SynaptiX_FDK/components/modules/a76xx/a7677s.c **** 
 468:SynaptiX_FDK/components/modules/a76xx/a7677s.c ****     case A7677S_PWR_IDLE:
 469:SynaptiX_FDK/components/modules/a76xx/a7677s.c ****     case A7677S_PWR_READY:
 470:SynaptiX_FDK/components/modules/a76xx/a7677s.c ****     case A7677S_PWR_OFF_WAIT:
 471:SynaptiX_FDK/components/modules/a76xx/a7677s.c ****     default:
 472:SynaptiX_FDK/components/modules/a76xx/a7677s.c ****         /* Nothing to advance here; A7677S_PWR_OFF_WAIT is resolved entirely
 473:SynaptiX_FDK/components/modules/a76xx/a7677s.c ****          * by cb_cpof() above, driven by modem_poll(). */
 474:SynaptiX_FDK/components/modules/a76xx/a7677s.c ****         break;
 475:SynaptiX_FDK/components/modules/a76xx/a7677s.c ****     }
 476:SynaptiX_FDK/components/modules/a76xx/a7677s.c **** 
 477:SynaptiX_FDK/components/modules/a76xx/a7677s.c ****     /* Advance the network attach sequence. Only A7677S_INIT_CREG_POLL needs
 478:SynaptiX_FDK/components/modules/a76xx/a7677s.c ****      * timer-driven action here (send the next AT+CREG? after
 479:SynaptiX_FDK/components/modules/a76xx/a7677s.c ****      * A7677S_CREG_POLL_MS) — every other init_state transitions purely via
 480:SynaptiX_FDK/components/modules/a76xx/a7677s.c ****      * its AT-command callback, already fired above by modem_poll(). */
 481:SynaptiX_FDK/components/modules/a76xx/a7677s.c ****     if (dce->init_state == A7677S_INIT_CREG_POLL && !dce->init_cmd_pending &&
 482:SynaptiX_FDK/components/modules/a76xx/a7677s.c ****         !modem_is_busy(pModem(dce))) {
 483:SynaptiX_FDK/components/modules/a76xx/a7677s.c ****         dce->init_elapsed += ts;
 484:SynaptiX_FDK/components/modules/a76xx/a7677s.c ****         if (dce->init_elapsed >= A7677S_CREG_POLL_MS) {
 485:SynaptiX_FDK/components/modules/a76xx/a7677s.c ****             dce->init_elapsed = 0;
 486:SynaptiX_FDK/components/modules/a76xx/a7677s.c ****             send_init_cmd(dce, CMD_CREG_POLL, cb_creg_poll, A7677S_TIMEOUT_AT);
 487:SynaptiX_FDK/components/modules/a76xx/a7677s.c ****         }
 488:SynaptiX_FDK/components/modules/a76xx/a7677s.c ****     }
 489:SynaptiX_FDK/components/modules/a76xx/a7677s.c **** }
 490:SynaptiX_FDK/components/modules/a76xx/a7677s.c **** 
 491:SynaptiX_FDK/components/modules/a76xx/a7677s.c **** /* ------------------------------------------------------------------ */
ARM GAS  C:\Users\DELL\AppData\Local\Temp\ccL84Lpd.s 			page 13


 492:SynaptiX_FDK/components/modules/a76xx/a7677s.c **** /*  Network attach (AT init sequence)                                  */
 493:SynaptiX_FDK/components/modules/a76xx/a7677s.c **** /* ------------------------------------------------------------------ */
 494:SynaptiX_FDK/components/modules/a76xx/a7677s.c **** /* Order and command syntax: see the comment above a7677s_init_state_t in
 495:SynaptiX_FDK/components/modules/a76xx/a7677s.c ****  * a7677s.h for the two reference sources and the one deliberate deviation
 496:SynaptiX_FDK/components/modules/a76xx/a7677s.c ****  * (explicit AT+CREG? poll instead of trusting AT+CREG=1's "OK"). */
 497:SynaptiX_FDK/components/modules/a76xx/a7677s.c **** 
 498:SynaptiX_FDK/components/modules/a76xx/a7677s.c **** static void send_init_cmd(a7677s_t *dce, int idx, modem_command_response_callback_t cb, uint32_t ti
 499:SynaptiX_FDK/components/modules/a76xx/a7677s.c **** {
 500:SynaptiX_FDK/components/modules/a76xx/a7677s.c ****     command[idx].callback = cb;
 501:SynaptiX_FDK/components/modules/a76xx/a7677s.c ****     command[idx].arg      = dce;
 502:SynaptiX_FDK/components/modules/a76xx/a7677s.c ****     dce->init_cmd_pending = 1;
 503:SynaptiX_FDK/components/modules/a76xx/a7677s.c ****     log_debug(TAG, "INIT CMD: %s", command[idx].cmd);
 504:SynaptiX_FDK/components/modules/a76xx/a7677s.c ****     modem_send_command(pModem(dce), &command[idx], timeout_ms);
 505:SynaptiX_FDK/components/modules/a76xx/a7677s.c **** }
 506:SynaptiX_FDK/components/modules/a76xx/a7677s.c **** 
 507:SynaptiX_FDK/components/modules/a76xx/a7677s.c **** static void send_init_dynamic(a7677s_t *dce, const char *cmd_str, modem_command_response_callback_t
 508:SynaptiX_FDK/components/modules/a76xx/a7677s.c **** {
 509:SynaptiX_FDK/components/modules/a76xx/a7677s.c ****     command[CMD_DYNAMIC].cmd         = cmd_str;
 510:SynaptiX_FDK/components/modules/a76xx/a7677s.c ****     command[CMD_DYNAMIC].res_success = "\r\nOK\r\n";
 511:SynaptiX_FDK/components/modules/a76xx/a7677s.c ****     command[CMD_DYNAMIC].res_fail    = "\r\nERROR\r\n";
 512:SynaptiX_FDK/components/modules/a76xx/a7677s.c ****     command[CMD_DYNAMIC].callback    = cb;
 513:SynaptiX_FDK/components/modules/a76xx/a7677s.c ****     command[CMD_DYNAMIC].arg         = dce;
 514:SynaptiX_FDK/components/modules/a76xx/a7677s.c ****     dce->init_cmd_pending = 1;
 515:SynaptiX_FDK/components/modules/a76xx/a7677s.c ****     log_debug(TAG, "INIT CMD: %s", cmd_str);
 516:SynaptiX_FDK/components/modules/a76xx/a7677s.c ****     modem_send_command(pModem(dce), &command[CMD_DYNAMIC], timeout_ms);
 517:SynaptiX_FDK/components/modules/a76xx/a7677s.c **** }
 518:SynaptiX_FDK/components/modules/a76xx/a7677s.c **** 
 519:SynaptiX_FDK/components/modules/a76xx/a7677s.c **** /* Restarts the whole attach sequence from AT, incrementing the retry
 520:SynaptiX_FDK/components/modules/a76xx/a7677s.c ****  * counter. Mirrors sim76xx.c's restart_at(). Does NOT touch power_state —
 521:SynaptiX_FDK/components/modules/a76xx/a7677s.c ****  * if the module stopped responding entirely, that is caught separately by
 522:SynaptiX_FDK/components/modules/a76xx/a7677s.c ****  * power_is_busy()/is_ready() going false, not handled here. */
 523:SynaptiX_FDK/components/modules/a76xx/a7677s.c **** static void restart_init(a7677s_t *dce)
 524:SynaptiX_FDK/components/modules/a76xx/a7677s.c **** {
 525:SynaptiX_FDK/components/modules/a76xx/a7677s.c ****     dce->init_retry_count++;
 526:SynaptiX_FDK/components/modules/a76xx/a7677s.c ****     log_error(TAG, "Init step failed (retry %u/%u)", dce->init_retry_count, A7677S_MAX_RETRY);
 527:SynaptiX_FDK/components/modules/a76xx/a7677s.c **** 
 528:SynaptiX_FDK/components/modules/a76xx/a7677s.c ****     if (dce->init_retry_count >= A7677S_MAX_RETRY) {
 529:SynaptiX_FDK/components/modules/a76xx/a7677s.c ****         /* Give up restarting silently forever; go back to IDLE so the
 530:SynaptiX_FDK/components/modules/a76xx/a7677s.c ****          * caller (board/service layer) can decide to power-cycle via
 531:SynaptiX_FDK/components/modules/a76xx/a7677s.c ****          * power_off_start()/power_on_start() instead of looping here. */
 532:SynaptiX_FDK/components/modules/a76xx/a7677s.c ****         dce->init_retry_count = 0;
 533:SynaptiX_FDK/components/modules/a76xx/a7677s.c ****         dce->init_state       = A7677S_INIT_IDLE;
 534:SynaptiX_FDK/components/modules/a76xx/a7677s.c ****         log_error(TAG, "Init sequence failed after max retries, giving up (caller should power-cycl
 535:SynaptiX_FDK/components/modules/a76xx/a7677s.c **** 
 536:SynaptiX_FDK/components/modules/a76xx/a7677s.c ****         /* Gap fix: a7677s_poll()'s ready/error edge detection only fires
 537:SynaptiX_FDK/components/modules/a76xx/a7677s.c ****          * error_cb on a was_ready=1 -> now_ready=0 transition. If the module
 538:SynaptiX_FDK/components/modules/a76xx/a7677s.c ****          * never reached ready once (this is the very first attach attempt
 539:SynaptiX_FDK/components/modules/a76xx/a7677s.c ****          * and it failed A7677S_MAX_RETRY times in a row), was_ready is still
 540:SynaptiX_FDK/components/modules/a76xx/a7677s.c ****          * 0 here, so that transition never happens and error_cb would
 541:SynaptiX_FDK/components/modules/a76xx/a7677s.c ****          * otherwise never fire — leaving the caller layer with no signal
 542:SynaptiX_FDK/components/modules/a76xx/a7677s.c ****          * that the attach sequence is dead and sitting idle in
 543:SynaptiX_FDK/components/modules/a76xx/a7677s.c ****          * A7677S_INIT_IDLE forever. Fire error_cb directly for this specific
 544:SynaptiX_FDK/components/modules/a76xx/a7677s.c ****          * "never became ready" case so the caller can still decide to
 545:SynaptiX_FDK/components/modules/a76xx/a7677s.c ****          * power-cycle, same as the normal drop-after-ready case. */
 546:SynaptiX_FDK/components/modules/a76xx/a7677s.c ****         if (!dce->was_ready && dce->error_cb) {
 547:SynaptiX_FDK/components/modules/a76xx/a7677s.c ****             dce->error_cb(dce->error_cb_ctx);
 548:SynaptiX_FDK/components/modules/a76xx/a7677s.c ****         }
ARM GAS  C:\Users\DELL\AppData\Local\Temp\ccL84Lpd.s 			page 14


 549:SynaptiX_FDK/components/modules/a76xx/a7677s.c ****         return;
 550:SynaptiX_FDK/components/modules/a76xx/a7677s.c ****     }
 551:SynaptiX_FDK/components/modules/a76xx/a7677s.c **** 
 552:SynaptiX_FDK/components/modules/a76xx/a7677s.c ****     dce->init_state   = A7677S_INIT_AT;
 553:SynaptiX_FDK/components/modules/a76xx/a7677s.c ****     dce->init_elapsed = 0;
 554:SynaptiX_FDK/components/modules/a76xx/a7677s.c ****     send_init_cmd(dce, CMD_AT, cb_init_at, A7677S_TIMEOUT_AT);
 555:SynaptiX_FDK/components/modules/a76xx/a7677s.c **** }
 556:SynaptiX_FDK/components/modules/a76xx/a7677s.c **** 
 557:SynaptiX_FDK/components/modules/a76xx/a7677s.c **** static void cb_init_at(modem_t *modem, const char *response, modem_response_st_t res, void *arg)
 558:SynaptiX_FDK/components/modules/a76xx/a7677s.c **** {
 559:SynaptiX_FDK/components/modules/a76xx/a7677s.c ****     a7677s_t *dce = pDCE(arg);
 560:SynaptiX_FDK/components/modules/a76xx/a7677s.c ****     dce->init_cmd_pending = 0;
 561:SynaptiX_FDK/components/modules/a76xx/a7677s.c ****     if (res != MODEM_RESPONSE_SUCCESS) { restart_init(dce); return; }
 562:SynaptiX_FDK/components/modules/a76xx/a7677s.c **** 
 563:SynaptiX_FDK/components/modules/a76xx/a7677s.c ****     dce->init_retry_count = 0;
 564:SynaptiX_FDK/components/modules/a76xx/a7677s.c ****     dce->init_state       = A7677S_INIT_CGDCONT;
 565:SynaptiX_FDK/components/modules/a76xx/a7677s.c ****     snprintf(s_dyn_cmd_buf, sizeof(s_dyn_cmd_buf), "AT+CGDCONT=1,\"IP\",\"%s\"\r\n", dce->apn);
 566:SynaptiX_FDK/components/modules/a76xx/a7677s.c ****     send_init_dynamic(dce, s_dyn_cmd_buf, cb_cgdcont, A7677S_TIMEOUT_NETWORK);
 567:SynaptiX_FDK/components/modules/a76xx/a7677s.c **** }
 568:SynaptiX_FDK/components/modules/a76xx/a7677s.c **** 
 569:SynaptiX_FDK/components/modules/a76xx/a7677s.c **** static void cb_cgdcont(modem_t *modem, const char *response, modem_response_st_t res, void *arg)
 570:SynaptiX_FDK/components/modules/a76xx/a7677s.c **** {
 571:SynaptiX_FDK/components/modules/a76xx/a7677s.c ****     a7677s_t *dce = pDCE(arg);
 572:SynaptiX_FDK/components/modules/a76xx/a7677s.c ****     dce->init_cmd_pending = 0;
 573:SynaptiX_FDK/components/modules/a76xx/a7677s.c ****     if (res != MODEM_RESPONSE_SUCCESS) { restart_init(dce); return; }
 574:SynaptiX_FDK/components/modules/a76xx/a7677s.c **** 
 575:SynaptiX_FDK/components/modules/a76xx/a7677s.c ****     if (dce->username[0] != '\0' && dce->password[0] != '\0') {
 576:SynaptiX_FDK/components/modules/a76xx/a7677s.c ****         /* PAP: AT+CGAUTH=<cid>,<auth_type>,<passwd>,<user> — password comes
 577:SynaptiX_FDK/components/modules/a76xx/a7677s.c ****          * BEFORE username. Confirmed against a76xx_at_cmd.md section 5.2.16
 578:SynaptiX_FDK/components/modules/a76xx/a7677s.c ****          * (WriteCommand: AT+CGAUTH=<cid>[,<auth_type>[,<passwd>[,<user>]]]).
 579:SynaptiX_FDK/components/modules/a76xx/a7677s.c ****          * WS_v0/A76xx.c has this swapped (passes username, then password) —
 580:SynaptiX_FDK/components/modules/a76xx/a7677s.c ****          * that is a bug in WS_v0, not followed here. */
 581:SynaptiX_FDK/components/modules/a76xx/a7677s.c ****         dce->init_state = A7677S_INIT_CGAUTH;
 582:SynaptiX_FDK/components/modules/a76xx/a7677s.c ****         snprintf(s_dyn_cmd_buf, sizeof(s_dyn_cmd_buf), "AT+CGAUTH=1,1,\"%s\",\"%s\"\r\n",
 583:SynaptiX_FDK/components/modules/a76xx/a7677s.c ****                  dce->password, dce->username);
 584:SynaptiX_FDK/components/modules/a76xx/a7677s.c ****         send_init_dynamic(dce, s_dyn_cmd_buf, cb_cgauth, A7677S_TIMEOUT_NETWORK);
 585:SynaptiX_FDK/components/modules/a76xx/a7677s.c ****         return;
 586:SynaptiX_FDK/components/modules/a76xx/a7677s.c ****     }
 587:SynaptiX_FDK/components/modules/a76xx/a7677s.c ****     if (dce->password[0] != '\0') {
 588:SynaptiX_FDK/components/modules/a76xx/a7677s.c ****         /* CHAP: only <passwd> given. */
 589:SynaptiX_FDK/components/modules/a76xx/a7677s.c ****         dce->init_state = A7677S_INIT_CGAUTH;
 590:SynaptiX_FDK/components/modules/a76xx/a7677s.c ****         snprintf(s_dyn_cmd_buf, sizeof(s_dyn_cmd_buf), "AT+CGAUTH=1,2,\"%s\"\r\n", dce->password);
 591:SynaptiX_FDK/components/modules/a76xx/a7677s.c ****         send_init_dynamic(dce, s_dyn_cmd_buf, cb_cgauth, A7677S_TIMEOUT_NETWORK);
 592:SynaptiX_FDK/components/modules/a76xx/a7677s.c ****         return;
 593:SynaptiX_FDK/components/modules/a76xx/a7677s.c ****     }
 594:SynaptiX_FDK/components/modules/a76xx/a7677s.c ****     /* No auth configured — skip CGAUTH entirely, go straight to CGACT. */
 595:SynaptiX_FDK/components/modules/a76xx/a7677s.c ****     dce->init_state = A7677S_INIT_CGACT;
 596:SynaptiX_FDK/components/modules/a76xx/a7677s.c ****     snprintf(s_dyn_cmd_buf, sizeof(s_dyn_cmd_buf), "AT+CGACT=1,1\r\n");
 597:SynaptiX_FDK/components/modules/a76xx/a7677s.c ****     send_init_dynamic(dce, s_dyn_cmd_buf, cb_cgact, A7677S_TIMEOUT_NETWORK);
 598:SynaptiX_FDK/components/modules/a76xx/a7677s.c **** }
 599:SynaptiX_FDK/components/modules/a76xx/a7677s.c **** 
 600:SynaptiX_FDK/components/modules/a76xx/a7677s.c **** static void cb_cgauth(modem_t *modem, const char *response, modem_response_st_t res, void *arg)
 601:SynaptiX_FDK/components/modules/a76xx/a7677s.c **** {
 602:SynaptiX_FDK/components/modules/a76xx/a7677s.c ****     a7677s_t *dce = pDCE(arg);
 603:SynaptiX_FDK/components/modules/a76xx/a7677s.c ****     dce->init_cmd_pending = 0;
 604:SynaptiX_FDK/components/modules/a76xx/a7677s.c ****     if (res != MODEM_RESPONSE_SUCCESS) { restart_init(dce); return; }
 605:SynaptiX_FDK/components/modules/a76xx/a7677s.c **** 
ARM GAS  C:\Users\DELL\AppData\Local\Temp\ccL84Lpd.s 			page 15


 606:SynaptiX_FDK/components/modules/a76xx/a7677s.c ****     log_info(TAG, "CGAUTH OK");
 607:SynaptiX_FDK/components/modules/a76xx/a7677s.c ****     dce->init_state = A7677S_INIT_CGACT;
 608:SynaptiX_FDK/components/modules/a76xx/a7677s.c ****     snprintf(s_dyn_cmd_buf, sizeof(s_dyn_cmd_buf), "AT+CGACT=1,1\r\n");
 609:SynaptiX_FDK/components/modules/a76xx/a7677s.c ****     send_init_dynamic(dce, s_dyn_cmd_buf, cb_cgact, A7677S_TIMEOUT_NETWORK);
 610:SynaptiX_FDK/components/modules/a76xx/a7677s.c **** }
 611:SynaptiX_FDK/components/modules/a76xx/a7677s.c **** 
 612:SynaptiX_FDK/components/modules/a76xx/a7677s.c **** static void cb_cgact(modem_t *modem, const char *response, modem_response_st_t res, void *arg)
 613:SynaptiX_FDK/components/modules/a76xx/a7677s.c **** {
 614:SynaptiX_FDK/components/modules/a76xx/a7677s.c ****     a7677s_t *dce = pDCE(arg);
 615:SynaptiX_FDK/components/modules/a76xx/a7677s.c ****     dce->init_cmd_pending = 0;
 616:SynaptiX_FDK/components/modules/a76xx/a7677s.c ****     if (res != MODEM_RESPONSE_SUCCESS) { restart_init(dce); return; }
 617:SynaptiX_FDK/components/modules/a76xx/a7677s.c **** 
 618:SynaptiX_FDK/components/modules/a76xx/a7677s.c ****     dce->init_state = A7677S_INIT_CREG_SET;
 619:SynaptiX_FDK/components/modules/a76xx/a7677s.c ****     send_init_cmd(dce, CMD_CREG_SET, cb_creg_set, A7677S_TIMEOUT_AT);
 620:SynaptiX_FDK/components/modules/a76xx/a7677s.c **** }
 621:SynaptiX_FDK/components/modules/a76xx/a7677s.c **** 
 622:SynaptiX_FDK/components/modules/a76xx/a7677s.c **** static void cb_creg_set(modem_t *modem, const char *response, modem_response_st_t res, void *arg)
 623:SynaptiX_FDK/components/modules/a76xx/a7677s.c **** {
 624:SynaptiX_FDK/components/modules/a76xx/a7677s.c ****     a7677s_t *dce = pDCE(arg);
 625:SynaptiX_FDK/components/modules/a76xx/a7677s.c ****     dce->init_cmd_pending = 0;
 626:SynaptiX_FDK/components/modules/a76xx/a7677s.c ****     if (res != MODEM_RESPONSE_SUCCESS) { restart_init(dce); return; }
 627:SynaptiX_FDK/components/modules/a76xx/a7677s.c **** 
 628:SynaptiX_FDK/components/modules/a76xx/a7677s.c ****     /* AT+CREG=1 only enabled the unsolicited report — it did not confirm
 629:SynaptiX_FDK/components/modules/a76xx/a7677s.c ****      * registration. Move to CREG_POLL, which is driven from poll() below
 630:SynaptiX_FDK/components/modules/a76xx/a7677s.c ****      * (waits A7677S_CREG_POLL_MS between each AT+CREG? read). */
 631:SynaptiX_FDK/components/modules/a76xx/a7677s.c ****     dce->init_state      = A7677S_INIT_CREG_POLL;
 632:SynaptiX_FDK/components/modules/a76xx/a7677s.c ****     dce->init_elapsed     = 0;
 633:SynaptiX_FDK/components/modules/a76xx/a7677s.c ****     dce->creg_poll_count  = 0;
 634:SynaptiX_FDK/components/modules/a76xx/a7677s.c **** }
 635:SynaptiX_FDK/components/modules/a76xx/a7677s.c **** 
 636:SynaptiX_FDK/components/modules/a76xx/a7677s.c **** static void cb_creg_poll(modem_t *modem, const char *response, modem_response_st_t res, void *arg)
 637:SynaptiX_FDK/components/modules/a76xx/a7677s.c **** {
 638:SynaptiX_FDK/components/modules/a76xx/a7677s.c ****     a7677s_t *dce = pDCE(arg);
 639:SynaptiX_FDK/components/modules/a76xx/a7677s.c ****     dce->init_cmd_pending = 0;
 640:SynaptiX_FDK/components/modules/a76xx/a7677s.c **** 
 641:SynaptiX_FDK/components/modules/a76xx/a7677s.c ****     if (res == MODEM_RESPONSE_SUCCESS && response) {
 642:SynaptiX_FDK/components/modules/a76xx/a7677s.c ****         /* Response format: +CREG: <n>,<stat>[,<lac>,<ci>] */
 643:SynaptiX_FDK/components/modules/a76xx/a7677s.c ****         const char *p = strstr(response, "+CREG:");
 644:SynaptiX_FDK/components/modules/a76xx/a7677s.c ****         if (p) {
 645:SynaptiX_FDK/components/modules/a76xx/a7677s.c ****             p = strchr(p, ',');
 646:SynaptiX_FDK/components/modules/a76xx/a7677s.c ****             if (p) {
 647:SynaptiX_FDK/components/modules/a76xx/a7677s.c ****                 int stat = (int)strtol(p + 1, NULL, 10);
 648:SynaptiX_FDK/components/modules/a76xx/a7677s.c ****                 log_debug(TAG, "CREG stat=%d (poll %u/%u)", stat, dce->creg_poll_count, A7677S_CREG
 649:SynaptiX_FDK/components/modules/a76xx/a7677s.c ****                 if (stat == 1 || stat == 5) {
 650:SynaptiX_FDK/components/modules/a76xx/a7677s.c ****                     log_info(TAG, "Network registered (stat=%d)", stat);
 651:SynaptiX_FDK/components/modules/a76xx/a7677s.c ****                     dce->init_state = A7677S_INIT_COPS_SET;
 652:SynaptiX_FDK/components/modules/a76xx/a7677s.c ****                     send_init_cmd(dce, CMD_COPS_SET, cb_cops_set, A7677S_TIMEOUT_NETWORK);
 653:SynaptiX_FDK/components/modules/a76xx/a7677s.c ****                     return;
 654:SynaptiX_FDK/components/modules/a76xx/a7677s.c ****                 }
 655:SynaptiX_FDK/components/modules/a76xx/a7677s.c ****             }
 656:SynaptiX_FDK/components/modules/a76xx/a7677s.c ****         }
 657:SynaptiX_FDK/components/modules/a76xx/a7677s.c ****     }
 658:SynaptiX_FDK/components/modules/a76xx/a7677s.c **** 
 659:SynaptiX_FDK/components/modules/a76xx/a7677s.c ****     /* Not registered yet (or response didn't parse) — keep polling until
 660:SynaptiX_FDK/components/modules/a76xx/a7677s.c ****      * A7677S_CREG_MAX_POLL is reached, then treat it as a failed attach. */
 661:SynaptiX_FDK/components/modules/a76xx/a7677s.c ****     dce->creg_poll_count++;
 662:SynaptiX_FDK/components/modules/a76xx/a7677s.c ****     if (dce->creg_poll_count >= A7677S_CREG_MAX_POLL) {
ARM GAS  C:\Users\DELL\AppData\Local\Temp\ccL84Lpd.s 			page 16


 663:SynaptiX_FDK/components/modules/a76xx/a7677s.c ****         log_error(TAG, "Network registration timed out after %u polls", dce->creg_poll_count);
 664:SynaptiX_FDK/components/modules/a76xx/a7677s.c ****         restart_init(dce);
 665:SynaptiX_FDK/components/modules/a76xx/a7677s.c ****         return;
 666:SynaptiX_FDK/components/modules/a76xx/a7677s.c ****     }
 667:SynaptiX_FDK/components/modules/a76xx/a7677s.c ****     /* Stay in A7677S_INIT_CREG_POLL; poll() will send the next AT+CREG?
 668:SynaptiX_FDK/components/modules/a76xx/a7677s.c ****      * after another A7677S_CREG_POLL_MS. */
 669:SynaptiX_FDK/components/modules/a76xx/a7677s.c ****     dce->init_elapsed = 0;
 670:SynaptiX_FDK/components/modules/a76xx/a7677s.c **** }
 671:SynaptiX_FDK/components/modules/a76xx/a7677s.c **** 
 672:SynaptiX_FDK/components/modules/a76xx/a7677s.c **** static void cb_cops_set(modem_t *modem, const char *response, modem_response_st_t res, void *arg)
 673:SynaptiX_FDK/components/modules/a76xx/a7677s.c **** {
 674:SynaptiX_FDK/components/modules/a76xx/a7677s.c ****     a7677s_t *dce = pDCE(arg);
 675:SynaptiX_FDK/components/modules/a76xx/a7677s.c ****     dce->init_cmd_pending = 0;
 676:SynaptiX_FDK/components/modules/a76xx/a7677s.c ****     if (res != MODEM_RESPONSE_SUCCESS) { restart_init(dce); return; }
 677:SynaptiX_FDK/components/modules/a76xx/a7677s.c **** 
 678:SynaptiX_FDK/components/modules/a76xx/a7677s.c ****     dce->init_state = A7677S_INIT_COPS_QUERY;
 679:SynaptiX_FDK/components/modules/a76xx/a7677s.c ****     send_init_cmd(dce, CMD_COPS_QUERY, cb_cops_query, A7677S_TIMEOUT_NETWORK);
 680:SynaptiX_FDK/components/modules/a76xx/a7677s.c **** }
 681:SynaptiX_FDK/components/modules/a76xx/a7677s.c **** 
 682:SynaptiX_FDK/components/modules/a76xx/a7677s.c **** static void cb_cops_query(modem_t *modem, const char *response, modem_response_st_t res, void *arg)
 683:SynaptiX_FDK/components/modules/a76xx/a7677s.c **** {
 684:SynaptiX_FDK/components/modules/a76xx/a7677s.c ****     a7677s_t *dce = pDCE(arg);
 685:SynaptiX_FDK/components/modules/a76xx/a7677s.c ****     dce->init_cmd_pending = 0;
 686:SynaptiX_FDK/components/modules/a76xx/a7677s.c ****     if (res != MODEM_RESPONSE_SUCCESS) { restart_init(dce); return; }
 687:SynaptiX_FDK/components/modules/a76xx/a7677s.c **** 
 688:SynaptiX_FDK/components/modules/a76xx/a7677s.c ****     if (response) {
 689:SynaptiX_FDK/components/modules/a76xx/a7677s.c ****         log_info(TAG, "COPS: %s", response);
 690:SynaptiX_FDK/components/modules/a76xx/a7677s.c ****     }
 691:SynaptiX_FDK/components/modules/a76xx/a7677s.c ****     dce->init_state = A7677S_INIT_CGDCONT_QUERY;
 692:SynaptiX_FDK/components/modules/a76xx/a7677s.c ****     send_init_cmd(dce, CMD_CGDCONT_QUERY, cb_cgdcont_query, A7677S_TIMEOUT_AT);
 693:SynaptiX_FDK/components/modules/a76xx/a7677s.c **** }
 694:SynaptiX_FDK/components/modules/a76xx/a7677s.c **** 
 695:SynaptiX_FDK/components/modules/a76xx/a7677s.c **** static void cb_cgdcont_query(modem_t *modem, const char *response, modem_response_st_t res, void *a
 696:SynaptiX_FDK/components/modules/a76xx/a7677s.c **** {
 697:SynaptiX_FDK/components/modules/a76xx/a7677s.c ****     a7677s_t *dce = pDCE(arg);
 698:SynaptiX_FDK/components/modules/a76xx/a7677s.c ****     dce->init_cmd_pending = 0;
 699:SynaptiX_FDK/components/modules/a76xx/a7677s.c ****     /* Purely informational read-back (mirrors sim76xx.c's
 700:SynaptiX_FDK/components/modules/a76xx/a7677s.c ****      * cb_cgdcont_query()) — even on FAIL/TIMEOUT here we still consider the
 701:SynaptiX_FDK/components/modules/a76xx/a7677s.c ****      * attach itself complete, since CGACT/CREG already succeeded; a failed
 702:SynaptiX_FDK/components/modules/a76xx/a7677s.c ****      * read-back should not block is_ready(). Proceeds to the one-shot
 703:SynaptiX_FDK/components/modules/a76xx/a7677s.c ****      * device-info reads (IMEI/IP) rather than READY directly. */
 704:SynaptiX_FDK/components/modules/a76xx/a7677s.c ****     if (res == MODEM_RESPONSE_SUCCESS && response) {
 705:SynaptiX_FDK/components/modules/a76xx/a7677s.c ****         log_info(TAG, "CGDCONT: %s", response);
 706:SynaptiX_FDK/components/modules/a76xx/a7677s.c ****     } else {
 707:SynaptiX_FDK/components/modules/a76xx/a7677s.c ****         log_warn(TAG, "CGDCONT read-back failed (non-fatal)");
 708:SynaptiX_FDK/components/modules/a76xx/a7677s.c ****     }
 709:SynaptiX_FDK/components/modules/a76xx/a7677s.c ****     dce->init_retry_count = 0;
 710:SynaptiX_FDK/components/modules/a76xx/a7677s.c ****     dce->init_state       = A7677S_INIT_GET_IMEI;
 711:SynaptiX_FDK/components/modules/a76xx/a7677s.c ****     send_init_cmd(dce, CMD_CGSN, cb_get_imei, A7677S_TIMEOUT_AT);
 712:SynaptiX_FDK/components/modules/a76xx/a7677s.c **** }
 713:SynaptiX_FDK/components/modules/a76xx/a7677s.c **** 
 714:SynaptiX_FDK/components/modules/a76xx/a7677s.c **** static void cb_get_imei(modem_t *modem, const char *response, modem_response_st_t res, void *arg)
 715:SynaptiX_FDK/components/modules/a76xx/a7677s.c **** {
 716:SynaptiX_FDK/components/modules/a76xx/a7677s.c ****     a7677s_t *dce = pDCE(arg);
 717:SynaptiX_FDK/components/modules/a76xx/a7677s.c ****     dce->init_cmd_pending = 0;
 718:SynaptiX_FDK/components/modules/a76xx/a7677s.c ****     /* AT+CGSN's success response is a single line containing just the IMEI
 719:SynaptiX_FDK/components/modules/a76xx/a7677s.c ****      * digits (a76xx_at_cmd.md 2.2.19), e.g. "351602000330570" — no "+CGSN:"
ARM GAS  C:\Users\DELL\AppData\Local\Temp\ccL84Lpd.s 			page 17


 720:SynaptiX_FDK/components/modules/a76xx/a7677s.c ****      * prefix, unlike most other queries. Non-fatal on failure: leaves
 721:SynaptiX_FDK/components/modules/a76xx/a7677s.c ****      * dce->imei as "" (already the case from a7677s_init()'s memset-less
 722:SynaptiX_FDK/components/modules/a76xx/a7677s.c ****      * init, or from a previous failed attempt), does not block is_ready(). */
 723:SynaptiX_FDK/components/modules/a76xx/a7677s.c ****     if (res == MODEM_RESPONSE_SUCCESS && response) {
 724:SynaptiX_FDK/components/modules/a76xx/a7677s.c ****         char imei_buf[A7677S_IMEI_LEN] = {0};
 725:SynaptiX_FDK/components/modules/a76xx/a7677s.c ****         int i = 0;
 726:SynaptiX_FDK/components/modules/a76xx/a7677s.c ****         const char *p = response;
 727:SynaptiX_FDK/components/modules/a76xx/a7677s.c ****         /* Skip any leading \r\n left over from the raw response buffer;
 728:SynaptiX_FDK/components/modules/a76xx/a7677s.c ****          * copy only ASCII digits, stop at the first non-digit or buffer
 729:SynaptiX_FDK/components/modules/a76xx/a7677s.c ****          * limit. Mirrors the defensive-parsing style used elsewhere in this
 730:SynaptiX_FDK/components/modules/a76xx/a7677s.c ****          * file (e.g. cb_creg_poll's strtol on a trusted-format substring),
 731:SynaptiX_FDK/components/modules/a76xx/a7677s.c ****          * but here the whole line IS the value, not a "key: value" pair. */
 732:SynaptiX_FDK/components/modules/a76xx/a7677s.c ****         while (*p && (*p == '\r' || *p == '\n')) p++;
 733:SynaptiX_FDK/components/modules/a76xx/a7677s.c ****         while (*p && isdigit((unsigned char)*p) && i < (int)(A7677S_IMEI_LEN - 1)) {
 734:SynaptiX_FDK/components/modules/a76xx/a7677s.c ****             imei_buf[i++] = *p++;
 735:SynaptiX_FDK/components/modules/a76xx/a7677s.c ****         }
 736:SynaptiX_FDK/components/modules/a76xx/a7677s.c ****         imei_buf[i] = '\0';
 737:SynaptiX_FDK/components/modules/a76xx/a7677s.c ****         if (i > 0) {
 738:SynaptiX_FDK/components/modules/a76xx/a7677s.c ****             memcpy(dce->imei, imei_buf, sizeof(imei_buf));
 739:SynaptiX_FDK/components/modules/a76xx/a7677s.c ****             log_info(TAG, "IMEI: %s", dce->imei);
 740:SynaptiX_FDK/components/modules/a76xx/a7677s.c ****         } else {
 741:SynaptiX_FDK/components/modules/a76xx/a7677s.c ****             log_warn(TAG, "CGSN response did not parse as digits: %s", response);
 742:SynaptiX_FDK/components/modules/a76xx/a7677s.c ****         }
 743:SynaptiX_FDK/components/modules/a76xx/a7677s.c ****     } else {
 744:SynaptiX_FDK/components/modules/a76xx/a7677s.c ****         log_warn(TAG, "AT+CGSN failed (non-fatal)");
 745:SynaptiX_FDK/components/modules/a76xx/a7677s.c ****     }
 746:SynaptiX_FDK/components/modules/a76xx/a7677s.c **** 
 747:SynaptiX_FDK/components/modules/a76xx/a7677s.c ****     dce->init_state = A7677S_INIT_GET_IP;
 748:SynaptiX_FDK/components/modules/a76xx/a7677s.c ****     send_init_cmd(dce, CMD_CGPADDR, cb_get_ip, A7677S_TIMEOUT_AT);
 749:SynaptiX_FDK/components/modules/a76xx/a7677s.c **** }
 750:SynaptiX_FDK/components/modules/a76xx/a7677s.c **** 
 751:SynaptiX_FDK/components/modules/a76xx/a7677s.c **** static void cb_get_ip(modem_t *modem, const char *response, modem_response_st_t res, void *arg)
 752:SynaptiX_FDK/components/modules/a76xx/a7677s.c **** {
 753:SynaptiX_FDK/components/modules/a76xx/a7677s.c ****     a7677s_t *dce = pDCE(arg);
 754:SynaptiX_FDK/components/modules/a76xx/a7677s.c ****     dce->init_cmd_pending = 0;
 755:SynaptiX_FDK/components/modules/a76xx/a7677s.c ****     /* Response format: +CGPADDR:<cid>,<PDP_addr> (a76xx_at_cmd.md 5.2.13).
 756:SynaptiX_FDK/components/modules/a76xx/a7677s.c ****      * cid is always 1 here (matches the single AT+CGDCONT=1,... context this
 757:SynaptiX_FDK/components/modules/a76xx/a7677s.c ****      * driver ever sets up). Non-fatal on failure: leaves dce->ip as "". */
 758:SynaptiX_FDK/components/modules/a76xx/a7677s.c ****     if (res == MODEM_RESPONSE_SUCCESS && response) {
 759:SynaptiX_FDK/components/modules/a76xx/a7677s.c ****         const char *p = strstr(response, "+CGPADDR:");
 760:SynaptiX_FDK/components/modules/a76xx/a7677s.c ****         if (p) {
 761:SynaptiX_FDK/components/modules/a76xx/a7677s.c ****             p = strchr(p, ',');
 762:SynaptiX_FDK/components/modules/a76xx/a7677s.c ****             if (p) {
 763:SynaptiX_FDK/components/modules/a76xx/a7677s.c ****                 p++; /* skip the comma, now at the start of <PDP_addr> */
 764:SynaptiX_FDK/components/modules/a76xx/a7677s.c ****                 char ip_buf[A7677S_IP_LEN] = {0};
 765:SynaptiX_FDK/components/modules/a76xx/a7677s.c ****                 int i = 0;
 766:SynaptiX_FDK/components/modules/a76xx/a7677s.c ****                 while (*p && *p != '\r' && *p != '\n' && *p != ',' &&
 767:SynaptiX_FDK/components/modules/a76xx/a7677s.c ****                        i < (int)(A7677S_IP_LEN - 1)) {
 768:SynaptiX_FDK/components/modules/a76xx/a7677s.c ****                     ip_buf[i++] = *p++;
 769:SynaptiX_FDK/components/modules/a76xx/a7677s.c ****                 }
 770:SynaptiX_FDK/components/modules/a76xx/a7677s.c ****                 ip_buf[i] = '\0';
 771:SynaptiX_FDK/components/modules/a76xx/a7677s.c ****                 if (i > 0) {
 772:SynaptiX_FDK/components/modules/a76xx/a7677s.c ****                     memcpy(dce->ip, ip_buf, sizeof(ip_buf));
 773:SynaptiX_FDK/components/modules/a76xx/a7677s.c ****                     log_info(TAG, "IP: %s", dce->ip);
 774:SynaptiX_FDK/components/modules/a76xx/a7677s.c ****                 }
 775:SynaptiX_FDK/components/modules/a76xx/a7677s.c ****             }
 776:SynaptiX_FDK/components/modules/a76xx/a7677s.c ****         }
ARM GAS  C:\Users\DELL\AppData\Local\Temp\ccL84Lpd.s 			page 18


 777:SynaptiX_FDK/components/modules/a76xx/a7677s.c ****         if (dce->ip[0] == '\0') {
 778:SynaptiX_FDK/components/modules/a76xx/a7677s.c ****             log_warn(TAG, "CGPADDR response did not parse: %s", response);
 779:SynaptiX_FDK/components/modules/a76xx/a7677s.c ****         }
 780:SynaptiX_FDK/components/modules/a76xx/a7677s.c ****     } else {
 781:SynaptiX_FDK/components/modules/a76xx/a7677s.c ****         log_warn(TAG, "AT+CGPADDR failed (non-fatal)");
 782:SynaptiX_FDK/components/modules/a76xx/a7677s.c ****     }
 783:SynaptiX_FDK/components/modules/a76xx/a7677s.c **** 
 784:SynaptiX_FDK/components/modules/a76xx/a7677s.c ****     dce->init_state = A7677S_INIT_READY;
 785:SynaptiX_FDK/components/modules/a76xx/a7677s.c ****     log_info(TAG, "Network attach complete, ready for MQTT");
 786:SynaptiX_FDK/components/modules/a76xx/a7677s.c **** }
 787:SynaptiX_FDK/components/modules/a76xx/a7677s.c **** 
 788:SynaptiX_FDK/components/modules/a76xx/a7677s.c **** /* Fired by the periodic AT+CSQ refresh in a7677s_poll() (not part of the
 789:SynaptiX_FDK/components/modules/a76xx/a7677s.c ****  * init_state sequence — this keeps running for as long as the modem stays
 790:SynaptiX_FDK/components/modules/a76xx/a7677s.c ****  * ready, see the a7677s_is_ready() gate at the call site). Response format:
 791:SynaptiX_FDK/components/modules/a76xx/a7677s.c ****  * +CSQ:<rssi>,<ber> (a76xx_at_cmd.md 3.2.2). On failure, caches
 792:SynaptiX_FDK/components/modules/a76xx/a7677s.c ****  * A7677S_RSSI_UNKNOWN rather than leaving the previous value, since a
 793:SynaptiX_FDK/components/modules/a76xx/a7677s.c ****  * failed AT+CSQ IS informative (link likely degraded) — unlike IMEI/IP,
 794:SynaptiX_FDK/components/modules/a76xx/a7677s.c ****  * which are one-shot facts that failing to re-read does not invalidate. */
 795:SynaptiX_FDK/components/modules/a76xx/a7677s.c **** static void cb_csq(modem_t *modem, const char *response, modem_response_st_t res, void *arg)
 796:SynaptiX_FDK/components/modules/a76xx/a7677s.c **** {
 797:SynaptiX_FDK/components/modules/a76xx/a7677s.c ****     a7677s_t *dce = pDCE(arg);
 798:SynaptiX_FDK/components/modules/a76xx/a7677s.c ****     dce->rssi_cmd_pending = 0;
 799:SynaptiX_FDK/components/modules/a76xx/a7677s.c **** 
 800:SynaptiX_FDK/components/modules/a76xx/a7677s.c ****     if (res == MODEM_RESPONSE_SUCCESS && response) {
 801:SynaptiX_FDK/components/modules/a76xx/a7677s.c ****         dce->csq_fail_count = 0;
 802:SynaptiX_FDK/components/modules/a76xx/a7677s.c ****         const char *p = strstr(response, "+CSQ:");
 803:SynaptiX_FDK/components/modules/a76xx/a7677s.c ****         if (p) {
 804:SynaptiX_FDK/components/modules/a76xx/a7677s.c ****             int rssi = (int)strtol(p + 5, NULL, 10);
 805:SynaptiX_FDK/components/modules/a76xx/a7677s.c ****             dce->rssi = rssi;
 806:SynaptiX_FDK/components/modules/a76xx/a7677s.c ****             log_debug(TAG, "RSSI: %d", rssi);
 807:SynaptiX_FDK/components/modules/a76xx/a7677s.c ****             return;
 808:SynaptiX_FDK/components/modules/a76xx/a7677s.c ****         }
 809:SynaptiX_FDK/components/modules/a76xx/a7677s.c ****         /* Got a response, just not the expected format — a parsing/format
 810:SynaptiX_FDK/components/modules/a76xx/a7677s.c ****          * issue, not evidence the modem stopped responding, so this does
 811:SynaptiX_FDK/components/modules/a76xx/a7677s.c ****          * NOT count toward csq_fail_count. */
 812:SynaptiX_FDK/components/modules/a76xx/a7677s.c ****         log_warn(TAG, "CSQ response did not parse: %s", response);
 813:SynaptiX_FDK/components/modules/a76xx/a7677s.c ****         dce->rssi = A7677S_RSSI_UNKNOWN;
 814:SynaptiX_FDK/components/modules/a76xx/a7677s.c ****         return;
 815:SynaptiX_FDK/components/modules/a76xx/a7677s.c ****     }
 816:SynaptiX_FDK/components/modules/a76xx/a7677s.c **** 
 817:SynaptiX_FDK/components/modules/a76xx/a7677s.c ****     log_warn(TAG, "AT+CSQ failed");
 818:SynaptiX_FDK/components/modules/a76xx/a7677s.c ****     dce->rssi = A7677S_RSSI_UNKNOWN;
 819:SynaptiX_FDK/components/modules/a76xx/a7677s.c **** 
 820:SynaptiX_FDK/components/modules/a76xx/a7677s.c ****     dce->csq_fail_count++;
 821:SynaptiX_FDK/components/modules/a76xx/a7677s.c ****     if (dce->csq_fail_count >= A7677S_MAX_RETRY) {
 822:SynaptiX_FDK/components/modules/a76xx/a7677s.c ****         log_error(TAG, "AT+CSQ failed %u times in a row while modem was "
 823:SynaptiX_FDK/components/modules/a76xx/a7677s.c ****                   "supposed to be ready — modem appears unresponsive",
 824:SynaptiX_FDK/components/modules/a76xx/a7677s.c ****                   dce->csq_fail_count);
 825:SynaptiX_FDK/components/modules/a76xx/a7677s.c ****         dce->csq_fail_count = 0;
 826:SynaptiX_FDK/components/modules/a76xx/a7677s.c ****         if (dce->error_cb) dce->error_cb(dce->error_cb_ctx);
 827:SynaptiX_FDK/components/modules/a76xx/a7677s.c ****     }
 828:SynaptiX_FDK/components/modules/a76xx/a7677s.c **** }
 829:SynaptiX_FDK/components/modules/a76xx/a7677s.c **** 
 830:SynaptiX_FDK/components/modules/a76xx/a7677s.c **** /* ------------------------------------------------------------------ */
 831:SynaptiX_FDK/components/modules/a76xx/a7677s.c **** /*  Low power (AT+CFUN=0/1)                                            */
 832:SynaptiX_FDK/components/modules/a76xx/a7677s.c **** /* ------------------------------------------------------------------ */
 833:SynaptiX_FDK/components/modules/a76xx/a7677s.c **** /* Per Documents/a7677s.md section 5.3.3: at CFUN=0 the serial port stays
ARM GAS  C:\Users\DELL\AppData\Local\Temp\ccL84Lpd.s 			page 19


 834:SynaptiX_FDK/components/modules/a76xx/a7677s.c ****  * usable (only RF/USIM turn off), so unlike the CREG_POLL deviation above,
 835:SynaptiX_FDK/components/modules/a76xx/a7677s.c ****  * no extra confirmation step is needed here — AT+CFUN's own OK/ERROR is a
 836:SynaptiX_FDK/components/modules/a76xx/a7677s.c ****  * direct, reliable result per a76xx_at_cmd.md section 3.2.1. */
 837:SynaptiX_FDK/components/modules/a76xx/a7677s.c **** 
 838:SynaptiX_FDK/components/modules/a76xx/a7677s.c **** static void cb_cfun_0(modem_t *modem, const char *response, modem_response_st_t res, void *arg)
 839:SynaptiX_FDK/components/modules/a76xx/a7677s.c **** {
 840:SynaptiX_FDK/components/modules/a76xx/a7677s.c ****     a7677s_t *dce = pDCE(arg);
 841:SynaptiX_FDK/components/modules/a76xx/a7677s.c ****     dce->cfun_cmd_pending = 0;
 842:SynaptiX_FDK/components/modules/a76xx/a7677s.c **** 
 843:SynaptiX_FDK/components/modules/a76xx/a7677s.c ****     modem_ops_result_t result;
 844:SynaptiX_FDK/components/modules/a76xx/a7677s.c ****     if (res == MODEM_RESPONSE_SUCCESS) {
 845:SynaptiX_FDK/components/modules/a76xx/a7677s.c ****         log_info(TAG, "Entered low power (AT+CFUN=0)");
 846:SynaptiX_FDK/components/modules/a76xx/a7677s.c ****         dce->low_power_active = 1;
 847:SynaptiX_FDK/components/modules/a76xx/a7677s.c ****         result = MODEM_OPS_OK;
 848:SynaptiX_FDK/components/modules/a76xx/a7677s.c ****     } else if (res == MODEM_RESPONSE_TIMEOUT) {
 849:SynaptiX_FDK/components/modules/a76xx/a7677s.c ****         log_error(TAG, "AT+CFUN=0 timed out");
 850:SynaptiX_FDK/components/modules/a76xx/a7677s.c ****         result = MODEM_OPS_TIMEOUT;
 851:SynaptiX_FDK/components/modules/a76xx/a7677s.c ****     } else {
 852:SynaptiX_FDK/components/modules/a76xx/a7677s.c ****         log_error(TAG, "AT+CFUN=0 failed");
 853:SynaptiX_FDK/components/modules/a76xx/a7677s.c ****         result = MODEM_OPS_ERROR;
 854:SynaptiX_FDK/components/modules/a76xx/a7677s.c ****     }
 855:SynaptiX_FDK/components/modules/a76xx/a7677s.c **** 
 856:SynaptiX_FDK/components/modules/a76xx/a7677s.c ****     power_mode_cb_t cb = dce->cfun_cb;
 857:SynaptiX_FDK/components/modules/a76xx/a7677s.c ****     dce->cfun_cb = NULL;
 858:SynaptiX_FDK/components/modules/a76xx/a7677s.c ****     if (cb) cb(result, dce);
 859:SynaptiX_FDK/components/modules/a76xx/a7677s.c **** }
 860:SynaptiX_FDK/components/modules/a76xx/a7677s.c **** 
 861:SynaptiX_FDK/components/modules/a76xx/a7677s.c **** static void cb_cfun_1(modem_t *modem, const char *response, modem_response_st_t res, void *arg)
 862:SynaptiX_FDK/components/modules/a76xx/a7677s.c **** {
 863:SynaptiX_FDK/components/modules/a76xx/a7677s.c ****     a7677s_t *dce = pDCE(arg);
 864:SynaptiX_FDK/components/modules/a76xx/a7677s.c ****     dce->cfun_cmd_pending = 0;
 865:SynaptiX_FDK/components/modules/a76xx/a7677s.c **** 
 866:SynaptiX_FDK/components/modules/a76xx/a7677s.c ****     modem_ops_result_t result;
 867:SynaptiX_FDK/components/modules/a76xx/a7677s.c ****     if (res == MODEM_RESPONSE_SUCCESS) {
 868:SynaptiX_FDK/components/modules/a76xx/a7677s.c ****         log_info(TAG, "Exited low power (AT+CFUN=1)");
 869:SynaptiX_FDK/components/modules/a76xx/a7677s.c ****         dce->low_power_active = 0;
 870:SynaptiX_FDK/components/modules/a76xx/a7677s.c ****         result = MODEM_OPS_OK;
 871:SynaptiX_FDK/components/modules/a76xx/a7677s.c ****     } else if (res == MODEM_RESPONSE_TIMEOUT) {
 872:SynaptiX_FDK/components/modules/a76xx/a7677s.c ****         log_error(TAG, "AT+CFUN=1 timed out");
 873:SynaptiX_FDK/components/modules/a76xx/a7677s.c ****         result = MODEM_OPS_TIMEOUT;
 874:SynaptiX_FDK/components/modules/a76xx/a7677s.c ****         /* Deliberately leave low_power_active=1 on failure: we do not know
 875:SynaptiX_FDK/components/modules/a76xx/a7677s.c ****          * the module's true state, and is_ready() staying false is the
 876:SynaptiX_FDK/components/modules/a76xx/a7677s.c ****          * safe default until a retry succeeds — better than reporting
 877:SynaptiX_FDK/components/modules/a76xx/a7677s.c ****          * "ready" while unsure the module actually left CFUN=0. */
 878:SynaptiX_FDK/components/modules/a76xx/a7677s.c ****     } else {
 879:SynaptiX_FDK/components/modules/a76xx/a7677s.c ****         log_error(TAG, "AT+CFUN=1 failed");
 880:SynaptiX_FDK/components/modules/a76xx/a7677s.c ****         result = MODEM_OPS_ERROR;
 881:SynaptiX_FDK/components/modules/a76xx/a7677s.c ****     }
 882:SynaptiX_FDK/components/modules/a76xx/a7677s.c **** 
 883:SynaptiX_FDK/components/modules/a76xx/a7677s.c ****     power_mode_cb_t cb = dce->cfun_cb;
 884:SynaptiX_FDK/components/modules/a76xx/a7677s.c ****     dce->cfun_cb = NULL;
 885:SynaptiX_FDK/components/modules/a76xx/a7677s.c ****     if (cb) cb(result, dce);
 886:SynaptiX_FDK/components/modules/a76xx/a7677s.c **** }
 887:SynaptiX_FDK/components/modules/a76xx/a7677s.c **** 
 888:SynaptiX_FDK/components/modules/a76xx/a7677s.c **** /* TODO (next piece, not yet implemented):
 889:SynaptiX_FDK/components/modules/a76xx/a7677s.c ****  *   - mqtt_connect/disconnect/publish/subscribe: AT+CMQTT* sequence, not yet
 890:SynaptiX_FDK/components/modules/a76xx/a7677s.c ****  *     implemented (see confirmed AT command set in Documents/a76xx_at_cmd.md
ARM GAS  C:\Users\DELL\AppData\Local\Temp\ccL84Lpd.s 			page 20


 891:SynaptiX_FDK/components/modules/a76xx/a7677s.c ****  *     section 18.2, and the errcode-parsing bug fix noted in the handoff).
 892:SynaptiX_FDK/components/modules/a76xx/a7677s.c ****  * These functions are stubbed to fail safely (return -1 / false) so the
 893:SynaptiX_FDK/components/modules/a76xx/a7677s.c ****  * vtable compiles and is safe to wire up incrementally.
 894:SynaptiX_FDK/components/modules/a76xx/a7677s.c ****  */
 895:SynaptiX_FDK/components/modules/a76xx/a7677s.c **** static int a7677s_start(void *ctx)
 896:SynaptiX_FDK/components/modules/a76xx/a7677s.c **** {
 897:SynaptiX_FDK/components/modules/a76xx/a7677s.c ****     a7677s_t *dce = (a7677s_t *)ctx;
 898:SynaptiX_FDK/components/modules/a76xx/a7677s.c **** 
 899:SynaptiX_FDK/components/modules/a76xx/a7677s.c ****     if (dce->power_state != A7677S_PWR_READY) {
 900:SynaptiX_FDK/components/modules/a76xx/a7677s.c ****         log_warn(TAG, "start(): power not ready yet");
 901:SynaptiX_FDK/components/modules/a76xx/a7677s.c ****         return -1;
 902:SynaptiX_FDK/components/modules/a76xx/a7677s.c ****     }
 903:SynaptiX_FDK/components/modules/a76xx/a7677s.c ****     if (modem_is_busy(pModem(dce)) || dce->init_cmd_pending) {
 904:SynaptiX_FDK/components/modules/a76xx/a7677s.c ****         log_warn(TAG, "start(): modem busy");
 905:SynaptiX_FDK/components/modules/a76xx/a7677s.c ****         return -1;
 906:SynaptiX_FDK/components/modules/a76xx/a7677s.c ****     }
 907:SynaptiX_FDK/components/modules/a76xx/a7677s.c ****     if (dce->init_state != A7677S_INIT_IDLE && dce->init_state != A7677S_INIT_READY) {
 908:SynaptiX_FDK/components/modules/a76xx/a7677s.c ****         log_warn(TAG, "start(): attach sequence already in progress");
 909:SynaptiX_FDK/components/modules/a76xx/a7677s.c ****         return -1;
 910:SynaptiX_FDK/components/modules/a76xx/a7677s.c ****     }
 911:SynaptiX_FDK/components/modules/a76xx/a7677s.c **** 
 912:SynaptiX_FDK/components/modules/a76xx/a7677s.c ****     log_info(TAG, "Starting network attach sequence");
 913:SynaptiX_FDK/components/modules/a76xx/a7677s.c ****     dce->init_retry_count = 0;
 914:SynaptiX_FDK/components/modules/a76xx/a7677s.c ****     dce->creg_poll_count  = 0;
 915:SynaptiX_FDK/components/modules/a76xx/a7677s.c ****     dce->init_state       = A7677S_INIT_AT;
 916:SynaptiX_FDK/components/modules/a76xx/a7677s.c ****     send_init_cmd(dce, CMD_AT, cb_init_at, A7677S_TIMEOUT_AT);
 917:SynaptiX_FDK/components/modules/a76xx/a7677s.c ****     return 0;
 918:SynaptiX_FDK/components/modules/a76xx/a7677s.c **** }
 919:SynaptiX_FDK/components/modules/a76xx/a7677s.c **** 
 920:SynaptiX_FDK/components/modules/a76xx/a7677s.c **** static bool a7677s_is_ready(void *ctx)
 921:SynaptiX_FDK/components/modules/a76xx/a7677s.c **** {
 143              		.loc 1 921 1 is_stmt 1 view -0
 144              		.cfi_startproc
 145              		@ args = 0, pretend = 0, frame = 0
 146              		@ frame_needed = 0, uses_anonymous_args = 0
 147              		@ link register save eliminated.
 922:SynaptiX_FDK/components/modules/a76xx/a7677s.c ****     a7677s_t *dce = (a7677s_t *)ctx;
 148              		.loc 1 922 5 view .LVU33
 923:SynaptiX_FDK/components/modules/a76xx/a7677s.c ****     return dce->power_state == A7677S_PWR_READY &&
 149              		.loc 1 923 5 view .LVU34
 150              		.loc 1 923 15 is_stmt 0 view .LVU35
 151 0000 90F88032 		ldrb	r3, [r0, #640]	@ zero_extendqisi2
 924:SynaptiX_FDK/components/modules/a76xx/a7677s.c ****            dce->init_state  == A7677S_INIT_READY &&
 152              		.loc 1 924 50 view .LVU36
 153 0004 052B     		cmp	r3, #5
 154 0006 01D0     		beq	.L17
 155              		.loc 1 924 50 discriminator 2 view .LVU37
 156 0008 0020     		movs	r0, #0
 157              	.LVL14:
 158              		.loc 1 924 50 discriminator 2 view .LVU38
 159 000a 7047     		bx	lr
 160              	.LVL15:
 161              	.L17:
 162              		.loc 1 924 15 discriminator 1 view .LVU39
 163 000c 90F88932 		ldrb	r3, [r0, #649]	@ zero_extendqisi2
 923:SynaptiX_FDK/components/modules/a76xx/a7677s.c ****     return dce->power_state == A7677S_PWR_READY &&
 164              		.loc 1 923 49 view .LVU40
ARM GAS  C:\Users\DELL\AppData\Local\Temp\ccL84Lpd.s 			page 21


 165 0010 0C2B     		cmp	r3, #12
 166 0012 01D0     		beq	.L18
 167              		.loc 1 924 50 discriminator 2 view .LVU41
 168 0014 0020     		movs	r0, #0
 169              	.LVL16:
 170              		.loc 1 924 50 discriminator 2 view .LVU42
 171 0016 7047     		bx	lr
 172              	.LVL17:
 173              	.L18:
 925:SynaptiX_FDK/components/modules/a76xx/a7677s.c ****            !dce->low_power_active;
 174              		.loc 1 925 16 view .LVU43
 175 0018 90F80E33 		ldrb	r3, [r0, #782]	@ zero_extendqisi2
 924:SynaptiX_FDK/components/modules/a76xx/a7677s.c ****            dce->init_state  == A7677S_INIT_READY &&
 176              		.loc 1 924 50 discriminator 4 view .LVU44
 177 001c 0BB1     		cbz	r3, .L16
 924:SynaptiX_FDK/components/modules/a76xx/a7677s.c ****            dce->init_state  == A7677S_INIT_READY &&
 178              		.loc 1 924 50 discriminator 2 view .LVU45
 179 001e 0020     		movs	r0, #0
 180              	.LVL18:
 924:SynaptiX_FDK/components/modules/a76xx/a7677s.c ****            dce->init_state  == A7677S_INIT_READY &&
 181              		.loc 1 924 50 discriminator 2 view .LVU46
 182 0020 7047     		bx	lr
 183              	.LVL19:
 184              	.L16:
 924:SynaptiX_FDK/components/modules/a76xx/a7677s.c ****            dce->init_state  == A7677S_INIT_READY &&
 185              		.loc 1 924 50 discriminator 3 view .LVU47
 186 0022 0120     		movs	r0, #1
 187              	.LVL20:
 926:SynaptiX_FDK/components/modules/a76xx/a7677s.c **** }
 188              		.loc 1 926 1 view .LVU48
 189 0024 7047     		bx	lr
 190              		.cfi_endproc
 191              	.LFE40:
 193              		.section	.text.a7677s_set_on_ready,"ax",%progbits
 194              		.align	1
 195              		.syntax unified
 196              		.thumb
 197              		.thumb_func
 199              	a7677s_set_on_ready:
 200              	.LVL21:
 201              	.LFB41:
 927:SynaptiX_FDK/components/modules/a76xx/a7677s.c **** 
 928:SynaptiX_FDK/components/modules/a76xx/a7677s.c **** /* modem_ops_t.set_on_ready / set_on_error — just store the callback + ctx;
 929:SynaptiX_FDK/components/modules/a76xx/a7677s.c ****  * actual firing (rising/falling edge detection) happens once per tick at
 930:SynaptiX_FDK/components/modules/a76xx/a7677s.c ****  * the top of a7677s_poll(), see the was_ready check there. Not an async op
 931:SynaptiX_FDK/components/modules/a76xx/a7677s.c ****  * of its own, so it never touches modem_cmd_pending/mqtt_cmd_pending etc. */
 932:SynaptiX_FDK/components/modules/a76xx/a7677s.c **** static void a7677s_set_on_ready(void *ctx, modem_ready_cb_t cb, void *user_ctx)
 933:SynaptiX_FDK/components/modules/a76xx/a7677s.c **** {
 202              		.loc 1 933 1 is_stmt 1 view -0
 203              		.cfi_startproc
 204              		@ args = 0, pretend = 0, frame = 0
 205              		@ frame_needed = 0, uses_anonymous_args = 0
 206              		@ link register save eliminated.
 934:SynaptiX_FDK/components/modules/a76xx/a7677s.c ****     a7677s_t *dce = (a7677s_t *)ctx;
 207              		.loc 1 934 5 view .LVU50
 935:SynaptiX_FDK/components/modules/a76xx/a7677s.c ****     dce->ready_cb     = cb;
 208              		.loc 1 935 5 view .LVU51
ARM GAS  C:\Users\DELL\AppData\Local\Temp\ccL84Lpd.s 			page 22


 209              		.loc 1 935 23 is_stmt 0 view .LVU52
 210 0000 C0F89412 		str	r1, [r0, #660]
 936:SynaptiX_FDK/components/modules/a76xx/a7677s.c ****     dce->ready_cb_ctx = user_ctx;
 211              		.loc 1 936 5 is_stmt 1 view .LVU53
 212              		.loc 1 936 23 is_stmt 0 view .LVU54
 213 0004 C0F89822 		str	r2, [r0, #664]
 937:SynaptiX_FDK/components/modules/a76xx/a7677s.c **** }
 214              		.loc 1 937 1 view .LVU55
 215 0008 7047     		bx	lr
 216              		.cfi_endproc
 217              	.LFE41:
 219              		.section	.text.a7677s_set_on_error,"ax",%progbits
 220              		.align	1
 221              		.syntax unified
 222              		.thumb
 223              		.thumb_func
 225              	a7677s_set_on_error:
 226              	.LVL22:
 227              	.LFB42:
 938:SynaptiX_FDK/components/modules/a76xx/a7677s.c **** 
 939:SynaptiX_FDK/components/modules/a76xx/a7677s.c **** static void a7677s_set_on_error(void *ctx, modem_error_cb_t cb, void *user_ctx)
 940:SynaptiX_FDK/components/modules/a76xx/a7677s.c **** {
 228              		.loc 1 940 1 is_stmt 1 view -0
 229              		.cfi_startproc
 230              		@ args = 0, pretend = 0, frame = 0
 231              		@ frame_needed = 0, uses_anonymous_args = 0
 232              		@ link register save eliminated.
 941:SynaptiX_FDK/components/modules/a76xx/a7677s.c ****     a7677s_t *dce = (a7677s_t *)ctx;
 233              		.loc 1 941 5 view .LVU57
 942:SynaptiX_FDK/components/modules/a76xx/a7677s.c ****     dce->error_cb     = cb;
 234              		.loc 1 942 5 view .LVU58
 235              		.loc 1 942 23 is_stmt 0 view .LVU59
 236 0000 C0F89C12 		str	r1, [r0, #668]
 943:SynaptiX_FDK/components/modules/a76xx/a7677s.c ****     dce->error_cb_ctx = user_ctx;
 237              		.loc 1 943 5 is_stmt 1 view .LVU60
 238              		.loc 1 943 23 is_stmt 0 view .LVU61
 239 0004 C0F8A022 		str	r2, [r0, #672]
 944:SynaptiX_FDK/components/modules/a76xx/a7677s.c **** }
 240              		.loc 1 944 1 view .LVU62
 241 0008 7047     		bx	lr
 242              		.cfi_endproc
 243              	.LFE42:
 245              		.section	.text.a7677s_get_imei,"ax",%progbits
 246              		.align	1
 247              		.syntax unified
 248              		.thumb
 249              		.thumb_func
 251              	a7677s_get_imei:
 252              	.LVL23:
 253              	.LFB43:
 945:SynaptiX_FDK/components/modules/a76xx/a7677s.c **** 
 946:SynaptiX_FDK/components/modules/a76xx/a7677s.c **** /* modem_ops_t.get_imei/get_rssi/get_ip — all three just return a cached
 947:SynaptiX_FDK/components/modules/a76xx/a7677s.c ****  * value, never send AT or block (see modem_ops.h's doc-comment on each).
 948:SynaptiX_FDK/components/modules/a76xx/a7677s.c ****  * get_imei/get_ip return "" until the corresponding A7677S_INIT_GET_IMEI/
 949:SynaptiX_FDK/components/modules/a76xx/a7677s.c ****  * A7677S_INIT_GET_IP step has run (or if it failed); get_rssi returns
 950:SynaptiX_FDK/components/modules/a76xx/a7677s.c ****  * A7677S_RSSI_UNKNOWN (99) until the first successful periodic AT+CSQ. */
 951:SynaptiX_FDK/components/modules/a76xx/a7677s.c **** static const char *a7677s_get_imei(void *ctx)
ARM GAS  C:\Users\DELL\AppData\Local\Temp\ccL84Lpd.s 			page 23


 952:SynaptiX_FDK/components/modules/a76xx/a7677s.c **** {
 254              		.loc 1 952 1 is_stmt 1 view -0
 255              		.cfi_startproc
 256              		@ args = 0, pretend = 0, frame = 0
 257              		@ frame_needed = 0, uses_anonymous_args = 0
 258              		@ link register save eliminated.
 953:SynaptiX_FDK/components/modules/a76xx/a7677s.c ****     a7677s_t *dce = (a7677s_t *)ctx;
 259              		.loc 1 953 5 view .LVU64
 954:SynaptiX_FDK/components/modules/a76xx/a7677s.c ****     return dce->imei;
 260              		.loc 1 954 5 view .LVU65
 955:SynaptiX_FDK/components/modules/a76xx/a7677s.c **** }
 261              		.loc 1 955 1 is_stmt 0 view .LVU66
 262 0000 00F2A520 		addw	r0, r0, #677
 263              	.LVL24:
 264              		.loc 1 955 1 view .LVU67
 265 0004 7047     		bx	lr
 266              		.cfi_endproc
 267              	.LFE43:
 269              		.section	.text.a7677s_get_rssi,"ax",%progbits
 270              		.align	1
 271              		.syntax unified
 272              		.thumb
 273              		.thumb_func
 275              	a7677s_get_rssi:
 276              	.LVL25:
 277              	.LFB44:
 956:SynaptiX_FDK/components/modules/a76xx/a7677s.c **** 
 957:SynaptiX_FDK/components/modules/a76xx/a7677s.c **** static int a7677s_get_rssi(void *ctx)
 958:SynaptiX_FDK/components/modules/a76xx/a7677s.c **** {
 278              		.loc 1 958 1 is_stmt 1 view -0
 279              		.cfi_startproc
 280              		@ args = 0, pretend = 0, frame = 0
 281              		@ frame_needed = 0, uses_anonymous_args = 0
 282              		@ link register save eliminated.
 959:SynaptiX_FDK/components/modules/a76xx/a7677s.c ****     a7677s_t *dce = (a7677s_t *)ctx;
 283              		.loc 1 959 5 view .LVU69
 960:SynaptiX_FDK/components/modules/a76xx/a7677s.c ****     return dce->rssi;
 284              		.loc 1 960 5 view .LVU70
 961:SynaptiX_FDK/components/modules/a76xx/a7677s.c **** }
 285              		.loc 1 961 1 is_stmt 0 view .LVU71
 286 0000 D0F8C802 		ldr	r0, [r0, #712]
 287              	.LVL26:
 288              		.loc 1 961 1 view .LVU72
 289 0004 7047     		bx	lr
 290              		.cfi_endproc
 291              	.LFE44:
 293              		.section	.text.a7677s_get_ip,"ax",%progbits
 294              		.align	1
 295              		.syntax unified
 296              		.thumb
 297              		.thumb_func
 299              	a7677s_get_ip:
 300              	.LVL27:
 301              	.LFB45:
 962:SynaptiX_FDK/components/modules/a76xx/a7677s.c **** 
 963:SynaptiX_FDK/components/modules/a76xx/a7677s.c **** static const char *a7677s_get_ip(void *ctx)
 964:SynaptiX_FDK/components/modules/a76xx/a7677s.c **** {
ARM GAS  C:\Users\DELL\AppData\Local\Temp\ccL84Lpd.s 			page 24


 302              		.loc 1 964 1 is_stmt 1 view -0
 303              		.cfi_startproc
 304              		@ args = 0, pretend = 0, frame = 0
 305              		@ frame_needed = 0, uses_anonymous_args = 0
 306              		@ link register save eliminated.
 965:SynaptiX_FDK/components/modules/a76xx/a7677s.c ****     a7677s_t *dce = (a7677s_t *)ctx;
 307              		.loc 1 965 5 view .LVU74
 966:SynaptiX_FDK/components/modules/a76xx/a7677s.c ****     return dce->ip;
 308              		.loc 1 966 5 view .LVU75
 967:SynaptiX_FDK/components/modules/a76xx/a7677s.c **** }
 309              		.loc 1 967 1 is_stmt 0 view .LVU76
 310 0000 00F2B520 		addw	r0, r0, #693
 311              	.LVL28:
 312              		.loc 1 967 1 view .LVU77
 313 0004 7047     		bx	lr
 314              		.cfi_endproc
 315              	.LFE45:
 317              		.section	.text.urc_reset_rx_state,"ax",%progbits
 318              		.align	1
 319              		.syntax unified
 320              		.thumb
 321              		.thumb_func
 323              	urc_reset_rx_state:
 324              	.LVL29:
 325              	.LFB48:
 968:SynaptiX_FDK/components/modules/a76xx/a7677s.c **** 
 969:SynaptiX_FDK/components/modules/a76xx/a7677s.c **** static int a7677s_enter_low_power(void *ctx, power_mode_cb_t cb)
 970:SynaptiX_FDK/components/modules/a76xx/a7677s.c **** {
 971:SynaptiX_FDK/components/modules/a76xx/a7677s.c ****     a7677s_t *dce = (a7677s_t *)ctx;
 972:SynaptiX_FDK/components/modules/a76xx/a7677s.c **** 
 973:SynaptiX_FDK/components/modules/a76xx/a7677s.c ****     if (dce->power_state != A7677S_PWR_READY) {
 974:SynaptiX_FDK/components/modules/a76xx/a7677s.c ****         log_warn(TAG, "enter_low_power(): power not ready");
 975:SynaptiX_FDK/components/modules/a76xx/a7677s.c ****         return -1;
 976:SynaptiX_FDK/components/modules/a76xx/a7677s.c ****     }
 977:SynaptiX_FDK/components/modules/a76xx/a7677s.c ****     if (modem_is_busy(pModem(dce)) || dce->init_cmd_pending || dce->cfun_cmd_pending) {
 978:SynaptiX_FDK/components/modules/a76xx/a7677s.c ****         log_warn(TAG, "enter_low_power(): modem busy");
 979:SynaptiX_FDK/components/modules/a76xx/a7677s.c ****         return -1;
 980:SynaptiX_FDK/components/modules/a76xx/a7677s.c ****     }
 981:SynaptiX_FDK/components/modules/a76xx/a7677s.c ****     if (dce->low_power_active) {
 982:SynaptiX_FDK/components/modules/a76xx/a7677s.c ****         log_warn(TAG, "enter_low_power(): already in low power");
 983:SynaptiX_FDK/components/modules/a76xx/a7677s.c ****         return -1;
 984:SynaptiX_FDK/components/modules/a76xx/a7677s.c ****     }
 985:SynaptiX_FDK/components/modules/a76xx/a7677s.c **** 
 986:SynaptiX_FDK/components/modules/a76xx/a7677s.c ****     dce->cfun_cb = cb;
 987:SynaptiX_FDK/components/modules/a76xx/a7677s.c ****     command[CMD_CFUN_0].callback = cb_cfun_0;
 988:SynaptiX_FDK/components/modules/a76xx/a7677s.c ****     command[CMD_CFUN_0].arg      = dce;
 989:SynaptiX_FDK/components/modules/a76xx/a7677s.c ****     dce->cfun_cmd_pending = 1;
 990:SynaptiX_FDK/components/modules/a76xx/a7677s.c ****     modem_send_command(pModem(dce), &command[CMD_CFUN_0], A7677S_TIMEOUT_CFUN);
 991:SynaptiX_FDK/components/modules/a76xx/a7677s.c ****     return 0;
 992:SynaptiX_FDK/components/modules/a76xx/a7677s.c **** }
 993:SynaptiX_FDK/components/modules/a76xx/a7677s.c **** 
 994:SynaptiX_FDK/components/modules/a76xx/a7677s.c **** static int a7677s_exit_low_power(void *ctx, power_mode_cb_t cb)
 995:SynaptiX_FDK/components/modules/a76xx/a7677s.c **** {
 996:SynaptiX_FDK/components/modules/a76xx/a7677s.c ****     a7677s_t *dce = (a7677s_t *)ctx;
 997:SynaptiX_FDK/components/modules/a76xx/a7677s.c **** 
 998:SynaptiX_FDK/components/modules/a76xx/a7677s.c ****     if (dce->power_state != A7677S_PWR_READY) {
 999:SynaptiX_FDK/components/modules/a76xx/a7677s.c ****         log_warn(TAG, "exit_low_power(): power not ready");
ARM GAS  C:\Users\DELL\AppData\Local\Temp\ccL84Lpd.s 			page 25


1000:SynaptiX_FDK/components/modules/a76xx/a7677s.c ****         return -1;
1001:SynaptiX_FDK/components/modules/a76xx/a7677s.c ****     }
1002:SynaptiX_FDK/components/modules/a76xx/a7677s.c ****     if (modem_is_busy(pModem(dce)) || dce->init_cmd_pending || dce->cfun_cmd_pending) {
1003:SynaptiX_FDK/components/modules/a76xx/a7677s.c ****         log_warn(TAG, "exit_low_power(): modem busy");
1004:SynaptiX_FDK/components/modules/a76xx/a7677s.c ****         return -1;
1005:SynaptiX_FDK/components/modules/a76xx/a7677s.c ****     }
1006:SynaptiX_FDK/components/modules/a76xx/a7677s.c ****     if (!dce->low_power_active) {
1007:SynaptiX_FDK/components/modules/a76xx/a7677s.c ****         log_warn(TAG, "exit_low_power(): not in low power");
1008:SynaptiX_FDK/components/modules/a76xx/a7677s.c ****         return -1;
1009:SynaptiX_FDK/components/modules/a76xx/a7677s.c ****     }
1010:SynaptiX_FDK/components/modules/a76xx/a7677s.c **** 
1011:SynaptiX_FDK/components/modules/a76xx/a7677s.c ****     dce->cfun_cb = cb;
1012:SynaptiX_FDK/components/modules/a76xx/a7677s.c ****     command[CMD_CFUN_1].callback = cb_cfun_1;
1013:SynaptiX_FDK/components/modules/a76xx/a7677s.c ****     command[CMD_CFUN_1].arg      = dce;
1014:SynaptiX_FDK/components/modules/a76xx/a7677s.c ****     dce->cfun_cmd_pending = 1;
1015:SynaptiX_FDK/components/modules/a76xx/a7677s.c ****     modem_send_command(pModem(dce), &command[CMD_CFUN_1], A7677S_TIMEOUT_CFUN);
1016:SynaptiX_FDK/components/modules/a76xx/a7677s.c ****     return 0;
1017:SynaptiX_FDK/components/modules/a76xx/a7677s.c **** }
1018:SynaptiX_FDK/components/modules/a76xx/a7677s.c **** /* ------------------------------------------------------------------ */
1019:SynaptiX_FDK/components/modules/a76xx/a7677s.c **** /*  MQTT — helpers                                                      */
1020:SynaptiX_FDK/components/modules/a76xx/a7677s.c **** /* ------------------------------------------------------------------ */
1021:SynaptiX_FDK/components/modules/a76xx/a7677s.c **** 
1022:SynaptiX_FDK/components/modules/a76xx/a7677s.c **** /* ------------------------------------------------------------------ */
1023:SynaptiX_FDK/components/modules/a76xx/a7677s.c **** /*  MQTT — URC (Unsolicited Result Code) scanner                        */
1024:SynaptiX_FDK/components/modules/a76xx/a7677s.c **** /* ------------------------------------------------------------------ */
1025:SynaptiX_FDK/components/modules/a76xx/a7677s.c **** /* Reassembles, from raw UART bytes read independently of the AT command/
1026:SynaptiX_FDK/components/modules/a76xx/a7677s.c ****  * response channel (see urc_poll() call site in a7677s_poll()):
1027:SynaptiX_FDK/components/modules/a76xx/a7677s.c ****  *   +CMQTTRXSTART: <idx>,<topic_total_len>,<payload_total_len>
1028:SynaptiX_FDK/components/modules/a76xx/a7677s.c ****  *   +CMQTTRXTOPIC: <idx>,<chunk_len>\r\n<chunk raw bytes>      (may repeat)
1029:SynaptiX_FDK/components/modules/a76xx/a7677s.c ****  *   +CMQTTRXPAYLOAD: <idx>,<chunk_len>\r\n<chunk raw bytes>    (may repeat)
1030:SynaptiX_FDK/components/modules/a76xx/a7677s.c ****  *   +CMQTTRXEND: <idx>
1031:SynaptiX_FDK/components/modules/a76xx/a7677s.c ****  * per a76xx_at_cmd.md 18.4 — topic/payload chunks repeat as needed until
1032:SynaptiX_FDK/components/modules/a76xx/a7677s.c ****  * their accumulated length reaches the total announced by RXSTART. Also
1033:SynaptiX_FDK/components/modules/a76xx/a7677s.c ****  * catches +CMQTTCONNLOST:<idx>,<cause> (passive MQTT disconnect) and
1034:SynaptiX_FDK/components/modules/a76xx/a7677s.c ****  * +CGEV: ME/NW PDN DEACT (network-level loss — treated as an implicit MQTT
1035:SynaptiX_FDK/components/modules/a76xx/a7677s.c ****  * disconnect too, since MQTT cannot survive without the underlying PDN). */
1036:SynaptiX_FDK/components/modules/a76xx/a7677s.c **** 
1037:SynaptiX_FDK/components/modules/a76xx/a7677s.c **** static void urc_reset_rx_state(a7677s_t *dce)
1038:SynaptiX_FDK/components/modules/a76xx/a7677s.c **** {
 326              		.loc 1 1038 1 is_stmt 1 view -0
 327              		.cfi_startproc
 328              		@ args = 0, pretend = 0, frame = 0
 329              		@ frame_needed = 0, uses_anonymous_args = 0
 330              		@ link register save eliminated.
1039:SynaptiX_FDK/components/modules/a76xx/a7677s.c ****     dce->mqtt_rx_state             = A7677S_MQTT_RX_IDLE;
 331              		.loc 1 1039 5 view .LVU79
 332              		.loc 1 1039 36 is_stmt 0 view .LVU80
 333 0000 00F52042 		add	r2, r0, #40960
 334 0004 0023     		movs	r3, #0
 335 0006 82F8C03E 		strb	r3, [r2, #3776]
1040:SynaptiX_FDK/components/modules/a76xx/a7677s.c ****     dce->mqtt_rx_topic_len         = 0;
 336              		.loc 1 1040 5 is_stmt 1 view .LVU81
 337              		.loc 1 1040 36 is_stmt 0 view .LVU82
 338 000a 00F55040 		add	r0, r0, #53248
 339              	.LVL30:
 340              		.loc 1 1040 36 view .LVU83
 341 000e A0F8C43A 		strh	r3, [r0, #2756]	@ movhi
ARM GAS  C:\Users\DELL\AppData\Local\Temp\ccL84Lpd.s 			page 26


1041:SynaptiX_FDK/components/modules/a76xx/a7677s.c ****     dce->mqtt_rx_payload_len       = 0;
 342              		.loc 1 1041 5 is_stmt 1 view .LVU84
 343              		.loc 1 1041 36 is_stmt 0 view .LVU85
 344 0012 A0F8C63A 		strh	r3, [r0, #2758]	@ movhi
1042:SynaptiX_FDK/components/modules/a76xx/a7677s.c ****     dce->mqtt_rx_topic_total_len   = 0;
 345              		.loc 1 1042 5 is_stmt 1 view .LVU86
 346              		.loc 1 1042 36 is_stmt 0 view .LVU87
 347 0016 A0F8C83A 		strh	r3, [r0, #2760]	@ movhi
1043:SynaptiX_FDK/components/modules/a76xx/a7677s.c ****     dce->mqtt_rx_payload_total_len = 0;
 348              		.loc 1 1043 5 is_stmt 1 view .LVU88
 349              		.loc 1 1043 36 is_stmt 0 view .LVU89
 350 001a A0F8CA3A 		strh	r3, [r0, #2762]	@ movhi
1044:SynaptiX_FDK/components/modules/a76xx/a7677s.c ****     dce->urc_chunk_remaining       = 0;
 351              		.loc 1 1044 5 is_stmt 1 view .LVU90
 352              		.loc 1 1044 36 is_stmt 0 view .LVU91
 353 001e A0F8DA3B 		strh	r3, [r0, #3034]	@ movhi
1045:SynaptiX_FDK/components/modules/a76xx/a7677s.c **** }
 354              		.loc 1 1045 1 view .LVU92
 355 0022 7047     		bx	lr
 356              		.cfi_endproc
 357              	.LFE48:
 359              		.section	.text.mqtt_op_done,"ax",%progbits
 360              		.align	1
 361              		.syntax unified
 362              		.thumb
 363              		.thumb_func
 365              	mqtt_op_done:
 366              	.LVL31:
 367              	.LFB53:
1046:SynaptiX_FDK/components/modules/a76xx/a7677s.c **** 
1047:SynaptiX_FDK/components/modules/a76xx/a7677s.c **** /* line: a single NUL-terminated header line, "\r\n" already stripped.
1048:SynaptiX_FDK/components/modules/a76xx/a7677s.c ****  * Only called when urc_chunk_remaining == 0 (i.e. between raw-byte
1049:SynaptiX_FDK/components/modules/a76xx/a7677s.c ****  * chunks) — see urc_poll(). */
1050:SynaptiX_FDK/components/modules/a76xx/a7677s.c **** static void urc_process_header_line(a7677s_t *dce, char *line)
1051:SynaptiX_FDK/components/modules/a76xx/a7677s.c **** {
1052:SynaptiX_FDK/components/modules/a76xx/a7677s.c ****     if (strstr(line, "+CMQTTRXSTART:")) {
1053:SynaptiX_FDK/components/modules/a76xx/a7677s.c ****         unsigned idx = 0, topic_len = 0, payload_len = 0;
1054:SynaptiX_FDK/components/modules/a76xx/a7677s.c ****         char *p = strchr(line, ':');
1055:SynaptiX_FDK/components/modules/a76xx/a7677s.c ****         if (p && sscanf(p + 1, "%u,%u,%u", &idx, &topic_len, &payload_len) == 3) {
1056:SynaptiX_FDK/components/modules/a76xx/a7677s.c ****             urc_reset_rx_state(dce);
1057:SynaptiX_FDK/components/modules/a76xx/a7677s.c ****             dce->mqtt_rx_state             = A7677S_MQTT_RX_TOPIC;
1058:SynaptiX_FDK/components/modules/a76xx/a7677s.c ****             dce->mqtt_rx_topic_total_len   = (uint16_t)topic_len;
1059:SynaptiX_FDK/components/modules/a76xx/a7677s.c ****             dce->mqtt_rx_payload_total_len = (uint16_t)payload_len;
1060:SynaptiX_FDK/components/modules/a76xx/a7677s.c ****             dce->mqtt_rx_topic[0]   = '\0';
1061:SynaptiX_FDK/components/modules/a76xx/a7677s.c ****             dce->mqtt_rx_payload[0] = '\0';
1062:SynaptiX_FDK/components/modules/a76xx/a7677s.c ****             log_debug(TAG, "RXSTART idx=%u topic_len=%u payload_len=%u",
1063:SynaptiX_FDK/components/modules/a76xx/a7677s.c ****                       idx, topic_len, payload_len);
1064:SynaptiX_FDK/components/modules/a76xx/a7677s.c ****         } else {
1065:SynaptiX_FDK/components/modules/a76xx/a7677s.c ****             log_error(TAG, "Malformed +CMQTTRXSTART: [%s]", line);
1066:SynaptiX_FDK/components/modules/a76xx/a7677s.c ****             urc_reset_rx_state(dce);
1067:SynaptiX_FDK/components/modules/a76xx/a7677s.c ****         }
1068:SynaptiX_FDK/components/modules/a76xx/a7677s.c ****         return;
1069:SynaptiX_FDK/components/modules/a76xx/a7677s.c ****     }
1070:SynaptiX_FDK/components/modules/a76xx/a7677s.c **** 
1071:SynaptiX_FDK/components/modules/a76xx/a7677s.c ****     if (strstr(line, "+CMQTTRXTOPIC:")) {
1072:SynaptiX_FDK/components/modules/a76xx/a7677s.c ****         unsigned idx = 0, chunk_len = 0;
1073:SynaptiX_FDK/components/modules/a76xx/a7677s.c ****         char *p = strchr(line, ':');
ARM GAS  C:\Users\DELL\AppData\Local\Temp\ccL84Lpd.s 			page 27


1074:SynaptiX_FDK/components/modules/a76xx/a7677s.c ****         if (dce->mqtt_rx_state == A7677S_MQTT_RX_TOPIC && p &&
1075:SynaptiX_FDK/components/modules/a76xx/a7677s.c ****             sscanf(p + 1, "%u,%u", &idx, &chunk_len) == 2 && chunk_len > 0) {
1076:SynaptiX_FDK/components/modules/a76xx/a7677s.c ****             if ((size_t)dce->mqtt_rx_topic_len + chunk_len >= sizeof(dce->mqtt_rx_topic)) {
1077:SynaptiX_FDK/components/modules/a76xx/a7677s.c ****                 log_error(TAG, "RX topic overflows buffer (have %u + chunk %u >= %u) — dropping m
1078:SynaptiX_FDK/components/modules/a76xx/a7677s.c ****                           (unsigned)dce->mqtt_rx_topic_len, chunk_len, (unsigned)sizeof(dce->mqtt_r
1079:SynaptiX_FDK/components/modules/a76xx/a7677s.c ****                 urc_reset_rx_state(dce);
1080:SynaptiX_FDK/components/modules/a76xx/a7677s.c ****                 return;
1081:SynaptiX_FDK/components/modules/a76xx/a7677s.c ****             }
1082:SynaptiX_FDK/components/modules/a76xx/a7677s.c ****             dce->urc_chunk_remaining = (uint16_t)chunk_len;
1083:SynaptiX_FDK/components/modules/a76xx/a7677s.c ****         } else {
1084:SynaptiX_FDK/components/modules/a76xx/a7677s.c ****             log_error(TAG, "Unexpected +CMQTTRXTOPIC: [%s] (rx_state=%d)", line, dce->mqtt_rx_state
1085:SynaptiX_FDK/components/modules/a76xx/a7677s.c ****             urc_reset_rx_state(dce);
1086:SynaptiX_FDK/components/modules/a76xx/a7677s.c ****         }
1087:SynaptiX_FDK/components/modules/a76xx/a7677s.c ****         return;
1088:SynaptiX_FDK/components/modules/a76xx/a7677s.c ****     }
1089:SynaptiX_FDK/components/modules/a76xx/a7677s.c **** 
1090:SynaptiX_FDK/components/modules/a76xx/a7677s.c ****     if (strstr(line, "+CMQTTRXPAYLOAD:")) {
1091:SynaptiX_FDK/components/modules/a76xx/a7677s.c ****         unsigned idx = 0, chunk_len = 0;
1092:SynaptiX_FDK/components/modules/a76xx/a7677s.c ****         char *p = strchr(line, ':');
1093:SynaptiX_FDK/components/modules/a76xx/a7677s.c ****         if ((dce->mqtt_rx_state == A7677S_MQTT_RX_TOPIC ||
1094:SynaptiX_FDK/components/modules/a76xx/a7677s.c ****              dce->mqtt_rx_state == A7677S_MQTT_RX_PAYLOAD) && p &&
1095:SynaptiX_FDK/components/modules/a76xx/a7677s.c ****             sscanf(p + 1, "%u,%u", &idx, &chunk_len) == 2 && chunk_len > 0) {
1096:SynaptiX_FDK/components/modules/a76xx/a7677s.c ****             if ((size_t)dce->mqtt_rx_payload_len + chunk_len >= sizeof(dce->mqtt_rx_payload)) {
1097:SynaptiX_FDK/components/modules/a76xx/a7677s.c ****                 log_error(TAG, "RX payload overflows buffer (have %u + chunk %u >= %u) — dropping
1098:SynaptiX_FDK/components/modules/a76xx/a7677s.c ****                           (unsigned)dce->mqtt_rx_payload_len, chunk_len, (unsigned)sizeof(dce->mqtt
1099:SynaptiX_FDK/components/modules/a76xx/a7677s.c ****                 urc_reset_rx_state(dce);
1100:SynaptiX_FDK/components/modules/a76xx/a7677s.c ****                 return;
1101:SynaptiX_FDK/components/modules/a76xx/a7677s.c ****             }
1102:SynaptiX_FDK/components/modules/a76xx/a7677s.c ****             dce->mqtt_rx_state       = A7677S_MQTT_RX_PAYLOAD;
1103:SynaptiX_FDK/components/modules/a76xx/a7677s.c ****             dce->urc_chunk_remaining = (uint16_t)chunk_len;
1104:SynaptiX_FDK/components/modules/a76xx/a7677s.c ****         } else {
1105:SynaptiX_FDK/components/modules/a76xx/a7677s.c ****             log_error(TAG, "Unexpected +CMQTTRXPAYLOAD: [%s] (rx_state=%d)", line, dce->mqtt_rx_sta
1106:SynaptiX_FDK/components/modules/a76xx/a7677s.c ****             urc_reset_rx_state(dce);
1107:SynaptiX_FDK/components/modules/a76xx/a7677s.c ****         }
1108:SynaptiX_FDK/components/modules/a76xx/a7677s.c ****         return;
1109:SynaptiX_FDK/components/modules/a76xx/a7677s.c ****     }
1110:SynaptiX_FDK/components/modules/a76xx/a7677s.c **** 
1111:SynaptiX_FDK/components/modules/a76xx/a7677s.c ****     if (strstr(line, "+CMQTTRXEND:")) {
1112:SynaptiX_FDK/components/modules/a76xx/a7677s.c ****         if (dce->mqtt_rx_topic_len   < dce->mqtt_rx_topic_total_len ||
1113:SynaptiX_FDK/components/modules/a76xx/a7677s.c ****             dce->mqtt_rx_payload_len < dce->mqtt_rx_payload_total_len) {
1114:SynaptiX_FDK/components/modules/a76xx/a7677s.c ****             log_warn(TAG, "RXEND before topic/payload fully accumulated (topic %u/%u, payload %u/%u
1115:SynaptiX_FDK/components/modules/a76xx/a7677s.c ****                       (unsigned)dce->mqtt_rx_topic_len, (unsigned)dce->mqtt_rx_topic_total_len,
1116:SynaptiX_FDK/components/modules/a76xx/a7677s.c ****                       (unsigned)dce->mqtt_rx_payload_len, (unsigned)dce->mqtt_rx_payload_total_len)
1117:SynaptiX_FDK/components/modules/a76xx/a7677s.c ****         }
1118:SynaptiX_FDK/components/modules/a76xx/a7677s.c ****         dce->mqtt_rx_topic[dce->mqtt_rx_topic_len]     = '\0';
1119:SynaptiX_FDK/components/modules/a76xx/a7677s.c ****         dce->mqtt_rx_payload[dce->mqtt_rx_payload_len] = '\0';
1120:SynaptiX_FDK/components/modules/a76xx/a7677s.c ****         if (dce->mqtt_incoming_cb) {
1121:SynaptiX_FDK/components/modules/a76xx/a7677s.c ****             dce->mqtt_incoming_cb(dce->mqtt_rx_topic, dce->mqtt_rx_topic_len,
1122:SynaptiX_FDK/components/modules/a76xx/a7677s.c ****                                    dce->mqtt_rx_payload, dce->mqtt_rx_payload_len,
1123:SynaptiX_FDK/components/modules/a76xx/a7677s.c ****                                    dce->mqtt_user_ctx);
1124:SynaptiX_FDK/components/modules/a76xx/a7677s.c ****         }
1125:SynaptiX_FDK/components/modules/a76xx/a7677s.c ****         urc_reset_rx_state(dce);
1126:SynaptiX_FDK/components/modules/a76xx/a7677s.c ****         return;
1127:SynaptiX_FDK/components/modules/a76xx/a7677s.c ****     }
1128:SynaptiX_FDK/components/modules/a76xx/a7677s.c **** 
1129:SynaptiX_FDK/components/modules/a76xx/a7677s.c ****     if (strstr(line, "+CMQTTCONNLOST:")) {
1130:SynaptiX_FDK/components/modules/a76xx/a7677s.c ****         log_warn(TAG, "MQTT connection lost (URC): %s", line);
ARM GAS  C:\Users\DELL\AppData\Local\Temp\ccL84Lpd.s 			page 28


1131:SynaptiX_FDK/components/modules/a76xx/a7677s.c ****         dce->mqtt_state = A7677S_MQTT_IDLE;
1132:SynaptiX_FDK/components/modules/a76xx/a7677s.c ****         urc_reset_rx_state(dce);
1133:SynaptiX_FDK/components/modules/a76xx/a7677s.c ****         if (dce->mqtt_connlost_cb) dce->mqtt_connlost_cb(dce->mqtt_user_ctx);
1134:SynaptiX_FDK/components/modules/a76xx/a7677s.c ****         return;
1135:SynaptiX_FDK/components/modules/a76xx/a7677s.c ****     }
1136:SynaptiX_FDK/components/modules/a76xx/a7677s.c **** 
1137:SynaptiX_FDK/components/modules/a76xx/a7677s.c ****     if (strstr(line, "+CGEV: ME PDN DEACT") || strstr(line, "+CGEV: NW PDN DEACT")) {
1138:SynaptiX_FDK/components/modules/a76xx/a7677s.c ****         log_warn(TAG, "PDN deactivated (URC) — restarting network attach sequence");
1139:SynaptiX_FDK/components/modules/a76xx/a7677s.c ****         /* A7677S_INIT_AT doubles as the "restart the whole sequence" entry
1140:SynaptiX_FDK/components/modules/a76xx/a7677s.c ****          * point (see a7677s_init_state_t comment) — reuse it rather than
1141:SynaptiX_FDK/components/modules/a76xx/a7677s.c ****          * inventing a second restart path. */
1142:SynaptiX_FDK/components/modules/a76xx/a7677s.c ****         dce->init_state       = A7677S_INIT_AT;
1143:SynaptiX_FDK/components/modules/a76xx/a7677s.c ****         dce->init_elapsed     = 0;
1144:SynaptiX_FDK/components/modules/a76xx/a7677s.c ****         dce->init_cmd_pending = 0;
1145:SynaptiX_FDK/components/modules/a76xx/a7677s.c ****         dce->mqtt_state       = A7677S_MQTT_IDLE;
1146:SynaptiX_FDK/components/modules/a76xx/a7677s.c ****         urc_reset_rx_state(dce);
1147:SynaptiX_FDK/components/modules/a76xx/a7677s.c ****         /* MQTT cannot survive the PDN going down even if CMQTTCONNLOST never
1148:SynaptiX_FDK/components/modules/a76xx/a7677s.c ****          * arrives separately — tell the service layer now so its reconnect
1149:SynaptiX_FDK/components/modules/a76xx/a7677s.c ****          * logic starts retrying (harmlessly failing via is_ready()==false
1150:SynaptiX_FDK/components/modules/a76xx/a7677s.c ****          * until re-attach completes, then succeeding on its own). */
1151:SynaptiX_FDK/components/modules/a76xx/a7677s.c ****         if (dce->mqtt_connlost_cb) dce->mqtt_connlost_cb(dce->mqtt_user_ctx);
1152:SynaptiX_FDK/components/modules/a76xx/a7677s.c ****         return;
1153:SynaptiX_FDK/components/modules/a76xx/a7677s.c ****     }
1154:SynaptiX_FDK/components/modules/a76xx/a7677s.c **** 
1155:SynaptiX_FDK/components/modules/a76xx/a7677s.c ****     /* Unrecognized line (e.g. +CREG:, +CPIN:, other chatter arriving
1156:SynaptiX_FDK/components/modules/a76xx/a7677s.c ****      * outside a command exchange) — ignore. */
1157:SynaptiX_FDK/components/modules/a76xx/a7677s.c **** }
1158:SynaptiX_FDK/components/modules/a76xx/a7677s.c **** 
1159:SynaptiX_FDK/components/modules/a76xx/a7677s.c **** static void urc_poll(a7677s_t *dce)
1160:SynaptiX_FDK/components/modules/a76xx/a7677s.c **** {
1161:SynaptiX_FDK/components/modules/a76xx/a7677s.c ****     int available = sx_uart_available(&dce->base.uart);
1162:SynaptiX_FDK/components/modules/a76xx/a7677s.c ****     if (available <= 0) return;
1163:SynaptiX_FDK/components/modules/a76xx/a7677s.c **** 
1164:SynaptiX_FDK/components/modules/a76xx/a7677s.c ****     int space = (int)sizeof(dce->urc_buf) - 1 - (int)dce->urc_buf_len;
1165:SynaptiX_FDK/components/modules/a76xx/a7677s.c ****     if (space <= 0) {
1166:SynaptiX_FDK/components/modules/a76xx/a7677s.c ****         /* A header line longer than A7677S_URC_BUF_SIZE with no "\r\n" in
1167:SynaptiX_FDK/components/modules/a76xx/a7677s.c ****          * sight is not a real modem response — defensive reset only. */
1168:SynaptiX_FDK/components/modules/a76xx/a7677s.c ****         log_error(TAG, "URC buffer full without a line terminator — resetting (buf=[%.*s])",
1169:SynaptiX_FDK/components/modules/a76xx/a7677s.c ****                   (int)dce->urc_buf_len, dce->urc_buf);
1170:SynaptiX_FDK/components/modules/a76xx/a7677s.c ****         dce->urc_buf_len = 0;
1171:SynaptiX_FDK/components/modules/a76xx/a7677s.c ****         urc_reset_rx_state(dce);
1172:SynaptiX_FDK/components/modules/a76xx/a7677s.c ****         space = (int)sizeof(dce->urc_buf) - 1;
1173:SynaptiX_FDK/components/modules/a76xx/a7677s.c ****     }
1174:SynaptiX_FDK/components/modules/a76xx/a7677s.c ****     if (available > space) available = space;
1175:SynaptiX_FDK/components/modules/a76xx/a7677s.c **** 
1176:SynaptiX_FDK/components/modules/a76xx/a7677s.c ****     int read = sx_uart_read(&dce->base.uart, (uint8_t *)dce->urc_buf + dce->urc_buf_len,
1177:SynaptiX_FDK/components/modules/a76xx/a7677s.c ****                              available, 10);
1178:SynaptiX_FDK/components/modules/a76xx/a7677s.c ****     if (read <= 0) return;
1179:SynaptiX_FDK/components/modules/a76xx/a7677s.c ****     dce->urc_buf_len += (uint16_t)read;
1180:SynaptiX_FDK/components/modules/a76xx/a7677s.c ****     dce->urc_buf[dce->urc_buf_len] = '\0';
1181:SynaptiX_FDK/components/modules/a76xx/a7677s.c **** 
1182:SynaptiX_FDK/components/modules/a76xx/a7677s.c ****     /* Drain every complete unit (header line or raw chunk) currently fully
1183:SynaptiX_FDK/components/modules/a76xx/a7677s.c ****      * present in urc_buf. Loops because one UART read can easily contain
1184:SynaptiX_FDK/components/modules/a76xx/a7677s.c ****      * more than one complete line/chunk (e.g. RXTOPIC header + full small
1185:SynaptiX_FDK/components/modules/a76xx/a7677s.c ****      * topic + RXPAYLOAD header all in one burst). */
1186:SynaptiX_FDK/components/modules/a76xx/a7677s.c ****     for (;;) {
1187:SynaptiX_FDK/components/modules/a76xx/a7677s.c ****         if (dce->urc_chunk_remaining > 0) {
ARM GAS  C:\Users\DELL\AppData\Local\Temp\ccL84Lpd.s 			page 29


1188:SynaptiX_FDK/components/modules/a76xx/a7677s.c ****             uint16_t take = dce->urc_buf_len < dce->urc_chunk_remaining
1189:SynaptiX_FDK/components/modules/a76xx/a7677s.c ****                              ? dce->urc_buf_len : dce->urc_chunk_remaining;
1190:SynaptiX_FDK/components/modules/a76xx/a7677s.c ****             if (take == 0) break;
1191:SynaptiX_FDK/components/modules/a76xx/a7677s.c **** 
1192:SynaptiX_FDK/components/modules/a76xx/a7677s.c ****             if (dce->mqtt_rx_state == A7677S_MQTT_RX_TOPIC) {
1193:SynaptiX_FDK/components/modules/a76xx/a7677s.c ****                 memcpy(dce->mqtt_rx_topic + dce->mqtt_rx_topic_len, dce->urc_buf, take);
1194:SynaptiX_FDK/components/modules/a76xx/a7677s.c ****                 dce->mqtt_rx_topic_len += take;
1195:SynaptiX_FDK/components/modules/a76xx/a7677s.c ****             } else if (dce->mqtt_rx_state == A7677S_MQTT_RX_PAYLOAD) {
1196:SynaptiX_FDK/components/modules/a76xx/a7677s.c ****                 memcpy(dce->mqtt_rx_payload + dce->mqtt_rx_payload_len, dce->urc_buf, take);
1197:SynaptiX_FDK/components/modules/a76xx/a7677s.c ****                 dce->mqtt_rx_payload_len += take;
1198:SynaptiX_FDK/components/modules/a76xx/a7677s.c ****             }
1199:SynaptiX_FDK/components/modules/a76xx/a7677s.c ****             dce->urc_chunk_remaining -= take;
1200:SynaptiX_FDK/components/modules/a76xx/a7677s.c **** 
1201:SynaptiX_FDK/components/modules/a76xx/a7677s.c ****             memmove(dce->urc_buf, dce->urc_buf + take, dce->urc_buf_len - take);
1202:SynaptiX_FDK/components/modules/a76xx/a7677s.c ****             dce->urc_buf_len -= take;
1203:SynaptiX_FDK/components/modules/a76xx/a7677s.c ****             dce->urc_buf[dce->urc_buf_len] = '\0';
1204:SynaptiX_FDK/components/modules/a76xx/a7677s.c **** 
1205:SynaptiX_FDK/components/modules/a76xx/a7677s.c ****             if (dce->urc_chunk_remaining > 0) break; /* need more bytes next poll */
1206:SynaptiX_FDK/components/modules/a76xx/a7677s.c **** 
1207:SynaptiX_FDK/components/modules/a76xx/a7677s.c ****             /* The modem sends a trailing "\r\n" after each data chunk,
1208:SynaptiX_FDK/components/modules/a76xx/a7677s.c ****              * before the next header line. Consume it now if it is already
1209:SynaptiX_FDK/components/modules/a76xx/a7677s.c ****              * here; if not, the blank-line skip below handles it next
1210:SynaptiX_FDK/components/modules/a76xx/a7677s.c ****              * iteration once it arrives. */
1211:SynaptiX_FDK/components/modules/a76xx/a7677s.c ****             if (dce->urc_buf_len >= 2 && dce->urc_buf[0] == '\r' && dce->urc_buf[1] == '\n') {
1212:SynaptiX_FDK/components/modules/a76xx/a7677s.c ****                 memmove(dce->urc_buf, dce->urc_buf + 2, dce->urc_buf_len - 2);
1213:SynaptiX_FDK/components/modules/a76xx/a7677s.c ****                 dce->urc_buf_len -= 2;
1214:SynaptiX_FDK/components/modules/a76xx/a7677s.c ****                 dce->urc_buf[dce->urc_buf_len] = '\0';
1215:SynaptiX_FDK/components/modules/a76xx/a7677s.c ****             }
1216:SynaptiX_FDK/components/modules/a76xx/a7677s.c ****             continue;
1217:SynaptiX_FDK/components/modules/a76xx/a7677s.c ****         }
1218:SynaptiX_FDK/components/modules/a76xx/a7677s.c **** 
1219:SynaptiX_FDK/components/modules/a76xx/a7677s.c ****         char *eol = strstr(dce->urc_buf, "\r\n");
1220:SynaptiX_FDK/components/modules/a76xx/a7677s.c ****         if (!eol) break; /* incomplete line — wait for more bytes */
1221:SynaptiX_FDK/components/modules/a76xx/a7677s.c **** 
1222:SynaptiX_FDK/components/modules/a76xx/a7677s.c ****         size_t line_len = (size_t)(eol - dce->urc_buf);
1223:SynaptiX_FDK/components/modules/a76xx/a7677s.c ****         if (line_len == 0) {
1224:SynaptiX_FDK/components/modules/a76xx/a7677s.c ****             /* blank line between URCs — consume and continue */
1225:SynaptiX_FDK/components/modules/a76xx/a7677s.c ****             memmove(dce->urc_buf, dce->urc_buf + 2, dce->urc_buf_len - 2);
1226:SynaptiX_FDK/components/modules/a76xx/a7677s.c ****             dce->urc_buf_len -= 2;
1227:SynaptiX_FDK/components/modules/a76xx/a7677s.c ****             dce->urc_buf[dce->urc_buf_len] = '\0';
1228:SynaptiX_FDK/components/modules/a76xx/a7677s.c ****             continue;
1229:SynaptiX_FDK/components/modules/a76xx/a7677s.c ****         }
1230:SynaptiX_FDK/components/modules/a76xx/a7677s.c **** 
1231:SynaptiX_FDK/components/modules/a76xx/a7677s.c ****         char line[A7677S_URC_BUF_SIZE];
1232:SynaptiX_FDK/components/modules/a76xx/a7677s.c ****         memcpy(line, dce->urc_buf, line_len);
1233:SynaptiX_FDK/components/modules/a76xx/a7677s.c ****         line[line_len] = '\0';
1234:SynaptiX_FDK/components/modules/a76xx/a7677s.c **** 
1235:SynaptiX_FDK/components/modules/a76xx/a7677s.c ****         size_t consumed = line_len + 2; /* + "\r\n" */
1236:SynaptiX_FDK/components/modules/a76xx/a7677s.c ****         memmove(dce->urc_buf, dce->urc_buf + consumed, dce->urc_buf_len - consumed);
1237:SynaptiX_FDK/components/modules/a76xx/a7677s.c ****         dce->urc_buf_len -= (uint16_t)consumed;
1238:SynaptiX_FDK/components/modules/a76xx/a7677s.c ****         dce->urc_buf[dce->urc_buf_len] = '\0';
1239:SynaptiX_FDK/components/modules/a76xx/a7677s.c **** 
1240:SynaptiX_FDK/components/modules/a76xx/a7677s.c ****         urc_process_header_line(dce, line);
1241:SynaptiX_FDK/components/modules/a76xx/a7677s.c ****         /* Loop again — urc_process_header_line() may have set
1242:SynaptiX_FDK/components/modules/a76xx/a7677s.c ****          * urc_chunk_remaining > 0 (RXTOPIC/RXPAYLOAD header), which the top
1243:SynaptiX_FDK/components/modules/a76xx/a7677s.c ****          * of this loop now handles against whatever remains in urc_buf. */
1244:SynaptiX_FDK/components/modules/a76xx/a7677s.c ****     }
ARM GAS  C:\Users\DELL\AppData\Local\Temp\ccL84Lpd.s 			page 30


1245:SynaptiX_FDK/components/modules/a76xx/a7677s.c **** }
1246:SynaptiX_FDK/components/modules/a76xx/a7677s.c **** 
1247:SynaptiX_FDK/components/modules/a76xx/a7677s.c **** void a7677s_mqtt_register_callbacks(a7677s_t *dce,
1248:SynaptiX_FDK/components/modules/a76xx/a7677s.c ****                                      mqtt_incoming_cb_t incoming_cb,
1249:SynaptiX_FDK/components/modules/a76xx/a7677s.c ****                                      mqtt_connlost_cb_t connlost_cb,
1250:SynaptiX_FDK/components/modules/a76xx/a7677s.c ****                                      void *user_ctx)
1251:SynaptiX_FDK/components/modules/a76xx/a7677s.c **** {
1252:SynaptiX_FDK/components/modules/a76xx/a7677s.c ****     dce->mqtt_incoming_cb = incoming_cb;
1253:SynaptiX_FDK/components/modules/a76xx/a7677s.c ****     dce->mqtt_connlost_cb = connlost_cb;
1254:SynaptiX_FDK/components/modules/a76xx/a7677s.c ****     dce->mqtt_user_ctx    = user_ctx;
1255:SynaptiX_FDK/components/modules/a76xx/a7677s.c **** }
1256:SynaptiX_FDK/components/modules/a76xx/a7677s.c **** 
1257:SynaptiX_FDK/components/modules/a76xx/a7677s.c **** /* modem_ops_t vtable adapter — identical signature to
1258:SynaptiX_FDK/components/modules/a76xx/a7677s.c ****  * a7677s_mqtt_register_callbacks() above, just reached through the generic
1259:SynaptiX_FDK/components/modules/a76xx/a7677s.c ****  * interface so sx_mqtt.c never has to include a7677s.h. */
1260:SynaptiX_FDK/components/modules/a76xx/a7677s.c **** static void a7677s_mqtt_set_callbacks(void *ctx, mqtt_incoming_cb_t incoming_cb,
1261:SynaptiX_FDK/components/modules/a76xx/a7677s.c ****                                        mqtt_connlost_cb_t connlost_cb,
1262:SynaptiX_FDK/components/modules/a76xx/a7677s.c ****                                        void *user_ctx)
1263:SynaptiX_FDK/components/modules/a76xx/a7677s.c **** {
1264:SynaptiX_FDK/components/modules/a76xx/a7677s.c ****     a7677s_mqtt_register_callbacks((a7677s_t *)ctx, incoming_cb, connlost_cb, user_ctx);
1265:SynaptiX_FDK/components/modules/a76xx/a7677s.c **** }
1266:SynaptiX_FDK/components/modules/a76xx/a7677s.c **** 
1267:SynaptiX_FDK/components/modules/a76xx/a7677s.c **** /* Fire the in-flight op callback and clear it so it cannot fire twice. */
1268:SynaptiX_FDK/components/modules/a76xx/a7677s.c **** static void mqtt_op_done(a7677s_t *dce, modem_ops_result_t result)
1269:SynaptiX_FDK/components/modules/a76xx/a7677s.c **** {
 368              		.loc 1 1269 1 is_stmt 1 view -0
 369              		.cfi_startproc
 370              		@ args = 0, pretend = 0, frame = 0
 371              		@ frame_needed = 0, uses_anonymous_args = 0
 372              		.loc 1 1269 1 is_stmt 0 view .LVU94
 373 0000 10B5     		push	{r4, lr}
 374              	.LCFI1:
 375              		.cfi_def_cfa_offset 8
 376              		.cfi_offset 4, -8
 377              		.cfi_offset 14, -4
 378 0002 0346     		mov	r3, r0
 379 0004 0846     		mov	r0, r1
 380              	.LVL32:
1270:SynaptiX_FDK/components/modules/a76xx/a7677s.c ****     mqtt_cb_t cb = dce->mqtt_op_cb;
 381              		.loc 1 1270 5 is_stmt 1 view .LVU95
 382              		.loc 1 1270 15 is_stmt 0 view .LVU96
 383 0006 03F52042 		add	r2, r3, #40960
 384 000a D2F8BC4E 		ldr	r4, [r2, #3772]
 385              	.LVL33:
1271:SynaptiX_FDK/components/modules/a76xx/a7677s.c ****     dce->mqtt_op_cb = NULL;
 386              		.loc 1 1271 5 is_stmt 1 view .LVU97
 387              		.loc 1 1271 21 is_stmt 0 view .LVU98
 388 000e 0021     		movs	r1, #0
 389              	.LVL34:
 390              		.loc 1 1271 21 view .LVU99
 391 0010 C2F8BC1E 		str	r1, [r2, #3772]
1272:SynaptiX_FDK/components/modules/a76xx/a7677s.c ****     if (cb) cb(result, dce);
 392              		.loc 1 1272 5 is_stmt 1 view .LVU100
 393              		.loc 1 1272 8 is_stmt 0 view .LVU101
 394 0014 0CB1     		cbz	r4, .L25
 395              		.loc 1 1272 13 is_stmt 1 discriminator 1 view .LVU102
 396 0016 1946     		mov	r1, r3
ARM GAS  C:\Users\DELL\AppData\Local\Temp\ccL84Lpd.s 			page 31


 397 0018 A047     		blx	r4
 398              	.LVL35:
 399              	.L25:
1273:SynaptiX_FDK/components/modules/a76xx/a7677s.c **** }
 400              		.loc 1 1273 1 is_stmt 0 view .LVU103
 401 001a 10BD     		pop	{r4, pc}
 402              		.loc 1 1273 1 view .LVU104
 403              		.cfi_endproc
 404              	.LFE53:
 406              		.section	.rodata.cb_at_probe.str1.4,"aMS",%progbits,1
 407              		.align	2
 408              	.LC0:
 409 0000 4D6F6475 		.ascii	"Module responsive, boot confirmed\000"
 409      6C652072 
 409      6573706F 
 409      6E736976 
 409      652C2062 
 410 0022 0000     		.align	2
 411              	.LC1:
 412 0024 41373637 		.ascii	"A7677S\000"
 412      375300
 413              		.section	.text.cb_at_probe,"ax",%progbits
 414              		.align	1
 415              		.syntax unified
 416              		.thumb
 417              		.thumb_func
 419              	cb_at_probe:
 420              	.LVL36:
 421              	.LFB19:
 331:SynaptiX_FDK/components/modules/a76xx/a7677s.c ****     a7677s_t *dce = pDCE(modem);
 422              		.loc 1 331 1 is_stmt 1 view -0
 423              		.cfi_startproc
 424              		@ args = 0, pretend = 0, frame = 0
 425              		@ frame_needed = 0, uses_anonymous_args = 0
 332:SynaptiX_FDK/components/modules/a76xx/a7677s.c ****     dce->at_probe_pending = 0;
 426              		.loc 1 332 5 view .LVU106
 333:SynaptiX_FDK/components/modules/a76xx/a7677s.c **** 
 427              		.loc 1 333 5 view .LVU107
 333:SynaptiX_FDK/components/modules/a76xx/a7677s.c **** 
 428              		.loc 1 333 27 is_stmt 0 view .LVU108
 429 0000 0023     		movs	r3, #0
 430              	.LVL37:
 333:SynaptiX_FDK/components/modules/a76xx/a7677s.c **** 
 431              		.loc 1 333 27 view .LVU109
 432 0002 80F88832 		strb	r3, [r0, #648]
 335:SynaptiX_FDK/components/modules/a76xx/a7677s.c ****         log_info(TAG, "Module responsive, boot confirmed");
 433              		.loc 1 335 5 is_stmt 1 view .LVU110
 335:SynaptiX_FDK/components/modules/a76xx/a7677s.c ****         log_info(TAG, "Module responsive, boot confirmed");
 434              		.loc 1 335 8 is_stmt 0 view .LVU111
 435 0006 02B1     		cbz	r2, .L34
 436 0008 7047     		bx	lr
 437              	.L34:
 331:SynaptiX_FDK/components/modules/a76xx/a7677s.c ****     a7677s_t *dce = pDCE(modem);
 438              		.loc 1 331 1 view .LVU112
 439 000a 10B5     		push	{r4, lr}
 440              	.LCFI2:
 441              		.cfi_def_cfa_offset 8
ARM GAS  C:\Users\DELL\AppData\Local\Temp\ccL84Lpd.s 			page 32


 442              		.cfi_offset 4, -8
 443              		.cfi_offset 14, -4
 444 000c 0446     		mov	r4, r0
 336:SynaptiX_FDK/components/modules/a76xx/a7677s.c ****         dce->power_state   = A7677S_PWR_READY;
 445              		.loc 1 336 9 is_stmt 1 view .LVU113
 446 000e 064A     		ldr	r2, .L35
 447              	.LVL38:
 336:SynaptiX_FDK/components/modules/a76xx/a7677s.c ****         dce->power_state   = A7677S_PWR_READY;
 448              		.loc 1 336 9 is_stmt 0 view .LVU114
 449 0010 0649     		ldr	r1, .L35+4
 450              	.LVL39:
 336:SynaptiX_FDK/components/modules/a76xx/a7677s.c ****         dce->power_state   = A7677S_PWR_READY;
 451              		.loc 1 336 9 view .LVU115
 452 0012 0320     		movs	r0, #3
 453              	.LVL40:
 336:SynaptiX_FDK/components/modules/a76xx/a7677s.c ****         dce->power_state   = A7677S_PWR_READY;
 454              		.loc 1 336 9 view .LVU116
 455 0014 FFF7FEFF 		bl	log_func
 456              	.LVL41:
 337:SynaptiX_FDK/components/modules/a76xx/a7677s.c ****         dce->power_elapsed = 0;
 457              		.loc 1 337 9 is_stmt 1 view .LVU117
 337:SynaptiX_FDK/components/modules/a76xx/a7677s.c ****         dce->power_elapsed = 0;
 458              		.loc 1 337 28 is_stmt 0 view .LVU118
 459 0018 0523     		movs	r3, #5
 460 001a 84F88032 		strb	r3, [r4, #640]
 338:SynaptiX_FDK/components/modules/a76xx/a7677s.c ****     }
 461              		.loc 1 338 9 is_stmt 1 view .LVU119
 338:SynaptiX_FDK/components/modules/a76xx/a7677s.c ****     }
 462              		.loc 1 338 28 is_stmt 0 view .LVU120
 463 001e 0023     		movs	r3, #0
 464 0020 C4F88432 		str	r3, [r4, #644]
 343:SynaptiX_FDK/components/modules/a76xx/a7677s.c **** 
 465              		.loc 1 343 1 view .LVU121
 466 0024 10BD     		pop	{r4, pc}
 467              	.LVL42:
 468              	.L36:
 343:SynaptiX_FDK/components/modules/a76xx/a7677s.c **** 
 469              		.loc 1 343 1 view .LVU122
 470 0026 00BF     		.align	2
 471              	.L35:
 472 0028 00000000 		.word	.LC0
 473 002c 24000000 		.word	.LC1
 474              		.cfi_endproc
 475              	.LFE19:
 477              		.section	.rodata.cb_mqtt_stop.str1.4,"aMS",%progbits,1
 478              		.align	2
 479              	.LC2:
 480 0000 41542B43 		.ascii	"AT+CMQTTSTOP did not complete cleanly (res=%d)\000"
 480      4D515454 
 480      53544F50 
 480      20646964 
 480      206E6F74 
 481 002f 00       		.align	2
 482              	.LC3:
 483 0030 4D515454 		.ascii	"MQTT session closed\000"
 483      20736573 
 483      73696F6E 
ARM GAS  C:\Users\DELL\AppData\Local\Temp\ccL84Lpd.s 			page 33


 483      20636C6F 
 483      73656400 
 484              		.section	.text.cb_mqtt_stop,"ax",%progbits
 485              		.align	1
 486              		.syntax unified
 487              		.thumb
 488              		.thumb_func
 490              	cb_mqtt_stop:
 491              	.LVL43:
 492              	.LFB75:
1274:SynaptiX_FDK/components/modules/a76xx/a7677s.c **** 
1275:SynaptiX_FDK/components/modules/a76xx/a7677s.c **** /* Send a dynamically-built MQTT AT command stored in s_mqtt_dyn_cmd_buf. */
1276:SynaptiX_FDK/components/modules/a76xx/a7677s.c **** static void send_mqtt_dynamic(a7677s_t *dce, const char *cmd_str,
1277:SynaptiX_FDK/components/modules/a76xx/a7677s.c ****                                const char *res_success, const char *res_fail,
1278:SynaptiX_FDK/components/modules/a76xx/a7677s.c ****                                modem_command_response_callback_t cb,
1279:SynaptiX_FDK/components/modules/a76xx/a7677s.c ****                                uint32_t timeout_ms)
1280:SynaptiX_FDK/components/modules/a76xx/a7677s.c **** {
1281:SynaptiX_FDK/components/modules/a76xx/a7677s.c ****     command[CMD_DYNAMIC].cmd         = cmd_str;
1282:SynaptiX_FDK/components/modules/a76xx/a7677s.c ****     command[CMD_DYNAMIC].res_success = res_success;
1283:SynaptiX_FDK/components/modules/a76xx/a7677s.c ****     command[CMD_DYNAMIC].res_fail    = res_fail;
1284:SynaptiX_FDK/components/modules/a76xx/a7677s.c ****     command[CMD_DYNAMIC].callback    = cb;
1285:SynaptiX_FDK/components/modules/a76xx/a7677s.c ****     command[CMD_DYNAMIC].arg         = dce;
1286:SynaptiX_FDK/components/modules/a76xx/a7677s.c ****     dce->mqtt_cmd_pending = 1;
1287:SynaptiX_FDK/components/modules/a76xx/a7677s.c ****     log_debug(TAG, "MQTT CMD: %s", cmd_str);
1288:SynaptiX_FDK/components/modules/a76xx/a7677s.c ****     modem_send_command(pModem(dce), &command[CMD_DYNAMIC], timeout_ms);
1289:SynaptiX_FDK/components/modules/a76xx/a7677s.c **** }
1290:SynaptiX_FDK/components/modules/a76xx/a7677s.c **** 
1291:SynaptiX_FDK/components/modules/a76xx/a7677s.c **** /* ------------------------------------------------------------------ */
1292:SynaptiX_FDK/components/modules/a76xx/a7677s.c **** /*  MQTT — connect sequence                                             */
1293:SynaptiX_FDK/components/modules/a76xx/a7677s.c **** /* ------------------------------------------------------------------ */
1294:SynaptiX_FDK/components/modules/a76xx/a7677s.c **** /* START -> ACCQ -> CONNECT -> CONNECTED
1295:SynaptiX_FDK/components/modules/a76xx/a7677s.c ****  *
1296:SynaptiX_FDK/components/modules/a76xx/a7677s.c ****  * Key design: several MQTT commands return "OK" first, then a separate URC
1297:SynaptiX_FDK/components/modules/a76xx/a7677s.c ****  * line carries the real errcode (e.g. "+CMQTTSTART:0").  We set res_success
1298:SynaptiX_FDK/components/modules/a76xx/a7677s.c ****  * to the full URC with errcode=0 so the callback only fires on genuine
1299:SynaptiX_FDK/components/modules/a76xx/a7677s.c ****  * success.  modem_command checks res_success before res_fail, so ":0\r\n"
1300:SynaptiX_FDK/components/modules/a76xx/a7677s.c ****  * is caught as success and any other "+CMQTTSTART:N" is caught by res_fail
1301:SynaptiX_FDK/components/modules/a76xx/a7677s.c ****  * (which is a substring match on "ERROR\r\n" — the modem always sends
1302:SynaptiX_FDK/components/modules/a76xx/a7677s.c ****  * "ERROR\r\n" on hard failures; for URC errcode failures we rely on timeout
1303:SynaptiX_FDK/components/modules/a76xx/a7677s.c ****  * since the modem sends OK + bad URC without an ERROR line, so the AT layer
1304:SynaptiX_FDK/components/modules/a76xx/a7677s.c ****  * will eventually time out and fire the callback with TIMEOUT). */
1305:SynaptiX_FDK/components/modules/a76xx/a7677s.c **** 
1306:SynaptiX_FDK/components/modules/a76xx/a7677s.c **** static void cb_mqtt_start(modem_t *modem, const char *response,
1307:SynaptiX_FDK/components/modules/a76xx/a7677s.c ****                            modem_response_st_t res, void *arg)
1308:SynaptiX_FDK/components/modules/a76xx/a7677s.c **** {
1309:SynaptiX_FDK/components/modules/a76xx/a7677s.c ****     a7677s_t *dce = pDCE(arg);
1310:SynaptiX_FDK/components/modules/a76xx/a7677s.c ****     dce->mqtt_cmd_pending = 0;
1311:SynaptiX_FDK/components/modules/a76xx/a7677s.c **** 
1312:SynaptiX_FDK/components/modules/a76xx/a7677s.c ****     if (res != MODEM_RESPONSE_SUCCESS) {
1313:SynaptiX_FDK/components/modules/a76xx/a7677s.c ****         log_error(TAG, "AT+CMQTTSTART failed (res=%d)", res);
1314:SynaptiX_FDK/components/modules/a76xx/a7677s.c ****         dce->mqtt_state = A7677S_MQTT_IDLE;
1315:SynaptiX_FDK/components/modules/a76xx/a7677s.c ****         mqtt_op_done(dce, (res == MODEM_RESPONSE_TIMEOUT) ? MODEM_OPS_TIMEOUT : MODEM_OPS_ERROR);
1316:SynaptiX_FDK/components/modules/a76xx/a7677s.c ****         return;
1317:SynaptiX_FDK/components/modules/a76xx/a7677s.c ****     }
1318:SynaptiX_FDK/components/modules/a76xx/a7677s.c **** 
1319:SynaptiX_FDK/components/modules/a76xx/a7677s.c ****     /* TLS: run the cert-upload/SSL-config block before ACCQ. Plain TCP
1320:SynaptiX_FDK/components/modules/a76xx/a7677s.c ****      * skips straight to ACCQ, unchanged from before this TLS support was
ARM GAS  C:\Users\DELL\AppData\Local\Temp\ccL84Lpd.s 			page 34


1321:SynaptiX_FDK/components/modules/a76xx/a7677s.c ****      * added. */
1322:SynaptiX_FDK/components/modules/a76xx/a7677s.c ****     if (dce->mqtt_use_ssl) {
1323:SynaptiX_FDK/components/modules/a76xx/a7677s.c ****         begin_ssl_cert_block(dce);
1324:SynaptiX_FDK/components/modules/a76xx/a7677s.c ****     } else {
1325:SynaptiX_FDK/components/modules/a76xx/a7677s.c ****         advance_to_accq(dce);
1326:SynaptiX_FDK/components/modules/a76xx/a7677s.c ****     }
1327:SynaptiX_FDK/components/modules/a76xx/a7677s.c **** }
1328:SynaptiX_FDK/components/modules/a76xx/a7677s.c **** 
1329:SynaptiX_FDK/components/modules/a76xx/a7677s.c **** /* Shared tail of the connect sequence: AT+CMQTTACCQ then AT+CMQTTCONNECT.
1330:SynaptiX_FDK/components/modules/a76xx/a7677s.c ****  * Reached either directly (use_ssl=0) or after the TLS cert/SSLCFG block
1331:SynaptiX_FDK/components/modules/a76xx/a7677s.c ****  * completes (use_ssl=1, right after cb_mqtt_sslbind() succeeds). */
1332:SynaptiX_FDK/components/modules/a76xx/a7677s.c **** static void advance_to_accq(a7677s_t *dce)
1333:SynaptiX_FDK/components/modules/a76xx/a7677s.c **** {
1334:SynaptiX_FDK/components/modules/a76xx/a7677s.c ****     dce->mqtt_state = A7677S_MQTT_ACCQ;
1335:SynaptiX_FDK/components/modules/a76xx/a7677s.c ****     snprintf(s_mqtt_dyn_cmd_buf, sizeof(s_mqtt_dyn_cmd_buf),
1336:SynaptiX_FDK/components/modules/a76xx/a7677s.c ****              "AT+CMQTTACCQ=%u,\"%s\",%u\r\n",
1337:SynaptiX_FDK/components/modules/a76xx/a7677s.c ****              A7677S_MQTT_CLIENT_INDEX, dce->mqtt_client_id, (unsigned)dce->mqtt_use_ssl);
1338:SynaptiX_FDK/components/modules/a76xx/a7677s.c ****     send_mqtt_dynamic(dce, s_mqtt_dyn_cmd_buf, "\r\nOK\r\n", "\r\nERROR\r\n",
1339:SynaptiX_FDK/components/modules/a76xx/a7677s.c ****                       cb_mqtt_accq, A7677S_TIMEOUT_AT);
1340:SynaptiX_FDK/components/modules/a76xx/a7677s.c **** }
1341:SynaptiX_FDK/components/modules/a76xx/a7677s.c **** 
1342:SynaptiX_FDK/components/modules/a76xx/a7677s.c **** /* ------------------------------------------------------------------ */
1343:SynaptiX_FDK/components/modules/a76xx/a7677s.c **** /*  MQTT — TLS cert-upload block (use_ssl=1 only)                       */
1344:SynaptiX_FDK/components/modules/a76xx/a7677s.c **** /* ------------------------------------------------------------------ */
1345:SynaptiX_FDK/components/modules/a76xx/a7677s.c **** /* Sequence, each pair skipped entirely if the corresponding cert was not
1346:SynaptiX_FDK/components/modules/a76xx/a7677s.c ****  * supplied to a7677s_mqtt_connect():
1347:SynaptiX_FDK/components/modules/a76xx/a7677s.c ****  *   [CERT_CA_PROMPT -> CERT_CA_DATA]
1348:SynaptiX_FDK/components/modules/a76xx/a7677s.c ****  *   [CERT_CLIENT_PROMPT -> CERT_CLIENT_DATA]
1349:SynaptiX_FDK/components/modules/a76xx/a7677s.c ****  *   [CERT_KEY_PROMPT -> CERT_KEY_DATA]
1350:SynaptiX_FDK/components/modules/a76xx/a7677s.c ****  *   -> begin_sslcfg_block()
1351:SynaptiX_FDK/components/modules/a76xx/a7677s.c ****  * AT+CCERTDOWN="<filename>",<len> waits for ">" then the raw PEM bytes are
1352:SynaptiX_FDK/components/modules/a76xx/a7677s.c ****  * sent as a second AT-layer write, waiting for OK. Per a76xx_at_cmd.md
1353:SynaptiX_FDK/components/modules/a76xx/a7677s.c ****  * 19.2.2, MaxResponseTime is 120000 ms, hence A7677S_TIMEOUT_CERT_CMD. */
1354:SynaptiX_FDK/components/modules/a76xx/a7677s.c **** 
1355:SynaptiX_FDK/components/modules/a76xx/a7677s.c **** static void begin_ssl_cert_block(a7677s_t *dce)
1356:SynaptiX_FDK/components/modules/a76xx/a7677s.c **** {
1357:SynaptiX_FDK/components/modules/a76xx/a7677s.c ****     if (dce->mqtt_cert_has_ca) {
1358:SynaptiX_FDK/components/modules/a76xx/a7677s.c ****         dce->mqtt_state = A7677S_MQTT_CERT_CA_PROMPT;
1359:SynaptiX_FDK/components/modules/a76xx/a7677s.c ****         snprintf(s_mqtt_dyn_cmd_buf, sizeof(s_mqtt_dyn_cmd_buf),
1360:SynaptiX_FDK/components/modules/a76xx/a7677s.c ****                  "AT+CCERTDOWN=\"%s\",%u\r\n",
1361:SynaptiX_FDK/components/modules/a76xx/a7677s.c ****                  A7677S_CERT_FILENAME_CA, (unsigned)dce->mqtt_cert_ca_len);
1362:SynaptiX_FDK/components/modules/a76xx/a7677s.c ****         send_mqtt_dynamic(dce, s_mqtt_dyn_cmd_buf, ">", "\r\nERROR\r\n",
1363:SynaptiX_FDK/components/modules/a76xx/a7677s.c ****                           cb_mqtt_cert_ca_prompt, A7677S_TIMEOUT_CERT_CMD);
1364:SynaptiX_FDK/components/modules/a76xx/a7677s.c ****         return;
1365:SynaptiX_FDK/components/modules/a76xx/a7677s.c ****     }
1366:SynaptiX_FDK/components/modules/a76xx/a7677s.c ****     if (dce->mqtt_cert_has_client) {
1367:SynaptiX_FDK/components/modules/a76xx/a7677s.c ****         dce->mqtt_state = A7677S_MQTT_CERT_CLIENT_PROMPT;
1368:SynaptiX_FDK/components/modules/a76xx/a7677s.c ****         snprintf(s_mqtt_dyn_cmd_buf, sizeof(s_mqtt_dyn_cmd_buf),
1369:SynaptiX_FDK/components/modules/a76xx/a7677s.c ****                  "AT+CCERTDOWN=\"%s\",%u\r\n",
1370:SynaptiX_FDK/components/modules/a76xx/a7677s.c ****                  A7677S_CERT_FILENAME_CLIENT, (unsigned)dce->mqtt_cert_client_len);
1371:SynaptiX_FDK/components/modules/a76xx/a7677s.c ****         send_mqtt_dynamic(dce, s_mqtt_dyn_cmd_buf, ">", "\r\nERROR\r\n",
1372:SynaptiX_FDK/components/modules/a76xx/a7677s.c ****                           cb_mqtt_cert_client_prompt, A7677S_TIMEOUT_CERT_CMD);
1373:SynaptiX_FDK/components/modules/a76xx/a7677s.c ****         return;
1374:SynaptiX_FDK/components/modules/a76xx/a7677s.c ****     }
1375:SynaptiX_FDK/components/modules/a76xx/a7677s.c ****     if (dce->mqtt_cert_has_key) {
1376:SynaptiX_FDK/components/modules/a76xx/a7677s.c ****         dce->mqtt_state = A7677S_MQTT_CERT_KEY_PROMPT;
1377:SynaptiX_FDK/components/modules/a76xx/a7677s.c ****         snprintf(s_mqtt_dyn_cmd_buf, sizeof(s_mqtt_dyn_cmd_buf),
ARM GAS  C:\Users\DELL\AppData\Local\Temp\ccL84Lpd.s 			page 35


1378:SynaptiX_FDK/components/modules/a76xx/a7677s.c ****                  "AT+CCERTDOWN=\"%s\",%u\r\n",
1379:SynaptiX_FDK/components/modules/a76xx/a7677s.c ****                  A7677S_CERT_FILENAME_KEY, (unsigned)dce->mqtt_cert_key_len);
1380:SynaptiX_FDK/components/modules/a76xx/a7677s.c ****         send_mqtt_dynamic(dce, s_mqtt_dyn_cmd_buf, ">", "\r\nERROR\r\n",
1381:SynaptiX_FDK/components/modules/a76xx/a7677s.c ****                           cb_mqtt_cert_key_prompt, A7677S_TIMEOUT_CERT_CMD);
1382:SynaptiX_FDK/components/modules/a76xx/a7677s.c ****         return;
1383:SynaptiX_FDK/components/modules/a76xx/a7677s.c ****     }
1384:SynaptiX_FDK/components/modules/a76xx/a7677s.c ****     /* No certs at all — still run SSLCFG (authmode=0, filenames "") so the
1385:SynaptiX_FDK/components/modules/a76xx/a7677s.c ****      * modem knows this SSL context has no client-side trust material. */
1386:SynaptiX_FDK/components/modules/a76xx/a7677s.c ****     begin_sslcfg_block(dce);
1387:SynaptiX_FDK/components/modules/a76xx/a7677s.c **** }
1388:SynaptiX_FDK/components/modules/a76xx/a7677s.c **** 
1389:SynaptiX_FDK/components/modules/a76xx/a7677s.c **** static void cb_mqtt_cert_ca_prompt(modem_t *modem, const char *response,
1390:SynaptiX_FDK/components/modules/a76xx/a7677s.c ****                                     modem_response_st_t res, void *arg)
1391:SynaptiX_FDK/components/modules/a76xx/a7677s.c **** {
1392:SynaptiX_FDK/components/modules/a76xx/a7677s.c ****     a7677s_t *dce = pDCE(arg);
1393:SynaptiX_FDK/components/modules/a76xx/a7677s.c ****     dce->mqtt_cmd_pending = 0;
1394:SynaptiX_FDK/components/modules/a76xx/a7677s.c **** 
1395:SynaptiX_FDK/components/modules/a76xx/a7677s.c ****     if (res != MODEM_RESPONSE_SUCCESS) {
1396:SynaptiX_FDK/components/modules/a76xx/a7677s.c ****         log_error(TAG, "AT+CCERTDOWN (ca) prompt failed (res=%d)", res);
1397:SynaptiX_FDK/components/modules/a76xx/a7677s.c ****         dce->mqtt_state = A7677S_MQTT_IDLE;
1398:SynaptiX_FDK/components/modules/a76xx/a7677s.c ****         mqtt_op_done(dce, MODEM_OPS_ERROR);
1399:SynaptiX_FDK/components/modules/a76xx/a7677s.c ****         return;
1400:SynaptiX_FDK/components/modules/a76xx/a7677s.c ****     }
1401:SynaptiX_FDK/components/modules/a76xx/a7677s.c **** 
1402:SynaptiX_FDK/components/modules/a76xx/a7677s.c ****     /* Pass the pointer directly — same reasoning as cb_mqtt_pub_topic()/
1403:SynaptiX_FDK/components/modules/a76xx/a7677s.c ****      * cb_mqtt_pub_payload() above: s_mqtt_dyn_cmd_buf is only 384 bytes,
1404:SynaptiX_FDK/components/modules/a76xx/a7677s.c ****      * far smaller than A7677S_CERT_PEM_MAX (10241 bytes), and copying
1405:SynaptiX_FDK/components/modules/a76xx/a7677s.c ****      * through it would silently truncate the cert while AT+CCERTDOWN has
1406:SynaptiX_FDK/components/modules/a76xx/a7677s.c ****      * already told the modem the untruncated length. */
1407:SynaptiX_FDK/components/modules/a76xx/a7677s.c ****     dce->mqtt_state = A7677S_MQTT_CERT_CA_DATA;
1408:SynaptiX_FDK/components/modules/a76xx/a7677s.c ****     send_mqtt_dynamic(dce, dce->mqtt_cert_ca, "\r\nOK\r\n", "\r\nERROR\r\n",
1409:SynaptiX_FDK/components/modules/a76xx/a7677s.c ****                       cb_mqtt_cert_ca_data, A7677S_TIMEOUT_CERT_CMD);
1410:SynaptiX_FDK/components/modules/a76xx/a7677s.c **** }
1411:SynaptiX_FDK/components/modules/a76xx/a7677s.c **** 
1412:SynaptiX_FDK/components/modules/a76xx/a7677s.c **** static void cb_mqtt_cert_ca_data(modem_t *modem, const char *response,
1413:SynaptiX_FDK/components/modules/a76xx/a7677s.c ****                                   modem_response_st_t res, void *arg)
1414:SynaptiX_FDK/components/modules/a76xx/a7677s.c **** {
1415:SynaptiX_FDK/components/modules/a76xx/a7677s.c ****     a7677s_t *dce = pDCE(arg);
1416:SynaptiX_FDK/components/modules/a76xx/a7677s.c ****     dce->mqtt_cmd_pending = 0;
1417:SynaptiX_FDK/components/modules/a76xx/a7677s.c **** 
1418:SynaptiX_FDK/components/modules/a76xx/a7677s.c ****     if (res != MODEM_RESPONSE_SUCCESS) {
1419:SynaptiX_FDK/components/modules/a76xx/a7677s.c ****         log_error(TAG, "CA cert upload failed (res=%d)", res);
1420:SynaptiX_FDK/components/modules/a76xx/a7677s.c ****         dce->mqtt_state = A7677S_MQTT_IDLE;
1421:SynaptiX_FDK/components/modules/a76xx/a7677s.c ****         mqtt_op_done(dce, MODEM_OPS_ERROR);
1422:SynaptiX_FDK/components/modules/a76xx/a7677s.c ****         return;
1423:SynaptiX_FDK/components/modules/a76xx/a7677s.c ****     }
1424:SynaptiX_FDK/components/modules/a76xx/a7677s.c **** 
1425:SynaptiX_FDK/components/modules/a76xx/a7677s.c ****     if (dce->mqtt_cert_has_client) {
1426:SynaptiX_FDK/components/modules/a76xx/a7677s.c ****         dce->mqtt_state = A7677S_MQTT_CERT_CLIENT_PROMPT;
1427:SynaptiX_FDK/components/modules/a76xx/a7677s.c ****         snprintf(s_mqtt_dyn_cmd_buf, sizeof(s_mqtt_dyn_cmd_buf),
1428:SynaptiX_FDK/components/modules/a76xx/a7677s.c ****                  "AT+CCERTDOWN=\"%s\",%u\r\n",
1429:SynaptiX_FDK/components/modules/a76xx/a7677s.c ****                  A7677S_CERT_FILENAME_CLIENT, (unsigned)dce->mqtt_cert_client_len);
1430:SynaptiX_FDK/components/modules/a76xx/a7677s.c ****         send_mqtt_dynamic(dce, s_mqtt_dyn_cmd_buf, ">", "\r\nERROR\r\n",
1431:SynaptiX_FDK/components/modules/a76xx/a7677s.c ****                           cb_mqtt_cert_client_prompt, A7677S_TIMEOUT_CERT_CMD);
1432:SynaptiX_FDK/components/modules/a76xx/a7677s.c ****         return;
1433:SynaptiX_FDK/components/modules/a76xx/a7677s.c ****     }
1434:SynaptiX_FDK/components/modules/a76xx/a7677s.c ****     if (dce->mqtt_cert_has_key) {
ARM GAS  C:\Users\DELL\AppData\Local\Temp\ccL84Lpd.s 			page 36


1435:SynaptiX_FDK/components/modules/a76xx/a7677s.c ****         dce->mqtt_state = A7677S_MQTT_CERT_KEY_PROMPT;
1436:SynaptiX_FDK/components/modules/a76xx/a7677s.c ****         snprintf(s_mqtt_dyn_cmd_buf, sizeof(s_mqtt_dyn_cmd_buf),
1437:SynaptiX_FDK/components/modules/a76xx/a7677s.c ****                  "AT+CCERTDOWN=\"%s\",%u\r\n",
1438:SynaptiX_FDK/components/modules/a76xx/a7677s.c ****                  A7677S_CERT_FILENAME_KEY, (unsigned)dce->mqtt_cert_key_len);
1439:SynaptiX_FDK/components/modules/a76xx/a7677s.c ****         send_mqtt_dynamic(dce, s_mqtt_dyn_cmd_buf, ">", "\r\nERROR\r\n",
1440:SynaptiX_FDK/components/modules/a76xx/a7677s.c ****                           cb_mqtt_cert_key_prompt, A7677S_TIMEOUT_CERT_CMD);
1441:SynaptiX_FDK/components/modules/a76xx/a7677s.c ****         return;
1442:SynaptiX_FDK/components/modules/a76xx/a7677s.c ****     }
1443:SynaptiX_FDK/components/modules/a76xx/a7677s.c ****     begin_sslcfg_block(dce);
1444:SynaptiX_FDK/components/modules/a76xx/a7677s.c **** }
1445:SynaptiX_FDK/components/modules/a76xx/a7677s.c **** 
1446:SynaptiX_FDK/components/modules/a76xx/a7677s.c **** static void cb_mqtt_cert_client_prompt(modem_t *modem, const char *response,
1447:SynaptiX_FDK/components/modules/a76xx/a7677s.c ****                                         modem_response_st_t res, void *arg)
1448:SynaptiX_FDK/components/modules/a76xx/a7677s.c **** {
1449:SynaptiX_FDK/components/modules/a76xx/a7677s.c ****     a7677s_t *dce = pDCE(arg);
1450:SynaptiX_FDK/components/modules/a76xx/a7677s.c ****     dce->mqtt_cmd_pending = 0;
1451:SynaptiX_FDK/components/modules/a76xx/a7677s.c **** 
1452:SynaptiX_FDK/components/modules/a76xx/a7677s.c ****     if (res != MODEM_RESPONSE_SUCCESS) {
1453:SynaptiX_FDK/components/modules/a76xx/a7677s.c ****         log_error(TAG, "AT+CCERTDOWN (client) prompt failed (res=%d)", res);
1454:SynaptiX_FDK/components/modules/a76xx/a7677s.c ****         dce->mqtt_state = A7677S_MQTT_IDLE;
1455:SynaptiX_FDK/components/modules/a76xx/a7677s.c ****         mqtt_op_done(dce, MODEM_OPS_ERROR);
1456:SynaptiX_FDK/components/modules/a76xx/a7677s.c ****         return;
1457:SynaptiX_FDK/components/modules/a76xx/a7677s.c ****     }
1458:SynaptiX_FDK/components/modules/a76xx/a7677s.c **** 
1459:SynaptiX_FDK/components/modules/a76xx/a7677s.c ****     dce->mqtt_state = A7677S_MQTT_CERT_CLIENT_DATA;
1460:SynaptiX_FDK/components/modules/a76xx/a7677s.c ****     send_mqtt_dynamic(dce, dce->mqtt_cert_client, "\r\nOK\r\n", "\r\nERROR\r\n",
1461:SynaptiX_FDK/components/modules/a76xx/a7677s.c ****                       cb_mqtt_cert_client_data, A7677S_TIMEOUT_CERT_CMD);
1462:SynaptiX_FDK/components/modules/a76xx/a7677s.c **** }
1463:SynaptiX_FDK/components/modules/a76xx/a7677s.c **** 
1464:SynaptiX_FDK/components/modules/a76xx/a7677s.c **** static void cb_mqtt_cert_client_data(modem_t *modem, const char *response,
1465:SynaptiX_FDK/components/modules/a76xx/a7677s.c ****                                       modem_response_st_t res, void *arg)
1466:SynaptiX_FDK/components/modules/a76xx/a7677s.c **** {
1467:SynaptiX_FDK/components/modules/a76xx/a7677s.c ****     a7677s_t *dce = pDCE(arg);
1468:SynaptiX_FDK/components/modules/a76xx/a7677s.c ****     dce->mqtt_cmd_pending = 0;
1469:SynaptiX_FDK/components/modules/a76xx/a7677s.c **** 
1470:SynaptiX_FDK/components/modules/a76xx/a7677s.c ****     if (res != MODEM_RESPONSE_SUCCESS) {
1471:SynaptiX_FDK/components/modules/a76xx/a7677s.c ****         log_error(TAG, "client cert upload failed (res=%d)", res);
1472:SynaptiX_FDK/components/modules/a76xx/a7677s.c ****         dce->mqtt_state = A7677S_MQTT_IDLE;
1473:SynaptiX_FDK/components/modules/a76xx/a7677s.c ****         mqtt_op_done(dce, MODEM_OPS_ERROR);
1474:SynaptiX_FDK/components/modules/a76xx/a7677s.c ****         return;
1475:SynaptiX_FDK/components/modules/a76xx/a7677s.c ****     }
1476:SynaptiX_FDK/components/modules/a76xx/a7677s.c **** 
1477:SynaptiX_FDK/components/modules/a76xx/a7677s.c ****     if (dce->mqtt_cert_has_key) {
1478:SynaptiX_FDK/components/modules/a76xx/a7677s.c ****         dce->mqtt_state = A7677S_MQTT_CERT_KEY_PROMPT;
1479:SynaptiX_FDK/components/modules/a76xx/a7677s.c ****         snprintf(s_mqtt_dyn_cmd_buf, sizeof(s_mqtt_dyn_cmd_buf),
1480:SynaptiX_FDK/components/modules/a76xx/a7677s.c ****                  "AT+CCERTDOWN=\"%s\",%u\r\n",
1481:SynaptiX_FDK/components/modules/a76xx/a7677s.c ****                  A7677S_CERT_FILENAME_KEY, (unsigned)dce->mqtt_cert_key_len);
1482:SynaptiX_FDK/components/modules/a76xx/a7677s.c ****         send_mqtt_dynamic(dce, s_mqtt_dyn_cmd_buf, ">", "\r\nERROR\r\n",
1483:SynaptiX_FDK/components/modules/a76xx/a7677s.c ****                           cb_mqtt_cert_key_prompt, A7677S_TIMEOUT_CERT_CMD);
1484:SynaptiX_FDK/components/modules/a76xx/a7677s.c ****         return;
1485:SynaptiX_FDK/components/modules/a76xx/a7677s.c ****     }
1486:SynaptiX_FDK/components/modules/a76xx/a7677s.c ****     begin_sslcfg_block(dce);
1487:SynaptiX_FDK/components/modules/a76xx/a7677s.c **** }
1488:SynaptiX_FDK/components/modules/a76xx/a7677s.c **** 
1489:SynaptiX_FDK/components/modules/a76xx/a7677s.c **** static void cb_mqtt_cert_key_prompt(modem_t *modem, const char *response,
1490:SynaptiX_FDK/components/modules/a76xx/a7677s.c ****                                      modem_response_st_t res, void *arg)
1491:SynaptiX_FDK/components/modules/a76xx/a7677s.c **** {
ARM GAS  C:\Users\DELL\AppData\Local\Temp\ccL84Lpd.s 			page 37


1492:SynaptiX_FDK/components/modules/a76xx/a7677s.c ****     a7677s_t *dce = pDCE(arg);
1493:SynaptiX_FDK/components/modules/a76xx/a7677s.c ****     dce->mqtt_cmd_pending = 0;
1494:SynaptiX_FDK/components/modules/a76xx/a7677s.c **** 
1495:SynaptiX_FDK/components/modules/a76xx/a7677s.c ****     if (res != MODEM_RESPONSE_SUCCESS) {
1496:SynaptiX_FDK/components/modules/a76xx/a7677s.c ****         log_error(TAG, "AT+CCERTDOWN (key) prompt failed (res=%d)", res);
1497:SynaptiX_FDK/components/modules/a76xx/a7677s.c ****         dce->mqtt_state = A7677S_MQTT_IDLE;
1498:SynaptiX_FDK/components/modules/a76xx/a7677s.c ****         mqtt_op_done(dce, MODEM_OPS_ERROR);
1499:SynaptiX_FDK/components/modules/a76xx/a7677s.c ****         return;
1500:SynaptiX_FDK/components/modules/a76xx/a7677s.c ****     }
1501:SynaptiX_FDK/components/modules/a76xx/a7677s.c **** 
1502:SynaptiX_FDK/components/modules/a76xx/a7677s.c ****     dce->mqtt_state = A7677S_MQTT_CERT_KEY_DATA;
1503:SynaptiX_FDK/components/modules/a76xx/a7677s.c ****     send_mqtt_dynamic(dce, dce->mqtt_cert_key, "\r\nOK\r\n", "\r\nERROR\r\n",
1504:SynaptiX_FDK/components/modules/a76xx/a7677s.c ****                       cb_mqtt_cert_key_data, A7677S_TIMEOUT_CERT_CMD);
1505:SynaptiX_FDK/components/modules/a76xx/a7677s.c **** }
1506:SynaptiX_FDK/components/modules/a76xx/a7677s.c **** 
1507:SynaptiX_FDK/components/modules/a76xx/a7677s.c **** static void cb_mqtt_cert_key_data(modem_t *modem, const char *response,
1508:SynaptiX_FDK/components/modules/a76xx/a7677s.c ****                                    modem_response_st_t res, void *arg)
1509:SynaptiX_FDK/components/modules/a76xx/a7677s.c **** {
1510:SynaptiX_FDK/components/modules/a76xx/a7677s.c ****     a7677s_t *dce = pDCE(arg);
1511:SynaptiX_FDK/components/modules/a76xx/a7677s.c ****     dce->mqtt_cmd_pending = 0;
1512:SynaptiX_FDK/components/modules/a76xx/a7677s.c **** 
1513:SynaptiX_FDK/components/modules/a76xx/a7677s.c ****     if (res != MODEM_RESPONSE_SUCCESS) {
1514:SynaptiX_FDK/components/modules/a76xx/a7677s.c ****         log_error(TAG, "client key upload failed (res=%d)", res);
1515:SynaptiX_FDK/components/modules/a76xx/a7677s.c ****         dce->mqtt_state = A7677S_MQTT_IDLE;
1516:SynaptiX_FDK/components/modules/a76xx/a7677s.c ****         mqtt_op_done(dce, MODEM_OPS_ERROR);
1517:SynaptiX_FDK/components/modules/a76xx/a7677s.c ****         return;
1518:SynaptiX_FDK/components/modules/a76xx/a7677s.c ****     }
1519:SynaptiX_FDK/components/modules/a76xx/a7677s.c **** 
1520:SynaptiX_FDK/components/modules/a76xx/a7677s.c ****     /* Key is always last in the block regardless of which certs were
1521:SynaptiX_FDK/components/modules/a76xx/a7677s.c ****      * present, so the next step is always SSLCFG. */
1522:SynaptiX_FDK/components/modules/a76xx/a7677s.c ****     begin_sslcfg_block(dce);
1523:SynaptiX_FDK/components/modules/a76xx/a7677s.c **** }
1524:SynaptiX_FDK/components/modules/a76xx/a7677s.c **** 
1525:SynaptiX_FDK/components/modules/a76xx/a7677s.c **** /* ------------------------------------------------------------------ */
1526:SynaptiX_FDK/components/modules/a76xx/a7677s.c **** /*  MQTT — TLS SSL-config block (use_ssl=1 only)                        */
1527:SynaptiX_FDK/components/modules/a76xx/a7677s.c **** /* ------------------------------------------------------------------ */
1528:SynaptiX_FDK/components/modules/a76xx/a7677s.c **** /* Always runs when use_ssl=1, even with zero certs uploaded (that case
1529:SynaptiX_FDK/components/modules/a76xx/a7677s.c ****  * still needs AT+CSSLCFG="authmode",0,0 and empty filenames so the modem
1530:SynaptiX_FDK/components/modules/a76xx/a7677s.c ****  * does not try to use stale cert files from a previous session).
1531:SynaptiX_FDK/components/modules/a76xx/a7677s.c ****  * Sequence: SSLCFG_CACERT -> SSLCFG_CLIENTCERT -> SSLCFG_CLIENTKEY ->
1532:SynaptiX_FDK/components/modules/a76xx/a7677s.c ****  * SSLCFG_AUTHMODE -> SSLBIND -> advance_to_accq(). */
1533:SynaptiX_FDK/components/modules/a76xx/a7677s.c **** 
1534:SynaptiX_FDK/components/modules/a76xx/a7677s.c **** static void begin_sslcfg_block(a7677s_t *dce)
1535:SynaptiX_FDK/components/modules/a76xx/a7677s.c **** {
1536:SynaptiX_FDK/components/modules/a76xx/a7677s.c ****     dce->mqtt_state = A7677S_MQTT_SSLCFG_CACERT;
1537:SynaptiX_FDK/components/modules/a76xx/a7677s.c ****     snprintf(s_mqtt_dyn_cmd_buf, sizeof(s_mqtt_dyn_cmd_buf),
1538:SynaptiX_FDK/components/modules/a76xx/a7677s.c ****              "AT+CSSLCFG=\"cacert\",%u,\"%s\"\r\n",
1539:SynaptiX_FDK/components/modules/a76xx/a7677s.c ****              A7677S_SSL_CTX_INDEX,
1540:SynaptiX_FDK/components/modules/a76xx/a7677s.c ****              dce->mqtt_cert_has_ca ? A7677S_CERT_FILENAME_CA : "");
1541:SynaptiX_FDK/components/modules/a76xx/a7677s.c ****     send_mqtt_dynamic(dce, s_mqtt_dyn_cmd_buf, "\r\nOK\r\n", "\r\nERROR\r\n",
1542:SynaptiX_FDK/components/modules/a76xx/a7677s.c ****                       cb_mqtt_sslcfg_cacert, A7677S_TIMEOUT_CERT_CMD);
1543:SynaptiX_FDK/components/modules/a76xx/a7677s.c **** }
1544:SynaptiX_FDK/components/modules/a76xx/a7677s.c **** 
1545:SynaptiX_FDK/components/modules/a76xx/a7677s.c **** static void cb_mqtt_sslcfg_cacert(modem_t *modem, const char *response,
1546:SynaptiX_FDK/components/modules/a76xx/a7677s.c ****                                    modem_response_st_t res, void *arg)
1547:SynaptiX_FDK/components/modules/a76xx/a7677s.c **** {
1548:SynaptiX_FDK/components/modules/a76xx/a7677s.c ****     a7677s_t *dce = pDCE(arg);
ARM GAS  C:\Users\DELL\AppData\Local\Temp\ccL84Lpd.s 			page 38


1549:SynaptiX_FDK/components/modules/a76xx/a7677s.c ****     dce->mqtt_cmd_pending = 0;
1550:SynaptiX_FDK/components/modules/a76xx/a7677s.c **** 
1551:SynaptiX_FDK/components/modules/a76xx/a7677s.c ****     if (res != MODEM_RESPONSE_SUCCESS) {
1552:SynaptiX_FDK/components/modules/a76xx/a7677s.c ****         log_error(TAG, "AT+CSSLCFG cacert failed (res=%d)", res);
1553:SynaptiX_FDK/components/modules/a76xx/a7677s.c ****         dce->mqtt_state = A7677S_MQTT_IDLE;
1554:SynaptiX_FDK/components/modules/a76xx/a7677s.c ****         mqtt_op_done(dce, MODEM_OPS_ERROR);
1555:SynaptiX_FDK/components/modules/a76xx/a7677s.c ****         return;
1556:SynaptiX_FDK/components/modules/a76xx/a7677s.c ****     }
1557:SynaptiX_FDK/components/modules/a76xx/a7677s.c **** 
1558:SynaptiX_FDK/components/modules/a76xx/a7677s.c ****     dce->mqtt_state = A7677S_MQTT_SSLCFG_CLIENTCERT;
1559:SynaptiX_FDK/components/modules/a76xx/a7677s.c ****     snprintf(s_mqtt_dyn_cmd_buf, sizeof(s_mqtt_dyn_cmd_buf),
1560:SynaptiX_FDK/components/modules/a76xx/a7677s.c ****              "AT+CSSLCFG=\"clientcert\",%u,\"%s\"\r\n",
1561:SynaptiX_FDK/components/modules/a76xx/a7677s.c ****              A7677S_SSL_CTX_INDEX,
1562:SynaptiX_FDK/components/modules/a76xx/a7677s.c ****              dce->mqtt_cert_has_client ? A7677S_CERT_FILENAME_CLIENT : "");
1563:SynaptiX_FDK/components/modules/a76xx/a7677s.c ****     send_mqtt_dynamic(dce, s_mqtt_dyn_cmd_buf, "\r\nOK\r\n", "\r\nERROR\r\n",
1564:SynaptiX_FDK/components/modules/a76xx/a7677s.c ****                       cb_mqtt_sslcfg_clientcert, A7677S_TIMEOUT_CERT_CMD);
1565:SynaptiX_FDK/components/modules/a76xx/a7677s.c **** }
1566:SynaptiX_FDK/components/modules/a76xx/a7677s.c **** 
1567:SynaptiX_FDK/components/modules/a76xx/a7677s.c **** static void cb_mqtt_sslcfg_clientcert(modem_t *modem, const char *response,
1568:SynaptiX_FDK/components/modules/a76xx/a7677s.c ****                                        modem_response_st_t res, void *arg)
1569:SynaptiX_FDK/components/modules/a76xx/a7677s.c **** {
1570:SynaptiX_FDK/components/modules/a76xx/a7677s.c ****     a7677s_t *dce = pDCE(arg);
1571:SynaptiX_FDK/components/modules/a76xx/a7677s.c ****     dce->mqtt_cmd_pending = 0;
1572:SynaptiX_FDK/components/modules/a76xx/a7677s.c **** 
1573:SynaptiX_FDK/components/modules/a76xx/a7677s.c ****     if (res != MODEM_RESPONSE_SUCCESS) {
1574:SynaptiX_FDK/components/modules/a76xx/a7677s.c ****         log_error(TAG, "AT+CSSLCFG clientcert failed (res=%d)", res);
1575:SynaptiX_FDK/components/modules/a76xx/a7677s.c ****         dce->mqtt_state = A7677S_MQTT_IDLE;
1576:SynaptiX_FDK/components/modules/a76xx/a7677s.c ****         mqtt_op_done(dce, MODEM_OPS_ERROR);
1577:SynaptiX_FDK/components/modules/a76xx/a7677s.c ****         return;
1578:SynaptiX_FDK/components/modules/a76xx/a7677s.c ****     }
1579:SynaptiX_FDK/components/modules/a76xx/a7677s.c **** 
1580:SynaptiX_FDK/components/modules/a76xx/a7677s.c ****     dce->mqtt_state = A7677S_MQTT_SSLCFG_CLIENTKEY;
1581:SynaptiX_FDK/components/modules/a76xx/a7677s.c ****     snprintf(s_mqtt_dyn_cmd_buf, sizeof(s_mqtt_dyn_cmd_buf),
1582:SynaptiX_FDK/components/modules/a76xx/a7677s.c ****              "AT+CSSLCFG=\"clientkey\",%u,\"%s\"\r\n",
1583:SynaptiX_FDK/components/modules/a76xx/a7677s.c ****              A7677S_SSL_CTX_INDEX,
1584:SynaptiX_FDK/components/modules/a76xx/a7677s.c ****              dce->mqtt_cert_has_key ? A7677S_CERT_FILENAME_KEY : "");
1585:SynaptiX_FDK/components/modules/a76xx/a7677s.c ****     send_mqtt_dynamic(dce, s_mqtt_dyn_cmd_buf, "\r\nOK\r\n", "\r\nERROR\r\n",
1586:SynaptiX_FDK/components/modules/a76xx/a7677s.c ****                       cb_mqtt_sslcfg_clientkey, A7677S_TIMEOUT_CERT_CMD);
1587:SynaptiX_FDK/components/modules/a76xx/a7677s.c **** }
1588:SynaptiX_FDK/components/modules/a76xx/a7677s.c **** 
1589:SynaptiX_FDK/components/modules/a76xx/a7677s.c **** static void cb_mqtt_sslcfg_clientkey(modem_t *modem, const char *response,
1590:SynaptiX_FDK/components/modules/a76xx/a7677s.c ****                                       modem_response_st_t res, void *arg)
1591:SynaptiX_FDK/components/modules/a76xx/a7677s.c **** {
1592:SynaptiX_FDK/components/modules/a76xx/a7677s.c ****     a7677s_t *dce = pDCE(arg);
1593:SynaptiX_FDK/components/modules/a76xx/a7677s.c ****     dce->mqtt_cmd_pending = 0;
1594:SynaptiX_FDK/components/modules/a76xx/a7677s.c **** 
1595:SynaptiX_FDK/components/modules/a76xx/a7677s.c ****     if (res != MODEM_RESPONSE_SUCCESS) {
1596:SynaptiX_FDK/components/modules/a76xx/a7677s.c ****         log_error(TAG, "AT+CSSLCFG clientkey failed (res=%d)", res);
1597:SynaptiX_FDK/components/modules/a76xx/a7677s.c ****         dce->mqtt_state = A7677S_MQTT_IDLE;
1598:SynaptiX_FDK/components/modules/a76xx/a7677s.c ****         mqtt_op_done(dce, MODEM_OPS_ERROR);
1599:SynaptiX_FDK/components/modules/a76xx/a7677s.c ****         return;
1600:SynaptiX_FDK/components/modules/a76xx/a7677s.c ****     }
1601:SynaptiX_FDK/components/modules/a76xx/a7677s.c **** 
1602:SynaptiX_FDK/components/modules/a76xx/a7677s.c ****     dce->mqtt_state = A7677S_MQTT_SSLCFG_AUTHMODE;
1603:SynaptiX_FDK/components/modules/a76xx/a7677s.c ****     snprintf(s_mqtt_dyn_cmd_buf, sizeof(s_mqtt_dyn_cmd_buf),
1604:SynaptiX_FDK/components/modules/a76xx/a7677s.c ****              "AT+CSSLCFG=\"authmode\",%u,%u\r\n",
1605:SynaptiX_FDK/components/modules/a76xx/a7677s.c ****              A7677S_SSL_CTX_INDEX, (unsigned)dce->mqtt_ssl_authmode);
ARM GAS  C:\Users\DELL\AppData\Local\Temp\ccL84Lpd.s 			page 39


1606:SynaptiX_FDK/components/modules/a76xx/a7677s.c ****     send_mqtt_dynamic(dce, s_mqtt_dyn_cmd_buf, "\r\nOK\r\n", "\r\nERROR\r\n",
1607:SynaptiX_FDK/components/modules/a76xx/a7677s.c ****                       cb_mqtt_sslcfg_authmode, A7677S_TIMEOUT_CERT_CMD);
1608:SynaptiX_FDK/components/modules/a76xx/a7677s.c **** }
1609:SynaptiX_FDK/components/modules/a76xx/a7677s.c **** 
1610:SynaptiX_FDK/components/modules/a76xx/a7677s.c **** static void cb_mqtt_sslcfg_authmode(modem_t *modem, const char *response,
1611:SynaptiX_FDK/components/modules/a76xx/a7677s.c ****                                      modem_response_st_t res, void *arg)
1612:SynaptiX_FDK/components/modules/a76xx/a7677s.c **** {
1613:SynaptiX_FDK/components/modules/a76xx/a7677s.c ****     a7677s_t *dce = pDCE(arg);
1614:SynaptiX_FDK/components/modules/a76xx/a7677s.c ****     dce->mqtt_cmd_pending = 0;
1615:SynaptiX_FDK/components/modules/a76xx/a7677s.c **** 
1616:SynaptiX_FDK/components/modules/a76xx/a7677s.c ****     if (res != MODEM_RESPONSE_SUCCESS) {
1617:SynaptiX_FDK/components/modules/a76xx/a7677s.c ****         log_error(TAG, "AT+CSSLCFG authmode failed (res=%d)", res);
1618:SynaptiX_FDK/components/modules/a76xx/a7677s.c ****         dce->mqtt_state = A7677S_MQTT_IDLE;
1619:SynaptiX_FDK/components/modules/a76xx/a7677s.c ****         mqtt_op_done(dce, MODEM_OPS_ERROR);
1620:SynaptiX_FDK/components/modules/a76xx/a7677s.c ****         return;
1621:SynaptiX_FDK/components/modules/a76xx/a7677s.c ****     }
1622:SynaptiX_FDK/components/modules/a76xx/a7677s.c **** 
1623:SynaptiX_FDK/components/modules/a76xx/a7677s.c ****     /* AT+CMQTTSSLCFG=<client_index>,<ssl_ctx_index> binds the SSL context
1624:SynaptiX_FDK/components/modules/a76xx/a7677s.c ****      * just configured above to the MQTT client we are about to ACCQ. */
1625:SynaptiX_FDK/components/modules/a76xx/a7677s.c ****     dce->mqtt_state = A7677S_MQTT_SSLBIND;
1626:SynaptiX_FDK/components/modules/a76xx/a7677s.c ****     snprintf(s_mqtt_dyn_cmd_buf, sizeof(s_mqtt_dyn_cmd_buf),
1627:SynaptiX_FDK/components/modules/a76xx/a7677s.c ****              "AT+CMQTTSSLCFG=%u,%u\r\n",
1628:SynaptiX_FDK/components/modules/a76xx/a7677s.c ****              A7677S_MQTT_CLIENT_INDEX, A7677S_SSL_CTX_INDEX);
1629:SynaptiX_FDK/components/modules/a76xx/a7677s.c ****     send_mqtt_dynamic(dce, s_mqtt_dyn_cmd_buf, "\r\nOK\r\n", "\r\nERROR\r\n",
1630:SynaptiX_FDK/components/modules/a76xx/a7677s.c ****                       cb_mqtt_sslbind, A7677S_TIMEOUT_AT);
1631:SynaptiX_FDK/components/modules/a76xx/a7677s.c **** }
1632:SynaptiX_FDK/components/modules/a76xx/a7677s.c **** 
1633:SynaptiX_FDK/components/modules/a76xx/a7677s.c **** static void cb_mqtt_sslbind(modem_t *modem, const char *response,
1634:SynaptiX_FDK/components/modules/a76xx/a7677s.c ****                              modem_response_st_t res, void *arg)
1635:SynaptiX_FDK/components/modules/a76xx/a7677s.c **** {
1636:SynaptiX_FDK/components/modules/a76xx/a7677s.c ****     a7677s_t *dce = pDCE(arg);
1637:SynaptiX_FDK/components/modules/a76xx/a7677s.c ****     dce->mqtt_cmd_pending = 0;
1638:SynaptiX_FDK/components/modules/a76xx/a7677s.c **** 
1639:SynaptiX_FDK/components/modules/a76xx/a7677s.c ****     if (res != MODEM_RESPONSE_SUCCESS) {
1640:SynaptiX_FDK/components/modules/a76xx/a7677s.c ****         log_error(TAG, "AT+CMQTTSSLCFG bind failed (res=%d)", res);
1641:SynaptiX_FDK/components/modules/a76xx/a7677s.c ****         dce->mqtt_state = A7677S_MQTT_IDLE;
1642:SynaptiX_FDK/components/modules/a76xx/a7677s.c ****         mqtt_op_done(dce, MODEM_OPS_ERROR);
1643:SynaptiX_FDK/components/modules/a76xx/a7677s.c ****         return;
1644:SynaptiX_FDK/components/modules/a76xx/a7677s.c ****     }
1645:SynaptiX_FDK/components/modules/a76xx/a7677s.c **** 
1646:SynaptiX_FDK/components/modules/a76xx/a7677s.c ****     /* SSL context is bound — continue exactly as the plain-TCP path does. */
1647:SynaptiX_FDK/components/modules/a76xx/a7677s.c ****     advance_to_accq(dce);
1648:SynaptiX_FDK/components/modules/a76xx/a7677s.c **** }
1649:SynaptiX_FDK/components/modules/a76xx/a7677s.c **** 
1650:SynaptiX_FDK/components/modules/a76xx/a7677s.c **** static void cb_mqtt_accq(modem_t *modem, const char *response,
1651:SynaptiX_FDK/components/modules/a76xx/a7677s.c ****                           modem_response_st_t res, void *arg)
1652:SynaptiX_FDK/components/modules/a76xx/a7677s.c **** {
1653:SynaptiX_FDK/components/modules/a76xx/a7677s.c ****     a7677s_t *dce = pDCE(arg);
1654:SynaptiX_FDK/components/modules/a76xx/a7677s.c ****     dce->mqtt_cmd_pending = 0;
1655:SynaptiX_FDK/components/modules/a76xx/a7677s.c **** 
1656:SynaptiX_FDK/components/modules/a76xx/a7677s.c ****     if (res != MODEM_RESPONSE_SUCCESS) {
1657:SynaptiX_FDK/components/modules/a76xx/a7677s.c ****         log_error(TAG, "AT+CMQTTACCQ failed (res=%d)", res);
1658:SynaptiX_FDK/components/modules/a76xx/a7677s.c ****         dce->mqtt_state = A7677S_MQTT_IDLE;
1659:SynaptiX_FDK/components/modules/a76xx/a7677s.c ****         mqtt_op_done(dce, MODEM_OPS_ERROR);
1660:SynaptiX_FDK/components/modules/a76xx/a7677s.c ****         return;
1661:SynaptiX_FDK/components/modules/a76xx/a7677s.c ****     }
1662:SynaptiX_FDK/components/modules/a76xx/a7677s.c **** 
ARM GAS  C:\Users\DELL\AppData\Local\Temp\ccL84Lpd.s 			page 40


1663:SynaptiX_FDK/components/modules/a76xx/a7677s.c ****     /* AT+CMQTTCFG="version",<idx>,<value> must be sent after ACCQ and
1664:SynaptiX_FDK/components/modules/a76xx/a7677s.c ****      * before CONNECT per datasheet. Fixed at MQTT 3.1.1
1665:SynaptiX_FDK/components/modules/a76xx/a7677s.c ****      * (A7677S_MQTT_PROTOCOL_VERSION); this project does not expose a way to
1666:SynaptiX_FDK/components/modules/a76xx/a7677s.c ****      * select 3.1 vs 3.1.1 per-connection since 3.1.1 is accepted by every
1667:SynaptiX_FDK/components/modules/a76xx/a7677s.c ****      * broker this project targets. */
1668:SynaptiX_FDK/components/modules/a76xx/a7677s.c ****     dce->mqtt_state = A7677S_MQTT_CFG_VERSION;
1669:SynaptiX_FDK/components/modules/a76xx/a7677s.c ****     snprintf(s_mqtt_dyn_cmd_buf, sizeof(s_mqtt_dyn_cmd_buf),
1670:SynaptiX_FDK/components/modules/a76xx/a7677s.c ****              "AT+CMQTTCFG=\"version\",%u,%u\r\n",
1671:SynaptiX_FDK/components/modules/a76xx/a7677s.c ****              A7677S_MQTT_CLIENT_INDEX, A7677S_MQTT_PROTOCOL_VERSION);
1672:SynaptiX_FDK/components/modules/a76xx/a7677s.c ****     send_mqtt_dynamic(dce, s_mqtt_dyn_cmd_buf, "\r\nOK\r\n", "\r\nERROR\r\n",
1673:SynaptiX_FDK/components/modules/a76xx/a7677s.c ****                       cb_mqtt_cfg_version, A7677S_TIMEOUT_AT);
1674:SynaptiX_FDK/components/modules/a76xx/a7677s.c **** }
1675:SynaptiX_FDK/components/modules/a76xx/a7677s.c **** 
1676:SynaptiX_FDK/components/modules/a76xx/a7677s.c **** static void cb_mqtt_cfg_version(modem_t *modem, const char *response,
1677:SynaptiX_FDK/components/modules/a76xx/a7677s.c ****                                  modem_response_st_t res, void *arg)
1678:SynaptiX_FDK/components/modules/a76xx/a7677s.c **** {
1679:SynaptiX_FDK/components/modules/a76xx/a7677s.c ****     a7677s_t *dce = pDCE(arg);
1680:SynaptiX_FDK/components/modules/a76xx/a7677s.c ****     dce->mqtt_cmd_pending = 0;
1681:SynaptiX_FDK/components/modules/a76xx/a7677s.c **** 
1682:SynaptiX_FDK/components/modules/a76xx/a7677s.c ****     if (res != MODEM_RESPONSE_SUCCESS) {
1683:SynaptiX_FDK/components/modules/a76xx/a7677s.c ****         log_error(TAG, "AT+CMQTTCFG=\"version\" failed (res=%d)", res);
1684:SynaptiX_FDK/components/modules/a76xx/a7677s.c ****         dce->mqtt_state = A7677S_MQTT_IDLE;
1685:SynaptiX_FDK/components/modules/a76xx/a7677s.c ****         mqtt_op_done(dce, MODEM_OPS_ERROR);
1686:SynaptiX_FDK/components/modules/a76xx/a7677s.c ****         return;
1687:SynaptiX_FDK/components/modules/a76xx/a7677s.c ****     }
1688:SynaptiX_FDK/components/modules/a76xx/a7677s.c **** 
1689:SynaptiX_FDK/components/modules/a76xx/a7677s.c ****     dce->mqtt_state = A7677S_MQTT_CONNECT;
1690:SynaptiX_FDK/components/modules/a76xx/a7677s.c ****     if (dce->mqtt_username[0] && dce->mqtt_password[0]) {
1691:SynaptiX_FDK/components/modules/a76xx/a7677s.c ****         snprintf(s_mqtt_dyn_cmd_buf, sizeof(s_mqtt_dyn_cmd_buf),
1692:SynaptiX_FDK/components/modules/a76xx/a7677s.c ****                  "AT+CMQTTCONNECT=%u,\"%s\",%u,%u,\"%s\",\"%s\"\r\n",
1693:SynaptiX_FDK/components/modules/a76xx/a7677s.c ****                  A7677S_MQTT_CLIENT_INDEX, dce->mqtt_broker,
1694:SynaptiX_FDK/components/modules/a76xx/a7677s.c ****                  (unsigned)dce->mqtt_keepalive, (unsigned)dce->mqtt_clean_session,
1695:SynaptiX_FDK/components/modules/a76xx/a7677s.c ****                  dce->mqtt_username, dce->mqtt_password);
1696:SynaptiX_FDK/components/modules/a76xx/a7677s.c ****     } else {
1697:SynaptiX_FDK/components/modules/a76xx/a7677s.c ****         snprintf(s_mqtt_dyn_cmd_buf, sizeof(s_mqtt_dyn_cmd_buf),
1698:SynaptiX_FDK/components/modules/a76xx/a7677s.c ****                  "AT+CMQTTCONNECT=%u,\"%s\",%u,%u\r\n",
1699:SynaptiX_FDK/components/modules/a76xx/a7677s.c ****                  A7677S_MQTT_CLIENT_INDEX, dce->mqtt_broker,
1700:SynaptiX_FDK/components/modules/a76xx/a7677s.c ****                  (unsigned)dce->mqtt_keepalive, (unsigned)dce->mqtt_clean_session);
1701:SynaptiX_FDK/components/modules/a76xx/a7677s.c ****     }
1702:SynaptiX_FDK/components/modules/a76xx/a7677s.c ****     send_mqtt_dynamic(dce, s_mqtt_dyn_cmd_buf,
1703:SynaptiX_FDK/components/modules/a76xx/a7677s.c ****                       "\r\n+CMQTTCONNECT:0,0\r\n", "\r\nERROR\r\n",
1704:SynaptiX_FDK/components/modules/a76xx/a7677s.c ****                       cb_mqtt_connect, A7677S_TIMEOUT_MQTT_CONNECT);
1705:SynaptiX_FDK/components/modules/a76xx/a7677s.c **** }
1706:SynaptiX_FDK/components/modules/a76xx/a7677s.c **** 
1707:SynaptiX_FDK/components/modules/a76xx/a7677s.c **** static void cb_mqtt_connect(modem_t *modem, const char *response,
1708:SynaptiX_FDK/components/modules/a76xx/a7677s.c ****                              modem_response_st_t res, void *arg)
1709:SynaptiX_FDK/components/modules/a76xx/a7677s.c **** {
1710:SynaptiX_FDK/components/modules/a76xx/a7677s.c ****     a7677s_t *dce = pDCE(arg);
1711:SynaptiX_FDK/components/modules/a76xx/a7677s.c ****     dce->mqtt_cmd_pending = 0;
1712:SynaptiX_FDK/components/modules/a76xx/a7677s.c **** 
1713:SynaptiX_FDK/components/modules/a76xx/a7677s.c ****     if (res != MODEM_RESPONSE_SUCCESS) {
1714:SynaptiX_FDK/components/modules/a76xx/a7677s.c ****         if (response) {
1715:SynaptiX_FDK/components/modules/a76xx/a7677s.c ****             const char *p = strstr(response, "+CMQTTCONNECT:");
1716:SynaptiX_FDK/components/modules/a76xx/a7677s.c ****             if (p) {
1717:SynaptiX_FDK/components/modules/a76xx/a7677s.c ****                 int ci, err;
1718:SynaptiX_FDK/components/modules/a76xx/a7677s.c ****                 if (sscanf(p, "+CMQTTCONNECT:%d,%d", &ci, &err) == 2)
1719:SynaptiX_FDK/components/modules/a76xx/a7677s.c ****                     log_error(TAG, "AT+CMQTTCONNECT errcode=%d", err);
ARM GAS  C:\Users\DELL\AppData\Local\Temp\ccL84Lpd.s 			page 41


1720:SynaptiX_FDK/components/modules/a76xx/a7677s.c ****             }
1721:SynaptiX_FDK/components/modules/a76xx/a7677s.c ****         }
1722:SynaptiX_FDK/components/modules/a76xx/a7677s.c ****         dce->mqtt_state = A7677S_MQTT_IDLE;
1723:SynaptiX_FDK/components/modules/a76xx/a7677s.c ****         mqtt_op_done(dce, (res == MODEM_RESPONSE_TIMEOUT) ? MODEM_OPS_TIMEOUT : MODEM_OPS_ERROR);
1724:SynaptiX_FDK/components/modules/a76xx/a7677s.c ****         return;
1725:SynaptiX_FDK/components/modules/a76xx/a7677s.c ****     }
1726:SynaptiX_FDK/components/modules/a76xx/a7677s.c **** 
1727:SynaptiX_FDK/components/modules/a76xx/a7677s.c ****     log_info(TAG, "MQTT connected to %s", dce->mqtt_broker);
1728:SynaptiX_FDK/components/modules/a76xx/a7677s.c ****     dce->mqtt_state = A7677S_MQTT_CONNECTED;
1729:SynaptiX_FDK/components/modules/a76xx/a7677s.c ****     mqtt_op_done(dce, MODEM_OPS_OK);
1730:SynaptiX_FDK/components/modules/a76xx/a7677s.c **** }
1731:SynaptiX_FDK/components/modules/a76xx/a7677s.c **** 
1732:SynaptiX_FDK/components/modules/a76xx/a7677s.c **** /* ------------------------------------------------------------------ */
1733:SynaptiX_FDK/components/modules/a76xx/a7677s.c **** /*  MQTT — disconnect sequence                                          */
1734:SynaptiX_FDK/components/modules/a76xx/a7677s.c **** /* ------------------------------------------------------------------ */
1735:SynaptiX_FDK/components/modules/a76xx/a7677s.c **** /* DISC -> REL -> STOP -> IDLE
1736:SynaptiX_FDK/components/modules/a76xx/a7677s.c ****  * DISC/REL failures are non-fatal for the sequence: we always proceed to
1737:SynaptiX_FDK/components/modules/a76xx/a7677s.c ****  * the next step to free resources and reach a clean IDLE state. */
1738:SynaptiX_FDK/components/modules/a76xx/a7677s.c **** 
1739:SynaptiX_FDK/components/modules/a76xx/a7677s.c **** static void cb_mqtt_disc(modem_t *modem, const char *response,
1740:SynaptiX_FDK/components/modules/a76xx/a7677s.c ****                           modem_response_st_t res, void *arg)
1741:SynaptiX_FDK/components/modules/a76xx/a7677s.c **** {
1742:SynaptiX_FDK/components/modules/a76xx/a7677s.c ****     a7677s_t *dce = pDCE(arg);
1743:SynaptiX_FDK/components/modules/a76xx/a7677s.c ****     dce->mqtt_cmd_pending = 0;
1744:SynaptiX_FDK/components/modules/a76xx/a7677s.c **** 
1745:SynaptiX_FDK/components/modules/a76xx/a7677s.c ****     if (res != MODEM_RESPONSE_SUCCESS)
1746:SynaptiX_FDK/components/modules/a76xx/a7677s.c ****         log_warn(TAG, "AT+CMQTTDISC did not complete cleanly (res=%d), continuing", res);
1747:SynaptiX_FDK/components/modules/a76xx/a7677s.c **** 
1748:SynaptiX_FDK/components/modules/a76xx/a7677s.c ****     dce->mqtt_state = A7677S_MQTT_REL;
1749:SynaptiX_FDK/components/modules/a76xx/a7677s.c ****     snprintf(s_mqtt_dyn_cmd_buf, sizeof(s_mqtt_dyn_cmd_buf),
1750:SynaptiX_FDK/components/modules/a76xx/a7677s.c ****              "AT+CMQTTREL=%u\r\n", A7677S_MQTT_CLIENT_INDEX);
1751:SynaptiX_FDK/components/modules/a76xx/a7677s.c ****     send_mqtt_dynamic(dce, s_mqtt_dyn_cmd_buf, "\r\nOK\r\n", "\r\nERROR\r\n",
1752:SynaptiX_FDK/components/modules/a76xx/a7677s.c ****                       cb_mqtt_rel, A7677S_TIMEOUT_AT);
1753:SynaptiX_FDK/components/modules/a76xx/a7677s.c **** }
1754:SynaptiX_FDK/components/modules/a76xx/a7677s.c **** 
1755:SynaptiX_FDK/components/modules/a76xx/a7677s.c **** static void cb_mqtt_rel(modem_t *modem, const char *response,
1756:SynaptiX_FDK/components/modules/a76xx/a7677s.c ****                          modem_response_st_t res, void *arg)
1757:SynaptiX_FDK/components/modules/a76xx/a7677s.c **** {
1758:SynaptiX_FDK/components/modules/a76xx/a7677s.c ****     a7677s_t *dce = pDCE(arg);
1759:SynaptiX_FDK/components/modules/a76xx/a7677s.c ****     dce->mqtt_cmd_pending = 0;
1760:SynaptiX_FDK/components/modules/a76xx/a7677s.c **** 
1761:SynaptiX_FDK/components/modules/a76xx/a7677s.c ****     if (res != MODEM_RESPONSE_SUCCESS)
1762:SynaptiX_FDK/components/modules/a76xx/a7677s.c ****         log_warn(TAG, "AT+CMQTTREL did not complete cleanly (res=%d), continuing", res);
1763:SynaptiX_FDK/components/modules/a76xx/a7677s.c **** 
1764:SynaptiX_FDK/components/modules/a76xx/a7677s.c ****     dce->mqtt_state = A7677S_MQTT_STOP;
1765:SynaptiX_FDK/components/modules/a76xx/a7677s.c ****     send_mqtt_dynamic(dce, "AT+CMQTTSTOP\r\n",
1766:SynaptiX_FDK/components/modules/a76xx/a7677s.c ****                       "\r\n+CMQTTSTOP:0\r\n", "\r\nERROR\r\n",
1767:SynaptiX_FDK/components/modules/a76xx/a7677s.c ****                       cb_mqtt_stop, A7677S_TIMEOUT_MQTT_START);
1768:SynaptiX_FDK/components/modules/a76xx/a7677s.c **** }
1769:SynaptiX_FDK/components/modules/a76xx/a7677s.c **** 
1770:SynaptiX_FDK/components/modules/a76xx/a7677s.c **** static void cb_mqtt_stop(modem_t *modem, const char *response,
1771:SynaptiX_FDK/components/modules/a76xx/a7677s.c ****                           modem_response_st_t res, void *arg)
1772:SynaptiX_FDK/components/modules/a76xx/a7677s.c **** {
 493              		.loc 1 1772 1 is_stmt 1 view -0
 494              		.cfi_startproc
 495              		@ args = 0, pretend = 0, frame = 0
 496              		@ frame_needed = 0, uses_anonymous_args = 0
ARM GAS  C:\Users\DELL\AppData\Local\Temp\ccL84Lpd.s 			page 42


 497              		.loc 1 1772 1 is_stmt 0 view .LVU124
 498 0000 38B5     		push	{r3, r4, r5, lr}
 499              	.LCFI3:
 500              		.cfi_def_cfa_offset 16
 501              		.cfi_offset 3, -16
 502              		.cfi_offset 4, -12
 503              		.cfi_offset 5, -8
 504              		.cfi_offset 14, -4
 505 0002 1C46     		mov	r4, r3
1773:SynaptiX_FDK/components/modules/a76xx/a7677s.c ****     a7677s_t *dce = pDCE(arg);
 506              		.loc 1 1773 5 is_stmt 1 view .LVU125
 507              	.LVL44:
1774:SynaptiX_FDK/components/modules/a76xx/a7677s.c ****     dce->mqtt_cmd_pending = 0;
 508              		.loc 1 1774 5 view .LVU126
 509              		.loc 1 1774 27 is_stmt 0 view .LVU127
 510 0004 0023     		movs	r3, #0
 511              	.LVL45:
 512              		.loc 1 1774 27 view .LVU128
 513 0006 84F81533 		strb	r3, [r4, #789]
1775:SynaptiX_FDK/components/modules/a76xx/a7677s.c **** 
1776:SynaptiX_FDK/components/modules/a76xx/a7677s.c ****     if (res != MODEM_RESPONSE_SUCCESS)
 514              		.loc 1 1776 5 is_stmt 1 view .LVU129
 515              		.loc 1 1776 8 is_stmt 0 view .LVU130
 516 000a 1546     		mov	r5, r2
 517 000c 72B9     		cbnz	r2, .L40
 518              	.LVL46:
 519              	.L38:
1777:SynaptiX_FDK/components/modules/a76xx/a7677s.c ****         log_warn(TAG, "AT+CMQTTSTOP did not complete cleanly (res=%d)", res);
1778:SynaptiX_FDK/components/modules/a76xx/a7677s.c **** 
1779:SynaptiX_FDK/components/modules/a76xx/a7677s.c ****     log_info(TAG, "MQTT session closed");
 520              		.loc 1 1779 5 is_stmt 1 view .LVU131
 521 000e 0B4A     		ldr	r2, .L41
 522 0010 0B49     		ldr	r1, .L41+4
 523 0012 0320     		movs	r0, #3
 524 0014 FFF7FEFF 		bl	log_func
 525              	.LVL47:
1780:SynaptiX_FDK/components/modules/a76xx/a7677s.c ****     dce->mqtt_state = A7677S_MQTT_IDLE;
 526              		.loc 1 1780 5 view .LVU132
 527              		.loc 1 1780 21 is_stmt 0 view .LVU133
 528 0018 0023     		movs	r3, #0
 529 001a 84F81433 		strb	r3, [r4, #788]
1781:SynaptiX_FDK/components/modules/a76xx/a7677s.c ****     mqtt_op_done(dce, (res == MODEM_RESPONSE_SUCCESS) ? MODEM_OPS_OK : MODEM_OPS_ERROR);
 530              		.loc 1 1781 5 is_stmt 1 view .LVU134
 531 001e E91A     		subs	r1, r5, r3
 532 0020 18BF     		it	ne
 533 0022 0121     		movne	r1, #1
 534 0024 2046     		mov	r0, r4
 535 0026 FFF7FEFF 		bl	mqtt_op_done
 536              	.LVL48:
1782:SynaptiX_FDK/components/modules/a76xx/a7677s.c **** }
 537              		.loc 1 1782 1 is_stmt 0 view .LVU135
 538 002a 38BD     		pop	{r3, r4, r5, pc}
 539              	.LVL49:
 540              	.L40:
1777:SynaptiX_FDK/components/modules/a76xx/a7677s.c **** 
 541              		.loc 1 1777 9 is_stmt 1 view .LVU136
 542 002c 1346     		mov	r3, r2
ARM GAS  C:\Users\DELL\AppData\Local\Temp\ccL84Lpd.s 			page 43


 543 002e 054A     		ldr	r2, .L41+8
 544              	.LVL50:
1777:SynaptiX_FDK/components/modules/a76xx/a7677s.c **** 
 545              		.loc 1 1777 9 is_stmt 0 view .LVU137
 546 0030 0349     		ldr	r1, .L41+4
 547              	.LVL51:
1777:SynaptiX_FDK/components/modules/a76xx/a7677s.c **** 
 548              		.loc 1 1777 9 view .LVU138
 549 0032 0220     		movs	r0, #2
 550              	.LVL52:
1777:SynaptiX_FDK/components/modules/a76xx/a7677s.c **** 
 551              		.loc 1 1777 9 view .LVU139
 552 0034 FFF7FEFF 		bl	log_func
 553              	.LVL53:
 554 0038 E9E7     		b	.L38
 555              	.L42:
 556 003a 00BF     		.align	2
 557              	.L41:
 558 003c 30000000 		.word	.LC3
 559 0040 24000000 		.word	.LC1
 560 0044 00000000 		.word	.LC2
 561              		.cfi_endproc
 562              	.LFE75:
 564              		.section	.rodata.cb_cfun_1.str1.4,"aMS",%progbits,1
 565              		.align	2
 566              	.LC4:
 567 0000 45786974 		.ascii	"Exited low power (AT+CFUN=1)\000"
 567      6564206C 
 567      6F772070 
 567      6F776572 
 567      20284154 
 568 001d 000000   		.align	2
 569              	.LC5:
 570 0020 41542B43 		.ascii	"AT+CFUN=1 timed out\000"
 570      46554E3D 
 570      31207469 
 570      6D656420 
 570      6F757400 
 571              		.align	2
 572              	.LC6:
 573 0034 41542B43 		.ascii	"AT+CFUN=1 failed\000"
 573      46554E3D 
 573      31206661 
 573      696C6564 
 573      00
 574              		.section	.text.cb_cfun_1,"ax",%progbits
 575              		.align	1
 576              		.syntax unified
 577              		.thumb
 578              		.thumb_func
 580              	cb_cfun_1:
 581              	.LVL54:
 582              	.LFB38:
 862:SynaptiX_FDK/components/modules/a76xx/a7677s.c ****     a7677s_t *dce = pDCE(arg);
 583              		.loc 1 862 1 is_stmt 1 view -0
 584              		.cfi_startproc
 585              		@ args = 0, pretend = 0, frame = 0
ARM GAS  C:\Users\DELL\AppData\Local\Temp\ccL84Lpd.s 			page 44


 586              		@ frame_needed = 0, uses_anonymous_args = 0
 862:SynaptiX_FDK/components/modules/a76xx/a7677s.c ****     a7677s_t *dce = pDCE(arg);
 587              		.loc 1 862 1 is_stmt 0 view .LVU141
 588 0000 38B5     		push	{r3, r4, r5, lr}
 589              	.LCFI4:
 590              		.cfi_def_cfa_offset 16
 591              		.cfi_offset 3, -16
 592              		.cfi_offset 4, -12
 593              		.cfi_offset 5, -8
 594              		.cfi_offset 14, -4
 595 0002 1C46     		mov	r4, r3
 863:SynaptiX_FDK/components/modules/a76xx/a7677s.c ****     dce->cfun_cmd_pending = 0;
 596              		.loc 1 863 5 is_stmt 1 view .LVU142
 597              	.LVL55:
 864:SynaptiX_FDK/components/modules/a76xx/a7677s.c **** 
 598              		.loc 1 864 5 view .LVU143
 864:SynaptiX_FDK/components/modules/a76xx/a7677s.c **** 
 599              		.loc 1 864 27 is_stmt 0 view .LVU144
 600 0004 0023     		movs	r3, #0
 601              	.LVL56:
 864:SynaptiX_FDK/components/modules/a76xx/a7677s.c **** 
 602              		.loc 1 864 27 view .LVU145
 603 0006 84F80F33 		strb	r3, [r4, #783]
 866:SynaptiX_FDK/components/modules/a76xx/a7677s.c ****     if (res == MODEM_RESPONSE_SUCCESS) {
 604              		.loc 1 866 5 is_stmt 1 view .LVU146
 867:SynaptiX_FDK/components/modules/a76xx/a7677s.c ****         log_info(TAG, "Exited low power (AT+CFUN=1)");
 605              		.loc 1 867 5 view .LVU147
 867:SynaptiX_FDK/components/modules/a76xx/a7677s.c ****         log_info(TAG, "Exited low power (AT+CFUN=1)");
 606              		.loc 1 867 8 is_stmt 0 view .LVU148
 607 000a 1546     		mov	r5, r2
 608 000c 8AB1     		cbz	r2, .L49
 871:SynaptiX_FDK/components/modules/a76xx/a7677s.c ****         log_error(TAG, "AT+CFUN=1 timed out");
 609              		.loc 1 871 12 is_stmt 1 view .LVU149
 871:SynaptiX_FDK/components/modules/a76xx/a7677s.c ****         log_error(TAG, "AT+CFUN=1 timed out");
 610              		.loc 1 871 15 is_stmt 0 view .LVU150
 611 000e 022A     		cmp	r2, #2
 612 0010 18D0     		beq	.L50
 879:SynaptiX_FDK/components/modules/a76xx/a7677s.c ****         result = MODEM_OPS_ERROR;
 613              		.loc 1 879 9 is_stmt 1 view .LVU151
 614 0012 0F4A     		ldr	r2, .L51
 615              	.LVL57:
 879:SynaptiX_FDK/components/modules/a76xx/a7677s.c ****         result = MODEM_OPS_ERROR;
 616              		.loc 1 879 9 is_stmt 0 view .LVU152
 617 0014 0F49     		ldr	r1, .L51+4
 618              	.LVL58:
 879:SynaptiX_FDK/components/modules/a76xx/a7677s.c ****         result = MODEM_OPS_ERROR;
 619              		.loc 1 879 9 view .LVU153
 620 0016 0120     		movs	r0, #1
 621              	.LVL59:
 879:SynaptiX_FDK/components/modules/a76xx/a7677s.c ****         result = MODEM_OPS_ERROR;
 622              		.loc 1 879 9 view .LVU154
 623 0018 FFF7FEFF 		bl	log_func
 624              	.LVL60:
 880:SynaptiX_FDK/components/modules/a76xx/a7677s.c ****     }
 625              		.loc 1 880 9 is_stmt 1 view .LVU155
 880:SynaptiX_FDK/components/modules/a76xx/a7677s.c ****     }
 626              		.loc 1 880 16 is_stmt 0 view .LVU156
ARM GAS  C:\Users\DELL\AppData\Local\Temp\ccL84Lpd.s 			page 45


 627 001c 0125     		movs	r5, #1
 628              	.LVL61:
 629              	.L45:
 883:SynaptiX_FDK/components/modules/a76xx/a7677s.c ****     dce->cfun_cb = NULL;
 630              		.loc 1 883 5 is_stmt 1 view .LVU157
 883:SynaptiX_FDK/components/modules/a76xx/a7677s.c ****     dce->cfun_cb = NULL;
 631              		.loc 1 883 21 is_stmt 0 view .LVU158
 632 001e D4F81033 		ldr	r3, [r4, #784]
 633              	.LVL62:
 884:SynaptiX_FDK/components/modules/a76xx/a7677s.c ****     if (cb) cb(result, dce);
 634              		.loc 1 884 5 is_stmt 1 view .LVU159
 884:SynaptiX_FDK/components/modules/a76xx/a7677s.c ****     if (cb) cb(result, dce);
 635              		.loc 1 884 18 is_stmt 0 view .LVU160
 636 0022 0022     		movs	r2, #0
 637 0024 C4F81023 		str	r2, [r4, #784]
 885:SynaptiX_FDK/components/modules/a76xx/a7677s.c **** }
 638              		.loc 1 885 5 is_stmt 1 view .LVU161
 885:SynaptiX_FDK/components/modules/a76xx/a7677s.c **** }
 639              		.loc 1 885 8 is_stmt 0 view .LVU162
 640 0028 13B1     		cbz	r3, .L43
 885:SynaptiX_FDK/components/modules/a76xx/a7677s.c **** }
 641              		.loc 1 885 13 is_stmt 1 discriminator 1 view .LVU163
 642 002a 2146     		mov	r1, r4
 643 002c 2846     		mov	r0, r5
 644 002e 9847     		blx	r3
 645              	.LVL63:
 646              	.L43:
 886:SynaptiX_FDK/components/modules/a76xx/a7677s.c **** 
 647              		.loc 1 886 1 is_stmt 0 view .LVU164
 648 0030 38BD     		pop	{r3, r4, r5, pc}
 649              	.LVL64:
 650              	.L49:
 868:SynaptiX_FDK/components/modules/a76xx/a7677s.c ****         dce->low_power_active = 0;
 651              		.loc 1 868 9 is_stmt 1 view .LVU165
 652 0032 094A     		ldr	r2, .L51+8
 653              	.LVL65:
 868:SynaptiX_FDK/components/modules/a76xx/a7677s.c ****         dce->low_power_active = 0;
 654              		.loc 1 868 9 is_stmt 0 view .LVU166
 655 0034 0749     		ldr	r1, .L51+4
 656              	.LVL66:
 868:SynaptiX_FDK/components/modules/a76xx/a7677s.c ****         dce->low_power_active = 0;
 657              		.loc 1 868 9 view .LVU167
 658 0036 0320     		movs	r0, #3
 659              	.LVL67:
 868:SynaptiX_FDK/components/modules/a76xx/a7677s.c ****         dce->low_power_active = 0;
 660              		.loc 1 868 9 view .LVU168
 661 0038 FFF7FEFF 		bl	log_func
 662              	.LVL68:
 869:SynaptiX_FDK/components/modules/a76xx/a7677s.c ****         result = MODEM_OPS_OK;
 663              		.loc 1 869 9 is_stmt 1 view .LVU169
 869:SynaptiX_FDK/components/modules/a76xx/a7677s.c ****         result = MODEM_OPS_OK;
 664              		.loc 1 869 31 is_stmt 0 view .LVU170
 665 003c 0023     		movs	r3, #0
 666 003e 84F80E33 		strb	r3, [r4, #782]
 870:SynaptiX_FDK/components/modules/a76xx/a7677s.c ****     } else if (res == MODEM_RESPONSE_TIMEOUT) {
 667              		.loc 1 870 9 is_stmt 1 view .LVU171
 668              	.LVL69:
ARM GAS  C:\Users\DELL\AppData\Local\Temp\ccL84Lpd.s 			page 46


 870:SynaptiX_FDK/components/modules/a76xx/a7677s.c ****     } else if (res == MODEM_RESPONSE_TIMEOUT) {
 669              		.loc 1 870 9 is_stmt 0 view .LVU172
 670 0042 ECE7     		b	.L45
 671              	.LVL70:
 672              	.L50:
 872:SynaptiX_FDK/components/modules/a76xx/a7677s.c ****         result = MODEM_OPS_TIMEOUT;
 673              		.loc 1 872 9 is_stmt 1 view .LVU173
 674 0044 054A     		ldr	r2, .L51+12
 675              	.LVL71:
 872:SynaptiX_FDK/components/modules/a76xx/a7677s.c ****         result = MODEM_OPS_TIMEOUT;
 676              		.loc 1 872 9 is_stmt 0 view .LVU174
 677 0046 0349     		ldr	r1, .L51+4
 678              	.LVL72:
 872:SynaptiX_FDK/components/modules/a76xx/a7677s.c ****         result = MODEM_OPS_TIMEOUT;
 679              		.loc 1 872 9 view .LVU175
 680 0048 0120     		movs	r0, #1
 681              	.LVL73:
 872:SynaptiX_FDK/components/modules/a76xx/a7677s.c ****         result = MODEM_OPS_TIMEOUT;
 682              		.loc 1 872 9 view .LVU176
 683 004a FFF7FEFF 		bl	log_func
 684              	.LVL74:
 873:SynaptiX_FDK/components/modules/a76xx/a7677s.c ****         /* Deliberately leave low_power_active=1 on failure: we do not know
 685              		.loc 1 873 9 is_stmt 1 view .LVU177
 873:SynaptiX_FDK/components/modules/a76xx/a7677s.c ****         /* Deliberately leave low_power_active=1 on failure: we do not know
 686              		.loc 1 873 9 is_stmt 0 view .LVU178
 687 004e E6E7     		b	.L45
 688              	.L52:
 689              		.align	2
 690              	.L51:
 691 0050 34000000 		.word	.LC6
 692 0054 24000000 		.word	.LC1
 693 0058 00000000 		.word	.LC4
 694 005c 20000000 		.word	.LC5
 695              		.cfi_endproc
 696              	.LFE38:
 698              		.section	.rodata.cb_cfun_0.str1.4,"aMS",%progbits,1
 699              		.align	2
 700              	.LC7:
 701 0000 456E7465 		.ascii	"Entered low power (AT+CFUN=0)\000"
 701      72656420 
 701      6C6F7720 
 701      706F7765 
 701      72202841 
 702 001e 0000     		.align	2
 703              	.LC8:
 704 0020 41542B43 		.ascii	"AT+CFUN=0 timed out\000"
 704      46554E3D 
 704      30207469 
 704      6D656420 
 704      6F757400 
 705              		.align	2
 706              	.LC9:
 707 0034 41542B43 		.ascii	"AT+CFUN=0 failed\000"
 707      46554E3D 
 707      30206661 
 707      696C6564 
 707      00
ARM GAS  C:\Users\DELL\AppData\Local\Temp\ccL84Lpd.s 			page 47


 708              		.section	.text.cb_cfun_0,"ax",%progbits
 709              		.align	1
 710              		.syntax unified
 711              		.thumb
 712              		.thumb_func
 714              	cb_cfun_0:
 715              	.LVL75:
 716              	.LFB37:
 839:SynaptiX_FDK/components/modules/a76xx/a7677s.c ****     a7677s_t *dce = pDCE(arg);
 717              		.loc 1 839 1 is_stmt 1 view -0
 718              		.cfi_startproc
 719              		@ args = 0, pretend = 0, frame = 0
 720              		@ frame_needed = 0, uses_anonymous_args = 0
 839:SynaptiX_FDK/components/modules/a76xx/a7677s.c ****     a7677s_t *dce = pDCE(arg);
 721              		.loc 1 839 1 is_stmt 0 view .LVU180
 722 0000 38B5     		push	{r3, r4, r5, lr}
 723              	.LCFI5:
 724              		.cfi_def_cfa_offset 16
 725              		.cfi_offset 3, -16
 726              		.cfi_offset 4, -12
 727              		.cfi_offset 5, -8
 728              		.cfi_offset 14, -4
 729 0002 1C46     		mov	r4, r3
 840:SynaptiX_FDK/components/modules/a76xx/a7677s.c ****     dce->cfun_cmd_pending = 0;
 730              		.loc 1 840 5 is_stmt 1 view .LVU181
 731              	.LVL76:
 841:SynaptiX_FDK/components/modules/a76xx/a7677s.c **** 
 732              		.loc 1 841 5 view .LVU182
 841:SynaptiX_FDK/components/modules/a76xx/a7677s.c **** 
 733              		.loc 1 841 27 is_stmt 0 view .LVU183
 734 0004 0023     		movs	r3, #0
 735              	.LVL77:
 841:SynaptiX_FDK/components/modules/a76xx/a7677s.c **** 
 736              		.loc 1 841 27 view .LVU184
 737 0006 84F80F33 		strb	r3, [r4, #783]
 843:SynaptiX_FDK/components/modules/a76xx/a7677s.c ****     if (res == MODEM_RESPONSE_SUCCESS) {
 738              		.loc 1 843 5 is_stmt 1 view .LVU185
 844:SynaptiX_FDK/components/modules/a76xx/a7677s.c ****         log_info(TAG, "Entered low power (AT+CFUN=0)");
 739              		.loc 1 844 5 view .LVU186
 844:SynaptiX_FDK/components/modules/a76xx/a7677s.c ****         log_info(TAG, "Entered low power (AT+CFUN=0)");
 740              		.loc 1 844 8 is_stmt 0 view .LVU187
 741 000a 1546     		mov	r5, r2
 742 000c 8AB1     		cbz	r2, .L59
 848:SynaptiX_FDK/components/modules/a76xx/a7677s.c ****         log_error(TAG, "AT+CFUN=0 timed out");
 743              		.loc 1 848 12 is_stmt 1 view .LVU188
 848:SynaptiX_FDK/components/modules/a76xx/a7677s.c ****         log_error(TAG, "AT+CFUN=0 timed out");
 744              		.loc 1 848 15 is_stmt 0 view .LVU189
 745 000e 022A     		cmp	r2, #2
 746 0010 18D0     		beq	.L60
 852:SynaptiX_FDK/components/modules/a76xx/a7677s.c ****         result = MODEM_OPS_ERROR;
 747              		.loc 1 852 9 is_stmt 1 view .LVU190
 748 0012 0F4A     		ldr	r2, .L61
 749              	.LVL78:
 852:SynaptiX_FDK/components/modules/a76xx/a7677s.c ****         result = MODEM_OPS_ERROR;
 750              		.loc 1 852 9 is_stmt 0 view .LVU191
 751 0014 0F49     		ldr	r1, .L61+4
 752              	.LVL79:
ARM GAS  C:\Users\DELL\AppData\Local\Temp\ccL84Lpd.s 			page 48


 852:SynaptiX_FDK/components/modules/a76xx/a7677s.c ****         result = MODEM_OPS_ERROR;
 753              		.loc 1 852 9 view .LVU192
 754 0016 0120     		movs	r0, #1
 755              	.LVL80:
 852:SynaptiX_FDK/components/modules/a76xx/a7677s.c ****         result = MODEM_OPS_ERROR;
 756              		.loc 1 852 9 view .LVU193
 757 0018 FFF7FEFF 		bl	log_func
 758              	.LVL81:
 853:SynaptiX_FDK/components/modules/a76xx/a7677s.c ****     }
 759              		.loc 1 853 9 is_stmt 1 view .LVU194
 853:SynaptiX_FDK/components/modules/a76xx/a7677s.c ****     }
 760              		.loc 1 853 16 is_stmt 0 view .LVU195
 761 001c 0125     		movs	r5, #1
 762              	.LVL82:
 763              	.L55:
 856:SynaptiX_FDK/components/modules/a76xx/a7677s.c ****     dce->cfun_cb = NULL;
 764              		.loc 1 856 5 is_stmt 1 view .LVU196
 856:SynaptiX_FDK/components/modules/a76xx/a7677s.c ****     dce->cfun_cb = NULL;
 765              		.loc 1 856 21 is_stmt 0 view .LVU197
 766 001e D4F81033 		ldr	r3, [r4, #784]
 767              	.LVL83:
 857:SynaptiX_FDK/components/modules/a76xx/a7677s.c ****     if (cb) cb(result, dce);
 768              		.loc 1 857 5 is_stmt 1 view .LVU198
 857:SynaptiX_FDK/components/modules/a76xx/a7677s.c ****     if (cb) cb(result, dce);
 769              		.loc 1 857 18 is_stmt 0 view .LVU199
 770 0022 0022     		movs	r2, #0
 771 0024 C4F81023 		str	r2, [r4, #784]
 858:SynaptiX_FDK/components/modules/a76xx/a7677s.c **** }
 772              		.loc 1 858 5 is_stmt 1 view .LVU200
 858:SynaptiX_FDK/components/modules/a76xx/a7677s.c **** }
 773              		.loc 1 858 8 is_stmt 0 view .LVU201
 774 0028 13B1     		cbz	r3, .L53
 858:SynaptiX_FDK/components/modules/a76xx/a7677s.c **** }
 775              		.loc 1 858 13 is_stmt 1 discriminator 1 view .LVU202
 776 002a 2146     		mov	r1, r4
 777 002c 2846     		mov	r0, r5
 778 002e 9847     		blx	r3
 779              	.LVL84:
 780              	.L53:
 859:SynaptiX_FDK/components/modules/a76xx/a7677s.c **** 
 781              		.loc 1 859 1 is_stmt 0 view .LVU203
 782 0030 38BD     		pop	{r3, r4, r5, pc}
 783              	.LVL85:
 784              	.L59:
 845:SynaptiX_FDK/components/modules/a76xx/a7677s.c ****         dce->low_power_active = 1;
 785              		.loc 1 845 9 is_stmt 1 view .LVU204
 786 0032 094A     		ldr	r2, .L61+8
 787              	.LVL86:
 845:SynaptiX_FDK/components/modules/a76xx/a7677s.c ****         dce->low_power_active = 1;
 788              		.loc 1 845 9 is_stmt 0 view .LVU205
 789 0034 0749     		ldr	r1, .L61+4
 790              	.LVL87:
 845:SynaptiX_FDK/components/modules/a76xx/a7677s.c ****         dce->low_power_active = 1;
 791              		.loc 1 845 9 view .LVU206
 792 0036 0320     		movs	r0, #3
 793              	.LVL88:
 845:SynaptiX_FDK/components/modules/a76xx/a7677s.c ****         dce->low_power_active = 1;
ARM GAS  C:\Users\DELL\AppData\Local\Temp\ccL84Lpd.s 			page 49


 794              		.loc 1 845 9 view .LVU207
 795 0038 FFF7FEFF 		bl	log_func
 796              	.LVL89:
 846:SynaptiX_FDK/components/modules/a76xx/a7677s.c ****         result = MODEM_OPS_OK;
 797              		.loc 1 846 9 is_stmt 1 view .LVU208
 846:SynaptiX_FDK/components/modules/a76xx/a7677s.c ****         result = MODEM_OPS_OK;
 798              		.loc 1 846 31 is_stmt 0 view .LVU209
 799 003c 0123     		movs	r3, #1
 800 003e 84F80E33 		strb	r3, [r4, #782]
 847:SynaptiX_FDK/components/modules/a76xx/a7677s.c ****     } else if (res == MODEM_RESPONSE_TIMEOUT) {
 801              		.loc 1 847 9 is_stmt 1 view .LVU210
 802              	.LVL90:
 847:SynaptiX_FDK/components/modules/a76xx/a7677s.c ****     } else if (res == MODEM_RESPONSE_TIMEOUT) {
 803              		.loc 1 847 9 is_stmt 0 view .LVU211
 804 0042 ECE7     		b	.L55
 805              	.LVL91:
 806              	.L60:
 849:SynaptiX_FDK/components/modules/a76xx/a7677s.c ****         result = MODEM_OPS_TIMEOUT;
 807              		.loc 1 849 9 is_stmt 1 view .LVU212
 808 0044 054A     		ldr	r2, .L61+12
 809              	.LVL92:
 849:SynaptiX_FDK/components/modules/a76xx/a7677s.c ****         result = MODEM_OPS_TIMEOUT;
 810              		.loc 1 849 9 is_stmt 0 view .LVU213
 811 0046 0349     		ldr	r1, .L61+4
 812              	.LVL93:
 849:SynaptiX_FDK/components/modules/a76xx/a7677s.c ****         result = MODEM_OPS_TIMEOUT;
 813              		.loc 1 849 9 view .LVU214
 814 0048 0120     		movs	r0, #1
 815              	.LVL94:
 849:SynaptiX_FDK/components/modules/a76xx/a7677s.c ****         result = MODEM_OPS_TIMEOUT;
 816              		.loc 1 849 9 view .LVU215
 817 004a FFF7FEFF 		bl	log_func
 818              	.LVL95:
 850:SynaptiX_FDK/components/modules/a76xx/a7677s.c ****     } else {
 819              		.loc 1 850 9 is_stmt 1 view .LVU216
 850:SynaptiX_FDK/components/modules/a76xx/a7677s.c ****     } else {
 820              		.loc 1 850 9 is_stmt 0 view .LVU217
 821 004e E6E7     		b	.L55
 822              	.L62:
 823              		.align	2
 824              	.L61:
 825 0050 34000000 		.word	.LC9
 826 0054 24000000 		.word	.LC1
 827 0058 00000000 		.word	.LC7
 828 005c 20000000 		.word	.LC8
 829              		.cfi_endproc
 830              	.LFE37:
 832              		.section	.rodata.a7677s_hard_reset.str1.4,"aMS",%progbits,1
 833              		.align	2
 834              	.LC10:
 835 0000 48617264 		.ascii	"Hard reset via RST pin (emergency recovery)\000"
 835      20726573 
 835      65742076 
 835      69612052 
 835      53542070 
 836              		.section	.text.a7677s_hard_reset,"ax",%progbits
 837              		.align	1
ARM GAS  C:\Users\DELL\AppData\Local\Temp\ccL84Lpd.s 			page 50


 838              		.syntax unified
 839              		.thumb
 840              		.thumb_func
 842              	a7677s_hard_reset:
 843              	.LVL96:
 844              	.LFB16:
 297:SynaptiX_FDK/components/modules/a76xx/a7677s.c ****     a7677s_t *dce = (a7677s_t *)ctx;
 845              		.loc 1 297 1 is_stmt 1 view -0
 846              		.cfi_startproc
 847              		@ args = 0, pretend = 0, frame = 0
 848              		@ frame_needed = 0, uses_anonymous_args = 0
 297:SynaptiX_FDK/components/modules/a76xx/a7677s.c ****     a7677s_t *dce = (a7677s_t *)ctx;
 849              		.loc 1 297 1 is_stmt 0 view .LVU219
 850 0000 10B5     		push	{r4, lr}
 851              	.LCFI6:
 852              		.cfi_def_cfa_offset 8
 853              		.cfi_offset 4, -8
 854              		.cfi_offset 14, -4
 855 0002 0446     		mov	r4, r0
 298:SynaptiX_FDK/components/modules/a76xx/a7677s.c **** 
 856              		.loc 1 298 5 is_stmt 1 view .LVU220
 857              	.LVL97:
 300:SynaptiX_FDK/components/modules/a76xx/a7677s.c ****     dce->power_state      = A7677S_PWR_RST_PULSE;
 858              		.loc 1 300 5 view .LVU221
 859 0004 0B4A     		ldr	r2, .L65
 860 0006 0C49     		ldr	r1, .L65+4
 861 0008 0120     		movs	r0, #1
 862              	.LVL98:
 300:SynaptiX_FDK/components/modules/a76xx/a7677s.c ****     dce->power_state      = A7677S_PWR_RST_PULSE;
 863              		.loc 1 300 5 is_stmt 0 view .LVU222
 864 000a FFF7FEFF 		bl	log_func
 865              	.LVL99:
 301:SynaptiX_FDK/components/modules/a76xx/a7677s.c ****     dce->power_elapsed    = 0;
 866              		.loc 1 301 5 is_stmt 1 view .LVU223
 301:SynaptiX_FDK/components/modules/a76xx/a7677s.c ****     dce->power_elapsed    = 0;
 867              		.loc 1 301 27 is_stmt 0 view .LVU224
 868 000e 0323     		movs	r3, #3
 869 0010 84F88032 		strb	r3, [r4, #640]
 302:SynaptiX_FDK/components/modules/a76xx/a7677s.c ****     dce->at_probe_pending = 0;
 870              		.loc 1 302 5 is_stmt 1 view .LVU225
 302:SynaptiX_FDK/components/modules/a76xx/a7677s.c ****     dce->at_probe_pending = 0;
 871              		.loc 1 302 27 is_stmt 0 view .LVU226
 872 0014 0023     		movs	r3, #0
 873 0016 C4F88432 		str	r3, [r4, #644]
 303:SynaptiX_FDK/components/modules/a76xx/a7677s.c ****     dce->init_state       = A7677S_INIT_IDLE;
 874              		.loc 1 303 5 is_stmt 1 view .LVU227
 303:SynaptiX_FDK/components/modules/a76xx/a7677s.c ****     dce->init_state       = A7677S_INIT_IDLE;
 875              		.loc 1 303 27 is_stmt 0 view .LVU228
 876 001a 84F88832 		strb	r3, [r4, #648]
 304:SynaptiX_FDK/components/modules/a76xx/a7677s.c ****     dce->init_retry_count = 0;
 877              		.loc 1 304 5 is_stmt 1 view .LVU229
 304:SynaptiX_FDK/components/modules/a76xx/a7677s.c ****     dce->init_retry_count = 0;
 878              		.loc 1 304 27 is_stmt 0 view .LVU230
 879 001e 84F88932 		strb	r3, [r4, #649]
 305:SynaptiX_FDK/components/modules/a76xx/a7677s.c ****     sx_gpio_write(&dce->resetPin, SX_GPIO_HIGH);
 880              		.loc 1 305 5 is_stmt 1 view .LVU231
 305:SynaptiX_FDK/components/modules/a76xx/a7677s.c ****     sx_gpio_write(&dce->resetPin, SX_GPIO_HIGH);
ARM GAS  C:\Users\DELL\AppData\Local\Temp\ccL84Lpd.s 			page 51


 881              		.loc 1 305 27 is_stmt 0 view .LVU232
 882 0022 84F89032 		strb	r3, [r4, #656]
 306:SynaptiX_FDK/components/modules/a76xx/a7677s.c **** }
 883              		.loc 1 306 5 is_stmt 1 view .LVU233
 884 0026 0121     		movs	r1, #1
 885 0028 04F51D70 		add	r0, r4, #628
 886 002c FFF7FEFF 		bl	sx_gpio_write
 887              	.LVL100:
 307:SynaptiX_FDK/components/modules/a76xx/a7677s.c **** 
 888              		.loc 1 307 1 is_stmt 0 view .LVU234
 889 0030 10BD     		pop	{r4, pc}
 890              	.LVL101:
 891              	.L66:
 307:SynaptiX_FDK/components/modules/a76xx/a7677s.c **** 
 892              		.loc 1 307 1 view .LVU235
 893 0032 00BF     		.align	2
 894              	.L65:
 895 0034 00000000 		.word	.LC10
 896 0038 24000000 		.word	.LC1
 897              		.cfi_endproc
 898              	.LFE16:
 900              		.section	.rodata.cb_cpof.str1.4,"aMS",%progbits,1
 901              		.align	2
 902              	.LC11:
 903 0000 41542B43 		.ascii	"AT+CPOF did not complete cleanly (res=%d)\000"
 903      504F4620 
 903      64696420 
 903      6E6F7420 
 903      636F6D70 
 904 002a 0000     		.align	2
 905              	.LC12:
 906 002c 506F7765 		.ascii	"Power Off OK\000"
 906      72204F66 
 906      66204F4B 
 906      00
 907              		.section	.text.cb_cpof,"ax",%progbits
 908              		.align	1
 909              		.syntax unified
 910              		.thumb
 911              		.thumb_func
 913              	cb_cpof:
 914              	.LVL102:
 915              	.LFB20:
 346:SynaptiX_FDK/components/modules/a76xx/a7677s.c ****     a7677s_t *dce = pDCE(modem);
 916              		.loc 1 346 1 is_stmt 1 view -0
 917              		.cfi_startproc
 918              		@ args = 0, pretend = 0, frame = 0
 919              		@ frame_needed = 0, uses_anonymous_args = 0
 346:SynaptiX_FDK/components/modules/a76xx/a7677s.c ****     a7677s_t *dce = pDCE(modem);
 920              		.loc 1 346 1 is_stmt 0 view .LVU237
 921 0000 10B5     		push	{r4, lr}
 922              	.LCFI7:
 923              		.cfi_def_cfa_offset 8
 924              		.cfi_offset 4, -8
 925              		.cfi_offset 14, -4
 926 0002 0446     		mov	r4, r0
 347:SynaptiX_FDK/components/modules/a76xx/a7677s.c ****     /* Whether AT+CPOF succeeded, failed, or timed out, the power sequence
ARM GAS  C:\Users\DELL\AppData\Local\Temp\ccL84Lpd.s 			page 52


 927              		.loc 1 347 5 is_stmt 1 view .LVU238
 928              	.LVL103:
 353:SynaptiX_FDK/components/modules/a76xx/a7677s.c ****         log_error(TAG, "AT+CPOF did not complete cleanly (res=%d)", res);
 929              		.loc 1 353 5 view .LVU239
 353:SynaptiX_FDK/components/modules/a76xx/a7677s.c ****         log_error(TAG, "AT+CPOF did not complete cleanly (res=%d)", res);
 930              		.loc 1 353 8 is_stmt 0 view .LVU240
 931 0004 5AB1     		cbz	r2, .L68
 932 0006 1346     		mov	r3, r2
 933              	.LVL104:
 354:SynaptiX_FDK/components/modules/a76xx/a7677s.c ****     } else {
 934              		.loc 1 354 9 is_stmt 1 view .LVU241
 935 0008 084A     		ldr	r2, .L71
 936              	.LVL105:
 354:SynaptiX_FDK/components/modules/a76xx/a7677s.c ****     } else {
 937              		.loc 1 354 9 is_stmt 0 view .LVU242
 938 000a 0949     		ldr	r1, .L71+4
 939              	.LVL106:
 354:SynaptiX_FDK/components/modules/a76xx/a7677s.c ****     } else {
 940              		.loc 1 354 9 view .LVU243
 941 000c 0120     		movs	r0, #1
 942              	.LVL107:
 354:SynaptiX_FDK/components/modules/a76xx/a7677s.c ****     } else {
 943              		.loc 1 354 9 view .LVU244
 944 000e FFF7FEFF 		bl	log_func
 945              	.LVL108:
 946              	.L69:
 358:SynaptiX_FDK/components/modules/a76xx/a7677s.c ****     dce->power_elapsed = 0;
 947              		.loc 1 358 5 is_stmt 1 view .LVU245
 358:SynaptiX_FDK/components/modules/a76xx/a7677s.c ****     dce->power_elapsed = 0;
 948              		.loc 1 358 24 is_stmt 0 view .LVU246
 949 0012 0023     		movs	r3, #0
 950 0014 84F88032 		strb	r3, [r4, #640]
 359:SynaptiX_FDK/components/modules/a76xx/a7677s.c **** }
 951              		.loc 1 359 5 is_stmt 1 view .LVU247
 359:SynaptiX_FDK/components/modules/a76xx/a7677s.c **** }
 952              		.loc 1 359 24 is_stmt 0 view .LVU248
 953 0018 C4F88432 		str	r3, [r4, #644]
 360:SynaptiX_FDK/components/modules/a76xx/a7677s.c **** 
 954              		.loc 1 360 1 view .LVU249
 955 001c 10BD     		pop	{r4, pc}
 956              	.LVL109:
 957              	.L68:
 356:SynaptiX_FDK/components/modules/a76xx/a7677s.c ****     }
 958              		.loc 1 356 9 is_stmt 1 view .LVU250
 959 001e 054A     		ldr	r2, .L71+8
 960              	.LVL110:
 356:SynaptiX_FDK/components/modules/a76xx/a7677s.c ****     }
 961              		.loc 1 356 9 is_stmt 0 view .LVU251
 962 0020 0349     		ldr	r1, .L71+4
 963              	.LVL111:
 356:SynaptiX_FDK/components/modules/a76xx/a7677s.c ****     }
 964              		.loc 1 356 9 view .LVU252
 965 0022 0320     		movs	r0, #3
 966              	.LVL112:
 356:SynaptiX_FDK/components/modules/a76xx/a7677s.c ****     }
 967              		.loc 1 356 9 view .LVU253
 968 0024 FFF7FEFF 		bl	log_func
ARM GAS  C:\Users\DELL\AppData\Local\Temp\ccL84Lpd.s 			page 53


 969              	.LVL113:
 356:SynaptiX_FDK/components/modules/a76xx/a7677s.c ****     }
 970              		.loc 1 356 9 view .LVU254
 971 0028 F3E7     		b	.L69
 972              	.L72:
 973 002a 00BF     		.align	2
 974              	.L71:
 975 002c 00000000 		.word	.LC11
 976 0030 24000000 		.word	.LC1
 977 0034 2C000000 		.word	.LC12
 978              		.cfi_endproc
 979              	.LFE20:
 981              		.section	.rodata.a7677s_power_on_start.str1.4,"aMS",%progbits,1
 982              		.align	2
 983              	.LC13:
 984 0000 506F7765 		.ascii	"Power On start\000"
 984      72204F6E 
 984      20737461 
 984      727400
 985              		.section	.text.a7677s_power_on_start,"ax",%progbits
 986              		.align	1
 987              		.syntax unified
 988              		.thumb
 989              		.thumb_func
 991              	a7677s_power_on_start:
 992              	.LVL114:
 993              	.LFB14:
 258:SynaptiX_FDK/components/modules/a76xx/a7677s.c ****     a7677s_t *dce = (a7677s_t *)ctx;
 994              		.loc 1 258 1 is_stmt 1 view -0
 995              		.cfi_startproc
 996              		@ args = 0, pretend = 0, frame = 0
 997              		@ frame_needed = 0, uses_anonymous_args = 0
 258:SynaptiX_FDK/components/modules/a76xx/a7677s.c ****     a7677s_t *dce = (a7677s_t *)ctx;
 998              		.loc 1 258 1 is_stmt 0 view .LVU256
 999 0000 10B5     		push	{r4, lr}
 1000              	.LCFI8:
 1001              		.cfi_def_cfa_offset 8
 1002              		.cfi_offset 4, -8
 1003              		.cfi_offset 14, -4
 1004 0002 0446     		mov	r4, r0
 259:SynaptiX_FDK/components/modules/a76xx/a7677s.c **** 
 1005              		.loc 1 259 5 is_stmt 1 view .LVU257
 1006              	.LVL115:
 261:SynaptiX_FDK/components/modules/a76xx/a7677s.c ****     dce->power_state      = A7677S_PWR_PULSE_HIGH;
 1007              		.loc 1 261 5 view .LVU258
 1008 0004 084A     		ldr	r2, .L75
 1009 0006 0949     		ldr	r1, .L75+4
 1010 0008 0320     		movs	r0, #3
 1011              	.LVL116:
 261:SynaptiX_FDK/components/modules/a76xx/a7677s.c ****     dce->power_state      = A7677S_PWR_PULSE_HIGH;
 1012              		.loc 1 261 5 is_stmt 0 view .LVU259
 1013 000a FFF7FEFF 		bl	log_func
 1014              	.LVL117:
 262:SynaptiX_FDK/components/modules/a76xx/a7677s.c ****     dce->power_elapsed    = 0;
 1015              		.loc 1 262 5 is_stmt 1 view .LVU260
 262:SynaptiX_FDK/components/modules/a76xx/a7677s.c ****     dce->power_elapsed    = 0;
 1016              		.loc 1 262 27 is_stmt 0 view .LVU261
ARM GAS  C:\Users\DELL\AppData\Local\Temp\ccL84Lpd.s 			page 54


 1017 000e 0121     		movs	r1, #1
 1018 0010 84F88012 		strb	r1, [r4, #640]
 263:SynaptiX_FDK/components/modules/a76xx/a7677s.c ****     dce->at_probe_pending = 0;
 1019              		.loc 1 263 5 is_stmt 1 view .LVU262
 263:SynaptiX_FDK/components/modules/a76xx/a7677s.c ****     dce->at_probe_pending = 0;
 1020              		.loc 1 263 27 is_stmt 0 view .LVU263
 1021 0014 0023     		movs	r3, #0
 1022 0016 C4F88432 		str	r3, [r4, #644]
 264:SynaptiX_FDK/components/modules/a76xx/a7677s.c ****     /* PWRKEY pulse pattern is identical to sim76xx (same physical circuit),
 1023              		.loc 1 264 5 is_stmt 1 view .LVU264
 264:SynaptiX_FDK/components/modules/a76xx/a7677s.c ****     /* PWRKEY pulse pattern is identical to sim76xx (same physical circuit),
 1024              		.loc 1 264 27 is_stmt 0 view .LVU265
 1025 001a 84F88832 		strb	r3, [r4, #648]
 268:SynaptiX_FDK/components/modules/a76xx/a7677s.c **** }
 1026              		.loc 1 268 5 is_stmt 1 view .LVU266
 1027 001e 04F51270 		add	r0, r4, #584
 1028 0022 FFF7FEFF 		bl	sx_gpio_write
 1029              	.LVL118:
 269:SynaptiX_FDK/components/modules/a76xx/a7677s.c **** 
 1030              		.loc 1 269 1 is_stmt 0 view .LVU267
 1031 0026 10BD     		pop	{r4, pc}
 1032              	.LVL119:
 1033              	.L76:
 269:SynaptiX_FDK/components/modules/a76xx/a7677s.c **** 
 1034              		.loc 1 269 1 view .LVU268
 1035              		.align	2
 1036              	.L75:
 1037 0028 00000000 		.word	.LC13
 1038 002c 24000000 		.word	.LC1
 1039              		.cfi_endproc
 1040              	.LFE14:
 1042              		.section	.rodata.send_init_dynamic.str1.4,"aMS",%progbits,1
 1043              		.align	2
 1044              	.LC14:
 1045 0000 0D0A4F4B 		.ascii	"\015\012OK\015\012\000"
 1045      0D0A00
 1046 0007 00       		.align	2
 1047              	.LC15:
 1048 0008 0D0A4552 		.ascii	"\015\012ERROR\015\012\000"
 1048      524F520D 
 1048      0A00
 1049 0012 0000     		.align	2
 1050              	.LC16:
 1051 0014 494E4954 		.ascii	"INIT CMD: %s\000"
 1051      20434D44 
 1051      3A202573 
 1051      00
 1052              		.section	.text.send_init_dynamic,"ax",%progbits
 1053              		.align	1
 1054              		.syntax unified
 1055              		.thumb
 1056              		.thumb_func
 1058              	send_init_dynamic:
 1059              	.LVL120:
 1060              	.LFB23:
 508:SynaptiX_FDK/components/modules/a76xx/a7677s.c ****     command[CMD_DYNAMIC].cmd         = cmd_str;
 1061              		.loc 1 508 1 is_stmt 1 view -0
ARM GAS  C:\Users\DELL\AppData\Local\Temp\ccL84Lpd.s 			page 55


 1062              		.cfi_startproc
 1063              		@ args = 0, pretend = 0, frame = 0
 1064              		@ frame_needed = 0, uses_anonymous_args = 0
 508:SynaptiX_FDK/components/modules/a76xx/a7677s.c ****     command[CMD_DYNAMIC].cmd         = cmd_str;
 1065              		.loc 1 508 1 is_stmt 0 view .LVU270
 1066 0000 70B5     		push	{r4, r5, r6, lr}
 1067              	.LCFI9:
 1068              		.cfi_def_cfa_offset 16
 1069              		.cfi_offset 4, -16
 1070              		.cfi_offset 5, -12
 1071              		.cfi_offset 6, -8
 1072              		.cfi_offset 14, -4
 1073 0002 0546     		mov	r5, r0
 1074 0004 1E46     		mov	r6, r3
 509:SynaptiX_FDK/components/modules/a76xx/a7677s.c ****     command[CMD_DYNAMIC].res_success = "\r\nOK\r\n";
 1075              		.loc 1 509 5 is_stmt 1 view .LVU271
 509:SynaptiX_FDK/components/modules/a76xx/a7677s.c ****     command[CMD_DYNAMIC].res_success = "\r\nOK\r\n";
 1076              		.loc 1 509 38 is_stmt 0 view .LVU272
 1077 0006 0E4C     		ldr	r4, .L79
 1078 0008 C4F8F010 		str	r1, [r4, #240]
 510:SynaptiX_FDK/components/modules/a76xx/a7677s.c ****     command[CMD_DYNAMIC].res_fail    = "\r\nERROR\r\n";
 1079              		.loc 1 510 5 is_stmt 1 view .LVU273
 510:SynaptiX_FDK/components/modules/a76xx/a7677s.c ****     command[CMD_DYNAMIC].res_fail    = "\r\nERROR\r\n";
 1080              		.loc 1 510 38 is_stmt 0 view .LVU274
 1081 000c 0D4B     		ldr	r3, .L79+4
 1082              	.LVL121:
 510:SynaptiX_FDK/components/modules/a76xx/a7677s.c ****     command[CMD_DYNAMIC].res_fail    = "\r\nERROR\r\n";
 1083              		.loc 1 510 38 view .LVU275
 1084 000e C4F8F430 		str	r3, [r4, #244]
 511:SynaptiX_FDK/components/modules/a76xx/a7677s.c ****     command[CMD_DYNAMIC].callback    = cb;
 1085              		.loc 1 511 5 is_stmt 1 view .LVU276
 511:SynaptiX_FDK/components/modules/a76xx/a7677s.c ****     command[CMD_DYNAMIC].callback    = cb;
 1086              		.loc 1 511 38 is_stmt 0 view .LVU277
 1087 0012 0D4B     		ldr	r3, .L79+8
 1088 0014 C4F8F830 		str	r3, [r4, #248]
 512:SynaptiX_FDK/components/modules/a76xx/a7677s.c ****     command[CMD_DYNAMIC].arg         = dce;
 1089              		.loc 1 512 5 is_stmt 1 view .LVU278
 512:SynaptiX_FDK/components/modules/a76xx/a7677s.c ****     command[CMD_DYNAMIC].arg         = dce;
 1090              		.loc 1 512 38 is_stmt 0 view .LVU279
 1091 0018 C4F8FC20 		str	r2, [r4, #252]
 513:SynaptiX_FDK/components/modules/a76xx/a7677s.c ****     dce->init_cmd_pending = 1;
 1092              		.loc 1 513 5 is_stmt 1 view .LVU280
 513:SynaptiX_FDK/components/modules/a76xx/a7677s.c ****     dce->init_cmd_pending = 1;
 1093              		.loc 1 513 38 is_stmt 0 view .LVU281
 1094 001c C4F80001 		str	r0, [r4, #256]
 514:SynaptiX_FDK/components/modules/a76xx/a7677s.c ****     log_debug(TAG, "INIT CMD: %s", cmd_str);
 1095              		.loc 1 514 5 is_stmt 1 view .LVU282
 514:SynaptiX_FDK/components/modules/a76xx/a7677s.c ****     log_debug(TAG, "INIT CMD: %s", cmd_str);
 1096              		.loc 1 514 27 is_stmt 0 view .LVU283
 1097 0020 0123     		movs	r3, #1
 1098 0022 80F89232 		strb	r3, [r0, #658]
 515:SynaptiX_FDK/components/modules/a76xx/a7677s.c ****     modem_send_command(pModem(dce), &command[CMD_DYNAMIC], timeout_ms);
 1099              		.loc 1 515 5 is_stmt 1 view .LVU284
 1100 0026 0B46     		mov	r3, r1
 1101 0028 084A     		ldr	r2, .L79+12
 1102              	.LVL122:
 515:SynaptiX_FDK/components/modules/a76xx/a7677s.c ****     modem_send_command(pModem(dce), &command[CMD_DYNAMIC], timeout_ms);
ARM GAS  C:\Users\DELL\AppData\Local\Temp\ccL84Lpd.s 			page 56


 1103              		.loc 1 515 5 is_stmt 0 view .LVU285
 1104 002a 0949     		ldr	r1, .L79+16
 1105              	.LVL123:
 515:SynaptiX_FDK/components/modules/a76xx/a7677s.c ****     modem_send_command(pModem(dce), &command[CMD_DYNAMIC], timeout_ms);
 1106              		.loc 1 515 5 view .LVU286
 1107 002c 0420     		movs	r0, #4
 1108              	.LVL124:
 515:SynaptiX_FDK/components/modules/a76xx/a7677s.c ****     modem_send_command(pModem(dce), &command[CMD_DYNAMIC], timeout_ms);
 1109              		.loc 1 515 5 view .LVU287
 1110 002e FFF7FEFF 		bl	log_func
 1111              	.LVL125:
 516:SynaptiX_FDK/components/modules/a76xx/a7677s.c **** }
 1112              		.loc 1 516 5 is_stmt 1 view .LVU288
 1113 0032 3246     		mov	r2, r6
 1114 0034 04F1F001 		add	r1, r4, #240
 1115 0038 2846     		mov	r0, r5
 1116 003a FFF7FEFF 		bl	modem_send_command
 1117              	.LVL126:
 517:SynaptiX_FDK/components/modules/a76xx/a7677s.c **** 
 1118              		.loc 1 517 1 is_stmt 0 view .LVU289
 1119 003e 70BD     		pop	{r4, r5, r6, pc}
 1120              	.LVL127:
 1121              	.L80:
 517:SynaptiX_FDK/components/modules/a76xx/a7677s.c **** 
 1122              		.loc 1 517 1 view .LVU290
 1123              		.align	2
 1124              	.L79:
 1125 0040 00000000 		.word	command
 1126 0044 00000000 		.word	.LC14
 1127 0048 08000000 		.word	.LC15
 1128 004c 14000000 		.word	.LC16
 1129 0050 24000000 		.word	.LC1
 1130              		.cfi_endproc
 1131              	.LFE23:
 1133              		.section	.text.send_init_cmd,"ax",%progbits
 1134              		.align	1
 1135              		.syntax unified
 1136              		.thumb
 1137              		.thumb_func
 1139              	send_init_cmd:
 1140              	.LVL128:
 1141              	.LFB22:
 499:SynaptiX_FDK/components/modules/a76xx/a7677s.c ****     command[idx].callback = cb;
 1142              		.loc 1 499 1 is_stmt 1 view -0
 1143              		.cfi_startproc
 1144              		@ args = 0, pretend = 0, frame = 0
 1145              		@ frame_needed = 0, uses_anonymous_args = 0
 499:SynaptiX_FDK/components/modules/a76xx/a7677s.c ****     command[idx].callback = cb;
 1146              		.loc 1 499 1 is_stmt 0 view .LVU292
 1147 0000 2DE9F041 		push	{r4, r5, r6, r7, r8, lr}
 1148              	.LCFI10:
 1149              		.cfi_def_cfa_offset 24
 1150              		.cfi_offset 4, -24
 1151              		.cfi_offset 5, -20
 1152              		.cfi_offset 6, -16
 1153              		.cfi_offset 7, -12
 1154              		.cfi_offset 8, -8
ARM GAS  C:\Users\DELL\AppData\Local\Temp\ccL84Lpd.s 			page 57


 1155              		.cfi_offset 14, -4
 1156 0004 0546     		mov	r5, r0
 1157 0006 0C46     		mov	r4, r1
 1158 0008 9846     		mov	r8, r3
 500:SynaptiX_FDK/components/modules/a76xx/a7677s.c ****     command[idx].arg      = dce;
 1159              		.loc 1 500 5 is_stmt 1 view .LVU293
 500:SynaptiX_FDK/components/modules/a76xx/a7677s.c ****     command[idx].arg      = dce;
 1160              		.loc 1 500 27 is_stmt 0 view .LVU294
 1161 000a 0D4E     		ldr	r6, .L83
 1162 000c 8F00     		lsls	r7, r1, #2
 1163 000e 01EB8103 		add	r3, r1, r1, lsl #2
 1164              	.LVL129:
 500:SynaptiX_FDK/components/modules/a76xx/a7677s.c ****     command[idx].arg      = dce;
 1165              		.loc 1 500 27 view .LVU295
 1166 0012 06EB8301 		add	r1, r6, r3, lsl #2
 1167              	.LVL130:
 500:SynaptiX_FDK/components/modules/a76xx/a7677s.c ****     command[idx].arg      = dce;
 1168              		.loc 1 500 27 view .LVU296
 1169 0016 CA60     		str	r2, [r1, #12]
 501:SynaptiX_FDK/components/modules/a76xx/a7677s.c ****     dce->init_cmd_pending = 1;
 1170              		.loc 1 501 5 is_stmt 1 view .LVU297
 501:SynaptiX_FDK/components/modules/a76xx/a7677s.c ****     dce->init_cmd_pending = 1;
 1171              		.loc 1 501 27 is_stmt 0 view .LVU298
 1172 0018 0861     		str	r0, [r1, #16]
