ARM GAS  C:\Users\DELL\AppData\Local\Temp\ccSfED1Y.s 			page 1


   1              		.cpu cortex-m33
   2              		.arch armv8-m.main
   3              		.fpu fpv5-sp-d16
   4              		.arch_extension dsp
   5              		.eabi_attribute 27, 1
   6              		.eabi_attribute 28, 1
   7              		.eabi_attribute 20, 1
   8              		.eabi_attribute 21, 1
   9              		.eabi_attribute 23, 3
  10              		.eabi_attribute 24, 1
  11              		.eabi_attribute 25, 1
  12              		.eabi_attribute 26, 1
  13              		.eabi_attribute 30, 1
  14              		.eabi_attribute 34, 1
  15              		.eabi_attribute 18, 4
  16              		.file	"cdc_device.c"
  17              		.text
  18              	.Ltext0:
  19              		.cfi_sections	.debug_frame
  20              		.file 1 "SynaptiX_FDK/lib/tinyusb/src/class/cdc/cdc_device.c"
  21              		.section	.text.tud_cdc_rx_cb,"ax",%progbits
  22              		.align	1
  23              		.weak	tud_cdc_rx_cb
  24              		.syntax unified
  25              		.thumb
  26              		.thumb_func
  28              	tud_cdc_rx_cb:
  29              	.LVL0:
  30              	.LFB443:
   1:SynaptiX_FDK/lib/tinyusb/src/class/cdc/cdc_device.c **** /*
   2:SynaptiX_FDK/lib/tinyusb/src/class/cdc/cdc_device.c ****  * The MIT License (MIT)
   3:SynaptiX_FDK/lib/tinyusb/src/class/cdc/cdc_device.c ****  *
   4:SynaptiX_FDK/lib/tinyusb/src/class/cdc/cdc_device.c ****  * Copyright (c) 2019 Ha Thach (tinyusb.org)
   5:SynaptiX_FDK/lib/tinyusb/src/class/cdc/cdc_device.c ****  *
   6:SynaptiX_FDK/lib/tinyusb/src/class/cdc/cdc_device.c ****  * Permission is hereby granted, free of charge, to any person obtaining a copy
   7:SynaptiX_FDK/lib/tinyusb/src/class/cdc/cdc_device.c ****  * of this software and associated documentation files (the "Software"), to deal
   8:SynaptiX_FDK/lib/tinyusb/src/class/cdc/cdc_device.c ****  * in the Software without restriction, including without limitation the rights
   9:SynaptiX_FDK/lib/tinyusb/src/class/cdc/cdc_device.c ****  * to use, copy, modify, merge, publish, distribute, sublicense, and/or sell
  10:SynaptiX_FDK/lib/tinyusb/src/class/cdc/cdc_device.c ****  * copies of the Software, and to permit persons to whom the Software is
  11:SynaptiX_FDK/lib/tinyusb/src/class/cdc/cdc_device.c ****  * furnished to do so, subject to the following conditions:
  12:SynaptiX_FDK/lib/tinyusb/src/class/cdc/cdc_device.c ****  *
  13:SynaptiX_FDK/lib/tinyusb/src/class/cdc/cdc_device.c ****  * The above copyright notice and this permission notice shall be included in
  14:SynaptiX_FDK/lib/tinyusb/src/class/cdc/cdc_device.c ****  * all copies or substantial portions of the Software.
  15:SynaptiX_FDK/lib/tinyusb/src/class/cdc/cdc_device.c ****  *
  16:SynaptiX_FDK/lib/tinyusb/src/class/cdc/cdc_device.c ****  * THE SOFTWARE IS PROVIDED "AS IS", WITHOUT WARRANTY OF ANY KIND, EXPRESS OR
  17:SynaptiX_FDK/lib/tinyusb/src/class/cdc/cdc_device.c ****  * IMPLIED, INCLUDING BUT NOT LIMITED TO THE WARRANTIES OF MERCHANTABILITY,
  18:SynaptiX_FDK/lib/tinyusb/src/class/cdc/cdc_device.c ****  * FITNESS FOR A PARTICULAR PURPOSE AND NONINFRINGEMENT. IN NO EVENT SHALL THE
  19:SynaptiX_FDK/lib/tinyusb/src/class/cdc/cdc_device.c ****  * AUTHORS OR COPYRIGHT HOLDERS BE LIABLE FOR ANY CLAIM, DAMAGES OR OTHER
  20:SynaptiX_FDK/lib/tinyusb/src/class/cdc/cdc_device.c ****  * LIABILITY, WHETHER IN AN ACTION OF CONTRACT, TORT OR OTHERWISE, ARISING FROM,
  21:SynaptiX_FDK/lib/tinyusb/src/class/cdc/cdc_device.c ****  * OUT OF OR IN CONNECTION WITH THE SOFTWARE OR THE USE OR OTHER DEALINGS IN
  22:SynaptiX_FDK/lib/tinyusb/src/class/cdc/cdc_device.c ****  * THE SOFTWARE.
  23:SynaptiX_FDK/lib/tinyusb/src/class/cdc/cdc_device.c ****  *
  24:SynaptiX_FDK/lib/tinyusb/src/class/cdc/cdc_device.c ****  * This file is part of the TinyUSB stack.
  25:SynaptiX_FDK/lib/tinyusb/src/class/cdc/cdc_device.c ****  */
  26:SynaptiX_FDK/lib/tinyusb/src/class/cdc/cdc_device.c **** 
  27:SynaptiX_FDK/lib/tinyusb/src/class/cdc/cdc_device.c **** #include "tusb_option.h"
  28:SynaptiX_FDK/lib/tinyusb/src/class/cdc/cdc_device.c **** 
ARM GAS  C:\Users\DELL\AppData\Local\Temp\ccSfED1Y.s 			page 2


  29:SynaptiX_FDK/lib/tinyusb/src/class/cdc/cdc_device.c **** #if (CFG_TUD_ENABLED && CFG_TUD_CDC)
  30:SynaptiX_FDK/lib/tinyusb/src/class/cdc/cdc_device.c **** 
  31:SynaptiX_FDK/lib/tinyusb/src/class/cdc/cdc_device.c **** #include "device/usbd.h"
  32:SynaptiX_FDK/lib/tinyusb/src/class/cdc/cdc_device.c **** #include "device/usbd_pvt.h"
  33:SynaptiX_FDK/lib/tinyusb/src/class/cdc/cdc_device.c **** 
  34:SynaptiX_FDK/lib/tinyusb/src/class/cdc/cdc_device.c **** #include "cdc_device.h"
  35:SynaptiX_FDK/lib/tinyusb/src/class/cdc/cdc_device.c **** 
  36:SynaptiX_FDK/lib/tinyusb/src/class/cdc/cdc_device.c **** // Level where CFG_TUSB_DEBUG must be at least for this driver is logged
  37:SynaptiX_FDK/lib/tinyusb/src/class/cdc/cdc_device.c **** #ifndef CFG_TUD_CDC_LOG_LEVEL
  38:SynaptiX_FDK/lib/tinyusb/src/class/cdc/cdc_device.c ****   #define CFG_TUD_CDC_LOG_LEVEL   CFG_TUD_LOG_LEVEL
  39:SynaptiX_FDK/lib/tinyusb/src/class/cdc/cdc_device.c **** #endif
  40:SynaptiX_FDK/lib/tinyusb/src/class/cdc/cdc_device.c **** 
  41:SynaptiX_FDK/lib/tinyusb/src/class/cdc/cdc_device.c **** #define TU_LOG_DRV(...)   TU_LOG(CFG_TUD_CDC_LOG_LEVEL, __VA_ARGS__)
  42:SynaptiX_FDK/lib/tinyusb/src/class/cdc/cdc_device.c **** 
  43:SynaptiX_FDK/lib/tinyusb/src/class/cdc/cdc_device.c **** //--------------------------------------------------------------------+
  44:SynaptiX_FDK/lib/tinyusb/src/class/cdc/cdc_device.c **** // MACRO CONSTANT TYPEDEF
  45:SynaptiX_FDK/lib/tinyusb/src/class/cdc/cdc_device.c **** //--------------------------------------------------------------------+
  46:SynaptiX_FDK/lib/tinyusb/src/class/cdc/cdc_device.c **** typedef struct {
  47:SynaptiX_FDK/lib/tinyusb/src/class/cdc/cdc_device.c ****   uint8_t rhport;
  48:SynaptiX_FDK/lib/tinyusb/src/class/cdc/cdc_device.c ****   uint8_t itf_num;
  49:SynaptiX_FDK/lib/tinyusb/src/class/cdc/cdc_device.c ****   uint8_t ep_notify;
  50:SynaptiX_FDK/lib/tinyusb/src/class/cdc/cdc_device.c ****   uint8_t line_state; // Bit 0: DTR, Bit 1: RTS
  51:SynaptiX_FDK/lib/tinyusb/src/class/cdc/cdc_device.c **** 
  52:SynaptiX_FDK/lib/tinyusb/src/class/cdc/cdc_device.c ****   /*------------- From this point, data is not cleared by bus reset -------------*/
  53:SynaptiX_FDK/lib/tinyusb/src/class/cdc/cdc_device.c ****   TU_ATTR_ALIGNED(4) cdc_line_coding_t line_coding;
  54:SynaptiX_FDK/lib/tinyusb/src/class/cdc/cdc_device.c ****   char wanted_char;
  55:SynaptiX_FDK/lib/tinyusb/src/class/cdc/cdc_device.c **** 
  56:SynaptiX_FDK/lib/tinyusb/src/class/cdc/cdc_device.c ****   tu_edpt_stream_t tx_stream;
  57:SynaptiX_FDK/lib/tinyusb/src/class/cdc/cdc_device.c ****   tu_edpt_stream_t rx_stream;
  58:SynaptiX_FDK/lib/tinyusb/src/class/cdc/cdc_device.c **** 
  59:SynaptiX_FDK/lib/tinyusb/src/class/cdc/cdc_device.c ****   uint8_t tx_ff_buf[CFG_TUD_CDC_TX_BUFSIZE];
  60:SynaptiX_FDK/lib/tinyusb/src/class/cdc/cdc_device.c ****   uint8_t rx_ff_buf[CFG_TUD_CDC_RX_BUFSIZE];
  61:SynaptiX_FDK/lib/tinyusb/src/class/cdc/cdc_device.c **** } cdcd_interface_t;
  62:SynaptiX_FDK/lib/tinyusb/src/class/cdc/cdc_device.c **** 
  63:SynaptiX_FDK/lib/tinyusb/src/class/cdc/cdc_device.c **** #define ITF_MEM_RESET_SIZE offsetof(cdcd_interface_t, line_coding)
  64:SynaptiX_FDK/lib/tinyusb/src/class/cdc/cdc_device.c **** 
  65:SynaptiX_FDK/lib/tinyusb/src/class/cdc/cdc_device.c **** // Skip local EP buffer if dedicated hw FIFO is supported
  66:SynaptiX_FDK/lib/tinyusb/src/class/cdc/cdc_device.c **** #if CFG_TUD_EDPT_DEDICATED_HWFIFO == 0
  67:SynaptiX_FDK/lib/tinyusb/src/class/cdc/cdc_device.c **** typedef struct {
  68:SynaptiX_FDK/lib/tinyusb/src/class/cdc/cdc_device.c ****   TUD_EPBUF_DEF(epout, CFG_TUD_CDC_RX_EPSIZE);
  69:SynaptiX_FDK/lib/tinyusb/src/class/cdc/cdc_device.c ****   TUD_EPBUF_DEF(epin, CFG_TUD_CDC_TX_EPSIZE);
  70:SynaptiX_FDK/lib/tinyusb/src/class/cdc/cdc_device.c **** 
  71:SynaptiX_FDK/lib/tinyusb/src/class/cdc/cdc_device.c ****   #if CFG_TUD_CDC_NOTIFY
  72:SynaptiX_FDK/lib/tinyusb/src/class/cdc/cdc_device.c ****   TUD_EPBUF_TYPE_DEF(cdc_notify_msg_t, epnotify);
  73:SynaptiX_FDK/lib/tinyusb/src/class/cdc/cdc_device.c ****   #endif
  74:SynaptiX_FDK/lib/tinyusb/src/class/cdc/cdc_device.c **** } cdcd_epbuf_t;
  75:SynaptiX_FDK/lib/tinyusb/src/class/cdc/cdc_device.c **** 
  76:SynaptiX_FDK/lib/tinyusb/src/class/cdc/cdc_device.c **** CFG_TUD_MEM_SECTION static cdcd_epbuf_t _cdcd_epbuf[CFG_TUD_CDC];
  77:SynaptiX_FDK/lib/tinyusb/src/class/cdc/cdc_device.c **** #endif
  78:SynaptiX_FDK/lib/tinyusb/src/class/cdc/cdc_device.c **** 
  79:SynaptiX_FDK/lib/tinyusb/src/class/cdc/cdc_device.c **** //--------------------------------------------------------------------+
  80:SynaptiX_FDK/lib/tinyusb/src/class/cdc/cdc_device.c **** // Weak stubs: invoked if no strong implementation is available
  81:SynaptiX_FDK/lib/tinyusb/src/class/cdc/cdc_device.c **** //--------------------------------------------------------------------+
  82:SynaptiX_FDK/lib/tinyusb/src/class/cdc/cdc_device.c **** TU_ATTR_WEAK void tud_cdc_rx_cb(uint8_t itf) {
  31              		.loc 1 82 46 view -0
  32              		.cfi_startproc
  33              		@ args = 0, pretend = 0, frame = 0
ARM GAS  C:\Users\DELL\AppData\Local\Temp\ccSfED1Y.s 			page 3


  34              		@ frame_needed = 0, uses_anonymous_args = 0
  35              		@ link register save eliminated.
  83:SynaptiX_FDK/lib/tinyusb/src/class/cdc/cdc_device.c ****   (void)itf;
  36              		.loc 1 83 3 view .LVU1
  84:SynaptiX_FDK/lib/tinyusb/src/class/cdc/cdc_device.c **** }
  37              		.loc 1 84 1 is_stmt 0 view .LVU2
  38 0000 7047     		bx	lr
  39              		.cfi_endproc
  40              	.LFE443:
  42              		.section	.text.tud_cdc_rx_wanted_cb,"ax",%progbits
  43              		.align	1
  44              		.weak	tud_cdc_rx_wanted_cb
  45              		.syntax unified
  46              		.thumb
  47              		.thumb_func
  49              	tud_cdc_rx_wanted_cb:
  50              	.LVL1:
  51              	.LFB444:
  85:SynaptiX_FDK/lib/tinyusb/src/class/cdc/cdc_device.c **** 
  86:SynaptiX_FDK/lib/tinyusb/src/class/cdc/cdc_device.c **** TU_ATTR_WEAK void tud_cdc_rx_wanted_cb(uint8_t itf, char wanted_char) {
  52              		.loc 1 86 71 is_stmt 1 view -0
  53              		.cfi_startproc
  54              		@ args = 0, pretend = 0, frame = 0
  55              		@ frame_needed = 0, uses_anonymous_args = 0
  56              		@ link register save eliminated.
  87:SynaptiX_FDK/lib/tinyusb/src/class/cdc/cdc_device.c ****   (void)itf;
  57              		.loc 1 87 3 view .LVU4
  88:SynaptiX_FDK/lib/tinyusb/src/class/cdc/cdc_device.c ****   (void)wanted_char;
  58              		.loc 1 88 3 view .LVU5
  89:SynaptiX_FDK/lib/tinyusb/src/class/cdc/cdc_device.c **** }
  59              		.loc 1 89 1 is_stmt 0 view .LVU6
  60 0000 7047     		bx	lr
  61              		.cfi_endproc
  62              	.LFE444:
  64              		.section	.text.tud_cdc_tx_complete_cb,"ax",%progbits
  65              		.align	1
  66              		.weak	tud_cdc_tx_complete_cb
  67              		.syntax unified
  68              		.thumb
  69              		.thumb_func
  71              	tud_cdc_tx_complete_cb:
  72              	.LVL2:
  73              	.LFB445:
  90:SynaptiX_FDK/lib/tinyusb/src/class/cdc/cdc_device.c **** 
  91:SynaptiX_FDK/lib/tinyusb/src/class/cdc/cdc_device.c **** TU_ATTR_WEAK void tud_cdc_tx_complete_cb(uint8_t itf) {
  74              		.loc 1 91 55 is_stmt 1 view -0
  75              		.cfi_startproc
  76              		@ args = 0, pretend = 0, frame = 0
  77              		@ frame_needed = 0, uses_anonymous_args = 0
  78              		@ link register save eliminated.
  92:SynaptiX_FDK/lib/tinyusb/src/class/cdc/cdc_device.c ****   (void)itf;
  79              		.loc 1 92 3 view .LVU8
  93:SynaptiX_FDK/lib/tinyusb/src/class/cdc/cdc_device.c **** }
  80              		.loc 1 93 1 is_stmt 0 view .LVU9
  81 0000 7047     		bx	lr
  82              		.cfi_endproc
  83              	.LFE445:
ARM GAS  C:\Users\DELL\AppData\Local\Temp\ccSfED1Y.s 			page 4


  85              		.section	.text.tud_cdc_notify_complete_cb,"ax",%progbits
  86              		.align	1
  87              		.weak	tud_cdc_notify_complete_cb
  88              		.syntax unified
  89              		.thumb
  90              		.thumb_func
  92              	tud_cdc_notify_complete_cb:
  93              	.LVL3:
  94              	.LFB446:
  94:SynaptiX_FDK/lib/tinyusb/src/class/cdc/cdc_device.c **** 
  95:SynaptiX_FDK/lib/tinyusb/src/class/cdc/cdc_device.c **** TU_ATTR_WEAK void tud_cdc_notify_complete_cb(uint8_t itf) {
  95              		.loc 1 95 59 is_stmt 1 view -0
  96              		.cfi_startproc
  97              		@ args = 0, pretend = 0, frame = 0
  98              		@ frame_needed = 0, uses_anonymous_args = 0
  99              		@ link register save eliminated.
  96:SynaptiX_FDK/lib/tinyusb/src/class/cdc/cdc_device.c ****   (void)itf;
 100              		.loc 1 96 3 view .LVU11
  97:SynaptiX_FDK/lib/tinyusb/src/class/cdc/cdc_device.c **** }
 101              		.loc 1 97 1 is_stmt 0 view .LVU12
 102 0000 7047     		bx	lr
 103              		.cfi_endproc
 104              	.LFE446:
 106              		.section	.text.tud_cdc_line_state_cb,"ax",%progbits
 107              		.align	1
 108              		.weak	tud_cdc_line_state_cb
 109              		.syntax unified
 110              		.thumb
 111              		.thumb_func
 113              	tud_cdc_line_state_cb:
 114              	.LVL4:
 115              	.LFB447:
  98:SynaptiX_FDK/lib/tinyusb/src/class/cdc/cdc_device.c **** 
  99:SynaptiX_FDK/lib/tinyusb/src/class/cdc/cdc_device.c **** TU_ATTR_WEAK void tud_cdc_line_state_cb(uint8_t itf, bool dtr, bool rts) {
 116              		.loc 1 99 74 is_stmt 1 view -0
 117              		.cfi_startproc
 118              		@ args = 0, pretend = 0, frame = 0
 119              		@ frame_needed = 0, uses_anonymous_args = 0
 120              		@ link register save eliminated.
 100:SynaptiX_FDK/lib/tinyusb/src/class/cdc/cdc_device.c ****   (void)itf;
 121              		.loc 1 100 3 view .LVU14
 101:SynaptiX_FDK/lib/tinyusb/src/class/cdc/cdc_device.c ****   (void)dtr;
 122              		.loc 1 101 3 view .LVU15
 102:SynaptiX_FDK/lib/tinyusb/src/class/cdc/cdc_device.c ****   (void)rts;
 123              		.loc 1 102 3 view .LVU16
 103:SynaptiX_FDK/lib/tinyusb/src/class/cdc/cdc_device.c **** }
 124              		.loc 1 103 1 is_stmt 0 view .LVU17
 125 0000 7047     		bx	lr
 126              		.cfi_endproc
 127              	.LFE447:
 129              		.section	.text.tud_cdc_line_coding_cb,"ax",%progbits
 130              		.align	1
 131              		.weak	tud_cdc_line_coding_cb
 132              		.syntax unified
 133              		.thumb
 134              		.thumb_func
 136              	tud_cdc_line_coding_cb:
ARM GAS  C:\Users\DELL\AppData\Local\Temp\ccSfED1Y.s 			page 5


 137              	.LVL5:
 138              	.LFB448:
 104:SynaptiX_FDK/lib/tinyusb/src/class/cdc/cdc_device.c **** 
 105:SynaptiX_FDK/lib/tinyusb/src/class/cdc/cdc_device.c **** TU_ATTR_WEAK void tud_cdc_line_coding_cb(uint8_t itf, const cdc_line_coding_t *p_line_coding) {
 139              		.loc 1 105 95 is_stmt 1 view -0
 140              		.cfi_startproc
 141              		@ args = 0, pretend = 0, frame = 0
 142              		@ frame_needed = 0, uses_anonymous_args = 0
 143              		@ link register save eliminated.
 106:SynaptiX_FDK/lib/tinyusb/src/class/cdc/cdc_device.c ****   (void)itf;
 144              		.loc 1 106 3 view .LVU19
 107:SynaptiX_FDK/lib/tinyusb/src/class/cdc/cdc_device.c ****   (void)p_line_coding;
 145              		.loc 1 107 3 view .LVU20
 108:SynaptiX_FDK/lib/tinyusb/src/class/cdc/cdc_device.c **** }
 146              		.loc 1 108 1 is_stmt 0 view .LVU21
 147 0000 7047     		bx	lr
 148              		.cfi_endproc
 149              	.LFE448:
 151              		.section	.text.tud_cdc_send_break_cb,"ax",%progbits
 152              		.align	1
 153              		.weak	tud_cdc_send_break_cb
 154              		.syntax unified
 155              		.thumb
 156              		.thumb_func
 158              	tud_cdc_send_break_cb:
 159              	.LVL6:
 160              	.LFB449:
 109:SynaptiX_FDK/lib/tinyusb/src/class/cdc/cdc_device.c **** 
 110:SynaptiX_FDK/lib/tinyusb/src/class/cdc/cdc_device.c **** TU_ATTR_WEAK void tud_cdc_send_break_cb(uint8_t itf, uint16_t duration_ms) {
 161              		.loc 1 110 76 is_stmt 1 view -0
 162              		.cfi_startproc
 163              		@ args = 0, pretend = 0, frame = 0
 164              		@ frame_needed = 0, uses_anonymous_args = 0
 165              		@ link register save eliminated.
 111:SynaptiX_FDK/lib/tinyusb/src/class/cdc/cdc_device.c ****   (void)itf;
 166              		.loc 1 111 3 view .LVU23
 112:SynaptiX_FDK/lib/tinyusb/src/class/cdc/cdc_device.c ****   (void)duration_ms;
 167              		.loc 1 112 3 view .LVU24
 113:SynaptiX_FDK/lib/tinyusb/src/class/cdc/cdc_device.c **** }
 168              		.loc 1 113 1 is_stmt 0 view .LVU25
 169 0000 7047     		bx	lr
 170              		.cfi_endproc
 171              	.LFE449:
 173              		.section	.text.tud_cdc_n_ready,"ax",%progbits
 174              		.align	1
 175              		.global	tud_cdc_n_ready
 176              		.syntax unified
 177              		.thumb
 178              		.thumb_func
 180              	tud_cdc_n_ready:
 181              	.LVL7:
 182              	.LFB451:
 114:SynaptiX_FDK/lib/tinyusb/src/class/cdc/cdc_device.c **** 
 115:SynaptiX_FDK/lib/tinyusb/src/class/cdc/cdc_device.c **** //--------------------------------------------------------------------+
 116:SynaptiX_FDK/lib/tinyusb/src/class/cdc/cdc_device.c **** // INTERNAL OBJECT & FUNCTION DECLARATION
 117:SynaptiX_FDK/lib/tinyusb/src/class/cdc/cdc_device.c **** //--------------------------------------------------------------------+
 118:SynaptiX_FDK/lib/tinyusb/src/class/cdc/cdc_device.c **** static cdcd_interface_t _cdcd_itf[CFG_TUD_CDC];
ARM GAS  C:\Users\DELL\AppData\Local\Temp\ccSfED1Y.s 			page 6


 119:SynaptiX_FDK/lib/tinyusb/src/class/cdc/cdc_device.c **** 
 120:SynaptiX_FDK/lib/tinyusb/src/class/cdc/cdc_device.c **** TU_ATTR_ALWAYS_INLINE static inline uint8_t find_cdc_itf(uint8_t ep_addr) {
 121:SynaptiX_FDK/lib/tinyusb/src/class/cdc/cdc_device.c ****   for (uint8_t idx = 0; idx < CFG_TUD_CDC; idx++) {
 122:SynaptiX_FDK/lib/tinyusb/src/class/cdc/cdc_device.c ****     const cdcd_interface_t *p_cdc = &_cdcd_itf[idx];
 123:SynaptiX_FDK/lib/tinyusb/src/class/cdc/cdc_device.c ****     if (ep_addr == p_cdc->rx_stream.ep_addr || ep_addr == p_cdc->tx_stream.ep_addr ||
 124:SynaptiX_FDK/lib/tinyusb/src/class/cdc/cdc_device.c ****         (ep_addr == p_cdc->ep_notify && ep_addr != 0)) {
 125:SynaptiX_FDK/lib/tinyusb/src/class/cdc/cdc_device.c ****       return idx;
 126:SynaptiX_FDK/lib/tinyusb/src/class/cdc/cdc_device.c ****     }
 127:SynaptiX_FDK/lib/tinyusb/src/class/cdc/cdc_device.c ****   }
 128:SynaptiX_FDK/lib/tinyusb/src/class/cdc/cdc_device.c ****   return TUSB_INDEX_INVALID_8;
 129:SynaptiX_FDK/lib/tinyusb/src/class/cdc/cdc_device.c **** }
 130:SynaptiX_FDK/lib/tinyusb/src/class/cdc/cdc_device.c **** 
 131:SynaptiX_FDK/lib/tinyusb/src/class/cdc/cdc_device.c **** //--------------------------------------------------------------------+
 132:SynaptiX_FDK/lib/tinyusb/src/class/cdc/cdc_device.c **** // APPLICATION API
 133:SynaptiX_FDK/lib/tinyusb/src/class/cdc/cdc_device.c **** //--------------------------------------------------------------------+
 134:SynaptiX_FDK/lib/tinyusb/src/class/cdc/cdc_device.c **** bool tud_cdc_n_ready(uint8_t itf) {
 183              		.loc 1 134 35 is_stmt 1 view -0
 184              		.cfi_startproc
 185              		@ args = 0, pretend = 0, frame = 0
 186              		@ frame_needed = 0, uses_anonymous_args = 0
 187              		.loc 1 134 35 is_stmt 0 view .LVU27
 188 0000 38B5     		push	{r3, r4, r5, lr}
 189              	.LCFI0:
 190              		.cfi_def_cfa_offset 16
 191              		.cfi_offset 3, -16
 192              		.cfi_offset 4, -12
 193              		.cfi_offset 5, -8
 194              		.cfi_offset 14, -4
 135:SynaptiX_FDK/lib/tinyusb/src/class/cdc/cdc_device.c ****   TU_VERIFY(itf < CFG_TUD_CDC);
 195              		.loc 1 135 3 is_stmt 1 view .LVU28
 196              		.loc 1 135 3 view .LVU29
 197 0002 10B1     		cbz	r0, .L16
 198              		.loc 1 135 3 is_stmt 0 discriminator 1 view .LVU30
 199 0004 0024     		movs	r4, #0
 200              	.LVL8:
 201              	.L9:
 136:SynaptiX_FDK/lib/tinyusb/src/class/cdc/cdc_device.c ****   TU_VERIFY(tud_ready());
 137:SynaptiX_FDK/lib/tinyusb/src/class/cdc/cdc_device.c ****   const cdcd_interface_t *p_cdc = &_cdcd_itf[itf];
 138:SynaptiX_FDK/lib/tinyusb/src/class/cdc/cdc_device.c **** 
 139:SynaptiX_FDK/lib/tinyusb/src/class/cdc/cdc_device.c ****   const bool in_opened  = tu_edpt_stream_is_opened(&p_cdc->tx_stream);
 140:SynaptiX_FDK/lib/tinyusb/src/class/cdc/cdc_device.c ****   const bool out_opened = tu_edpt_stream_is_opened(&p_cdc->rx_stream);
 141:SynaptiX_FDK/lib/tinyusb/src/class/cdc/cdc_device.c ****   return in_opened && out_opened;
 142:SynaptiX_FDK/lib/tinyusb/src/class/cdc/cdc_device.c **** }
 202              		.loc 1 142 1 view .LVU31
 203 0006 2046     		mov	r0, r4
 204 0008 38BD     		pop	{r3, r4, r5, pc}
 205              	.LVL9:
 206              	.L16:
 207              		.loc 1 142 1 view .LVU32
 208 000a 0546     		mov	r5, r0
 135:SynaptiX_FDK/lib/tinyusb/src/class/cdc/cdc_device.c ****   TU_VERIFY(itf < CFG_TUD_CDC);
 209              		.loc 1 135 3 is_stmt 1 view .LVU33
 136:SynaptiX_FDK/lib/tinyusb/src/class/cdc/cdc_device.c ****   TU_VERIFY(tud_ready());
 210              		.loc 1 136 3 view .LVU34
 136:SynaptiX_FDK/lib/tinyusb/src/class/cdc/cdc_device.c ****   TU_VERIFY(tud_ready());
 211              		.loc 1 136 3 view .LVU35
 212              	.LBB131:
ARM GAS  C:\Users\DELL\AppData\Local\Temp\ccSfED1Y.s 			page 7


 213              	.LBI131:
 214              		.file 2 "SynaptiX_FDK/lib/tinyusb/src/device/usbd.h"
   1:SynaptiX_FDK/lib/tinyusb/src/device/usbd.h **** /*
   2:SynaptiX_FDK/lib/tinyusb/src/device/usbd.h ****  * The MIT License (MIT)
   3:SynaptiX_FDK/lib/tinyusb/src/device/usbd.h ****  *
   4:SynaptiX_FDK/lib/tinyusb/src/device/usbd.h ****  * Copyright (c) 2019 Ha Thach (tinyusb.org)
   5:SynaptiX_FDK/lib/tinyusb/src/device/usbd.h ****  *
   6:SynaptiX_FDK/lib/tinyusb/src/device/usbd.h ****  * Permission is hereby granted, free of charge, to any person obtaining a copy
   7:SynaptiX_FDK/lib/tinyusb/src/device/usbd.h ****  * of this software and associated documentation files (the "Software"), to deal
   8:SynaptiX_FDK/lib/tinyusb/src/device/usbd.h ****  * in the Software without restriction, including without limitation the rights
   9:SynaptiX_FDK/lib/tinyusb/src/device/usbd.h ****  * to use, copy, modify, merge, publish, distribute, sublicense, and/or sell
  10:SynaptiX_FDK/lib/tinyusb/src/device/usbd.h ****  * copies of the Software, and to permit persons to whom the Software is
  11:SynaptiX_FDK/lib/tinyusb/src/device/usbd.h ****  * furnished to do so, subject to the following conditions:
  12:SynaptiX_FDK/lib/tinyusb/src/device/usbd.h ****  *
  13:SynaptiX_FDK/lib/tinyusb/src/device/usbd.h ****  * The above copyright notice and this permission notice shall be included in
  14:SynaptiX_FDK/lib/tinyusb/src/device/usbd.h ****  * all copies or substantial portions of the Software.
  15:SynaptiX_FDK/lib/tinyusb/src/device/usbd.h ****  *
  16:SynaptiX_FDK/lib/tinyusb/src/device/usbd.h ****  * THE SOFTWARE IS PROVIDED "AS IS", WITHOUT WARRANTY OF ANY KIND, EXPRESS OR
  17:SynaptiX_FDK/lib/tinyusb/src/device/usbd.h ****  * IMPLIED, INCLUDING BUT NOT LIMITED TO THE WARRANTIES OF MERCHANTABILITY,
  18:SynaptiX_FDK/lib/tinyusb/src/device/usbd.h ****  * FITNESS FOR A PARTICULAR PURPOSE AND NONINFRINGEMENT. IN NO EVENT SHALL THE
  19:SynaptiX_FDK/lib/tinyusb/src/device/usbd.h ****  * AUTHORS OR COPYRIGHT HOLDERS BE LIABLE FOR ANY CLAIM, DAMAGES OR OTHER
  20:SynaptiX_FDK/lib/tinyusb/src/device/usbd.h ****  * LIABILITY, WHETHER IN AN ACTION OF CONTRACT, TORT OR OTHERWISE, ARISING FROM,
  21:SynaptiX_FDK/lib/tinyusb/src/device/usbd.h ****  * OUT OF OR IN CONNECTION WITH THE SOFTWARE OR THE USE OR OTHER DEALINGS IN
  22:SynaptiX_FDK/lib/tinyusb/src/device/usbd.h ****  * THE SOFTWARE.
  23:SynaptiX_FDK/lib/tinyusb/src/device/usbd.h ****  *
  24:SynaptiX_FDK/lib/tinyusb/src/device/usbd.h ****  * This file is part of the TinyUSB stack.
  25:SynaptiX_FDK/lib/tinyusb/src/device/usbd.h ****  */
  26:SynaptiX_FDK/lib/tinyusb/src/device/usbd.h **** 
  27:SynaptiX_FDK/lib/tinyusb/src/device/usbd.h **** #ifndef TUSB_USBD_H_
  28:SynaptiX_FDK/lib/tinyusb/src/device/usbd.h **** #define TUSB_USBD_H_
  29:SynaptiX_FDK/lib/tinyusb/src/device/usbd.h **** 
  30:SynaptiX_FDK/lib/tinyusb/src/device/usbd.h **** #include "common/tusb_common.h"
  31:SynaptiX_FDK/lib/tinyusb/src/device/usbd.h **** 
  32:SynaptiX_FDK/lib/tinyusb/src/device/usbd.h **** #ifdef __cplusplus
  33:SynaptiX_FDK/lib/tinyusb/src/device/usbd.h **** extern "C" {
  34:SynaptiX_FDK/lib/tinyusb/src/device/usbd.h **** #endif
  35:SynaptiX_FDK/lib/tinyusb/src/device/usbd.h **** 
  36:SynaptiX_FDK/lib/tinyusb/src/device/usbd.h **** // ConfigID for tud_configure()
  37:SynaptiX_FDK/lib/tinyusb/src/device/usbd.h **** enum {
  38:SynaptiX_FDK/lib/tinyusb/src/device/usbd.h ****   TUD_CFGID_INVALID = 0,
  39:SynaptiX_FDK/lib/tinyusb/src/device/usbd.h ****   TUD_CFGID_DWC2 = 100,
  40:SynaptiX_FDK/lib/tinyusb/src/device/usbd.h **** };
  41:SynaptiX_FDK/lib/tinyusb/src/device/usbd.h **** 
  42:SynaptiX_FDK/lib/tinyusb/src/device/usbd.h **** typedef struct {
  43:SynaptiX_FDK/lib/tinyusb/src/device/usbd.h ****   uint16_t bm_double_buffered; // bitmap of IN endpoints to be double buffered, only effective for 
  44:SynaptiX_FDK/lib/tinyusb/src/device/usbd.h ****   bool vbus_sensing; // Vbus pin is used for device connection detection, mandatory for tud_umount_
  45:SynaptiX_FDK/lib/tinyusb/src/device/usbd.h **** } tud_configure_dwc2_t;
  46:SynaptiX_FDK/lib/tinyusb/src/device/usbd.h **** 
  47:SynaptiX_FDK/lib/tinyusb/src/device/usbd.h ****   #ifndef CFG_TUD_CONFIGURE_DWC2_DEFAULT
  48:SynaptiX_FDK/lib/tinyusb/src/device/usbd.h ****     #define CFG_TUD_CONFIGURE_DWC2_DEFAULT {.bm_double_buffered = 0, .vbus_sensing = CFG_TUD_VBUS_D
  49:SynaptiX_FDK/lib/tinyusb/src/device/usbd.h ****   #endif
  50:SynaptiX_FDK/lib/tinyusb/src/device/usbd.h **** 
  51:SynaptiX_FDK/lib/tinyusb/src/device/usbd.h **** typedef union {
  52:SynaptiX_FDK/lib/tinyusb/src/device/usbd.h ****   tud_configure_dwc2_t dwc2;
  53:SynaptiX_FDK/lib/tinyusb/src/device/usbd.h **** } tud_configure_param_t;
  54:SynaptiX_FDK/lib/tinyusb/src/device/usbd.h **** 
  55:SynaptiX_FDK/lib/tinyusb/src/device/usbd.h **** //--------------------------------------------------------------------+
ARM GAS  C:\Users\DELL\AppData\Local\Temp\ccSfED1Y.s 			page 8


  56:SynaptiX_FDK/lib/tinyusb/src/device/usbd.h **** // Application API
  57:SynaptiX_FDK/lib/tinyusb/src/device/usbd.h **** //--------------------------------------------------------------------+
  58:SynaptiX_FDK/lib/tinyusb/src/device/usbd.h **** 
  59:SynaptiX_FDK/lib/tinyusb/src/device/usbd.h **** // Configure device stack behavior with dynamic or port-specific parameters.
  60:SynaptiX_FDK/lib/tinyusb/src/device/usbd.h **** // Should be called before initialization of the device stack
  61:SynaptiX_FDK/lib/tinyusb/src/device/usbd.h **** // - cfg_id   : configure ID from TUD_CFGID_* enum values
  62:SynaptiX_FDK/lib/tinyusb/src/device/usbd.h **** // - cfg_param: configure data, structure depends on the ID
  63:SynaptiX_FDK/lib/tinyusb/src/device/usbd.h **** bool tud_configure(uint8_t rhport, uint32_t cfg_id, const void* cfg_param);
  64:SynaptiX_FDK/lib/tinyusb/src/device/usbd.h **** 
  65:SynaptiX_FDK/lib/tinyusb/src/device/usbd.h **** // New API to replace tud_init() to init device stack on specific roothub port
  66:SynaptiX_FDK/lib/tinyusb/src/device/usbd.h **** // Must be called in the same task/context as tud_task() if RTOS is used
  67:SynaptiX_FDK/lib/tinyusb/src/device/usbd.h **** bool tud_rhport_init(uint8_t rhport, const tusb_rhport_init_t* rh_init);
  68:SynaptiX_FDK/lib/tinyusb/src/device/usbd.h **** 
  69:SynaptiX_FDK/lib/tinyusb/src/device/usbd.h **** // Init device stack on roothub port
  70:SynaptiX_FDK/lib/tinyusb/src/device/usbd.h **** #if TUSB_VERSION_NUMBER > 2000  // 0.20.0
  71:SynaptiX_FDK/lib/tinyusb/src/device/usbd.h **** TU_ATTR_DEPRECATED("Please use tusb_init(rhport, rh_init) instead")
  72:SynaptiX_FDK/lib/tinyusb/src/device/usbd.h **** #endif
  73:SynaptiX_FDK/lib/tinyusb/src/device/usbd.h **** TU_ATTR_ALWAYS_INLINE static inline bool tud_init (uint8_t rhport) {
  74:SynaptiX_FDK/lib/tinyusb/src/device/usbd.h ****   const tusb_rhport_init_t rh_init = {
  75:SynaptiX_FDK/lib/tinyusb/src/device/usbd.h ****     .role = TUSB_ROLE_DEVICE,
  76:SynaptiX_FDK/lib/tinyusb/src/device/usbd.h ****     .speed = TUD_OPT_HIGH_SPEED ? TUSB_SPEED_HIGH : TUSB_SPEED_FULL
  77:SynaptiX_FDK/lib/tinyusb/src/device/usbd.h ****   };
  78:SynaptiX_FDK/lib/tinyusb/src/device/usbd.h ****   return tud_rhport_init(rhport, &rh_init);
  79:SynaptiX_FDK/lib/tinyusb/src/device/usbd.h **** }
  80:SynaptiX_FDK/lib/tinyusb/src/device/usbd.h **** 
  81:SynaptiX_FDK/lib/tinyusb/src/device/usbd.h **** // Deinit device stack on roothub port
  82:SynaptiX_FDK/lib/tinyusb/src/device/usbd.h **** // Must be called in the same task/context as tud_task() if RTOS is used
  83:SynaptiX_FDK/lib/tinyusb/src/device/usbd.h **** bool tud_deinit(uint8_t rhport);
  84:SynaptiX_FDK/lib/tinyusb/src/device/usbd.h **** 
  85:SynaptiX_FDK/lib/tinyusb/src/device/usbd.h **** // Check if device stack is already initialized
  86:SynaptiX_FDK/lib/tinyusb/src/device/usbd.h **** bool tud_inited(void);
  87:SynaptiX_FDK/lib/tinyusb/src/device/usbd.h **** 
  88:SynaptiX_FDK/lib/tinyusb/src/device/usbd.h **** // Task function should be called in main/rtos loop, extended version of tud_task()
  89:SynaptiX_FDK/lib/tinyusb/src/device/usbd.h **** // - timeout_ms: millisecond to wait, zero = no wait, 0xFFFFFFFF = wait forever
  90:SynaptiX_FDK/lib/tinyusb/src/device/usbd.h **** // - in_isr: if function is called in ISR
  91:SynaptiX_FDK/lib/tinyusb/src/device/usbd.h **** void tud_task_ext(uint32_t timeout_ms, bool in_isr);
  92:SynaptiX_FDK/lib/tinyusb/src/device/usbd.h **** 
  93:SynaptiX_FDK/lib/tinyusb/src/device/usbd.h **** // Task function should be called in main/rtos loop
  94:SynaptiX_FDK/lib/tinyusb/src/device/usbd.h **** TU_ATTR_ALWAYS_INLINE static inline
  95:SynaptiX_FDK/lib/tinyusb/src/device/usbd.h **** void tud_task (void) {
  96:SynaptiX_FDK/lib/tinyusb/src/device/usbd.h ****   tud_task_ext(UINT32_MAX, false);
  97:SynaptiX_FDK/lib/tinyusb/src/device/usbd.h **** }
  98:SynaptiX_FDK/lib/tinyusb/src/device/usbd.h **** 
  99:SynaptiX_FDK/lib/tinyusb/src/device/usbd.h **** // Check if there is pending events need processing by tud_task()
 100:SynaptiX_FDK/lib/tinyusb/src/device/usbd.h **** bool tud_task_event_ready(void);
 101:SynaptiX_FDK/lib/tinyusb/src/device/usbd.h **** 
 102:SynaptiX_FDK/lib/tinyusb/src/device/usbd.h **** #ifndef TUSB_DCD_H_
 103:SynaptiX_FDK/lib/tinyusb/src/device/usbd.h **** extern void dcd_int_handler(uint8_t rhport);
 104:SynaptiX_FDK/lib/tinyusb/src/device/usbd.h **** #endif
 105:SynaptiX_FDK/lib/tinyusb/src/device/usbd.h **** 
 106:SynaptiX_FDK/lib/tinyusb/src/device/usbd.h **** // Interrupt handler, name alias to DCD
 107:SynaptiX_FDK/lib/tinyusb/src/device/usbd.h **** #define tud_int_handler   dcd_int_handler
 108:SynaptiX_FDK/lib/tinyusb/src/device/usbd.h **** 
 109:SynaptiX_FDK/lib/tinyusb/src/device/usbd.h **** // Get current bus speed
 110:SynaptiX_FDK/lib/tinyusb/src/device/usbd.h **** tusb_speed_t tud_speed_get(void);
 111:SynaptiX_FDK/lib/tinyusb/src/device/usbd.h **** 
 112:SynaptiX_FDK/lib/tinyusb/src/device/usbd.h **** // Check if device is connected (may not mounted/configured yet)
ARM GAS  C:\Users\DELL\AppData\Local\Temp\ccSfED1Y.s 			page 9


 113:SynaptiX_FDK/lib/tinyusb/src/device/usbd.h **** // True if just got out of Bus Reset and received the very first data from host
 114:SynaptiX_FDK/lib/tinyusb/src/device/usbd.h **** bool tud_connected(void);
 115:SynaptiX_FDK/lib/tinyusb/src/device/usbd.h **** 
 116:SynaptiX_FDK/lib/tinyusb/src/device/usbd.h **** // Check if device is connected and configured
 117:SynaptiX_FDK/lib/tinyusb/src/device/usbd.h **** bool tud_mounted(void);
 118:SynaptiX_FDK/lib/tinyusb/src/device/usbd.h **** 
 119:SynaptiX_FDK/lib/tinyusb/src/device/usbd.h **** // Check if device is suspended
 120:SynaptiX_FDK/lib/tinyusb/src/device/usbd.h **** bool tud_suspended(void);
 121:SynaptiX_FDK/lib/tinyusb/src/device/usbd.h **** 
 122:SynaptiX_FDK/lib/tinyusb/src/device/usbd.h **** // Check if device is ready to transfer
 123:SynaptiX_FDK/lib/tinyusb/src/device/usbd.h **** TU_ATTR_ALWAYS_INLINE static inline
 124:SynaptiX_FDK/lib/tinyusb/src/device/usbd.h **** bool tud_ready(void) {
 215              		.loc 2 124 6 view .LVU36
 216              	.LBB132:
 125:SynaptiX_FDK/lib/tinyusb/src/device/usbd.h ****   const bool is_mounted = tud_mounted();
 217              		.loc 2 125 3 view .LVU37
 218              		.loc 2 125 27 is_stmt 0 view .LVU38
 219 000c FFF7FEFF 		bl	tud_mounted
 220              	.LVL10:
 221              		.loc 2 125 27 view .LVU39
 222 0010 0446     		mov	r4, r0
 223              	.LVL11:
 126:SynaptiX_FDK/lib/tinyusb/src/device/usbd.h ****   const bool is_suspended = tud_suspended();
 224              		.loc 2 126 3 is_stmt 1 view .LVU40
 225              		.loc 2 126 29 is_stmt 0 view .LVU41
 226 0012 FFF7FEFF 		bl	tud_suspended
 227              	.LVL12:
 127:SynaptiX_FDK/lib/tinyusb/src/device/usbd.h ****   return is_mounted && !is_suspended;
 228              		.loc 2 127 3 is_stmt 1 view .LVU42
 229              		.loc 2 127 21 is_stmt 0 view .LVU43
 230 0016 002C     		cmp	r4, #0
 231 0018 F5D0     		beq	.L9
 232              		.loc 2 127 21 discriminator 1 view .LVU44
 233 001a 70B9     		cbnz	r0, .L12
 234              	.LVL13:
 235              		.loc 2 127 21 discriminator 1 view .LVU45
 236              	.LBE132:
 237              	.LBE131:
 136:SynaptiX_FDK/lib/tinyusb/src/class/cdc/cdc_device.c ****   const cdcd_interface_t *p_cdc = &_cdcd_itf[itf];
 238              		.loc 1 136 3 is_stmt 1 view .LVU46
 137:SynaptiX_FDK/lib/tinyusb/src/class/cdc/cdc_device.c **** 
 239              		.loc 1 137 3 view .LVU47
 139:SynaptiX_FDK/lib/tinyusb/src/class/cdc/cdc_device.c ****   const bool out_opened = tu_edpt_stream_is_opened(&p_cdc->rx_stream);
 240              		.loc 1 139 3 view .LVU48
 241              	.LBB133:
 242              	.LBI133:
 243              		.file 3 "SynaptiX_FDK/lib/tinyusb/src/common/tusb_private.h"
   1:SynaptiX_FDK/lib/tinyusb/src/common/tusb_private.h **** /*
   2:SynaptiX_FDK/lib/tinyusb/src/common/tusb_private.h ****  * The MIT License (MIT)
   3:SynaptiX_FDK/lib/tinyusb/src/common/tusb_private.h ****  *
   4:SynaptiX_FDK/lib/tinyusb/src/common/tusb_private.h ****  * Copyright (c) 2022, Ha Thach (tinyusb.org)
   5:SynaptiX_FDK/lib/tinyusb/src/common/tusb_private.h ****  *
   6:SynaptiX_FDK/lib/tinyusb/src/common/tusb_private.h ****  * Permission is hereby granted, free of charge, to any person obtaining a copy
   7:SynaptiX_FDK/lib/tinyusb/src/common/tusb_private.h ****  * of this software and associated documentation files (the "Software"), to deal
   8:SynaptiX_FDK/lib/tinyusb/src/common/tusb_private.h ****  * in the Software without restriction, including without limitation the rights
   9:SynaptiX_FDK/lib/tinyusb/src/common/tusb_private.h ****  * to use, copy, modify, merge, publish, distribute, sublicense, and/or sell
  10:SynaptiX_FDK/lib/tinyusb/src/common/tusb_private.h ****  * copies of the Software, and to permit persons to whom the Software is
ARM GAS  C:\Users\DELL\AppData\Local\Temp\ccSfED1Y.s 			page 10


  11:SynaptiX_FDK/lib/tinyusb/src/common/tusb_private.h ****  * furnished to do so, subject to the following conditions:
  12:SynaptiX_FDK/lib/tinyusb/src/common/tusb_private.h ****  *
  13:SynaptiX_FDK/lib/tinyusb/src/common/tusb_private.h ****  * The above copyright notice and this permission notice shall be included in
  14:SynaptiX_FDK/lib/tinyusb/src/common/tusb_private.h ****  * all copies or substantial portions of the Software.
  15:SynaptiX_FDK/lib/tinyusb/src/common/tusb_private.h ****  *
  16:SynaptiX_FDK/lib/tinyusb/src/common/tusb_private.h ****  * THE SOFTWARE IS PROVIDED "AS IS", WITHOUT WARRANTY OF ANY KIND, EXPRESS OR
  17:SynaptiX_FDK/lib/tinyusb/src/common/tusb_private.h ****  * IMPLIED, INCLUDING BUT NOT LIMITED TO THE WARRANTIES OF MERCHANTABILITY,
  18:SynaptiX_FDK/lib/tinyusb/src/common/tusb_private.h ****  * FITNESS FOR A PARTICULAR PURPOSE AND NONINFRINGEMENT. IN NO EVENT SHALL THE
  19:SynaptiX_FDK/lib/tinyusb/src/common/tusb_private.h ****  * AUTHORS OR COPYRIGHT HOLDERS BE LIABLE FOR ANY CLAIM, DAMAGES OR OTHER
  20:SynaptiX_FDK/lib/tinyusb/src/common/tusb_private.h ****  * LIABILITY, WHETHER IN AN ACTION OF CONTRACT, TORT OR OTHERWISE, ARISING FROM,
  21:SynaptiX_FDK/lib/tinyusb/src/common/tusb_private.h ****  * OUT OF OR IN CONNECTION WITH THE SOFTWARE OR THE USE OR OTHER DEALINGS IN
  22:SynaptiX_FDK/lib/tinyusb/src/common/tusb_private.h ****  * THE SOFTWARE.
  23:SynaptiX_FDK/lib/tinyusb/src/common/tusb_private.h ****  *
  24:SynaptiX_FDK/lib/tinyusb/src/common/tusb_private.h ****  * This file is part of the TinyUSB stack.
  25:SynaptiX_FDK/lib/tinyusb/src/common/tusb_private.h ****  */
  26:SynaptiX_FDK/lib/tinyusb/src/common/tusb_private.h **** 
  27:SynaptiX_FDK/lib/tinyusb/src/common/tusb_private.h **** #ifndef TUSB_PRIVATE_H
  28:SynaptiX_FDK/lib/tinyusb/src/common/tusb_private.h **** #define TUSB_PRIVATE_H
  29:SynaptiX_FDK/lib/tinyusb/src/common/tusb_private.h **** 
  30:SynaptiX_FDK/lib/tinyusb/src/common/tusb_private.h **** // Internal Helper used by Host and Device Stack
  31:SynaptiX_FDK/lib/tinyusb/src/common/tusb_private.h **** 
  32:SynaptiX_FDK/lib/tinyusb/src/common/tusb_private.h **** #ifdef __cplusplus
  33:SynaptiX_FDK/lib/tinyusb/src/common/tusb_private.h ****  extern "C" {
  34:SynaptiX_FDK/lib/tinyusb/src/common/tusb_private.h **** #endif
  35:SynaptiX_FDK/lib/tinyusb/src/common/tusb_private.h **** 
  36:SynaptiX_FDK/lib/tinyusb/src/common/tusb_private.h **** typedef void (*tusb_defer_func_t)(uintptr_t param);
  37:SynaptiX_FDK/lib/tinyusb/src/common/tusb_private.h **** 
  38:SynaptiX_FDK/lib/tinyusb/src/common/tusb_private.h ****  //--------------------------------------------------------------------+
  39:SynaptiX_FDK/lib/tinyusb/src/common/tusb_private.h ****  // Configuration
  40:SynaptiX_FDK/lib/tinyusb/src/common/tusb_private.h ****  //--------------------------------------------------------------------+
  41:SynaptiX_FDK/lib/tinyusb/src/common/tusb_private.h **** 
  42:SynaptiX_FDK/lib/tinyusb/src/common/tusb_private.h **** #define TUP_USBIP_CONTROLLER_NUM 2
  43:SynaptiX_FDK/lib/tinyusb/src/common/tusb_private.h **** extern tusb_role_t _tusb_rhport_role[TUP_USBIP_CONTROLLER_NUM];
  44:SynaptiX_FDK/lib/tinyusb/src/common/tusb_private.h **** 
  45:SynaptiX_FDK/lib/tinyusb/src/common/tusb_private.h **** //--------------------------------------------------------------------+
  46:SynaptiX_FDK/lib/tinyusb/src/common/tusb_private.h **** // Endpoint
  47:SynaptiX_FDK/lib/tinyusb/src/common/tusb_private.h **** //--------------------------------------------------------------------+
  48:SynaptiX_FDK/lib/tinyusb/src/common/tusb_private.h **** 
  49:SynaptiX_FDK/lib/tinyusb/src/common/tusb_private.h **** enum {
  50:SynaptiX_FDK/lib/tinyusb/src/common/tusb_private.h ****  TU_EDPT_STATE_BUSY    = 0x01,
  51:SynaptiX_FDK/lib/tinyusb/src/common/tusb_private.h ****  TU_EDPT_STATE_STALLED = 0x02,
  52:SynaptiX_FDK/lib/tinyusb/src/common/tusb_private.h ****  TU_EDPT_STATE_CLAIMED = 0x04,
  53:SynaptiX_FDK/lib/tinyusb/src/common/tusb_private.h **** };
  54:SynaptiX_FDK/lib/tinyusb/src/common/tusb_private.h **** 
  55:SynaptiX_FDK/lib/tinyusb/src/common/tusb_private.h **** typedef struct TU_ATTR_PACKED {
  56:SynaptiX_FDK/lib/tinyusb/src/common/tusb_private.h ****   volatile uint8_t busy    : 1;
  57:SynaptiX_FDK/lib/tinyusb/src/common/tusb_private.h ****   volatile uint8_t stalled : 1;
  58:SynaptiX_FDK/lib/tinyusb/src/common/tusb_private.h ****   volatile uint8_t claimed : 1;
  59:SynaptiX_FDK/lib/tinyusb/src/common/tusb_private.h **** } tu_edpt_state_t;
  60:SynaptiX_FDK/lib/tinyusb/src/common/tusb_private.h **** 
  61:SynaptiX_FDK/lib/tinyusb/src/common/tusb_private.h **** typedef struct {
  62:SynaptiX_FDK/lib/tinyusb/src/common/tusb_private.h ****   uint8_t  hwid;    // device: rhport, host: daddr
  63:SynaptiX_FDK/lib/tinyusb/src/common/tusb_private.h ****   bool     is_host; // 1: host, 0: device
  64:SynaptiX_FDK/lib/tinyusb/src/common/tusb_private.h ****   uint8_t ep_addr;
  65:SynaptiX_FDK/lib/tinyusb/src/common/tusb_private.h ****   // 1 byte padding
  66:SynaptiX_FDK/lib/tinyusb/src/common/tusb_private.h **** 
  67:SynaptiX_FDK/lib/tinyusb/src/common/tusb_private.h ****   uint16_t mps;
ARM GAS  C:\Users\DELL\AppData\Local\Temp\ccSfED1Y.s 			page 11


  68:SynaptiX_FDK/lib/tinyusb/src/common/tusb_private.h ****   uint16_t xfer_len;
  69:SynaptiX_FDK/lib/tinyusb/src/common/tusb_private.h ****   uint8_t  *ep_buf; // set to NULL to use xfer_fifo when CFG_TUD_EDPT_DEDICATED_HWFIFO = 1
  70:SynaptiX_FDK/lib/tinyusb/src/common/tusb_private.h ****   tu_fifo_t ff;
  71:SynaptiX_FDK/lib/tinyusb/src/common/tusb_private.h **** 
  72:SynaptiX_FDK/lib/tinyusb/src/common/tusb_private.h ****   // mutex: read if rx, otherwise write
  73:SynaptiX_FDK/lib/tinyusb/src/common/tusb_private.h ****   OSAL_MUTEX_DEF(ff_mutexdef);
  74:SynaptiX_FDK/lib/tinyusb/src/common/tusb_private.h **** }tu_edpt_stream_t;
  75:SynaptiX_FDK/lib/tinyusb/src/common/tusb_private.h **** 
  76:SynaptiX_FDK/lib/tinyusb/src/common/tusb_private.h **** //--------------------------------------------------------------------+
  77:SynaptiX_FDK/lib/tinyusb/src/common/tusb_private.h **** // Endpoint
  78:SynaptiX_FDK/lib/tinyusb/src/common/tusb_private.h **** //--------------------------------------------------------------------+
  79:SynaptiX_FDK/lib/tinyusb/src/common/tusb_private.h **** 
  80:SynaptiX_FDK/lib/tinyusb/src/common/tusb_private.h **** // Check if endpoint descriptor is valid per USB specs if debug is enabled
  81:SynaptiX_FDK/lib/tinyusb/src/common/tusb_private.h **** #if CFG_TUSB_DEBUG
  82:SynaptiX_FDK/lib/tinyusb/src/common/tusb_private.h **** bool tu_edpt_validate(const tusb_desc_endpoint_t *desc_ep, tusb_speed_t speed);
  83:SynaptiX_FDK/lib/tinyusb/src/common/tusb_private.h **** #else
  84:SynaptiX_FDK/lib/tinyusb/src/common/tusb_private.h **** TU_ATTR_ALWAYS_INLINE static inline bool tu_edpt_validate(const tusb_desc_endpoint_t *desc_ep, tusb
  85:SynaptiX_FDK/lib/tinyusb/src/common/tusb_private.h ****   (void)speed;
  86:SynaptiX_FDK/lib/tinyusb/src/common/tusb_private.h ****   return tu_edpt_packet_size(desc_ep) > 0;
  87:SynaptiX_FDK/lib/tinyusb/src/common/tusb_private.h **** }
  88:SynaptiX_FDK/lib/tinyusb/src/common/tusb_private.h **** #endif
  89:SynaptiX_FDK/lib/tinyusb/src/common/tusb_private.h **** 
  90:SynaptiX_FDK/lib/tinyusb/src/common/tusb_private.h **** // Bind drivers to all interfaces and endpoints in the provided configuration descriptor
  91:SynaptiX_FDK/lib/tinyusb/src/common/tusb_private.h **** bool tu_bind_driver_to_ep_itf(uint8_t driver_id, uint8_t ep2drv[][2], uint8_t itf2drv[], uint8_t it
  92:SynaptiX_FDK/lib/tinyusb/src/common/tusb_private.h ****                               const uint8_t *p_desc, uint16_t desc_len);
  93:SynaptiX_FDK/lib/tinyusb/src/common/tusb_private.h **** 
  94:SynaptiX_FDK/lib/tinyusb/src/common/tusb_private.h **** // Claim an endpoint with provided mutex
  95:SynaptiX_FDK/lib/tinyusb/src/common/tusb_private.h **** bool tu_edpt_claim(tu_edpt_state_t* ep_state, osal_mutex_t mutex);
  96:SynaptiX_FDK/lib/tinyusb/src/common/tusb_private.h **** 
  97:SynaptiX_FDK/lib/tinyusb/src/common/tusb_private.h **** // Release an endpoint with provided mutex
  98:SynaptiX_FDK/lib/tinyusb/src/common/tusb_private.h **** bool tu_edpt_release(tu_edpt_state_t* ep_state, osal_mutex_t mutex);
  99:SynaptiX_FDK/lib/tinyusb/src/common/tusb_private.h **** 
 100:SynaptiX_FDK/lib/tinyusb/src/common/tusb_private.h **** //--------------------------------------------------------------------+
 101:SynaptiX_FDK/lib/tinyusb/src/common/tusb_private.h **** // Endpoint Stream
 102:SynaptiX_FDK/lib/tinyusb/src/common/tusb_private.h **** //--------------------------------------------------------------------+
 103:SynaptiX_FDK/lib/tinyusb/src/common/tusb_private.h **** 
 104:SynaptiX_FDK/lib/tinyusb/src/common/tusb_private.h **** // Init an endpoint stream
 105:SynaptiX_FDK/lib/tinyusb/src/common/tusb_private.h **** bool tu_edpt_stream_init(tu_edpt_stream_t *s, bool is_host, bool is_tx, bool overwritable, void *ff
 106:SynaptiX_FDK/lib/tinyusb/src/common/tusb_private.h ****                          uint16_t ff_bufsize, uint8_t *ep_buf);
 107:SynaptiX_FDK/lib/tinyusb/src/common/tusb_private.h **** 
 108:SynaptiX_FDK/lib/tinyusb/src/common/tusb_private.h **** // Deinit an endpoint stream
 109:SynaptiX_FDK/lib/tinyusb/src/common/tusb_private.h **** TU_ATTR_ALWAYS_INLINE static inline void tu_edpt_stream_deinit(tu_edpt_stream_t *s) {
 110:SynaptiX_FDK/lib/tinyusb/src/common/tusb_private.h ****   (void)s;
 111:SynaptiX_FDK/lib/tinyusb/src/common/tusb_private.h **** #if OSAL_MUTEX_REQUIRED
 112:SynaptiX_FDK/lib/tinyusb/src/common/tusb_private.h ****   if (s->ff.mutex_wr) {
 113:SynaptiX_FDK/lib/tinyusb/src/common/tusb_private.h ****     osal_mutex_delete(s->ff.mutex_wr);
 114:SynaptiX_FDK/lib/tinyusb/src/common/tusb_private.h ****   }
 115:SynaptiX_FDK/lib/tinyusb/src/common/tusb_private.h ****   if (s->ff.mutex_rd) {
 116:SynaptiX_FDK/lib/tinyusb/src/common/tusb_private.h ****     osal_mutex_delete(s->ff.mutex_rd);
 117:SynaptiX_FDK/lib/tinyusb/src/common/tusb_private.h ****   }
 118:SynaptiX_FDK/lib/tinyusb/src/common/tusb_private.h **** #endif
 119:SynaptiX_FDK/lib/tinyusb/src/common/tusb_private.h **** }
 120:SynaptiX_FDK/lib/tinyusb/src/common/tusb_private.h **** 
 121:SynaptiX_FDK/lib/tinyusb/src/common/tusb_private.h **** // Open an endpoint stream
 122:SynaptiX_FDK/lib/tinyusb/src/common/tusb_private.h **** TU_ATTR_ALWAYS_INLINE static inline void tu_edpt_stream_open(tu_edpt_stream_t *s, uint8_t hwid,
 123:SynaptiX_FDK/lib/tinyusb/src/common/tusb_private.h ****                                                              const tusb_desc_endpoint_t *desc_ep, u
 124:SynaptiX_FDK/lib/tinyusb/src/common/tusb_private.h ****   s->hwid    = hwid;
ARM GAS  C:\Users\DELL\AppData\Local\Temp\ccSfED1Y.s 			page 12


 125:SynaptiX_FDK/lib/tinyusb/src/common/tusb_private.h ****   s->ep_addr = desc_ep->bEndpointAddress;
 126:SynaptiX_FDK/lib/tinyusb/src/common/tusb_private.h ****   s->mps = tu_edpt_packet_size(desc_ep);
 127:SynaptiX_FDK/lib/tinyusb/src/common/tusb_private.h ****   s->xfer_len = xfer_len;
 128:SynaptiX_FDK/lib/tinyusb/src/common/tusb_private.h **** }
 129:SynaptiX_FDK/lib/tinyusb/src/common/tusb_private.h **** 
 130:SynaptiX_FDK/lib/tinyusb/src/common/tusb_private.h **** TU_ATTR_ALWAYS_INLINE static inline bool tu_edpt_stream_is_opened(const tu_edpt_stream_t *s) {
 244              		.loc 3 130 42 view .LVU49
 245              	.LBB134:
 131:SynaptiX_FDK/lib/tinyusb/src/common/tusb_private.h ****   return s->ep_addr != 0;
 246              		.loc 3 131 3 view .LVU50
 247              		.loc 3 131 11 is_stmt 0 view .LVU51
 248 001c 084B     		ldr	r3, .L17
 249 001e BC22     		movs	r2, #188
 250 0020 02FB0533 		mla	r3, r2, r5, r3
 251              	.LVL14:
 252              		.loc 3 131 11 view .LVU52
 253 0024 9A7B     		ldrb	r2, [r3, #14]	@ zero_extendqisi2
 254              	.LVL15:
 255              		.loc 3 131 11 view .LVU53
 256              	.LBE134:
 257              	.LBE133:
 140:SynaptiX_FDK/lib/tinyusb/src/class/cdc/cdc_device.c ****   return in_opened && out_opened;
 258              		.loc 1 140 3 is_stmt 1 view .LVU54
 259              	.LBB135:
 260              	.LBI135:
 130:SynaptiX_FDK/lib/tinyusb/src/common/tusb_private.h ****   return s->ep_addr != 0;
 261              		.loc 3 130 42 view .LVU55
 262              	.LBB136:
 263              		.loc 3 131 3 view .LVU56
 264              		.loc 3 131 11 is_stmt 0 view .LVU57
 265 0026 93F82630 		ldrb	r3, [r3, #38]	@ zero_extendqisi2
 266              	.LVL16:
 267              		.loc 3 131 11 view .LVU58
 268              	.LBE136:
 269              	.LBE135:
 141:SynaptiX_FDK/lib/tinyusb/src/class/cdc/cdc_device.c **** }
 270              		.loc 1 141 3 is_stmt 1 view .LVU59
 141:SynaptiX_FDK/lib/tinyusb/src/class/cdc/cdc_device.c **** }
 271              		.loc 1 141 20 is_stmt 0 view .LVU60
 272 002a 12B1     		cbz	r2, .L13
 141:SynaptiX_FDK/lib/tinyusb/src/class/cdc/cdc_device.c **** }
 273              		.loc 1 141 20 discriminator 1 view .LVU61
 274 002c 1BB9     		cbnz	r3, .L14
 141:SynaptiX_FDK/lib/tinyusb/src/class/cdc/cdc_device.c **** }
 275              		.loc 1 141 20 discriminator 4 view .LVU62
 276 002e 0024     		movs	r4, #0
 277 0030 E9E7     		b	.L9
 278              	.L13:
 279 0032 0024     		movs	r4, #0
 280 0034 E7E7     		b	.L9
 281              	.L14:
 141:SynaptiX_FDK/lib/tinyusb/src/class/cdc/cdc_device.c **** }
 282              		.loc 1 141 20 discriminator 3 view .LVU63
 283 0036 0124     		movs	r4, #1
 141:SynaptiX_FDK/lib/tinyusb/src/class/cdc/cdc_device.c **** }
 284              		.loc 1 141 20 view .LVU64
 285 0038 E5E7     		b	.L9
ARM GAS  C:\Users\DELL\AppData\Local\Temp\ccSfED1Y.s 			page 13


 286              	.LVL17:
 287              	.L12:
 136:SynaptiX_FDK/lib/tinyusb/src/class/cdc/cdc_device.c ****   const cdcd_interface_t *p_cdc = &_cdcd_itf[itf];
 288              		.loc 1 136 3 discriminator 1 view .LVU65
 289 003a 0024     		movs	r4, #0
 290              	.LVL18:
 136:SynaptiX_FDK/lib/tinyusb/src/class/cdc/cdc_device.c ****   const cdcd_interface_t *p_cdc = &_cdcd_itf[itf];
 291              		.loc 1 136 3 discriminator 1 view .LVU66
 292 003c E3E7     		b	.L9
 293              	.L18:
 294 003e 00BF     		.align	2
 295              	.L17:
 296 0040 00000000 		.word	_cdcd_itf
 297              		.cfi_endproc
 298              	.LFE451:
 300              		.section	.text.tud_cdc_n_connected,"ax",%progbits
 301              		.align	1
 302              		.global	tud_cdc_n_connected
 303              		.syntax unified
 304              		.thumb
 305              		.thumb_func
 307              	tud_cdc_n_connected:
 308              	.LVL19:
 309              	.LFB452:
 143:SynaptiX_FDK/lib/tinyusb/src/class/cdc/cdc_device.c **** 
 144:SynaptiX_FDK/lib/tinyusb/src/class/cdc/cdc_device.c **** bool tud_cdc_n_connected(uint8_t itf) {
 310              		.loc 1 144 39 is_stmt 1 view -0
 311              		.cfi_startproc
 312              		@ args = 0, pretend = 0, frame = 0
 313              		@ frame_needed = 0, uses_anonymous_args = 0
 314              		.loc 1 144 39 is_stmt 0 view .LVU68
 315 0000 38B5     		push	{r3, r4, r5, lr}
 316              	.LCFI1:
 317              		.cfi_def_cfa_offset 16
 318              		.cfi_offset 3, -16
 319              		.cfi_offset 4, -12
 320              		.cfi_offset 5, -8
 321              		.cfi_offset 14, -4
 145:SynaptiX_FDK/lib/tinyusb/src/class/cdc/cdc_device.c ****   TU_VERIFY(itf < CFG_TUD_CDC);
 322              		.loc 1 145 3 is_stmt 1 view .LVU69
 323              		.loc 1 145 3 view .LVU70
 324 0002 10B1     		cbz	r0, .L24
 325              		.loc 1 145 3 is_stmt 0 discriminator 1 view .LVU71
 326 0004 0024     		movs	r4, #0
 327              	.LVL20:
 328              	.L20:
 146:SynaptiX_FDK/lib/tinyusb/src/class/cdc/cdc_device.c ****   TU_VERIFY(tud_ready());
 147:SynaptiX_FDK/lib/tinyusb/src/class/cdc/cdc_device.c ****   // DTR (bit 0) active  is considered as connected
 148:SynaptiX_FDK/lib/tinyusb/src/class/cdc/cdc_device.c ****   return tu_bit_test(_cdcd_itf[itf].line_state, 0);
 149:SynaptiX_FDK/lib/tinyusb/src/class/cdc/cdc_device.c **** }
 329              		.loc 1 149 1 view .LVU72
 330 0006 2046     		mov	r0, r4
 331 0008 38BD     		pop	{r3, r4, r5, pc}
 332              	.LVL21:
 333              	.L24:
 334              		.loc 1 149 1 view .LVU73
 335 000a 0546     		mov	r5, r0
ARM GAS  C:\Users\DELL\AppData\Local\Temp\ccSfED1Y.s 			page 14


 145:SynaptiX_FDK/lib/tinyusb/src/class/cdc/cdc_device.c ****   TU_VERIFY(itf < CFG_TUD_CDC);
 336              		.loc 1 145 3 is_stmt 1 view .LVU74
 146:SynaptiX_FDK/lib/tinyusb/src/class/cdc/cdc_device.c ****   TU_VERIFY(tud_ready());
 337              		.loc 1 146 3 view .LVU75
 146:SynaptiX_FDK/lib/tinyusb/src/class/cdc/cdc_device.c ****   TU_VERIFY(tud_ready());
 338              		.loc 1 146 3 view .LVU76
 339              	.LBB137:
 340              	.LBI137:
 124:SynaptiX_FDK/lib/tinyusb/src/device/usbd.h ****   const bool is_mounted = tud_mounted();
 341              		.loc 2 124 6 view .LVU77
 342              	.LBB138:
 125:SynaptiX_FDK/lib/tinyusb/src/device/usbd.h ****   const bool is_suspended = tud_suspended();
 343              		.loc 2 125 3 view .LVU78
 125:SynaptiX_FDK/lib/tinyusb/src/device/usbd.h ****   const bool is_suspended = tud_suspended();
 344              		.loc 2 125 27 is_stmt 0 view .LVU79
 345 000c FFF7FEFF 		bl	tud_mounted
 346              	.LVL22:
 125:SynaptiX_FDK/lib/tinyusb/src/device/usbd.h ****   const bool is_suspended = tud_suspended();
 347              		.loc 2 125 27 view .LVU80
 348 0010 0446     		mov	r4, r0
 349              	.LVL23:
 126:SynaptiX_FDK/lib/tinyusb/src/device/usbd.h ****   return is_mounted && !is_suspended;
 350              		.loc 2 126 3 is_stmt 1 view .LVU81
 126:SynaptiX_FDK/lib/tinyusb/src/device/usbd.h ****   return is_mounted && !is_suspended;
 351              		.loc 2 126 29 is_stmt 0 view .LVU82
 352 0012 FFF7FEFF 		bl	tud_suspended
 353              	.LVL24:
 354              		.loc 2 127 3 is_stmt 1 view .LVU83
 355              		.loc 2 127 21 is_stmt 0 view .LVU84
 356 0016 002C     		cmp	r4, #0
 357 0018 F5D0     		beq	.L20
 358              		.loc 2 127 21 discriminator 1 view .LVU85
 359 001a 38B9     		cbnz	r0, .L22
 360              	.LVL25:
 361              		.loc 2 127 21 discriminator 1 view .LVU86
 362              	.LBE138:
 363              	.LBE137:
 146:SynaptiX_FDK/lib/tinyusb/src/class/cdc/cdc_device.c ****   // DTR (bit 0) active  is considered as connected
 364              		.loc 1 146 3 is_stmt 1 view .LVU87
 148:SynaptiX_FDK/lib/tinyusb/src/class/cdc/cdc_device.c **** }
 365              		.loc 1 148 3 view .LVU88
 148:SynaptiX_FDK/lib/tinyusb/src/class/cdc/cdc_device.c **** }
 366              		.loc 1 148 36 is_stmt 0 view .LVU89
 367 001c 044B     		ldr	r3, .L25
 368 001e BC22     		movs	r2, #188
 369 0020 02FB0533 		mla	r3, r2, r5, r3
 370 0024 DC78     		ldrb	r4, [r3, #3]	@ zero_extendqisi2
 371              	.LVL26:
 372              	.LBB139:
 373              	.LBI139:
 374              		.file 4 "SynaptiX_FDK/lib/tinyusb/src/common/tusb_common.h"
   1:SynaptiX_FDK/lib/tinyusb/src/common/tusb_common.h **** /*
   2:SynaptiX_FDK/lib/tinyusb/src/common/tusb_common.h ****  * The MIT License (MIT)
   3:SynaptiX_FDK/lib/tinyusb/src/common/tusb_common.h ****  *
   4:SynaptiX_FDK/lib/tinyusb/src/common/tusb_common.h ****  * Copyright (c) 2019 Ha Thach (tinyusb.org)
   5:SynaptiX_FDK/lib/tinyusb/src/common/tusb_common.h ****  *
   6:SynaptiX_FDK/lib/tinyusb/src/common/tusb_common.h ****  * Permission is hereby granted, free of charge, to any person obtaining a copy
ARM GAS  C:\Users\DELL\AppData\Local\Temp\ccSfED1Y.s 			page 15


   7:SynaptiX_FDK/lib/tinyusb/src/common/tusb_common.h ****  * of this software and associated documentation files (the "Software"), to deal
   8:SynaptiX_FDK/lib/tinyusb/src/common/tusb_common.h ****  * in the Software without restriction, including without limitation the rights
   9:SynaptiX_FDK/lib/tinyusb/src/common/tusb_common.h ****  * to use, copy, modify, merge, publish, distribute, sublicense, and/or sell
  10:SynaptiX_FDK/lib/tinyusb/src/common/tusb_common.h ****  * copies of the Software, and to permit persons to whom the Software is
  11:SynaptiX_FDK/lib/tinyusb/src/common/tusb_common.h ****  * furnished to do so, subject to the following conditions:
  12:SynaptiX_FDK/lib/tinyusb/src/common/tusb_common.h ****  *
  13:SynaptiX_FDK/lib/tinyusb/src/common/tusb_common.h ****  * The above copyright notice and this permission notice shall be included in
  14:SynaptiX_FDK/lib/tinyusb/src/common/tusb_common.h ****  * all copies or substantial portions of the Software.
  15:SynaptiX_FDK/lib/tinyusb/src/common/tusb_common.h ****  *
  16:SynaptiX_FDK/lib/tinyusb/src/common/tusb_common.h ****  * THE SOFTWARE IS PROVIDED "AS IS", WITHOUT WARRANTY OF ANY KIND, EXPRESS OR
  17:SynaptiX_FDK/lib/tinyusb/src/common/tusb_common.h ****  * IMPLIED, INCLUDING BUT NOT LIMITED TO THE WARRANTIES OF MERCHANTABILITY,
  18:SynaptiX_FDK/lib/tinyusb/src/common/tusb_common.h ****  * FITNESS FOR A PARTICULAR PURPOSE AND NONINFRINGEMENT. IN NO EVENT SHALL THE
  19:SynaptiX_FDK/lib/tinyusb/src/common/tusb_common.h ****  * AUTHORS OR COPYRIGHT HOLDERS BE LIABLE FOR ANY CLAIM, DAMAGES OR OTHER
  20:SynaptiX_FDK/lib/tinyusb/src/common/tusb_common.h ****  * LIABILITY, WHETHER IN AN ACTION OF CONTRACT, TORT OR OTHERWISE, ARISING FROM,
  21:SynaptiX_FDK/lib/tinyusb/src/common/tusb_common.h ****  * OUT OF OR IN CONNECTION WITH THE SOFTWARE OR THE USE OR OTHER DEALINGS IN
  22:SynaptiX_FDK/lib/tinyusb/src/common/tusb_common.h ****  * THE SOFTWARE.
  23:SynaptiX_FDK/lib/tinyusb/src/common/tusb_common.h ****  *
  24:SynaptiX_FDK/lib/tinyusb/src/common/tusb_common.h ****  * This file is part of the TinyUSB stack.
  25:SynaptiX_FDK/lib/tinyusb/src/common/tusb_common.h ****  */
  26:SynaptiX_FDK/lib/tinyusb/src/common/tusb_common.h **** 
  27:SynaptiX_FDK/lib/tinyusb/src/common/tusb_common.h **** #ifndef TUSB_COMMON_H_
  28:SynaptiX_FDK/lib/tinyusb/src/common/tusb_common.h **** #define TUSB_COMMON_H_
  29:SynaptiX_FDK/lib/tinyusb/src/common/tusb_common.h **** 
  30:SynaptiX_FDK/lib/tinyusb/src/common/tusb_common.h **** #ifdef __cplusplus
  31:SynaptiX_FDK/lib/tinyusb/src/common/tusb_common.h ****  extern "C" {
  32:SynaptiX_FDK/lib/tinyusb/src/common/tusb_common.h **** #endif
  33:SynaptiX_FDK/lib/tinyusb/src/common/tusb_common.h **** 
  34:SynaptiX_FDK/lib/tinyusb/src/common/tusb_common.h **** //--------------------------------------------------------------------+
  35:SynaptiX_FDK/lib/tinyusb/src/common/tusb_common.h **** // Macros Helper
  36:SynaptiX_FDK/lib/tinyusb/src/common/tusb_common.h **** //--------------------------------------------------------------------+
  37:SynaptiX_FDK/lib/tinyusb/src/common/tusb_common.h **** #define TU_ARRAY_SIZE(_arr)           ( sizeof(_arr) / sizeof(_arr[0]) )
  38:SynaptiX_FDK/lib/tinyusb/src/common/tusb_common.h **** #define TU_FIELD_SIZE(_type, _field)  (sizeof(((_type *)0)->_field))
  39:SynaptiX_FDK/lib/tinyusb/src/common/tusb_common.h **** #define TU_MIN(_x, _y)                ( ( (_x) < (_y) ) ? (_x) : (_y) )
  40:SynaptiX_FDK/lib/tinyusb/src/common/tusb_common.h **** #define TU_MAX(_x, _y)                ( ( (_x) > (_y) ) ? (_x) : (_y) )
  41:SynaptiX_FDK/lib/tinyusb/src/common/tusb_common.h **** #define TU_DIV_CEIL(n, d)             (((n) + (d) - 1) / (d))
  42:SynaptiX_FDK/lib/tinyusb/src/common/tusb_common.h **** #define TU_DIV_ROUND_NEAREST(v, d)    (((v) + (d)/2) / (d) ) // round to nearest integer
  43:SynaptiX_FDK/lib/tinyusb/src/common/tusb_common.h **** 
  44:SynaptiX_FDK/lib/tinyusb/src/common/tusb_common.h **** #define TU_U16(_high, _low)           ((uint16_t) ((((uint16_t) (_high)) << 8) | ((uint16_t) (_low)
  45:SynaptiX_FDK/lib/tinyusb/src/common/tusb_common.h **** #define TU_U16_HIGH(_u16)             ((uint8_t) (((uint16_t) (_u16) >> 8) & 0x00ffu))
  46:SynaptiX_FDK/lib/tinyusb/src/common/tusb_common.h **** #define TU_U16_LOW(_u16)              ((uint8_t) ((uint16_t) (_u16) & 0x00ffu))
  47:SynaptiX_FDK/lib/tinyusb/src/common/tusb_common.h **** #define U16_TO_U8S_BE(_u16)           TU_U16_HIGH(_u16), TU_U16_LOW(_u16)
  48:SynaptiX_FDK/lib/tinyusb/src/common/tusb_common.h **** #define U16_TO_U8S_LE(_u16)           TU_U16_LOW(_u16), TU_U16_HIGH(_u16)
  49:SynaptiX_FDK/lib/tinyusb/src/common/tusb_common.h **** 
  50:SynaptiX_FDK/lib/tinyusb/src/common/tusb_common.h **** #define TU_U24(_high, _mid, _low)     ((uint32_t) ((((uint32_t) (_high)) << 16) | (((uint32_t) (_mi
  51:SynaptiX_FDK/lib/tinyusb/src/common/tusb_common.h **** #define TU_U24_HIGH(_u24)             ((uint8_t) (((uint32_t) (_u24) >> 16) & 0x0000ffu))
  52:SynaptiX_FDK/lib/tinyusb/src/common/tusb_common.h **** #define TU_U24_MID(_u24)              ((uint8_t) (((uint32_t) (_u24) >>  8) & 0x0000ffu))
  53:SynaptiX_FDK/lib/tinyusb/src/common/tusb_common.h **** #define TU_U24_LOW(_u24)              ((uint8_t) ((uint32_t) (_u24) & 0x0000ffu))
  54:SynaptiX_FDK/lib/tinyusb/src/common/tusb_common.h **** #define U24_TO_U8S_BE(_u24)           TU_U24_HIGH(_u24), TU_U24_MID(_u24), TU_U24_LOW(_u24)
  55:SynaptiX_FDK/lib/tinyusb/src/common/tusb_common.h **** #define U24_TO_U8S_LE(_u24)           TU_U24_LOW(_u24), TU_U24_MID(_u24), TU_U24_HIGH(_u24)
  56:SynaptiX_FDK/lib/tinyusb/src/common/tusb_common.h **** 
  57:SynaptiX_FDK/lib/tinyusb/src/common/tusb_common.h **** #define TU_U32_BYTE3(_u32)            ((uint8_t) ((((uint32_t) _u32) >> 24) & 0x000000ff)) // MSB
  58:SynaptiX_FDK/lib/tinyusb/src/common/tusb_common.h **** #define TU_U32_BYTE2(_u32)            ((uint8_t) ((((uint32_t) _u32) >> 16) & 0x000000ff))
  59:SynaptiX_FDK/lib/tinyusb/src/common/tusb_common.h **** #define TU_U32_BYTE1(_u32)            ((uint8_t) ((((uint32_t) _u32) >>  8) & 0x000000ff))
  60:SynaptiX_FDK/lib/tinyusb/src/common/tusb_common.h **** #define TU_U32_BYTE0(_u32)            ((uint8_t) (((uint32_t)  _u32)        & 0x000000ff)) // LSB
  61:SynaptiX_FDK/lib/tinyusb/src/common/tusb_common.h **** 
  62:SynaptiX_FDK/lib/tinyusb/src/common/tusb_common.h **** #define U32_TO_U8S_BE(_u32)           TU_U32_BYTE3(_u32), TU_U32_BYTE2(_u32), TU_U32_BYTE1(_u32), T
  63:SynaptiX_FDK/lib/tinyusb/src/common/tusb_common.h **** #define U32_TO_U8S_LE(_u32)           TU_U32_BYTE0(_u32), TU_U32_BYTE1(_u32), TU_U32_BYTE2(_u32), T
ARM GAS  C:\Users\DELL\AppData\Local\Temp\ccSfED1Y.s 			page 16


  64:SynaptiX_FDK/lib/tinyusb/src/common/tusb_common.h **** 
  65:SynaptiX_FDK/lib/tinyusb/src/common/tusb_common.h **** #define TU_BIT(n)                     (1UL << (n))
  66:SynaptiX_FDK/lib/tinyusb/src/common/tusb_common.h **** 
  67:SynaptiX_FDK/lib/tinyusb/src/common/tusb_common.h **** // Generate a mask with bit from high (31) to low (0) set, e.g TU_GENMASK(3, 0) = 0b1111
  68:SynaptiX_FDK/lib/tinyusb/src/common/tusb_common.h **** #define TU_GENMASK(h, l)              ( (UINT32_MAX << (l)) & (UINT32_MAX >> (31 - (h))) )
  69:SynaptiX_FDK/lib/tinyusb/src/common/tusb_common.h **** 
  70:SynaptiX_FDK/lib/tinyusb/src/common/tusb_common.h **** //--------------------------------------------------------------------+
  71:SynaptiX_FDK/lib/tinyusb/src/common/tusb_common.h **** // Includes
  72:SynaptiX_FDK/lib/tinyusb/src/common/tusb_common.h **** //--------------------------------------------------------------------+
  73:SynaptiX_FDK/lib/tinyusb/src/common/tusb_common.h **** 
  74:SynaptiX_FDK/lib/tinyusb/src/common/tusb_common.h **** // Standard Headers
  75:SynaptiX_FDK/lib/tinyusb/src/common/tusb_common.h **** #include <stdbool.h>
  76:SynaptiX_FDK/lib/tinyusb/src/common/tusb_common.h **** #include <stdint.h>
  77:SynaptiX_FDK/lib/tinyusb/src/common/tusb_common.h **** #include <inttypes.h>
  78:SynaptiX_FDK/lib/tinyusb/src/common/tusb_common.h **** #include <stddef.h>
  79:SynaptiX_FDK/lib/tinyusb/src/common/tusb_common.h **** #include <string.h>
  80:SynaptiX_FDK/lib/tinyusb/src/common/tusb_common.h **** 
  81:SynaptiX_FDK/lib/tinyusb/src/common/tusb_common.h **** // Tinyusb Common Headers
  82:SynaptiX_FDK/lib/tinyusb/src/common/tusb_common.h **** #include "tusb_option.h"
  83:SynaptiX_FDK/lib/tinyusb/src/common/tusb_common.h **** #include "tusb_compiler.h"
  84:SynaptiX_FDK/lib/tinyusb/src/common/tusb_common.h **** #include "tusb_verify.h"
  85:SynaptiX_FDK/lib/tinyusb/src/common/tusb_common.h **** #include "tusb_types.h"
  86:SynaptiX_FDK/lib/tinyusb/src/common/tusb_common.h **** #include "tusb_debug.h"
  87:SynaptiX_FDK/lib/tinyusb/src/common/tusb_common.h **** 
  88:SynaptiX_FDK/lib/tinyusb/src/common/tusb_common.h **** //--------------------------------------------------------------------+
  89:SynaptiX_FDK/lib/tinyusb/src/common/tusb_common.h **** // API implemented by application if needed
  90:SynaptiX_FDK/lib/tinyusb/src/common/tusb_common.h **** // TODO move to a more obvious place/file
  91:SynaptiX_FDK/lib/tinyusb/src/common/tusb_common.h **** //--------------------------------------------------------------------+
  92:SynaptiX_FDK/lib/tinyusb/src/common/tusb_common.h **** 
  93:SynaptiX_FDK/lib/tinyusb/src/common/tusb_common.h **** // Get current milliseconds, required by some port/configuration without RTOS
  94:SynaptiX_FDK/lib/tinyusb/src/common/tusb_common.h **** extern uint32_t tusb_time_millis_api(void);
  95:SynaptiX_FDK/lib/tinyusb/src/common/tusb_common.h **** 
  96:SynaptiX_FDK/lib/tinyusb/src/common/tusb_common.h **** // Delay in milliseconds, use tusb_time_millis_api() by default. required by some port/configuratio
  97:SynaptiX_FDK/lib/tinyusb/src/common/tusb_common.h **** extern void tusb_time_delay_ms_api(uint32_t ms);
  98:SynaptiX_FDK/lib/tinyusb/src/common/tusb_common.h **** 
  99:SynaptiX_FDK/lib/tinyusb/src/common/tusb_common.h **** // flush data cache
 100:SynaptiX_FDK/lib/tinyusb/src/common/tusb_common.h **** extern void tusb_app_dcache_flush(uintptr_t addr, uint32_t data_size);
 101:SynaptiX_FDK/lib/tinyusb/src/common/tusb_common.h **** 
 102:SynaptiX_FDK/lib/tinyusb/src/common/tusb_common.h **** // invalidate data cache
 103:SynaptiX_FDK/lib/tinyusb/src/common/tusb_common.h **** extern void tusb_app_dcache_invalidate(uintptr_t addr, uint32_t data_size);
 104:SynaptiX_FDK/lib/tinyusb/src/common/tusb_common.h **** 
 105:SynaptiX_FDK/lib/tinyusb/src/common/tusb_common.h **** // Optional physical <-> virtual address translation
 106:SynaptiX_FDK/lib/tinyusb/src/common/tusb_common.h **** extern void* tusb_app_virt_to_phys(void *virt_addr);
 107:SynaptiX_FDK/lib/tinyusb/src/common/tusb_common.h **** extern void* tusb_app_phys_to_virt(void *phys_addr);
 108:SynaptiX_FDK/lib/tinyusb/src/common/tusb_common.h **** 
 109:SynaptiX_FDK/lib/tinyusb/src/common/tusb_common.h **** //--------------------------------------------------------------------+
 110:SynaptiX_FDK/lib/tinyusb/src/common/tusb_common.h **** // Internal Inline Functions
 111:SynaptiX_FDK/lib/tinyusb/src/common/tusb_common.h **** //--------------------------------------------------------------------+
 112:SynaptiX_FDK/lib/tinyusb/src/common/tusb_common.h **** 
 113:SynaptiX_FDK/lib/tinyusb/src/common/tusb_common.h **** //------------- Mem -------------//
 114:SynaptiX_FDK/lib/tinyusb/src/common/tusb_common.h **** #define tu_memclr(buffer, size)  (void) memset((buffer), 0, (size))
 115:SynaptiX_FDK/lib/tinyusb/src/common/tusb_common.h **** #define tu_varclr(_var)          tu_memclr(_var, sizeof(*(_var)))
 116:SynaptiX_FDK/lib/tinyusb/src/common/tusb_common.h **** 
 117:SynaptiX_FDK/lib/tinyusb/src/common/tusb_common.h **** // This is a backport of memset_s from c11
 118:SynaptiX_FDK/lib/tinyusb/src/common/tusb_common.h **** TU_ATTR_ALWAYS_INLINE static inline int tu_memset_s(void *dest, size_t destsz, int ch, size_t count
 119:SynaptiX_FDK/lib/tinyusb/src/common/tusb_common.h ****   // Validate parameters
 120:SynaptiX_FDK/lib/tinyusb/src/common/tusb_common.h ****   if (dest == NULL) {
ARM GAS  C:\Users\DELL\AppData\Local\Temp\ccSfED1Y.s 			page 17


 121:SynaptiX_FDK/lib/tinyusb/src/common/tusb_common.h ****     return -1;
 122:SynaptiX_FDK/lib/tinyusb/src/common/tusb_common.h ****   }
 123:SynaptiX_FDK/lib/tinyusb/src/common/tusb_common.h **** 
 124:SynaptiX_FDK/lib/tinyusb/src/common/tusb_common.h ****   if (count == 0u) {
 125:SynaptiX_FDK/lib/tinyusb/src/common/tusb_common.h ****     return 0;
 126:SynaptiX_FDK/lib/tinyusb/src/common/tusb_common.h ****   }
 127:SynaptiX_FDK/lib/tinyusb/src/common/tusb_common.h **** 
 128:SynaptiX_FDK/lib/tinyusb/src/common/tusb_common.h ****   if (count > destsz) {
 129:SynaptiX_FDK/lib/tinyusb/src/common/tusb_common.h ****     return -1;
 130:SynaptiX_FDK/lib/tinyusb/src/common/tusb_common.h ****   }
 131:SynaptiX_FDK/lib/tinyusb/src/common/tusb_common.h **** 
 132:SynaptiX_FDK/lib/tinyusb/src/common/tusb_common.h ****   (void) memset(dest, ch, count);
 133:SynaptiX_FDK/lib/tinyusb/src/common/tusb_common.h ****   return 0;
 134:SynaptiX_FDK/lib/tinyusb/src/common/tusb_common.h **** }
 135:SynaptiX_FDK/lib/tinyusb/src/common/tusb_common.h **** 
 136:SynaptiX_FDK/lib/tinyusb/src/common/tusb_common.h **** // This is a backport of memcpy_s from c11
 137:SynaptiX_FDK/lib/tinyusb/src/common/tusb_common.h **** TU_ATTR_ALWAYS_INLINE static inline int tu_memcpy_s(void *dest, size_t destsz, const void *src, siz
 138:SynaptiX_FDK/lib/tinyusb/src/common/tusb_common.h ****   if (dest == NULL) {
 139:SynaptiX_FDK/lib/tinyusb/src/common/tusb_common.h ****     return -1;
 140:SynaptiX_FDK/lib/tinyusb/src/common/tusb_common.h ****   }
 141:SynaptiX_FDK/lib/tinyusb/src/common/tusb_common.h **** 
 142:SynaptiX_FDK/lib/tinyusb/src/common/tusb_common.h ****   if (count == 0u) {
 143:SynaptiX_FDK/lib/tinyusb/src/common/tusb_common.h ****     return 0;
 144:SynaptiX_FDK/lib/tinyusb/src/common/tusb_common.h ****   }
 145:SynaptiX_FDK/lib/tinyusb/src/common/tusb_common.h **** 
 146:SynaptiX_FDK/lib/tinyusb/src/common/tusb_common.h ****   if (src == NULL) {
 147:SynaptiX_FDK/lib/tinyusb/src/common/tusb_common.h ****     return -1;
 148:SynaptiX_FDK/lib/tinyusb/src/common/tusb_common.h ****   }
 149:SynaptiX_FDK/lib/tinyusb/src/common/tusb_common.h **** 
 150:SynaptiX_FDK/lib/tinyusb/src/common/tusb_common.h ****   if (count > destsz) {
 151:SynaptiX_FDK/lib/tinyusb/src/common/tusb_common.h ****     return -1;
 152:SynaptiX_FDK/lib/tinyusb/src/common/tusb_common.h ****   }
 153:SynaptiX_FDK/lib/tinyusb/src/common/tusb_common.h **** 
 154:SynaptiX_FDK/lib/tinyusb/src/common/tusb_common.h ****   (void) memcpy(dest, src, count);
 155:SynaptiX_FDK/lib/tinyusb/src/common/tusb_common.h ****   return 0;
 156:SynaptiX_FDK/lib/tinyusb/src/common/tusb_common.h **** }
 157:SynaptiX_FDK/lib/tinyusb/src/common/tusb_common.h **** 
 158:SynaptiX_FDK/lib/tinyusb/src/common/tusb_common.h **** TU_ATTR_ALWAYS_INLINE static inline bool tu_mem_is_zero(const void *buffer, size_t size) {
 159:SynaptiX_FDK/lib/tinyusb/src/common/tusb_common.h ****   const uint8_t* buf8 = (const uint8_t*) buffer;
 160:SynaptiX_FDK/lib/tinyusb/src/common/tusb_common.h ****   for (size_t i = 0; i < size; i++) {
 161:SynaptiX_FDK/lib/tinyusb/src/common/tusb_common.h ****     if (buf8[i] != 0) { return false; }
 162:SynaptiX_FDK/lib/tinyusb/src/common/tusb_common.h ****   }
 163:SynaptiX_FDK/lib/tinyusb/src/common/tusb_common.h ****   return true;
 164:SynaptiX_FDK/lib/tinyusb/src/common/tusb_common.h **** }
 165:SynaptiX_FDK/lib/tinyusb/src/common/tusb_common.h **** 
 166:SynaptiX_FDK/lib/tinyusb/src/common/tusb_common.h **** TU_ATTR_ALWAYS_INLINE static inline bool tu_mem_is_ff(const void *buffer, size_t size) {
 167:SynaptiX_FDK/lib/tinyusb/src/common/tusb_common.h ****   const uint8_t* buf8 = (const uint8_t*) buffer;
 168:SynaptiX_FDK/lib/tinyusb/src/common/tusb_common.h ****   for (size_t i = 0; i < size; i++) {
 169:SynaptiX_FDK/lib/tinyusb/src/common/tusb_common.h ****     if (buf8[i] != 0xff) { return false; }
 170:SynaptiX_FDK/lib/tinyusb/src/common/tusb_common.h ****   }
 171:SynaptiX_FDK/lib/tinyusb/src/common/tusb_common.h ****   return true;
 172:SynaptiX_FDK/lib/tinyusb/src/common/tusb_common.h **** }
 173:SynaptiX_FDK/lib/tinyusb/src/common/tusb_common.h **** 
 174:SynaptiX_FDK/lib/tinyusb/src/common/tusb_common.h **** 
 175:SynaptiX_FDK/lib/tinyusb/src/common/tusb_common.h **** //------------- Bytes -------------//
 176:SynaptiX_FDK/lib/tinyusb/src/common/tusb_common.h **** TU_ATTR_ALWAYS_INLINE static inline uint32_t tu_u32(uint8_t b3, uint8_t b2, uint8_t b1, uint8_t b0)
 177:SynaptiX_FDK/lib/tinyusb/src/common/tusb_common.h ****   return (((uint32_t)b3) << 24) | (((uint32_t)b2) << 16) | (((uint32_t)b1) << 8) | b0;
ARM GAS  C:\Users\DELL\AppData\Local\Temp\ccSfED1Y.s 			page 18


 178:SynaptiX_FDK/lib/tinyusb/src/common/tusb_common.h **** }
 179:SynaptiX_FDK/lib/tinyusb/src/common/tusb_common.h **** 
 180:SynaptiX_FDK/lib/tinyusb/src/common/tusb_common.h **** TU_ATTR_ALWAYS_INLINE static inline uint32_t tu_u32_from_u16(uint16_t high, uint16_t low) {
 181:SynaptiX_FDK/lib/tinyusb/src/common/tusb_common.h ****   return (((uint32_t)high) << 16) | low;
 182:SynaptiX_FDK/lib/tinyusb/src/common/tusb_common.h **** }
 183:SynaptiX_FDK/lib/tinyusb/src/common/tusb_common.h **** 
 184:SynaptiX_FDK/lib/tinyusb/src/common/tusb_common.h **** TU_ATTR_ALWAYS_INLINE static inline uint16_t tu_u16(uint8_t high, uint8_t low) {
 185:SynaptiX_FDK/lib/tinyusb/src/common/tusb_common.h ****   return (uint16_t)((((uint16_t)high) << 8) | low);
 186:SynaptiX_FDK/lib/tinyusb/src/common/tusb_common.h **** }
 187:SynaptiX_FDK/lib/tinyusb/src/common/tusb_common.h **** 
 188:SynaptiX_FDK/lib/tinyusb/src/common/tusb_common.h **** TU_ATTR_ALWAYS_INLINE static inline uint8_t tu_u32_byte3(uint32_t ui32) { return TU_U32_BYTE3(ui32)
 189:SynaptiX_FDK/lib/tinyusb/src/common/tusb_common.h **** TU_ATTR_ALWAYS_INLINE static inline uint8_t tu_u32_byte2(uint32_t ui32) { return TU_U32_BYTE2(ui32)
 190:SynaptiX_FDK/lib/tinyusb/src/common/tusb_common.h **** TU_ATTR_ALWAYS_INLINE static inline uint8_t tu_u32_byte1(uint32_t ui32) { return TU_U32_BYTE1(ui32)
 191:SynaptiX_FDK/lib/tinyusb/src/common/tusb_common.h **** TU_ATTR_ALWAYS_INLINE static inline uint8_t tu_u32_byte0(uint32_t ui32) { return TU_U32_BYTE0(ui32)
 192:SynaptiX_FDK/lib/tinyusb/src/common/tusb_common.h **** 
 193:SynaptiX_FDK/lib/tinyusb/src/common/tusb_common.h **** TU_ATTR_ALWAYS_INLINE static inline uint16_t tu_u32_high16(uint32_t ui32) { return (uint16_t) (ui32
 194:SynaptiX_FDK/lib/tinyusb/src/common/tusb_common.h **** TU_ATTR_ALWAYS_INLINE static inline uint16_t tu_u32_low16 (uint32_t ui32) { return (uint16_t) (ui32
 195:SynaptiX_FDK/lib/tinyusb/src/common/tusb_common.h **** 
 196:SynaptiX_FDK/lib/tinyusb/src/common/tusb_common.h **** TU_ATTR_ALWAYS_INLINE static inline uint8_t tu_u16_high(uint16_t ui16) { return TU_U16_HIGH(ui16); 
 197:SynaptiX_FDK/lib/tinyusb/src/common/tusb_common.h **** TU_ATTR_ALWAYS_INLINE static inline uint8_t tu_u16_low (uint16_t ui16) { return TU_U16_LOW(ui16); }
 198:SynaptiX_FDK/lib/tinyusb/src/common/tusb_common.h **** 
 199:SynaptiX_FDK/lib/tinyusb/src/common/tusb_common.h **** //------------- Bits -------------//
 200:SynaptiX_FDK/lib/tinyusb/src/common/tusb_common.h **** TU_ATTR_ALWAYS_INLINE static inline uint32_t tu_bit_set  (uint32_t value, uint8_t pos) { return val
 201:SynaptiX_FDK/lib/tinyusb/src/common/tusb_common.h **** TU_ATTR_ALWAYS_INLINE static inline uint32_t tu_bit_clear(uint32_t value, uint8_t pos) { return val
 202:SynaptiX_FDK/lib/tinyusb/src/common/tusb_common.h **** TU_ATTR_ALWAYS_INLINE static inline bool     tu_bit_test (uint32_t value, uint8_t pos) { return (va
 375              		.loc 4 202 46 is_stmt 1 view .LVU90
 376              	.LBB140:
 377              		.loc 4 202 90 view .LVU91
 378              		.loc 4 202 126 is_stmt 0 view .LVU92
 379 0026 04F00104 		and	r4, r4, #1
 380              	.LVL27:
 381              		.loc 4 202 126 view .LVU93
 382              	.LBE140:
 383              	.LBE139:
 148:SynaptiX_FDK/lib/tinyusb/src/class/cdc/cdc_device.c **** }
 384              		.loc 1 148 10 view .LVU94
 385 002a ECE7     		b	.L20
 386              	.LVL28:
 387              	.L22:
 146:SynaptiX_FDK/lib/tinyusb/src/class/cdc/cdc_device.c ****   // DTR (bit 0) active  is considered as connected
 388              		.loc 1 146 3 discriminator 1 view .LVU95
 389 002c 0024     		movs	r4, #0
 390              	.LVL29:
 146:SynaptiX_FDK/lib/tinyusb/src/class/cdc/cdc_device.c ****   // DTR (bit 0) active  is considered as connected
 391              		.loc 1 146 3 discriminator 1 view .LVU96
 392 002e EAE7     		b	.L20
 393              	.L26:
 394              		.align	2
 395              	.L25:
 396 0030 00000000 		.word	_cdcd_itf
 397              		.cfi_endproc
 398              	.LFE452:
 400              		.section	.text.tud_cdc_n_get_line_state,"ax",%progbits
 401              		.align	1
 402              		.global	tud_cdc_n_get_line_state
 403              		.syntax unified
 404              		.thumb
ARM GAS  C:\Users\DELL\AppData\Local\Temp\ccSfED1Y.s 			page 19


 405              		.thumb_func
 407              	tud_cdc_n_get_line_state:
 408              	.LVL30:
 409              	.LFB453:
 150:SynaptiX_FDK/lib/tinyusb/src/class/cdc/cdc_device.c **** 
 151:SynaptiX_FDK/lib/tinyusb/src/class/cdc/cdc_device.c **** uint8_t tud_cdc_n_get_line_state(uint8_t itf) {
 410              		.loc 1 151 47 is_stmt 1 view -0
 411              		.cfi_startproc
 412              		@ args = 0, pretend = 0, frame = 0
 413              		@ frame_needed = 0, uses_anonymous_args = 0
 414              		@ link register save eliminated.
 152:SynaptiX_FDK/lib/tinyusb/src/class/cdc/cdc_device.c ****   TU_VERIFY(itf < CFG_TUD_CDC, 0);
 415              		.loc 1 152 3 view .LVU98
 416              		.loc 1 152 3 view .LVU99
 417 0000 28B9     		cbnz	r0, .L29
 418              		.loc 1 152 3 view .LVU100
 153:SynaptiX_FDK/lib/tinyusb/src/class/cdc/cdc_device.c ****   return _cdcd_itf[itf].line_state;
 419              		.loc 1 153 3 view .LVU101
 420              		.loc 1 153 24 is_stmt 0 view .LVU102
 421 0002 044B     		ldr	r3, .L30
 422 0004 BC21     		movs	r1, #188
 423 0006 01FB0033 		mla	r3, r1, r0, r3
 424 000a D878     		ldrb	r0, [r3, #3]	@ zero_extendqisi2
 425              	.LVL31:
 426              		.loc 1 153 24 view .LVU103
 427 000c 7047     		bx	lr
 428              	.LVL32:
 429              	.L29:
 152:SynaptiX_FDK/lib/tinyusb/src/class/cdc/cdc_device.c ****   TU_VERIFY(itf < CFG_TUD_CDC, 0);
 430              		.loc 1 152 3 discriminator 1 view .LVU104
 431 000e 0020     		movs	r0, #0
 432              	.LVL33:
 154:SynaptiX_FDK/lib/tinyusb/src/class/cdc/cdc_device.c **** }
 433              		.loc 1 154 1 view .LVU105
 434 0010 7047     		bx	lr
 435              	.L31:
 436 0012 00BF     		.align	2
 437              	.L30:
 438 0014 00000000 		.word	_cdcd_itf
 439              		.cfi_endproc
 440              	.LFE453:
 442              		.section	.text.tud_cdc_n_get_line_coding,"ax",%progbits
 443              		.align	1
 444              		.global	tud_cdc_n_get_line_coding
 445              		.syntax unified
 446              		.thumb
 447              		.thumb_func
 449              	tud_cdc_n_get_line_coding:
 450              	.LVL34:
 451              	.LFB454:
 155:SynaptiX_FDK/lib/tinyusb/src/class/cdc/cdc_device.c **** 
 156:SynaptiX_FDK/lib/tinyusb/src/class/cdc/cdc_device.c **** void tud_cdc_n_get_line_coding(uint8_t itf, cdc_line_coding_t *coding) {
 452              		.loc 1 156 72 is_stmt 1 view -0
 453              		.cfi_startproc
 454              		@ args = 0, pretend = 0, frame = 0
 455              		@ frame_needed = 0, uses_anonymous_args = 0
 456              		@ link register save eliminated.
ARM GAS  C:\Users\DELL\AppData\Local\Temp\ccSfED1Y.s 			page 20


 157:SynaptiX_FDK/lib/tinyusb/src/class/cdc/cdc_device.c ****   TU_VERIFY(itf < CFG_TUD_CDC, );
 457              		.loc 1 157 3 view .LVU107
 458              		.loc 1 157 3 view .LVU108
 459 0000 0246     		mov	r2, r0
 460 0002 48B9     		cbnz	r0, .L32
 461              		.loc 1 157 3 view .LVU109
 158:SynaptiX_FDK/lib/tinyusb/src/class/cdc/cdc_device.c ****   (*coding) = _cdcd_itf[itf].line_coding;
 462              		.loc 1 158 3 view .LVU110
 463              		.loc 1 158 13 is_stmt 0 view .LVU111
 464 0004 054B     		ldr	r3, .L34
 465 0006 BC20     		movs	r0, #188
 466              	.LVL35:
 467              		.loc 1 158 13 view .LVU112
 468 0008 00FB0233 		mla	r3, r0, r2, r3
 469 000c 5868     		ldr	r0, [r3, #4]
 470 000e 0860     		str	r0, [r1]	@ unaligned
 471 0010 1A89     		ldrh	r2, [r3, #8]	@ unaligned
 472              	.LVL36:
 473              		.loc 1 158 13 view .LVU113
 474 0012 9B7A     		ldrb	r3, [r3, #10]	@ zero_extendqisi2
 475 0014 8A80     		strh	r2, [r1, #4]	@ unaligned
 476 0016 8B71     		strb	r3, [r1, #6]
 477              	.L32:
 159:SynaptiX_FDK/lib/tinyusb/src/class/cdc/cdc_device.c **** }
 478              		.loc 1 159 1 view .LVU114
 479 0018 7047     		bx	lr
 480              	.L35:
 481 001a 00BF     		.align	2
 482              	.L34:
 483 001c 00000000 		.word	_cdcd_itf
 484              		.cfi_endproc
 485              	.LFE454:
 487              		.section	.text.tud_cdc_n_set_wanted_char,"ax",%progbits
 488              		.align	1
 489              		.global	tud_cdc_n_set_wanted_char
 490              		.syntax unified
 491              		.thumb
 492              		.thumb_func
 494              	tud_cdc_n_set_wanted_char:
 495              	.LVL37:
 496              	.LFB455:
 160:SynaptiX_FDK/lib/tinyusb/src/class/cdc/cdc_device.c **** 
 161:SynaptiX_FDK/lib/tinyusb/src/class/cdc/cdc_device.c **** #if CFG_TUD_CDC_NOTIFY
 162:SynaptiX_FDK/lib/tinyusb/src/class/cdc/cdc_device.c **** bool tud_cdc_n_notify_msg(uint8_t itf, cdc_notify_msg_t *msg) {
 163:SynaptiX_FDK/lib/tinyusb/src/class/cdc/cdc_device.c ****   TU_VERIFY(itf < CFG_TUD_CDC);
 164:SynaptiX_FDK/lib/tinyusb/src/class/cdc/cdc_device.c ****   const cdcd_interface_t *p_cdc = &_cdcd_itf[itf];
 165:SynaptiX_FDK/lib/tinyusb/src/class/cdc/cdc_device.c ****   TU_VERIFY(tud_ready() && p_cdc->ep_notify != 0);
 166:SynaptiX_FDK/lib/tinyusb/src/class/cdc/cdc_device.c ****   TU_VERIFY(usbd_edpt_claim(p_cdc->rhport, p_cdc->ep_notify));
 167:SynaptiX_FDK/lib/tinyusb/src/class/cdc/cdc_device.c **** 
 168:SynaptiX_FDK/lib/tinyusb/src/class/cdc/cdc_device.c ****     #if CFG_TUD_EDPT_DEDICATED_HWFIFO
 169:SynaptiX_FDK/lib/tinyusb/src/class/cdc/cdc_device.c ****   cdc_notify_msg_t *msg_epbuf = msg;
 170:SynaptiX_FDK/lib/tinyusb/src/class/cdc/cdc_device.c ****     #else
 171:SynaptiX_FDK/lib/tinyusb/src/class/cdc/cdc_device.c ****   cdc_notify_msg_t *msg_epbuf = &_cdcd_epbuf[itf].epnotify;
 172:SynaptiX_FDK/lib/tinyusb/src/class/cdc/cdc_device.c ****   *msg_epbuf                  = *msg;
 173:SynaptiX_FDK/lib/tinyusb/src/class/cdc/cdc_device.c ****     #endif
 174:SynaptiX_FDK/lib/tinyusb/src/class/cdc/cdc_device.c **** 
 175:SynaptiX_FDK/lib/tinyusb/src/class/cdc/cdc_device.c ****   msg_epbuf->request.wIndex = p_cdc->itf_num;
ARM GAS  C:\Users\DELL\AppData\Local\Temp\ccSfED1Y.s 			page 21


 176:SynaptiX_FDK/lib/tinyusb/src/class/cdc/cdc_device.c **** 
 177:SynaptiX_FDK/lib/tinyusb/src/class/cdc/cdc_device.c ****   return usbd_edpt_xfer(p_cdc->rhport, p_cdc->ep_notify, (uint8_t *)msg_epbuf, 8 + msg_epbuf->reque
 178:SynaptiX_FDK/lib/tinyusb/src/class/cdc/cdc_device.c **** }
 179:SynaptiX_FDK/lib/tinyusb/src/class/cdc/cdc_device.c **** #endif
 180:SynaptiX_FDK/lib/tinyusb/src/class/cdc/cdc_device.c **** 
 181:SynaptiX_FDK/lib/tinyusb/src/class/cdc/cdc_device.c **** void tud_cdc_n_set_wanted_char(uint8_t itf, char wanted) {
 497              		.loc 1 181 58 is_stmt 1 view -0
 498              		.cfi_startproc
 499              		@ args = 0, pretend = 0, frame = 0
 500              		@ frame_needed = 0, uses_anonymous_args = 0
 501              		@ link register save eliminated.
 182:SynaptiX_FDK/lib/tinyusb/src/class/cdc/cdc_device.c ****   TU_VERIFY(itf < CFG_TUD_CDC, );
 502              		.loc 1 182 3 view .LVU116
 503              		.loc 1 182 3 view .LVU117
 504 0000 0246     		mov	r2, r0
 505 0002 20B9     		cbnz	r0, .L36
 506              		.loc 1 182 3 view .LVU118
 183:SynaptiX_FDK/lib/tinyusb/src/class/cdc/cdc_device.c ****   _cdcd_itf[itf].wanted_char = wanted;
 507              		.loc 1 183 3 view .LVU119
 508              		.loc 1 183 30 is_stmt 0 view .LVU120
 509 0004 024B     		ldr	r3, .L38
 510 0006 BC20     		movs	r0, #188
 511              	.LVL38:
 512              		.loc 1 183 30 view .LVU121
 513 0008 00FB0233 		mla	r3, r0, r2, r3
 514 000c D972     		strb	r1, [r3, #11]
 515              	.L36:
 184:SynaptiX_FDK/lib/tinyusb/src/class/cdc/cdc_device.c **** }
 516              		.loc 1 184 1 view .LVU122
 517 000e 7047     		bx	lr
 518              	.L39:
 519              		.align	2
 520              	.L38:
 521 0010 00000000 		.word	_cdcd_itf
 522              		.cfi_endproc
 523              	.LFE455:
 525              		.section	.text.tud_cdc_n_available,"ax",%progbits
 526              		.align	1
 527              		.global	tud_cdc_n_available
 528              		.syntax unified
 529              		.thumb
 530              		.thumb_func
 532              	tud_cdc_n_available:
 533              	.LVL39:
 534              	.LFB456:
 185:SynaptiX_FDK/lib/tinyusb/src/class/cdc/cdc_device.c **** 
 186:SynaptiX_FDK/lib/tinyusb/src/class/cdc/cdc_device.c **** //--------------------------------------------------------------------+
 187:SynaptiX_FDK/lib/tinyusb/src/class/cdc/cdc_device.c **** // READ API
 188:SynaptiX_FDK/lib/tinyusb/src/class/cdc/cdc_device.c **** //--------------------------------------------------------------------+
 189:SynaptiX_FDK/lib/tinyusb/src/class/cdc/cdc_device.c **** uint32_t tud_cdc_n_available(uint8_t itf) {
 535              		.loc 1 189 43 is_stmt 1 view -0
 536              		.cfi_startproc
 537              		@ args = 0, pretend = 0, frame = 0
 538              		@ frame_needed = 0, uses_anonymous_args = 0
 539              		@ link register save eliminated.
 190:SynaptiX_FDK/lib/tinyusb/src/class/cdc/cdc_device.c ****   TU_VERIFY(itf < CFG_TUD_CDC, 0);
 540              		.loc 1 190 3 view .LVU124
ARM GAS  C:\Users\DELL\AppData\Local\Temp\ccSfED1Y.s 			page 22


 541              		.loc 1 190 3 view .LVU125
 542 0000 0346     		mov	r3, r0
 543 0002 B8B9     		cbnz	r0, .L44
 544              		.loc 1 190 3 view .LVU126
 191:SynaptiX_FDK/lib/tinyusb/src/class/cdc/cdc_device.c ****   return tu_edpt_stream_read_available(&_cdcd_itf[itf].rx_stream);
 545              		.loc 1 191 3 view .LVU127
 546              		.loc 1 191 40 is_stmt 0 view .LVU128
 547 0004 BC22     		movs	r2, #188
 548 0006 02FB03F3 		mul	r3, r2, r3
 549 000a 2033     		adds	r3, r3, #32
 550 000c 0A4A     		ldr	r2, .L45
 551 000e 1344     		add	r3, r3, r2
 552              	.LVL40:
 553              	.LBB141:
 554              	.LBI141:
 132:SynaptiX_FDK/lib/tinyusb/src/common/tusb_private.h **** }
 133:SynaptiX_FDK/lib/tinyusb/src/common/tusb_private.h **** 
 134:SynaptiX_FDK/lib/tinyusb/src/common/tusb_private.h **** TU_ATTR_ALWAYS_INLINE static inline void tu_edpt_stream_close(tu_edpt_stream_t* s) {
 135:SynaptiX_FDK/lib/tinyusb/src/common/tusb_private.h ****   s->ep_addr = 0;
 136:SynaptiX_FDK/lib/tinyusb/src/common/tusb_private.h **** }
 137:SynaptiX_FDK/lib/tinyusb/src/common/tusb_private.h **** 
 138:SynaptiX_FDK/lib/tinyusb/src/common/tusb_private.h **** TU_ATTR_ALWAYS_INLINE static inline void tu_edpt_stream_clear(tu_edpt_stream_t *s) {
 139:SynaptiX_FDK/lib/tinyusb/src/common/tusb_private.h ****   tu_fifo_clear(&s->ff);
 140:SynaptiX_FDK/lib/tinyusb/src/common/tusb_private.h **** }
 141:SynaptiX_FDK/lib/tinyusb/src/common/tusb_private.h **** 
 142:SynaptiX_FDK/lib/tinyusb/src/common/tusb_private.h **** TU_ATTR_ALWAYS_INLINE static inline bool tu_edpt_stream_empty(tu_edpt_stream_t *s) {
 143:SynaptiX_FDK/lib/tinyusb/src/common/tusb_private.h ****   return tu_fifo_empty(&s->ff);
 144:SynaptiX_FDK/lib/tinyusb/src/common/tusb_private.h **** }
 145:SynaptiX_FDK/lib/tinyusb/src/common/tusb_private.h **** 
 146:SynaptiX_FDK/lib/tinyusb/src/common/tusb_private.h **** //--------------------------------------------------------------------+
 147:SynaptiX_FDK/lib/tinyusb/src/common/tusb_private.h **** // Stream Write
 148:SynaptiX_FDK/lib/tinyusb/src/common/tusb_private.h **** //--------------------------------------------------------------------+
 149:SynaptiX_FDK/lib/tinyusb/src/common/tusb_private.h **** 
 150:SynaptiX_FDK/lib/tinyusb/src/common/tusb_private.h **** // Write to stream
 151:SynaptiX_FDK/lib/tinyusb/src/common/tusb_private.h **** uint32_t tu_edpt_stream_write(tu_edpt_stream_t *s, const void *buffer, uint32_t bufsize);
 152:SynaptiX_FDK/lib/tinyusb/src/common/tusb_private.h **** 
 153:SynaptiX_FDK/lib/tinyusb/src/common/tusb_private.h **** // Start an usb transfer if endpoint is not busy. Return number of queued bytes
 154:SynaptiX_FDK/lib/tinyusb/src/common/tusb_private.h **** uint32_t tu_edpt_stream_write_xfer(tu_edpt_stream_t *s);
 155:SynaptiX_FDK/lib/tinyusb/src/common/tusb_private.h **** 
 156:SynaptiX_FDK/lib/tinyusb/src/common/tusb_private.h **** // Start an zero-length packet if needed
 157:SynaptiX_FDK/lib/tinyusb/src/common/tusb_private.h **** bool tu_edpt_stream_write_zlp_if_needed(tu_edpt_stream_t *s, uint32_t last_xferred_bytes);
 158:SynaptiX_FDK/lib/tinyusb/src/common/tusb_private.h **** 
 159:SynaptiX_FDK/lib/tinyusb/src/common/tusb_private.h **** // Get the number of bytes available for writing to FIFO
 160:SynaptiX_FDK/lib/tinyusb/src/common/tusb_private.h **** // Note: if no fifo, return endpoint size if not busy, 0 otherwise
 161:SynaptiX_FDK/lib/tinyusb/src/common/tusb_private.h **** uint32_t tu_edpt_stream_write_available(tu_edpt_stream_t *s);
 162:SynaptiX_FDK/lib/tinyusb/src/common/tusb_private.h **** 
 163:SynaptiX_FDK/lib/tinyusb/src/common/tusb_private.h **** //--------------------------------------------------------------------+
 164:SynaptiX_FDK/lib/tinyusb/src/common/tusb_private.h **** // Stream Read
 165:SynaptiX_FDK/lib/tinyusb/src/common/tusb_private.h **** //--------------------------------------------------------------------+
 166:SynaptiX_FDK/lib/tinyusb/src/common/tusb_private.h **** 
 167:SynaptiX_FDK/lib/tinyusb/src/common/tusb_private.h **** // Read from stream
 168:SynaptiX_FDK/lib/tinyusb/src/common/tusb_private.h **** uint32_t tu_edpt_stream_read(tu_edpt_stream_t *s, void *buffer, uint32_t bufsize);
 169:SynaptiX_FDK/lib/tinyusb/src/common/tusb_private.h **** 
 170:SynaptiX_FDK/lib/tinyusb/src/common/tusb_private.h **** // Start an usb transfer if endpoint is not busy
 171:SynaptiX_FDK/lib/tinyusb/src/common/tusb_private.h **** uint32_t tu_edpt_stream_read_xfer(tu_edpt_stream_t *s);
 172:SynaptiX_FDK/lib/tinyusb/src/common/tusb_private.h **** 
 173:SynaptiX_FDK/lib/tinyusb/src/common/tusb_private.h **** // Complete read transfer by writing EP -> FIFO. Must be called in the transfer complete callback
ARM GAS  C:\Users\DELL\AppData\Local\Temp\ccSfED1Y.s 			page 23


 174:SynaptiX_FDK/lib/tinyusb/src/common/tusb_private.h **** TU_ATTR_ALWAYS_INLINE static inline
 175:SynaptiX_FDK/lib/tinyusb/src/common/tusb_private.h **** void tu_edpt_stream_read_xfer_complete(tu_edpt_stream_t* s, uint32_t xferred_bytes) {
 176:SynaptiX_FDK/lib/tinyusb/src/common/tusb_private.h ****   if (s->ep_buf != NULL) {
 177:SynaptiX_FDK/lib/tinyusb/src/common/tusb_private.h ****     tu_fifo_write_n(&s->ff, s->ep_buf, (uint16_t)xferred_bytes);
 178:SynaptiX_FDK/lib/tinyusb/src/common/tusb_private.h ****   }
 179:SynaptiX_FDK/lib/tinyusb/src/common/tusb_private.h **** }
 180:SynaptiX_FDK/lib/tinyusb/src/common/tusb_private.h **** 
 181:SynaptiX_FDK/lib/tinyusb/src/common/tusb_private.h **** // Complete read transfer with provided buffer
 182:SynaptiX_FDK/lib/tinyusb/src/common/tusb_private.h **** TU_ATTR_ALWAYS_INLINE static inline
 183:SynaptiX_FDK/lib/tinyusb/src/common/tusb_private.h **** void tu_edpt_stream_read_xfer_complete_with_buf(tu_edpt_stream_t *s, const void *buf, uint32_t xfer
 184:SynaptiX_FDK/lib/tinyusb/src/common/tusb_private.h ****   tu_fifo_write_n(&s->ff, buf, (uint16_t)xferred_bytes);
 185:SynaptiX_FDK/lib/tinyusb/src/common/tusb_private.h **** }
 186:SynaptiX_FDK/lib/tinyusb/src/common/tusb_private.h **** 
 187:SynaptiX_FDK/lib/tinyusb/src/common/tusb_private.h **** // Get the number of bytes available for reading
 188:SynaptiX_FDK/lib/tinyusb/src/common/tusb_private.h **** TU_ATTR_ALWAYS_INLINE static inline uint32_t tu_edpt_stream_read_available(const tu_edpt_stream_t *
 555              		.loc 3 188 46 is_stmt 1 view .LVU129
 556              	.LBB142:
 189:SynaptiX_FDK/lib/tinyusb/src/common/tusb_private.h ****   return (uint32_t) tu_fifo_count(&s->ff);
 557              		.loc 3 189 3 view .LVU130
 558              	.LBB143:
 559              	.LBI143:
 560              		.file 5 "SynaptiX_FDK/lib/tinyusb/src/common/tusb_fifo.h"
   1:SynaptiX_FDK/lib/tinyusb/src/common/tusb_fifo.h **** /*
   2:SynaptiX_FDK/lib/tinyusb/src/common/tusb_fifo.h ****  * The MIT License (MIT)
   3:SynaptiX_FDK/lib/tinyusb/src/common/tusb_fifo.h ****  *
   4:SynaptiX_FDK/lib/tinyusb/src/common/tusb_fifo.h ****  * Copyright (c) 2019 Ha Thach (tinyusb.org)
   5:SynaptiX_FDK/lib/tinyusb/src/common/tusb_fifo.h ****  * Copyright (c) 2020 Reinhard Panhuber - rework to unmasked pointers
   6:SynaptiX_FDK/lib/tinyusb/src/common/tusb_fifo.h ****  *
   7:SynaptiX_FDK/lib/tinyusb/src/common/tusb_fifo.h ****  * Permission is hereby granted, free of charge, to any person obtaining a copy
   8:SynaptiX_FDK/lib/tinyusb/src/common/tusb_fifo.h ****  * of this software and associated documentation files (the "Software"), to deal
   9:SynaptiX_FDK/lib/tinyusb/src/common/tusb_fifo.h ****  * in the Software without restriction, including without limitation the rights
  10:SynaptiX_FDK/lib/tinyusb/src/common/tusb_fifo.h ****  * to use, copy, modify, merge, publish, distribute, sublicense, and/or sell
  11:SynaptiX_FDK/lib/tinyusb/src/common/tusb_fifo.h ****  * copies of the Software, and to permit persons to whom the Software is
  12:SynaptiX_FDK/lib/tinyusb/src/common/tusb_fifo.h ****  * furnished to do so, subject to the following conditions:
  13:SynaptiX_FDK/lib/tinyusb/src/common/tusb_fifo.h ****  *
  14:SynaptiX_FDK/lib/tinyusb/src/common/tusb_fifo.h ****  * The above copyright notice and this permission notice shall be included in
  15:SynaptiX_FDK/lib/tinyusb/src/common/tusb_fifo.h ****  * all copies or substantial portions of the Software.
  16:SynaptiX_FDK/lib/tinyusb/src/common/tusb_fifo.h ****  *
  17:SynaptiX_FDK/lib/tinyusb/src/common/tusb_fifo.h ****  * THE SOFTWARE IS PROVIDED "AS IS", WITHOUT WARRANTY OF ANY KIND, EXPRESS OR
  18:SynaptiX_FDK/lib/tinyusb/src/common/tusb_fifo.h ****  * IMPLIED, INCLUDING BUT NOT LIMITED TO THE WARRANTIES OF MERCHANTABILITY,
  19:SynaptiX_FDK/lib/tinyusb/src/common/tusb_fifo.h ****  * FITNESS FOR A PARTICULAR PURPOSE AND NONINFRINGEMENT. IN NO EVENT SHALL THE
  20:SynaptiX_FDK/lib/tinyusb/src/common/tusb_fifo.h ****  * AUTHORS OR COPYRIGHT HOLDERS BE LIABLE FOR ANY CLAIM, DAMAGES OR OTHER
  21:SynaptiX_FDK/lib/tinyusb/src/common/tusb_fifo.h ****  * LIABILITY, WHETHER IN AN ACTION OF CONTRACT, TORT OR OTHERWISE, ARISING FROM,
  22:SynaptiX_FDK/lib/tinyusb/src/common/tusb_fifo.h ****  * OUT OF OR IN CONNECTION WITH THE SOFTWARE OR THE USE OR OTHER DEALINGS IN
  23:SynaptiX_FDK/lib/tinyusb/src/common/tusb_fifo.h ****  * THE SOFTWARE.
  24:SynaptiX_FDK/lib/tinyusb/src/common/tusb_fifo.h ****  *
  25:SynaptiX_FDK/lib/tinyusb/src/common/tusb_fifo.h ****  * This file is part of the TinyUSB stack.
  26:SynaptiX_FDK/lib/tinyusb/src/common/tusb_fifo.h ****  */
  27:SynaptiX_FDK/lib/tinyusb/src/common/tusb_fifo.h **** 
  28:SynaptiX_FDK/lib/tinyusb/src/common/tusb_fifo.h **** #ifndef TUSB_FIFO_H_
  29:SynaptiX_FDK/lib/tinyusb/src/common/tusb_fifo.h **** #define TUSB_FIFO_H_
  30:SynaptiX_FDK/lib/tinyusb/src/common/tusb_fifo.h **** 
  31:SynaptiX_FDK/lib/tinyusb/src/common/tusb_fifo.h **** #ifdef __cplusplus
  32:SynaptiX_FDK/lib/tinyusb/src/common/tusb_fifo.h **** extern "C" {
  33:SynaptiX_FDK/lib/tinyusb/src/common/tusb_fifo.h **** #endif
  34:SynaptiX_FDK/lib/tinyusb/src/common/tusb_fifo.h **** 
  35:SynaptiX_FDK/lib/tinyusb/src/common/tusb_fifo.h **** #include "common/tusb_common.h"
ARM GAS  C:\Users\DELL\AppData\Local\Temp\ccSfED1Y.s 			page 24


  36:SynaptiX_FDK/lib/tinyusb/src/common/tusb_fifo.h **** #include "osal/osal.h"
  37:SynaptiX_FDK/lib/tinyusb/src/common/tusb_fifo.h **** 
  38:SynaptiX_FDK/lib/tinyusb/src/common/tusb_fifo.h **** //--------------------------------------------------------------------+
  39:SynaptiX_FDK/lib/tinyusb/src/common/tusb_fifo.h **** // Configuration
  40:SynaptiX_FDK/lib/tinyusb/src/common/tusb_fifo.h **** //--------------------------------------------------------------------+
  41:SynaptiX_FDK/lib/tinyusb/src/common/tusb_fifo.h **** // mutex is only needed for RTOS. For OS None, we don't get preempted
  42:SynaptiX_FDK/lib/tinyusb/src/common/tusb_fifo.h **** #define CFG_FIFO_MUTEX      OSAL_MUTEX_REQUIRED
  43:SynaptiX_FDK/lib/tinyusb/src/common/tusb_fifo.h **** 
  44:SynaptiX_FDK/lib/tinyusb/src/common/tusb_fifo.h **** #define CFG_TUSB_FIFO_HWFIFO_API (CFG_TUD_EDPT_DEDICATED_HWFIFO || CFG_TUH_EDPT_DEDICATED_HWFIFO)
  45:SynaptiX_FDK/lib/tinyusb/src/common/tusb_fifo.h **** 
  46:SynaptiX_FDK/lib/tinyusb/src/common/tusb_fifo.h **** #ifndef CFG_TUSB_FIFO_HWFIFO_DATA_STRIDE
  47:SynaptiX_FDK/lib/tinyusb/src/common/tusb_fifo.h ****   #define CFG_TUSB_FIFO_HWFIFO_DATA_STRIDE 0
  48:SynaptiX_FDK/lib/tinyusb/src/common/tusb_fifo.h **** #endif
  49:SynaptiX_FDK/lib/tinyusb/src/common/tusb_fifo.h **** 
  50:SynaptiX_FDK/lib/tinyusb/src/common/tusb_fifo.h **** #ifndef CFG_TUSB_FIFO_HWFIFO_ADDR_STRIDE
  51:SynaptiX_FDK/lib/tinyusb/src/common/tusb_fifo.h ****   #define CFG_TUSB_FIFO_HWFIFO_ADDR_STRIDE 0
  52:SynaptiX_FDK/lib/tinyusb/src/common/tusb_fifo.h **** #endif
  53:SynaptiX_FDK/lib/tinyusb/src/common/tusb_fifo.h **** 
  54:SynaptiX_FDK/lib/tinyusb/src/common/tusb_fifo.h **** // Due to the use of unmasked pointers, this FIFO does not suffer from losing
  55:SynaptiX_FDK/lib/tinyusb/src/common/tusb_fifo.h **** // one item slice. Furthermore, write and read operations are completely
  56:SynaptiX_FDK/lib/tinyusb/src/common/tusb_fifo.h **** // decoupled as write and read functions do not modify a common state. Henceforth,
  57:SynaptiX_FDK/lib/tinyusb/src/common/tusb_fifo.h **** // writing or reading from the FIFO within an ISR is safe as long as no other
  58:SynaptiX_FDK/lib/tinyusb/src/common/tusb_fifo.h **** // process (thread or ISR) interferes.
  59:SynaptiX_FDK/lib/tinyusb/src/common/tusb_fifo.h **** // Also, this FIFO is ready to be used in combination with a DMA as the write and
  60:SynaptiX_FDK/lib/tinyusb/src/common/tusb_fifo.h **** // read pointers can be updated from within a DMA ISR. Overflows are detectable
  61:SynaptiX_FDK/lib/tinyusb/src/common/tusb_fifo.h **** // within a certain number (see tu_fifo_overflow()).
  62:SynaptiX_FDK/lib/tinyusb/src/common/tusb_fifo.h **** 
  63:SynaptiX_FDK/lib/tinyusb/src/common/tusb_fifo.h **** /* Write/Read "pointer" is in the range of: 0 .. depth - 1, and is used to get the fifo data.
  64:SynaptiX_FDK/lib/tinyusb/src/common/tusb_fifo.h ****  * Write/Read "index" is always in the range of: 0 .. 2*depth-1
  65:SynaptiX_FDK/lib/tinyusb/src/common/tusb_fifo.h ****  *
  66:SynaptiX_FDK/lib/tinyusb/src/common/tusb_fifo.h ****  * The extra window allow us to determine the fifo state of empty or full with only 2 indices
  67:SynaptiX_FDK/lib/tinyusb/src/common/tusb_fifo.h ****  * Following are examples with depth = 3
  68:SynaptiX_FDK/lib/tinyusb/src/common/tusb_fifo.h ****  *
  69:SynaptiX_FDK/lib/tinyusb/src/common/tusb_fifo.h ****  * - empty: W = R
  70:SynaptiX_FDK/lib/tinyusb/src/common/tusb_fifo.h ****  *                |
  71:SynaptiX_FDK/lib/tinyusb/src/common/tusb_fifo.h ****  *    -------------------------
  72:SynaptiX_FDK/lib/tinyusb/src/common/tusb_fifo.h ****  *    | 0 | RW| 2 | 3 | 4 | 5 |
  73:SynaptiX_FDK/lib/tinyusb/src/common/tusb_fifo.h ****  *
  74:SynaptiX_FDK/lib/tinyusb/src/common/tusb_fifo.h ****  * - full 1: W > R
  75:SynaptiX_FDK/lib/tinyusb/src/common/tusb_fifo.h ****  *                |
  76:SynaptiX_FDK/lib/tinyusb/src/common/tusb_fifo.h ****  *    -------------------------
  77:SynaptiX_FDK/lib/tinyusb/src/common/tusb_fifo.h ****  *    | 0 | R | 2 | 3 | W | 5 |
  78:SynaptiX_FDK/lib/tinyusb/src/common/tusb_fifo.h ****  *
  79:SynaptiX_FDK/lib/tinyusb/src/common/tusb_fifo.h ****  * - full 2: W < R
  80:SynaptiX_FDK/lib/tinyusb/src/common/tusb_fifo.h ****  *                |
  81:SynaptiX_FDK/lib/tinyusb/src/common/tusb_fifo.h ****  *    -------------------------
  82:SynaptiX_FDK/lib/tinyusb/src/common/tusb_fifo.h ****  *    | 0 | 1 | W | 3 | 4 | R |
  83:SynaptiX_FDK/lib/tinyusb/src/common/tusb_fifo.h ****  *
  84:SynaptiX_FDK/lib/tinyusb/src/common/tusb_fifo.h ****  * - Number of items in the fifo can be determined in either cases:
  85:SynaptiX_FDK/lib/tinyusb/src/common/tusb_fifo.h ****  *    - case W >= R: Count = W - R
  86:SynaptiX_FDK/lib/tinyusb/src/common/tusb_fifo.h ****  *    - case W <  R: Count = 2*depth - (R - W)
  87:SynaptiX_FDK/lib/tinyusb/src/common/tusb_fifo.h ****  *
  88:SynaptiX_FDK/lib/tinyusb/src/common/tusb_fifo.h ****  * In non-overwritable mode, computed Count (in above 2 cases) is at most equal to depth.
  89:SynaptiX_FDK/lib/tinyusb/src/common/tusb_fifo.h ****  * However, in over-writable mode, write index can be repeatedly increased and count can be
  90:SynaptiX_FDK/lib/tinyusb/src/common/tusb_fifo.h ****  * temporarily larger than depth (overflowed condition) e.g
  91:SynaptiX_FDK/lib/tinyusb/src/common/tusb_fifo.h ****  *
  92:SynaptiX_FDK/lib/tinyusb/src/common/tusb_fifo.h ****  *  - Overflowed 1: write(3), write(1)
ARM GAS  C:\Users\DELL\AppData\Local\Temp\ccSfED1Y.s 			page 25


  93:SynaptiX_FDK/lib/tinyusb/src/common/tusb_fifo.h ****  *    In this case we will adjust Read index when read()/peek() is called so that count = depth.
  94:SynaptiX_FDK/lib/tinyusb/src/common/tusb_fifo.h ****  *                  |
  95:SynaptiX_FDK/lib/tinyusb/src/common/tusb_fifo.h ****  *      -------------------------
  96:SynaptiX_FDK/lib/tinyusb/src/common/tusb_fifo.h ****  *      | R | 1 | 2 | 3 | W | 5 |
  97:SynaptiX_FDK/lib/tinyusb/src/common/tusb_fifo.h ****  *
  98:SynaptiX_FDK/lib/tinyusb/src/common/tusb_fifo.h ****  *  - Double Overflowed i.e index is out of allowed range [0,2*depth)
  99:SynaptiX_FDK/lib/tinyusb/src/common/tusb_fifo.h ****  *    This occurs when we continue to write after 1st overflowed to 2nd overflowed. e.g:
 100:SynaptiX_FDK/lib/tinyusb/src/common/tusb_fifo.h ****  *      write(3), write(1), write(2)
 101:SynaptiX_FDK/lib/tinyusb/src/common/tusb_fifo.h ****  *    This must be prevented since it will cause unrecoverable state, in above example
 102:SynaptiX_FDK/lib/tinyusb/src/common/tusb_fifo.h ****  *    if not handled the fifo will be empty instead of continue-to-be full. Since we must not modif
 103:SynaptiX_FDK/lib/tinyusb/src/common/tusb_fifo.h ****  *    read index in write() function, which cause race condition. We will re-position write index s
 104:SynaptiX_FDK/lib/tinyusb/src/common/tusb_fifo.h ****  *    after data is written it is a full fifo i.e W = depth - R
 105:SynaptiX_FDK/lib/tinyusb/src/common/tusb_fifo.h ****  *
 106:SynaptiX_FDK/lib/tinyusb/src/common/tusb_fifo.h ****  *      re-position W = 1 before write(2)
 107:SynaptiX_FDK/lib/tinyusb/src/common/tusb_fifo.h ****  *      Note: we should also move data from mem[3] to read index as well, but deliberately skipped 
 108:SynaptiX_FDK/lib/tinyusb/src/common/tusb_fifo.h ****  *      since it is an expensive operation !!!
 109:SynaptiX_FDK/lib/tinyusb/src/common/tusb_fifo.h ****  *                  |
 110:SynaptiX_FDK/lib/tinyusb/src/common/tusb_fifo.h ****  *      -------------------------
 111:SynaptiX_FDK/lib/tinyusb/src/common/tusb_fifo.h ****  *      | R | W | 2 | 3 | 4 | 5 |
 112:SynaptiX_FDK/lib/tinyusb/src/common/tusb_fifo.h ****  *
 113:SynaptiX_FDK/lib/tinyusb/src/common/tusb_fifo.h ****  *      perform write(2), result is still a full fifo.
 114:SynaptiX_FDK/lib/tinyusb/src/common/tusb_fifo.h ****  *
 115:SynaptiX_FDK/lib/tinyusb/src/common/tusb_fifo.h ****  *                  |
 116:SynaptiX_FDK/lib/tinyusb/src/common/tusb_fifo.h ****  *      -------------------------
 117:SynaptiX_FDK/lib/tinyusb/src/common/tusb_fifo.h ****  *      | R | 1 | 2 | W | 4 | 5 |
 118:SynaptiX_FDK/lib/tinyusb/src/common/tusb_fifo.h ****  */
 119:SynaptiX_FDK/lib/tinyusb/src/common/tusb_fifo.h **** typedef struct {
 120:SynaptiX_FDK/lib/tinyusb/src/common/tusb_fifo.h ****   uint8_t *buffer;              // buffer pointer
 121:SynaptiX_FDK/lib/tinyusb/src/common/tusb_fifo.h ****   uint16_t depth;               // max items
 122:SynaptiX_FDK/lib/tinyusb/src/common/tusb_fifo.h ****   bool     overwritable;        // overwritable when full
 123:SynaptiX_FDK/lib/tinyusb/src/common/tusb_fifo.h ****   // 1 byte padding here
 124:SynaptiX_FDK/lib/tinyusb/src/common/tusb_fifo.h **** 
 125:SynaptiX_FDK/lib/tinyusb/src/common/tusb_fifo.h ****   volatile uint16_t wr_idx;     // write index
 126:SynaptiX_FDK/lib/tinyusb/src/common/tusb_fifo.h ****   volatile uint16_t rd_idx;     // read index
 127:SynaptiX_FDK/lib/tinyusb/src/common/tusb_fifo.h **** 
 128:SynaptiX_FDK/lib/tinyusb/src/common/tusb_fifo.h **** #if OSAL_MUTEX_REQUIRED
 129:SynaptiX_FDK/lib/tinyusb/src/common/tusb_fifo.h ****   osal_mutex_t mutex_wr;
 130:SynaptiX_FDK/lib/tinyusb/src/common/tusb_fifo.h ****   osal_mutex_t mutex_rd;
 131:SynaptiX_FDK/lib/tinyusb/src/common/tusb_fifo.h **** #endif
 132:SynaptiX_FDK/lib/tinyusb/src/common/tusb_fifo.h **** } tu_fifo_t;
 133:SynaptiX_FDK/lib/tinyusb/src/common/tusb_fifo.h **** 
 134:SynaptiX_FDK/lib/tinyusb/src/common/tusb_fifo.h **** typedef struct {
 135:SynaptiX_FDK/lib/tinyusb/src/common/tusb_fifo.h ****   struct {
 136:SynaptiX_FDK/lib/tinyusb/src/common/tusb_fifo.h ****     uint16_t len; // length
 137:SynaptiX_FDK/lib/tinyusb/src/common/tusb_fifo.h ****     uint8_t *ptr; // buffer pointer
 138:SynaptiX_FDK/lib/tinyusb/src/common/tusb_fifo.h ****   } linear, wrapped;
 139:SynaptiX_FDK/lib/tinyusb/src/common/tusb_fifo.h **** } tu_fifo_buffer_info_t;
 140:SynaptiX_FDK/lib/tinyusb/src/common/tusb_fifo.h **** 
 141:SynaptiX_FDK/lib/tinyusb/src/common/tusb_fifo.h **** // Access mode for hardware fifo read/write
 142:SynaptiX_FDK/lib/tinyusb/src/common/tusb_fifo.h **** typedef struct {
 143:SynaptiX_FDK/lib/tinyusb/src/common/tusb_fifo.h ****   uint8_t   data_stride;
 144:SynaptiX_FDK/lib/tinyusb/src/common/tusb_fifo.h ****   uintptr_t param;
 145:SynaptiX_FDK/lib/tinyusb/src/common/tusb_fifo.h **** } tu_hwfifo_access_t;
 146:SynaptiX_FDK/lib/tinyusb/src/common/tusb_fifo.h **** 
 147:SynaptiX_FDK/lib/tinyusb/src/common/tusb_fifo.h **** #define TU_FIFO_INIT(_buffer, _depth, _overwritable) \
 148:SynaptiX_FDK/lib/tinyusb/src/common/tusb_fifo.h ****   {                                                  \
 149:SynaptiX_FDK/lib/tinyusb/src/common/tusb_fifo.h ****     .buffer       = _buffer,                         \
ARM GAS  C:\Users\DELL\AppData\Local\Temp\ccSfED1Y.s 			page 26


 150:SynaptiX_FDK/lib/tinyusb/src/common/tusb_fifo.h ****     .depth        = _depth,                          \
 151:SynaptiX_FDK/lib/tinyusb/src/common/tusb_fifo.h ****     .overwritable = _overwritable,                   \
 152:SynaptiX_FDK/lib/tinyusb/src/common/tusb_fifo.h ****   }
 153:SynaptiX_FDK/lib/tinyusb/src/common/tusb_fifo.h **** 
 154:SynaptiX_FDK/lib/tinyusb/src/common/tusb_fifo.h **** #define TU_FIFO_DEF(_name, _depth, _overwritable)                    \
 155:SynaptiX_FDK/lib/tinyusb/src/common/tusb_fifo.h ****   uint8_t   _name##_buf[_depth];                                     \
 156:SynaptiX_FDK/lib/tinyusb/src/common/tusb_fifo.h ****   tu_fifo_t _name = TU_FIFO_INIT(_name##_buf, _depth, _overwritable)
 157:SynaptiX_FDK/lib/tinyusb/src/common/tusb_fifo.h **** 
 158:SynaptiX_FDK/lib/tinyusb/src/common/tusb_fifo.h **** // Moving data from tusb_fifo <-> USB hardware FIFOs e.g. STM32s need to use a special stride mode 
 159:SynaptiX_FDK/lib/tinyusb/src/common/tusb_fifo.h **** // data in 2/4 byte chunks from/to a fixed address (USB FIFO register) instead of incrementing the 
 160:SynaptiX_FDK/lib/tinyusb/src/common/tusb_fifo.h **** // read/write access_mode with stride_mode = true. The STRIDE DATA and ADDR stride must be configur
 161:SynaptiX_FDK/lib/tinyusb/src/common/tusb_fifo.h **** // CFG_TUSB_FIFO_HWFIFO_DATA_STRIDE and CFG_TUSB_FIFO_HWFIFO_ADDR_STRIDE
 162:SynaptiX_FDK/lib/tinyusb/src/common/tusb_fifo.h **** 
 163:SynaptiX_FDK/lib/tinyusb/src/common/tusb_fifo.h **** //--------------------------------------------------------------------+
 164:SynaptiX_FDK/lib/tinyusb/src/common/tusb_fifo.h **** // Setup API
 165:SynaptiX_FDK/lib/tinyusb/src/common/tusb_fifo.h **** //--------------------------------------------------------------------+
 166:SynaptiX_FDK/lib/tinyusb/src/common/tusb_fifo.h **** bool tu_fifo_config(tu_fifo_t *f, void *buffer, uint16_t depth, bool overwritable);
 167:SynaptiX_FDK/lib/tinyusb/src/common/tusb_fifo.h **** void tu_fifo_set_overwritable(tu_fifo_t *f, bool overwritable);
 168:SynaptiX_FDK/lib/tinyusb/src/common/tusb_fifo.h **** void tu_fifo_clear(tu_fifo_t *f);
 169:SynaptiX_FDK/lib/tinyusb/src/common/tusb_fifo.h **** 
 170:SynaptiX_FDK/lib/tinyusb/src/common/tusb_fifo.h **** #if OSAL_MUTEX_REQUIRED
 171:SynaptiX_FDK/lib/tinyusb/src/common/tusb_fifo.h **** TU_ATTR_ALWAYS_INLINE static inline
 172:SynaptiX_FDK/lib/tinyusb/src/common/tusb_fifo.h **** void tu_fifo_config_mutex(tu_fifo_t *f, osal_mutex_t wr_mutex, osal_mutex_t rd_mutex) {
 173:SynaptiX_FDK/lib/tinyusb/src/common/tusb_fifo.h ****   f->mutex_wr = wr_mutex;
 174:SynaptiX_FDK/lib/tinyusb/src/common/tusb_fifo.h ****   f->mutex_rd = rd_mutex;
 175:SynaptiX_FDK/lib/tinyusb/src/common/tusb_fifo.h **** }
 176:SynaptiX_FDK/lib/tinyusb/src/common/tusb_fifo.h **** #else
 177:SynaptiX_FDK/lib/tinyusb/src/common/tusb_fifo.h **** #define tu_fifo_config_mutex(_f, _wr_mutex, _rd_mutex)
 178:SynaptiX_FDK/lib/tinyusb/src/common/tusb_fifo.h **** #endif
 179:SynaptiX_FDK/lib/tinyusb/src/common/tusb_fifo.h **** 
 180:SynaptiX_FDK/lib/tinyusb/src/common/tusb_fifo.h **** //--------------------------------------------------------------------+
 181:SynaptiX_FDK/lib/tinyusb/src/common/tusb_fifo.h **** // Index API
 182:SynaptiX_FDK/lib/tinyusb/src/common/tusb_fifo.h **** //--------------------------------------------------------------------+
 183:SynaptiX_FDK/lib/tinyusb/src/common/tusb_fifo.h **** void tu_fifo_correct_read_pointer(tu_fifo_t *f);
 184:SynaptiX_FDK/lib/tinyusb/src/common/tusb_fifo.h **** 
 185:SynaptiX_FDK/lib/tinyusb/src/common/tusb_fifo.h **** // Pointer modifications intended to be used in combinations with DMAs.
 186:SynaptiX_FDK/lib/tinyusb/src/common/tusb_fifo.h **** // USE WITH CARE - NO SAFETY CHECKS CONDUCTED HERE! NOT MUTEX PROTECTED!
 187:SynaptiX_FDK/lib/tinyusb/src/common/tusb_fifo.h **** void tu_fifo_advance_write_pointer(tu_fifo_t *f, uint16_t n);
 188:SynaptiX_FDK/lib/tinyusb/src/common/tusb_fifo.h **** void tu_fifo_advance_read_pointer(tu_fifo_t *f, uint16_t n);
 189:SynaptiX_FDK/lib/tinyusb/src/common/tusb_fifo.h **** 
 190:SynaptiX_FDK/lib/tinyusb/src/common/tusb_fifo.h **** // If you want to read/write from/to the FIFO by use of a DMA, you may need to conduct two copies
 191:SynaptiX_FDK/lib/tinyusb/src/common/tusb_fifo.h **** // to handle a possible wrapping part. These functions deliver a pointer to start
 192:SynaptiX_FDK/lib/tinyusb/src/common/tusb_fifo.h **** // reading/writing from/to and a valid linear length along which no wrap occurs.
 193:SynaptiX_FDK/lib/tinyusb/src/common/tusb_fifo.h **** void tu_fifo_get_read_info(tu_fifo_t *f, tu_fifo_buffer_info_t *info);
 194:SynaptiX_FDK/lib/tinyusb/src/common/tusb_fifo.h **** void tu_fifo_get_write_info(tu_fifo_t *f, tu_fifo_buffer_info_t *info);
 195:SynaptiX_FDK/lib/tinyusb/src/common/tusb_fifo.h **** 
 196:SynaptiX_FDK/lib/tinyusb/src/common/tusb_fifo.h **** //--------------------------------------------------------------------+
 197:SynaptiX_FDK/lib/tinyusb/src/common/tusb_fifo.h **** // Peek API
 198:SynaptiX_FDK/lib/tinyusb/src/common/tusb_fifo.h **** // peek() will correct/re-index read pointer in case of an overflowed fifo to form a full fifo
 199:SynaptiX_FDK/lib/tinyusb/src/common/tusb_fifo.h **** //--------------------------------------------------------------------+
 200:SynaptiX_FDK/lib/tinyusb/src/common/tusb_fifo.h **** uint16_t tu_fifo_peek_n_access_mode(tu_fifo_t *f, void *p_buffer, uint16_t n, uint16_t wr_idx, uint
 201:SynaptiX_FDK/lib/tinyusb/src/common/tusb_fifo.h ****                                     const tu_hwfifo_access_t *access_mode);
 202:SynaptiX_FDK/lib/tinyusb/src/common/tusb_fifo.h **** bool     tu_fifo_peek(tu_fifo_t *f, void *p_buffer);
 203:SynaptiX_FDK/lib/tinyusb/src/common/tusb_fifo.h **** uint16_t tu_fifo_peek_n(tu_fifo_t *f, void *p_buffer, uint16_t n);
 204:SynaptiX_FDK/lib/tinyusb/src/common/tusb_fifo.h **** 
 205:SynaptiX_FDK/lib/tinyusb/src/common/tusb_fifo.h **** //--------------------------------------------------------------------+
 206:SynaptiX_FDK/lib/tinyusb/src/common/tusb_fifo.h **** // Read API
ARM GAS  C:\Users\DELL\AppData\Local\Temp\ccSfED1Y.s 			page 27


 207:SynaptiX_FDK/lib/tinyusb/src/common/tusb_fifo.h **** // peek() + advance read index
 208:SynaptiX_FDK/lib/tinyusb/src/common/tusb_fifo.h **** //--------------------------------------------------------------------+
 209:SynaptiX_FDK/lib/tinyusb/src/common/tusb_fifo.h **** uint16_t tu_fifo_read_n_access_mode(tu_fifo_t *f, void *buffer, uint16_t n, const tu_hwfifo_access_
 210:SynaptiX_FDK/lib/tinyusb/src/common/tusb_fifo.h **** bool     tu_fifo_read(tu_fifo_t *f, void *buffer);
 211:SynaptiX_FDK/lib/tinyusb/src/common/tusb_fifo.h **** TU_ATTR_ALWAYS_INLINE static inline uint16_t tu_fifo_read_n(tu_fifo_t *f, void *buffer, uint16_t n)
 212:SynaptiX_FDK/lib/tinyusb/src/common/tusb_fifo.h ****   return tu_fifo_read_n_access_mode(f, buffer, n, NULL);
 213:SynaptiX_FDK/lib/tinyusb/src/common/tusb_fifo.h **** }
 214:SynaptiX_FDK/lib/tinyusb/src/common/tusb_fifo.h **** 
 215:SynaptiX_FDK/lib/tinyusb/src/common/tusb_fifo.h **** // discard first n items from fifo i.e advance read pointer by n with mutex
 216:SynaptiX_FDK/lib/tinyusb/src/common/tusb_fifo.h **** // return number of discarded items
 217:SynaptiX_FDK/lib/tinyusb/src/common/tusb_fifo.h **** uint16_t tu_fifo_discard_n(tu_fifo_t *f, uint16_t n);
 218:SynaptiX_FDK/lib/tinyusb/src/common/tusb_fifo.h **** 
 219:SynaptiX_FDK/lib/tinyusb/src/common/tusb_fifo.h **** //--------------------------------------------------------------------+
 220:SynaptiX_FDK/lib/tinyusb/src/common/tusb_fifo.h **** // Write API
 221:SynaptiX_FDK/lib/tinyusb/src/common/tusb_fifo.h **** //--------------------------------------------------------------------+
 222:SynaptiX_FDK/lib/tinyusb/src/common/tusb_fifo.h **** uint16_t tu_fifo_write_n_access_mode(tu_fifo_t *f, const void *data, uint16_t n, const tu_hwfifo_ac
 223:SynaptiX_FDK/lib/tinyusb/src/common/tusb_fifo.h **** bool     tu_fifo_write(tu_fifo_t *f, const void *data);
 224:SynaptiX_FDK/lib/tinyusb/src/common/tusb_fifo.h **** TU_ATTR_ALWAYS_INLINE static inline uint16_t tu_fifo_write_n(tu_fifo_t *f, const void *data, uint16
 225:SynaptiX_FDK/lib/tinyusb/src/common/tusb_fifo.h ****   return tu_fifo_write_n_access_mode(f, data, n, NULL);
 226:SynaptiX_FDK/lib/tinyusb/src/common/tusb_fifo.h **** }
 227:SynaptiX_FDK/lib/tinyusb/src/common/tusb_fifo.h **** 
 228:SynaptiX_FDK/lib/tinyusb/src/common/tusb_fifo.h **** //--------------------------------------------------------------------+
 229:SynaptiX_FDK/lib/tinyusb/src/common/tusb_fifo.h **** // Hardware FIFO API
 230:SynaptiX_FDK/lib/tinyusb/src/common/tusb_fifo.h **** // Special hardware FIFO/Buffer to hold USB data, usually requires certain access method these can 
 231:SynaptiX_FDK/lib/tinyusb/src/common/tusb_fifo.h **** // CFG_TUSB_FIFO_HWFIFO_DATA_STRIDE (data width) and CFG_TUSB_FIFO_HWFIFO_ADDR_STRIDE (address incr
 232:SynaptiX_FDK/lib/tinyusb/src/common/tusb_fifo.h **** // Note: these usually has opposite direction (read/write) to/from our software FIFO  (tu_fifo_t)
 233:SynaptiX_FDK/lib/tinyusb/src/common/tusb_fifo.h **** //--------------------------------------------------------------------+
 234:SynaptiX_FDK/lib/tinyusb/src/common/tusb_fifo.h **** TU_ATTR_ALWAYS_INLINE static inline uint16_t tu_hwfifo_write_from_fifo(volatile void *hwfifo, tu_fi
 235:SynaptiX_FDK/lib/tinyusb/src/common/tusb_fifo.h ****                                                                        const tu_hwfifo_access_t *ac
 236:SynaptiX_FDK/lib/tinyusb/src/common/tusb_fifo.h ****   const tu_hwfifo_access_t default_access = {.data_stride = CFG_TUSB_FIFO_HWFIFO_DATA_STRIDE, .para
 237:SynaptiX_FDK/lib/tinyusb/src/common/tusb_fifo.h ****   return tu_fifo_read_n_access_mode(f, (void *)(uintptr_t)hwfifo, n,
 238:SynaptiX_FDK/lib/tinyusb/src/common/tusb_fifo.h ****                                     (access_mode != NULL) ? access_mode : &default_access);
 239:SynaptiX_FDK/lib/tinyusb/src/common/tusb_fifo.h **** }
 240:SynaptiX_FDK/lib/tinyusb/src/common/tusb_fifo.h **** 
 241:SynaptiX_FDK/lib/tinyusb/src/common/tusb_fifo.h **** TU_ATTR_ALWAYS_INLINE static inline uint16_t tu_hwfifo_read_to_fifo(const volatile void *hwfifo, tu
 242:SynaptiX_FDK/lib/tinyusb/src/common/tusb_fifo.h ****                                                                     uint16_t n, const tu_hwfifo_acc
 243:SynaptiX_FDK/lib/tinyusb/src/common/tusb_fifo.h ****   const tu_hwfifo_access_t default_access = {.data_stride = CFG_TUSB_FIFO_HWFIFO_DATA_STRIDE, .para
 244:SynaptiX_FDK/lib/tinyusb/src/common/tusb_fifo.h ****   return tu_fifo_write_n_access_mode(f, (const void *)(uintptr_t)hwfifo, n,
 245:SynaptiX_FDK/lib/tinyusb/src/common/tusb_fifo.h ****                                      (access_mode != NULL) ? access_mode : &default_access);
 246:SynaptiX_FDK/lib/tinyusb/src/common/tusb_fifo.h **** }
 247:SynaptiX_FDK/lib/tinyusb/src/common/tusb_fifo.h **** 
 248:SynaptiX_FDK/lib/tinyusb/src/common/tusb_fifo.h **** #if CFG_TUSB_FIFO_HWFIFO_API
 249:SynaptiX_FDK/lib/tinyusb/src/common/tusb_fifo.h **** // read from hwfifo to buffer
 250:SynaptiX_FDK/lib/tinyusb/src/common/tusb_fifo.h **** void tu_hwfifo_read(const volatile void *hwfifo, uint8_t *dest, uint16_t len, const tu_hwfifo_acces
 251:SynaptiX_FDK/lib/tinyusb/src/common/tusb_fifo.h **** 
 252:SynaptiX_FDK/lib/tinyusb/src/common/tusb_fifo.h **** // write to hwfifo from buffer with access mode
 253:SynaptiX_FDK/lib/tinyusb/src/common/tusb_fifo.h **** void tu_hwfifo_write(volatile void *hwfifo, const uint8_t *src, uint16_t len, const tu_hwfifo_acces
 254:SynaptiX_FDK/lib/tinyusb/src/common/tusb_fifo.h **** 
 255:SynaptiX_FDK/lib/tinyusb/src/common/tusb_fifo.h **** #endif
 256:SynaptiX_FDK/lib/tinyusb/src/common/tusb_fifo.h **** 
 257:SynaptiX_FDK/lib/tinyusb/src/common/tusb_fifo.h **** //--------------------------------------------------------------------+
 258:SynaptiX_FDK/lib/tinyusb/src/common/tusb_fifo.h **** // Internal Helper Local
 259:SynaptiX_FDK/lib/tinyusb/src/common/tusb_fifo.h **** // work on local copies of read/write indices in order to only access them once for re-entrancy
 260:SynaptiX_FDK/lib/tinyusb/src/common/tusb_fifo.h **** //--------------------------------------------------------------------+
 261:SynaptiX_FDK/lib/tinyusb/src/common/tusb_fifo.h **** // return overflowable count (index difference), which can be used to determine both fifo count and
 262:SynaptiX_FDK/lib/tinyusb/src/common/tusb_fifo.h **** TU_ATTR_ALWAYS_INLINE static inline uint16_t tu_ff_overflow_count(uint16_t depth, uint16_t wr_idx, 
 263:SynaptiX_FDK/lib/tinyusb/src/common/tusb_fifo.h ****   const int32_t diff = (int32_t)wr_idx - (int32_t)rd_idx;
ARM GAS  C:\Users\DELL\AppData\Local\Temp\ccSfED1Y.s 			page 28


 264:SynaptiX_FDK/lib/tinyusb/src/common/tusb_fifo.h ****   if (diff >= 0) {
 265:SynaptiX_FDK/lib/tinyusb/src/common/tusb_fifo.h ****     return (uint16_t)diff;
 266:SynaptiX_FDK/lib/tinyusb/src/common/tusb_fifo.h ****   } else {
 267:SynaptiX_FDK/lib/tinyusb/src/common/tusb_fifo.h ****     return (uint16_t)(2 * depth + diff);
 268:SynaptiX_FDK/lib/tinyusb/src/common/tusb_fifo.h ****   }
 269:SynaptiX_FDK/lib/tinyusb/src/common/tusb_fifo.h **** }
 270:SynaptiX_FDK/lib/tinyusb/src/common/tusb_fifo.h **** 
 271:SynaptiX_FDK/lib/tinyusb/src/common/tusb_fifo.h **** // return remaining slot in fifo
 272:SynaptiX_FDK/lib/tinyusb/src/common/tusb_fifo.h **** TU_ATTR_ALWAYS_INLINE static inline uint16_t tu_ff_remaining_local(uint16_t depth, uint16_t wr_idx,
 273:SynaptiX_FDK/lib/tinyusb/src/common/tusb_fifo.h ****   const uint16_t ovf_count = tu_ff_overflow_count(depth, wr_idx, rd_idx);
 274:SynaptiX_FDK/lib/tinyusb/src/common/tusb_fifo.h ****   return (depth > ovf_count) ? (depth - ovf_count) : 0;
 275:SynaptiX_FDK/lib/tinyusb/src/common/tusb_fifo.h **** }
 276:SynaptiX_FDK/lib/tinyusb/src/common/tusb_fifo.h **** 
 277:SynaptiX_FDK/lib/tinyusb/src/common/tusb_fifo.h **** //--------------------------------------------------------------------+
 278:SynaptiX_FDK/lib/tinyusb/src/common/tusb_fifo.h **** // State API
 279:SynaptiX_FDK/lib/tinyusb/src/common/tusb_fifo.h **** // Following functions are reentrant since they only access read/write indices once, therefore can 
 280:SynaptiX_FDK/lib/tinyusb/src/common/tusb_fifo.h **** // ISRs context without the need of mutexes
 281:SynaptiX_FDK/lib/tinyusb/src/common/tusb_fifo.h **** //--------------------------------------------------------------------+
 282:SynaptiX_FDK/lib/tinyusb/src/common/tusb_fifo.h **** TU_ATTR_ALWAYS_INLINE static inline uint16_t tu_fifo_depth(const tu_fifo_t *f) {
 283:SynaptiX_FDK/lib/tinyusb/src/common/tusb_fifo.h ****   return f->depth;
 284:SynaptiX_FDK/lib/tinyusb/src/common/tusb_fifo.h **** }
 285:SynaptiX_FDK/lib/tinyusb/src/common/tusb_fifo.h **** 
 286:SynaptiX_FDK/lib/tinyusb/src/common/tusb_fifo.h **** TU_ATTR_ALWAYS_INLINE static inline bool tu_fifo_empty(const tu_fifo_t *f) {
 287:SynaptiX_FDK/lib/tinyusb/src/common/tusb_fifo.h ****   const uint16_t wr_idx = f->wr_idx;
 288:SynaptiX_FDK/lib/tinyusb/src/common/tusb_fifo.h ****   const uint16_t rd_idx = f->rd_idx;
 289:SynaptiX_FDK/lib/tinyusb/src/common/tusb_fifo.h ****   return wr_idx == rd_idx;
 290:SynaptiX_FDK/lib/tinyusb/src/common/tusb_fifo.h **** }
 291:SynaptiX_FDK/lib/tinyusb/src/common/tusb_fifo.h **** 
 292:SynaptiX_FDK/lib/tinyusb/src/common/tusb_fifo.h **** // return number of items in fifo, capped to fifo's depth
 293:SynaptiX_FDK/lib/tinyusb/src/common/tusb_fifo.h **** TU_ATTR_ALWAYS_INLINE static inline uint16_t tu_fifo_count(const tu_fifo_t *f) {
 561              		.loc 5 293 46 view .LVU131
 562              	.LBB144:
 294:SynaptiX_FDK/lib/tinyusb/src/common/tusb_fifo.h ****   const uint16_t wr_idx = f->wr_idx;
 563              		.loc 5 294 3 view .LVU132
 564              		.loc 5 294 18 is_stmt 0 view .LVU133
 565 0010 1A8B     		ldrh	r2, [r3, #24]
 566 0012 92B2     		uxth	r2, r2
 567              	.LVL41:
 295:SynaptiX_FDK/lib/tinyusb/src/common/tusb_fifo.h ****   const uint16_t rd_idx = f->rd_idx;
 568              		.loc 5 295 3 is_stmt 1 view .LVU134
 569              		.loc 5 295 18 is_stmt 0 view .LVU135
 570 0014 598B     		ldrh	r1, [r3, #26]
 571 0016 89B2     		uxth	r1, r1
 572              	.LVL42:
 296:SynaptiX_FDK/lib/tinyusb/src/common/tusb_fifo.h ****   return tu_min16(tu_ff_overflow_count(f->depth, wr_idx, rd_idx), f->depth);
 573              		.loc 5 296 3 is_stmt 1 view .LVU136
 574              		.loc 5 296 41 is_stmt 0 view .LVU137
 575 0018 988A     		ldrh	r0, [r3, #20]
 576              	.LVL43:
 577              	.LBB145:
 578              	.LBI145:
 262:SynaptiX_FDK/lib/tinyusb/src/common/tusb_fifo.h ****   const int32_t diff = (int32_t)wr_idx - (int32_t)rd_idx;
 579              		.loc 5 262 46 is_stmt 1 view .LVU138
 580              	.LBB146:
 263:SynaptiX_FDK/lib/tinyusb/src/common/tusb_fifo.h ****   if (diff >= 0) {
 581              		.loc 5 263 3 view .LVU139
 263:SynaptiX_FDK/lib/tinyusb/src/common/tusb_fifo.h ****   if (diff >= 0) {
ARM GAS  C:\Users\DELL\AppData\Local\Temp\ccSfED1Y.s 			page 29


 582              		.loc 5 263 17 is_stmt 0 view .LVU140
 583 001a 531A     		subs	r3, r2, r1
 584              	.LVL44:
 264:SynaptiX_FDK/lib/tinyusb/src/common/tusb_fifo.h ****     return (uint16_t)diff;
 585              		.loc 5 264 3 is_stmt 1 view .LVU141
 264:SynaptiX_FDK/lib/tinyusb/src/common/tusb_fifo.h ****     return (uint16_t)diff;
 586              		.loc 5 264 6 is_stmt 0 view .LVU142
 587 001c 002B     		cmp	r3, #0
 588 001e 04DB     		blt	.L42
 265:SynaptiX_FDK/lib/tinyusb/src/common/tusb_fifo.h ****   } else {
 589              		.loc 5 265 5 is_stmt 1 view .LVU143
 265:SynaptiX_FDK/lib/tinyusb/src/common/tusb_fifo.h ****   } else {
 590              		.loc 5 265 12 is_stmt 0 view .LVU144
 591 0020 9AB2     		uxth	r2, r3
 592              	.LVL45:
 593              	.L43:
 265:SynaptiX_FDK/lib/tinyusb/src/common/tusb_fifo.h ****   } else {
 594              		.loc 5 265 12 view .LVU145
 595              	.LBE146:
 596              	.LBE145:
 597              	.LBB148:
 598              	.LBI148:
 203:SynaptiX_FDK/lib/tinyusb/src/common/tusb_common.h **** 
 204:SynaptiX_FDK/lib/tinyusb/src/common/tusb_common.h **** //------------- Min -------------//
 205:SynaptiX_FDK/lib/tinyusb/src/common/tusb_common.h **** TU_ATTR_ALWAYS_INLINE static inline uint8_t  tu_min8  (uint8_t  x, uint8_t y ) { return (x < y) ? x
 206:SynaptiX_FDK/lib/tinyusb/src/common/tusb_common.h **** TU_ATTR_ALWAYS_INLINE static inline uint16_t tu_min16 (uint16_t x, uint16_t y) { return (x < y) ? x
 599              		.loc 4 206 46 is_stmt 1 view .LVU146
 600              	.LBB149:
 601              		.loc 4 206 82 view .LVU147
 602              		.loc 4 206 101 is_stmt 0 view .LVU148
 603 0022 9042     		cmp	r0, r2
 604 0024 28BF     		it	cs
 605 0026 1046     		movcs	r0, r2
 606              	.LVL46:
 607              		.loc 4 206 101 view .LVU149
 608              	.LBE149:
 609              	.LBE148:
 610              	.LBE144:
 611              	.LBE143:
 612              	.LBE142:
 613              	.LBE141:
 614              		.loc 1 191 10 view .LVU150
 615 0028 7047     		bx	lr
 616              	.LVL47:
 617              	.L42:
 618              	.LBB154:
 619              	.LBB153:
 620              	.LBB152:
 621              	.LBB151:
 622              	.LBB150:
 623              	.LBB147:
 267:SynaptiX_FDK/lib/tinyusb/src/common/tusb_fifo.h ****   }
 624              		.loc 5 267 5 is_stmt 1 view .LVU151
 267:SynaptiX_FDK/lib/tinyusb/src/common/tusb_fifo.h ****   }
 625              		.loc 5 267 12 is_stmt 0 view .LVU152
 626 002a 521A     		subs	r2, r2, r1
 627              	.LVL48:
ARM GAS  C:\Users\DELL\AppData\Local\Temp\ccSfED1Y.s 			page 30


 267:SynaptiX_FDK/lib/tinyusb/src/common/tusb_fifo.h ****   }
 628              		.loc 5 267 12 view .LVU153
 629 002c 02EB4002 		add	r2, r2, r0, lsl #1
 630 0030 92B2     		uxth	r2, r2
 631 0032 F6E7     		b	.L43
 632              	.LVL49:
 633              	.L44:
 267:SynaptiX_FDK/lib/tinyusb/src/common/tusb_fifo.h ****   }
 634              		.loc 5 267 12 view .LVU154
 635              	.LBE147:
 636              	.LBE150:
 637              	.LBE151:
 638              	.LBE152:
 639              	.LBE153:
 640              	.LBE154:
 190:SynaptiX_FDK/lib/tinyusb/src/class/cdc/cdc_device.c ****   return tu_edpt_stream_read_available(&_cdcd_itf[itf].rx_stream);
 641              		.loc 1 190 3 discriminator 1 view .LVU155
 642 0034 0020     		movs	r0, #0
 643              	.LVL50:
 192:SynaptiX_FDK/lib/tinyusb/src/class/cdc/cdc_device.c **** }
 644              		.loc 1 192 1 view .LVU156
 645 0036 7047     		bx	lr
 646              	.L46:
 647              		.align	2
 648              	.L45:
 649 0038 00000000 		.word	_cdcd_itf
 650              		.cfi_endproc
 651              	.LFE456:
 653              		.section	.text.tud_cdc_n_read,"ax",%progbits
 654              		.align	1
 655              		.global	tud_cdc_n_read
 656              		.syntax unified
 657              		.thumb
 658              		.thumb_func
 660              	tud_cdc_n_read:
 661              	.LVL51:
 662              	.LFB457:
 193:SynaptiX_FDK/lib/tinyusb/src/class/cdc/cdc_device.c **** 
 194:SynaptiX_FDK/lib/tinyusb/src/class/cdc/cdc_device.c **** uint32_t tud_cdc_n_read(uint8_t itf, void* buffer, uint32_t bufsize) {
 663              		.loc 1 194 70 is_stmt 1 view -0
 664              		.cfi_startproc
 665              		@ args = 0, pretend = 0, frame = 0
 666              		@ frame_needed = 0, uses_anonymous_args = 0
 195:SynaptiX_FDK/lib/tinyusb/src/class/cdc/cdc_device.c ****   TU_VERIFY(itf < CFG_TUD_CDC, 0);
 667              		.loc 1 195 3 view .LVU158
 668              		.loc 1 195 3 view .LVU159
 669 0000 08B1     		cbz	r0, .L54
 670              		.loc 1 195 3 is_stmt 0 discriminator 1 view .LVU160
 671 0002 0020     		movs	r0, #0
 672              	.LVL52:
 196:SynaptiX_FDK/lib/tinyusb/src/class/cdc/cdc_device.c ****   cdcd_interface_t *p_cdc = &_cdcd_itf[itf];
 197:SynaptiX_FDK/lib/tinyusb/src/class/cdc/cdc_device.c ****   return tu_edpt_stream_read(&p_cdc->rx_stream, buffer, bufsize);
 198:SynaptiX_FDK/lib/tinyusb/src/class/cdc/cdc_device.c **** }
 673              		.loc 1 198 1 view .LVU161
 674 0004 7047     		bx	lr
 675              	.LVL53:
 676              	.L54:
ARM GAS  C:\Users\DELL\AppData\Local\Temp\ccSfED1Y.s 			page 31


 194:SynaptiX_FDK/lib/tinyusb/src/class/cdc/cdc_device.c ****   TU_VERIFY(itf < CFG_TUD_CDC, 0);
 677              		.loc 1 194 70 view .LVU162
 678 0006 08B5     		push	{r3, lr}
 679              	.LCFI2:
 680              		.cfi_def_cfa_offset 8
 681              		.cfi_offset 3, -8
 682              		.cfi_offset 14, -4
 683 0008 0346     		mov	r3, r0
 195:SynaptiX_FDK/lib/tinyusb/src/class/cdc/cdc_device.c ****   TU_VERIFY(itf < CFG_TUD_CDC, 0);
 684              		.loc 1 195 3 is_stmt 1 view .LVU163
 196:SynaptiX_FDK/lib/tinyusb/src/class/cdc/cdc_device.c ****   cdcd_interface_t *p_cdc = &_cdcd_itf[itf];
 685              		.loc 1 196 3 view .LVU164
 686              	.LVL54:
 197:SynaptiX_FDK/lib/tinyusb/src/class/cdc/cdc_device.c **** }
 687              		.loc 1 197 3 view .LVU165
 197:SynaptiX_FDK/lib/tinyusb/src/class/cdc/cdc_device.c **** }
 688              		.loc 1 197 10 is_stmt 0 view .LVU166
 689 000a BC20     		movs	r0, #188
 690              	.LVL55:
 197:SynaptiX_FDK/lib/tinyusb/src/class/cdc/cdc_device.c **** }
 691              		.loc 1 197 10 view .LVU167
 692 000c 03FB00F0 		mul	r0, r3, r0
 693 0010 2030     		adds	r0, r0, #32
 694 0012 034B     		ldr	r3, .L55
 695              	.LVL56:
 197:SynaptiX_FDK/lib/tinyusb/src/class/cdc/cdc_device.c **** }
 696              		.loc 1 197 10 view .LVU168
 697 0014 1844     		add	r0, r0, r3
 698 0016 0430     		adds	r0, r0, #4
 699 0018 FFF7FEFF 		bl	tu_edpt_stream_read
 700              	.LVL57:
 701              		.loc 1 198 1 view .LVU169
 702 001c 08BD     		pop	{r3, pc}
 703              	.L56:
 704 001e 00BF     		.align	2
 705              	.L55:
 706 0020 00000000 		.word	_cdcd_itf
 707              		.cfi_endproc
 708              	.LFE457:
 710              		.section	.text.tud_cdc_n_peek,"ax",%progbits
 711              		.align	1
 712              		.global	tud_cdc_n_peek
 713              		.syntax unified
 714              		.thumb
 715              		.thumb_func
 717              	tud_cdc_n_peek:
 718              	.LVL58:
 719              	.LFB458:
 199:SynaptiX_FDK/lib/tinyusb/src/class/cdc/cdc_device.c **** 
 200:SynaptiX_FDK/lib/tinyusb/src/class/cdc/cdc_device.c **** bool tud_cdc_n_peek(uint8_t itf, uint8_t *chr) {
 720              		.loc 1 200 48 is_stmt 1 view -0
 721              		.cfi_startproc
 722              		@ args = 0, pretend = 0, frame = 0
 723              		@ frame_needed = 0, uses_anonymous_args = 0
 201:SynaptiX_FDK/lib/tinyusb/src/class/cdc/cdc_device.c ****   TU_VERIFY(itf < CFG_TUD_CDC);
 724              		.loc 1 201 3 view .LVU171
 725              		.loc 1 201 3 view .LVU172
ARM GAS  C:\Users\DELL\AppData\Local\Temp\ccSfED1Y.s 			page 32


 726 0000 08B1     		cbz	r0, .L64
 727              		.loc 1 201 3 is_stmt 0 discriminator 1 view .LVU173
 728 0002 0020     		movs	r0, #0
 729              	.LVL59:
 202:SynaptiX_FDK/lib/tinyusb/src/class/cdc/cdc_device.c ****   return tu_edpt_stream_peek(&_cdcd_itf[itf].rx_stream, chr);
 203:SynaptiX_FDK/lib/tinyusb/src/class/cdc/cdc_device.c **** }
 730              		.loc 1 203 1 view .LVU174
 731 0004 7047     		bx	lr
 732              	.LVL60:
 733              	.L64:
 200:SynaptiX_FDK/lib/tinyusb/src/class/cdc/cdc_device.c ****   TU_VERIFY(itf < CFG_TUD_CDC);
 734              		.loc 1 200 48 view .LVU175
 735 0006 08B5     		push	{r3, lr}
 736              	.LCFI3:
 737              		.cfi_def_cfa_offset 8
 738              		.cfi_offset 3, -8
 739              		.cfi_offset 14, -4
 201:SynaptiX_FDK/lib/tinyusb/src/class/cdc/cdc_device.c ****   TU_VERIFY(itf < CFG_TUD_CDC);
 740              		.loc 1 201 3 is_stmt 1 view .LVU176
 202:SynaptiX_FDK/lib/tinyusb/src/class/cdc/cdc_device.c ****   return tu_edpt_stream_peek(&_cdcd_itf[itf].rx_stream, chr);
 741              		.loc 1 202 3 view .LVU177
 742              	.LVL61:
 743              	.LBB155:
 744              	.LBI155:
 190:SynaptiX_FDK/lib/tinyusb/src/common/tusb_private.h **** }
 191:SynaptiX_FDK/lib/tinyusb/src/common/tusb_private.h **** 
 192:SynaptiX_FDK/lib/tinyusb/src/common/tusb_private.h **** TU_ATTR_ALWAYS_INLINE static inline bool tu_edpt_stream_peek(tu_edpt_stream_t *s, uint8_t *ch) {
 745              		.loc 3 192 42 view .LVU178
 746              	.LBB156:
 193:SynaptiX_FDK/lib/tinyusb/src/common/tusb_private.h ****   return tu_fifo_peek(&s->ff, ch);
 747              		.loc 3 193 3 view .LVU179
 748              		.loc 3 193 10 is_stmt 0 view .LVU180
 749 0008 BC22     		movs	r2, #188
 750 000a 02FB00F0 		mul	r0, r2, r0
 751              	.LVL62:
 752              		.loc 3 193 10 view .LVU181
 753 000e 2830     		adds	r0, r0, #40
 754 0010 024B     		ldr	r3, .L65
 755 0012 1844     		add	r0, r0, r3
 756 0014 0830     		adds	r0, r0, #8
 757 0016 FFF7FEFF 		bl	tu_fifo_peek
 758              	.LVL63:
 759              		.loc 3 193 10 view .LVU182
 760              	.LBE156:
 761              	.LBE155:
 762              		.loc 1 203 1 view .LVU183
 763 001a 08BD     		pop	{r3, pc}
 764              	.L66:
 765              		.align	2
 766              	.L65:
 767 001c 00000000 		.word	_cdcd_itf
 768              		.cfi_endproc
 769              	.LFE458:
 771              		.section	.text.tud_cdc_n_read_flush,"ax",%progbits
 772              		.align	1
 773              		.global	tud_cdc_n_read_flush
 774              		.syntax unified
ARM GAS  C:\Users\DELL\AppData\Local\Temp\ccSfED1Y.s 			page 33


 775              		.thumb
 776              		.thumb_func
 778              	tud_cdc_n_read_flush:
 779              	.LVL64:
 780              	.LFB459:
 204:SynaptiX_FDK/lib/tinyusb/src/class/cdc/cdc_device.c **** 
 205:SynaptiX_FDK/lib/tinyusb/src/class/cdc/cdc_device.c **** void tud_cdc_n_read_flush(uint8_t itf) {
 781              		.loc 1 205 40 is_stmt 1 view -0
 782              		.cfi_startproc
 783              		@ args = 0, pretend = 0, frame = 0
 784              		@ frame_needed = 0, uses_anonymous_args = 0
 206:SynaptiX_FDK/lib/tinyusb/src/class/cdc/cdc_device.c ****   TU_VERIFY(itf < CFG_TUD_CDC, );
 785              		.loc 1 206 3 view .LVU185
 786              		.loc 1 206 3 view .LVU186
 787 0000 00B1     		cbz	r0, .L73
 788 0002 7047     		bx	lr
 789              	.L73:
 205:SynaptiX_FDK/lib/tinyusb/src/class/cdc/cdc_device.c ****   TU_VERIFY(itf < CFG_TUD_CDC, );
 790              		.loc 1 205 40 is_stmt 0 view .LVU187
 791 0004 38B5     		push	{r3, r4, r5, lr}
 792              	.LCFI4:
 793              		.cfi_def_cfa_offset 16
 794              		.cfi_offset 3, -16
 795              		.cfi_offset 4, -12
 796              		.cfi_offset 5, -8
 797              		.cfi_offset 14, -4
 798              		.loc 1 206 3 is_stmt 1 view .LVU188
 207:SynaptiX_FDK/lib/tinyusb/src/class/cdc/cdc_device.c ****   cdcd_interface_t *p_cdc = &_cdcd_itf[itf];
 799              		.loc 1 207 3 view .LVU189
 800              	.LVL65:
 208:SynaptiX_FDK/lib/tinyusb/src/class/cdc/cdc_device.c ****   tu_edpt_stream_clear(&p_cdc->rx_stream);
 801              		.loc 1 208 3 view .LVU190
 802              	.LBB157:
 803              	.LBI157:
 138:SynaptiX_FDK/lib/tinyusb/src/common/tusb_private.h ****   tu_fifo_clear(&s->ff);
 804              		.loc 3 138 42 view .LVU191
 805              	.LBB158:
 139:SynaptiX_FDK/lib/tinyusb/src/common/tusb_private.h **** }
 806              		.loc 3 139 3 view .LVU192
 807 0006 BC22     		movs	r2, #188
 808 0008 02FB00F4 		mul	r4, r2, r0
 809 000c 04F12800 		add	r0, r4, #40
 810              	.LVL66:
 139:SynaptiX_FDK/lib/tinyusb/src/common/tusb_private.h **** }
 811              		.loc 3 139 3 is_stmt 0 view .LVU193
 812 0010 054D     		ldr	r5, .L74
 813 0012 2844     		add	r0, r0, r5
 814 0014 0830     		adds	r0, r0, #8
 815 0016 FFF7FEFF 		bl	tu_fifo_clear
 816              	.LVL67:
 139:SynaptiX_FDK/lib/tinyusb/src/common/tusb_private.h **** }
 817              		.loc 3 139 3 view .LVU194
 818              	.LBE158:
 819              	.LBE157:
 209:SynaptiX_FDK/lib/tinyusb/src/class/cdc/cdc_device.c ****   tu_edpt_stream_read_xfer(&p_cdc->rx_stream);
 820              		.loc 1 209 3 is_stmt 1 view .LVU195
 821 001a 04F12003 		add	r3, r4, #32
ARM GAS  C:\Users\DELL\AppData\Local\Temp\ccSfED1Y.s 			page 34


 822 001e 5819     		adds	r0, r3, r5
 823 0020 0430     		adds	r0, r0, #4
 824 0022 FFF7FEFF 		bl	tu_edpt_stream_read_xfer
 825              	.LVL68:
 210:SynaptiX_FDK/lib/tinyusb/src/class/cdc/cdc_device.c **** }
 826              		.loc 1 210 1 is_stmt 0 view .LVU196
 827 0026 38BD     		pop	{r3, r4, r5, pc}
 828              	.L75:
 829              		.align	2
 830              	.L74:
 831 0028 00000000 		.word	_cdcd_itf
 832              		.cfi_endproc
 833              	.LFE459:
 835              		.section	.text.tud_cdc_n_write,"ax",%progbits
 836              		.align	1
 837              		.global	tud_cdc_n_write
 838              		.syntax unified
 839              		.thumb
 840              		.thumb_func
 842              	tud_cdc_n_write:
 843              	.LVL69:
 844              	.LFB460:
 211:SynaptiX_FDK/lib/tinyusb/src/class/cdc/cdc_device.c **** 
 212:SynaptiX_FDK/lib/tinyusb/src/class/cdc/cdc_device.c **** //--------------------------------------------------------------------+
 213:SynaptiX_FDK/lib/tinyusb/src/class/cdc/cdc_device.c **** // WRITE API
 214:SynaptiX_FDK/lib/tinyusb/src/class/cdc/cdc_device.c **** //--------------------------------------------------------------------+
 215:SynaptiX_FDK/lib/tinyusb/src/class/cdc/cdc_device.c **** uint32_t tud_cdc_n_write(uint8_t itf, const void* buffer, uint32_t bufsize) {
 845              		.loc 1 215 77 is_stmt 1 view -0
 846              		.cfi_startproc
 847              		@ args = 0, pretend = 0, frame = 0
 848              		@ frame_needed = 0, uses_anonymous_args = 0
 216:SynaptiX_FDK/lib/tinyusb/src/class/cdc/cdc_device.c ****   TU_VERIFY(itf < CFG_TUD_CDC, 0);
 849              		.loc 1 216 3 view .LVU198
 850              		.loc 1 216 3 view .LVU199
 851 0000 08B1     		cbz	r0, .L83
 852              		.loc 1 216 3 is_stmt 0 discriminator 1 view .LVU200
 853 0002 0020     		movs	r0, #0
 854              	.LVL70:
 217:SynaptiX_FDK/lib/tinyusb/src/class/cdc/cdc_device.c ****   cdcd_interface_t *p_cdc = &_cdcd_itf[itf];
 218:SynaptiX_FDK/lib/tinyusb/src/class/cdc/cdc_device.c ****   return tu_edpt_stream_write(&p_cdc->tx_stream, buffer, bufsize);
 219:SynaptiX_FDK/lib/tinyusb/src/class/cdc/cdc_device.c **** }
 855              		.loc 1 219 1 view .LVU201
 856 0004 7047     		bx	lr
 857              	.LVL71:
 858              	.L83:
 215:SynaptiX_FDK/lib/tinyusb/src/class/cdc/cdc_device.c ****   TU_VERIFY(itf < CFG_TUD_CDC, 0);
 859              		.loc 1 215 77 view .LVU202
 860 0006 08B5     		push	{r3, lr}
 861              	.LCFI5:
 862              		.cfi_def_cfa_offset 8
 863              		.cfi_offset 3, -8
 864              		.cfi_offset 14, -4
 865 0008 0346     		mov	r3, r0
 216:SynaptiX_FDK/lib/tinyusb/src/class/cdc/cdc_device.c ****   TU_VERIFY(itf < CFG_TUD_CDC, 0);
 866              		.loc 1 216 3 is_stmt 1 view .LVU203
 217:SynaptiX_FDK/lib/tinyusb/src/class/cdc/cdc_device.c ****   cdcd_interface_t *p_cdc = &_cdcd_itf[itf];
 867              		.loc 1 217 3 view .LVU204
ARM GAS  C:\Users\DELL\AppData\Local\Temp\ccSfED1Y.s 			page 35


 868              	.LVL72:
 218:SynaptiX_FDK/lib/tinyusb/src/class/cdc/cdc_device.c **** }
 869              		.loc 1 218 3 view .LVU205
 218:SynaptiX_FDK/lib/tinyusb/src/class/cdc/cdc_device.c **** }
 870              		.loc 1 218 10 is_stmt 0 view .LVU206
 871 000a BC20     		movs	r0, #188
 872              	.LVL73:
 218:SynaptiX_FDK/lib/tinyusb/src/class/cdc/cdc_device.c **** }
 873              		.loc 1 218 10 view .LVU207
 874 000c 03FB00F0 		mul	r0, r3, r0
 875 0010 0830     		adds	r0, r0, #8
 876 0012 034B     		ldr	r3, .L84
 877              	.LVL74:
 218:SynaptiX_FDK/lib/tinyusb/src/class/cdc/cdc_device.c **** }
 878              		.loc 1 218 10 view .LVU208
 879 0014 1844     		add	r0, r0, r3
 880 0016 0430     		adds	r0, r0, #4
 881 0018 FFF7FEFF 		bl	tu_edpt_stream_write
 882              	.LVL75:
 883              		.loc 1 219 1 view .LVU209
 884 001c 08BD     		pop	{r3, pc}
 885              	.L85:
 886 001e 00BF     		.align	2
 887              	.L84:
 888 0020 00000000 		.word	_cdcd_itf
 889              		.cfi_endproc
 890              	.LFE460:
 892              		.section	.text.tud_cdc_n_write_flush,"ax",%progbits
 893              		.align	1
 894              		.global	tud_cdc_n_write_flush
 895              		.syntax unified
 896              		.thumb
 897              		.thumb_func
 899              	tud_cdc_n_write_flush:
 900              	.LVL76:
 901              	.LFB461:
 220:SynaptiX_FDK/lib/tinyusb/src/class/cdc/cdc_device.c **** 
 221:SynaptiX_FDK/lib/tinyusb/src/class/cdc/cdc_device.c **** uint32_t tud_cdc_n_write_flush(uint8_t itf) {
 902              		.loc 1 221 45 is_stmt 1 view -0
 903              		.cfi_startproc
 904              		@ args = 0, pretend = 0, frame = 0
 905              		@ frame_needed = 0, uses_anonymous_args = 0
 222:SynaptiX_FDK/lib/tinyusb/src/class/cdc/cdc_device.c ****   TU_VERIFY(itf < CFG_TUD_CDC, 0);
 906              		.loc 1 222 3 view .LVU211
 907              		.loc 1 222 3 view .LVU212
 908 0000 08B1     		cbz	r0, .L93
 909              		.loc 1 222 3 is_stmt 0 discriminator 1 view .LVU213
 910 0002 0020     		movs	r0, #0
 911              	.LVL77:
 223:SynaptiX_FDK/lib/tinyusb/src/class/cdc/cdc_device.c ****   cdcd_interface_t *p_cdc = &_cdcd_itf[itf];
 224:SynaptiX_FDK/lib/tinyusb/src/class/cdc/cdc_device.c ****   return tu_edpt_stream_write_xfer(&p_cdc->tx_stream);
 225:SynaptiX_FDK/lib/tinyusb/src/class/cdc/cdc_device.c **** }
 912              		.loc 1 225 1 view .LVU214
 913 0004 7047     		bx	lr
 914              	.LVL78:
 915              	.L93:
 221:SynaptiX_FDK/lib/tinyusb/src/class/cdc/cdc_device.c ****   TU_VERIFY(itf < CFG_TUD_CDC, 0);
ARM GAS  C:\Users\DELL\AppData\Local\Temp\ccSfED1Y.s 			page 36


 916              		.loc 1 221 45 view .LVU215
 917 0006 08B5     		push	{r3, lr}
 918              	.LCFI6:
 919              		.cfi_def_cfa_offset 8
 920              		.cfi_offset 3, -8
 921              		.cfi_offset 14, -4
 222:SynaptiX_FDK/lib/tinyusb/src/class/cdc/cdc_device.c ****   TU_VERIFY(itf < CFG_TUD_CDC, 0);
 922              		.loc 1 222 3 is_stmt 1 view .LVU216
 223:SynaptiX_FDK/lib/tinyusb/src/class/cdc/cdc_device.c ****   cdcd_interface_t *p_cdc = &_cdcd_itf[itf];
 923              		.loc 1 223 3 view .LVU217
 924              	.LVL79:
 224:SynaptiX_FDK/lib/tinyusb/src/class/cdc/cdc_device.c **** }
 925              		.loc 1 224 3 view .LVU218
 224:SynaptiX_FDK/lib/tinyusb/src/class/cdc/cdc_device.c **** }
 926              		.loc 1 224 10 is_stmt 0 view .LVU219
 927 0008 BC22     		movs	r2, #188
 928 000a 02FB00F0 		mul	r0, r2, r0
 929              	.LVL80:
 224:SynaptiX_FDK/lib/tinyusb/src/class/cdc/cdc_device.c **** }
 930              		.loc 1 224 10 view .LVU220
 931 000e 0830     		adds	r0, r0, #8
 932 0010 024B     		ldr	r3, .L94
 933 0012 1844     		add	r0, r0, r3
 934 0014 0430     		adds	r0, r0, #4
 935 0016 FFF7FEFF 		bl	tu_edpt_stream_write_xfer
 936              	.LVL81:
 937              		.loc 1 225 1 view .LVU221
 938 001a 08BD     		pop	{r3, pc}
 939              	.L95:
 940              		.align	2
 941              	.L94:
 942 001c 00000000 		.word	_cdcd_itf
 943              		.cfi_endproc
 944              	.LFE461:
 946              		.section	.text.tud_cdc_n_write_available,"ax",%progbits
 947              		.align	1
 948              		.global	tud_cdc_n_write_available
 949              		.syntax unified
 950              		.thumb
 951              		.thumb_func
 953              	tud_cdc_n_write_available:
 954              	.LVL82:
 955              	.LFB462:
 226:SynaptiX_FDK/lib/tinyusb/src/class/cdc/cdc_device.c **** 
 227:SynaptiX_FDK/lib/tinyusb/src/class/cdc/cdc_device.c **** uint32_t tud_cdc_n_write_available(uint8_t itf) {
 956              		.loc 1 227 49 is_stmt 1 view -0
 957              		.cfi_startproc
 958              		@ args = 0, pretend = 0, frame = 0
 959              		@ frame_needed = 0, uses_anonymous_args = 0
 228:SynaptiX_FDK/lib/tinyusb/src/class/cdc/cdc_device.c ****   TU_VERIFY(itf < CFG_TUD_CDC, 0);
 960              		.loc 1 228 3 view .LVU223
 961              		.loc 1 228 3 view .LVU224
 962 0000 08B1     		cbz	r0, .L103
 963              		.loc 1 228 3 is_stmt 0 discriminator 1 view .LVU225
 964 0002 0020     		movs	r0, #0
 965              	.LVL83:
 229:SynaptiX_FDK/lib/tinyusb/src/class/cdc/cdc_device.c ****   cdcd_interface_t *p_cdc = &_cdcd_itf[itf];
ARM GAS  C:\Users\DELL\AppData\Local\Temp\ccSfED1Y.s 			page 37


 230:SynaptiX_FDK/lib/tinyusb/src/class/cdc/cdc_device.c ****   return tu_edpt_stream_write_available(&p_cdc->tx_stream);
 231:SynaptiX_FDK/lib/tinyusb/src/class/cdc/cdc_device.c **** }
 966              		.loc 1 231 1 view .LVU226
 967 0004 7047     		bx	lr
 968              	.LVL84:
 969              	.L103:
 227:SynaptiX_FDK/lib/tinyusb/src/class/cdc/cdc_device.c ****   TU_VERIFY(itf < CFG_TUD_CDC, 0);
 970              		.loc 1 227 49 view .LVU227
 971 0006 08B5     		push	{r3, lr}
 972              	.LCFI7:
 973              		.cfi_def_cfa_offset 8
 974              		.cfi_offset 3, -8
 975              		.cfi_offset 14, -4
 228:SynaptiX_FDK/lib/tinyusb/src/class/cdc/cdc_device.c ****   TU_VERIFY(itf < CFG_TUD_CDC, 0);
 976              		.loc 1 228 3 is_stmt 1 view .LVU228
 229:SynaptiX_FDK/lib/tinyusb/src/class/cdc/cdc_device.c ****   cdcd_interface_t *p_cdc = &_cdcd_itf[itf];
 977              		.loc 1 229 3 view .LVU229
 978              	.LVL85:
 230:SynaptiX_FDK/lib/tinyusb/src/class/cdc/cdc_device.c **** }
 979              		.loc 1 230 3 view .LVU230
 230:SynaptiX_FDK/lib/tinyusb/src/class/cdc/cdc_device.c **** }
 980              		.loc 1 230 10 is_stmt 0 view .LVU231
 981 0008 BC22     		movs	r2, #188
 982 000a 02FB00F0 		mul	r0, r2, r0
 983              	.LVL86:
 230:SynaptiX_FDK/lib/tinyusb/src/class/cdc/cdc_device.c **** }
 984              		.loc 1 230 10 view .LVU232
 985 000e 0830     		adds	r0, r0, #8
 986 0010 024B     		ldr	r3, .L104
 987 0012 1844     		add	r0, r0, r3
 988 0014 0430     		adds	r0, r0, #4
 989 0016 FFF7FEFF 		bl	tu_edpt_stream_write_available
 990              	.LVL87:
 991              		.loc 1 231 1 view .LVU233
 992 001a 08BD     		pop	{r3, pc}
 993              	.L105:
 994              		.align	2
 995              	.L104:
 996 001c 00000000 		.word	_cdcd_itf
 997              		.cfi_endproc
 998              	.LFE462:
 1000              		.section	.text.tud_cdc_n_write_clear,"ax",%progbits
 1001              		.align	1
 1002              		.global	tud_cdc_n_write_clear
 1003              		.syntax unified
 1004              		.thumb
 1005              		.thumb_func
 1007              	tud_cdc_n_write_clear:
 1008              	.LVL88:
 1009              	.LFB463:
 232:SynaptiX_FDK/lib/tinyusb/src/class/cdc/cdc_device.c **** 
 233:SynaptiX_FDK/lib/tinyusb/src/class/cdc/cdc_device.c **** bool tud_cdc_n_write_clear(uint8_t itf) {
 1010              		.loc 1 233 41 is_stmt 1 view -0
 1011              		.cfi_startproc
 1012              		@ args = 0, pretend = 0, frame = 0
 1013              		@ frame_needed = 0, uses_anonymous_args = 0
 234:SynaptiX_FDK/lib/tinyusb/src/class/cdc/cdc_device.c ****   TU_VERIFY(itf < CFG_TUD_CDC);
ARM GAS  C:\Users\DELL\AppData\Local\Temp\ccSfED1Y.s 			page 38


 1014              		.loc 1 234 3 view .LVU235
 1015              		.loc 1 234 3 view .LVU236
 1016 0000 08B1     		cbz	r0, .L113
 1017              		.loc 1 234 3 is_stmt 0 discriminator 1 view .LVU237
 1018 0002 0020     		movs	r0, #0
 1019              	.LVL89:
 235:SynaptiX_FDK/lib/tinyusb/src/class/cdc/cdc_device.c ****   cdcd_interface_t *p_cdc = &_cdcd_itf[itf];
 236:SynaptiX_FDK/lib/tinyusb/src/class/cdc/cdc_device.c ****   tu_edpt_stream_clear(&p_cdc->tx_stream);
 237:SynaptiX_FDK/lib/tinyusb/src/class/cdc/cdc_device.c ****   return true;
 238:SynaptiX_FDK/lib/tinyusb/src/class/cdc/cdc_device.c **** }
 1020              		.loc 1 238 1 view .LVU238
 1021 0004 7047     		bx	lr
 1022              	.LVL90:
 1023              	.L113:
 233:SynaptiX_FDK/lib/tinyusb/src/class/cdc/cdc_device.c ****   TU_VERIFY(itf < CFG_TUD_CDC);
 1024              		.loc 1 233 41 view .LVU239
 1025 0006 08B5     		push	{r3, lr}
 1026              	.LCFI8:
 1027              		.cfi_def_cfa_offset 8
 1028              		.cfi_offset 3, -8
 1029              		.cfi_offset 14, -4
 234:SynaptiX_FDK/lib/tinyusb/src/class/cdc/cdc_device.c ****   TU_VERIFY(itf < CFG_TUD_CDC);
 1030              		.loc 1 234 3 is_stmt 1 view .LVU240
 235:SynaptiX_FDK/lib/tinyusb/src/class/cdc/cdc_device.c ****   cdcd_interface_t *p_cdc = &_cdcd_itf[itf];
 1031              		.loc 1 235 3 view .LVU241
 1032              	.LVL91:
 236:SynaptiX_FDK/lib/tinyusb/src/class/cdc/cdc_device.c ****   return true;
 1033              		.loc 1 236 3 view .LVU242
 1034              	.LBB159:
 1035              	.LBI159:
 138:SynaptiX_FDK/lib/tinyusb/src/common/tusb_private.h ****   tu_fifo_clear(&s->ff);
 1036              		.loc 3 138 42 view .LVU243
 1037              	.LBB160:
 139:SynaptiX_FDK/lib/tinyusb/src/common/tusb_private.h **** }
 1038              		.loc 3 139 3 view .LVU244
 1039 0008 BC22     		movs	r2, #188
 1040 000a 02FB00F0 		mul	r0, r2, r0
 1041              	.LVL92:
 139:SynaptiX_FDK/lib/tinyusb/src/common/tusb_private.h **** }
 1042              		.loc 3 139 3 is_stmt 0 view .LVU245
 1043 000e 1030     		adds	r0, r0, #16
 1044 0010 034B     		ldr	r3, .L114
 1045 0012 1844     		add	r0, r0, r3
 1046 0014 0830     		adds	r0, r0, #8
 1047 0016 FFF7FEFF 		bl	tu_fifo_clear
 1048              	.LVL93:
 139:SynaptiX_FDK/lib/tinyusb/src/common/tusb_private.h **** }
 1049              		.loc 3 139 3 view .LVU246
 1050              	.LBE160:
 1051              	.LBE159:
 237:SynaptiX_FDK/lib/tinyusb/src/class/cdc/cdc_device.c **** }
 1052              		.loc 1 237 3 is_stmt 1 view .LVU247
 237:SynaptiX_FDK/lib/tinyusb/src/class/cdc/cdc_device.c **** }
 1053              		.loc 1 237 10 is_stmt 0 view .LVU248
 1054 001a 0120     		movs	r0, #1
 1055              		.loc 1 238 1 view .LVU249
 1056 001c 08BD     		pop	{r3, pc}
ARM GAS  C:\Users\DELL\AppData\Local\Temp\ccSfED1Y.s 			page 39


 1057              	.L115:
 1058 001e 00BF     		.align	2
 1059              	.L114:
 1060 0020 00000000 		.word	_cdcd_itf
 1061              		.cfi_endproc
 1062              	.LFE463:
 1064              		.section	.text.cdcd_init,"ax",%progbits
 1065              		.align	1
 1066              		.global	cdcd_init
 1067              		.syntax unified
 1068              		.thumb
 1069              		.thumb_func
 1071              	cdcd_init:
 1072              	.LFB464:
 239:SynaptiX_FDK/lib/tinyusb/src/class/cdc/cdc_device.c **** 
 240:SynaptiX_FDK/lib/tinyusb/src/class/cdc/cdc_device.c **** //--------------------------------------------------------------------+
 241:SynaptiX_FDK/lib/tinyusb/src/class/cdc/cdc_device.c **** // USBD Driver API
 242:SynaptiX_FDK/lib/tinyusb/src/class/cdc/cdc_device.c **** //--------------------------------------------------------------------+
 243:SynaptiX_FDK/lib/tinyusb/src/class/cdc/cdc_device.c **** void cdcd_init(void) {
 1073              		.loc 1 243 22 is_stmt 1 view -0
 1074              		.cfi_startproc
 1075              		@ args = 0, pretend = 0, frame = 0
 1076              		@ frame_needed = 0, uses_anonymous_args = 0
 1077 0000 2DE9F041 		push	{r4, r5, r6, r7, r8, lr}
 1078              	.LCFI9:
 1079              		.cfi_def_cfa_offset 24
 1080              		.cfi_offset 4, -24
 1081              		.cfi_offset 5, -20
 1082              		.cfi_offset 6, -16
 1083              		.cfi_offset 7, -12
 1084              		.cfi_offset 8, -8
 1085              		.cfi_offset 14, -4
 1086 0004 84B0     		sub	sp, sp, #16
 1087              	.LCFI10:
 1088              		.cfi_def_cfa_offset 40
 244:SynaptiX_FDK/lib/tinyusb/src/class/cdc/cdc_device.c ****   tu_memclr(_cdcd_itf, sizeof(_cdcd_itf));
 1089              		.loc 1 244 3 view .LVU251
 1090 0006 BC22     		movs	r2, #188
 1091 0008 0021     		movs	r1, #0
 1092 000a 1E48     		ldr	r0, .L120
 1093 000c FFF7FEFF 		bl	memset
 1094              	.LVL94:
 245:SynaptiX_FDK/lib/tinyusb/src/class/cdc/cdc_device.c ****   for (uint8_t i = 0; i < CFG_TUD_CDC; i++) {
 1095              		.loc 1 245 3 view .LVU252
 1096              	.LBB161:
 1097              		.loc 1 245 8 view .LVU253
 1098              		.loc 1 245 16 is_stmt 0 view .LVU254
 1099 0010 0026     		movs	r6, #0
 1100              	.LVL95:
 1101              	.L117:
 1102              		.loc 1 245 25 is_stmt 1 discriminator 1 view .LVU255
 1103 0012 16B1     		cbz	r6, .L118
 1104              	.LBE161:
 246:SynaptiX_FDK/lib/tinyusb/src/class/cdc/cdc_device.c ****     cdcd_interface_t *p_cdc   = &_cdcd_itf[i];
 247:SynaptiX_FDK/lib/tinyusb/src/class/cdc/cdc_device.c ****     p_cdc->wanted_char = (char) -1;
 248:SynaptiX_FDK/lib/tinyusb/src/class/cdc/cdc_device.c **** 
 249:SynaptiX_FDK/lib/tinyusb/src/class/cdc/cdc_device.c ****     // default line coding is : stop bit = 1, parity = none, data bits = 8
ARM GAS  C:\Users\DELL\AppData\Local\Temp\ccSfED1Y.s 			page 40


 250:SynaptiX_FDK/lib/tinyusb/src/class/cdc/cdc_device.c ****     p_cdc->line_coding.bit_rate = 115200;
 251:SynaptiX_FDK/lib/tinyusb/src/class/cdc/cdc_device.c ****     p_cdc->line_coding.stop_bits = 0;
 252:SynaptiX_FDK/lib/tinyusb/src/class/cdc/cdc_device.c ****     p_cdc->line_coding.parity = 0;
 253:SynaptiX_FDK/lib/tinyusb/src/class/cdc/cdc_device.c ****     p_cdc->line_coding.data_bits = 8;
 254:SynaptiX_FDK/lib/tinyusb/src/class/cdc/cdc_device.c **** 
 255:SynaptiX_FDK/lib/tinyusb/src/class/cdc/cdc_device.c ****   #if CFG_TUD_EDPT_DEDICATED_HWFIFO
 256:SynaptiX_FDK/lib/tinyusb/src/class/cdc/cdc_device.c ****     uint8_t *epout_buf = NULL;
 257:SynaptiX_FDK/lib/tinyusb/src/class/cdc/cdc_device.c ****     uint8_t *epin_buf  = NULL;
 258:SynaptiX_FDK/lib/tinyusb/src/class/cdc/cdc_device.c ****   #else
 259:SynaptiX_FDK/lib/tinyusb/src/class/cdc/cdc_device.c ****     uint8_t *epout_buf = _cdcd_epbuf[i].epout;
 260:SynaptiX_FDK/lib/tinyusb/src/class/cdc/cdc_device.c ****     uint8_t *epin_buf  = _cdcd_epbuf[i].epin;
 261:SynaptiX_FDK/lib/tinyusb/src/class/cdc/cdc_device.c ****   #endif
 262:SynaptiX_FDK/lib/tinyusb/src/class/cdc/cdc_device.c **** 
 263:SynaptiX_FDK/lib/tinyusb/src/class/cdc/cdc_device.c ****     tu_edpt_stream_init(&p_cdc->rx_stream, false, false, false, p_cdc->rx_ff_buf, CFG_TUD_CDC_RX_BU
 264:SynaptiX_FDK/lib/tinyusb/src/class/cdc/cdc_device.c **** 
 265:SynaptiX_FDK/lib/tinyusb/src/class/cdc/cdc_device.c ****     // TX fifo can be configured to change to overwritable if not connected (DTR bit not set). With
 266:SynaptiX_FDK/lib/tinyusb/src/class/cdc/cdc_device.c ****     // know if data is actually polled by terminal. This way the most current data is prioritized.
 267:SynaptiX_FDK/lib/tinyusb/src/class/cdc/cdc_device.c ****     // Default: is overwritable
 268:SynaptiX_FDK/lib/tinyusb/src/class/cdc/cdc_device.c ****     tu_edpt_stream_init(&p_cdc->tx_stream, false, true, CFG_TUD_CDC_TX_OVERWRITABLE_IF_NOT_CONNECTE
 269:SynaptiX_FDK/lib/tinyusb/src/class/cdc/cdc_device.c ****                         CFG_TUD_CDC_TX_BUFSIZE, epin_buf);
 270:SynaptiX_FDK/lib/tinyusb/src/class/cdc/cdc_device.c ****   }
 271:SynaptiX_FDK/lib/tinyusb/src/class/cdc/cdc_device.c **** }
 1105              		.loc 1 271 1 is_stmt 0 view .LVU256
 1106 0014 04B0     		add	sp, sp, #16
 1107              	.LCFI11:
 1108              		.cfi_remember_state
 1109              		.cfi_def_cfa_offset 24
 1110              		@ sp needed
 1111 0016 BDE8F081 		pop	{r4, r5, r6, r7, r8, pc}
 1112              	.LVL96:
 1113              	.L118:
 1114              	.LCFI12:
 1115              		.cfi_restore_state
 1116              	.LBB163:
 1117              	.LBB162:
 246:SynaptiX_FDK/lib/tinyusb/src/class/cdc/cdc_device.c ****     cdcd_interface_t *p_cdc   = &_cdcd_itf[i];
 1118              		.loc 1 246 5 is_stmt 1 view .LVU257
 247:SynaptiX_FDK/lib/tinyusb/src/class/cdc/cdc_device.c **** 
 1119              		.loc 1 247 5 view .LVU258
 247:SynaptiX_FDK/lib/tinyusb/src/class/cdc/cdc_device.c **** 
 1120              		.loc 1 247 24 is_stmt 0 view .LVU259
 1121 001a DFF86880 		ldr	r8, .L120
 1122 001e BC24     		movs	r4, #188
 1123 0020 06FB04F4 		mul	r4, r6, r4
 1124 0024 08EB0403 		add	r3, r8, r4
 1125              	.LVL97:
 247:SynaptiX_FDK/lib/tinyusb/src/class/cdc/cdc_device.c **** 
 1126              		.loc 1 247 24 view .LVU260
 1127 0028 FF22     		movs	r2, #255
 1128 002a DA72     		strb	r2, [r3, #11]
 250:SynaptiX_FDK/lib/tinyusb/src/class/cdc/cdc_device.c ****     p_cdc->line_coding.stop_bits = 0;
 1129              		.loc 1 250 5 is_stmt 1 view .LVU261
 250:SynaptiX_FDK/lib/tinyusb/src/class/cdc/cdc_device.c ****     p_cdc->line_coding.stop_bits = 0;
 1130              		.loc 1 250 33 is_stmt 0 view .LVU262
 1131 002c 4FF4E132 		mov	r2, #115200
 1132 0030 5A60     		str	r2, [r3, #4]
 251:SynaptiX_FDK/lib/tinyusb/src/class/cdc/cdc_device.c ****     p_cdc->line_coding.parity = 0;
ARM GAS  C:\Users\DELL\AppData\Local\Temp\ccSfED1Y.s 			page 41


 1133              		.loc 1 251 5 is_stmt 1 view .LVU263
 251:SynaptiX_FDK/lib/tinyusb/src/class/cdc/cdc_device.c ****     p_cdc->line_coding.parity = 0;
 1134              		.loc 1 251 34 is_stmt 0 view .LVU264
 1135 0032 0025     		movs	r5, #0
 1136 0034 1D72     		strb	r5, [r3, #8]
 252:SynaptiX_FDK/lib/tinyusb/src/class/cdc/cdc_device.c ****     p_cdc->line_coding.data_bits = 8;
 1137              		.loc 1 252 5 is_stmt 1 view .LVU265
 252:SynaptiX_FDK/lib/tinyusb/src/class/cdc/cdc_device.c ****     p_cdc->line_coding.data_bits = 8;
 1138              		.loc 1 252 31 is_stmt 0 view .LVU266
 1139 0036 5D72     		strb	r5, [r3, #9]
 253:SynaptiX_FDK/lib/tinyusb/src/class/cdc/cdc_device.c **** 
 1140              		.loc 1 253 5 is_stmt 1 view .LVU267
 253:SynaptiX_FDK/lib/tinyusb/src/class/cdc/cdc_device.c **** 
 1141              		.loc 1 253 34 is_stmt 0 view .LVU268
 1142 0038 0822     		movs	r2, #8
 1143 003a 9A72     		strb	r2, [r3, #10]
 256:SynaptiX_FDK/lib/tinyusb/src/class/cdc/cdc_device.c ****     uint8_t *epin_buf  = NULL;
 1144              		.loc 1 256 5 is_stmt 1 view .LVU269
 1145              	.LVL98:
 257:SynaptiX_FDK/lib/tinyusb/src/class/cdc/cdc_device.c ****   #else
 1146              		.loc 1 257 5 view .LVU270
 263:SynaptiX_FDK/lib/tinyusb/src/class/cdc/cdc_device.c **** 
 1147              		.loc 1 263 5 view .LVU271
 263:SynaptiX_FDK/lib/tinyusb/src/class/cdc/cdc_device.c **** 
 1148              		.loc 1 263 70 is_stmt 0 view .LVU272
 1149 003c 04F17803 		add	r3, r4, #120
 1150              	.LVL99:
 263:SynaptiX_FDK/lib/tinyusb/src/class/cdc/cdc_device.c **** 
 1151              		.loc 1 263 70 view .LVU273
 1152 0040 4344     		add	r3, r3, r8
 1153 0042 0433     		adds	r3, r3, #4
 263:SynaptiX_FDK/lib/tinyusb/src/class/cdc/cdc_device.c **** 
 1154              		.loc 1 263 5 view .LVU274
 1155 0044 04F12000 		add	r0, r4, #32
 1156 0048 4044     		add	r0, r0, r8
 1157 004a 0295     		str	r5, [sp, #8]
 1158 004c 4027     		movs	r7, #64
 1159 004e 0197     		str	r7, [sp, #4]
 1160 0050 0093     		str	r3, [sp]
 1161 0052 2B46     		mov	r3, r5
 1162 0054 2A46     		mov	r2, r5
 1163 0056 2946     		mov	r1, r5
 1164 0058 0430     		adds	r0, r0, #4
 1165 005a FFF7FEFF 		bl	tu_edpt_stream_init
 1166              	.LVL100:
 268:SynaptiX_FDK/lib/tinyusb/src/class/cdc/cdc_device.c ****                         CFG_TUD_CDC_TX_BUFSIZE, epin_buf);
 1167              		.loc 1 268 5 is_stmt 1 view .LVU275
 268:SynaptiX_FDK/lib/tinyusb/src/class/cdc/cdc_device.c ****                         CFG_TUD_CDC_TX_BUFSIZE, epin_buf);
 1168              		.loc 1 268 108 is_stmt 0 view .LVU276
 1169 005e 04F13803 		add	r3, r4, #56
 1170 0062 4344     		add	r3, r3, r8
 1171 0064 0433     		adds	r3, r3, #4
 268:SynaptiX_FDK/lib/tinyusb/src/class/cdc/cdc_device.c ****                         CFG_TUD_CDC_TX_BUFSIZE, epin_buf);
 1172              		.loc 1 268 5 view .LVU277
 1173 0066 04F10800 		add	r0, r4, #8
 1174 006a 4044     		add	r0, r0, r8
 1175 006c 0295     		str	r5, [sp, #8]
ARM GAS  C:\Users\DELL\AppData\Local\Temp\ccSfED1Y.s 			page 42


 1176 006e 0197     		str	r7, [sp, #4]
 1177 0070 0093     		str	r3, [sp]
 1178 0072 0123     		movs	r3, #1
 1179 0074 1A46     		mov	r2, r3
 1180 0076 2946     		mov	r1, r5
 1181 0078 0430     		adds	r0, r0, #4
 1182 007a FFF7FEFF 		bl	tu_edpt_stream_init
 1183              	.LVL101:
 1184              	.LBE162:
 245:SynaptiX_FDK/lib/tinyusb/src/class/cdc/cdc_device.c ****     cdcd_interface_t *p_cdc   = &_cdcd_itf[i];
 1185              		.loc 1 245 41 is_stmt 1 discriminator 3 view .LVU278
 1186 007e 0136     		adds	r6, r6, #1
 1187              	.LVL102:
 245:SynaptiX_FDK/lib/tinyusb/src/class/cdc/cdc_device.c ****     cdcd_interface_t *p_cdc   = &_cdcd_itf[i];
 1188              		.loc 1 245 41 is_stmt 0 discriminator 3 view .LVU279
 1189 0080 F6B2     		uxtb	r6, r6
 1190              	.LVL103:
 245:SynaptiX_FDK/lib/tinyusb/src/class/cdc/cdc_device.c ****     cdcd_interface_t *p_cdc   = &_cdcd_itf[i];
 1191              		.loc 1 245 41 discriminator 3 view .LVU280
 1192 0082 C6E7     		b	.L117
 1193              	.L121:
 1194              		.align	2
 1195              	.L120:
 1196 0084 00000000 		.word	_cdcd_itf
 1197              	.LBE163:
 1198              		.cfi_endproc
 1199              	.LFE464:
 1201              		.section	.text.cdcd_deinit,"ax",%progbits
 1202              		.align	1
 1203              		.global	cdcd_deinit
 1204              		.syntax unified
 1205              		.thumb
 1206              		.thumb_func
 1208              	cdcd_deinit:
 1209              	.LFB465:
 272:SynaptiX_FDK/lib/tinyusb/src/class/cdc/cdc_device.c **** 
 273:SynaptiX_FDK/lib/tinyusb/src/class/cdc/cdc_device.c **** bool cdcd_deinit(void) {
 1210              		.loc 1 273 24 is_stmt 1 view -0
 1211              		.cfi_startproc
 1212              		@ args = 0, pretend = 0, frame = 0
 1213              		@ frame_needed = 0, uses_anonymous_args = 0
 1214              		@ link register save eliminated.
 274:SynaptiX_FDK/lib/tinyusb/src/class/cdc/cdc_device.c ****   for (uint8_t i = 0; i < CFG_TUD_CDC; i++) {
 1215              		.loc 1 274 3 view .LVU282
 1216              	.LBB164:
 1217              		.loc 1 274 8 view .LVU283
 1218              	.LVL104:
 1219              		.loc 1 274 16 is_stmt 0 view .LVU284
 1220 0000 0023     		movs	r3, #0
 1221              	.LVL105:
 1222              	.L123:
 1223              		.loc 1 274 25 is_stmt 1 discriminator 1 view .LVU285
 1224 0002 0BB1     		cbz	r3, .L124
 1225              	.LBE164:
 275:SynaptiX_FDK/lib/tinyusb/src/class/cdc/cdc_device.c ****     cdcd_interface_t* p_cdc = &_cdcd_itf[i];
 276:SynaptiX_FDK/lib/tinyusb/src/class/cdc/cdc_device.c ****     tu_edpt_stream_deinit(&p_cdc->rx_stream);
 277:SynaptiX_FDK/lib/tinyusb/src/class/cdc/cdc_device.c ****     tu_edpt_stream_deinit(&p_cdc->tx_stream);
ARM GAS  C:\Users\DELL\AppData\Local\Temp\ccSfED1Y.s 			page 43


 278:SynaptiX_FDK/lib/tinyusb/src/class/cdc/cdc_device.c ****   }
 279:SynaptiX_FDK/lib/tinyusb/src/class/cdc/cdc_device.c ****   return true;
 1226              		.loc 1 279 3 view .LVU286
 280:SynaptiX_FDK/lib/tinyusb/src/class/cdc/cdc_device.c **** }
 1227              		.loc 1 280 1 is_stmt 0 view .LVU287
 1228 0004 0120     		movs	r0, #1
 1229 0006 7047     		bx	lr
 1230              	.L124:
 275:SynaptiX_FDK/lib/tinyusb/src/class/cdc/cdc_device.c ****     cdcd_interface_t* p_cdc = &_cdcd_itf[i];
 1231              		.loc 1 275 5 is_stmt 1 view .LVU288
 1232              	.LVL106:
 276:SynaptiX_FDK/lib/tinyusb/src/class/cdc/cdc_device.c ****     tu_edpt_stream_deinit(&p_cdc->tx_stream);
 1233              		.loc 1 276 5 view .LVU289
 277:SynaptiX_FDK/lib/tinyusb/src/class/cdc/cdc_device.c ****   }
 1234              		.loc 1 277 5 view .LVU290
 1235              	.LBB165:
 274:SynaptiX_FDK/lib/tinyusb/src/class/cdc/cdc_device.c ****     cdcd_interface_t* p_cdc = &_cdcd_itf[i];
 1236              		.loc 1 274 41 discriminator 3 view .LVU291
 1237 0008 0133     		adds	r3, r3, #1
 1238              	.LVL107:
 274:SynaptiX_FDK/lib/tinyusb/src/class/cdc/cdc_device.c ****     cdcd_interface_t* p_cdc = &_cdcd_itf[i];
 1239              		.loc 1 274 41 is_stmt 0 discriminator 3 view .LVU292
 1240 000a DBB2     		uxtb	r3, r3
 1241              	.LVL108:
 274:SynaptiX_FDK/lib/tinyusb/src/class/cdc/cdc_device.c ****     cdcd_interface_t* p_cdc = &_cdcd_itf[i];
 1242              		.loc 1 274 41 discriminator 3 view .LVU293
 1243 000c F9E7     		b	.L123
 1244              	.LBE165:
 1245              		.cfi_endproc
 1246              	.LFE465:
 1248              		.section	.text.cdcd_reset,"ax",%progbits
 1249              		.align	1
 1250              		.global	cdcd_reset
 1251              		.syntax unified
 1252              		.thumb
 1253              		.thumb_func
 1255              	cdcd_reset:
 1256              	.LVL109:
 1257              	.LFB466:
 281:SynaptiX_FDK/lib/tinyusb/src/class/cdc/cdc_device.c **** 
 282:SynaptiX_FDK/lib/tinyusb/src/class/cdc/cdc_device.c **** void cdcd_reset(uint8_t rhport) {
 1258              		.loc 1 282 33 is_stmt 1 view -0
 1259              		.cfi_startproc
 1260              		@ args = 0, pretend = 0, frame = 0
 1261              		@ frame_needed = 0, uses_anonymous_args = 0
 1262              		.loc 1 282 33 is_stmt 0 view .LVU295
 1263 0000 70B5     		push	{r4, r5, r6, lr}
 1264              	.LCFI13:
 1265              		.cfi_def_cfa_offset 16
 1266              		.cfi_offset 4, -16
 1267              		.cfi_offset 5, -12
 1268              		.cfi_offset 6, -8
 1269              		.cfi_offset 14, -4
 283:SynaptiX_FDK/lib/tinyusb/src/class/cdc/cdc_device.c ****   (void) rhport;
 1270              		.loc 1 283 3 is_stmt 1 view .LVU296
 284:SynaptiX_FDK/lib/tinyusb/src/class/cdc/cdc_device.c **** 
 285:SynaptiX_FDK/lib/tinyusb/src/class/cdc/cdc_device.c ****   for (uint8_t i = 0; i < CFG_TUD_CDC; i++) {
ARM GAS  C:\Users\DELL\AppData\Local\Temp\ccSfED1Y.s 			page 44


 1271              		.loc 1 285 3 view .LVU297
 1272              	.LBB166:
 1273              		.loc 1 285 8 view .LVU298
 1274              	.LVL110:
 1275              		.loc 1 285 16 is_stmt 0 view .LVU299
 1276 0002 0024     		movs	r4, #0
 1277              	.LVL111:
 1278              	.L126:
 1279              		.loc 1 285 25 is_stmt 1 discriminator 1 view .LVU300
 1280 0004 04B1     		cbz	r4, .L127
 1281              	.LBE166:
 286:SynaptiX_FDK/lib/tinyusb/src/class/cdc/cdc_device.c ****     cdcd_interface_t* p_cdc = &_cdcd_itf[i];
 287:SynaptiX_FDK/lib/tinyusb/src/class/cdc/cdc_device.c ****     tu_memclr(p_cdc, ITF_MEM_RESET_SIZE);
 288:SynaptiX_FDK/lib/tinyusb/src/class/cdc/cdc_device.c **** 
 289:SynaptiX_FDK/lib/tinyusb/src/class/cdc/cdc_device.c ****     tu_fifo_set_overwritable(&p_cdc->tx_stream.ff, CFG_TUD_CDC_TX_OVERWRITABLE_IF_NOT_CONNECTED); /
 290:SynaptiX_FDK/lib/tinyusb/src/class/cdc/cdc_device.c ****     tu_edpt_stream_close(&p_cdc->rx_stream);
 291:SynaptiX_FDK/lib/tinyusb/src/class/cdc/cdc_device.c ****     tu_edpt_stream_close(&p_cdc->tx_stream);
 292:SynaptiX_FDK/lib/tinyusb/src/class/cdc/cdc_device.c ****   }
 293:SynaptiX_FDK/lib/tinyusb/src/class/cdc/cdc_device.c **** }
 1282              		.loc 1 293 1 is_stmt 0 view .LVU301
 1283 0006 70BD     		pop	{r4, r5, r6, pc}
 1284              	.LVL112:
 1285              	.L127:
 1286              	.LBB172:
 1287              	.LBB167:
 286:SynaptiX_FDK/lib/tinyusb/src/class/cdc/cdc_device.c ****     cdcd_interface_t* p_cdc = &_cdcd_itf[i];
 1288              		.loc 1 286 5 is_stmt 1 view .LVU302
 286:SynaptiX_FDK/lib/tinyusb/src/class/cdc/cdc_device.c ****     cdcd_interface_t* p_cdc = &_cdcd_itf[i];
 1289              		.loc 1 286 23 is_stmt 0 view .LVU303
 1290 0008 BC20     		movs	r0, #188
 1291 000a 04FB00F0 		mul	r0, r4, r0
 1292 000e 084B     		ldr	r3, .L129
 1293 0010 C618     		adds	r6, r0, r3
 1294              	.LVL113:
 287:SynaptiX_FDK/lib/tinyusb/src/class/cdc/cdc_device.c **** 
 1295              		.loc 1 287 5 is_stmt 1 view .LVU304
 1296 0012 0025     		movs	r5, #0
 1297 0014 1D50     		str	r5, [r3, r0]	@ unaligned
 289:SynaptiX_FDK/lib/tinyusb/src/class/cdc/cdc_device.c ****     tu_edpt_stream_close(&p_cdc->rx_stream);
 1298              		.loc 1 289 5 view .LVU305
 1299 0016 1030     		adds	r0, r0, #16
 1300 0018 1844     		add	r0, r0, r3
 1301 001a 0121     		movs	r1, #1
 1302 001c 0830     		adds	r0, r0, #8
 1303 001e FFF7FEFF 		bl	tu_fifo_set_overwritable
 1304              	.LVL114:
 290:SynaptiX_FDK/lib/tinyusb/src/class/cdc/cdc_device.c ****     tu_edpt_stream_close(&p_cdc->tx_stream);
 1305              		.loc 1 290 5 view .LVU306
 1306              	.LBB168:
 1307              	.LBI168:
 134:SynaptiX_FDK/lib/tinyusb/src/common/tusb_private.h ****   s->ep_addr = 0;
 1308              		.loc 3 134 42 view .LVU307
 1309              	.LBB169:
 135:SynaptiX_FDK/lib/tinyusb/src/common/tusb_private.h **** }
 1310              		.loc 3 135 3 view .LVU308
 135:SynaptiX_FDK/lib/tinyusb/src/common/tusb_private.h **** }
 1311              		.loc 3 135 14 is_stmt 0 view .LVU309
ARM GAS  C:\Users\DELL\AppData\Local\Temp\ccSfED1Y.s 			page 45


 1312 0022 86F82650 		strb	r5, [r6, #38]
 1313              	.LVL115:
 135:SynaptiX_FDK/lib/tinyusb/src/common/tusb_private.h **** }
 1314              		.loc 3 135 14 view .LVU310
 1315              	.LBE169:
 1316              	.LBE168:
 291:SynaptiX_FDK/lib/tinyusb/src/class/cdc/cdc_device.c ****   }
 1317              		.loc 1 291 5 is_stmt 1 view .LVU311
 1318              	.LBB170:
 1319              	.LBI170:
 134:SynaptiX_FDK/lib/tinyusb/src/common/tusb_private.h ****   s->ep_addr = 0;
 1320              		.loc 3 134 42 view .LVU312
 1321              	.LBB171:
 135:SynaptiX_FDK/lib/tinyusb/src/common/tusb_private.h **** }
 1322              		.loc 3 135 3 view .LVU313
 135:SynaptiX_FDK/lib/tinyusb/src/common/tusb_private.h **** }
 1323              		.loc 3 135 14 is_stmt 0 view .LVU314
 1324 0026 B573     		strb	r5, [r6, #14]
 1325              	.LVL116:
 135:SynaptiX_FDK/lib/tinyusb/src/common/tusb_private.h **** }
 1326              		.loc 3 135 14 view .LVU315
 1327              	.LBE171:
 1328              	.LBE170:
 1329              	.LBE167:
 285:SynaptiX_FDK/lib/tinyusb/src/class/cdc/cdc_device.c ****     cdcd_interface_t* p_cdc = &_cdcd_itf[i];
 1330              		.loc 1 285 41 is_stmt 1 discriminator 3 view .LVU316
 1331 0028 0134     		adds	r4, r4, #1
 1332              	.LVL117:
 285:SynaptiX_FDK/lib/tinyusb/src/class/cdc/cdc_device.c ****     cdcd_interface_t* p_cdc = &_cdcd_itf[i];
 1333              		.loc 1 285 41 is_stmt 0 discriminator 3 view .LVU317
 1334 002a E4B2     		uxtb	r4, r4
 1335 002c EAE7     		b	.L126
 1336              	.L130:
 1337 002e 00BF     		.align	2
 1338              	.L129:
 1339 0030 00000000 		.word	_cdcd_itf
 1340              	.LBE172:
 1341              		.cfi_endproc
 1342              	.LFE466:
 1344              		.section	.text.cdcd_open,"ax",%progbits
 1345              		.align	1
 1346              		.global	cdcd_open
 1347              		.syntax unified
 1348              		.thumb
 1349              		.thumb_func
 1351              	cdcd_open:
 1352              	.LVL118:
 1353              	.LFB467:
 294:SynaptiX_FDK/lib/tinyusb/src/class/cdc/cdc_device.c **** 
 295:SynaptiX_FDK/lib/tinyusb/src/class/cdc/cdc_device.c **** uint16_t cdcd_open(uint8_t rhport, const tusb_desc_interface_t* itf_desc, uint16_t max_len) {
 1354              		.loc 1 295 93 is_stmt 1 view -0
 1355              		.cfi_startproc
 1356              		@ args = 0, pretend = 0, frame = 0
 1357              		@ frame_needed = 0, uses_anonymous_args = 0
 1358              		.loc 1 295 93 is_stmt 0 view .LVU319
 1359 0000 2DE9F84F 		push	{r3, r4, r5, r6, r7, r8, r9, r10, fp, lr}
 1360              	.LCFI14:
ARM GAS  C:\Users\DELL\AppData\Local\Temp\ccSfED1Y.s 			page 46


 1361              		.cfi_def_cfa_offset 40
 1362              		.cfi_offset 3, -40
 1363              		.cfi_offset 4, -36
 1364              		.cfi_offset 5, -32
 1365              		.cfi_offset 6, -28
 1366              		.cfi_offset 7, -24
 1367              		.cfi_offset 8, -20
 1368              		.cfi_offset 9, -16
 1369              		.cfi_offset 10, -12
 1370              		.cfi_offset 11, -8
 1371              		.cfi_offset 14, -4
 296:SynaptiX_FDK/lib/tinyusb/src/class/cdc/cdc_device.c ****   // Only support ACM subclass
 297:SynaptiX_FDK/lib/tinyusb/src/class/cdc/cdc_device.c ****   TU_VERIFY(TUSB_CLASS_CDC == itf_desc->bInterfaceClass &&
 1372              		.loc 1 297 3 is_stmt 1 view .LVU320
 1373              		.loc 1 297 3 view .LVU321
 1374 0004 4B79     		ldrb	r3, [r1, #5]	@ zero_extendqisi2
 1375 0006 022B     		cmp	r3, #2
 1376 0008 40F0DE80 		bne	.L155
 1377 000c 0746     		mov	r7, r0
 1378 000e 0C46     		mov	r4, r1
 1379              		.loc 1 297 3 is_stmt 0 discriminator 2 view .LVU322
 1380 0010 8B79     		ldrb	r3, [r1, #6]	@ zero_extendqisi2
 1381 0012 022B     		cmp	r3, #2
 1382 0014 40F0DB80 		bne	.L156
 1383              	.LBB173:
 1384              	.LBB174:
 1385              	.LBB175:
 121:SynaptiX_FDK/lib/tinyusb/src/class/cdc/cdc_device.c ****     const cdcd_interface_t *p_cdc = &_cdcd_itf[idx];
 1386              		.loc 1 121 16 view .LVU323
 1387 0018 0026     		movs	r6, #0
 1388              	.LVL119:
 1389              	.L133:
 121:SynaptiX_FDK/lib/tinyusb/src/class/cdc/cdc_device.c ****     const cdcd_interface_t *p_cdc = &_cdcd_itf[idx];
 1390              		.loc 1 121 29 is_stmt 1 discriminator 1 view .LVU324
 1391 001a CEB1     		cbz	r6, .L135
 1392              	.LBE175:
 128:SynaptiX_FDK/lib/tinyusb/src/class/cdc/cdc_device.c **** }
 1393              		.loc 1 128 10 is_stmt 0 view .LVU325
 1394 001c FF26     		movs	r6, #255
 1395              	.LVL120:
 1396              	.L134:
 128:SynaptiX_FDK/lib/tinyusb/src/class/cdc/cdc_device.c **** }
 1397              		.loc 1 128 10 view .LVU326
 1398              	.LBE174:
 1399              	.LBE173:
 298:SynaptiX_FDK/lib/tinyusb/src/class/cdc/cdc_device.c ****               CDC_COMM_SUBCLASS_ABSTRACT_CONTROL_MODEL == itf_desc->bInterfaceSubClass,
 299:SynaptiX_FDK/lib/tinyusb/src/class/cdc/cdc_device.c ****             0);
 300:SynaptiX_FDK/lib/tinyusb/src/class/cdc/cdc_device.c **** 
 301:SynaptiX_FDK/lib/tinyusb/src/class/cdc/cdc_device.c ****   const uint8_t cdc_id = find_cdc_itf(0); // Find available interface
 302:SynaptiX_FDK/lib/tinyusb/src/class/cdc/cdc_device.c ****   TU_ASSERT(cdc_id < CFG_TUD_CDC, 0);
 1400              		.loc 1 302 3 is_stmt 1 view .LVU327
 1401              		.loc 1 302 3 view .LVU328
 1402 001e 46BB     		cbnz	r6, .L160
 1403              		.loc 1 302 3 view .LVU329
 303:SynaptiX_FDK/lib/tinyusb/src/class/cdc/cdc_device.c ****   cdcd_interface_t *p_cdc = &_cdcd_itf[cdc_id];
 1404              		.loc 1 303 3 view .LVU330
 1405              		.loc 1 303 39 is_stmt 0 view .LVU331
ARM GAS  C:\Users\DELL\AppData\Local\Temp\ccSfED1Y.s 			page 47


 1406 0020 B046     		mov	r8, r6
 1407              	.LVL121:
 304:SynaptiX_FDK/lib/tinyusb/src/class/cdc/cdc_device.c **** 
 305:SynaptiX_FDK/lib/tinyusb/src/class/cdc/cdc_device.c ****   //------------- Control Interface -------------//
 306:SynaptiX_FDK/lib/tinyusb/src/class/cdc/cdc_device.c ****   p_cdc->rhport = rhport;
 1408              		.loc 1 306 3 is_stmt 1 view .LVU332
 1409              		.loc 1 306 17 is_stmt 0 view .LVU333
 1410 0022 6C49     		ldr	r1, .L167
 1411 0024 BC23     		movs	r3, #188
 1412 0026 06FB03F3 		mul	r3, r6, r3
 1413 002a C818     		adds	r0, r1, r3
 1414              	.LVL122:
 1415              		.loc 1 306 17 view .LVU334
 1416 002c CF54     		strb	r7, [r1, r3]
 307:SynaptiX_FDK/lib/tinyusb/src/class/cdc/cdc_device.c ****   p_cdc->itf_num = itf_desc->bInterfaceNumber;
 1417              		.loc 1 307 3 is_stmt 1 view .LVU335
 1418              		.loc 1 307 28 is_stmt 0 view .LVU336
 1419 002e A378     		ldrb	r3, [r4, #2]	@ zero_extendqisi2
 1420              		.loc 1 307 18 view .LVU337
 1421 0030 4370     		strb	r3, [r0, #1]
 308:SynaptiX_FDK/lib/tinyusb/src/class/cdc/cdc_device.c **** 
 309:SynaptiX_FDK/lib/tinyusb/src/class/cdc/cdc_device.c ****   const uint8_t *p_desc   = (const uint8_t *)itf_desc;
 1422              		.loc 1 309 3 is_stmt 1 view .LVU338
 1423              	.LVL123:
 310:SynaptiX_FDK/lib/tinyusb/src/class/cdc/cdc_device.c ****   const uint8_t *desc_end = p_desc + max_len;
 1424              		.loc 1 310 3 view .LVU339
 1425              		.loc 1 310 18 is_stmt 0 view .LVU340
 1426 0032 04EB0209 		add	r9, r4, r2
 1427              	.LVL124:
 311:SynaptiX_FDK/lib/tinyusb/src/class/cdc/cdc_device.c **** 
 312:SynaptiX_FDK/lib/tinyusb/src/class/cdc/cdc_device.c ****   // Skip all class-specific descriptor
 313:SynaptiX_FDK/lib/tinyusb/src/class/cdc/cdc_device.c ****   p_desc = tu_desc_next(itf_desc);
 1428              		.loc 1 313 3 is_stmt 1 view .LVU341
 1429              	.LBB179:
 1430              	.LBI179:
 207:SynaptiX_FDK/lib/tinyusb/src/common/tusb_common.h **** TU_ATTR_ALWAYS_INLINE static inline uint32_t tu_min32 (uint32_t x, uint32_t y) { return (x < y) ? x
 208:SynaptiX_FDK/lib/tinyusb/src/common/tusb_common.h **** 
 209:SynaptiX_FDK/lib/tinyusb/src/common/tusb_common.h **** //------------- Max -------------//
 210:SynaptiX_FDK/lib/tinyusb/src/common/tusb_common.h **** TU_ATTR_ALWAYS_INLINE static inline uint8_t  tu_max8  (uint8_t  x, uint8_t y ) { return (x > y) ? x
 211:SynaptiX_FDK/lib/tinyusb/src/common/tusb_common.h **** TU_ATTR_ALWAYS_INLINE static inline uint16_t tu_max16 (uint16_t x, uint16_t y) { return (x > y) ? x
 212:SynaptiX_FDK/lib/tinyusb/src/common/tusb_common.h **** TU_ATTR_ALWAYS_INLINE static inline uint32_t tu_max32 (uint32_t x, uint32_t y) { return (x > y) ? x
 213:SynaptiX_FDK/lib/tinyusb/src/common/tusb_common.h **** 
 214:SynaptiX_FDK/lib/tinyusb/src/common/tusb_common.h **** //------------- Align -------------//
 215:SynaptiX_FDK/lib/tinyusb/src/common/tusb_common.h **** TU_ATTR_ALWAYS_INLINE static inline uint32_t tu_align(uint32_t value, uint32_t alignment) {
 216:SynaptiX_FDK/lib/tinyusb/src/common/tusb_common.h ****   return value & ((uint32_t) ~(alignment-1));
 217:SynaptiX_FDK/lib/tinyusb/src/common/tusb_common.h **** }
 218:SynaptiX_FDK/lib/tinyusb/src/common/tusb_common.h **** 
 219:SynaptiX_FDK/lib/tinyusb/src/common/tusb_common.h **** TU_ATTR_ALWAYS_INLINE static inline uint32_t tu_align4  (uint32_t value) { return (value & 0xFFFFFF
 220:SynaptiX_FDK/lib/tinyusb/src/common/tusb_common.h **** TU_ATTR_ALWAYS_INLINE static inline uint32_t tu_align8  (uint32_t value) { return (value & 0xFFFFFF
 221:SynaptiX_FDK/lib/tinyusb/src/common/tusb_common.h **** TU_ATTR_ALWAYS_INLINE static inline uint32_t tu_align16 (uint32_t value) { return (value & 0xFFFFFF
 222:SynaptiX_FDK/lib/tinyusb/src/common/tusb_common.h **** TU_ATTR_ALWAYS_INLINE static inline uint32_t tu_align32 (uint32_t value) { return (value & 0xFFFFFF
 223:SynaptiX_FDK/lib/tinyusb/src/common/tusb_common.h **** TU_ATTR_ALWAYS_INLINE static inline uint32_t tu_align4k (uint32_t value) { return (value & 0xFFFFF0
 224:SynaptiX_FDK/lib/tinyusb/src/common/tusb_common.h **** TU_ATTR_ALWAYS_INLINE static inline uint32_t tu_offset4k(uint32_t value) { return (value & 0xFFFUL)
 225:SynaptiX_FDK/lib/tinyusb/src/common/tusb_common.h **** 
 226:SynaptiX_FDK/lib/tinyusb/src/common/tusb_common.h **** TU_ATTR_ALWAYS_INLINE static inline bool tu_is_aligned32(uint32_t value) { return (value & 0x1FUL) 
 227:SynaptiX_FDK/lib/tinyusb/src/common/tusb_common.h **** TU_ATTR_ALWAYS_INLINE static inline bool tu_is_aligned64(uint64_t value) { return (value & 0x3FUL) 
 228:SynaptiX_FDK/lib/tinyusb/src/common/tusb_common.h **** 
ARM GAS  C:\Users\DELL\AppData\Local\Temp\ccSfED1Y.s 			page 48


 229:SynaptiX_FDK/lib/tinyusb/src/common/tusb_common.h **** //------------- Mathematics -------------//
 230:SynaptiX_FDK/lib/tinyusb/src/common/tusb_common.h **** TU_ATTR_ALWAYS_INLINE static inline uint32_t tu_div_ceil(uint32_t v, uint32_t d) { return TU_DIV_CE
 231:SynaptiX_FDK/lib/tinyusb/src/common/tusb_common.h **** TU_ATTR_ALWAYS_INLINE static inline uint32_t tu_div_round_nearest(uint32_t v, uint32_t d) { return 
 232:SynaptiX_FDK/lib/tinyusb/src/common/tusb_common.h **** 
 233:SynaptiX_FDK/lib/tinyusb/src/common/tusb_common.h **** TU_ATTR_ALWAYS_INLINE static inline uint32_t tu_round_up(uint32_t v, uint32_t f) { return tu_div_ce
 234:SynaptiX_FDK/lib/tinyusb/src/common/tusb_common.h **** 
 235:SynaptiX_FDK/lib/tinyusb/src/common/tusb_common.h **** // log2 of a value is its MSB's position
 236:SynaptiX_FDK/lib/tinyusb/src/common/tusb_common.h **** // TODO use clz TODO remove
 237:SynaptiX_FDK/lib/tinyusb/src/common/tusb_common.h **** TU_ATTR_ALWAYS_INLINE static inline uint8_t tu_log2(uint32_t value) {
 238:SynaptiX_FDK/lib/tinyusb/src/common/tusb_common.h ****   uint8_t result = 0;
 239:SynaptiX_FDK/lib/tinyusb/src/common/tusb_common.h ****   while ((value >>= 1u) != 0u) {
 240:SynaptiX_FDK/lib/tinyusb/src/common/tusb_common.h ****     result++;
 241:SynaptiX_FDK/lib/tinyusb/src/common/tusb_common.h ****   }
 242:SynaptiX_FDK/lib/tinyusb/src/common/tusb_common.h ****   return result;
 243:SynaptiX_FDK/lib/tinyusb/src/common/tusb_common.h **** }
 244:SynaptiX_FDK/lib/tinyusb/src/common/tusb_common.h **** 
 245:SynaptiX_FDK/lib/tinyusb/src/common/tusb_common.h **** //static inline uint8_t tu_log2(uint32_t value)
 246:SynaptiX_FDK/lib/tinyusb/src/common/tusb_common.h **** //{
 247:SynaptiX_FDK/lib/tinyusb/src/common/tusb_common.h **** //   return sizeof(uint32_t) * CHAR_BIT - __builtin_clz(x) - 1;
 248:SynaptiX_FDK/lib/tinyusb/src/common/tusb_common.h **** //}
 249:SynaptiX_FDK/lib/tinyusb/src/common/tusb_common.h **** 
 250:SynaptiX_FDK/lib/tinyusb/src/common/tusb_common.h **** TU_ATTR_ALWAYS_INLINE static inline bool tu_is_power_of_two(uint32_t value) {
 251:SynaptiX_FDK/lib/tinyusb/src/common/tusb_common.h ****    return (value != 0) && ((value & (value - 1)) == 0);
 252:SynaptiX_FDK/lib/tinyusb/src/common/tusb_common.h **** }
 253:SynaptiX_FDK/lib/tinyusb/src/common/tusb_common.h **** 
 254:SynaptiX_FDK/lib/tinyusb/src/common/tusb_common.h **** //------------- Unaligned Access -------------//
 255:SynaptiX_FDK/lib/tinyusb/src/common/tusb_common.h **** #if TUP_ARCH_STRICT_ALIGN
 256:SynaptiX_FDK/lib/tinyusb/src/common/tusb_common.h **** 
 257:SynaptiX_FDK/lib/tinyusb/src/common/tusb_common.h **** // Rely on compiler to generate correct code for unaligned access
 258:SynaptiX_FDK/lib/tinyusb/src/common/tusb_common.h **** typedef struct { uint16_t val; } TU_ATTR_PACKED tu_unaligned_uint16_t;
 259:SynaptiX_FDK/lib/tinyusb/src/common/tusb_common.h **** typedef struct { uint32_t val; } TU_ATTR_PACKED tu_unaligned_uint32_t;
 260:SynaptiX_FDK/lib/tinyusb/src/common/tusb_common.h **** 
 261:SynaptiX_FDK/lib/tinyusb/src/common/tusb_common.h **** TU_ATTR_ALWAYS_INLINE static inline uint32_t tu_unaligned_read32(const void *mem) {
 262:SynaptiX_FDK/lib/tinyusb/src/common/tusb_common.h ****   tu_unaligned_uint32_t const *ua32 = (tu_unaligned_uint32_t const *) mem;
 263:SynaptiX_FDK/lib/tinyusb/src/common/tusb_common.h ****   return ua32->val;
 264:SynaptiX_FDK/lib/tinyusb/src/common/tusb_common.h **** }
 265:SynaptiX_FDK/lib/tinyusb/src/common/tusb_common.h **** 
 266:SynaptiX_FDK/lib/tinyusb/src/common/tusb_common.h **** TU_ATTR_ALWAYS_INLINE static inline void tu_unaligned_write32(void *mem, uint32_t value) {
 267:SynaptiX_FDK/lib/tinyusb/src/common/tusb_common.h ****   tu_unaligned_uint32_t *ua32 = (tu_unaligned_uint32_t *) mem;
 268:SynaptiX_FDK/lib/tinyusb/src/common/tusb_common.h ****   ua32->val = value;
 269:SynaptiX_FDK/lib/tinyusb/src/common/tusb_common.h **** }
 270:SynaptiX_FDK/lib/tinyusb/src/common/tusb_common.h **** 
 271:SynaptiX_FDK/lib/tinyusb/src/common/tusb_common.h **** TU_ATTR_ALWAYS_INLINE static inline uint16_t tu_unaligned_read16(const void *mem) {
 272:SynaptiX_FDK/lib/tinyusb/src/common/tusb_common.h ****   tu_unaligned_uint16_t const *ua16 = (tu_unaligned_uint16_t const *) mem;
 273:SynaptiX_FDK/lib/tinyusb/src/common/tusb_common.h ****   return ua16->val;
 274:SynaptiX_FDK/lib/tinyusb/src/common/tusb_common.h **** }
 275:SynaptiX_FDK/lib/tinyusb/src/common/tusb_common.h **** 
 276:SynaptiX_FDK/lib/tinyusb/src/common/tusb_common.h **** TU_ATTR_ALWAYS_INLINE static inline void tu_unaligned_write16(void *mem, uint16_t value) {
 277:SynaptiX_FDK/lib/tinyusb/src/common/tusb_common.h ****   tu_unaligned_uint16_t *ua16 = (tu_unaligned_uint16_t *) mem;
 278:SynaptiX_FDK/lib/tinyusb/src/common/tusb_common.h ****   ua16->val = value;
 279:SynaptiX_FDK/lib/tinyusb/src/common/tusb_common.h **** }
 280:SynaptiX_FDK/lib/tinyusb/src/common/tusb_common.h **** 
 281:SynaptiX_FDK/lib/tinyusb/src/common/tusb_common.h **** #elif TUP_MCU_STRICT_ALIGN
 282:SynaptiX_FDK/lib/tinyusb/src/common/tusb_common.h **** 
 283:SynaptiX_FDK/lib/tinyusb/src/common/tusb_common.h **** // MCU such as LPC_IP3511 Highspeed cannot access unaligned memory on USB_RAM although it is ARM M4
 284:SynaptiX_FDK/lib/tinyusb/src/common/tusb_common.h **** // We have to manually pick up bytes since tu_unaligned_uint32_t will still generate unaligned code
 285:SynaptiX_FDK/lib/tinyusb/src/common/tusb_common.h **** // NOTE: volatile cast to memory to prevent compiler to optimize and generate unaligned code
ARM GAS  C:\Users\DELL\AppData\Local\Temp\ccSfED1Y.s 			page 49


 286:SynaptiX_FDK/lib/tinyusb/src/common/tusb_common.h **** // TODO Big Endian may need minor changes
 287:SynaptiX_FDK/lib/tinyusb/src/common/tusb_common.h **** TU_ATTR_ALWAYS_INLINE static inline uint32_t tu_unaligned_read32(const void* mem) {
 288:SynaptiX_FDK/lib/tinyusb/src/common/tusb_common.h ****   volatile uint8_t const* buf8 = (uint8_t const*) mem;
 289:SynaptiX_FDK/lib/tinyusb/src/common/tusb_common.h ****   return tu_u32(buf8[3], buf8[2], buf8[1], buf8[0]);
 290:SynaptiX_FDK/lib/tinyusb/src/common/tusb_common.h **** }
 291:SynaptiX_FDK/lib/tinyusb/src/common/tusb_common.h **** 
 292:SynaptiX_FDK/lib/tinyusb/src/common/tusb_common.h **** TU_ATTR_ALWAYS_INLINE static inline void tu_unaligned_write32(void* mem, uint32_t value) {
 293:SynaptiX_FDK/lib/tinyusb/src/common/tusb_common.h ****   volatile uint8_t* buf8 = (uint8_t*) mem;
 294:SynaptiX_FDK/lib/tinyusb/src/common/tusb_common.h ****   buf8[0] = tu_u32_byte0(value);
 295:SynaptiX_FDK/lib/tinyusb/src/common/tusb_common.h ****   buf8[1] = tu_u32_byte1(value);
 296:SynaptiX_FDK/lib/tinyusb/src/common/tusb_common.h ****   buf8[2] = tu_u32_byte2(value);
 297:SynaptiX_FDK/lib/tinyusb/src/common/tusb_common.h ****   buf8[3] = tu_u32_byte3(value);
 298:SynaptiX_FDK/lib/tinyusb/src/common/tusb_common.h **** }
 299:SynaptiX_FDK/lib/tinyusb/src/common/tusb_common.h **** 
 300:SynaptiX_FDK/lib/tinyusb/src/common/tusb_common.h **** TU_ATTR_ALWAYS_INLINE static inline uint16_t tu_unaligned_read16(const void* mem) {
 301:SynaptiX_FDK/lib/tinyusb/src/common/tusb_common.h ****   volatile uint8_t const* buf8 = (uint8_t const*) mem;
 302:SynaptiX_FDK/lib/tinyusb/src/common/tusb_common.h ****   return tu_u16(buf8[1], buf8[0]);
 303:SynaptiX_FDK/lib/tinyusb/src/common/tusb_common.h **** }
 304:SynaptiX_FDK/lib/tinyusb/src/common/tusb_common.h **** 
 305:SynaptiX_FDK/lib/tinyusb/src/common/tusb_common.h **** TU_ATTR_ALWAYS_INLINE static inline void tu_unaligned_write16(void* mem, uint16_t value) {
 306:SynaptiX_FDK/lib/tinyusb/src/common/tusb_common.h ****   volatile uint8_t* buf8 = (uint8_t*) mem;
 307:SynaptiX_FDK/lib/tinyusb/src/common/tusb_common.h ****   buf8[0] = tu_u16_low(value);
 308:SynaptiX_FDK/lib/tinyusb/src/common/tusb_common.h ****   buf8[1] = tu_u16_high(value);
 309:SynaptiX_FDK/lib/tinyusb/src/common/tusb_common.h **** }
 310:SynaptiX_FDK/lib/tinyusb/src/common/tusb_common.h **** 
 311:SynaptiX_FDK/lib/tinyusb/src/common/tusb_common.h **** #else
 312:SynaptiX_FDK/lib/tinyusb/src/common/tusb_common.h **** 
 313:SynaptiX_FDK/lib/tinyusb/src/common/tusb_common.h **** // MCU that could access unaligned memory natively
 314:SynaptiX_FDK/lib/tinyusb/src/common/tusb_common.h **** TU_ATTR_ALWAYS_INLINE static inline uint32_t tu_unaligned_read32(const void *mem) {
 315:SynaptiX_FDK/lib/tinyusb/src/common/tusb_common.h ****   return *((uint32_t const *) mem);
 316:SynaptiX_FDK/lib/tinyusb/src/common/tusb_common.h **** }
 317:SynaptiX_FDK/lib/tinyusb/src/common/tusb_common.h **** 
 318:SynaptiX_FDK/lib/tinyusb/src/common/tusb_common.h **** TU_ATTR_ALWAYS_INLINE static inline uint16_t tu_unaligned_read16(const void *mem) {
 319:SynaptiX_FDK/lib/tinyusb/src/common/tusb_common.h ****   return *((uint16_t const *) mem);
 320:SynaptiX_FDK/lib/tinyusb/src/common/tusb_common.h **** }
 321:SynaptiX_FDK/lib/tinyusb/src/common/tusb_common.h **** 
 322:SynaptiX_FDK/lib/tinyusb/src/common/tusb_common.h **** TU_ATTR_ALWAYS_INLINE static inline void tu_unaligned_write32(void *mem, uint32_t value) {
 323:SynaptiX_FDK/lib/tinyusb/src/common/tusb_common.h ****   *((uint32_t *) mem) = value;
 324:SynaptiX_FDK/lib/tinyusb/src/common/tusb_common.h **** }
 325:SynaptiX_FDK/lib/tinyusb/src/common/tusb_common.h **** 
 326:SynaptiX_FDK/lib/tinyusb/src/common/tusb_common.h **** TU_ATTR_ALWAYS_INLINE static inline void tu_unaligned_write16(void *mem, uint16_t value) {
 327:SynaptiX_FDK/lib/tinyusb/src/common/tusb_common.h ****   *((uint16_t *) mem) = value;
 328:SynaptiX_FDK/lib/tinyusb/src/common/tusb_common.h **** }
 329:SynaptiX_FDK/lib/tinyusb/src/common/tusb_common.h **** 
 330:SynaptiX_FDK/lib/tinyusb/src/common/tusb_common.h **** #endif
 331:SynaptiX_FDK/lib/tinyusb/src/common/tusb_common.h **** 
 332:SynaptiX_FDK/lib/tinyusb/src/common/tusb_common.h **** // scatter read 4 bytes from two buffers (LE). Parameter are not checked
 333:SynaptiX_FDK/lib/tinyusb/src/common/tusb_common.h **** TU_ATTR_ALWAYS_INLINE static inline uint32_t tu_scatter_read32(const uint8_t *buf1, uint8_t len1, c
 334:SynaptiX_FDK/lib/tinyusb/src/common/tusb_common.h ****                                                                uint8_t len2) {
 335:SynaptiX_FDK/lib/tinyusb/src/common/tusb_common.h ****   uint32_t result = 0;
 336:SynaptiX_FDK/lib/tinyusb/src/common/tusb_common.h ****   uint8_t  shift  = 0;
 337:SynaptiX_FDK/lib/tinyusb/src/common/tusb_common.h **** 
 338:SynaptiX_FDK/lib/tinyusb/src/common/tusb_common.h ****   for (uint8_t i = 0; i < len1; ++i) {
 339:SynaptiX_FDK/lib/tinyusb/src/common/tusb_common.h ****     result |= ((uint32_t)buf1[i]) << shift;
 340:SynaptiX_FDK/lib/tinyusb/src/common/tusb_common.h ****     shift += 8;
 341:SynaptiX_FDK/lib/tinyusb/src/common/tusb_common.h ****   }
 342:SynaptiX_FDK/lib/tinyusb/src/common/tusb_common.h **** 
ARM GAS  C:\Users\DELL\AppData\Local\Temp\ccSfED1Y.s 			page 50


 343:SynaptiX_FDK/lib/tinyusb/src/common/tusb_common.h ****   for (uint8_t i = 0; i < len2; ++i) {
 344:SynaptiX_FDK/lib/tinyusb/src/common/tusb_common.h ****     result |= ((uint32_t)buf2[i]) << shift;
 345:SynaptiX_FDK/lib/tinyusb/src/common/tusb_common.h ****     shift += 8;
 346:SynaptiX_FDK/lib/tinyusb/src/common/tusb_common.h ****   }
 347:SynaptiX_FDK/lib/tinyusb/src/common/tusb_common.h **** 
 348:SynaptiX_FDK/lib/tinyusb/src/common/tusb_common.h ****   return result;
 349:SynaptiX_FDK/lib/tinyusb/src/common/tusb_common.h **** }
 350:SynaptiX_FDK/lib/tinyusb/src/common/tusb_common.h **** 
 351:SynaptiX_FDK/lib/tinyusb/src/common/tusb_common.h **** // scatter write 4 bytes (LE) to two buffers. Parameter are not checked
 352:SynaptiX_FDK/lib/tinyusb/src/common/tusb_common.h **** TU_ATTR_ALWAYS_INLINE static inline void tu_scatter_write32(uint32_t value, uint8_t *buf1, uint8_t 
 353:SynaptiX_FDK/lib/tinyusb/src/common/tusb_common.h ****                                                             uint8_t *buf2, uint8_t len2) {
 354:SynaptiX_FDK/lib/tinyusb/src/common/tusb_common.h ****   for (uint8_t i = 0; i < len1; ++i) {
 355:SynaptiX_FDK/lib/tinyusb/src/common/tusb_common.h ****     buf1[i] = (uint8_t)(value & 0xFF);
 356:SynaptiX_FDK/lib/tinyusb/src/common/tusb_common.h ****     value >>= 8;
 357:SynaptiX_FDK/lib/tinyusb/src/common/tusb_common.h ****   }
 358:SynaptiX_FDK/lib/tinyusb/src/common/tusb_common.h **** 
 359:SynaptiX_FDK/lib/tinyusb/src/common/tusb_common.h ****   for (uint8_t i = 0; i < len2; ++i) {
 360:SynaptiX_FDK/lib/tinyusb/src/common/tusb_common.h ****     buf2[i] = (uint8_t)(value & 0xFF);
 361:SynaptiX_FDK/lib/tinyusb/src/common/tusb_common.h ****     value >>= 8;
 362:SynaptiX_FDK/lib/tinyusb/src/common/tusb_common.h ****   }
 363:SynaptiX_FDK/lib/tinyusb/src/common/tusb_common.h **** }
 364:SynaptiX_FDK/lib/tinyusb/src/common/tusb_common.h **** 
 365:SynaptiX_FDK/lib/tinyusb/src/common/tusb_common.h **** //--------------------------------------------------------------------+
 366:SynaptiX_FDK/lib/tinyusb/src/common/tusb_common.h **** // Descriptor helper
 367:SynaptiX_FDK/lib/tinyusb/src/common/tusb_common.h **** //--------------------------------------------------------------------+
 368:SynaptiX_FDK/lib/tinyusb/src/common/tusb_common.h **** 
 369:SynaptiX_FDK/lib/tinyusb/src/common/tusb_common.h **** // return next descriptor
 370:SynaptiX_FDK/lib/tinyusb/src/common/tusb_common.h **** TU_ATTR_ALWAYS_INLINE static inline uint8_t const * tu_desc_next(void const* desc) {
 1431              		.loc 4 370 53 view .LVU342
 1432              	.LBB180:
 371:SynaptiX_FDK/lib/tinyusb/src/common/tusb_common.h ****   uint8_t const* desc8 = (uint8_t const*) desc;
 1433              		.loc 4 371 3 view .LVU343
 372:SynaptiX_FDK/lib/tinyusb/src/common/tusb_common.h ****   return desc8 + desc8[DESC_OFFSET_LEN];
 1434              		.loc 4 372 3 view .LVU344
 1435              		.loc 4 372 23 is_stmt 0 view .LVU345
 1436 0036 2578     		ldrb	r5, [r4]	@ zero_extendqisi2
 1437              		.loc 4 372 16 view .LVU346
 1438 0038 2544     		add	r5, r5, r4
 1439              	.LVL125:
 1440              		.loc 4 372 16 view .LVU347
 1441              	.LBE180:
 1442              	.LBE179:
 314:SynaptiX_FDK/lib/tinyusb/src/class/cdc/cdc_device.c ****   while (tu_desc_in_bounds(p_desc, desc_end) && TUSB_DESC_CS_INTERFACE == tu_desc_type(p_desc)) {
 1443              		.loc 1 314 3 is_stmt 1 view .LVU348
 1444              	.L139:
 1445              		.loc 1 314 46 view .LVU349
 1446              	.LBB181:
 1447              	.LBI181:
 373:SynaptiX_FDK/lib/tinyusb/src/common/tusb_common.h **** }
 374:SynaptiX_FDK/lib/tinyusb/src/common/tusb_common.h **** 
 375:SynaptiX_FDK/lib/tinyusb/src/common/tusb_common.h **** // get descriptor length
 376:SynaptiX_FDK/lib/tinyusb/src/common/tusb_common.h **** TU_ATTR_ALWAYS_INLINE static inline uint8_t tu_desc_len(void const* desc) {
 377:SynaptiX_FDK/lib/tinyusb/src/common/tusb_common.h ****   return ((uint8_t const*) desc)[DESC_OFFSET_LEN];
 378:SynaptiX_FDK/lib/tinyusb/src/common/tusb_common.h **** }
 379:SynaptiX_FDK/lib/tinyusb/src/common/tusb_common.h **** 
 380:SynaptiX_FDK/lib/tinyusb/src/common/tusb_common.h **** // get descriptor type
 381:SynaptiX_FDK/lib/tinyusb/src/common/tusb_common.h **** TU_ATTR_ALWAYS_INLINE static inline uint8_t tu_desc_type(void const* desc) {
ARM GAS  C:\Users\DELL\AppData\Local\Temp\ccSfED1Y.s 			page 51


 382:SynaptiX_FDK/lib/tinyusb/src/common/tusb_common.h ****   return ((uint8_t const*) desc)[DESC_OFFSET_TYPE];
 383:SynaptiX_FDK/lib/tinyusb/src/common/tusb_common.h **** }
 384:SynaptiX_FDK/lib/tinyusb/src/common/tusb_common.h **** 
 385:SynaptiX_FDK/lib/tinyusb/src/common/tusb_common.h **** // get descriptor subtype
 386:SynaptiX_FDK/lib/tinyusb/src/common/tusb_common.h **** TU_ATTR_ALWAYS_INLINE static inline uint8_t tu_desc_subtype(void const* desc) {
 387:SynaptiX_FDK/lib/tinyusb/src/common/tusb_common.h ****   return ((uint8_t const*) desc)[DESC_OFFSET_SUBTYPE];
 388:SynaptiX_FDK/lib/tinyusb/src/common/tusb_common.h **** }
 389:SynaptiX_FDK/lib/tinyusb/src/common/tusb_common.h **** 
 390:SynaptiX_FDK/lib/tinyusb/src/common/tusb_common.h **** TU_ATTR_ALWAYS_INLINE static inline bool tu_desc_in_bounds(const uint8_t *p_desc, const uint8_t *de
 1448              		.loc 4 390 42 view .LVU350
 1449              	.LBB182:
 391:SynaptiX_FDK/lib/tinyusb/src/common/tusb_common.h ****   return p_desc < desc_end && tu_desc_next(p_desc) <= desc_end;
 1450              		.loc 4 391 3 view .LVU351
 1451              		.loc 4 391 28 is_stmt 0 view .LVU352
 1452 003a 4D45     		cmp	r5, r9
 1453 003c 23D2     		bcs	.L138
 1454              	.LVL126:
 1455              	.LBB183:
 1456              	.LBI183:
 370:SynaptiX_FDK/lib/tinyusb/src/common/tusb_common.h ****   uint8_t const* desc8 = (uint8_t const*) desc;
 1457              		.loc 4 370 53 is_stmt 1 view .LVU353
 1458              	.LBB184:
 371:SynaptiX_FDK/lib/tinyusb/src/common/tusb_common.h ****   return desc8 + desc8[DESC_OFFSET_LEN];
 1459              		.loc 4 371 3 view .LVU354
 372:SynaptiX_FDK/lib/tinyusb/src/common/tusb_common.h **** }
 1460              		.loc 4 372 3 view .LVU355
 372:SynaptiX_FDK/lib/tinyusb/src/common/tusb_common.h **** }
 1461              		.loc 4 372 23 is_stmt 0 view .LVU356
 1462 003e 2B78     		ldrb	r3, [r5]	@ zero_extendqisi2
 372:SynaptiX_FDK/lib/tinyusb/src/common/tusb_common.h **** }
 1463              		.loc 4 372 16 view .LVU357
 1464 0040 2B44     		add	r3, r3, r5
 1465              	.LVL127:
 372:SynaptiX_FDK/lib/tinyusb/src/common/tusb_common.h **** }
 1466              		.loc 4 372 16 view .LVU358
 1467              	.LBE184:
 1468              	.LBE183:
 1469              		.loc 4 391 28 discriminator 1 view .LVU359
 1470 0042 9945     		cmp	r9, r3
 1471 0044 1FD3     		bcc	.L138
 1472              	.LVL128:
 1473              		.loc 4 391 28 discriminator 1 view .LVU360
 1474              	.LBE182:
 1475              	.LBE181:
 1476              	.LBB185:
 1477              	.LBI185:
 381:SynaptiX_FDK/lib/tinyusb/src/common/tusb_common.h ****   return ((uint8_t const*) desc)[DESC_OFFSET_TYPE];
 1478              		.loc 4 381 45 is_stmt 1 view .LVU361
 1479              	.LBB186:
 382:SynaptiX_FDK/lib/tinyusb/src/common/tusb_common.h **** }
 1480              		.loc 4 382 3 view .LVU362
 382:SynaptiX_FDK/lib/tinyusb/src/common/tusb_common.h **** }
 1481              		.loc 4 382 33 is_stmt 0 view .LVU363
 1482 0046 6A78     		ldrb	r2, [r5, #1]	@ zero_extendqisi2
 1483              	.LVL129:
 382:SynaptiX_FDK/lib/tinyusb/src/common/tusb_common.h **** }
 1484              		.loc 4 382 33 view .LVU364
ARM GAS  C:\Users\DELL\AppData\Local\Temp\ccSfED1Y.s 			page 52


 1485              	.LBE186:
 1486              	.LBE185:
 1487              		.loc 1 314 46 discriminator 1 view .LVU365
 1488 0048 242A     		cmp	r2, #36
 1489 004a 1CD1     		bne	.L138
 315:SynaptiX_FDK/lib/tinyusb/src/class/cdc/cdc_device.c ****     p_desc = tu_desc_next(p_desc);
 1490              		.loc 1 315 14 view .LVU366
 1491 004c 1D46     		mov	r5, r3
 1492              	.LVL130:
 1493              		.loc 1 315 14 view .LVU367
 1494 004e F4E7     		b	.L139
 1495              	.LVL131:
 1496              	.L135:
 1497              	.LBB187:
 1498              	.LBB178:
 1499              	.LBB177:
 1500              	.LBB176:
 122:SynaptiX_FDK/lib/tinyusb/src/class/cdc/cdc_device.c ****     if (ep_addr == p_cdc->rx_stream.ep_addr || ep_addr == p_cdc->tx_stream.ep_addr ||
 1501              		.loc 1 122 5 is_stmt 1 view .LVU368
 123:SynaptiX_FDK/lib/tinyusb/src/class/cdc/cdc_device.c ****         (ep_addr == p_cdc->ep_notify && ep_addr != 0)) {
 1502              		.loc 1 123 5 view .LVU369
 123:SynaptiX_FDK/lib/tinyusb/src/class/cdc/cdc_device.c ****         (ep_addr == p_cdc->ep_notify && ep_addr != 0)) {
 1503              		.loc 1 123 36 is_stmt 0 view .LVU370
 1504 0050 604B     		ldr	r3, .L167
 1505 0052 BC21     		movs	r1, #188
 1506 0054 01FB0633 		mla	r3, r1, r6, r3
 1507              	.LVL132:
 123:SynaptiX_FDK/lib/tinyusb/src/class/cdc/cdc_device.c ****         (ep_addr == p_cdc->ep_notify && ep_addr != 0)) {
 1508              		.loc 1 123 36 view .LVU371
 1509 0058 93F82630 		ldrb	r3, [r3, #38]	@ zero_extendqisi2
 1510              	.LVL133:
 123:SynaptiX_FDK/lib/tinyusb/src/class/cdc/cdc_device.c ****         (ep_addr == p_cdc->ep_notify && ep_addr != 0)) {
 1511              		.loc 1 123 8 view .LVU372
 1512 005c 002B     		cmp	r3, #0
 1513 005e DED0     		beq	.L134
 123:SynaptiX_FDK/lib/tinyusb/src/class/cdc/cdc_device.c ****         (ep_addr == p_cdc->ep_notify && ep_addr != 0)) {
 1514              		.loc 1 123 75 discriminator 1 view .LVU373
 1515 0060 5C4B     		ldr	r3, .L167
 1516 0062 01FB0633 		mla	r3, r1, r6, r3
 1517              	.LVL134:
 123:SynaptiX_FDK/lib/tinyusb/src/class/cdc/cdc_device.c ****         (ep_addr == p_cdc->ep_notify && ep_addr != 0)) {
 1518              		.loc 1 123 75 discriminator 1 view .LVU374
 1519 0066 9B7B     		ldrb	r3, [r3, #14]	@ zero_extendqisi2
 1520              	.LVL135:
 123:SynaptiX_FDK/lib/tinyusb/src/class/cdc/cdc_device.c ****         (ep_addr == p_cdc->ep_notify && ep_addr != 0)) {
 1521              		.loc 1 123 45 discriminator 1 view .LVU375
 1522 0068 002B     		cmp	r3, #0
 1523 006a D8D0     		beq	.L134
 1524              	.LBE176:
 121:SynaptiX_FDK/lib/tinyusb/src/class/cdc/cdc_device.c ****     const cdcd_interface_t *p_cdc = &_cdcd_itf[idx];
 1525              		.loc 1 121 47 is_stmt 1 discriminator 2 view .LVU376
 1526 006c 0136     		adds	r6, r6, #1
 1527              	.LVL136:
 121:SynaptiX_FDK/lib/tinyusb/src/class/cdc/cdc_device.c ****     const cdcd_interface_t *p_cdc = &_cdcd_itf[idx];
 1528              		.loc 1 121 47 is_stmt 0 discriminator 2 view .LVU377
 1529 006e F6B2     		uxtb	r6, r6
 1530              	.LVL137:
ARM GAS  C:\Users\DELL\AppData\Local\Temp\ccSfED1Y.s 			page 53


 121:SynaptiX_FDK/lib/tinyusb/src/class/cdc/cdc_device.c ****     const cdcd_interface_t *p_cdc = &_cdcd_itf[idx];
 1531              		.loc 1 121 47 discriminator 2 view .LVU378
 1532 0070 D3E7     		b	.L133
 1533              	.LVL138:
 1534              	.L160:
 121:SynaptiX_FDK/lib/tinyusb/src/class/cdc/cdc_device.c ****     const cdcd_interface_t *p_cdc = &_cdcd_itf[idx];
 1535              		.loc 1 121 47 discriminator 2 view .LVU379
 1536              	.LBE177:
 1537              	.LBE178:
 1538              	.LBE187:
 302:SynaptiX_FDK/lib/tinyusb/src/class/cdc/cdc_device.c ****   cdcd_interface_t *p_cdc = &_cdcd_itf[cdc_id];
 1539              		.loc 1 302 3 is_stmt 1 discriminator 1 view .LVU380
 302:SynaptiX_FDK/lib/tinyusb/src/class/cdc/cdc_device.c ****   cdcd_interface_t *p_cdc = &_cdcd_itf[cdc_id];
 1540              		.loc 1 302 3 discriminator 1 view .LVU381
 302:SynaptiX_FDK/lib/tinyusb/src/class/cdc/cdc_device.c ****   cdcd_interface_t *p_cdc = &_cdcd_itf[cdc_id];
 1541              		.loc 1 302 3 discriminator 1 view .LVU382
 302:SynaptiX_FDK/lib/tinyusb/src/class/cdc/cdc_device.c ****   cdcd_interface_t *p_cdc = &_cdcd_itf[cdc_id];
 1542              		.loc 1 302 3 discriminator 1 view .LVU383
 1543              	.LBB188:
 302:SynaptiX_FDK/lib/tinyusb/src/class/cdc/cdc_device.c ****   cdcd_interface_t *p_cdc = &_cdcd_itf[cdc_id];
 1544              		.loc 1 302 3 discriminator 1 view .LVU384
 302:SynaptiX_FDK/lib/tinyusb/src/class/cdc/cdc_device.c ****   cdcd_interface_t *p_cdc = &_cdcd_itf[cdc_id];
 1545              		.loc 1 302 3 view .LVU385
 302:SynaptiX_FDK/lib/tinyusb/src/class/cdc/cdc_device.c ****   cdcd_interface_t *p_cdc = &_cdcd_itf[cdc_id];
 1546              		.loc 1 302 3 is_stmt 0 discriminator 1 view .LVU386
 1547 0072 4FF0E023 		mov	r3, #-536813568
 1548 0076 D3F8F03D 		ldr	r3, [r3, #3568]
 1549 007a 13F0010F 		tst	r3, #1
 1550 007e 00D0     		beq	.L137
 302:SynaptiX_FDK/lib/tinyusb/src/class/cdc/cdc_device.c ****   cdcd_interface_t *p_cdc = &_cdcd_itf[cdc_id];
 1551              		.loc 1 302 3 is_stmt 1 discriminator 2 view .LVU387
 1552              		.syntax unified
 1553              	@ 302 "SynaptiX_FDK/lib/tinyusb/src/class/cdc/cdc_device.c" 1
 1554 0080 00BE     		BKPT #0
 1555              	
 1556              	@ 0 "" 2
 1557              		.thumb
 1558              		.syntax unified
 1559              	.L137:
 1560              	.LBE188:
 302:SynaptiX_FDK/lib/tinyusb/src/class/cdc/cdc_device.c ****   cdcd_interface_t *p_cdc = &_cdcd_itf[cdc_id];
 1561              		.loc 1 302 3 discriminator 4 view .LVU388
 302:SynaptiX_FDK/lib/tinyusb/src/class/cdc/cdc_device.c ****   cdcd_interface_t *p_cdc = &_cdcd_itf[cdc_id];
 1562              		.loc 1 302 3 discriminator 4 view .LVU389
 1563 0082 0020     		movs	r0, #0
 1564              	.LVL139:
 302:SynaptiX_FDK/lib/tinyusb/src/class/cdc/cdc_device.c ****   cdcd_interface_t *p_cdc = &_cdcd_itf[cdc_id];
 1565              		.loc 1 302 3 is_stmt 0 view .LVU390
 1566 0084 A1E0     		b	.L132
 1567              	.LVL140:
 1568              	.L138:
 316:SynaptiX_FDK/lib/tinyusb/src/class/cdc/cdc_device.c ****   }
 317:SynaptiX_FDK/lib/tinyusb/src/class/cdc/cdc_device.c **** 
 318:SynaptiX_FDK/lib/tinyusb/src/class/cdc/cdc_device.c ****   // notification endpoint (optional)
 319:SynaptiX_FDK/lib/tinyusb/src/class/cdc/cdc_device.c ****   if (TUSB_DESC_ENDPOINT == tu_desc_type(p_desc)) {
 1569              		.loc 1 319 3 is_stmt 1 view .LVU391
 1570              	.LBB189:
ARM GAS  C:\Users\DELL\AppData\Local\Temp\ccSfED1Y.s 			page 54


 1571              	.LBI189:
 381:SynaptiX_FDK/lib/tinyusb/src/common/tusb_common.h ****   return ((uint8_t const*) desc)[DESC_OFFSET_TYPE];
 1572              		.loc 4 381 45 view .LVU392
 1573              	.LBB190:
 382:SynaptiX_FDK/lib/tinyusb/src/common/tusb_common.h **** }
 1574              		.loc 4 382 3 view .LVU393
 382:SynaptiX_FDK/lib/tinyusb/src/common/tusb_common.h **** }
 1575              		.loc 4 382 33 is_stmt 0 view .LVU394
 1576 0086 6B78     		ldrb	r3, [r5, #1]	@ zero_extendqisi2
 1577              	.LVL141:
 382:SynaptiX_FDK/lib/tinyusb/src/common/tusb_common.h **** }
 1578              		.loc 4 382 33 view .LVU395
 1579              	.LBE190:
 1580              	.LBE189:
 1581              		.loc 1 319 6 discriminator 1 view .LVU396
 1582 0088 052B     		cmp	r3, #5
 1583 008a 05D0     		beq	.L161
 1584              	.LVL142:
 1585              	.L140:
 320:SynaptiX_FDK/lib/tinyusb/src/class/cdc/cdc_device.c ****     const tusb_desc_endpoint_t* desc_ep = (const tusb_desc_endpoint_t*) p_desc;
 321:SynaptiX_FDK/lib/tinyusb/src/class/cdc/cdc_device.c ****     TU_ASSERT(usbd_edpt_open(rhport, desc_ep), 0);
 322:SynaptiX_FDK/lib/tinyusb/src/class/cdc/cdc_device.c ****     p_cdc->ep_notify = desc_ep->bEndpointAddress;
 323:SynaptiX_FDK/lib/tinyusb/src/class/cdc/cdc_device.c **** 
 324:SynaptiX_FDK/lib/tinyusb/src/class/cdc/cdc_device.c ****     p_desc = tu_desc_next(p_desc);
 325:SynaptiX_FDK/lib/tinyusb/src/class/cdc/cdc_device.c ****   }
 326:SynaptiX_FDK/lib/tinyusb/src/class/cdc/cdc_device.c **** 
 327:SynaptiX_FDK/lib/tinyusb/src/class/cdc/cdc_device.c ****   //------------- Data Interface (optional) -------------//
 328:SynaptiX_FDK/lib/tinyusb/src/class/cdc/cdc_device.c ****   if (TUSB_DESC_INTERFACE == tu_desc_type(p_desc)) {
 1586              		.loc 1 328 3 is_stmt 1 view .LVU397
 1587              	.LBB191:
 1588              	.LBI191:
 381:SynaptiX_FDK/lib/tinyusb/src/common/tusb_common.h ****   return ((uint8_t const*) desc)[DESC_OFFSET_TYPE];
 1589              		.loc 4 381 45 view .LVU398
 1590              	.LBB192:
 382:SynaptiX_FDK/lib/tinyusb/src/common/tusb_common.h **** }
 1591              		.loc 4 382 3 view .LVU399
 382:SynaptiX_FDK/lib/tinyusb/src/common/tusb_common.h **** }
 1592              		.loc 4 382 33 is_stmt 0 view .LVU400
 1593 008c 6B78     		ldrb	r3, [r5, #1]	@ zero_extendqisi2
 1594              	.LVL143:
 382:SynaptiX_FDK/lib/tinyusb/src/common/tusb_common.h **** }
 1595              		.loc 4 382 33 view .LVU401
 1596              	.LBE192:
 1597              	.LBE191:
 1598              		.loc 1 328 6 discriminator 1 view .LVU402
 1599 008e 042B     		cmp	r3, #4
 1600 0090 1AD0     		beq	.L162
 1601              	.LVL144:
 1602              	.L143:
 329:SynaptiX_FDK/lib/tinyusb/src/class/cdc/cdc_device.c ****     const tusb_desc_interface_t *data_itf_desc = (const tusb_desc_interface_t *)p_desc;
 330:SynaptiX_FDK/lib/tinyusb/src/class/cdc/cdc_device.c ****     if (TUSB_CLASS_CDC_DATA == data_itf_desc->bInterfaceClass) {
 331:SynaptiX_FDK/lib/tinyusb/src/class/cdc/cdc_device.c ****       for (uint8_t e = 0; e < data_itf_desc->bNumEndpoints; e++) {
 332:SynaptiX_FDK/lib/tinyusb/src/class/cdc/cdc_device.c ****         if (!tu_desc_in_bounds(p_desc, desc_end)) {
 333:SynaptiX_FDK/lib/tinyusb/src/class/cdc/cdc_device.c ****           break;
 334:SynaptiX_FDK/lib/tinyusb/src/class/cdc/cdc_device.c ****         }
 335:SynaptiX_FDK/lib/tinyusb/src/class/cdc/cdc_device.c ****         p_desc = tu_desc_next(p_desc);
 336:SynaptiX_FDK/lib/tinyusb/src/class/cdc/cdc_device.c **** 
ARM GAS  C:\Users\DELL\AppData\Local\Temp\ccSfED1Y.s 			page 55


 337:SynaptiX_FDK/lib/tinyusb/src/class/cdc/cdc_device.c ****         const tusb_desc_endpoint_t *desc_ep = (const tusb_desc_endpoint_t *)p_desc;
 338:SynaptiX_FDK/lib/tinyusb/src/class/cdc/cdc_device.c ****         TU_ASSERT(TUSB_DESC_ENDPOINT == desc_ep->bDescriptorType && TUSB_XFER_BULK == desc_ep->bmAt
 339:SynaptiX_FDK/lib/tinyusb/src/class/cdc/cdc_device.c **** 
 340:SynaptiX_FDK/lib/tinyusb/src/class/cdc/cdc_device.c ****         TU_ASSERT(usbd_edpt_open(rhport, desc_ep), 0);
 341:SynaptiX_FDK/lib/tinyusb/src/class/cdc/cdc_device.c ****         if (tu_edpt_dir(desc_ep->bEndpointAddress) == TUSB_DIR_IN) {
 342:SynaptiX_FDK/lib/tinyusb/src/class/cdc/cdc_device.c ****           tu_edpt_stream_t *stream_tx = &p_cdc->tx_stream;
 343:SynaptiX_FDK/lib/tinyusb/src/class/cdc/cdc_device.c ****           tu_edpt_stream_open(stream_tx, rhport, desc_ep, CFG_TUD_CDC_TX_EPSIZE);
 344:SynaptiX_FDK/lib/tinyusb/src/class/cdc/cdc_device.c **** 
 345:SynaptiX_FDK/lib/tinyusb/src/class/cdc/cdc_device.c ****   #if CFG_TUD_CDC_TX_PERSISTENT
 346:SynaptiX_FDK/lib/tinyusb/src/class/cdc/cdc_device.c ****           tu_edpt_stream_write_xfer(stream_tx); // flush pending data
 347:SynaptiX_FDK/lib/tinyusb/src/class/cdc/cdc_device.c ****   #else
 348:SynaptiX_FDK/lib/tinyusb/src/class/cdc/cdc_device.c ****           tu_edpt_stream_clear(stream_tx);
 349:SynaptiX_FDK/lib/tinyusb/src/class/cdc/cdc_device.c ****   #endif
 350:SynaptiX_FDK/lib/tinyusb/src/class/cdc/cdc_device.c ****         } else {
 351:SynaptiX_FDK/lib/tinyusb/src/class/cdc/cdc_device.c ****           tu_edpt_stream_t *stream_rx = &p_cdc->rx_stream;
 352:SynaptiX_FDK/lib/tinyusb/src/class/cdc/cdc_device.c ****   #if CFG_TUD_CDC_RX_NEED_ZLP
 353:SynaptiX_FDK/lib/tinyusb/src/class/cdc/cdc_device.c ****           const uint16_t xfer_len = CFG_TUD_CDC_RX_EPSIZE;
 354:SynaptiX_FDK/lib/tinyusb/src/class/cdc/cdc_device.c ****   #else
 355:SynaptiX_FDK/lib/tinyusb/src/class/cdc/cdc_device.c ****           const uint16_t xfer_len = tu_edpt_packet_size(desc_ep);
 356:SynaptiX_FDK/lib/tinyusb/src/class/cdc/cdc_device.c ****   #endif
 357:SynaptiX_FDK/lib/tinyusb/src/class/cdc/cdc_device.c **** 
 358:SynaptiX_FDK/lib/tinyusb/src/class/cdc/cdc_device.c ****           tu_edpt_stream_open(stream_rx, rhport, desc_ep, xfer_len);
 359:SynaptiX_FDK/lib/tinyusb/src/class/cdc/cdc_device.c **** 
 360:SynaptiX_FDK/lib/tinyusb/src/class/cdc/cdc_device.c ****   #if !CFG_TUD_CDC_RX_PERSISTENT
 361:SynaptiX_FDK/lib/tinyusb/src/class/cdc/cdc_device.c ****           tu_edpt_stream_clear(stream_rx);
 362:SynaptiX_FDK/lib/tinyusb/src/class/cdc/cdc_device.c ****   #endif
 363:SynaptiX_FDK/lib/tinyusb/src/class/cdc/cdc_device.c **** 
 364:SynaptiX_FDK/lib/tinyusb/src/class/cdc/cdc_device.c ****           TU_ASSERT(tu_edpt_stream_read_xfer(stream_rx) > 0, 0); // prepare for incoming data
 365:SynaptiX_FDK/lib/tinyusb/src/class/cdc/cdc_device.c ****         }
 366:SynaptiX_FDK/lib/tinyusb/src/class/cdc/cdc_device.c ****       }
 367:SynaptiX_FDK/lib/tinyusb/src/class/cdc/cdc_device.c **** 
 368:SynaptiX_FDK/lib/tinyusb/src/class/cdc/cdc_device.c ****       p_desc = tu_desc_next(p_desc);
 369:SynaptiX_FDK/lib/tinyusb/src/class/cdc/cdc_device.c ****     }
 370:SynaptiX_FDK/lib/tinyusb/src/class/cdc/cdc_device.c ****   }
 371:SynaptiX_FDK/lib/tinyusb/src/class/cdc/cdc_device.c **** 
 372:SynaptiX_FDK/lib/tinyusb/src/class/cdc/cdc_device.c ****   return (uint16_t)(p_desc - (const uint8_t *)itf_desc);
 1603              		.loc 1 372 3 is_stmt 1 view .LVU403
 1604              		.loc 1 372 28 is_stmt 0 view .LVU404
 1605 0092 281B     		subs	r0, r5, r4
 1606              		.loc 1 372 10 view .LVU405
 1607 0094 80B2     		uxth	r0, r0
 1608 0096 98E0     		b	.L132
 1609              	.LVL145:
 1610              	.L161:
 1611              	.LBB193:
 320:SynaptiX_FDK/lib/tinyusb/src/class/cdc/cdc_device.c ****     TU_ASSERT(usbd_edpt_open(rhport, desc_ep), 0);
 1612              		.loc 1 320 5 is_stmt 1 view .LVU406
 321:SynaptiX_FDK/lib/tinyusb/src/class/cdc/cdc_device.c ****     p_cdc->ep_notify = desc_ep->bEndpointAddress;
 1613              		.loc 1 321 5 view .LVU407
 321:SynaptiX_FDK/lib/tinyusb/src/class/cdc/cdc_device.c ****     p_cdc->ep_notify = desc_ep->bEndpointAddress;
 1614              		.loc 1 321 5 view .LVU408
 1615 0098 2946     		mov	r1, r5
 1616 009a 3846     		mov	r0, r7
 1617              	.LVL146:
 321:SynaptiX_FDK/lib/tinyusb/src/class/cdc/cdc_device.c ****     p_cdc->ep_notify = desc_ep->bEndpointAddress;
 1618              		.loc 1 321 5 is_stmt 0 view .LVU409
 1619 009c FFF7FEFF 		bl	usbd_edpt_open
ARM GAS  C:\Users\DELL\AppData\Local\Temp\ccSfED1Y.s 			page 56


 1620              	.LVL147:
 321:SynaptiX_FDK/lib/tinyusb/src/class/cdc/cdc_device.c ****     p_cdc->ep_notify = desc_ep->bEndpointAddress;
 1621              		.loc 1 321 5 discriminator 1 view .LVU410
 1622 00a0 40B1     		cbz	r0, .L163
 321:SynaptiX_FDK/lib/tinyusb/src/class/cdc/cdc_device.c ****     p_cdc->ep_notify = desc_ep->bEndpointAddress;
 1623              		.loc 1 321 5 is_stmt 1 view .LVU411
 322:SynaptiX_FDK/lib/tinyusb/src/class/cdc/cdc_device.c **** 
 1624              		.loc 1 322 5 view .LVU412
 322:SynaptiX_FDK/lib/tinyusb/src/class/cdc/cdc_device.c **** 
 1625              		.loc 1 322 31 is_stmt 0 view .LVU413
 1626 00a2 AA78     		ldrb	r2, [r5, #2]	@ zero_extendqisi2
 322:SynaptiX_FDK/lib/tinyusb/src/class/cdc/cdc_device.c **** 
 1627              		.loc 1 322 22 view .LVU414
 1628 00a4 4B4B     		ldr	r3, .L167
 1629 00a6 BC21     		movs	r1, #188
 1630 00a8 01FB0833 		mla	r3, r1, r8, r3
 1631 00ac 9A70     		strb	r2, [r3, #2]
 324:SynaptiX_FDK/lib/tinyusb/src/class/cdc/cdc_device.c ****   }
 1632              		.loc 1 324 5 is_stmt 1 view .LVU415
 1633              	.LVL148:
 1634              	.LBB194:
 1635              	.LBI194:
 370:SynaptiX_FDK/lib/tinyusb/src/common/tusb_common.h ****   uint8_t const* desc8 = (uint8_t const*) desc;
 1636              		.loc 4 370 53 view .LVU416
 1637              	.LBB195:
 371:SynaptiX_FDK/lib/tinyusb/src/common/tusb_common.h ****   return desc8 + desc8[DESC_OFFSET_LEN];
 1638              		.loc 4 371 3 view .LVU417
 372:SynaptiX_FDK/lib/tinyusb/src/common/tusb_common.h **** }
 1639              		.loc 4 372 3 view .LVU418
 372:SynaptiX_FDK/lib/tinyusb/src/common/tusb_common.h **** }
 1640              		.loc 4 372 23 is_stmt 0 view .LVU419
 1641 00ae 2B78     		ldrb	r3, [r5]	@ zero_extendqisi2
 372:SynaptiX_FDK/lib/tinyusb/src/common/tusb_common.h **** }
 1642              		.loc 4 372 16 view .LVU420
 1643 00b0 1D44     		add	r5, r5, r3
 1644              	.LVL149:
 372:SynaptiX_FDK/lib/tinyusb/src/common/tusb_common.h **** }
 1645              		.loc 4 372 16 view .LVU421
 1646 00b2 EBE7     		b	.L140
 1647              	.LVL150:
 1648              	.L163:
 372:SynaptiX_FDK/lib/tinyusb/src/common/tusb_common.h **** }
 1649              		.loc 4 372 16 view .LVU422
 1650              	.LBE195:
 1651              	.LBE194:
 321:SynaptiX_FDK/lib/tinyusb/src/class/cdc/cdc_device.c ****     p_cdc->ep_notify = desc_ep->bEndpointAddress;
 1652              		.loc 1 321 5 is_stmt 1 discriminator 1 view .LVU423
 321:SynaptiX_FDK/lib/tinyusb/src/class/cdc/cdc_device.c ****     p_cdc->ep_notify = desc_ep->bEndpointAddress;
 1653              		.loc 1 321 5 discriminator 1 view .LVU424
 321:SynaptiX_FDK/lib/tinyusb/src/class/cdc/cdc_device.c ****     p_cdc->ep_notify = desc_ep->bEndpointAddress;
 1654              		.loc 1 321 5 discriminator 1 view .LVU425
 321:SynaptiX_FDK/lib/tinyusb/src/class/cdc/cdc_device.c ****     p_cdc->ep_notify = desc_ep->bEndpointAddress;
 1655              		.loc 1 321 5 discriminator 1 view .LVU426
 1656              	.LBB196:
 321:SynaptiX_FDK/lib/tinyusb/src/class/cdc/cdc_device.c ****     p_cdc->ep_notify = desc_ep->bEndpointAddress;
 1657              		.loc 1 321 5 discriminator 1 view .LVU427
 321:SynaptiX_FDK/lib/tinyusb/src/class/cdc/cdc_device.c ****     p_cdc->ep_notify = desc_ep->bEndpointAddress;
ARM GAS  C:\Users\DELL\AppData\Local\Temp\ccSfED1Y.s 			page 57


 1658              		.loc 1 321 5 view .LVU428
 321:SynaptiX_FDK/lib/tinyusb/src/class/cdc/cdc_device.c ****     p_cdc->ep_notify = desc_ep->bEndpointAddress;
 1659              		.loc 1 321 5 is_stmt 0 discriminator 1 view .LVU429
 1660 00b4 4FF0E023 		mov	r3, #-536813568
 1661 00b8 D3F8F03D 		ldr	r3, [r3, #3568]
 1662 00bc 13F0010F 		tst	r3, #1
 1663 00c0 00D0     		beq	.L142
 321:SynaptiX_FDK/lib/tinyusb/src/class/cdc/cdc_device.c ****     p_cdc->ep_notify = desc_ep->bEndpointAddress;
 1664              		.loc 1 321 5 is_stmt 1 discriminator 2 view .LVU430
 1665              		.syntax unified
 1666              	@ 321 "SynaptiX_FDK/lib/tinyusb/src/class/cdc/cdc_device.c" 1
 1667 00c2 00BE     		BKPT #0
 1668              	
 1669              	@ 0 "" 2
 1670              		.thumb
 1671              		.syntax unified
 1672              	.L142:
 321:SynaptiX_FDK/lib/tinyusb/src/class/cdc/cdc_device.c ****     p_cdc->ep_notify = desc_ep->bEndpointAddress;
 1673              		.loc 1 321 5 is_stmt 0 discriminator 2 view .LVU431
 1674              	.LBE196:
 321:SynaptiX_FDK/lib/tinyusb/src/class/cdc/cdc_device.c ****     p_cdc->ep_notify = desc_ep->bEndpointAddress;
 1675              		.loc 1 321 5 is_stmt 1 discriminator 4 view .LVU432
 321:SynaptiX_FDK/lib/tinyusb/src/class/cdc/cdc_device.c ****     p_cdc->ep_notify = desc_ep->bEndpointAddress;
 1676              		.loc 1 321 5 discriminator 4 view .LVU433
 1677 00c4 0020     		movs	r0, #0
 321:SynaptiX_FDK/lib/tinyusb/src/class/cdc/cdc_device.c ****     p_cdc->ep_notify = desc_ep->bEndpointAddress;
 1678              		.loc 1 321 5 is_stmt 0 view .LVU434
 1679 00c6 80E0     		b	.L132
 1680              	.LVL151:
 1681              	.L162:
 321:SynaptiX_FDK/lib/tinyusb/src/class/cdc/cdc_device.c ****     p_cdc->ep_notify = desc_ep->bEndpointAddress;
 1682              		.loc 1 321 5 view .LVU435
 1683              	.LBE193:
 1684              	.LBB197:
 329:SynaptiX_FDK/lib/tinyusb/src/class/cdc/cdc_device.c ****     if (TUSB_CLASS_CDC_DATA == data_itf_desc->bInterfaceClass) {
 1685              		.loc 1 329 5 is_stmt 1 view .LVU436
 330:SynaptiX_FDK/lib/tinyusb/src/class/cdc/cdc_device.c ****       for (uint8_t e = 0; e < data_itf_desc->bNumEndpoints; e++) {
 1686              		.loc 1 330 5 view .LVU437
 330:SynaptiX_FDK/lib/tinyusb/src/class/cdc/cdc_device.c ****       for (uint8_t e = 0; e < data_itf_desc->bNumEndpoints; e++) {
 1687              		.loc 1 330 45 is_stmt 0 view .LVU438
 1688 00c8 6B79     		ldrb	r3, [r5, #5]	@ zero_extendqisi2
 330:SynaptiX_FDK/lib/tinyusb/src/class/cdc/cdc_device.c ****       for (uint8_t e = 0; e < data_itf_desc->bNumEndpoints; e++) {
 1689              		.loc 1 330 8 view .LVU439
 1690 00ca 0A2B     		cmp	r3, #10
 1691 00cc E1D1     		bne	.L143
 1692 00ce 2B46     		mov	r3, r5
 1693              	.LVL152:
 1694              	.L144:
 1695              	.LBB198:
 331:SynaptiX_FDK/lib/tinyusb/src/class/cdc/cdc_device.c ****         if (!tu_desc_in_bounds(p_desc, desc_end)) {
 1696              		.loc 1 331 29 is_stmt 1 discriminator 1 view .LVU440
 331:SynaptiX_FDK/lib/tinyusb/src/class/cdc/cdc_device.c ****         if (!tu_desc_in_bounds(p_desc, desc_end)) {
 1697              		.loc 1 331 44 is_stmt 0 discriminator 1 view .LVU441
 1698 00d0 2A79     		ldrb	r2, [r5, #4]	@ zero_extendqisi2
 331:SynaptiX_FDK/lib/tinyusb/src/class/cdc/cdc_device.c ****         if (!tu_desc_in_bounds(p_desc, desc_end)) {
 1699              		.loc 1 331 29 discriminator 1 view .LVU442
 1700 00d2 B242     		cmp	r2, r6
ARM GAS  C:\Users\DELL\AppData\Local\Temp\ccSfED1Y.s 			page 58


 1701 00d4 75D9     		bls	.L145
 1702              	.LBB199:
 332:SynaptiX_FDK/lib/tinyusb/src/class/cdc/cdc_device.c ****           break;
 1703              		.loc 1 332 9 is_stmt 1 view .LVU443
 1704              	.LVL153:
 1705              	.LBB200:
 1706              	.LBI200:
 390:SynaptiX_FDK/lib/tinyusb/src/common/tusb_common.h ****   return p_desc < desc_end && tu_desc_next(p_desc) <= desc_end;
 1707              		.loc 4 390 42 view .LVU444
 1708              	.LBB201:
 1709              		.loc 4 391 3 view .LVU445
 1710              		.loc 4 391 28 is_stmt 0 view .LVU446
 1711 00d6 4B45     		cmp	r3, r9
 1712 00d8 73D2     		bcs	.L145
 1713              	.LVL154:
 1714              	.LBB202:
 1715              	.LBI202:
 370:SynaptiX_FDK/lib/tinyusb/src/common/tusb_common.h ****   uint8_t const* desc8 = (uint8_t const*) desc;
 1716              		.loc 4 370 53 is_stmt 1 view .LVU447
 1717              	.LBB203:
 371:SynaptiX_FDK/lib/tinyusb/src/common/tusb_common.h ****   return desc8 + desc8[DESC_OFFSET_LEN];
 1718              		.loc 4 371 3 view .LVU448
 372:SynaptiX_FDK/lib/tinyusb/src/common/tusb_common.h **** }
 1719              		.loc 4 372 3 view .LVU449
 372:SynaptiX_FDK/lib/tinyusb/src/common/tusb_common.h **** }
 1720              		.loc 4 372 23 is_stmt 0 view .LVU450
 1721 00da 93F800A0 		ldrb	r10, [r3]	@ zero_extendqisi2
 372:SynaptiX_FDK/lib/tinyusb/src/common/tusb_common.h **** }
 1722              		.loc 4 372 16 view .LVU451
 1723 00de 9A44     		add	r10, r10, r3
 1724              	.LVL155:
 372:SynaptiX_FDK/lib/tinyusb/src/common/tusb_common.h **** }
 1725              		.loc 4 372 16 view .LVU452
 1726              	.LBE203:
 1727              	.LBE202:
 1728              		.loc 4 391 28 discriminator 1 view .LVU453
 1729 00e0 D145     		cmp	r9, r10
 1730 00e2 6ED3     		bcc	.L145
 1731              	.LVL156:
 1732              		.loc 4 391 28 discriminator 1 view .LVU454
 1733              	.LBE201:
 1734              	.LBE200:
 335:SynaptiX_FDK/lib/tinyusb/src/class/cdc/cdc_device.c **** 
 1735              		.loc 1 335 9 is_stmt 1 view .LVU455
 337:SynaptiX_FDK/lib/tinyusb/src/class/cdc/cdc_device.c ****         TU_ASSERT(TUSB_DESC_ENDPOINT == desc_ep->bDescriptorType && TUSB_XFER_BULK == desc_ep->bmAt
 1736              		.loc 1 337 9 view .LVU456
 338:SynaptiX_FDK/lib/tinyusb/src/class/cdc/cdc_device.c **** 
 1737              		.loc 1 338 9 view .LVU457
 338:SynaptiX_FDK/lib/tinyusb/src/class/cdc/cdc_device.c **** 
 1738              		.loc 1 338 9 view .LVU458
 1739 00e4 9AF80130 		ldrb	r3, [r10, #1]	@ zero_extendqisi2
 1740              	.LVL157:
 338:SynaptiX_FDK/lib/tinyusb/src/class/cdc/cdc_device.c **** 
 1741              		.loc 1 338 9 is_stmt 0 view .LVU459
 1742 00e8 052B     		cmp	r3, #5
 1743 00ea 36D1     		bne	.L146
 338:SynaptiX_FDK/lib/tinyusb/src/class/cdc/cdc_device.c **** 
ARM GAS  C:\Users\DELL\AppData\Local\Temp\ccSfED1Y.s 			page 59


 1744              		.loc 1 338 9 discriminator 2 view .LVU460
 1745 00ec 9AF80330 		ldrb	r3, [r10, #3]	@ zero_extendqisi2
 1746 00f0 03F00303 		and	r3, r3, #3
 1747 00f4 022B     		cmp	r3, #2
 1748 00f6 30D1     		bne	.L146
 338:SynaptiX_FDK/lib/tinyusb/src/class/cdc/cdc_device.c **** 
 1749              		.loc 1 338 9 is_stmt 1 view .LVU461
 340:SynaptiX_FDK/lib/tinyusb/src/class/cdc/cdc_device.c ****         if (tu_edpt_dir(desc_ep->bEndpointAddress) == TUSB_DIR_IN) {
 1750              		.loc 1 340 9 view .LVU462
 340:SynaptiX_FDK/lib/tinyusb/src/class/cdc/cdc_device.c ****         if (tu_edpt_dir(desc_ep->bEndpointAddress) == TUSB_DIR_IN) {
 1751              		.loc 1 340 9 view .LVU463
 1752 00f8 5146     		mov	r1, r10
 1753 00fa 3846     		mov	r0, r7
 1754 00fc FFF7FEFF 		bl	usbd_edpt_open
 1755              	.LVL158:
 340:SynaptiX_FDK/lib/tinyusb/src/class/cdc/cdc_device.c ****         if (tu_edpt_dir(desc_ep->bEndpointAddress) == TUSB_DIR_IN) {
 1756              		.loc 1 340 9 is_stmt 0 discriminator 1 view .LVU464
 1757 0100 A8B3     		cbz	r0, .L164
 340:SynaptiX_FDK/lib/tinyusb/src/class/cdc/cdc_device.c ****         if (tu_edpt_dir(desc_ep->bEndpointAddress) == TUSB_DIR_IN) {
 1758              		.loc 1 340 9 is_stmt 1 view .LVU465
 341:SynaptiX_FDK/lib/tinyusb/src/class/cdc/cdc_device.c ****           tu_edpt_stream_t *stream_tx = &p_cdc->tx_stream;
 1759              		.loc 1 341 9 view .LVU466
 341:SynaptiX_FDK/lib/tinyusb/src/class/cdc/cdc_device.c ****           tu_edpt_stream_t *stream_tx = &p_cdc->tx_stream;
 1760              		.loc 1 341 32 is_stmt 0 view .LVU467
 1761 0102 9AF80230 		ldrb	r3, [r10, #2]	@ zero_extendqisi2
 1762              	.LVL159:
 1763              	.LBB204:
 1764              	.LBI204:
 1765              		.file 6 "SynaptiX_FDK/lib/tinyusb/src/common/tusb_types.h"
   1:SynaptiX_FDK/lib/tinyusb/src/common/tusb_types.h **** /*
   2:SynaptiX_FDK/lib/tinyusb/src/common/tusb_types.h ****  * The MIT License (MIT)
   3:SynaptiX_FDK/lib/tinyusb/src/common/tusb_types.h ****  *
   4:SynaptiX_FDK/lib/tinyusb/src/common/tusb_types.h ****  * Copyright (c) 2019 Ha Thach (tinyusb.org)
   5:SynaptiX_FDK/lib/tinyusb/src/common/tusb_types.h ****  *
   6:SynaptiX_FDK/lib/tinyusb/src/common/tusb_types.h ****  * Permission is hereby granted, free of charge, to any person obtaining a copy
   7:SynaptiX_FDK/lib/tinyusb/src/common/tusb_types.h ****  * of this software and associated documentation files (the "Software"), to deal
   8:SynaptiX_FDK/lib/tinyusb/src/common/tusb_types.h ****  * in the Software without restriction, including without limitation the rights
   9:SynaptiX_FDK/lib/tinyusb/src/common/tusb_types.h ****  * to use, copy, modify, merge, publish, distribute, sublicense, and/or sell
  10:SynaptiX_FDK/lib/tinyusb/src/common/tusb_types.h ****  * copies of the Software, and to permit persons to whom the Software is
  11:SynaptiX_FDK/lib/tinyusb/src/common/tusb_types.h ****  * furnished to do so, subject to the following conditions:
  12:SynaptiX_FDK/lib/tinyusb/src/common/tusb_types.h ****  *
  13:SynaptiX_FDK/lib/tinyusb/src/common/tusb_types.h ****  * The above copyright notice and this permission notice shall be included in
  14:SynaptiX_FDK/lib/tinyusb/src/common/tusb_types.h ****  * all copies or substantial portions of the Software.
  15:SynaptiX_FDK/lib/tinyusb/src/common/tusb_types.h ****  *
  16:SynaptiX_FDK/lib/tinyusb/src/common/tusb_types.h ****  * THE SOFTWARE IS PROVIDED "AS IS", WITHOUT WARRANTY OF ANY KIND, EXPRESS OR
  17:SynaptiX_FDK/lib/tinyusb/src/common/tusb_types.h ****  * IMPLIED, INCLUDING BUT NOT LIMITED TO THE WARRANTIES OF MERCHANTABILITY,
  18:SynaptiX_FDK/lib/tinyusb/src/common/tusb_types.h ****  * FITNESS FOR A PARTICULAR PURPOSE AND NONINFRINGEMENT. IN NO EVENT SHALL THE
  19:SynaptiX_FDK/lib/tinyusb/src/common/tusb_types.h ****  * AUTHORS OR COPYRIGHT HOLDERS BE LIABLE FOR ANY CLAIM, DAMAGES OR OTHER
  20:SynaptiX_FDK/lib/tinyusb/src/common/tusb_types.h ****  * LIABILITY, WHETHER IN AN ACTION OF CONTRACT, TORT OR OTHERWISE, ARISING FROM,
  21:SynaptiX_FDK/lib/tinyusb/src/common/tusb_types.h ****  * OUT OF OR IN CONNECTION WITH THE SOFTWARE OR THE USE OR OTHER DEALINGS IN
  22:SynaptiX_FDK/lib/tinyusb/src/common/tusb_types.h ****  * THE SOFTWARE.
  23:SynaptiX_FDK/lib/tinyusb/src/common/tusb_types.h ****  *
  24:SynaptiX_FDK/lib/tinyusb/src/common/tusb_types.h ****  * This file is part of the TinyUSB stack.
  25:SynaptiX_FDK/lib/tinyusb/src/common/tusb_types.h ****  */
  26:SynaptiX_FDK/lib/tinyusb/src/common/tusb_types.h **** 
  27:SynaptiX_FDK/lib/tinyusb/src/common/tusb_types.h **** #ifndef TUSB_TYPES_H_
  28:SynaptiX_FDK/lib/tinyusb/src/common/tusb_types.h **** #define TUSB_TYPES_H_
ARM GAS  C:\Users\DELL\AppData\Local\Temp\ccSfED1Y.s 			page 60


  29:SynaptiX_FDK/lib/tinyusb/src/common/tusb_types.h **** 
  30:SynaptiX_FDK/lib/tinyusb/src/common/tusb_types.h **** #include <stdbool.h>
  31:SynaptiX_FDK/lib/tinyusb/src/common/tusb_types.h **** #include <stdint.h>
  32:SynaptiX_FDK/lib/tinyusb/src/common/tusb_types.h **** #include "tusb_compiler.h"
  33:SynaptiX_FDK/lib/tinyusb/src/common/tusb_types.h **** 
  34:SynaptiX_FDK/lib/tinyusb/src/common/tusb_types.h **** #ifdef __cplusplus
  35:SynaptiX_FDK/lib/tinyusb/src/common/tusb_types.h ****  extern "C" {
  36:SynaptiX_FDK/lib/tinyusb/src/common/tusb_types.h **** #endif
  37:SynaptiX_FDK/lib/tinyusb/src/common/tusb_types.h **** 
  38:SynaptiX_FDK/lib/tinyusb/src/common/tusb_types.h **** //------------- Device DCache declaration -------------//
  39:SynaptiX_FDK/lib/tinyusb/src/common/tusb_types.h **** #define TUD_EPBUF_DCACHE_SIZE(_size) (CFG_TUD_MEM_DCACHE_ENABLE ? \
  40:SynaptiX_FDK/lib/tinyusb/src/common/tusb_types.h ****   (TU_DIV_CEIL(_size, CFG_TUD_MEM_DCACHE_LINE_SIZE) * CFG_TUD_MEM_DCACHE_LINE_SIZE) : (_size))
  41:SynaptiX_FDK/lib/tinyusb/src/common/tusb_types.h **** 
  42:SynaptiX_FDK/lib/tinyusb/src/common/tusb_types.h **** // Declare an endpoint buffer with uint8_t[size]
  43:SynaptiX_FDK/lib/tinyusb/src/common/tusb_types.h **** #define TUD_EPBUF_DEF(_name, _size) \
  44:SynaptiX_FDK/lib/tinyusb/src/common/tusb_types.h ****   union { \
  45:SynaptiX_FDK/lib/tinyusb/src/common/tusb_types.h ****     CFG_TUD_MEM_ALIGN uint8_t _name[_size]; \
  46:SynaptiX_FDK/lib/tinyusb/src/common/tusb_types.h ****     TU_ATTR_ALIGNED(CFG_TUD_MEM_DCACHE_ENABLE ? CFG_TUD_MEM_DCACHE_LINE_SIZE : 1) uint8_t _name##_d
  47:SynaptiX_FDK/lib/tinyusb/src/common/tusb_types.h ****   }
  48:SynaptiX_FDK/lib/tinyusb/src/common/tusb_types.h **** 
  49:SynaptiX_FDK/lib/tinyusb/src/common/tusb_types.h **** // Declare an endpoint buffer with a type
  50:SynaptiX_FDK/lib/tinyusb/src/common/tusb_types.h **** #define TUD_EPBUF_TYPE_DEF(_type, _name) \
  51:SynaptiX_FDK/lib/tinyusb/src/common/tusb_types.h ****   union { \
  52:SynaptiX_FDK/lib/tinyusb/src/common/tusb_types.h ****     CFG_TUD_MEM_ALIGN _type _name; \
  53:SynaptiX_FDK/lib/tinyusb/src/common/tusb_types.h ****     TU_ATTR_ALIGNED(CFG_TUD_MEM_DCACHE_ENABLE ? CFG_TUD_MEM_DCACHE_LINE_SIZE : 1) uint8_t _name##_d
  54:SynaptiX_FDK/lib/tinyusb/src/common/tusb_types.h ****   }
  55:SynaptiX_FDK/lib/tinyusb/src/common/tusb_types.h **** 
  56:SynaptiX_FDK/lib/tinyusb/src/common/tusb_types.h **** //------------- Host DCache declaration -------------//
  57:SynaptiX_FDK/lib/tinyusb/src/common/tusb_types.h **** #define TUH_EPBUF_DCACHE_SIZE(_size) (CFG_TUH_MEM_DCACHE_ENABLE ? \
  58:SynaptiX_FDK/lib/tinyusb/src/common/tusb_types.h ****   (TU_DIV_CEIL(_size, CFG_TUH_MEM_DCACHE_LINE_SIZE) * CFG_TUH_MEM_DCACHE_LINE_SIZE) : (_size))
  59:SynaptiX_FDK/lib/tinyusb/src/common/tusb_types.h **** 
  60:SynaptiX_FDK/lib/tinyusb/src/common/tusb_types.h **** // Declare an endpoint buffer with uint8_t[size]
  61:SynaptiX_FDK/lib/tinyusb/src/common/tusb_types.h **** #define TUH_EPBUF_DEF(_name, _size) \
  62:SynaptiX_FDK/lib/tinyusb/src/common/tusb_types.h ****   union { \
  63:SynaptiX_FDK/lib/tinyusb/src/common/tusb_types.h ****     CFG_TUH_MEM_ALIGN uint8_t _name[_size]; \
  64:SynaptiX_FDK/lib/tinyusb/src/common/tusb_types.h ****     TU_ATTR_ALIGNED(CFG_TUH_MEM_DCACHE_ENABLE ? CFG_TUH_MEM_DCACHE_LINE_SIZE : 1) uint8_t _name##_d
  65:SynaptiX_FDK/lib/tinyusb/src/common/tusb_types.h ****   }
  66:SynaptiX_FDK/lib/tinyusb/src/common/tusb_types.h **** 
  67:SynaptiX_FDK/lib/tinyusb/src/common/tusb_types.h **** // Declare an endpoint buffer with a type
  68:SynaptiX_FDK/lib/tinyusb/src/common/tusb_types.h **** #define TUH_EPBUF_TYPE_DEF(_type, _name) \
  69:SynaptiX_FDK/lib/tinyusb/src/common/tusb_types.h ****   union { \
  70:SynaptiX_FDK/lib/tinyusb/src/common/tusb_types.h ****     CFG_TUH_MEM_ALIGN _type _name; \
  71:SynaptiX_FDK/lib/tinyusb/src/common/tusb_types.h ****     TU_ATTR_ALIGNED(CFG_TUH_MEM_DCACHE_ENABLE ? CFG_TUH_MEM_DCACHE_LINE_SIZE : 1) uint8_t _name##_d
  72:SynaptiX_FDK/lib/tinyusb/src/common/tusb_types.h ****   }
  73:SynaptiX_FDK/lib/tinyusb/src/common/tusb_types.h **** 
  74:SynaptiX_FDK/lib/tinyusb/src/common/tusb_types.h **** 
  75:SynaptiX_FDK/lib/tinyusb/src/common/tusb_types.h **** /*------------------------------------------------------------------*/
  76:SynaptiX_FDK/lib/tinyusb/src/common/tusb_types.h **** /* CONSTANTS
  77:SynaptiX_FDK/lib/tinyusb/src/common/tusb_types.h ****  *------------------------------------------------------------------*/
  78:SynaptiX_FDK/lib/tinyusb/src/common/tusb_types.h **** 
  79:SynaptiX_FDK/lib/tinyusb/src/common/tusb_types.h **** typedef enum {
  80:SynaptiX_FDK/lib/tinyusb/src/common/tusb_types.h ****   TUSB_ROLE_INVALID = 0u,
  81:SynaptiX_FDK/lib/tinyusb/src/common/tusb_types.h ****   TUSB_ROLE_DEVICE  = 0x1,
  82:SynaptiX_FDK/lib/tinyusb/src/common/tusb_types.h ****   TUSB_ROLE_HOST    = 0x2,
  83:SynaptiX_FDK/lib/tinyusb/src/common/tusb_types.h **** } tusb_role_t;
  84:SynaptiX_FDK/lib/tinyusb/src/common/tusb_types.h **** 
  85:SynaptiX_FDK/lib/tinyusb/src/common/tusb_types.h **** /// defined base on EHCI specs value for Endpoint Speed
ARM GAS  C:\Users\DELL\AppData\Local\Temp\ccSfED1Y.s 			page 61


  86:SynaptiX_FDK/lib/tinyusb/src/common/tusb_types.h **** typedef enum {
  87:SynaptiX_FDK/lib/tinyusb/src/common/tusb_types.h ****   TUSB_SPEED_FULL = 0,
  88:SynaptiX_FDK/lib/tinyusb/src/common/tusb_types.h ****   TUSB_SPEED_LOW  = 1,
  89:SynaptiX_FDK/lib/tinyusb/src/common/tusb_types.h ****   TUSB_SPEED_HIGH = 2,
  90:SynaptiX_FDK/lib/tinyusb/src/common/tusb_types.h ****   TUSB_SPEED_AUTO = 0xaa,
  91:SynaptiX_FDK/lib/tinyusb/src/common/tusb_types.h ****   TUSB_SPEED_INVALID = 0xff,
  92:SynaptiX_FDK/lib/tinyusb/src/common/tusb_types.h **** } tusb_speed_t;
  93:SynaptiX_FDK/lib/tinyusb/src/common/tusb_types.h **** 
  94:SynaptiX_FDK/lib/tinyusb/src/common/tusb_types.h **** /// defined base on USB Specs Endpoint's bmAttributes
  95:SynaptiX_FDK/lib/tinyusb/src/common/tusb_types.h **** typedef enum {
  96:SynaptiX_FDK/lib/tinyusb/src/common/tusb_types.h ****   TUSB_XFER_CONTROL     = 0,
  97:SynaptiX_FDK/lib/tinyusb/src/common/tusb_types.h ****   TUSB_XFER_ISOCHRONOUS = 1,
  98:SynaptiX_FDK/lib/tinyusb/src/common/tusb_types.h ****   TUSB_XFER_BULK        = 2,
  99:SynaptiX_FDK/lib/tinyusb/src/common/tusb_types.h ****   TUSB_XFER_INTERRUPT   = 3
 100:SynaptiX_FDK/lib/tinyusb/src/common/tusb_types.h **** } tusb_xfer_type_t;
 101:SynaptiX_FDK/lib/tinyusb/src/common/tusb_types.h **** 
 102:SynaptiX_FDK/lib/tinyusb/src/common/tusb_types.h **** typedef enum {
 103:SynaptiX_FDK/lib/tinyusb/src/common/tusb_types.h ****   TUSB_DIR_OUT = 0,
 104:SynaptiX_FDK/lib/tinyusb/src/common/tusb_types.h ****   TUSB_DIR_IN  = 1,
 105:SynaptiX_FDK/lib/tinyusb/src/common/tusb_types.h **** 
 106:SynaptiX_FDK/lib/tinyusb/src/common/tusb_types.h ****   TUSB_EPNUM_MASK = 0x0F,
 107:SynaptiX_FDK/lib/tinyusb/src/common/tusb_types.h ****   TUSB_DIR_IN_MASK = 0x80
 108:SynaptiX_FDK/lib/tinyusb/src/common/tusb_types.h **** } tusb_dir_t;
 109:SynaptiX_FDK/lib/tinyusb/src/common/tusb_types.h **** 
 110:SynaptiX_FDK/lib/tinyusb/src/common/tusb_types.h **** enum {
 111:SynaptiX_FDK/lib/tinyusb/src/common/tusb_types.h ****   TUSB_EPSIZE_BULK_FS = 64,
 112:SynaptiX_FDK/lib/tinyusb/src/common/tusb_types.h ****   TUSB_EPSIZE_BULK_HS = 512,
 113:SynaptiX_FDK/lib/tinyusb/src/common/tusb_types.h **** 
 114:SynaptiX_FDK/lib/tinyusb/src/common/tusb_types.h ****   TUSB_EPSIZE_ISO_FS_MAX = 1023,
 115:SynaptiX_FDK/lib/tinyusb/src/common/tusb_types.h ****   TUSB_EPSIZE_ISO_HS_MAX = 1024,
 116:SynaptiX_FDK/lib/tinyusb/src/common/tusb_types.h **** };
 117:SynaptiX_FDK/lib/tinyusb/src/common/tusb_types.h **** 
 118:SynaptiX_FDK/lib/tinyusb/src/common/tusb_types.h **** // Endpoint Bulk size depending on host/device max speed
 119:SynaptiX_FDK/lib/tinyusb/src/common/tusb_types.h **** #define TUD_EPSIZE_BULK_MAX   (TUD_OPT_HIGH_SPEED ? 512 : 64)
 120:SynaptiX_FDK/lib/tinyusb/src/common/tusb_types.h **** #define TUH_EPSIZE_BULK_MAX   (TUH_OPT_HIGH_SPEED ? 512 : 64)
 121:SynaptiX_FDK/lib/tinyusb/src/common/tusb_types.h **** 
 122:SynaptiX_FDK/lib/tinyusb/src/common/tusb_types.h **** /// Isochronous Endpoint Attributes
 123:SynaptiX_FDK/lib/tinyusb/src/common/tusb_types.h **** typedef enum {
 124:SynaptiX_FDK/lib/tinyusb/src/common/tusb_types.h ****   TUSB_ISO_EP_ATT_NO_SYNC         = 0x00,
 125:SynaptiX_FDK/lib/tinyusb/src/common/tusb_types.h ****   TUSB_ISO_EP_ATT_ASYNCHRONOUS    = 0x04,
 126:SynaptiX_FDK/lib/tinyusb/src/common/tusb_types.h ****   TUSB_ISO_EP_ATT_ADAPTIVE        = 0x08,
 127:SynaptiX_FDK/lib/tinyusb/src/common/tusb_types.h ****   TUSB_ISO_EP_ATT_SYNCHRONOUS     = 0x0C,
 128:SynaptiX_FDK/lib/tinyusb/src/common/tusb_types.h ****   TUSB_ISO_EP_ATT_DATA            = 0x00, ///< Data End Point
 129:SynaptiX_FDK/lib/tinyusb/src/common/tusb_types.h ****   TUSB_ISO_EP_ATT_EXPLICIT_FB     = 0x10, ///< Feedback End Point
 130:SynaptiX_FDK/lib/tinyusb/src/common/tusb_types.h ****   TUSB_ISO_EP_ATT_IMPLICIT_FB     = 0x20, ///< Data endpoint that also serves as an implicit feedba
 131:SynaptiX_FDK/lib/tinyusb/src/common/tusb_types.h **** } tusb_iso_ep_attribute_t;
 132:SynaptiX_FDK/lib/tinyusb/src/common/tusb_types.h **** 
 133:SynaptiX_FDK/lib/tinyusb/src/common/tusb_types.h **** /// USB Descriptor Types
 134:SynaptiX_FDK/lib/tinyusb/src/common/tusb_types.h **** typedef enum {
 135:SynaptiX_FDK/lib/tinyusb/src/common/tusb_types.h ****   TUSB_DESC_DEVICE                = 0x01,
 136:SynaptiX_FDK/lib/tinyusb/src/common/tusb_types.h ****   TUSB_DESC_CONFIGURATION         = 0x02,
 137:SynaptiX_FDK/lib/tinyusb/src/common/tusb_types.h ****   TUSB_DESC_STRING                = 0x03,
 138:SynaptiX_FDK/lib/tinyusb/src/common/tusb_types.h ****   TUSB_DESC_INTERFACE             = 0x04,
 139:SynaptiX_FDK/lib/tinyusb/src/common/tusb_types.h ****   TUSB_DESC_ENDPOINT              = 0x05,
 140:SynaptiX_FDK/lib/tinyusb/src/common/tusb_types.h ****   TUSB_DESC_DEVICE_QUALIFIER      = 0x06,
 141:SynaptiX_FDK/lib/tinyusb/src/common/tusb_types.h ****   TUSB_DESC_OTHER_SPEED_CONFIG    = 0x07,
 142:SynaptiX_FDK/lib/tinyusb/src/common/tusb_types.h ****   TUSB_DESC_INTERFACE_POWER       = 0x08,
ARM GAS  C:\Users\DELL\AppData\Local\Temp\ccSfED1Y.s 			page 62


 143:SynaptiX_FDK/lib/tinyusb/src/common/tusb_types.h ****   TUSB_DESC_OTG                   = 0x09,
 144:SynaptiX_FDK/lib/tinyusb/src/common/tusb_types.h ****   TUSB_DESC_DEBUG                 = 0x0A,
 145:SynaptiX_FDK/lib/tinyusb/src/common/tusb_types.h ****   TUSB_DESC_INTERFACE_ASSOCIATION = 0x0B,
 146:SynaptiX_FDK/lib/tinyusb/src/common/tusb_types.h **** 
 147:SynaptiX_FDK/lib/tinyusb/src/common/tusb_types.h ****   TUSB_DESC_BOS                   = 0x0F,
 148:SynaptiX_FDK/lib/tinyusb/src/common/tusb_types.h ****   TUSB_DESC_DEVICE_CAPABILITY     = 0x10,
 149:SynaptiX_FDK/lib/tinyusb/src/common/tusb_types.h **** 
 150:SynaptiX_FDK/lib/tinyusb/src/common/tusb_types.h ****   TUSB_DESC_FUNCTIONAL            = 0x21,
 151:SynaptiX_FDK/lib/tinyusb/src/common/tusb_types.h **** 
 152:SynaptiX_FDK/lib/tinyusb/src/common/tusb_types.h ****   // Class Specific Descriptor
 153:SynaptiX_FDK/lib/tinyusb/src/common/tusb_types.h ****   TUSB_DESC_CS_DEVICE             = 0x21,
 154:SynaptiX_FDK/lib/tinyusb/src/common/tusb_types.h ****   TUSB_DESC_CS_CONFIGURATION      = 0x22,
 155:SynaptiX_FDK/lib/tinyusb/src/common/tusb_types.h ****   TUSB_DESC_CS_STRING             = 0x23,
 156:SynaptiX_FDK/lib/tinyusb/src/common/tusb_types.h ****   TUSB_DESC_CS_INTERFACE          = 0x24,
 157:SynaptiX_FDK/lib/tinyusb/src/common/tusb_types.h ****   TUSB_DESC_CS_ENDPOINT           = 0x25,
 158:SynaptiX_FDK/lib/tinyusb/src/common/tusb_types.h **** 
 159:SynaptiX_FDK/lib/tinyusb/src/common/tusb_types.h ****   TUSB_DESC_SUPERSPEED_ENDPOINT_COMPANION     = 0x30,
 160:SynaptiX_FDK/lib/tinyusb/src/common/tusb_types.h ****   TUSB_DESC_SUPERSPEED_ISO_ENDPOINT_COMPANION = 0x31
 161:SynaptiX_FDK/lib/tinyusb/src/common/tusb_types.h **** } tusb_desc_type_t;
 162:SynaptiX_FDK/lib/tinyusb/src/common/tusb_types.h **** 
 163:SynaptiX_FDK/lib/tinyusb/src/common/tusb_types.h **** typedef enum {
 164:SynaptiX_FDK/lib/tinyusb/src/common/tusb_types.h ****   TUSB_REQ_GET_STATUS        = 0  ,
 165:SynaptiX_FDK/lib/tinyusb/src/common/tusb_types.h ****   TUSB_REQ_CLEAR_FEATURE     = 1  ,
 166:SynaptiX_FDK/lib/tinyusb/src/common/tusb_types.h ****   TUSB_REQ_RESERVED          = 2  ,
 167:SynaptiX_FDK/lib/tinyusb/src/common/tusb_types.h ****   TUSB_REQ_SET_FEATURE       = 3  ,
 168:SynaptiX_FDK/lib/tinyusb/src/common/tusb_types.h ****   TUSB_REQ_RESERVED2         = 4  ,
 169:SynaptiX_FDK/lib/tinyusb/src/common/tusb_types.h ****   TUSB_REQ_SET_ADDRESS       = 5  ,
 170:SynaptiX_FDK/lib/tinyusb/src/common/tusb_types.h ****   TUSB_REQ_GET_DESCRIPTOR    = 6  ,
 171:SynaptiX_FDK/lib/tinyusb/src/common/tusb_types.h ****   TUSB_REQ_SET_DESCRIPTOR    = 7  ,
 172:SynaptiX_FDK/lib/tinyusb/src/common/tusb_types.h ****   TUSB_REQ_GET_CONFIGURATION = 8  ,
 173:SynaptiX_FDK/lib/tinyusb/src/common/tusb_types.h ****   TUSB_REQ_SET_CONFIGURATION = 9  ,
 174:SynaptiX_FDK/lib/tinyusb/src/common/tusb_types.h ****   TUSB_REQ_GET_INTERFACE     = 10 ,
 175:SynaptiX_FDK/lib/tinyusb/src/common/tusb_types.h ****   TUSB_REQ_SET_INTERFACE     = 11 ,
 176:SynaptiX_FDK/lib/tinyusb/src/common/tusb_types.h ****   TUSB_REQ_SYNCH_FRAME       = 12
 177:SynaptiX_FDK/lib/tinyusb/src/common/tusb_types.h **** } tusb_request_code_t;
 178:SynaptiX_FDK/lib/tinyusb/src/common/tusb_types.h **** 
 179:SynaptiX_FDK/lib/tinyusb/src/common/tusb_types.h **** typedef enum {
 180:SynaptiX_FDK/lib/tinyusb/src/common/tusb_types.h ****   TUSB_REQ_FEATURE_EDPT_HALT     = 0,
 181:SynaptiX_FDK/lib/tinyusb/src/common/tusb_types.h ****   TUSB_REQ_FEATURE_REMOTE_WAKEUP = 1,
 182:SynaptiX_FDK/lib/tinyusb/src/common/tusb_types.h ****   TUSB_REQ_FEATURE_TEST_MODE     = 2
 183:SynaptiX_FDK/lib/tinyusb/src/common/tusb_types.h **** } tusb_request_feature_selector_t;
 184:SynaptiX_FDK/lib/tinyusb/src/common/tusb_types.h **** 
 185:SynaptiX_FDK/lib/tinyusb/src/common/tusb_types.h **** typedef enum {
 186:SynaptiX_FDK/lib/tinyusb/src/common/tusb_types.h ****   TUSB_REQ_TYPE_STANDARD = 0u,
 187:SynaptiX_FDK/lib/tinyusb/src/common/tusb_types.h ****   TUSB_REQ_TYPE_CLASS,
 188:SynaptiX_FDK/lib/tinyusb/src/common/tusb_types.h ****   TUSB_REQ_TYPE_VENDOR,
 189:SynaptiX_FDK/lib/tinyusb/src/common/tusb_types.h ****   TUSB_REQ_TYPE_INVALID
 190:SynaptiX_FDK/lib/tinyusb/src/common/tusb_types.h **** } tusb_request_type_t;
 191:SynaptiX_FDK/lib/tinyusb/src/common/tusb_types.h **** 
 192:SynaptiX_FDK/lib/tinyusb/src/common/tusb_types.h **** typedef enum {
 193:SynaptiX_FDK/lib/tinyusb/src/common/tusb_types.h ****   TUSB_REQ_RCPT_DEVICE =0,
 194:SynaptiX_FDK/lib/tinyusb/src/common/tusb_types.h ****   TUSB_REQ_RCPT_INTERFACE,
 195:SynaptiX_FDK/lib/tinyusb/src/common/tusb_types.h ****   TUSB_REQ_RCPT_ENDPOINT,
 196:SynaptiX_FDK/lib/tinyusb/src/common/tusb_types.h ****   TUSB_REQ_RCPT_OTHER
 197:SynaptiX_FDK/lib/tinyusb/src/common/tusb_types.h **** } tusb_request_recipient_t;
 198:SynaptiX_FDK/lib/tinyusb/src/common/tusb_types.h **** 
 199:SynaptiX_FDK/lib/tinyusb/src/common/tusb_types.h **** // https://www.usb.org/defined-class-codes
ARM GAS  C:\Users\DELL\AppData\Local\Temp\ccSfED1Y.s 			page 63


 200:SynaptiX_FDK/lib/tinyusb/src/common/tusb_types.h **** typedef enum {
 201:SynaptiX_FDK/lib/tinyusb/src/common/tusb_types.h ****   TUSB_CLASS_UNSPECIFIED          = 0    ,
 202:SynaptiX_FDK/lib/tinyusb/src/common/tusb_types.h ****   TUSB_CLASS_AUDIO                = 1    ,
 203:SynaptiX_FDK/lib/tinyusb/src/common/tusb_types.h ****   TUSB_CLASS_CDC                  = 2    ,
 204:SynaptiX_FDK/lib/tinyusb/src/common/tusb_types.h ****   TUSB_CLASS_HID                  = 3    ,
 205:SynaptiX_FDK/lib/tinyusb/src/common/tusb_types.h ****   TUSB_CLASS_RESERVED_4           = 4    ,
 206:SynaptiX_FDK/lib/tinyusb/src/common/tusb_types.h ****   TUSB_CLASS_PHYSICAL             = 5    ,
 207:SynaptiX_FDK/lib/tinyusb/src/common/tusb_types.h ****   TUSB_CLASS_IMAGE                = 6    ,
 208:SynaptiX_FDK/lib/tinyusb/src/common/tusb_types.h ****   TUSB_CLASS_PRINTER              = 7    ,
 209:SynaptiX_FDK/lib/tinyusb/src/common/tusb_types.h ****   TUSB_CLASS_MSC                  = 8    ,
 210:SynaptiX_FDK/lib/tinyusb/src/common/tusb_types.h ****   TUSB_CLASS_HUB                  = 9    ,
 211:SynaptiX_FDK/lib/tinyusb/src/common/tusb_types.h ****   TUSB_CLASS_CDC_DATA             = 10   ,
 212:SynaptiX_FDK/lib/tinyusb/src/common/tusb_types.h ****   TUSB_CLASS_SMART_CARD           = 11   ,
 213:SynaptiX_FDK/lib/tinyusb/src/common/tusb_types.h ****   TUSB_CLASS_RESERVED_12          = 12   ,
 214:SynaptiX_FDK/lib/tinyusb/src/common/tusb_types.h ****   TUSB_CLASS_CONTENT_SECURITY     = 13   ,
 215:SynaptiX_FDK/lib/tinyusb/src/common/tusb_types.h ****   TUSB_CLASS_VIDEO                = 14   ,
 216:SynaptiX_FDK/lib/tinyusb/src/common/tusb_types.h ****   TUSB_CLASS_PERSONAL_HEALTHCARE  = 15   ,
 217:SynaptiX_FDK/lib/tinyusb/src/common/tusb_types.h ****   TUSB_CLASS_AUDIO_VIDEO          = 16   ,
 218:SynaptiX_FDK/lib/tinyusb/src/common/tusb_types.h **** 
 219:SynaptiX_FDK/lib/tinyusb/src/common/tusb_types.h ****   TUSB_CLASS_DIAGNOSTIC           = 0xDC ,
 220:SynaptiX_FDK/lib/tinyusb/src/common/tusb_types.h ****   TUSB_CLASS_WIRELESS_CONTROLLER  = 0xE0 ,
 221:SynaptiX_FDK/lib/tinyusb/src/common/tusb_types.h ****   TUSB_CLASS_MISC                 = 0xEF ,
 222:SynaptiX_FDK/lib/tinyusb/src/common/tusb_types.h ****   TUSB_CLASS_APPLICATION_SPECIFIC = 0xFE ,
 223:SynaptiX_FDK/lib/tinyusb/src/common/tusb_types.h ****   TUSB_CLASS_VENDOR_SPECIFIC      = 0xFF
 224:SynaptiX_FDK/lib/tinyusb/src/common/tusb_types.h **** } tusb_class_code_t;
 225:SynaptiX_FDK/lib/tinyusb/src/common/tusb_types.h **** 
 226:SynaptiX_FDK/lib/tinyusb/src/common/tusb_types.h **** typedef enum
 227:SynaptiX_FDK/lib/tinyusb/src/common/tusb_types.h **** {
 228:SynaptiX_FDK/lib/tinyusb/src/common/tusb_types.h ****   MISC_SUBCLASS_COMMON = 2
