ARM GAS  C:\Users\DELL\AppData\Local\Temp\ccgExmFy.s 			page 1


   1              		.cpu cortex-m33
   2              		.arch armv8-m.main
   3              		.fpu fpv5-sp-d16
   4              		.arch_extension dsp
   5              		.eabi_attribute 27, 1
   6              		.eabi_attribute 28, 1
   7              		.eabi_attribute 20, 1
   8              		.eabi_attribute 21, 1
   9              		.eabi_attribute 23, 3
  10              		.eabi_attribute 24, 1
  11              		.eabi_attribute 25, 1
  12              		.eabi_attribute 26, 1
  13              		.eabi_attribute 30, 1
  14              		.eabi_attribute 34, 1
  15              		.eabi_attribute 18, 4
  16              		.file	"cdc_device.c"
  17              		.text
  18              	.Ltext0:
  19              		.cfi_sections	.debug_frame
  20              		.file 1 "SynaptiX_FDK/lib/tinyusb/src/class/cdc/cdc_device.c"
  21              		.section	.text.sx_gettick,"ax",%progbits
  22              		.align	1
  23              		.global	sx_gettick
  24              		.syntax unified
  25              		.thumb
  26              		.thumb_func
  28              	sx_gettick:
  29              	.LFB336:
  30              		.file 2 "SynaptiX_FDK/board/sx_board.h"
   1:SynaptiX_FDK/board/sx_board.h **** #ifndef SX_BOARD_H
   2:SynaptiX_FDK/board/sx_board.h **** #define SX_BOARD_H
   3:SynaptiX_FDK/board/sx_board.h **** 
   4:SynaptiX_FDK/board/sx_board.h **** #ifdef __cplusplus
   5:SynaptiX_FDK/board/sx_board.h **** extern "C" {
   6:SynaptiX_FDK/board/sx_board.h **** #endif
   7:SynaptiX_FDK/board/sx_board.h **** 
   8:SynaptiX_FDK/board/sx_board.h **** #include <stdint.h>
   9:SynaptiX_FDK/board/sx_board.h **** #include "main.h"
  10:SynaptiX_FDK/board/sx_board.h **** #include "usart.h"
  11:SynaptiX_FDK/board/sx_board.h **** #include "gpio.h"
  12:SynaptiX_FDK/board/sx_board.h **** #include "app_config.h"
  13:SynaptiX_FDK/board/sx_board.h **** #include "sx_spi.h"
  14:SynaptiX_FDK/board/sx_board.h **** #include "sx_gpio.h"
  15:SynaptiX_FDK/board/sx_board.h **** #include "sx_uart.h"
  16:SynaptiX_FDK/board/sx_board.h **** #include "gps.h"
  17:SynaptiX_FDK/board/sx_board.h **** #include "a7677s.h"
  18:SynaptiX_FDK/board/sx_board.h **** #include "modem_ops.h"
  19:SynaptiX_FDK/board/sx_board.h **** #include "sx_delay.h"
  20:SynaptiX_FDK/board/sx_board.h **** #include "sx_W25Q128.h"
  21:SynaptiX_FDK/board/sx_board.h **** #include "sx_ex_storage.h"
  22:SynaptiX_FDK/board/sx_board.h **** #include "sx_usb_tiny_cdc.h"
  23:SynaptiX_FDK/board/sx_board.h **** // #include "adc.h"
  24:SynaptiX_FDK/board/sx_board.h **** #include "spi.h"
  25:SynaptiX_FDK/board/sx_board.h **** #include "i2c.h"
  26:SynaptiX_FDK/board/sx_board.h **** #include "sx_ex_rtc.h"
  27:SynaptiX_FDK/board/sx_board.h **** #include "bno055.h"
  28:SynaptiX_FDK/board/sx_board.h **** #include "sx_filter.h"
ARM GAS  C:\Users\DELL\AppData\Local\Temp\ccgExmFy.s 			page 2


  29:SynaptiX_FDK/board/sx_board.h **** #include "sx_read_bat.h"
  30:SynaptiX_FDK/board/sx_board.h **** #include "sensirion_uart_hal.h"
  31:SynaptiX_FDK/board/sx_board.h **** #include "sht3x.h"
  32:SynaptiX_FDK/board/sx_board.h **** #include "ze12a.h"
  33:SynaptiX_FDK/board/sx_board.h **** #include "ads1115.h"
  34:SynaptiX_FDK/board/sx_board.h **** 
  35:SynaptiX_FDK/board/sx_board.h **** typedef struct {
  36:SynaptiX_FDK/board/sx_board.h ****     volatile uint32_t raw_adc;
  37:SynaptiX_FDK/board/sx_board.h ****     volatile float v_adc;
  38:SynaptiX_FDK/board/sx_board.h ****     volatile float v_bat;
  39:SynaptiX_FDK/board/sx_board.h **** }voltage_t;
  40:SynaptiX_FDK/board/sx_board.h **** 
  41:SynaptiX_FDK/board/sx_board.h **** typedef struct Board{
  42:SynaptiX_FDK/board/sx_board.h ****     /* Concrete driver instance + the modem_ops_t handle service/app layers
  43:SynaptiX_FDK/board/sx_board.h ****      * actually use (sx_mqtt.c, sx_user_mqtt.c, sx_sleep_manager.c — see
  44:SynaptiX_FDK/board/sx_board.h ****      * modem_ops.h). Swapping to a different modem module later means
  45:SynaptiX_FDK/board/sx_board.h ****      * replacing a7677s below with the new driver's type and pointing
  46:SynaptiX_FDK/board/sx_board.h ****      * modem.ops/modem.ctx at it — nothing outside this file changes. */
  47:SynaptiX_FDK/board/sx_board.h ****     a7677s_t        a7677s;
  48:SynaptiX_FDK/board/sx_board.h ****     modem_handle_t  modem;
  49:SynaptiX_FDK/board/sx_board.h ****     sx_gps_t gps;
  50:SynaptiX_FDK/board/sx_board.h ****     sx_uart_t log_uart;
  51:SynaptiX_FDK/board/sx_board.h ****     #if USE_READ_PIN
  52:SynaptiX_FDK/board/sx_board.h ****     voltage_t voltage;
  53:SynaptiX_FDK/board/sx_board.h ****     #endif
  54:SynaptiX_FDK/board/sx_board.h ****     sx_usb_tiny_t usb;
  55:SynaptiX_FDK/board/sx_board.h ****     sx_W25Q128_t  q128;
  56:SynaptiX_FDK/board/sx_board.h ****     sx_usb_tiny_config_t usb_cfg;
  57:SynaptiX_FDK/board/sx_board.h ****     sx_storage_cfg_t    storage_cfg;
  58:SynaptiX_FDK/board/sx_board.h ****     sx_i2c_t            i2c1;
  59:SynaptiX_FDK/board/sx_board.h ****     rx8130ce_t          rtc;
  60:SynaptiX_FDK/board/sx_board.h ****     sx_i2c_t    rtc_i2c;
  61:SynaptiX_FDK/board/sx_board.h ****     bno055_t    imu;
  62:SynaptiX_FDK/board/sx_board.h ****     #if USE_READ_PIN
  63:SynaptiX_FDK/board/sx_board.h ****     sx_adc_reader_t s_adc_reader;
  64:SynaptiX_FDK/board/sx_board.h ****     #endif
  65:SynaptiX_FDK/board/sx_board.h ****     /* SPS30 (UART_DUST): the Sensirion HAL layer (sensirion_uart_hal.c)
  66:SynaptiX_FDK/board/sx_board.h ****      * only needs a UartDescr = sx_uart_t* to talk over, so a concrete
  67:SynaptiX_FDK/board/sx_board.h ****      * sx_uart_t instance is owned here and its address passed to
  68:SynaptiX_FDK/board/sx_board.h ****      * sensirion_uart_hal_init(). See sensirion_uart_portdescriptor.h. */
  69:SynaptiX_FDK/board/sx_board.h ****     sx_uart_t   sps30_uart;
  70:SynaptiX_FDK/board/sx_board.h ****     SHT3X_T     sht3x;
  71:SynaptiX_FDK/board/sx_board.h ****     /* ZE12A (gas_sensor / UART_EXTEND): its UART instance and mux-select
  72:SynaptiX_FDK/board/sx_board.h ****      * GPIOs are owned as private statics inside ze12a.c (s_comm,
  73:SynaptiX_FDK/board/sx_board.h ****      * s_mux_s0, s_mux_s1) — gas_sensor_init() takes the raw config/pin
  74:SynaptiX_FDK/board/sx_board.h ****      * descriptors below and wires them up internally, so no field is
  75:SynaptiX_FDK/board/sx_board.h ****      * needed here. */
  76:SynaptiX_FDK/board/sx_board.h ****     /* ADS1115 (shared I2C1, no dedicated GPIO — no ALERT/RDY pin wired
  77:SynaptiX_FDK/board/sx_board.h ****      * per this board's .ioc, so this driver only ever polls the OS bit,
  78:SynaptiX_FDK/board/sx_board.h ****      * never uses the comparator/alert function).
  79:SynaptiX_FDK/board/sx_board.h ****      *
  80:SynaptiX_FDK/board/sx_board.h ****      * AIN1 = adc_current (current-sense input, via INA180A1 U2, gain
  81:SynaptiX_FDK/board/sx_board.h ****      *   20V/V per TI's Device Comparison table — SOT23-5, pinout A).
  82:SynaptiX_FDK/board/sx_board.h ****      *   IN+/IN- sense the voltage drop across shunt resistor R16 (in
  83:SynaptiX_FDK/board/sx_board.h ****      *   series on the +12V rail, before the rest of the board); OUT
  84:SynaptiX_FDK/board/sx_board.h ****      *   feeds AIN1 through R9 (0R per schematic — a series link/isolation
  85:SynaptiX_FDK/board/sx_board.h ****      *   resistor, not the shunt itself).
ARM GAS  C:\Users\DELL\AppData\Local\Temp\ccgExmFy.s 			page 3


  86:SynaptiX_FDK/board/sx_board.h ****      *   *** OPEN QUESTION, UNRESOLVED as of this commit — do not assume
  87:SynaptiX_FDK/board/sx_board.h ****      *   an answer: R16's actual resistance value has not been confirmed.
  88:SynaptiX_FDK/board/sx_board.h ****      *   User initially said "0 ohm" for this discussion, but Vout = Gain
  89:SynaptiX_FDK/board/sx_board.h ****      *   x I x R_shunt means R_shunt=0 would force AIN1's reading to 0V
  90:SynaptiX_FDK/board/sx_board.h ****      *   for any current — i.e. the current-sense channel would never
  91:SynaptiX_FDK/board/sx_board.h ****      *   read anything. This is very likely a mix-up with R9 (which
  92:SynaptiX_FDK/board/sx_board.h ****      *   legitimately is 0R on the schematic, but sits on the output
  93:SynaptiX_FDK/board/sx_board.h ****      *   side, not the shunt). User said they'd confirm this in a future
  94:SynaptiX_FDK/board/sx_board.h ****      *   conversation. Until R16's real value is confirmed:
  95:SynaptiX_FDK/board/sx_board.h ****      *     - PGA left at ADS1115_PGA_TWO as a placeholder only, matching
  96:SynaptiX_FDK/board/sx_board.h ****      *       AIN2 for now — NOT derived from any confirmed R16 value.
  97:SynaptiX_FDK/board/sx_board.h ****      *     - Treat every AIN1/adc_current reading as unverified — do not
  98:SynaptiX_FDK/board/sx_board.h ****      *       trust it for any real current measurement or safety logic
  99:SynaptiX_FDK/board/sx_board.h ****      *       (e.g. overcurrent cutoff) until this is resolved.
 100:SynaptiX_FDK/board/sx_board.h ****      *
 101:SynaptiX_FDK/board/sx_board.h ****      * AIN2 = adc_vol (voltage-sense input, 12V rail through a resistor
 102:SynaptiX_FDK/board/sx_board.h ****      *   divider: R14=100K top / R15=20K bottom per schematic, confirmed
 103:SynaptiX_FDK/board/sx_board.h ****      *   with user — the divider node feeds AIN2 directly).
 104:SynaptiX_FDK/board/sx_board.h ****      *   Vout = Vin * 20k/(100k+20k) = Vin/6 -> 2.0V at 12V nominal,
 105:SynaptiX_FDK/board/sx_board.h ****      *   2.5V at a 15V worst-case rail — comfortably under both this
 106:SynaptiX_FDK/board/sx_board.h ****      *   board's VDD (3.3V) and the ADS1115's absolute maximum analog
 107:SynaptiX_FDK/board/sx_board.h ****      *   input rating of VDD+0.3V=3.6V (Documents/ads1115.pdf, Absolute
 108:SynaptiX_FDK/board/sx_board.h ****      *   Maximum Ratings table). ADS1115_PGA_TWO (FSR +-2.048V) matches
 109:SynaptiX_FDK/board/sx_board.h ****      *   this range well. */
 110:SynaptiX_FDK/board/sx_board.h ****     ADS1115_T   ads1115;
 111:SynaptiX_FDK/board/sx_board.h **** }Board_t;
 112:SynaptiX_FDK/board/sx_board.h **** 
 113:SynaptiX_FDK/board/sx_board.h **** typedef enum{
 114:SynaptiX_FDK/board/sx_board.h ****     UART_LTE = 0,
 115:SynaptiX_FDK/board/sx_board.h ****     UART_GPS,
 116:SynaptiX_FDK/board/sx_board.h ****     UART_RS485,
 117:SynaptiX_FDK/board/sx_board.h ****     UART_DUST,
 118:SynaptiX_FDK/board/sx_board.h ****     UART_EXTEND, // gas sensor ZE12A
 119:SynaptiX_FDK/board/sx_board.h ****     UART_LOG
 120:SynaptiX_FDK/board/sx_board.h **** }BSP_NUM_UART;
 121:SynaptiX_FDK/board/sx_board.h **** 
 122:SynaptiX_FDK/board/sx_board.h **** #define NUM_UART                6
 123:SynaptiX_FDK/board/sx_board.h **** 
 124:SynaptiX_FDK/board/sx_board.h **** /*  MODE USB    */
 125:SynaptiX_FDK/board/sx_board.h **** #define BOARD_USE_CDC           1
 126:SynaptiX_FDK/board/sx_board.h **** #define BOARD_USE_MSC           1
 127:SynaptiX_FDK/board/sx_board.h **** 
 128:SynaptiX_FDK/board/sx_board.h **** /*  LTE GPIO    */   
 129:SynaptiX_FDK/board/sx_board.h **** #define LTE_PWRKEY_Port         GPIOD
 130:SynaptiX_FDK/board/sx_board.h **** #define LTE_PWRKEY_Pin          GPIO_PIN_12
 131:SynaptiX_FDK/board/sx_board.h **** #define LTE_RESET_Port          GPIOD
 132:SynaptiX_FDK/board/sx_board.h **** #define LTE_RESET_Pin           GPIO_PIN_11
 133:SynaptiX_FDK/board/sx_board.h **** 
 134:SynaptiX_FDK/board/sx_board.h **** /*  GPS GPIO    */
 135:SynaptiX_FDK/board/sx_board.h **** #define GPS_PPS_Port            GPIOC
 136:SynaptiX_FDK/board/sx_board.h **** #define GPS_PPS_Pin             GPIO_PIN_11
 137:SynaptiX_FDK/board/sx_board.h **** #define GPS_CPW_Port            GPIOC
 138:SynaptiX_FDK/board/sx_board.h **** #define GPS_CPW_Pin             GPIO_PIN_12
 139:SynaptiX_FDK/board/sx_board.h **** #define GPS_RST_Port            GPIOC
 140:SynaptiX_FDK/board/sx_board.h **** #define GPS_RST_Pin             GPIO_PIN_13
 141:SynaptiX_FDK/board/sx_board.h **** 
 142:SynaptiX_FDK/board/sx_board.h **** /*  I2C PIN    */
ARM GAS  C:\Users\DELL\AppData\Local\Temp\ccgExmFy.s 			page 4


 143:SynaptiX_FDK/board/sx_board.h **** #define I2C1_RESET_Port         GPIOB
 144:SynaptiX_FDK/board/sx_board.h **** #define I2C1_RESET_Pin          GPIO_PIN_8
 145:SynaptiX_FDK/board/sx_board.h **** 
 146:SynaptiX_FDK/board/sx_board.h **** /*  SPI */
 147:SynaptiX_FDK/board/sx_board.h **** #define SPI_CS_Port             GPIOC
 148:SynaptiX_FDK/board/sx_board.h **** #define SPI_CS_Pin              GPIO_PIN_12
 149:SynaptiX_FDK/board/sx_board.h **** 
 150:SynaptiX_FDK/board/sx_board.h **** /*  RS485 DE    */
 151:SynaptiX_FDK/board/sx_board.h **** #define RS485_RDE_Port          GPIOB
 152:SynaptiX_FDK/board/sx_board.h **** #define RS485_RDE_Pin           GPIO_PIN_2
 153:SynaptiX_FDK/board/sx_board.h **** 
 154:SynaptiX_FDK/board/sx_board.h **** /*  SPS30 power enable (EN_PW_DUST, per schematic)
 155:SynaptiX_FDK/board/sx_board.h ****  *  Active-HIGH: MCU drives this HIGH -> opto OP3's internal LED conducts
 156:SynaptiX_FDK/board/sx_board.h ****  *  (12V side) -> its output phototransistor turns on -> forms a divider
 157:SynaptiX_FDK/board/sx_board.h ****  *  with R11/R19 that pulls G1 of the AO4828 N-channel MOSFET high enough
 158:SynaptiX_FDK/board/sx_board.h ****  *  (VG > VS) -> MOSFET conducts D1(+5V) -> S1 -> feeds +5V to the SPS30
 159:SynaptiX_FDK/board/sx_board.h ****  *  (connector SENSOR pin 4) through D4/C20/C25 filtering. MCU LOW (also
 160:SynaptiX_FDK/board/sx_board.h ****  *  the default/idle state) -> opto off -> R19 pulls G1 back down -> MOSFET
 161:SynaptiX_FDK/board/sx_board.h ****  *  off -> SPS30 unpowered. Confirmed against the schematic, not assumed. */
 162:SynaptiX_FDK/board/sx_board.h **** #define EN_PW_DUST_Port         GPIOA
 163:SynaptiX_FDK/board/sx_board.h **** #define EN_PW_DUST_Pin          GPIO_PIN_9
 164:SynaptiX_FDK/board/sx_board.h **** 
 165:SynaptiX_FDK/board/sx_board.h **** /*  ZE12A mux select (TMUX4052 A0/A1) — see ze12a.c for the channel
 166:SynaptiX_FDK/board/sx_board.h ****  *  truth table (A1=0,A0=0 -> SR1; 0,1 -> SR2; 1,0 -> SR3; 1,1 -> unused).
 167:SynaptiX_FDK/board/sx_board.h ****  *  Pin assignment per CubeMX-generated Core/Inc/main.h. */
 168:SynaptiX_FDK/board/sx_board.h **** #define UART5_S0_Port           GPIOA
 169:SynaptiX_FDK/board/sx_board.h **** #define UART5_S0_Pin            GPIO_PIN_7
 170:SynaptiX_FDK/board/sx_board.h **** #define UART5_S1_Port           GPIOC
 171:SynaptiX_FDK/board/sx_board.h **** #define UART5_S1_Pin            GPIO_PIN_4
 172:SynaptiX_FDK/board/sx_board.h **** 
 173:SynaptiX_FDK/board/sx_board.h **** /* USB */
 174:SynaptiX_FDK/board/sx_board.h **** void dcd_fs_msp_init(uint8_t rhport);
 175:SynaptiX_FDK/board/sx_board.h **** void USB_DRD_FS_IRQHandler(void);
 176:SynaptiX_FDK/board/sx_board.h **** 
 177:SynaptiX_FDK/board/sx_board.h **** /* Board */
 178:SynaptiX_FDK/board/sx_board.h **** void sx_board_init(void);
 179:SynaptiX_FDK/board/sx_board.h **** void read_vol_pin(uint32_t time_stamp);
 180:SynaptiX_FDK/board/sx_board.h **** void gps_it_handle(void);
 181:SynaptiX_FDK/board/sx_board.h **** void sim_it_handle(void);
 182:SynaptiX_FDK/board/sx_board.h **** void board_gps_uart_resume_it(void);
 183:SynaptiX_FDK/board/sx_board.h **** void board_sim_uart_resume_it(void);
 184:SynaptiX_FDK/board/sx_board.h **** 
 185:SynaptiX_FDK/board/sx_board.h **** inline void sx_delay(uint32_t time_delay_ms){HAL_Delay(time_delay_ms);}
 186:SynaptiX_FDK/board/sx_board.h **** inline uint32_t sx_gettick(void){return HAL_GetTick();}
  31              		.loc 2 186 33 view -0
  32              		.cfi_startproc
  33              		@ args = 0, pretend = 0, frame = 0
  34              		@ frame_needed = 0, uses_anonymous_args = 0
  35 0000 08B5     		push	{r3, lr}
  36              	.LCFI0:
  37              		.cfi_def_cfa_offset 8
  38              		.cfi_offset 3, -8
  39              		.cfi_offset 14, -4
  40              		.loc 2 186 34 view .LVU1
  41              		.loc 2 186 41 is_stmt 0 view .LVU2
  42 0002 FFF7FEFF 		bl	HAL_GetTick
  43              	.LVL0:
ARM GAS  C:\Users\DELL\AppData\Local\Temp\ccgExmFy.s 			page 5


  44              		.loc 2 186 55 view .LVU3
  45 0006 08BD     		pop	{r3, pc}
  46              		.cfi_endproc
  47              	.LFE336:
  49              		.section	.text.tud_cdc_rx_cb,"ax",%progbits
  50              		.align	1
  51              		.weak	tud_cdc_rx_cb
  52              		.syntax unified
  53              		.thumb
  54              		.thumb_func
  56              	tud_cdc_rx_cb:
  57              	.LVL1:
  58              	.LFB445:
   1:SynaptiX_FDK/lib/tinyusb/src/class/cdc/cdc_device.c **** /*
   2:SynaptiX_FDK/lib/tinyusb/src/class/cdc/cdc_device.c ****  * The MIT License (MIT)
   3:SynaptiX_FDK/lib/tinyusb/src/class/cdc/cdc_device.c ****  *
   4:SynaptiX_FDK/lib/tinyusb/src/class/cdc/cdc_device.c ****  * Copyright (c) 2019 Ha Thach (tinyusb.org)
   5:SynaptiX_FDK/lib/tinyusb/src/class/cdc/cdc_device.c ****  *
   6:SynaptiX_FDK/lib/tinyusb/src/class/cdc/cdc_device.c ****  * Permission is hereby granted, free of charge, to any person obtaining a copy
   7:SynaptiX_FDK/lib/tinyusb/src/class/cdc/cdc_device.c ****  * of this software and associated documentation files (the "Software"), to deal
   8:SynaptiX_FDK/lib/tinyusb/src/class/cdc/cdc_device.c ****  * in the Software without restriction, including without limitation the rights
   9:SynaptiX_FDK/lib/tinyusb/src/class/cdc/cdc_device.c ****  * to use, copy, modify, merge, publish, distribute, sublicense, and/or sell
  10:SynaptiX_FDK/lib/tinyusb/src/class/cdc/cdc_device.c ****  * copies of the Software, and to permit persons to whom the Software is
  11:SynaptiX_FDK/lib/tinyusb/src/class/cdc/cdc_device.c ****  * furnished to do so, subject to the following conditions:
  12:SynaptiX_FDK/lib/tinyusb/src/class/cdc/cdc_device.c ****  *
  13:SynaptiX_FDK/lib/tinyusb/src/class/cdc/cdc_device.c ****  * The above copyright notice and this permission notice shall be included in
  14:SynaptiX_FDK/lib/tinyusb/src/class/cdc/cdc_device.c ****  * all copies or substantial portions of the Software.
  15:SynaptiX_FDK/lib/tinyusb/src/class/cdc/cdc_device.c ****  *
  16:SynaptiX_FDK/lib/tinyusb/src/class/cdc/cdc_device.c ****  * THE SOFTWARE IS PROVIDED "AS IS", WITHOUT WARRANTY OF ANY KIND, EXPRESS OR
  17:SynaptiX_FDK/lib/tinyusb/src/class/cdc/cdc_device.c ****  * IMPLIED, INCLUDING BUT NOT LIMITED TO THE WARRANTIES OF MERCHANTABILITY,
  18:SynaptiX_FDK/lib/tinyusb/src/class/cdc/cdc_device.c ****  * FITNESS FOR A PARTICULAR PURPOSE AND NONINFRINGEMENT. IN NO EVENT SHALL THE
  19:SynaptiX_FDK/lib/tinyusb/src/class/cdc/cdc_device.c ****  * AUTHORS OR COPYRIGHT HOLDERS BE LIABLE FOR ANY CLAIM, DAMAGES OR OTHER
  20:SynaptiX_FDK/lib/tinyusb/src/class/cdc/cdc_device.c ****  * LIABILITY, WHETHER IN AN ACTION OF CONTRACT, TORT OR OTHERWISE, ARISING FROM,
  21:SynaptiX_FDK/lib/tinyusb/src/class/cdc/cdc_device.c ****  * OUT OF OR IN CONNECTION WITH THE SOFTWARE OR THE USE OR OTHER DEALINGS IN
  22:SynaptiX_FDK/lib/tinyusb/src/class/cdc/cdc_device.c ****  * THE SOFTWARE.
  23:SynaptiX_FDK/lib/tinyusb/src/class/cdc/cdc_device.c ****  *
  24:SynaptiX_FDK/lib/tinyusb/src/class/cdc/cdc_device.c ****  * This file is part of the TinyUSB stack.
  25:SynaptiX_FDK/lib/tinyusb/src/class/cdc/cdc_device.c ****  */
  26:SynaptiX_FDK/lib/tinyusb/src/class/cdc/cdc_device.c **** 
  27:SynaptiX_FDK/lib/tinyusb/src/class/cdc/cdc_device.c **** #include "tusb_option.h"
  28:SynaptiX_FDK/lib/tinyusb/src/class/cdc/cdc_device.c **** 
  29:SynaptiX_FDK/lib/tinyusb/src/class/cdc/cdc_device.c **** #if (CFG_TUD_ENABLED && CFG_TUD_CDC)
  30:SynaptiX_FDK/lib/tinyusb/src/class/cdc/cdc_device.c **** 
  31:SynaptiX_FDK/lib/tinyusb/src/class/cdc/cdc_device.c **** #include "device/usbd.h"
  32:SynaptiX_FDK/lib/tinyusb/src/class/cdc/cdc_device.c **** #include "device/usbd_pvt.h"
  33:SynaptiX_FDK/lib/tinyusb/src/class/cdc/cdc_device.c **** 
  34:SynaptiX_FDK/lib/tinyusb/src/class/cdc/cdc_device.c **** #include "cdc_device.h"
  35:SynaptiX_FDK/lib/tinyusb/src/class/cdc/cdc_device.c **** 
  36:SynaptiX_FDK/lib/tinyusb/src/class/cdc/cdc_device.c **** // Level where CFG_TUSB_DEBUG must be at least for this driver is logged
  37:SynaptiX_FDK/lib/tinyusb/src/class/cdc/cdc_device.c **** #ifndef CFG_TUD_CDC_LOG_LEVEL
  38:SynaptiX_FDK/lib/tinyusb/src/class/cdc/cdc_device.c ****   #define CFG_TUD_CDC_LOG_LEVEL   CFG_TUD_LOG_LEVEL
  39:SynaptiX_FDK/lib/tinyusb/src/class/cdc/cdc_device.c **** #endif
  40:SynaptiX_FDK/lib/tinyusb/src/class/cdc/cdc_device.c **** 
  41:SynaptiX_FDK/lib/tinyusb/src/class/cdc/cdc_device.c **** #define TU_LOG_DRV(...)   TU_LOG(CFG_TUD_CDC_LOG_LEVEL, __VA_ARGS__)
  42:SynaptiX_FDK/lib/tinyusb/src/class/cdc/cdc_device.c **** 
  43:SynaptiX_FDK/lib/tinyusb/src/class/cdc/cdc_device.c **** //--------------------------------------------------------------------+
  44:SynaptiX_FDK/lib/tinyusb/src/class/cdc/cdc_device.c **** // MACRO CONSTANT TYPEDEF
ARM GAS  C:\Users\DELL\AppData\Local\Temp\ccgExmFy.s 			page 6


  45:SynaptiX_FDK/lib/tinyusb/src/class/cdc/cdc_device.c **** //--------------------------------------------------------------------+
  46:SynaptiX_FDK/lib/tinyusb/src/class/cdc/cdc_device.c **** typedef struct {
  47:SynaptiX_FDK/lib/tinyusb/src/class/cdc/cdc_device.c ****   uint8_t rhport;
  48:SynaptiX_FDK/lib/tinyusb/src/class/cdc/cdc_device.c ****   uint8_t itf_num;
  49:SynaptiX_FDK/lib/tinyusb/src/class/cdc/cdc_device.c ****   uint8_t ep_notify;
  50:SynaptiX_FDK/lib/tinyusb/src/class/cdc/cdc_device.c ****   uint8_t line_state; // Bit 0: DTR, Bit 1: RTS
  51:SynaptiX_FDK/lib/tinyusb/src/class/cdc/cdc_device.c **** 
  52:SynaptiX_FDK/lib/tinyusb/src/class/cdc/cdc_device.c ****   /*------------- From this point, data is not cleared by bus reset -------------*/
  53:SynaptiX_FDK/lib/tinyusb/src/class/cdc/cdc_device.c ****   TU_ATTR_ALIGNED(4) cdc_line_coding_t line_coding;
  54:SynaptiX_FDK/lib/tinyusb/src/class/cdc/cdc_device.c ****   char wanted_char;
  55:SynaptiX_FDK/lib/tinyusb/src/class/cdc/cdc_device.c **** 
  56:SynaptiX_FDK/lib/tinyusb/src/class/cdc/cdc_device.c ****   tu_edpt_stream_t tx_stream;
  57:SynaptiX_FDK/lib/tinyusb/src/class/cdc/cdc_device.c ****   tu_edpt_stream_t rx_stream;
  58:SynaptiX_FDK/lib/tinyusb/src/class/cdc/cdc_device.c **** 
  59:SynaptiX_FDK/lib/tinyusb/src/class/cdc/cdc_device.c ****   uint8_t tx_ff_buf[CFG_TUD_CDC_TX_BUFSIZE];
  60:SynaptiX_FDK/lib/tinyusb/src/class/cdc/cdc_device.c ****   uint8_t rx_ff_buf[CFG_TUD_CDC_RX_BUFSIZE];
  61:SynaptiX_FDK/lib/tinyusb/src/class/cdc/cdc_device.c **** } cdcd_interface_t;
  62:SynaptiX_FDK/lib/tinyusb/src/class/cdc/cdc_device.c **** 
  63:SynaptiX_FDK/lib/tinyusb/src/class/cdc/cdc_device.c **** #define ITF_MEM_RESET_SIZE offsetof(cdcd_interface_t, line_coding)
  64:SynaptiX_FDK/lib/tinyusb/src/class/cdc/cdc_device.c **** 
  65:SynaptiX_FDK/lib/tinyusb/src/class/cdc/cdc_device.c **** // Skip local EP buffer if dedicated hw FIFO is supported
  66:SynaptiX_FDK/lib/tinyusb/src/class/cdc/cdc_device.c **** #if CFG_TUD_EDPT_DEDICATED_HWFIFO == 0
  67:SynaptiX_FDK/lib/tinyusb/src/class/cdc/cdc_device.c **** typedef struct {
  68:SynaptiX_FDK/lib/tinyusb/src/class/cdc/cdc_device.c ****   TUD_EPBUF_DEF(epout, CFG_TUD_CDC_RX_EPSIZE);
  69:SynaptiX_FDK/lib/tinyusb/src/class/cdc/cdc_device.c ****   TUD_EPBUF_DEF(epin, CFG_TUD_CDC_TX_EPSIZE);
  70:SynaptiX_FDK/lib/tinyusb/src/class/cdc/cdc_device.c **** 
  71:SynaptiX_FDK/lib/tinyusb/src/class/cdc/cdc_device.c ****   #if CFG_TUD_CDC_NOTIFY
  72:SynaptiX_FDK/lib/tinyusb/src/class/cdc/cdc_device.c ****   TUD_EPBUF_TYPE_DEF(cdc_notify_msg_t, epnotify);
  73:SynaptiX_FDK/lib/tinyusb/src/class/cdc/cdc_device.c ****   #endif
  74:SynaptiX_FDK/lib/tinyusb/src/class/cdc/cdc_device.c **** } cdcd_epbuf_t;
  75:SynaptiX_FDK/lib/tinyusb/src/class/cdc/cdc_device.c **** 
  76:SynaptiX_FDK/lib/tinyusb/src/class/cdc/cdc_device.c **** CFG_TUD_MEM_SECTION static cdcd_epbuf_t _cdcd_epbuf[CFG_TUD_CDC];
  77:SynaptiX_FDK/lib/tinyusb/src/class/cdc/cdc_device.c **** #endif
  78:SynaptiX_FDK/lib/tinyusb/src/class/cdc/cdc_device.c **** 
  79:SynaptiX_FDK/lib/tinyusb/src/class/cdc/cdc_device.c **** //--------------------------------------------------------------------+
  80:SynaptiX_FDK/lib/tinyusb/src/class/cdc/cdc_device.c **** // Weak stubs: invoked if no strong implementation is available
  81:SynaptiX_FDK/lib/tinyusb/src/class/cdc/cdc_device.c **** //--------------------------------------------------------------------+
  82:SynaptiX_FDK/lib/tinyusb/src/class/cdc/cdc_device.c **** TU_ATTR_WEAK void tud_cdc_rx_cb(uint8_t itf) {
  59              		.loc 1 82 46 is_stmt 1 view -0
  60              		.cfi_startproc
  61              		@ args = 0, pretend = 0, frame = 0
  62              		@ frame_needed = 0, uses_anonymous_args = 0
  63              		@ link register save eliminated.
  83:SynaptiX_FDK/lib/tinyusb/src/class/cdc/cdc_device.c ****   (void)itf;
  64              		.loc 1 83 3 view .LVU5
  84:SynaptiX_FDK/lib/tinyusb/src/class/cdc/cdc_device.c **** }
  65              		.loc 1 84 1 is_stmt 0 view .LVU6
  66 0000 7047     		bx	lr
  67              		.cfi_endproc
  68              	.LFE445:
  70              		.section	.text.tud_cdc_rx_wanted_cb,"ax",%progbits
  71              		.align	1
  72              		.weak	tud_cdc_rx_wanted_cb
  73              		.syntax unified
  74              		.thumb
  75              		.thumb_func
  77              	tud_cdc_rx_wanted_cb:
ARM GAS  C:\Users\DELL\AppData\Local\Temp\ccgExmFy.s 			page 7


  78              	.LVL2:
  79              	.LFB446:
  85:SynaptiX_FDK/lib/tinyusb/src/class/cdc/cdc_device.c **** 
  86:SynaptiX_FDK/lib/tinyusb/src/class/cdc/cdc_device.c **** TU_ATTR_WEAK void tud_cdc_rx_wanted_cb(uint8_t itf, char wanted_char) {
  80              		.loc 1 86 71 is_stmt 1 view -0
  81              		.cfi_startproc
  82              		@ args = 0, pretend = 0, frame = 0
  83              		@ frame_needed = 0, uses_anonymous_args = 0
  84              		@ link register save eliminated.
  87:SynaptiX_FDK/lib/tinyusb/src/class/cdc/cdc_device.c ****   (void)itf;
  85              		.loc 1 87 3 view .LVU8
  88:SynaptiX_FDK/lib/tinyusb/src/class/cdc/cdc_device.c ****   (void)wanted_char;
  86              		.loc 1 88 3 view .LVU9
  89:SynaptiX_FDK/lib/tinyusb/src/class/cdc/cdc_device.c **** }
  87              		.loc 1 89 1 is_stmt 0 view .LVU10
  88 0000 7047     		bx	lr
  89              		.cfi_endproc
  90              	.LFE446:
  92              		.section	.text.tud_cdc_tx_complete_cb,"ax",%progbits
  93              		.align	1
  94              		.weak	tud_cdc_tx_complete_cb
  95              		.syntax unified
  96              		.thumb
  97              		.thumb_func
  99              	tud_cdc_tx_complete_cb:
 100              	.LVL3:
 101              	.LFB447:
  90:SynaptiX_FDK/lib/tinyusb/src/class/cdc/cdc_device.c **** 
  91:SynaptiX_FDK/lib/tinyusb/src/class/cdc/cdc_device.c **** TU_ATTR_WEAK void tud_cdc_tx_complete_cb(uint8_t itf) {
 102              		.loc 1 91 55 is_stmt 1 view -0
 103              		.cfi_startproc
 104              		@ args = 0, pretend = 0, frame = 0
 105              		@ frame_needed = 0, uses_anonymous_args = 0
 106              		@ link register save eliminated.
  92:SynaptiX_FDK/lib/tinyusb/src/class/cdc/cdc_device.c ****   (void)itf;
 107              		.loc 1 92 3 view .LVU12
  93:SynaptiX_FDK/lib/tinyusb/src/class/cdc/cdc_device.c **** }
 108              		.loc 1 93 1 is_stmt 0 view .LVU13
 109 0000 7047     		bx	lr
 110              		.cfi_endproc
 111              	.LFE447:
 113              		.section	.text.tud_cdc_notify_complete_cb,"ax",%progbits
 114              		.align	1
 115              		.weak	tud_cdc_notify_complete_cb
 116              		.syntax unified
 117              		.thumb
 118              		.thumb_func
 120              	tud_cdc_notify_complete_cb:
 121              	.LVL4:
 122              	.LFB448:
  94:SynaptiX_FDK/lib/tinyusb/src/class/cdc/cdc_device.c **** 
  95:SynaptiX_FDK/lib/tinyusb/src/class/cdc/cdc_device.c **** TU_ATTR_WEAK void tud_cdc_notify_complete_cb(uint8_t itf) {
 123              		.loc 1 95 59 is_stmt 1 view -0
 124              		.cfi_startproc
 125              		@ args = 0, pretend = 0, frame = 0
 126              		@ frame_needed = 0, uses_anonymous_args = 0
 127              		@ link register save eliminated.
ARM GAS  C:\Users\DELL\AppData\Local\Temp\ccgExmFy.s 			page 8


  96:SynaptiX_FDK/lib/tinyusb/src/class/cdc/cdc_device.c ****   (void)itf;
 128              		.loc 1 96 3 view .LVU15
  97:SynaptiX_FDK/lib/tinyusb/src/class/cdc/cdc_device.c **** }
 129              		.loc 1 97 1 is_stmt 0 view .LVU16
 130 0000 7047     		bx	lr
 131              		.cfi_endproc
 132              	.LFE448:
 134              		.section	.text.tud_cdc_line_state_cb,"ax",%progbits
 135              		.align	1
 136              		.weak	tud_cdc_line_state_cb
 137              		.syntax unified
 138              		.thumb
 139              		.thumb_func
 141              	tud_cdc_line_state_cb:
 142              	.LVL5:
 143              	.LFB449:
  98:SynaptiX_FDK/lib/tinyusb/src/class/cdc/cdc_device.c **** 
  99:SynaptiX_FDK/lib/tinyusb/src/class/cdc/cdc_device.c **** TU_ATTR_WEAK void tud_cdc_line_state_cb(uint8_t itf, bool dtr, bool rts) {
 144              		.loc 1 99 74 is_stmt 1 view -0
 145              		.cfi_startproc
 146              		@ args = 0, pretend = 0, frame = 0
 147              		@ frame_needed = 0, uses_anonymous_args = 0
 148              		@ link register save eliminated.
 100:SynaptiX_FDK/lib/tinyusb/src/class/cdc/cdc_device.c ****   (void)itf;
 149              		.loc 1 100 3 view .LVU18
 101:SynaptiX_FDK/lib/tinyusb/src/class/cdc/cdc_device.c ****   (void)dtr;
 150              		.loc 1 101 3 view .LVU19
 102:SynaptiX_FDK/lib/tinyusb/src/class/cdc/cdc_device.c ****   (void)rts;
 151              		.loc 1 102 3 view .LVU20
 103:SynaptiX_FDK/lib/tinyusb/src/class/cdc/cdc_device.c **** }
 152              		.loc 1 103 1 is_stmt 0 view .LVU21
 153 0000 7047     		bx	lr
 154              		.cfi_endproc
 155              	.LFE449:
 157              		.section	.text.tud_cdc_line_coding_cb,"ax",%progbits
 158              		.align	1
 159              		.weak	tud_cdc_line_coding_cb
 160              		.syntax unified
 161              		.thumb
 162              		.thumb_func
 164              	tud_cdc_line_coding_cb:
 165              	.LVL6:
 166              	.LFB450:
 104:SynaptiX_FDK/lib/tinyusb/src/class/cdc/cdc_device.c **** 
 105:SynaptiX_FDK/lib/tinyusb/src/class/cdc/cdc_device.c **** TU_ATTR_WEAK void tud_cdc_line_coding_cb(uint8_t itf, const cdc_line_coding_t *p_line_coding) {
 167              		.loc 1 105 95 is_stmt 1 view -0
 168              		.cfi_startproc
 169              		@ args = 0, pretend = 0, frame = 0
 170              		@ frame_needed = 0, uses_anonymous_args = 0
 171              		@ link register save eliminated.
 106:SynaptiX_FDK/lib/tinyusb/src/class/cdc/cdc_device.c ****   (void)itf;
 172              		.loc 1 106 3 view .LVU23
 107:SynaptiX_FDK/lib/tinyusb/src/class/cdc/cdc_device.c ****   (void)p_line_coding;
 173              		.loc 1 107 3 view .LVU24
 108:SynaptiX_FDK/lib/tinyusb/src/class/cdc/cdc_device.c **** }
 174              		.loc 1 108 1 is_stmt 0 view .LVU25
 175 0000 7047     		bx	lr
ARM GAS  C:\Users\DELL\AppData\Local\Temp\ccgExmFy.s 			page 9


 176              		.cfi_endproc
 177              	.LFE450:
 179              		.section	.text.tud_cdc_send_break_cb,"ax",%progbits
 180              		.align	1
 181              		.weak	tud_cdc_send_break_cb
 182              		.syntax unified
 183              		.thumb
 184              		.thumb_func
 186              	tud_cdc_send_break_cb:
 187              	.LVL7:
 188              	.LFB451:
 109:SynaptiX_FDK/lib/tinyusb/src/class/cdc/cdc_device.c **** 
 110:SynaptiX_FDK/lib/tinyusb/src/class/cdc/cdc_device.c **** TU_ATTR_WEAK void tud_cdc_send_break_cb(uint8_t itf, uint16_t duration_ms) {
 189              		.loc 1 110 76 is_stmt 1 view -0
 190              		.cfi_startproc
 191              		@ args = 0, pretend = 0, frame = 0
 192              		@ frame_needed = 0, uses_anonymous_args = 0
 193              		@ link register save eliminated.
 111:SynaptiX_FDK/lib/tinyusb/src/class/cdc/cdc_device.c ****   (void)itf;
 194              		.loc 1 111 3 view .LVU27
 112:SynaptiX_FDK/lib/tinyusb/src/class/cdc/cdc_device.c ****   (void)duration_ms;
 195              		.loc 1 112 3 view .LVU28
 113:SynaptiX_FDK/lib/tinyusb/src/class/cdc/cdc_device.c **** }
 196              		.loc 1 113 1 is_stmt 0 view .LVU29
 197 0000 7047     		bx	lr
 198              		.cfi_endproc
 199              	.LFE451:
 201              		.section	.text.tud_cdc_n_ready,"ax",%progbits
 202              		.align	1
 203              		.global	tud_cdc_n_ready
 204              		.syntax unified
 205              		.thumb
 206              		.thumb_func
 208              	tud_cdc_n_ready:
 209              	.LVL8:
 210              	.LFB453:
 114:SynaptiX_FDK/lib/tinyusb/src/class/cdc/cdc_device.c **** 
 115:SynaptiX_FDK/lib/tinyusb/src/class/cdc/cdc_device.c **** //--------------------------------------------------------------------+
 116:SynaptiX_FDK/lib/tinyusb/src/class/cdc/cdc_device.c **** // INTERNAL OBJECT & FUNCTION DECLARATION
 117:SynaptiX_FDK/lib/tinyusb/src/class/cdc/cdc_device.c **** //--------------------------------------------------------------------+
 118:SynaptiX_FDK/lib/tinyusb/src/class/cdc/cdc_device.c **** static cdcd_interface_t _cdcd_itf[CFG_TUD_CDC];
 119:SynaptiX_FDK/lib/tinyusb/src/class/cdc/cdc_device.c **** 
 120:SynaptiX_FDK/lib/tinyusb/src/class/cdc/cdc_device.c **** TU_ATTR_ALWAYS_INLINE static inline uint8_t find_cdc_itf(uint8_t ep_addr) {
 121:SynaptiX_FDK/lib/tinyusb/src/class/cdc/cdc_device.c ****   for (uint8_t idx = 0; idx < CFG_TUD_CDC; idx++) {
 122:SynaptiX_FDK/lib/tinyusb/src/class/cdc/cdc_device.c ****     const cdcd_interface_t *p_cdc = &_cdcd_itf[idx];
 123:SynaptiX_FDK/lib/tinyusb/src/class/cdc/cdc_device.c ****     if (ep_addr == p_cdc->rx_stream.ep_addr || ep_addr == p_cdc->tx_stream.ep_addr ||
 124:SynaptiX_FDK/lib/tinyusb/src/class/cdc/cdc_device.c ****         (ep_addr == p_cdc->ep_notify && ep_addr != 0)) {
 125:SynaptiX_FDK/lib/tinyusb/src/class/cdc/cdc_device.c ****       return idx;
 126:SynaptiX_FDK/lib/tinyusb/src/class/cdc/cdc_device.c ****     }
 127:SynaptiX_FDK/lib/tinyusb/src/class/cdc/cdc_device.c ****   }
 128:SynaptiX_FDK/lib/tinyusb/src/class/cdc/cdc_device.c ****   return TUSB_INDEX_INVALID_8;
 129:SynaptiX_FDK/lib/tinyusb/src/class/cdc/cdc_device.c **** }
 130:SynaptiX_FDK/lib/tinyusb/src/class/cdc/cdc_device.c **** 
 131:SynaptiX_FDK/lib/tinyusb/src/class/cdc/cdc_device.c **** //--------------------------------------------------------------------+
 132:SynaptiX_FDK/lib/tinyusb/src/class/cdc/cdc_device.c **** // APPLICATION API
 133:SynaptiX_FDK/lib/tinyusb/src/class/cdc/cdc_device.c **** //--------------------------------------------------------------------+
 134:SynaptiX_FDK/lib/tinyusb/src/class/cdc/cdc_device.c **** bool tud_cdc_n_ready(uint8_t itf) {
ARM GAS  C:\Users\DELL\AppData\Local\Temp\ccgExmFy.s 			page 10


 211              		.loc 1 134 35 is_stmt 1 view -0
 212              		.cfi_startproc
 213              		@ args = 0, pretend = 0, frame = 0
 214              		@ frame_needed = 0, uses_anonymous_args = 0
 215              		.loc 1 134 35 is_stmt 0 view .LVU31
 216 0000 38B5     		push	{r3, r4, r5, lr}
 217              	.LCFI1:
 218              		.cfi_def_cfa_offset 16
 219              		.cfi_offset 3, -16
 220              		.cfi_offset 4, -12
 221              		.cfi_offset 5, -8
 222              		.cfi_offset 14, -4
 135:SynaptiX_FDK/lib/tinyusb/src/class/cdc/cdc_device.c ****   TU_VERIFY(itf < CFG_TUD_CDC);
 223              		.loc 1 135 3 is_stmt 1 view .LVU32
 224              		.loc 1 135 3 view .LVU33
 225 0002 10B1     		cbz	r0, .L18
 226              		.loc 1 135 3 is_stmt 0 discriminator 1 view .LVU34
 227 0004 0024     		movs	r4, #0
 228              	.LVL9:
 229              	.L11:
 136:SynaptiX_FDK/lib/tinyusb/src/class/cdc/cdc_device.c ****   TU_VERIFY(tud_ready());
 137:SynaptiX_FDK/lib/tinyusb/src/class/cdc/cdc_device.c ****   const cdcd_interface_t *p_cdc = &_cdcd_itf[itf];
 138:SynaptiX_FDK/lib/tinyusb/src/class/cdc/cdc_device.c **** 
 139:SynaptiX_FDK/lib/tinyusb/src/class/cdc/cdc_device.c ****   const bool in_opened  = tu_edpt_stream_is_opened(&p_cdc->tx_stream);
 140:SynaptiX_FDK/lib/tinyusb/src/class/cdc/cdc_device.c ****   const bool out_opened = tu_edpt_stream_is_opened(&p_cdc->rx_stream);
 141:SynaptiX_FDK/lib/tinyusb/src/class/cdc/cdc_device.c ****   return in_opened && out_opened;
 142:SynaptiX_FDK/lib/tinyusb/src/class/cdc/cdc_device.c **** }
 230              		.loc 1 142 1 view .LVU35
 231 0006 2046     		mov	r0, r4
 232 0008 38BD     		pop	{r3, r4, r5, pc}
 233              	.LVL10:
 234              	.L18:
 235              		.loc 1 142 1 view .LVU36
 236 000a 0546     		mov	r5, r0
 135:SynaptiX_FDK/lib/tinyusb/src/class/cdc/cdc_device.c ****   TU_VERIFY(itf < CFG_TUD_CDC);
 237              		.loc 1 135 3 is_stmt 1 view .LVU37
 136:SynaptiX_FDK/lib/tinyusb/src/class/cdc/cdc_device.c ****   TU_VERIFY(tud_ready());
 238              		.loc 1 136 3 view .LVU38
 136:SynaptiX_FDK/lib/tinyusb/src/class/cdc/cdc_device.c ****   TU_VERIFY(tud_ready());
 239              		.loc 1 136 3 view .LVU39
 240              	.LBB131:
 241              	.LBI131:
 242              		.file 3 "SynaptiX_FDK/lib/tinyusb/src/device/usbd.h"
   1:SynaptiX_FDK/lib/tinyusb/src/device/usbd.h **** /*
   2:SynaptiX_FDK/lib/tinyusb/src/device/usbd.h ****  * The MIT License (MIT)
   3:SynaptiX_FDK/lib/tinyusb/src/device/usbd.h ****  *
   4:SynaptiX_FDK/lib/tinyusb/src/device/usbd.h ****  * Copyright (c) 2019 Ha Thach (tinyusb.org)
   5:SynaptiX_FDK/lib/tinyusb/src/device/usbd.h ****  *
   6:SynaptiX_FDK/lib/tinyusb/src/device/usbd.h ****  * Permission is hereby granted, free of charge, to any person obtaining a copy
   7:SynaptiX_FDK/lib/tinyusb/src/device/usbd.h ****  * of this software and associated documentation files (the "Software"), to deal
   8:SynaptiX_FDK/lib/tinyusb/src/device/usbd.h ****  * in the Software without restriction, including without limitation the rights
   9:SynaptiX_FDK/lib/tinyusb/src/device/usbd.h ****  * to use, copy, modify, merge, publish, distribute, sublicense, and/or sell
  10:SynaptiX_FDK/lib/tinyusb/src/device/usbd.h ****  * copies of the Software, and to permit persons to whom the Software is
  11:SynaptiX_FDK/lib/tinyusb/src/device/usbd.h ****  * furnished to do so, subject to the following conditions:
  12:SynaptiX_FDK/lib/tinyusb/src/device/usbd.h ****  *
  13:SynaptiX_FDK/lib/tinyusb/src/device/usbd.h ****  * The above copyright notice and this permission notice shall be included in
  14:SynaptiX_FDK/lib/tinyusb/src/device/usbd.h ****  * all copies or substantial portions of the Software.
ARM GAS  C:\Users\DELL\AppData\Local\Temp\ccgExmFy.s 			page 11


  15:SynaptiX_FDK/lib/tinyusb/src/device/usbd.h ****  *
  16:SynaptiX_FDK/lib/tinyusb/src/device/usbd.h ****  * THE SOFTWARE IS PROVIDED "AS IS", WITHOUT WARRANTY OF ANY KIND, EXPRESS OR
  17:SynaptiX_FDK/lib/tinyusb/src/device/usbd.h ****  * IMPLIED, INCLUDING BUT NOT LIMITED TO THE WARRANTIES OF MERCHANTABILITY,
  18:SynaptiX_FDK/lib/tinyusb/src/device/usbd.h ****  * FITNESS FOR A PARTICULAR PURPOSE AND NONINFRINGEMENT. IN NO EVENT SHALL THE
  19:SynaptiX_FDK/lib/tinyusb/src/device/usbd.h ****  * AUTHORS OR COPYRIGHT HOLDERS BE LIABLE FOR ANY CLAIM, DAMAGES OR OTHER
  20:SynaptiX_FDK/lib/tinyusb/src/device/usbd.h ****  * LIABILITY, WHETHER IN AN ACTION OF CONTRACT, TORT OR OTHERWISE, ARISING FROM,
  21:SynaptiX_FDK/lib/tinyusb/src/device/usbd.h ****  * OUT OF OR IN CONNECTION WITH THE SOFTWARE OR THE USE OR OTHER DEALINGS IN
  22:SynaptiX_FDK/lib/tinyusb/src/device/usbd.h ****  * THE SOFTWARE.
  23:SynaptiX_FDK/lib/tinyusb/src/device/usbd.h ****  *
  24:SynaptiX_FDK/lib/tinyusb/src/device/usbd.h ****  * This file is part of the TinyUSB stack.
  25:SynaptiX_FDK/lib/tinyusb/src/device/usbd.h ****  */
  26:SynaptiX_FDK/lib/tinyusb/src/device/usbd.h **** 
  27:SynaptiX_FDK/lib/tinyusb/src/device/usbd.h **** #ifndef TUSB_USBD_H_
  28:SynaptiX_FDK/lib/tinyusb/src/device/usbd.h **** #define TUSB_USBD_H_
  29:SynaptiX_FDK/lib/tinyusb/src/device/usbd.h **** 
  30:SynaptiX_FDK/lib/tinyusb/src/device/usbd.h **** #include "common/tusb_common.h"
  31:SynaptiX_FDK/lib/tinyusb/src/device/usbd.h **** 
  32:SynaptiX_FDK/lib/tinyusb/src/device/usbd.h **** #ifdef __cplusplus
  33:SynaptiX_FDK/lib/tinyusb/src/device/usbd.h **** extern "C" {
  34:SynaptiX_FDK/lib/tinyusb/src/device/usbd.h **** #endif
  35:SynaptiX_FDK/lib/tinyusb/src/device/usbd.h **** 
  36:SynaptiX_FDK/lib/tinyusb/src/device/usbd.h **** // ConfigID for tud_configure()
  37:SynaptiX_FDK/lib/tinyusb/src/device/usbd.h **** enum {
  38:SynaptiX_FDK/lib/tinyusb/src/device/usbd.h ****   TUD_CFGID_INVALID = 0,
  39:SynaptiX_FDK/lib/tinyusb/src/device/usbd.h ****   TUD_CFGID_DWC2 = 100,
  40:SynaptiX_FDK/lib/tinyusb/src/device/usbd.h **** };
  41:SynaptiX_FDK/lib/tinyusb/src/device/usbd.h **** 
  42:SynaptiX_FDK/lib/tinyusb/src/device/usbd.h **** typedef struct {
  43:SynaptiX_FDK/lib/tinyusb/src/device/usbd.h ****   uint16_t bm_double_buffered; // bitmap of IN endpoints to be double buffered, only effective for 
  44:SynaptiX_FDK/lib/tinyusb/src/device/usbd.h ****   bool vbus_sensing; // Vbus pin is used for device connection detection, mandatory for tud_umount_
  45:SynaptiX_FDK/lib/tinyusb/src/device/usbd.h **** } tud_configure_dwc2_t;
  46:SynaptiX_FDK/lib/tinyusb/src/device/usbd.h **** 
  47:SynaptiX_FDK/lib/tinyusb/src/device/usbd.h ****   #ifndef CFG_TUD_CONFIGURE_DWC2_DEFAULT
  48:SynaptiX_FDK/lib/tinyusb/src/device/usbd.h ****     #define CFG_TUD_CONFIGURE_DWC2_DEFAULT {.bm_double_buffered = 0, .vbus_sensing = CFG_TUD_VBUS_D
  49:SynaptiX_FDK/lib/tinyusb/src/device/usbd.h ****   #endif
  50:SynaptiX_FDK/lib/tinyusb/src/device/usbd.h **** 
  51:SynaptiX_FDK/lib/tinyusb/src/device/usbd.h **** typedef union {
  52:SynaptiX_FDK/lib/tinyusb/src/device/usbd.h ****   tud_configure_dwc2_t dwc2;
  53:SynaptiX_FDK/lib/tinyusb/src/device/usbd.h **** } tud_configure_param_t;
  54:SynaptiX_FDK/lib/tinyusb/src/device/usbd.h **** 
  55:SynaptiX_FDK/lib/tinyusb/src/device/usbd.h **** //--------------------------------------------------------------------+
  56:SynaptiX_FDK/lib/tinyusb/src/device/usbd.h **** // Application API
  57:SynaptiX_FDK/lib/tinyusb/src/device/usbd.h **** //--------------------------------------------------------------------+
  58:SynaptiX_FDK/lib/tinyusb/src/device/usbd.h **** 
  59:SynaptiX_FDK/lib/tinyusb/src/device/usbd.h **** // Configure device stack behavior with dynamic or port-specific parameters.
  60:SynaptiX_FDK/lib/tinyusb/src/device/usbd.h **** // Should be called before initialization of the device stack
  61:SynaptiX_FDK/lib/tinyusb/src/device/usbd.h **** // - cfg_id   : configure ID from TUD_CFGID_* enum values
  62:SynaptiX_FDK/lib/tinyusb/src/device/usbd.h **** // - cfg_param: configure data, structure depends on the ID
  63:SynaptiX_FDK/lib/tinyusb/src/device/usbd.h **** bool tud_configure(uint8_t rhport, uint32_t cfg_id, const void* cfg_param);
  64:SynaptiX_FDK/lib/tinyusb/src/device/usbd.h **** 
  65:SynaptiX_FDK/lib/tinyusb/src/device/usbd.h **** // New API to replace tud_init() to init device stack on specific roothub port
  66:SynaptiX_FDK/lib/tinyusb/src/device/usbd.h **** // Must be called in the same task/context as tud_task() if RTOS is used
  67:SynaptiX_FDK/lib/tinyusb/src/device/usbd.h **** bool tud_rhport_init(uint8_t rhport, const tusb_rhport_init_t* rh_init);
  68:SynaptiX_FDK/lib/tinyusb/src/device/usbd.h **** 
  69:SynaptiX_FDK/lib/tinyusb/src/device/usbd.h **** // Init device stack on roothub port
  70:SynaptiX_FDK/lib/tinyusb/src/device/usbd.h **** #if TUSB_VERSION_NUMBER > 2000  // 0.20.0
  71:SynaptiX_FDK/lib/tinyusb/src/device/usbd.h **** TU_ATTR_DEPRECATED("Please use tusb_init(rhport, rh_init) instead")
ARM GAS  C:\Users\DELL\AppData\Local\Temp\ccgExmFy.s 			page 12


  72:SynaptiX_FDK/lib/tinyusb/src/device/usbd.h **** #endif
  73:SynaptiX_FDK/lib/tinyusb/src/device/usbd.h **** TU_ATTR_ALWAYS_INLINE static inline bool tud_init (uint8_t rhport) {
  74:SynaptiX_FDK/lib/tinyusb/src/device/usbd.h ****   const tusb_rhport_init_t rh_init = {
  75:SynaptiX_FDK/lib/tinyusb/src/device/usbd.h ****     .role = TUSB_ROLE_DEVICE,
  76:SynaptiX_FDK/lib/tinyusb/src/device/usbd.h ****     .speed = TUD_OPT_HIGH_SPEED ? TUSB_SPEED_HIGH : TUSB_SPEED_FULL
  77:SynaptiX_FDK/lib/tinyusb/src/device/usbd.h ****   };
  78:SynaptiX_FDK/lib/tinyusb/src/device/usbd.h ****   return tud_rhport_init(rhport, &rh_init);
  79:SynaptiX_FDK/lib/tinyusb/src/device/usbd.h **** }
  80:SynaptiX_FDK/lib/tinyusb/src/device/usbd.h **** 
  81:SynaptiX_FDK/lib/tinyusb/src/device/usbd.h **** // Deinit device stack on roothub port
  82:SynaptiX_FDK/lib/tinyusb/src/device/usbd.h **** // Must be called in the same task/context as tud_task() if RTOS is used
  83:SynaptiX_FDK/lib/tinyusb/src/device/usbd.h **** bool tud_deinit(uint8_t rhport);
  84:SynaptiX_FDK/lib/tinyusb/src/device/usbd.h **** 
  85:SynaptiX_FDK/lib/tinyusb/src/device/usbd.h **** // Check if device stack is already initialized
  86:SynaptiX_FDK/lib/tinyusb/src/device/usbd.h **** bool tud_inited(void);
  87:SynaptiX_FDK/lib/tinyusb/src/device/usbd.h **** 
  88:SynaptiX_FDK/lib/tinyusb/src/device/usbd.h **** // Task function should be called in main/rtos loop, extended version of tud_task()
  89:SynaptiX_FDK/lib/tinyusb/src/device/usbd.h **** // - timeout_ms: millisecond to wait, zero = no wait, 0xFFFFFFFF = wait forever
  90:SynaptiX_FDK/lib/tinyusb/src/device/usbd.h **** // - in_isr: if function is called in ISR
  91:SynaptiX_FDK/lib/tinyusb/src/device/usbd.h **** void tud_task_ext(uint32_t timeout_ms, bool in_isr);
  92:SynaptiX_FDK/lib/tinyusb/src/device/usbd.h **** 
  93:SynaptiX_FDK/lib/tinyusb/src/device/usbd.h **** // Task function should be called in main/rtos loop
  94:SynaptiX_FDK/lib/tinyusb/src/device/usbd.h **** TU_ATTR_ALWAYS_INLINE static inline
  95:SynaptiX_FDK/lib/tinyusb/src/device/usbd.h **** void tud_task (void) {
  96:SynaptiX_FDK/lib/tinyusb/src/device/usbd.h ****   tud_task_ext(UINT32_MAX, false);
  97:SynaptiX_FDK/lib/tinyusb/src/device/usbd.h **** }
  98:SynaptiX_FDK/lib/tinyusb/src/device/usbd.h **** 
  99:SynaptiX_FDK/lib/tinyusb/src/device/usbd.h **** // Check if there is pending events need processing by tud_task()
 100:SynaptiX_FDK/lib/tinyusb/src/device/usbd.h **** bool tud_task_event_ready(void);
 101:SynaptiX_FDK/lib/tinyusb/src/device/usbd.h **** 
 102:SynaptiX_FDK/lib/tinyusb/src/device/usbd.h **** #ifndef TUSB_DCD_H_
 103:SynaptiX_FDK/lib/tinyusb/src/device/usbd.h **** extern void dcd_int_handler(uint8_t rhport);
 104:SynaptiX_FDK/lib/tinyusb/src/device/usbd.h **** #endif
 105:SynaptiX_FDK/lib/tinyusb/src/device/usbd.h **** 
 106:SynaptiX_FDK/lib/tinyusb/src/device/usbd.h **** // Interrupt handler, name alias to DCD
 107:SynaptiX_FDK/lib/tinyusb/src/device/usbd.h **** #define tud_int_handler   dcd_int_handler
 108:SynaptiX_FDK/lib/tinyusb/src/device/usbd.h **** 
 109:SynaptiX_FDK/lib/tinyusb/src/device/usbd.h **** // Get current bus speed
 110:SynaptiX_FDK/lib/tinyusb/src/device/usbd.h **** tusb_speed_t tud_speed_get(void);
 111:SynaptiX_FDK/lib/tinyusb/src/device/usbd.h **** 
 112:SynaptiX_FDK/lib/tinyusb/src/device/usbd.h **** // Check if device is connected (may not mounted/configured yet)
 113:SynaptiX_FDK/lib/tinyusb/src/device/usbd.h **** // True if just got out of Bus Reset and received the very first data from host
 114:SynaptiX_FDK/lib/tinyusb/src/device/usbd.h **** bool tud_connected(void);
 115:SynaptiX_FDK/lib/tinyusb/src/device/usbd.h **** 
 116:SynaptiX_FDK/lib/tinyusb/src/device/usbd.h **** // Check if device is connected and configured
 117:SynaptiX_FDK/lib/tinyusb/src/device/usbd.h **** bool tud_mounted(void);
 118:SynaptiX_FDK/lib/tinyusb/src/device/usbd.h **** 
 119:SynaptiX_FDK/lib/tinyusb/src/device/usbd.h **** // Check if device is suspended
 120:SynaptiX_FDK/lib/tinyusb/src/device/usbd.h **** bool tud_suspended(void);
 121:SynaptiX_FDK/lib/tinyusb/src/device/usbd.h **** 
 122:SynaptiX_FDK/lib/tinyusb/src/device/usbd.h **** // Check if device is ready to transfer
 123:SynaptiX_FDK/lib/tinyusb/src/device/usbd.h **** TU_ATTR_ALWAYS_INLINE static inline
 124:SynaptiX_FDK/lib/tinyusb/src/device/usbd.h **** bool tud_ready(void) {
 243              		.loc 3 124 6 view .LVU40
 244              	.LBB132:
 125:SynaptiX_FDK/lib/tinyusb/src/device/usbd.h ****   const bool is_mounted = tud_mounted();
 245              		.loc 3 125 3 view .LVU41
ARM GAS  C:\Users\DELL\AppData\Local\Temp\ccgExmFy.s 			page 13


 246              		.loc 3 125 27 is_stmt 0 view .LVU42
 247 000c FFF7FEFF 		bl	tud_mounted
 248              	.LVL11:
 249              		.loc 3 125 27 view .LVU43
 250 0010 0446     		mov	r4, r0
 251              	.LVL12:
 126:SynaptiX_FDK/lib/tinyusb/src/device/usbd.h ****   const bool is_suspended = tud_suspended();
 252              		.loc 3 126 3 is_stmt 1 view .LVU44
 253              		.loc 3 126 29 is_stmt 0 view .LVU45
 254 0012 FFF7FEFF 		bl	tud_suspended
 255              	.LVL13:
 127:SynaptiX_FDK/lib/tinyusb/src/device/usbd.h ****   return is_mounted && !is_suspended;
 256              		.loc 3 127 3 is_stmt 1 view .LVU46
 257              		.loc 3 127 21 is_stmt 0 view .LVU47
 258 0016 002C     		cmp	r4, #0
 259 0018 F5D0     		beq	.L11
 260              		.loc 3 127 21 discriminator 1 view .LVU48
 261 001a 70B9     		cbnz	r0, .L14
 262              	.LVL14:
 263              		.loc 3 127 21 discriminator 1 view .LVU49
 264              	.LBE132:
 265              	.LBE131:
 136:SynaptiX_FDK/lib/tinyusb/src/class/cdc/cdc_device.c ****   const cdcd_interface_t *p_cdc = &_cdcd_itf[itf];
 266              		.loc 1 136 3 is_stmt 1 view .LVU50
 137:SynaptiX_FDK/lib/tinyusb/src/class/cdc/cdc_device.c **** 
 267              		.loc 1 137 3 view .LVU51
 139:SynaptiX_FDK/lib/tinyusb/src/class/cdc/cdc_device.c ****   const bool out_opened = tu_edpt_stream_is_opened(&p_cdc->rx_stream);
 268              		.loc 1 139 3 view .LVU52
 269              	.LBB133:
 270              	.LBI133:
 271              		.file 4 "SynaptiX_FDK/lib/tinyusb/src/common/tusb_private.h"
   1:SynaptiX_FDK/lib/tinyusb/src/common/tusb_private.h **** /*
   2:SynaptiX_FDK/lib/tinyusb/src/common/tusb_private.h ****  * The MIT License (MIT)
   3:SynaptiX_FDK/lib/tinyusb/src/common/tusb_private.h ****  *
   4:SynaptiX_FDK/lib/tinyusb/src/common/tusb_private.h ****  * Copyright (c) 2022, Ha Thach (tinyusb.org)
   5:SynaptiX_FDK/lib/tinyusb/src/common/tusb_private.h ****  *
   6:SynaptiX_FDK/lib/tinyusb/src/common/tusb_private.h ****  * Permission is hereby granted, free of charge, to any person obtaining a copy
   7:SynaptiX_FDK/lib/tinyusb/src/common/tusb_private.h ****  * of this software and associated documentation files (the "Software"), to deal
   8:SynaptiX_FDK/lib/tinyusb/src/common/tusb_private.h ****  * in the Software without restriction, including without limitation the rights
   9:SynaptiX_FDK/lib/tinyusb/src/common/tusb_private.h ****  * to use, copy, modify, merge, publish, distribute, sublicense, and/or sell
  10:SynaptiX_FDK/lib/tinyusb/src/common/tusb_private.h ****  * copies of the Software, and to permit persons to whom the Software is
  11:SynaptiX_FDK/lib/tinyusb/src/common/tusb_private.h ****  * furnished to do so, subject to the following conditions:
  12:SynaptiX_FDK/lib/tinyusb/src/common/tusb_private.h ****  *
  13:SynaptiX_FDK/lib/tinyusb/src/common/tusb_private.h ****  * The above copyright notice and this permission notice shall be included in
  14:SynaptiX_FDK/lib/tinyusb/src/common/tusb_private.h ****  * all copies or substantial portions of the Software.
  15:SynaptiX_FDK/lib/tinyusb/src/common/tusb_private.h ****  *
  16:SynaptiX_FDK/lib/tinyusb/src/common/tusb_private.h ****  * THE SOFTWARE IS PROVIDED "AS IS", WITHOUT WARRANTY OF ANY KIND, EXPRESS OR
  17:SynaptiX_FDK/lib/tinyusb/src/common/tusb_private.h ****  * IMPLIED, INCLUDING BUT NOT LIMITED TO THE WARRANTIES OF MERCHANTABILITY,
  18:SynaptiX_FDK/lib/tinyusb/src/common/tusb_private.h ****  * FITNESS FOR A PARTICULAR PURPOSE AND NONINFRINGEMENT. IN NO EVENT SHALL THE
  19:SynaptiX_FDK/lib/tinyusb/src/common/tusb_private.h ****  * AUTHORS OR COPYRIGHT HOLDERS BE LIABLE FOR ANY CLAIM, DAMAGES OR OTHER
  20:SynaptiX_FDK/lib/tinyusb/src/common/tusb_private.h ****  * LIABILITY, WHETHER IN AN ACTION OF CONTRACT, TORT OR OTHERWISE, ARISING FROM,
  21:SynaptiX_FDK/lib/tinyusb/src/common/tusb_private.h ****  * OUT OF OR IN CONNECTION WITH THE SOFTWARE OR THE USE OR OTHER DEALINGS IN
  22:SynaptiX_FDK/lib/tinyusb/src/common/tusb_private.h ****  * THE SOFTWARE.
  23:SynaptiX_FDK/lib/tinyusb/src/common/tusb_private.h ****  *
  24:SynaptiX_FDK/lib/tinyusb/src/common/tusb_private.h ****  * This file is part of the TinyUSB stack.
  25:SynaptiX_FDK/lib/tinyusb/src/common/tusb_private.h ****  */
  26:SynaptiX_FDK/lib/tinyusb/src/common/tusb_private.h **** 
ARM GAS  C:\Users\DELL\AppData\Local\Temp\ccgExmFy.s 			page 14


  27:SynaptiX_FDK/lib/tinyusb/src/common/tusb_private.h **** #ifndef TUSB_PRIVATE_H
  28:SynaptiX_FDK/lib/tinyusb/src/common/tusb_private.h **** #define TUSB_PRIVATE_H
  29:SynaptiX_FDK/lib/tinyusb/src/common/tusb_private.h **** 
  30:SynaptiX_FDK/lib/tinyusb/src/common/tusb_private.h **** // Internal Helper used by Host and Device Stack
  31:SynaptiX_FDK/lib/tinyusb/src/common/tusb_private.h **** 
  32:SynaptiX_FDK/lib/tinyusb/src/common/tusb_private.h **** #ifdef __cplusplus
  33:SynaptiX_FDK/lib/tinyusb/src/common/tusb_private.h ****  extern "C" {
  34:SynaptiX_FDK/lib/tinyusb/src/common/tusb_private.h **** #endif
  35:SynaptiX_FDK/lib/tinyusb/src/common/tusb_private.h **** 
  36:SynaptiX_FDK/lib/tinyusb/src/common/tusb_private.h **** typedef void (*tusb_defer_func_t)(uintptr_t param);
  37:SynaptiX_FDK/lib/tinyusb/src/common/tusb_private.h **** 
  38:SynaptiX_FDK/lib/tinyusb/src/common/tusb_private.h ****  //--------------------------------------------------------------------+
  39:SynaptiX_FDK/lib/tinyusb/src/common/tusb_private.h ****  // Configuration
  40:SynaptiX_FDK/lib/tinyusb/src/common/tusb_private.h ****  //--------------------------------------------------------------------+
  41:SynaptiX_FDK/lib/tinyusb/src/common/tusb_private.h **** 
  42:SynaptiX_FDK/lib/tinyusb/src/common/tusb_private.h **** #define TUP_USBIP_CONTROLLER_NUM 2
  43:SynaptiX_FDK/lib/tinyusb/src/common/tusb_private.h **** extern tusb_role_t _tusb_rhport_role[TUP_USBIP_CONTROLLER_NUM];
  44:SynaptiX_FDK/lib/tinyusb/src/common/tusb_private.h **** 
  45:SynaptiX_FDK/lib/tinyusb/src/common/tusb_private.h **** //--------------------------------------------------------------------+
  46:SynaptiX_FDK/lib/tinyusb/src/common/tusb_private.h **** // Endpoint
  47:SynaptiX_FDK/lib/tinyusb/src/common/tusb_private.h **** //--------------------------------------------------------------------+
  48:SynaptiX_FDK/lib/tinyusb/src/common/tusb_private.h **** 
  49:SynaptiX_FDK/lib/tinyusb/src/common/tusb_private.h **** enum {
  50:SynaptiX_FDK/lib/tinyusb/src/common/tusb_private.h ****  TU_EDPT_STATE_BUSY    = 0x01,
  51:SynaptiX_FDK/lib/tinyusb/src/common/tusb_private.h ****  TU_EDPT_STATE_STALLED = 0x02,
  52:SynaptiX_FDK/lib/tinyusb/src/common/tusb_private.h ****  TU_EDPT_STATE_CLAIMED = 0x04,
  53:SynaptiX_FDK/lib/tinyusb/src/common/tusb_private.h **** };
  54:SynaptiX_FDK/lib/tinyusb/src/common/tusb_private.h **** 
  55:SynaptiX_FDK/lib/tinyusb/src/common/tusb_private.h **** typedef struct TU_ATTR_PACKED {
  56:SynaptiX_FDK/lib/tinyusb/src/common/tusb_private.h ****   volatile uint8_t busy    : 1;
  57:SynaptiX_FDK/lib/tinyusb/src/common/tusb_private.h ****   volatile uint8_t stalled : 1;
  58:SynaptiX_FDK/lib/tinyusb/src/common/tusb_private.h ****   volatile uint8_t claimed : 1;
  59:SynaptiX_FDK/lib/tinyusb/src/common/tusb_private.h **** } tu_edpt_state_t;
  60:SynaptiX_FDK/lib/tinyusb/src/common/tusb_private.h **** 
  61:SynaptiX_FDK/lib/tinyusb/src/common/tusb_private.h **** typedef struct {
  62:SynaptiX_FDK/lib/tinyusb/src/common/tusb_private.h ****   uint8_t  hwid;    // device: rhport, host: daddr
  63:SynaptiX_FDK/lib/tinyusb/src/common/tusb_private.h ****   bool     is_host; // 1: host, 0: device
  64:SynaptiX_FDK/lib/tinyusb/src/common/tusb_private.h ****   uint8_t ep_addr;
  65:SynaptiX_FDK/lib/tinyusb/src/common/tusb_private.h ****   // 1 byte padding
  66:SynaptiX_FDK/lib/tinyusb/src/common/tusb_private.h **** 
  67:SynaptiX_FDK/lib/tinyusb/src/common/tusb_private.h ****   uint16_t mps;
  68:SynaptiX_FDK/lib/tinyusb/src/common/tusb_private.h ****   uint16_t xfer_len;
  69:SynaptiX_FDK/lib/tinyusb/src/common/tusb_private.h ****   uint8_t  *ep_buf; // set to NULL to use xfer_fifo when CFG_TUD_EDPT_DEDICATED_HWFIFO = 1
  70:SynaptiX_FDK/lib/tinyusb/src/common/tusb_private.h ****   tu_fifo_t ff;
  71:SynaptiX_FDK/lib/tinyusb/src/common/tusb_private.h **** 
  72:SynaptiX_FDK/lib/tinyusb/src/common/tusb_private.h ****   // mutex: read if rx, otherwise write
  73:SynaptiX_FDK/lib/tinyusb/src/common/tusb_private.h ****   OSAL_MUTEX_DEF(ff_mutexdef);
  74:SynaptiX_FDK/lib/tinyusb/src/common/tusb_private.h **** }tu_edpt_stream_t;
  75:SynaptiX_FDK/lib/tinyusb/src/common/tusb_private.h **** 
  76:SynaptiX_FDK/lib/tinyusb/src/common/tusb_private.h **** //--------------------------------------------------------------------+
  77:SynaptiX_FDK/lib/tinyusb/src/common/tusb_private.h **** // Endpoint
  78:SynaptiX_FDK/lib/tinyusb/src/common/tusb_private.h **** //--------------------------------------------------------------------+
  79:SynaptiX_FDK/lib/tinyusb/src/common/tusb_private.h **** 
  80:SynaptiX_FDK/lib/tinyusb/src/common/tusb_private.h **** // Check if endpoint descriptor is valid per USB specs if debug is enabled
  81:SynaptiX_FDK/lib/tinyusb/src/common/tusb_private.h **** #if CFG_TUSB_DEBUG
  82:SynaptiX_FDK/lib/tinyusb/src/common/tusb_private.h **** bool tu_edpt_validate(const tusb_desc_endpoint_t *desc_ep, tusb_speed_t speed);
  83:SynaptiX_FDK/lib/tinyusb/src/common/tusb_private.h **** #else
ARM GAS  C:\Users\DELL\AppData\Local\Temp\ccgExmFy.s 			page 15


  84:SynaptiX_FDK/lib/tinyusb/src/common/tusb_private.h **** TU_ATTR_ALWAYS_INLINE static inline bool tu_edpt_validate(const tusb_desc_endpoint_t *desc_ep, tusb
  85:SynaptiX_FDK/lib/tinyusb/src/common/tusb_private.h ****   (void)speed;
  86:SynaptiX_FDK/lib/tinyusb/src/common/tusb_private.h ****   return tu_edpt_packet_size(desc_ep) > 0;
  87:SynaptiX_FDK/lib/tinyusb/src/common/tusb_private.h **** }
  88:SynaptiX_FDK/lib/tinyusb/src/common/tusb_private.h **** #endif
  89:SynaptiX_FDK/lib/tinyusb/src/common/tusb_private.h **** 
  90:SynaptiX_FDK/lib/tinyusb/src/common/tusb_private.h **** // Bind drivers to all interfaces and endpoints in the provided configuration descriptor
  91:SynaptiX_FDK/lib/tinyusb/src/common/tusb_private.h **** bool tu_bind_driver_to_ep_itf(uint8_t driver_id, uint8_t ep2drv[][2], uint8_t itf2drv[], uint8_t it
  92:SynaptiX_FDK/lib/tinyusb/src/common/tusb_private.h ****                               const uint8_t *p_desc, uint16_t desc_len);
  93:SynaptiX_FDK/lib/tinyusb/src/common/tusb_private.h **** 
  94:SynaptiX_FDK/lib/tinyusb/src/common/tusb_private.h **** // Claim an endpoint with provided mutex
  95:SynaptiX_FDK/lib/tinyusb/src/common/tusb_private.h **** bool tu_edpt_claim(tu_edpt_state_t* ep_state, osal_mutex_t mutex);
  96:SynaptiX_FDK/lib/tinyusb/src/common/tusb_private.h **** 
  97:SynaptiX_FDK/lib/tinyusb/src/common/tusb_private.h **** // Release an endpoint with provided mutex
  98:SynaptiX_FDK/lib/tinyusb/src/common/tusb_private.h **** bool tu_edpt_release(tu_edpt_state_t* ep_state, osal_mutex_t mutex);
  99:SynaptiX_FDK/lib/tinyusb/src/common/tusb_private.h **** 
 100:SynaptiX_FDK/lib/tinyusb/src/common/tusb_private.h **** //--------------------------------------------------------------------+
 101:SynaptiX_FDK/lib/tinyusb/src/common/tusb_private.h **** // Endpoint Stream
 102:SynaptiX_FDK/lib/tinyusb/src/common/tusb_private.h **** //--------------------------------------------------------------------+
 103:SynaptiX_FDK/lib/tinyusb/src/common/tusb_private.h **** 
 104:SynaptiX_FDK/lib/tinyusb/src/common/tusb_private.h **** // Init an endpoint stream
 105:SynaptiX_FDK/lib/tinyusb/src/common/tusb_private.h **** bool tu_edpt_stream_init(tu_edpt_stream_t *s, bool is_host, bool is_tx, bool overwritable, void *ff
 106:SynaptiX_FDK/lib/tinyusb/src/common/tusb_private.h ****                          uint16_t ff_bufsize, uint8_t *ep_buf);
 107:SynaptiX_FDK/lib/tinyusb/src/common/tusb_private.h **** 
 108:SynaptiX_FDK/lib/tinyusb/src/common/tusb_private.h **** // Deinit an endpoint stream
 109:SynaptiX_FDK/lib/tinyusb/src/common/tusb_private.h **** TU_ATTR_ALWAYS_INLINE static inline void tu_edpt_stream_deinit(tu_edpt_stream_t *s) {
 110:SynaptiX_FDK/lib/tinyusb/src/common/tusb_private.h ****   (void)s;
 111:SynaptiX_FDK/lib/tinyusb/src/common/tusb_private.h **** #if OSAL_MUTEX_REQUIRED
 112:SynaptiX_FDK/lib/tinyusb/src/common/tusb_private.h ****   if (s->ff.mutex_wr) {
 113:SynaptiX_FDK/lib/tinyusb/src/common/tusb_private.h ****     osal_mutex_delete(s->ff.mutex_wr);
 114:SynaptiX_FDK/lib/tinyusb/src/common/tusb_private.h ****   }
 115:SynaptiX_FDK/lib/tinyusb/src/common/tusb_private.h ****   if (s->ff.mutex_rd) {
 116:SynaptiX_FDK/lib/tinyusb/src/common/tusb_private.h ****     osal_mutex_delete(s->ff.mutex_rd);
 117:SynaptiX_FDK/lib/tinyusb/src/common/tusb_private.h ****   }
 118:SynaptiX_FDK/lib/tinyusb/src/common/tusb_private.h **** #endif
 119:SynaptiX_FDK/lib/tinyusb/src/common/tusb_private.h **** }
 120:SynaptiX_FDK/lib/tinyusb/src/common/tusb_private.h **** 
 121:SynaptiX_FDK/lib/tinyusb/src/common/tusb_private.h **** // Open an endpoint stream
 122:SynaptiX_FDK/lib/tinyusb/src/common/tusb_private.h **** TU_ATTR_ALWAYS_INLINE static inline void tu_edpt_stream_open(tu_edpt_stream_t *s, uint8_t hwid,
 123:SynaptiX_FDK/lib/tinyusb/src/common/tusb_private.h ****                                                              const tusb_desc_endpoint_t *desc_ep, u
 124:SynaptiX_FDK/lib/tinyusb/src/common/tusb_private.h ****   s->hwid    = hwid;
 125:SynaptiX_FDK/lib/tinyusb/src/common/tusb_private.h ****   s->ep_addr = desc_ep->bEndpointAddress;
 126:SynaptiX_FDK/lib/tinyusb/src/common/tusb_private.h ****   s->mps = tu_edpt_packet_size(desc_ep);
 127:SynaptiX_FDK/lib/tinyusb/src/common/tusb_private.h ****   s->xfer_len = xfer_len;
 128:SynaptiX_FDK/lib/tinyusb/src/common/tusb_private.h **** }
 129:SynaptiX_FDK/lib/tinyusb/src/common/tusb_private.h **** 
 130:SynaptiX_FDK/lib/tinyusb/src/common/tusb_private.h **** TU_ATTR_ALWAYS_INLINE static inline bool tu_edpt_stream_is_opened(const tu_edpt_stream_t *s) {
 272              		.loc 4 130 42 view .LVU53
 273              	.LBB134:
 131:SynaptiX_FDK/lib/tinyusb/src/common/tusb_private.h ****   return s->ep_addr != 0;
 274              		.loc 4 131 3 view .LVU54
 275              		.loc 4 131 11 is_stmt 0 view .LVU55
 276 001c 084B     		ldr	r3, .L19
 277 001e BC22     		movs	r2, #188
 278 0020 02FB0533 		mla	r3, r2, r5, r3
 279              	.LVL15:
 280              		.loc 4 131 11 view .LVU56
ARM GAS  C:\Users\DELL\AppData\Local\Temp\ccgExmFy.s 			page 16


 281 0024 9A7B     		ldrb	r2, [r3, #14]	@ zero_extendqisi2
 282              	.LVL16:
 283              		.loc 4 131 11 view .LVU57
 284              	.LBE134:
 285              	.LBE133:
 140:SynaptiX_FDK/lib/tinyusb/src/class/cdc/cdc_device.c ****   return in_opened && out_opened;
 286              		.loc 1 140 3 is_stmt 1 view .LVU58
 287              	.LBB135:
 288              	.LBI135:
 130:SynaptiX_FDK/lib/tinyusb/src/common/tusb_private.h ****   return s->ep_addr != 0;
 289              		.loc 4 130 42 view .LVU59
 290              	.LBB136:
 291              		.loc 4 131 3 view .LVU60
 292              		.loc 4 131 11 is_stmt 0 view .LVU61
 293 0026 93F82630 		ldrb	r3, [r3, #38]	@ zero_extendqisi2
 294              	.LVL17:
 295              		.loc 4 131 11 view .LVU62
 296              	.LBE136:
 297              	.LBE135:
 141:SynaptiX_FDK/lib/tinyusb/src/class/cdc/cdc_device.c **** }
 298              		.loc 1 141 3 is_stmt 1 view .LVU63
 141:SynaptiX_FDK/lib/tinyusb/src/class/cdc/cdc_device.c **** }
 299              		.loc 1 141 20 is_stmt 0 view .LVU64
 300 002a 12B1     		cbz	r2, .L15
 141:SynaptiX_FDK/lib/tinyusb/src/class/cdc/cdc_device.c **** }
 301              		.loc 1 141 20 discriminator 1 view .LVU65
 302 002c 1BB9     		cbnz	r3, .L16
 141:SynaptiX_FDK/lib/tinyusb/src/class/cdc/cdc_device.c **** }
 303              		.loc 1 141 20 discriminator 4 view .LVU66
 304 002e 0024     		movs	r4, #0
 305 0030 E9E7     		b	.L11
 306              	.L15:
 307 0032 0024     		movs	r4, #0
 308 0034 E7E7     		b	.L11
 309              	.L16:
 141:SynaptiX_FDK/lib/tinyusb/src/class/cdc/cdc_device.c **** }
 310              		.loc 1 141 20 discriminator 3 view .LVU67
 311 0036 0124     		movs	r4, #1
 141:SynaptiX_FDK/lib/tinyusb/src/class/cdc/cdc_device.c **** }
 312              		.loc 1 141 20 view .LVU68
 313 0038 E5E7     		b	.L11
 314              	.LVL18:
 315              	.L14:
 136:SynaptiX_FDK/lib/tinyusb/src/class/cdc/cdc_device.c ****   const cdcd_interface_t *p_cdc = &_cdcd_itf[itf];
 316              		.loc 1 136 3 discriminator 1 view .LVU69
 317 003a 0024     		movs	r4, #0
 318              	.LVL19:
 136:SynaptiX_FDK/lib/tinyusb/src/class/cdc/cdc_device.c ****   const cdcd_interface_t *p_cdc = &_cdcd_itf[itf];
 319              		.loc 1 136 3 discriminator 1 view .LVU70
 320 003c E3E7     		b	.L11
 321              	.L20:
 322 003e 00BF     		.align	2
 323              	.L19:
 324 0040 00000000 		.word	_cdcd_itf
 325              		.cfi_endproc
 326              	.LFE453:
 328              		.section	.text.tud_cdc_n_connected,"ax",%progbits
ARM GAS  C:\Users\DELL\AppData\Local\Temp\ccgExmFy.s 			page 17


 329              		.align	1
 330              		.global	tud_cdc_n_connected
 331              		.syntax unified
 332              		.thumb
 333              		.thumb_func
 335              	tud_cdc_n_connected:
 336              	.LVL20:
 337              	.LFB454:
 143:SynaptiX_FDK/lib/tinyusb/src/class/cdc/cdc_device.c **** 
 144:SynaptiX_FDK/lib/tinyusb/src/class/cdc/cdc_device.c **** bool tud_cdc_n_connected(uint8_t itf) {
 338              		.loc 1 144 39 is_stmt 1 view -0
 339              		.cfi_startproc
 340              		@ args = 0, pretend = 0, frame = 0
 341              		@ frame_needed = 0, uses_anonymous_args = 0
 342              		.loc 1 144 39 is_stmt 0 view .LVU72
 343 0000 38B5     		push	{r3, r4, r5, lr}
 344              	.LCFI2:
 345              		.cfi_def_cfa_offset 16
 346              		.cfi_offset 3, -16
 347              		.cfi_offset 4, -12
 348              		.cfi_offset 5, -8
 349              		.cfi_offset 14, -4
 145:SynaptiX_FDK/lib/tinyusb/src/class/cdc/cdc_device.c ****   TU_VERIFY(itf < CFG_TUD_CDC);
 350              		.loc 1 145 3 is_stmt 1 view .LVU73
 351              		.loc 1 145 3 view .LVU74
 352 0002 10B1     		cbz	r0, .L26
 353              		.loc 1 145 3 is_stmt 0 discriminator 1 view .LVU75
 354 0004 0024     		movs	r4, #0
 355              	.LVL21:
 356              	.L22:
 146:SynaptiX_FDK/lib/tinyusb/src/class/cdc/cdc_device.c ****   TU_VERIFY(tud_ready());
 147:SynaptiX_FDK/lib/tinyusb/src/class/cdc/cdc_device.c ****   // DTR (bit 0) active  is considered as connected
 148:SynaptiX_FDK/lib/tinyusb/src/class/cdc/cdc_device.c ****   return tu_bit_test(_cdcd_itf[itf].line_state, 0);
 149:SynaptiX_FDK/lib/tinyusb/src/class/cdc/cdc_device.c **** }
 357              		.loc 1 149 1 view .LVU76
 358 0006 2046     		mov	r0, r4
 359 0008 38BD     		pop	{r3, r4, r5, pc}
 360              	.LVL22:
 361              	.L26:
 362              		.loc 1 149 1 view .LVU77
 363 000a 0546     		mov	r5, r0
 145:SynaptiX_FDK/lib/tinyusb/src/class/cdc/cdc_device.c ****   TU_VERIFY(itf < CFG_TUD_CDC);
 364              		.loc 1 145 3 is_stmt 1 view .LVU78
 146:SynaptiX_FDK/lib/tinyusb/src/class/cdc/cdc_device.c ****   TU_VERIFY(tud_ready());
 365              		.loc 1 146 3 view .LVU79
 146:SynaptiX_FDK/lib/tinyusb/src/class/cdc/cdc_device.c ****   TU_VERIFY(tud_ready());
 366              		.loc 1 146 3 view .LVU80
 367              	.LBB137:
 368              	.LBI137:
 124:SynaptiX_FDK/lib/tinyusb/src/device/usbd.h ****   const bool is_mounted = tud_mounted();
 369              		.loc 3 124 6 view .LVU81
 370              	.LBB138:
 125:SynaptiX_FDK/lib/tinyusb/src/device/usbd.h ****   const bool is_suspended = tud_suspended();
 371              		.loc 3 125 3 view .LVU82
 125:SynaptiX_FDK/lib/tinyusb/src/device/usbd.h ****   const bool is_suspended = tud_suspended();
 372              		.loc 3 125 27 is_stmt 0 view .LVU83
 373 000c FFF7FEFF 		bl	tud_mounted
ARM GAS  C:\Users\DELL\AppData\Local\Temp\ccgExmFy.s 			page 18


 374              	.LVL23:
 125:SynaptiX_FDK/lib/tinyusb/src/device/usbd.h ****   const bool is_suspended = tud_suspended();
 375              		.loc 3 125 27 view .LVU84
 376 0010 0446     		mov	r4, r0
 377              	.LVL24:
 126:SynaptiX_FDK/lib/tinyusb/src/device/usbd.h ****   return is_mounted && !is_suspended;
 378              		.loc 3 126 3 is_stmt 1 view .LVU85
 126:SynaptiX_FDK/lib/tinyusb/src/device/usbd.h ****   return is_mounted && !is_suspended;
 379              		.loc 3 126 29 is_stmt 0 view .LVU86
 380 0012 FFF7FEFF 		bl	tud_suspended
 381              	.LVL25:
 382              		.loc 3 127 3 is_stmt 1 view .LVU87
 383              		.loc 3 127 21 is_stmt 0 view .LVU88
 384 0016 002C     		cmp	r4, #0
 385 0018 F5D0     		beq	.L22
 386              		.loc 3 127 21 discriminator 1 view .LVU89
 387 001a 38B9     		cbnz	r0, .L24
 388              	.LVL26:
 389              		.loc 3 127 21 discriminator 1 view .LVU90
 390              	.LBE138:
 391              	.LBE137:
 146:SynaptiX_FDK/lib/tinyusb/src/class/cdc/cdc_device.c ****   // DTR (bit 0) active  is considered as connected
 392              		.loc 1 146 3 is_stmt 1 view .LVU91
 148:SynaptiX_FDK/lib/tinyusb/src/class/cdc/cdc_device.c **** }
 393              		.loc 1 148 3 view .LVU92
 148:SynaptiX_FDK/lib/tinyusb/src/class/cdc/cdc_device.c **** }
 394              		.loc 1 148 36 is_stmt 0 view .LVU93
 395 001c 044B     		ldr	r3, .L27
 396 001e BC22     		movs	r2, #188
 397 0020 02FB0533 		mla	r3, r2, r5, r3
 398 0024 DC78     		ldrb	r4, [r3, #3]	@ zero_extendqisi2
 399              	.LVL27:
 400              	.LBB139:
 401              	.LBI139:
 402              		.file 5 "SynaptiX_FDK/lib/tinyusb/src/common/tusb_common.h"
   1:SynaptiX_FDK/lib/tinyusb/src/common/tusb_common.h **** /*
   2:SynaptiX_FDK/lib/tinyusb/src/common/tusb_common.h ****  * The MIT License (MIT)
   3:SynaptiX_FDK/lib/tinyusb/src/common/tusb_common.h ****  *
   4:SynaptiX_FDK/lib/tinyusb/src/common/tusb_common.h ****  * Copyright (c) 2019 Ha Thach (tinyusb.org)
   5:SynaptiX_FDK/lib/tinyusb/src/common/tusb_common.h ****  *
   6:SynaptiX_FDK/lib/tinyusb/src/common/tusb_common.h ****  * Permission is hereby granted, free of charge, to any person obtaining a copy
   7:SynaptiX_FDK/lib/tinyusb/src/common/tusb_common.h ****  * of this software and associated documentation files (the "Software"), to deal
   8:SynaptiX_FDK/lib/tinyusb/src/common/tusb_common.h ****  * in the Software without restriction, including without limitation the rights
   9:SynaptiX_FDK/lib/tinyusb/src/common/tusb_common.h ****  * to use, copy, modify, merge, publish, distribute, sublicense, and/or sell
  10:SynaptiX_FDK/lib/tinyusb/src/common/tusb_common.h ****  * copies of the Software, and to permit persons to whom the Software is
  11:SynaptiX_FDK/lib/tinyusb/src/common/tusb_common.h ****  * furnished to do so, subject to the following conditions:
  12:SynaptiX_FDK/lib/tinyusb/src/common/tusb_common.h ****  *
  13:SynaptiX_FDK/lib/tinyusb/src/common/tusb_common.h ****  * The above copyright notice and this permission notice shall be included in
  14:SynaptiX_FDK/lib/tinyusb/src/common/tusb_common.h ****  * all copies or substantial portions of the Software.
  15:SynaptiX_FDK/lib/tinyusb/src/common/tusb_common.h ****  *
  16:SynaptiX_FDK/lib/tinyusb/src/common/tusb_common.h ****  * THE SOFTWARE IS PROVIDED "AS IS", WITHOUT WARRANTY OF ANY KIND, EXPRESS OR
  17:SynaptiX_FDK/lib/tinyusb/src/common/tusb_common.h ****  * IMPLIED, INCLUDING BUT NOT LIMITED TO THE WARRANTIES OF MERCHANTABILITY,
  18:SynaptiX_FDK/lib/tinyusb/src/common/tusb_common.h ****  * FITNESS FOR A PARTICULAR PURPOSE AND NONINFRINGEMENT. IN NO EVENT SHALL THE
  19:SynaptiX_FDK/lib/tinyusb/src/common/tusb_common.h ****  * AUTHORS OR COPYRIGHT HOLDERS BE LIABLE FOR ANY CLAIM, DAMAGES OR OTHER
  20:SynaptiX_FDK/lib/tinyusb/src/common/tusb_common.h ****  * LIABILITY, WHETHER IN AN ACTION OF CONTRACT, TORT OR OTHERWISE, ARISING FROM,
  21:SynaptiX_FDK/lib/tinyusb/src/common/tusb_common.h ****  * OUT OF OR IN CONNECTION WITH THE SOFTWARE OR THE USE OR OTHER DEALINGS IN
  22:SynaptiX_FDK/lib/tinyusb/src/common/tusb_common.h ****  * THE SOFTWARE.
ARM GAS  C:\Users\DELL\AppData\Local\Temp\ccgExmFy.s 			page 19


  23:SynaptiX_FDK/lib/tinyusb/src/common/tusb_common.h ****  *
  24:SynaptiX_FDK/lib/tinyusb/src/common/tusb_common.h ****  * This file is part of the TinyUSB stack.
  25:SynaptiX_FDK/lib/tinyusb/src/common/tusb_common.h ****  */
  26:SynaptiX_FDK/lib/tinyusb/src/common/tusb_common.h **** 
  27:SynaptiX_FDK/lib/tinyusb/src/common/tusb_common.h **** #ifndef TUSB_COMMON_H_
  28:SynaptiX_FDK/lib/tinyusb/src/common/tusb_common.h **** #define TUSB_COMMON_H_
  29:SynaptiX_FDK/lib/tinyusb/src/common/tusb_common.h **** 
  30:SynaptiX_FDK/lib/tinyusb/src/common/tusb_common.h **** #ifdef __cplusplus
  31:SynaptiX_FDK/lib/tinyusb/src/common/tusb_common.h ****  extern "C" {
  32:SynaptiX_FDK/lib/tinyusb/src/common/tusb_common.h **** #endif
  33:SynaptiX_FDK/lib/tinyusb/src/common/tusb_common.h **** 
  34:SynaptiX_FDK/lib/tinyusb/src/common/tusb_common.h **** //--------------------------------------------------------------------+
  35:SynaptiX_FDK/lib/tinyusb/src/common/tusb_common.h **** // Macros Helper
  36:SynaptiX_FDK/lib/tinyusb/src/common/tusb_common.h **** //--------------------------------------------------------------------+
  37:SynaptiX_FDK/lib/tinyusb/src/common/tusb_common.h **** #define TU_ARRAY_SIZE(_arr)           ( sizeof(_arr) / sizeof(_arr[0]) )
  38:SynaptiX_FDK/lib/tinyusb/src/common/tusb_common.h **** #define TU_FIELD_SIZE(_type, _field)  (sizeof(((_type *)0)->_field))
  39:SynaptiX_FDK/lib/tinyusb/src/common/tusb_common.h **** #define TU_MIN(_x, _y)                ( ( (_x) < (_y) ) ? (_x) : (_y) )
  40:SynaptiX_FDK/lib/tinyusb/src/common/tusb_common.h **** #define TU_MAX(_x, _y)                ( ( (_x) > (_y) ) ? (_x) : (_y) )
  41:SynaptiX_FDK/lib/tinyusb/src/common/tusb_common.h **** #define TU_DIV_CEIL(n, d)             (((n) + (d) - 1) / (d))
  42:SynaptiX_FDK/lib/tinyusb/src/common/tusb_common.h **** #define TU_DIV_ROUND_NEAREST(v, d)    (((v) + (d)/2) / (d) ) // round to nearest integer
  43:SynaptiX_FDK/lib/tinyusb/src/common/tusb_common.h **** 
  44:SynaptiX_FDK/lib/tinyusb/src/common/tusb_common.h **** #define TU_U16(_high, _low)           ((uint16_t) ((((uint16_t) (_high)) << 8) | ((uint16_t) (_low)
  45:SynaptiX_FDK/lib/tinyusb/src/common/tusb_common.h **** #define TU_U16_HIGH(_u16)             ((uint8_t) (((uint16_t) (_u16) >> 8) & 0x00ffu))
  46:SynaptiX_FDK/lib/tinyusb/src/common/tusb_common.h **** #define TU_U16_LOW(_u16)              ((uint8_t) ((uint16_t) (_u16) & 0x00ffu))
  47:SynaptiX_FDK/lib/tinyusb/src/common/tusb_common.h **** #define U16_TO_U8S_BE(_u16)           TU_U16_HIGH(_u16), TU_U16_LOW(_u16)
  48:SynaptiX_FDK/lib/tinyusb/src/common/tusb_common.h **** #define U16_TO_U8S_LE(_u16)           TU_U16_LOW(_u16), TU_U16_HIGH(_u16)
  49:SynaptiX_FDK/lib/tinyusb/src/common/tusb_common.h **** 
  50:SynaptiX_FDK/lib/tinyusb/src/common/tusb_common.h **** #define TU_U24(_high, _mid, _low)     ((uint32_t) ((((uint32_t) (_high)) << 16) | (((uint32_t) (_mi
  51:SynaptiX_FDK/lib/tinyusb/src/common/tusb_common.h **** #define TU_U24_HIGH(_u24)             ((uint8_t) (((uint32_t) (_u24) >> 16) & 0x0000ffu))
  52:SynaptiX_FDK/lib/tinyusb/src/common/tusb_common.h **** #define TU_U24_MID(_u24)              ((uint8_t) (((uint32_t) (_u24) >>  8) & 0x0000ffu))
  53:SynaptiX_FDK/lib/tinyusb/src/common/tusb_common.h **** #define TU_U24_LOW(_u24)              ((uint8_t) ((uint32_t) (_u24) & 0x0000ffu))
  54:SynaptiX_FDK/lib/tinyusb/src/common/tusb_common.h **** #define U24_TO_U8S_BE(_u24)           TU_U24_HIGH(_u24), TU_U24_MID(_u24), TU_U24_LOW(_u24)
  55:SynaptiX_FDK/lib/tinyusb/src/common/tusb_common.h **** #define U24_TO_U8S_LE(_u24)           TU_U24_LOW(_u24), TU_U24_MID(_u24), TU_U24_HIGH(_u24)
  56:SynaptiX_FDK/lib/tinyusb/src/common/tusb_common.h **** 
  57:SynaptiX_FDK/lib/tinyusb/src/common/tusb_common.h **** #define TU_U32_BYTE3(_u32)            ((uint8_t) ((((uint32_t) _u32) >> 24) & 0x000000ff)) // MSB
  58:SynaptiX_FDK/lib/tinyusb/src/common/tusb_common.h **** #define TU_U32_BYTE2(_u32)            ((uint8_t) ((((uint32_t) _u32) >> 16) & 0x000000ff))
  59:SynaptiX_FDK/lib/tinyusb/src/common/tusb_common.h **** #define TU_U32_BYTE1(_u32)            ((uint8_t) ((((uint32_t) _u32) >>  8) & 0x000000ff))
  60:SynaptiX_FDK/lib/tinyusb/src/common/tusb_common.h **** #define TU_U32_BYTE0(_u32)            ((uint8_t) (((uint32_t)  _u32)        & 0x000000ff)) // LSB
  61:SynaptiX_FDK/lib/tinyusb/src/common/tusb_common.h **** 
  62:SynaptiX_FDK/lib/tinyusb/src/common/tusb_common.h **** #define U32_TO_U8S_BE(_u32)           TU_U32_BYTE3(_u32), TU_U32_BYTE2(_u32), TU_U32_BYTE1(_u32), T
  63:SynaptiX_FDK/lib/tinyusb/src/common/tusb_common.h **** #define U32_TO_U8S_LE(_u32)           TU_U32_BYTE0(_u32), TU_U32_BYTE1(_u32), TU_U32_BYTE2(_u32), T
  64:SynaptiX_FDK/lib/tinyusb/src/common/tusb_common.h **** 
  65:SynaptiX_FDK/lib/tinyusb/src/common/tusb_common.h **** #define TU_BIT(n)                     (1UL << (n))
  66:SynaptiX_FDK/lib/tinyusb/src/common/tusb_common.h **** 
  67:SynaptiX_FDK/lib/tinyusb/src/common/tusb_common.h **** // Generate a mask with bit from high (31) to low (0) set, e.g TU_GENMASK(3, 0) = 0b1111
  68:SynaptiX_FDK/lib/tinyusb/src/common/tusb_common.h **** #define TU_GENMASK(h, l)              ( (UINT32_MAX << (l)) & (UINT32_MAX >> (31 - (h))) )
  69:SynaptiX_FDK/lib/tinyusb/src/common/tusb_common.h **** 
  70:SynaptiX_FDK/lib/tinyusb/src/common/tusb_common.h **** //--------------------------------------------------------------------+
  71:SynaptiX_FDK/lib/tinyusb/src/common/tusb_common.h **** // Includes
  72:SynaptiX_FDK/lib/tinyusb/src/common/tusb_common.h **** //--------------------------------------------------------------------+
  73:SynaptiX_FDK/lib/tinyusb/src/common/tusb_common.h **** 
  74:SynaptiX_FDK/lib/tinyusb/src/common/tusb_common.h **** // Standard Headers
  75:SynaptiX_FDK/lib/tinyusb/src/common/tusb_common.h **** #include <stdbool.h>
  76:SynaptiX_FDK/lib/tinyusb/src/common/tusb_common.h **** #include <stdint.h>
  77:SynaptiX_FDK/lib/tinyusb/src/common/tusb_common.h **** #include <inttypes.h>
  78:SynaptiX_FDK/lib/tinyusb/src/common/tusb_common.h **** #include <stddef.h>
  79:SynaptiX_FDK/lib/tinyusb/src/common/tusb_common.h **** #include <string.h>
ARM GAS  C:\Users\DELL\AppData\Local\Temp\ccgExmFy.s 			page 20


  80:SynaptiX_FDK/lib/tinyusb/src/common/tusb_common.h **** 
  81:SynaptiX_FDK/lib/tinyusb/src/common/tusb_common.h **** // Tinyusb Common Headers
  82:SynaptiX_FDK/lib/tinyusb/src/common/tusb_common.h **** #include "tusb_option.h"
  83:SynaptiX_FDK/lib/tinyusb/src/common/tusb_common.h **** #include "tusb_compiler.h"
  84:SynaptiX_FDK/lib/tinyusb/src/common/tusb_common.h **** #include "tusb_verify.h"
  85:SynaptiX_FDK/lib/tinyusb/src/common/tusb_common.h **** #include "tusb_types.h"
  86:SynaptiX_FDK/lib/tinyusb/src/common/tusb_common.h **** #include "tusb_debug.h"
  87:SynaptiX_FDK/lib/tinyusb/src/common/tusb_common.h **** 
  88:SynaptiX_FDK/lib/tinyusb/src/common/tusb_common.h **** //--------------------------------------------------------------------+
  89:SynaptiX_FDK/lib/tinyusb/src/common/tusb_common.h **** // API implemented by application if needed
  90:SynaptiX_FDK/lib/tinyusb/src/common/tusb_common.h **** // TODO move to a more obvious place/file
  91:SynaptiX_FDK/lib/tinyusb/src/common/tusb_common.h **** //--------------------------------------------------------------------+
  92:SynaptiX_FDK/lib/tinyusb/src/common/tusb_common.h **** 
  93:SynaptiX_FDK/lib/tinyusb/src/common/tusb_common.h **** // Get current milliseconds, required by some port/configuration without RTOS
  94:SynaptiX_FDK/lib/tinyusb/src/common/tusb_common.h **** extern uint32_t tusb_time_millis_api(void);
  95:SynaptiX_FDK/lib/tinyusb/src/common/tusb_common.h **** 
  96:SynaptiX_FDK/lib/tinyusb/src/common/tusb_common.h **** // Delay in milliseconds, use tusb_time_millis_api() by default. required by some port/configuratio
  97:SynaptiX_FDK/lib/tinyusb/src/common/tusb_common.h **** extern void tusb_time_delay_ms_api(uint32_t ms);
  98:SynaptiX_FDK/lib/tinyusb/src/common/tusb_common.h **** 
  99:SynaptiX_FDK/lib/tinyusb/src/common/tusb_common.h **** // flush data cache
 100:SynaptiX_FDK/lib/tinyusb/src/common/tusb_common.h **** extern void tusb_app_dcache_flush(uintptr_t addr, uint32_t data_size);
 101:SynaptiX_FDK/lib/tinyusb/src/common/tusb_common.h **** 
 102:SynaptiX_FDK/lib/tinyusb/src/common/tusb_common.h **** // invalidate data cache
 103:SynaptiX_FDK/lib/tinyusb/src/common/tusb_common.h **** extern void tusb_app_dcache_invalidate(uintptr_t addr, uint32_t data_size);
 104:SynaptiX_FDK/lib/tinyusb/src/common/tusb_common.h **** 
 105:SynaptiX_FDK/lib/tinyusb/src/common/tusb_common.h **** // Optional physical <-> virtual address translation
 106:SynaptiX_FDK/lib/tinyusb/src/common/tusb_common.h **** extern void* tusb_app_virt_to_phys(void *virt_addr);
 107:SynaptiX_FDK/lib/tinyusb/src/common/tusb_common.h **** extern void* tusb_app_phys_to_virt(void *phys_addr);
 108:SynaptiX_FDK/lib/tinyusb/src/common/tusb_common.h **** 
 109:SynaptiX_FDK/lib/tinyusb/src/common/tusb_common.h **** //--------------------------------------------------------------------+
 110:SynaptiX_FDK/lib/tinyusb/src/common/tusb_common.h **** // Internal Inline Functions
 111:SynaptiX_FDK/lib/tinyusb/src/common/tusb_common.h **** //--------------------------------------------------------------------+
 112:SynaptiX_FDK/lib/tinyusb/src/common/tusb_common.h **** 
 113:SynaptiX_FDK/lib/tinyusb/src/common/tusb_common.h **** //------------- Mem -------------//
 114:SynaptiX_FDK/lib/tinyusb/src/common/tusb_common.h **** #define tu_memclr(buffer, size)  (void) memset((buffer), 0, (size))
 115:SynaptiX_FDK/lib/tinyusb/src/common/tusb_common.h **** #define tu_varclr(_var)          tu_memclr(_var, sizeof(*(_var)))
 116:SynaptiX_FDK/lib/tinyusb/src/common/tusb_common.h **** 
 117:SynaptiX_FDK/lib/tinyusb/src/common/tusb_common.h **** // This is a backport of memset_s from c11
 118:SynaptiX_FDK/lib/tinyusb/src/common/tusb_common.h **** TU_ATTR_ALWAYS_INLINE static inline int tu_memset_s(void *dest, size_t destsz, int ch, size_t count
 119:SynaptiX_FDK/lib/tinyusb/src/common/tusb_common.h ****   // Validate parameters
 120:SynaptiX_FDK/lib/tinyusb/src/common/tusb_common.h ****   if (dest == NULL) {
 121:SynaptiX_FDK/lib/tinyusb/src/common/tusb_common.h ****     return -1;
 122:SynaptiX_FDK/lib/tinyusb/src/common/tusb_common.h ****   }
 123:SynaptiX_FDK/lib/tinyusb/src/common/tusb_common.h **** 
 124:SynaptiX_FDK/lib/tinyusb/src/common/tusb_common.h ****   if (count == 0u) {
 125:SynaptiX_FDK/lib/tinyusb/src/common/tusb_common.h ****     return 0;
 126:SynaptiX_FDK/lib/tinyusb/src/common/tusb_common.h ****   }
 127:SynaptiX_FDK/lib/tinyusb/src/common/tusb_common.h **** 
 128:SynaptiX_FDK/lib/tinyusb/src/common/tusb_common.h ****   if (count > destsz) {
 129:SynaptiX_FDK/lib/tinyusb/src/common/tusb_common.h ****     return -1;
 130:SynaptiX_FDK/lib/tinyusb/src/common/tusb_common.h ****   }
 131:SynaptiX_FDK/lib/tinyusb/src/common/tusb_common.h **** 
 132:SynaptiX_FDK/lib/tinyusb/src/common/tusb_common.h ****   (void) memset(dest, ch, count);
 133:SynaptiX_FDK/lib/tinyusb/src/common/tusb_common.h ****   return 0;
 134:SynaptiX_FDK/lib/tinyusb/src/common/tusb_common.h **** }
 135:SynaptiX_FDK/lib/tinyusb/src/common/tusb_common.h **** 
 136:SynaptiX_FDK/lib/tinyusb/src/common/tusb_common.h **** // This is a backport of memcpy_s from c11
ARM GAS  C:\Users\DELL\AppData\Local\Temp\ccgExmFy.s 			page 21


 137:SynaptiX_FDK/lib/tinyusb/src/common/tusb_common.h **** TU_ATTR_ALWAYS_INLINE static inline int tu_memcpy_s(void *dest, size_t destsz, const void *src, siz
 138:SynaptiX_FDK/lib/tinyusb/src/common/tusb_common.h ****   if (dest == NULL) {
 139:SynaptiX_FDK/lib/tinyusb/src/common/tusb_common.h ****     return -1;
 140:SynaptiX_FDK/lib/tinyusb/src/common/tusb_common.h ****   }
 141:SynaptiX_FDK/lib/tinyusb/src/common/tusb_common.h **** 
 142:SynaptiX_FDK/lib/tinyusb/src/common/tusb_common.h ****   if (count == 0u) {
 143:SynaptiX_FDK/lib/tinyusb/src/common/tusb_common.h ****     return 0;
 144:SynaptiX_FDK/lib/tinyusb/src/common/tusb_common.h ****   }
 145:SynaptiX_FDK/lib/tinyusb/src/common/tusb_common.h **** 
 146:SynaptiX_FDK/lib/tinyusb/src/common/tusb_common.h ****   if (src == NULL) {
 147:SynaptiX_FDK/lib/tinyusb/src/common/tusb_common.h ****     return -1;
 148:SynaptiX_FDK/lib/tinyusb/src/common/tusb_common.h ****   }
 149:SynaptiX_FDK/lib/tinyusb/src/common/tusb_common.h **** 
 150:SynaptiX_FDK/lib/tinyusb/src/common/tusb_common.h ****   if (count > destsz) {
 151:SynaptiX_FDK/lib/tinyusb/src/common/tusb_common.h ****     return -1;
 152:SynaptiX_FDK/lib/tinyusb/src/common/tusb_common.h ****   }
 153:SynaptiX_FDK/lib/tinyusb/src/common/tusb_common.h **** 
 154:SynaptiX_FDK/lib/tinyusb/src/common/tusb_common.h ****   (void) memcpy(dest, src, count);
 155:SynaptiX_FDK/lib/tinyusb/src/common/tusb_common.h ****   return 0;
 156:SynaptiX_FDK/lib/tinyusb/src/common/tusb_common.h **** }
 157:SynaptiX_FDK/lib/tinyusb/src/common/tusb_common.h **** 
 158:SynaptiX_FDK/lib/tinyusb/src/common/tusb_common.h **** TU_ATTR_ALWAYS_INLINE static inline bool tu_mem_is_zero(const void *buffer, size_t size) {
 159:SynaptiX_FDK/lib/tinyusb/src/common/tusb_common.h ****   const uint8_t* buf8 = (const uint8_t*) buffer;
 160:SynaptiX_FDK/lib/tinyusb/src/common/tusb_common.h ****   for (size_t i = 0; i < size; i++) {
 161:SynaptiX_FDK/lib/tinyusb/src/common/tusb_common.h ****     if (buf8[i] != 0) { return false; }
 162:SynaptiX_FDK/lib/tinyusb/src/common/tusb_common.h ****   }
 163:SynaptiX_FDK/lib/tinyusb/src/common/tusb_common.h ****   return true;
 164:SynaptiX_FDK/lib/tinyusb/src/common/tusb_common.h **** }
 165:SynaptiX_FDK/lib/tinyusb/src/common/tusb_common.h **** 
 166:SynaptiX_FDK/lib/tinyusb/src/common/tusb_common.h **** TU_ATTR_ALWAYS_INLINE static inline bool tu_mem_is_ff(const void *buffer, size_t size) {
 167:SynaptiX_FDK/lib/tinyusb/src/common/tusb_common.h ****   const uint8_t* buf8 = (const uint8_t*) buffer;
 168:SynaptiX_FDK/lib/tinyusb/src/common/tusb_common.h ****   for (size_t i = 0; i < size; i++) {
 169:SynaptiX_FDK/lib/tinyusb/src/common/tusb_common.h ****     if (buf8[i] != 0xff) { return false; }
 170:SynaptiX_FDK/lib/tinyusb/src/common/tusb_common.h ****   }
 171:SynaptiX_FDK/lib/tinyusb/src/common/tusb_common.h ****   return true;
 172:SynaptiX_FDK/lib/tinyusb/src/common/tusb_common.h **** }
 173:SynaptiX_FDK/lib/tinyusb/src/common/tusb_common.h **** 
 174:SynaptiX_FDK/lib/tinyusb/src/common/tusb_common.h **** 
 175:SynaptiX_FDK/lib/tinyusb/src/common/tusb_common.h **** //------------- Bytes -------------//
 176:SynaptiX_FDK/lib/tinyusb/src/common/tusb_common.h **** TU_ATTR_ALWAYS_INLINE static inline uint32_t tu_u32(uint8_t b3, uint8_t b2, uint8_t b1, uint8_t b0)
 177:SynaptiX_FDK/lib/tinyusb/src/common/tusb_common.h ****   return (((uint32_t)b3) << 24) | (((uint32_t)b2) << 16) | (((uint32_t)b1) << 8) | b0;
 178:SynaptiX_FDK/lib/tinyusb/src/common/tusb_common.h **** }
 179:SynaptiX_FDK/lib/tinyusb/src/common/tusb_common.h **** 
 180:SynaptiX_FDK/lib/tinyusb/src/common/tusb_common.h **** TU_ATTR_ALWAYS_INLINE static inline uint32_t tu_u32_from_u16(uint16_t high, uint16_t low) {
 181:SynaptiX_FDK/lib/tinyusb/src/common/tusb_common.h ****   return (((uint32_t)high) << 16) | low;
 182:SynaptiX_FDK/lib/tinyusb/src/common/tusb_common.h **** }
 183:SynaptiX_FDK/lib/tinyusb/src/common/tusb_common.h **** 
 184:SynaptiX_FDK/lib/tinyusb/src/common/tusb_common.h **** TU_ATTR_ALWAYS_INLINE static inline uint16_t tu_u16(uint8_t high, uint8_t low) {
 185:SynaptiX_FDK/lib/tinyusb/src/common/tusb_common.h ****   return (uint16_t)((((uint16_t)high) << 8) | low);
 186:SynaptiX_FDK/lib/tinyusb/src/common/tusb_common.h **** }
 187:SynaptiX_FDK/lib/tinyusb/src/common/tusb_common.h **** 
 188:SynaptiX_FDK/lib/tinyusb/src/common/tusb_common.h **** TU_ATTR_ALWAYS_INLINE static inline uint8_t tu_u32_byte3(uint32_t ui32) { return TU_U32_BYTE3(ui32)
 189:SynaptiX_FDK/lib/tinyusb/src/common/tusb_common.h **** TU_ATTR_ALWAYS_INLINE static inline uint8_t tu_u32_byte2(uint32_t ui32) { return TU_U32_BYTE2(ui32)
 190:SynaptiX_FDK/lib/tinyusb/src/common/tusb_common.h **** TU_ATTR_ALWAYS_INLINE static inline uint8_t tu_u32_byte1(uint32_t ui32) { return TU_U32_BYTE1(ui32)
 191:SynaptiX_FDK/lib/tinyusb/src/common/tusb_common.h **** TU_ATTR_ALWAYS_INLINE static inline uint8_t tu_u32_byte0(uint32_t ui32) { return TU_U32_BYTE0(ui32)
 192:SynaptiX_FDK/lib/tinyusb/src/common/tusb_common.h **** 
 193:SynaptiX_FDK/lib/tinyusb/src/common/tusb_common.h **** TU_ATTR_ALWAYS_INLINE static inline uint16_t tu_u32_high16(uint32_t ui32) { return (uint16_t) (ui32
ARM GAS  C:\Users\DELL\AppData\Local\Temp\ccgExmFy.s 			page 22


 194:SynaptiX_FDK/lib/tinyusb/src/common/tusb_common.h **** TU_ATTR_ALWAYS_INLINE static inline uint16_t tu_u32_low16 (uint32_t ui32) { return (uint16_t) (ui32
 195:SynaptiX_FDK/lib/tinyusb/src/common/tusb_common.h **** 
 196:SynaptiX_FDK/lib/tinyusb/src/common/tusb_common.h **** TU_ATTR_ALWAYS_INLINE static inline uint8_t tu_u16_high(uint16_t ui16) { return TU_U16_HIGH(ui16); 
 197:SynaptiX_FDK/lib/tinyusb/src/common/tusb_common.h **** TU_ATTR_ALWAYS_INLINE static inline uint8_t tu_u16_low (uint16_t ui16) { return TU_U16_LOW(ui16); }
 198:SynaptiX_FDK/lib/tinyusb/src/common/tusb_common.h **** 
 199:SynaptiX_FDK/lib/tinyusb/src/common/tusb_common.h **** //------------- Bits -------------//
 200:SynaptiX_FDK/lib/tinyusb/src/common/tusb_common.h **** TU_ATTR_ALWAYS_INLINE static inline uint32_t tu_bit_set  (uint32_t value, uint8_t pos) { return val
 201:SynaptiX_FDK/lib/tinyusb/src/common/tusb_common.h **** TU_ATTR_ALWAYS_INLINE static inline uint32_t tu_bit_clear(uint32_t value, uint8_t pos) { return val
 202:SynaptiX_FDK/lib/tinyusb/src/common/tusb_common.h **** TU_ATTR_ALWAYS_INLINE static inline bool     tu_bit_test (uint32_t value, uint8_t pos) { return (va
 403              		.loc 5 202 46 is_stmt 1 view .LVU94
 404              	.LBB140:
 405              		.loc 5 202 90 view .LVU95
 406              		.loc 5 202 126 is_stmt 0 view .LVU96
 407 0026 04F00104 		and	r4, r4, #1
 408              	.LVL28:
 409              		.loc 5 202 126 view .LVU97
 410              	.LBE140:
 411              	.LBE139:
 148:SynaptiX_FDK/lib/tinyusb/src/class/cdc/cdc_device.c **** }
 412              		.loc 1 148 10 view .LVU98
 413 002a ECE7     		b	.L22
 414              	.LVL29:
 415              	.L24:
 146:SynaptiX_FDK/lib/tinyusb/src/class/cdc/cdc_device.c ****   // DTR (bit 0) active  is considered as connected
 416              		.loc 1 146 3 discriminator 1 view .LVU99
 417 002c 0024     		movs	r4, #0
 418              	.LVL30:
 146:SynaptiX_FDK/lib/tinyusb/src/class/cdc/cdc_device.c ****   // DTR (bit 0) active  is considered as connected
 419              		.loc 1 146 3 discriminator 1 view .LVU100
 420 002e EAE7     		b	.L22
 421              	.L28:
 422              		.align	2
 423              	.L27:
 424 0030 00000000 		.word	_cdcd_itf
 425              		.cfi_endproc
 426              	.LFE454:
 428              		.section	.text.tud_cdc_n_get_line_state,"ax",%progbits
 429              		.align	1
 430              		.global	tud_cdc_n_get_line_state
 431              		.syntax unified
 432              		.thumb
 433              		.thumb_func
 435              	tud_cdc_n_get_line_state:
 436              	.LVL31:
 437              	.LFB455:
 150:SynaptiX_FDK/lib/tinyusb/src/class/cdc/cdc_device.c **** 
 151:SynaptiX_FDK/lib/tinyusb/src/class/cdc/cdc_device.c **** uint8_t tud_cdc_n_get_line_state(uint8_t itf) {
 438              		.loc 1 151 47 is_stmt 1 view -0
 439              		.cfi_startproc
 440              		@ args = 0, pretend = 0, frame = 0
 441              		@ frame_needed = 0, uses_anonymous_args = 0
 442              		@ link register save eliminated.
 152:SynaptiX_FDK/lib/tinyusb/src/class/cdc/cdc_device.c ****   TU_VERIFY(itf < CFG_TUD_CDC, 0);
 443              		.loc 1 152 3 view .LVU102
 444              		.loc 1 152 3 view .LVU103
 445 0000 28B9     		cbnz	r0, .L31
 446              		.loc 1 152 3 view .LVU104
ARM GAS  C:\Users\DELL\AppData\Local\Temp\ccgExmFy.s 			page 23


 153:SynaptiX_FDK/lib/tinyusb/src/class/cdc/cdc_device.c ****   return _cdcd_itf[itf].line_state;
 447              		.loc 1 153 3 view .LVU105
 448              		.loc 1 153 24 is_stmt 0 view .LVU106
 449 0002 044B     		ldr	r3, .L32
 450 0004 BC21     		movs	r1, #188
 451 0006 01FB0033 		mla	r3, r1, r0, r3
 452 000a D878     		ldrb	r0, [r3, #3]	@ zero_extendqisi2
 453              	.LVL32:
 454              		.loc 1 153 24 view .LVU107
 455 000c 7047     		bx	lr
 456              	.LVL33:
 457              	.L31:
 152:SynaptiX_FDK/lib/tinyusb/src/class/cdc/cdc_device.c ****   TU_VERIFY(itf < CFG_TUD_CDC, 0);
 458              		.loc 1 152 3 discriminator 1 view .LVU108
 459 000e 0020     		movs	r0, #0
 460              	.LVL34:
 154:SynaptiX_FDK/lib/tinyusb/src/class/cdc/cdc_device.c **** }
 461              		.loc 1 154 1 view .LVU109
 462 0010 7047     		bx	lr
 463              	.L33:
 464 0012 00BF     		.align	2
 465              	.L32:
 466 0014 00000000 		.word	_cdcd_itf
 467              		.cfi_endproc
 468              	.LFE455:
 470              		.section	.text.tud_cdc_n_get_line_coding,"ax",%progbits
 471              		.align	1
 472              		.global	tud_cdc_n_get_line_coding
 473              		.syntax unified
 474              		.thumb
 475              		.thumb_func
 477              	tud_cdc_n_get_line_coding:
 478              	.LVL35:
 479              	.LFB456:
 155:SynaptiX_FDK/lib/tinyusb/src/class/cdc/cdc_device.c **** 
 156:SynaptiX_FDK/lib/tinyusb/src/class/cdc/cdc_device.c **** void tud_cdc_n_get_line_coding(uint8_t itf, cdc_line_coding_t *coding) {
 480              		.loc 1 156 72 is_stmt 1 view -0
 481              		.cfi_startproc
 482              		@ args = 0, pretend = 0, frame = 0
 483              		@ frame_needed = 0, uses_anonymous_args = 0
 484              		@ link register save eliminated.
 157:SynaptiX_FDK/lib/tinyusb/src/class/cdc/cdc_device.c ****   TU_VERIFY(itf < CFG_TUD_CDC, );
 485              		.loc 1 157 3 view .LVU111
 486              		.loc 1 157 3 view .LVU112
 487 0000 0246     		mov	r2, r0
 488 0002 48B9     		cbnz	r0, .L34
 489              		.loc 1 157 3 view .LVU113
 158:SynaptiX_FDK/lib/tinyusb/src/class/cdc/cdc_device.c ****   (*coding) = _cdcd_itf[itf].line_coding;
 490              		.loc 1 158 3 view .LVU114
 491              		.loc 1 158 13 is_stmt 0 view .LVU115
 492 0004 054B     		ldr	r3, .L36
 493 0006 BC20     		movs	r0, #188
 494              	.LVL36:
 495              		.loc 1 158 13 view .LVU116
 496 0008 00FB0233 		mla	r3, r0, r2, r3
 497 000c 5868     		ldr	r0, [r3, #4]
 498 000e 0860     		str	r0, [r1]	@ unaligned
ARM GAS  C:\Users\DELL\AppData\Local\Temp\ccgExmFy.s 			page 24


 499 0010 1A89     		ldrh	r2, [r3, #8]	@ unaligned
 500              	.LVL37:
 501              		.loc 1 158 13 view .LVU117
 502 0012 9B7A     		ldrb	r3, [r3, #10]	@ zero_extendqisi2
 503 0014 8A80     		strh	r2, [r1, #4]	@ unaligned
 504 0016 8B71     		strb	r3, [r1, #6]
 505              	.L34:
 159:SynaptiX_FDK/lib/tinyusb/src/class/cdc/cdc_device.c **** }
 506              		.loc 1 159 1 view .LVU118
 507 0018 7047     		bx	lr
 508              	.L37:
 509 001a 00BF     		.align	2
 510              	.L36:
 511 001c 00000000 		.word	_cdcd_itf
 512              		.cfi_endproc
 513              	.LFE456:
 515              		.section	.text.tud_cdc_n_set_wanted_char,"ax",%progbits
 516              		.align	1
 517              		.global	tud_cdc_n_set_wanted_char
 518              		.syntax unified
 519              		.thumb
 520              		.thumb_func
 522              	tud_cdc_n_set_wanted_char:
 523              	.LVL38:
 524              	.LFB457:
 160:SynaptiX_FDK/lib/tinyusb/src/class/cdc/cdc_device.c **** 
 161:SynaptiX_FDK/lib/tinyusb/src/class/cdc/cdc_device.c **** #if CFG_TUD_CDC_NOTIFY
 162:SynaptiX_FDK/lib/tinyusb/src/class/cdc/cdc_device.c **** bool tud_cdc_n_notify_msg(uint8_t itf, cdc_notify_msg_t *msg) {
 163:SynaptiX_FDK/lib/tinyusb/src/class/cdc/cdc_device.c ****   TU_VERIFY(itf < CFG_TUD_CDC);
 164:SynaptiX_FDK/lib/tinyusb/src/class/cdc/cdc_device.c ****   const cdcd_interface_t *p_cdc = &_cdcd_itf[itf];
 165:SynaptiX_FDK/lib/tinyusb/src/class/cdc/cdc_device.c ****   TU_VERIFY(tud_ready() && p_cdc->ep_notify != 0);
 166:SynaptiX_FDK/lib/tinyusb/src/class/cdc/cdc_device.c ****   TU_VERIFY(usbd_edpt_claim(p_cdc->rhport, p_cdc->ep_notify));
 167:SynaptiX_FDK/lib/tinyusb/src/class/cdc/cdc_device.c **** 
 168:SynaptiX_FDK/lib/tinyusb/src/class/cdc/cdc_device.c ****     #if CFG_TUD_EDPT_DEDICATED_HWFIFO
 169:SynaptiX_FDK/lib/tinyusb/src/class/cdc/cdc_device.c ****   cdc_notify_msg_t *msg_epbuf = msg;
 170:SynaptiX_FDK/lib/tinyusb/src/class/cdc/cdc_device.c ****     #else
 171:SynaptiX_FDK/lib/tinyusb/src/class/cdc/cdc_device.c ****   cdc_notify_msg_t *msg_epbuf = &_cdcd_epbuf[itf].epnotify;
 172:SynaptiX_FDK/lib/tinyusb/src/class/cdc/cdc_device.c ****   *msg_epbuf                  = *msg;
 173:SynaptiX_FDK/lib/tinyusb/src/class/cdc/cdc_device.c ****     #endif
 174:SynaptiX_FDK/lib/tinyusb/src/class/cdc/cdc_device.c **** 
 175:SynaptiX_FDK/lib/tinyusb/src/class/cdc/cdc_device.c ****   msg_epbuf->request.wIndex = p_cdc->itf_num;
 176:SynaptiX_FDK/lib/tinyusb/src/class/cdc/cdc_device.c **** 
 177:SynaptiX_FDK/lib/tinyusb/src/class/cdc/cdc_device.c ****   return usbd_edpt_xfer(p_cdc->rhport, p_cdc->ep_notify, (uint8_t *)msg_epbuf, 8 + msg_epbuf->reque
 178:SynaptiX_FDK/lib/tinyusb/src/class/cdc/cdc_device.c **** }
 179:SynaptiX_FDK/lib/tinyusb/src/class/cdc/cdc_device.c **** #endif
 180:SynaptiX_FDK/lib/tinyusb/src/class/cdc/cdc_device.c **** 
 181:SynaptiX_FDK/lib/tinyusb/src/class/cdc/cdc_device.c **** void tud_cdc_n_set_wanted_char(uint8_t itf, char wanted) {
 525              		.loc 1 181 58 is_stmt 1 view -0
 526              		.cfi_startproc
 527              		@ args = 0, pretend = 0, frame = 0
 528              		@ frame_needed = 0, uses_anonymous_args = 0
 529              		@ link register save eliminated.
 182:SynaptiX_FDK/lib/tinyusb/src/class/cdc/cdc_device.c ****   TU_VERIFY(itf < CFG_TUD_CDC, );
 530              		.loc 1 182 3 view .LVU120
 531              		.loc 1 182 3 view .LVU121
 532 0000 0246     		mov	r2, r0
 533 0002 20B9     		cbnz	r0, .L38
ARM GAS  C:\Users\DELL\AppData\Local\Temp\ccgExmFy.s 			page 25


 534              		.loc 1 182 3 view .LVU122
 183:SynaptiX_FDK/lib/tinyusb/src/class/cdc/cdc_device.c ****   _cdcd_itf[itf].wanted_char = wanted;
 535              		.loc 1 183 3 view .LVU123
 536              		.loc 1 183 30 is_stmt 0 view .LVU124
 537 0004 024B     		ldr	r3, .L40
 538 0006 BC20     		movs	r0, #188
 539              	.LVL39:
 540              		.loc 1 183 30 view .LVU125
 541 0008 00FB0233 		mla	r3, r0, r2, r3
 542 000c D972     		strb	r1, [r3, #11]
 543              	.L38:
 184:SynaptiX_FDK/lib/tinyusb/src/class/cdc/cdc_device.c **** }
 544              		.loc 1 184 1 view .LVU126
 545 000e 7047     		bx	lr
 546              	.L41:
 547              		.align	2
 548              	.L40:
 549 0010 00000000 		.word	_cdcd_itf
 550              		.cfi_endproc
 551              	.LFE457:
 553              		.section	.text.tud_cdc_n_available,"ax",%progbits
 554              		.align	1
 555              		.global	tud_cdc_n_available
 556              		.syntax unified
 557              		.thumb
 558              		.thumb_func
 560              	tud_cdc_n_available:
 561              	.LVL40:
 562              	.LFB458:
 185:SynaptiX_FDK/lib/tinyusb/src/class/cdc/cdc_device.c **** 
 186:SynaptiX_FDK/lib/tinyusb/src/class/cdc/cdc_device.c **** //--------------------------------------------------------------------+
 187:SynaptiX_FDK/lib/tinyusb/src/class/cdc/cdc_device.c **** // READ API
 188:SynaptiX_FDK/lib/tinyusb/src/class/cdc/cdc_device.c **** //--------------------------------------------------------------------+
 189:SynaptiX_FDK/lib/tinyusb/src/class/cdc/cdc_device.c **** uint32_t tud_cdc_n_available(uint8_t itf) {
 563              		.loc 1 189 43 is_stmt 1 view -0
 564              		.cfi_startproc
 565              		@ args = 0, pretend = 0, frame = 0
 566              		@ frame_needed = 0, uses_anonymous_args = 0
 567              		@ link register save eliminated.
 190:SynaptiX_FDK/lib/tinyusb/src/class/cdc/cdc_device.c ****   TU_VERIFY(itf < CFG_TUD_CDC, 0);
 568              		.loc 1 190 3 view .LVU128
 569              		.loc 1 190 3 view .LVU129
 570 0000 0346     		mov	r3, r0
 571 0002 B8B9     		cbnz	r0, .L46
 572              		.loc 1 190 3 view .LVU130
 191:SynaptiX_FDK/lib/tinyusb/src/class/cdc/cdc_device.c ****   return tu_edpt_stream_read_available(&_cdcd_itf[itf].rx_stream);
 573              		.loc 1 191 3 view .LVU131
 574              		.loc 1 191 40 is_stmt 0 view .LVU132
 575 0004 BC22     		movs	r2, #188
 576 0006 02FB03F3 		mul	r3, r2, r3
 577 000a 2033     		adds	r3, r3, #32
 578 000c 0A4A     		ldr	r2, .L47
 579 000e 1344     		add	r3, r3, r2
 580              	.LVL41:
 581              	.LBB141:
 582              	.LBI141:
 132:SynaptiX_FDK/lib/tinyusb/src/common/tusb_private.h **** }
ARM GAS  C:\Users\DELL\AppData\Local\Temp\ccgExmFy.s 			page 26


 133:SynaptiX_FDK/lib/tinyusb/src/common/tusb_private.h **** 
 134:SynaptiX_FDK/lib/tinyusb/src/common/tusb_private.h **** TU_ATTR_ALWAYS_INLINE static inline void tu_edpt_stream_close(tu_edpt_stream_t* s) {
 135:SynaptiX_FDK/lib/tinyusb/src/common/tusb_private.h ****   s->ep_addr = 0;
 136:SynaptiX_FDK/lib/tinyusb/src/common/tusb_private.h **** }
 137:SynaptiX_FDK/lib/tinyusb/src/common/tusb_private.h **** 
 138:SynaptiX_FDK/lib/tinyusb/src/common/tusb_private.h **** TU_ATTR_ALWAYS_INLINE static inline void tu_edpt_stream_clear(tu_edpt_stream_t *s) {
 139:SynaptiX_FDK/lib/tinyusb/src/common/tusb_private.h ****   tu_fifo_clear(&s->ff);
 140:SynaptiX_FDK/lib/tinyusb/src/common/tusb_private.h **** }
 141:SynaptiX_FDK/lib/tinyusb/src/common/tusb_private.h **** 
 142:SynaptiX_FDK/lib/tinyusb/src/common/tusb_private.h **** TU_ATTR_ALWAYS_INLINE static inline bool tu_edpt_stream_empty(tu_edpt_stream_t *s) {
 143:SynaptiX_FDK/lib/tinyusb/src/common/tusb_private.h ****   return tu_fifo_empty(&s->ff);
 144:SynaptiX_FDK/lib/tinyusb/src/common/tusb_private.h **** }
 145:SynaptiX_FDK/lib/tinyusb/src/common/tusb_private.h **** 
 146:SynaptiX_FDK/lib/tinyusb/src/common/tusb_private.h **** //--------------------------------------------------------------------+
 147:SynaptiX_FDK/lib/tinyusb/src/common/tusb_private.h **** // Stream Write
 148:SynaptiX_FDK/lib/tinyusb/src/common/tusb_private.h **** //--------------------------------------------------------------------+
 149:SynaptiX_FDK/lib/tinyusb/src/common/tusb_private.h **** 
 150:SynaptiX_FDK/lib/tinyusb/src/common/tusb_private.h **** // Write to stream
 151:SynaptiX_FDK/lib/tinyusb/src/common/tusb_private.h **** uint32_t tu_edpt_stream_write(tu_edpt_stream_t *s, const void *buffer, uint32_t bufsize);
 152:SynaptiX_FDK/lib/tinyusb/src/common/tusb_private.h **** 
 153:SynaptiX_FDK/lib/tinyusb/src/common/tusb_private.h **** // Start an usb transfer if endpoint is not busy. Return number of queued bytes
 154:SynaptiX_FDK/lib/tinyusb/src/common/tusb_private.h **** uint32_t tu_edpt_stream_write_xfer(tu_edpt_stream_t *s);
 155:SynaptiX_FDK/lib/tinyusb/src/common/tusb_private.h **** 
 156:SynaptiX_FDK/lib/tinyusb/src/common/tusb_private.h **** // Start an zero-length packet if needed
 157:SynaptiX_FDK/lib/tinyusb/src/common/tusb_private.h **** bool tu_edpt_stream_write_zlp_if_needed(tu_edpt_stream_t *s, uint32_t last_xferred_bytes);
 158:SynaptiX_FDK/lib/tinyusb/src/common/tusb_private.h **** 
 159:SynaptiX_FDK/lib/tinyusb/src/common/tusb_private.h **** // Get the number of bytes available for writing to FIFO
 160:SynaptiX_FDK/lib/tinyusb/src/common/tusb_private.h **** // Note: if no fifo, return endpoint size if not busy, 0 otherwise
 161:SynaptiX_FDK/lib/tinyusb/src/common/tusb_private.h **** uint32_t tu_edpt_stream_write_available(tu_edpt_stream_t *s);
 162:SynaptiX_FDK/lib/tinyusb/src/common/tusb_private.h **** 
 163:SynaptiX_FDK/lib/tinyusb/src/common/tusb_private.h **** //--------------------------------------------------------------------+
 164:SynaptiX_FDK/lib/tinyusb/src/common/tusb_private.h **** // Stream Read
 165:SynaptiX_FDK/lib/tinyusb/src/common/tusb_private.h **** //--------------------------------------------------------------------+
 166:SynaptiX_FDK/lib/tinyusb/src/common/tusb_private.h **** 
 167:SynaptiX_FDK/lib/tinyusb/src/common/tusb_private.h **** // Read from stream
 168:SynaptiX_FDK/lib/tinyusb/src/common/tusb_private.h **** uint32_t tu_edpt_stream_read(tu_edpt_stream_t *s, void *buffer, uint32_t bufsize);
 169:SynaptiX_FDK/lib/tinyusb/src/common/tusb_private.h **** 
 170:SynaptiX_FDK/lib/tinyusb/src/common/tusb_private.h **** // Start an usb transfer if endpoint is not busy
 171:SynaptiX_FDK/lib/tinyusb/src/common/tusb_private.h **** uint32_t tu_edpt_stream_read_xfer(tu_edpt_stream_t *s);
 172:SynaptiX_FDK/lib/tinyusb/src/common/tusb_private.h **** 
 173:SynaptiX_FDK/lib/tinyusb/src/common/tusb_private.h **** // Complete read transfer by writing EP -> FIFO. Must be called in the transfer complete callback
 174:SynaptiX_FDK/lib/tinyusb/src/common/tusb_private.h **** TU_ATTR_ALWAYS_INLINE static inline
 175:SynaptiX_FDK/lib/tinyusb/src/common/tusb_private.h **** void tu_edpt_stream_read_xfer_complete(tu_edpt_stream_t* s, uint32_t xferred_bytes) {
 176:SynaptiX_FDK/lib/tinyusb/src/common/tusb_private.h ****   if (s->ep_buf != NULL) {
 177:SynaptiX_FDK/lib/tinyusb/src/common/tusb_private.h ****     tu_fifo_write_n(&s->ff, s->ep_buf, (uint16_t)xferred_bytes);
 178:SynaptiX_FDK/lib/tinyusb/src/common/tusb_private.h ****   }
 179:SynaptiX_FDK/lib/tinyusb/src/common/tusb_private.h **** }
 180:SynaptiX_FDK/lib/tinyusb/src/common/tusb_private.h **** 
 181:SynaptiX_FDK/lib/tinyusb/src/common/tusb_private.h **** // Complete read transfer with provided buffer
 182:SynaptiX_FDK/lib/tinyusb/src/common/tusb_private.h **** TU_ATTR_ALWAYS_INLINE static inline
 183:SynaptiX_FDK/lib/tinyusb/src/common/tusb_private.h **** void tu_edpt_stream_read_xfer_complete_with_buf(tu_edpt_stream_t *s, const void *buf, uint32_t xfer
 184:SynaptiX_FDK/lib/tinyusb/src/common/tusb_private.h ****   tu_fifo_write_n(&s->ff, buf, (uint16_t)xferred_bytes);
 185:SynaptiX_FDK/lib/tinyusb/src/common/tusb_private.h **** }
 186:SynaptiX_FDK/lib/tinyusb/src/common/tusb_private.h **** 
 187:SynaptiX_FDK/lib/tinyusb/src/common/tusb_private.h **** // Get the number of bytes available for reading
 188:SynaptiX_FDK/lib/tinyusb/src/common/tusb_private.h **** TU_ATTR_ALWAYS_INLINE static inline uint32_t tu_edpt_stream_read_available(const tu_edpt_stream_t *
 583              		.loc 4 188 46 is_stmt 1 view .LVU133
ARM GAS  C:\Users\DELL\AppData\Local\Temp\ccgExmFy.s 			page 27


 584              	.LBB142:
 189:SynaptiX_FDK/lib/tinyusb/src/common/tusb_private.h ****   return (uint32_t) tu_fifo_count(&s->ff);
 585              		.loc 4 189 3 view .LVU134
 586              	.LBB143:
 587              	.LBI143:
 588              		.file 6 "SynaptiX_FDK/lib/tinyusb/src/common/tusb_fifo.h"
   1:SynaptiX_FDK/lib/tinyusb/src/common/tusb_fifo.h **** /*
   2:SynaptiX_FDK/lib/tinyusb/src/common/tusb_fifo.h ****  * The MIT License (MIT)
   3:SynaptiX_FDK/lib/tinyusb/src/common/tusb_fifo.h ****  *
   4:SynaptiX_FDK/lib/tinyusb/src/common/tusb_fifo.h ****  * Copyright (c) 2019 Ha Thach (tinyusb.org)
   5:SynaptiX_FDK/lib/tinyusb/src/common/tusb_fifo.h ****  * Copyright (c) 2020 Reinhard Panhuber - rework to unmasked pointers
   6:SynaptiX_FDK/lib/tinyusb/src/common/tusb_fifo.h ****  *
   7:SynaptiX_FDK/lib/tinyusb/src/common/tusb_fifo.h ****  * Permission is hereby granted, free of charge, to any person obtaining a copy
   8:SynaptiX_FDK/lib/tinyusb/src/common/tusb_fifo.h ****  * of this software and associated documentation files (the "Software"), to deal
   9:SynaptiX_FDK/lib/tinyusb/src/common/tusb_fifo.h ****  * in the Software without restriction, including without limitation the rights
  10:SynaptiX_FDK/lib/tinyusb/src/common/tusb_fifo.h ****  * to use, copy, modify, merge, publish, distribute, sublicense, and/or sell
  11:SynaptiX_FDK/lib/tinyusb/src/common/tusb_fifo.h ****  * copies of the Software, and to permit persons to whom the Software is
  12:SynaptiX_FDK/lib/tinyusb/src/common/tusb_fifo.h ****  * furnished to do so, subject to the following conditions:
  13:SynaptiX_FDK/lib/tinyusb/src/common/tusb_fifo.h ****  *
  14:SynaptiX_FDK/lib/tinyusb/src/common/tusb_fifo.h ****  * The above copyright notice and this permission notice shall be included in
  15:SynaptiX_FDK/lib/tinyusb/src/common/tusb_fifo.h ****  * all copies or substantial portions of the Software.
  16:SynaptiX_FDK/lib/tinyusb/src/common/tusb_fifo.h ****  *
  17:SynaptiX_FDK/lib/tinyusb/src/common/tusb_fifo.h ****  * THE SOFTWARE IS PROVIDED "AS IS", WITHOUT WARRANTY OF ANY KIND, EXPRESS OR
  18:SynaptiX_FDK/lib/tinyusb/src/common/tusb_fifo.h ****  * IMPLIED, INCLUDING BUT NOT LIMITED TO THE WARRANTIES OF MERCHANTABILITY,
  19:SynaptiX_FDK/lib/tinyusb/src/common/tusb_fifo.h ****  * FITNESS FOR A PARTICULAR PURPOSE AND NONINFRINGEMENT. IN NO EVENT SHALL THE
  20:SynaptiX_FDK/lib/tinyusb/src/common/tusb_fifo.h ****  * AUTHORS OR COPYRIGHT HOLDERS BE LIABLE FOR ANY CLAIM, DAMAGES OR OTHER
  21:SynaptiX_FDK/lib/tinyusb/src/common/tusb_fifo.h ****  * LIABILITY, WHETHER IN AN ACTION OF CONTRACT, TORT OR OTHERWISE, ARISING FROM,
  22:SynaptiX_FDK/lib/tinyusb/src/common/tusb_fifo.h ****  * OUT OF OR IN CONNECTION WITH THE SOFTWARE OR THE USE OR OTHER DEALINGS IN
  23:SynaptiX_FDK/lib/tinyusb/src/common/tusb_fifo.h ****  * THE SOFTWARE.
  24:SynaptiX_FDK/lib/tinyusb/src/common/tusb_fifo.h ****  *
  25:SynaptiX_FDK/lib/tinyusb/src/common/tusb_fifo.h ****  * This file is part of the TinyUSB stack.
  26:SynaptiX_FDK/lib/tinyusb/src/common/tusb_fifo.h ****  */
  27:SynaptiX_FDK/lib/tinyusb/src/common/tusb_fifo.h **** 
  28:SynaptiX_FDK/lib/tinyusb/src/common/tusb_fifo.h **** #ifndef TUSB_FIFO_H_
  29:SynaptiX_FDK/lib/tinyusb/src/common/tusb_fifo.h **** #define TUSB_FIFO_H_
  30:SynaptiX_FDK/lib/tinyusb/src/common/tusb_fifo.h **** 
  31:SynaptiX_FDK/lib/tinyusb/src/common/tusb_fifo.h **** #ifdef __cplusplus
  32:SynaptiX_FDK/lib/tinyusb/src/common/tusb_fifo.h **** extern "C" {
  33:SynaptiX_FDK/lib/tinyusb/src/common/tusb_fifo.h **** #endif
  34:SynaptiX_FDK/lib/tinyusb/src/common/tusb_fifo.h **** 
  35:SynaptiX_FDK/lib/tinyusb/src/common/tusb_fifo.h **** #include "common/tusb_common.h"
  36:SynaptiX_FDK/lib/tinyusb/src/common/tusb_fifo.h **** #include "osal/osal.h"
  37:SynaptiX_FDK/lib/tinyusb/src/common/tusb_fifo.h **** 
  38:SynaptiX_FDK/lib/tinyusb/src/common/tusb_fifo.h **** //--------------------------------------------------------------------+
  39:SynaptiX_FDK/lib/tinyusb/src/common/tusb_fifo.h **** // Configuration
  40:SynaptiX_FDK/lib/tinyusb/src/common/tusb_fifo.h **** //--------------------------------------------------------------------+
  41:SynaptiX_FDK/lib/tinyusb/src/common/tusb_fifo.h **** // mutex is only needed for RTOS. For OS None, we don't get preempted
  42:SynaptiX_FDK/lib/tinyusb/src/common/tusb_fifo.h **** #define CFG_FIFO_MUTEX      OSAL_MUTEX_REQUIRED
  43:SynaptiX_FDK/lib/tinyusb/src/common/tusb_fifo.h **** 
  44:SynaptiX_FDK/lib/tinyusb/src/common/tusb_fifo.h **** #define CFG_TUSB_FIFO_HWFIFO_API (CFG_TUD_EDPT_DEDICATED_HWFIFO || CFG_TUH_EDPT_DEDICATED_HWFIFO)
  45:SynaptiX_FDK/lib/tinyusb/src/common/tusb_fifo.h **** 
  46:SynaptiX_FDK/lib/tinyusb/src/common/tusb_fifo.h **** #ifndef CFG_TUSB_FIFO_HWFIFO_DATA_STRIDE
  47:SynaptiX_FDK/lib/tinyusb/src/common/tusb_fifo.h ****   #define CFG_TUSB_FIFO_HWFIFO_DATA_STRIDE 0
  48:SynaptiX_FDK/lib/tinyusb/src/common/tusb_fifo.h **** #endif
  49:SynaptiX_FDK/lib/tinyusb/src/common/tusb_fifo.h **** 
  50:SynaptiX_FDK/lib/tinyusb/src/common/tusb_fifo.h **** #ifndef CFG_TUSB_FIFO_HWFIFO_ADDR_STRIDE
  51:SynaptiX_FDK/lib/tinyusb/src/common/tusb_fifo.h ****   #define CFG_TUSB_FIFO_HWFIFO_ADDR_STRIDE 0
ARM GAS  C:\Users\DELL\AppData\Local\Temp\ccgExmFy.s 			page 28


  52:SynaptiX_FDK/lib/tinyusb/src/common/tusb_fifo.h **** #endif
  53:SynaptiX_FDK/lib/tinyusb/src/common/tusb_fifo.h **** 
  54:SynaptiX_FDK/lib/tinyusb/src/common/tusb_fifo.h **** // Due to the use of unmasked pointers, this FIFO does not suffer from losing
  55:SynaptiX_FDK/lib/tinyusb/src/common/tusb_fifo.h **** // one item slice. Furthermore, write and read operations are completely
  56:SynaptiX_FDK/lib/tinyusb/src/common/tusb_fifo.h **** // decoupled as write and read functions do not modify a common state. Henceforth,
  57:SynaptiX_FDK/lib/tinyusb/src/common/tusb_fifo.h **** // writing or reading from the FIFO within an ISR is safe as long as no other
  58:SynaptiX_FDK/lib/tinyusb/src/common/tusb_fifo.h **** // process (thread or ISR) interferes.
  59:SynaptiX_FDK/lib/tinyusb/src/common/tusb_fifo.h **** // Also, this FIFO is ready to be used in combination with a DMA as the write and
  60:SynaptiX_FDK/lib/tinyusb/src/common/tusb_fifo.h **** // read pointers can be updated from within a DMA ISR. Overflows are detectable
  61:SynaptiX_FDK/lib/tinyusb/src/common/tusb_fifo.h **** // within a certain number (see tu_fifo_overflow()).
  62:SynaptiX_FDK/lib/tinyusb/src/common/tusb_fifo.h **** 
  63:SynaptiX_FDK/lib/tinyusb/src/common/tusb_fifo.h **** /* Write/Read "pointer" is in the range of: 0 .. depth - 1, and is used to get the fifo data.
  64:SynaptiX_FDK/lib/tinyusb/src/common/tusb_fifo.h ****  * Write/Read "index" is always in the range of: 0 .. 2*depth-1
  65:SynaptiX_FDK/lib/tinyusb/src/common/tusb_fifo.h ****  *
  66:SynaptiX_FDK/lib/tinyusb/src/common/tusb_fifo.h ****  * The extra window allow us to determine the fifo state of empty or full with only 2 indices
  67:SynaptiX_FDK/lib/tinyusb/src/common/tusb_fifo.h ****  * Following are examples with depth = 3
  68:SynaptiX_FDK/lib/tinyusb/src/common/tusb_fifo.h ****  *
  69:SynaptiX_FDK/lib/tinyusb/src/common/tusb_fifo.h ****  * - empty: W = R
  70:SynaptiX_FDK/lib/tinyusb/src/common/tusb_fifo.h ****  *                |
  71:SynaptiX_FDK/lib/tinyusb/src/common/tusb_fifo.h ****  *    -------------------------
  72:SynaptiX_FDK/lib/tinyusb/src/common/tusb_fifo.h ****  *    | 0 | RW| 2 | 3 | 4 | 5 |
  73:SynaptiX_FDK/lib/tinyusb/src/common/tusb_fifo.h ****  *
  74:SynaptiX_FDK/lib/tinyusb/src/common/tusb_fifo.h ****  * - full 1: W > R
  75:SynaptiX_FDK/lib/tinyusb/src/common/tusb_fifo.h ****  *                |
  76:SynaptiX_FDK/lib/tinyusb/src/common/tusb_fifo.h ****  *    -------------------------
  77:SynaptiX_FDK/lib/tinyusb/src/common/tusb_fifo.h ****  *    | 0 | R | 2 | 3 | W | 5 |
  78:SynaptiX_FDK/lib/tinyusb/src/common/tusb_fifo.h ****  *
  79:SynaptiX_FDK/lib/tinyusb/src/common/tusb_fifo.h ****  * - full 2: W < R
  80:SynaptiX_FDK/lib/tinyusb/src/common/tusb_fifo.h ****  *                |
  81:SynaptiX_FDK/lib/tinyusb/src/common/tusb_fifo.h ****  *    -------------------------
  82:SynaptiX_FDK/lib/tinyusb/src/common/tusb_fifo.h ****  *    | 0 | 1 | W | 3 | 4 | R |
  83:SynaptiX_FDK/lib/tinyusb/src/common/tusb_fifo.h ****  *
  84:SynaptiX_FDK/lib/tinyusb/src/common/tusb_fifo.h ****  * - Number of items in the fifo can be determined in either cases:
  85:SynaptiX_FDK/lib/tinyusb/src/common/tusb_fifo.h ****  *    - case W >= R: Count = W - R
  86:SynaptiX_FDK/lib/tinyusb/src/common/tusb_fifo.h ****  *    - case W <  R: Count = 2*depth - (R - W)
  87:SynaptiX_FDK/lib/tinyusb/src/common/tusb_fifo.h ****  *
  88:SynaptiX_FDK/lib/tinyusb/src/common/tusb_fifo.h ****  * In non-overwritable mode, computed Count (in above 2 cases) is at most equal to depth.
  89:SynaptiX_FDK/lib/tinyusb/src/common/tusb_fifo.h ****  * However, in over-writable mode, write index can be repeatedly increased and count can be
  90:SynaptiX_FDK/lib/tinyusb/src/common/tusb_fifo.h ****  * temporarily larger than depth (overflowed condition) e.g
  91:SynaptiX_FDK/lib/tinyusb/src/common/tusb_fifo.h ****  *
  92:SynaptiX_FDK/lib/tinyusb/src/common/tusb_fifo.h ****  *  - Overflowed 1: write(3), write(1)
  93:SynaptiX_FDK/lib/tinyusb/src/common/tusb_fifo.h ****  *    In this case we will adjust Read index when read()/peek() is called so that count = depth.
  94:SynaptiX_FDK/lib/tinyusb/src/common/tusb_fifo.h ****  *                  |
  95:SynaptiX_FDK/lib/tinyusb/src/common/tusb_fifo.h ****  *      -------------------------
  96:SynaptiX_FDK/lib/tinyusb/src/common/tusb_fifo.h ****  *      | R | 1 | 2 | 3 | W | 5 |
  97:SynaptiX_FDK/lib/tinyusb/src/common/tusb_fifo.h ****  *
  98:SynaptiX_FDK/lib/tinyusb/src/common/tusb_fifo.h ****  *  - Double Overflowed i.e index is out of allowed range [0,2*depth)
  99:SynaptiX_FDK/lib/tinyusb/src/common/tusb_fifo.h ****  *    This occurs when we continue to write after 1st overflowed to 2nd overflowed. e.g:
 100:SynaptiX_FDK/lib/tinyusb/src/common/tusb_fifo.h ****  *      write(3), write(1), write(2)
 101:SynaptiX_FDK/lib/tinyusb/src/common/tusb_fifo.h ****  *    This must be prevented since it will cause unrecoverable state, in above example
 102:SynaptiX_FDK/lib/tinyusb/src/common/tusb_fifo.h ****  *    if not handled the fifo will be empty instead of continue-to-be full. Since we must not modif
 103:SynaptiX_FDK/lib/tinyusb/src/common/tusb_fifo.h ****  *    read index in write() function, which cause race condition. We will re-position write index s
 104:SynaptiX_FDK/lib/tinyusb/src/common/tusb_fifo.h ****  *    after data is written it is a full fifo i.e W = depth - R
 105:SynaptiX_FDK/lib/tinyusb/src/common/tusb_fifo.h ****  *
 106:SynaptiX_FDK/lib/tinyusb/src/common/tusb_fifo.h ****  *      re-position W = 1 before write(2)
 107:SynaptiX_FDK/lib/tinyusb/src/common/tusb_fifo.h ****  *      Note: we should also move data from mem[3] to read index as well, but deliberately skipped 
 108:SynaptiX_FDK/lib/tinyusb/src/common/tusb_fifo.h ****  *      since it is an expensive operation !!!
ARM GAS  C:\Users\DELL\AppData\Local\Temp\ccgExmFy.s 			page 29


 109:SynaptiX_FDK/lib/tinyusb/src/common/tusb_fifo.h ****  *                  |
 110:SynaptiX_FDK/lib/tinyusb/src/common/tusb_fifo.h ****  *      -------------------------
 111:SynaptiX_FDK/lib/tinyusb/src/common/tusb_fifo.h ****  *      | R | W | 2 | 3 | 4 | 5 |
 112:SynaptiX_FDK/lib/tinyusb/src/common/tusb_fifo.h ****  *
 113:SynaptiX_FDK/lib/tinyusb/src/common/tusb_fifo.h ****  *      perform write(2), result is still a full fifo.
 114:SynaptiX_FDK/lib/tinyusb/src/common/tusb_fifo.h ****  *
 115:SynaptiX_FDK/lib/tinyusb/src/common/tusb_fifo.h ****  *                  |
 116:SynaptiX_FDK/lib/tinyusb/src/common/tusb_fifo.h ****  *      -------------------------
 117:SynaptiX_FDK/lib/tinyusb/src/common/tusb_fifo.h ****  *      | R | 1 | 2 | W | 4 | 5 |
 118:SynaptiX_FDK/lib/tinyusb/src/common/tusb_fifo.h ****  */
 119:SynaptiX_FDK/lib/tinyusb/src/common/tusb_fifo.h **** typedef struct {
 120:SynaptiX_FDK/lib/tinyusb/src/common/tusb_fifo.h ****   uint8_t *buffer;              // buffer pointer
 121:SynaptiX_FDK/lib/tinyusb/src/common/tusb_fifo.h ****   uint16_t depth;               // max items
 122:SynaptiX_FDK/lib/tinyusb/src/common/tusb_fifo.h ****   bool     overwritable;        // overwritable when full
 123:SynaptiX_FDK/lib/tinyusb/src/common/tusb_fifo.h ****   // 1 byte padding here
 124:SynaptiX_FDK/lib/tinyusb/src/common/tusb_fifo.h **** 
 125:SynaptiX_FDK/lib/tinyusb/src/common/tusb_fifo.h ****   volatile uint16_t wr_idx;     // write index
 126:SynaptiX_FDK/lib/tinyusb/src/common/tusb_fifo.h ****   volatile uint16_t rd_idx;     // read index
 127:SynaptiX_FDK/lib/tinyusb/src/common/tusb_fifo.h **** 
 128:SynaptiX_FDK/lib/tinyusb/src/common/tusb_fifo.h **** #if OSAL_MUTEX_REQUIRED
 129:SynaptiX_FDK/lib/tinyusb/src/common/tusb_fifo.h ****   osal_mutex_t mutex_wr;
 130:SynaptiX_FDK/lib/tinyusb/src/common/tusb_fifo.h ****   osal_mutex_t mutex_rd;
 131:SynaptiX_FDK/lib/tinyusb/src/common/tusb_fifo.h **** #endif
 132:SynaptiX_FDK/lib/tinyusb/src/common/tusb_fifo.h **** } tu_fifo_t;
 133:SynaptiX_FDK/lib/tinyusb/src/common/tusb_fifo.h **** 
 134:SynaptiX_FDK/lib/tinyusb/src/common/tusb_fifo.h **** typedef struct {
 135:SynaptiX_FDK/lib/tinyusb/src/common/tusb_fifo.h ****   struct {
 136:SynaptiX_FDK/lib/tinyusb/src/common/tusb_fifo.h ****     uint16_t len; // length
 137:SynaptiX_FDK/lib/tinyusb/src/common/tusb_fifo.h ****     uint8_t *ptr; // buffer pointer
 138:SynaptiX_FDK/lib/tinyusb/src/common/tusb_fifo.h ****   } linear, wrapped;
 139:SynaptiX_FDK/lib/tinyusb/src/common/tusb_fifo.h **** } tu_fifo_buffer_info_t;
 140:SynaptiX_FDK/lib/tinyusb/src/common/tusb_fifo.h **** 
 141:SynaptiX_FDK/lib/tinyusb/src/common/tusb_fifo.h **** // Access mode for hardware fifo read/write
 142:SynaptiX_FDK/lib/tinyusb/src/common/tusb_fifo.h **** typedef struct {
 143:SynaptiX_FDK/lib/tinyusb/src/common/tusb_fifo.h ****   uint8_t   data_stride;
 144:SynaptiX_FDK/lib/tinyusb/src/common/tusb_fifo.h ****   uintptr_t param;
 145:SynaptiX_FDK/lib/tinyusb/src/common/tusb_fifo.h **** } tu_hwfifo_access_t;
 146:SynaptiX_FDK/lib/tinyusb/src/common/tusb_fifo.h **** 
 147:SynaptiX_FDK/lib/tinyusb/src/common/tusb_fifo.h **** #define TU_FIFO_INIT(_buffer, _depth, _overwritable) \
 148:SynaptiX_FDK/lib/tinyusb/src/common/tusb_fifo.h ****   {                                                  \
 149:SynaptiX_FDK/lib/tinyusb/src/common/tusb_fifo.h ****     .buffer       = _buffer,                         \
 150:SynaptiX_FDK/lib/tinyusb/src/common/tusb_fifo.h ****     .depth        = _depth,                          \
 151:SynaptiX_FDK/lib/tinyusb/src/common/tusb_fifo.h ****     .overwritable = _overwritable,                   \
 152:SynaptiX_FDK/lib/tinyusb/src/common/tusb_fifo.h ****   }
 153:SynaptiX_FDK/lib/tinyusb/src/common/tusb_fifo.h **** 
 154:SynaptiX_FDK/lib/tinyusb/src/common/tusb_fifo.h **** #define TU_FIFO_DEF(_name, _depth, _overwritable)                    \
 155:SynaptiX_FDK/lib/tinyusb/src/common/tusb_fifo.h ****   uint8_t   _name##_buf[_depth];                                     \
 156:SynaptiX_FDK/lib/tinyusb/src/common/tusb_fifo.h ****   tu_fifo_t _name = TU_FIFO_INIT(_name##_buf, _depth, _overwritable)
 157:SynaptiX_FDK/lib/tinyusb/src/common/tusb_fifo.h **** 
 158:SynaptiX_FDK/lib/tinyusb/src/common/tusb_fifo.h **** // Moving data from tusb_fifo <-> USB hardware FIFOs e.g. STM32s need to use a special stride mode 
 159:SynaptiX_FDK/lib/tinyusb/src/common/tusb_fifo.h **** // data in 2/4 byte chunks from/to a fixed address (USB FIFO register) instead of incrementing the 
 160:SynaptiX_FDK/lib/tinyusb/src/common/tusb_fifo.h **** // read/write access_mode with stride_mode = true. The STRIDE DATA and ADDR stride must be configur
 161:SynaptiX_FDK/lib/tinyusb/src/common/tusb_fifo.h **** // CFG_TUSB_FIFO_HWFIFO_DATA_STRIDE and CFG_TUSB_FIFO_HWFIFO_ADDR_STRIDE
 162:SynaptiX_FDK/lib/tinyusb/src/common/tusb_fifo.h **** 
 163:SynaptiX_FDK/lib/tinyusb/src/common/tusb_fifo.h **** //--------------------------------------------------------------------+
 164:SynaptiX_FDK/lib/tinyusb/src/common/tusb_fifo.h **** // Setup API
 165:SynaptiX_FDK/lib/tinyusb/src/common/tusb_fifo.h **** //--------------------------------------------------------------------+
ARM GAS  C:\Users\DELL\AppData\Local\Temp\ccgExmFy.s 			page 30


 166:SynaptiX_FDK/lib/tinyusb/src/common/tusb_fifo.h **** bool tu_fifo_config(tu_fifo_t *f, void *buffer, uint16_t depth, bool overwritable);
 167:SynaptiX_FDK/lib/tinyusb/src/common/tusb_fifo.h **** void tu_fifo_set_overwritable(tu_fifo_t *f, bool overwritable);
 168:SynaptiX_FDK/lib/tinyusb/src/common/tusb_fifo.h **** void tu_fifo_clear(tu_fifo_t *f);
 169:SynaptiX_FDK/lib/tinyusb/src/common/tusb_fifo.h **** 
 170:SynaptiX_FDK/lib/tinyusb/src/common/tusb_fifo.h **** #if OSAL_MUTEX_REQUIRED
 171:SynaptiX_FDK/lib/tinyusb/src/common/tusb_fifo.h **** TU_ATTR_ALWAYS_INLINE static inline
 172:SynaptiX_FDK/lib/tinyusb/src/common/tusb_fifo.h **** void tu_fifo_config_mutex(tu_fifo_t *f, osal_mutex_t wr_mutex, osal_mutex_t rd_mutex) {
 173:SynaptiX_FDK/lib/tinyusb/src/common/tusb_fifo.h ****   f->mutex_wr = wr_mutex;
 174:SynaptiX_FDK/lib/tinyusb/src/common/tusb_fifo.h ****   f->mutex_rd = rd_mutex;
 175:SynaptiX_FDK/lib/tinyusb/src/common/tusb_fifo.h **** }
 176:SynaptiX_FDK/lib/tinyusb/src/common/tusb_fifo.h **** #else
 177:SynaptiX_FDK/lib/tinyusb/src/common/tusb_fifo.h **** #define tu_fifo_config_mutex(_f, _wr_mutex, _rd_mutex)
 178:SynaptiX_FDK/lib/tinyusb/src/common/tusb_fifo.h **** #endif
 179:SynaptiX_FDK/lib/tinyusb/src/common/tusb_fifo.h **** 
 180:SynaptiX_FDK/lib/tinyusb/src/common/tusb_fifo.h **** //--------------------------------------------------------------------+
 181:SynaptiX_FDK/lib/tinyusb/src/common/tusb_fifo.h **** // Index API
 182:SynaptiX_FDK/lib/tinyusb/src/common/tusb_fifo.h **** //--------------------------------------------------------------------+
 183:SynaptiX_FDK/lib/tinyusb/src/common/tusb_fifo.h **** void tu_fifo_correct_read_pointer(tu_fifo_t *f);
 184:SynaptiX_FDK/lib/tinyusb/src/common/tusb_fifo.h **** 
 185:SynaptiX_FDK/lib/tinyusb/src/common/tusb_fifo.h **** // Pointer modifications intended to be used in combinations with DMAs.
 186:SynaptiX_FDK/lib/tinyusb/src/common/tusb_fifo.h **** // USE WITH CARE - NO SAFETY CHECKS CONDUCTED HERE! NOT MUTEX PROTECTED!
 187:SynaptiX_FDK/lib/tinyusb/src/common/tusb_fifo.h **** void tu_fifo_advance_write_pointer(tu_fifo_t *f, uint16_t n);
 188:SynaptiX_FDK/lib/tinyusb/src/common/tusb_fifo.h **** void tu_fifo_advance_read_pointer(tu_fifo_t *f, uint16_t n);
 189:SynaptiX_FDK/lib/tinyusb/src/common/tusb_fifo.h **** 
 190:SynaptiX_FDK/lib/tinyusb/src/common/tusb_fifo.h **** // If you want to read/write from/to the FIFO by use of a DMA, you may need to conduct two copies
 191:SynaptiX_FDK/lib/tinyusb/src/common/tusb_fifo.h **** // to handle a possible wrapping part. These functions deliver a pointer to start
 192:SynaptiX_FDK/lib/tinyusb/src/common/tusb_fifo.h **** // reading/writing from/to and a valid linear length along which no wrap occurs.
 193:SynaptiX_FDK/lib/tinyusb/src/common/tusb_fifo.h **** void tu_fifo_get_read_info(tu_fifo_t *f, tu_fifo_buffer_info_t *info);
 194:SynaptiX_FDK/lib/tinyusb/src/common/tusb_fifo.h **** void tu_fifo_get_write_info(tu_fifo_t *f, tu_fifo_buffer_info_t *info);
 195:SynaptiX_FDK/lib/tinyusb/src/common/tusb_fifo.h **** 
 196:SynaptiX_FDK/lib/tinyusb/src/common/tusb_fifo.h **** //--------------------------------------------------------------------+
 197:SynaptiX_FDK/lib/tinyusb/src/common/tusb_fifo.h **** // Peek API
 198:SynaptiX_FDK/lib/tinyusb/src/common/tusb_fifo.h **** // peek() will correct/re-index read pointer in case of an overflowed fifo to form a full fifo
 199:SynaptiX_FDK/lib/tinyusb/src/common/tusb_fifo.h **** //--------------------------------------------------------------------+
 200:SynaptiX_FDK/lib/tinyusb/src/common/tusb_fifo.h **** uint16_t tu_fifo_peek_n_access_mode(tu_fifo_t *f, void *p_buffer, uint16_t n, uint16_t wr_idx, uint
 201:SynaptiX_FDK/lib/tinyusb/src/common/tusb_fifo.h ****                                     const tu_hwfifo_access_t *access_mode);
 202:SynaptiX_FDK/lib/tinyusb/src/common/tusb_fifo.h **** bool     tu_fifo_peek(tu_fifo_t *f, void *p_buffer);
 203:SynaptiX_FDK/lib/tinyusb/src/common/tusb_fifo.h **** uint16_t tu_fifo_peek_n(tu_fifo_t *f, void *p_buffer, uint16_t n);
 204:SynaptiX_FDK/lib/tinyusb/src/common/tusb_fifo.h **** 
 205:SynaptiX_FDK/lib/tinyusb/src/common/tusb_fifo.h **** //--------------------------------------------------------------------+
 206:SynaptiX_FDK/lib/tinyusb/src/common/tusb_fifo.h **** // Read API
 207:SynaptiX_FDK/lib/tinyusb/src/common/tusb_fifo.h **** // peek() + advance read index
 208:SynaptiX_FDK/lib/tinyusb/src/common/tusb_fifo.h **** //--------------------------------------------------------------------+
 209:SynaptiX_FDK/lib/tinyusb/src/common/tusb_fifo.h **** uint16_t tu_fifo_read_n_access_mode(tu_fifo_t *f, void *buffer, uint16_t n, const tu_hwfifo_access_
 210:SynaptiX_FDK/lib/tinyusb/src/common/tusb_fifo.h **** bool     tu_fifo_read(tu_fifo_t *f, void *buffer);
 211:SynaptiX_FDK/lib/tinyusb/src/common/tusb_fifo.h **** TU_ATTR_ALWAYS_INLINE static inline uint16_t tu_fifo_read_n(tu_fifo_t *f, void *buffer, uint16_t n)
 212:SynaptiX_FDK/lib/tinyusb/src/common/tusb_fifo.h ****   return tu_fifo_read_n_access_mode(f, buffer, n, NULL);
 213:SynaptiX_FDK/lib/tinyusb/src/common/tusb_fifo.h **** }
 214:SynaptiX_FDK/lib/tinyusb/src/common/tusb_fifo.h **** 
 215:SynaptiX_FDK/lib/tinyusb/src/common/tusb_fifo.h **** // discard first n items from fifo i.e advance read pointer by n with mutex
 216:SynaptiX_FDK/lib/tinyusb/src/common/tusb_fifo.h **** // return number of discarded items
 217:SynaptiX_FDK/lib/tinyusb/src/common/tusb_fifo.h **** uint16_t tu_fifo_discard_n(tu_fifo_t *f, uint16_t n);
 218:SynaptiX_FDK/lib/tinyusb/src/common/tusb_fifo.h **** 
 219:SynaptiX_FDK/lib/tinyusb/src/common/tusb_fifo.h **** //--------------------------------------------------------------------+
 220:SynaptiX_FDK/lib/tinyusb/src/common/tusb_fifo.h **** // Write API
 221:SynaptiX_FDK/lib/tinyusb/src/common/tusb_fifo.h **** //--------------------------------------------------------------------+
 222:SynaptiX_FDK/lib/tinyusb/src/common/tusb_fifo.h **** uint16_t tu_fifo_write_n_access_mode(tu_fifo_t *f, const void *data, uint16_t n, const tu_hwfifo_ac
ARM GAS  C:\Users\DELL\AppData\Local\Temp\ccgExmFy.s 			page 31


 223:SynaptiX_FDK/lib/tinyusb/src/common/tusb_fifo.h **** bool     tu_fifo_write(tu_fifo_t *f, const void *data);
 224:SynaptiX_FDK/lib/tinyusb/src/common/tusb_fifo.h **** TU_ATTR_ALWAYS_INLINE static inline uint16_t tu_fifo_write_n(tu_fifo_t *f, const void *data, uint16
 225:SynaptiX_FDK/lib/tinyusb/src/common/tusb_fifo.h ****   return tu_fifo_write_n_access_mode(f, data, n, NULL);
 226:SynaptiX_FDK/lib/tinyusb/src/common/tusb_fifo.h **** }
 227:SynaptiX_FDK/lib/tinyusb/src/common/tusb_fifo.h **** 
 228:SynaptiX_FDK/lib/tinyusb/src/common/tusb_fifo.h **** //--------------------------------------------------------------------+
 229:SynaptiX_FDK/lib/tinyusb/src/common/tusb_fifo.h **** // Hardware FIFO API
 230:SynaptiX_FDK/lib/tinyusb/src/common/tusb_fifo.h **** // Special hardware FIFO/Buffer to hold USB data, usually requires certain access method these can 
 231:SynaptiX_FDK/lib/tinyusb/src/common/tusb_fifo.h **** // CFG_TUSB_FIFO_HWFIFO_DATA_STRIDE (data width) and CFG_TUSB_FIFO_HWFIFO_ADDR_STRIDE (address incr
 232:SynaptiX_FDK/lib/tinyusb/src/common/tusb_fifo.h **** // Note: these usually has opposite direction (read/write) to/from our software FIFO  (tu_fifo_t)
 233:SynaptiX_FDK/lib/tinyusb/src/common/tusb_fifo.h **** //--------------------------------------------------------------------+
 234:SynaptiX_FDK/lib/tinyusb/src/common/tusb_fifo.h **** TU_ATTR_ALWAYS_INLINE static inline uint16_t tu_hwfifo_write_from_fifo(volatile void *hwfifo, tu_fi
 235:SynaptiX_FDK/lib/tinyusb/src/common/tusb_fifo.h ****                                                                        const tu_hwfifo_access_t *ac
 236:SynaptiX_FDK/lib/tinyusb/src/common/tusb_fifo.h ****   const tu_hwfifo_access_t default_access = {.data_stride = CFG_TUSB_FIFO_HWFIFO_DATA_STRIDE, .para
 237:SynaptiX_FDK/lib/tinyusb/src/common/tusb_fifo.h ****   return tu_fifo_read_n_access_mode(f, (void *)(uintptr_t)hwfifo, n,
 238:SynaptiX_FDK/lib/tinyusb/src/common/tusb_fifo.h ****                                     (access_mode != NULL) ? access_mode : &default_access);
 239:SynaptiX_FDK/lib/tinyusb/src/common/tusb_fifo.h **** }
 240:SynaptiX_FDK/lib/tinyusb/src/common/tusb_fifo.h **** 
 241:SynaptiX_FDK/lib/tinyusb/src/common/tusb_fifo.h **** TU_ATTR_ALWAYS_INLINE static inline uint16_t tu_hwfifo_read_to_fifo(const volatile void *hwfifo, tu
 242:SynaptiX_FDK/lib/tinyusb/src/common/tusb_fifo.h ****                                                                     uint16_t n, const tu_hwfifo_acc
 243:SynaptiX_FDK/lib/tinyusb/src/common/tusb_fifo.h ****   const tu_hwfifo_access_t default_access = {.data_stride = CFG_TUSB_FIFO_HWFIFO_DATA_STRIDE, .para
 244:SynaptiX_FDK/lib/tinyusb/src/common/tusb_fifo.h ****   return tu_fifo_write_n_access_mode(f, (const void *)(uintptr_t)hwfifo, n,
 245:SynaptiX_FDK/lib/tinyusb/src/common/tusb_fifo.h ****                                      (access_mode != NULL) ? access_mode : &default_access);
 246:SynaptiX_FDK/lib/tinyusb/src/common/tusb_fifo.h **** }
 247:SynaptiX_FDK/lib/tinyusb/src/common/tusb_fifo.h **** 
 248:SynaptiX_FDK/lib/tinyusb/src/common/tusb_fifo.h **** #if CFG_TUSB_FIFO_HWFIFO_API
 249:SynaptiX_FDK/lib/tinyusb/src/common/tusb_fifo.h **** // read from hwfifo to buffer
 250:SynaptiX_FDK/lib/tinyusb/src/common/tusb_fifo.h **** void tu_hwfifo_read(const volatile void *hwfifo, uint8_t *dest, uint16_t len, const tu_hwfifo_acces
 251:SynaptiX_FDK/lib/tinyusb/src/common/tusb_fifo.h **** 
 252:SynaptiX_FDK/lib/tinyusb/src/common/tusb_fifo.h **** // write to hwfifo from buffer with access mode
 253:SynaptiX_FDK/lib/tinyusb/src/common/tusb_fifo.h **** void tu_hwfifo_write(volatile void *hwfifo, const uint8_t *src, uint16_t len, const tu_hwfifo_acces
 254:SynaptiX_FDK/lib/tinyusb/src/common/tusb_fifo.h **** 
 255:SynaptiX_FDK/lib/tinyusb/src/common/tusb_fifo.h **** #endif
 256:SynaptiX_FDK/lib/tinyusb/src/common/tusb_fifo.h **** 
 257:SynaptiX_FDK/lib/tinyusb/src/common/tusb_fifo.h **** //--------------------------------------------------------------------+
 258:SynaptiX_FDK/lib/tinyusb/src/common/tusb_fifo.h **** // Internal Helper Local
 259:SynaptiX_FDK/lib/tinyusb/src/common/tusb_fifo.h **** // work on local copies of read/write indices in order to only access them once for re-entrancy
 260:SynaptiX_FDK/lib/tinyusb/src/common/tusb_fifo.h **** //--------------------------------------------------------------------+
 261:SynaptiX_FDK/lib/tinyusb/src/common/tusb_fifo.h **** // return overflowable count (index difference), which can be used to determine both fifo count and
 262:SynaptiX_FDK/lib/tinyusb/src/common/tusb_fifo.h **** TU_ATTR_ALWAYS_INLINE static inline uint16_t tu_ff_overflow_count(uint16_t depth, uint16_t wr_idx, 
 263:SynaptiX_FDK/lib/tinyusb/src/common/tusb_fifo.h ****   const int32_t diff = (int32_t)wr_idx - (int32_t)rd_idx;
 264:SynaptiX_FDK/lib/tinyusb/src/common/tusb_fifo.h ****   if (diff >= 0) {
 265:SynaptiX_FDK/lib/tinyusb/src/common/tusb_fifo.h ****     return (uint16_t)diff;
 266:SynaptiX_FDK/lib/tinyusb/src/common/tusb_fifo.h ****   } else {
 267:SynaptiX_FDK/lib/tinyusb/src/common/tusb_fifo.h ****     return (uint16_t)(2 * depth + diff);
 268:SynaptiX_FDK/lib/tinyusb/src/common/tusb_fifo.h ****   }
 269:SynaptiX_FDK/lib/tinyusb/src/common/tusb_fifo.h **** }
 270:SynaptiX_FDK/lib/tinyusb/src/common/tusb_fifo.h **** 
 271:SynaptiX_FDK/lib/tinyusb/src/common/tusb_fifo.h **** // return remaining slot in fifo
 272:SynaptiX_FDK/lib/tinyusb/src/common/tusb_fifo.h **** TU_ATTR_ALWAYS_INLINE static inline uint16_t tu_ff_remaining_local(uint16_t depth, uint16_t wr_idx,
 273:SynaptiX_FDK/lib/tinyusb/src/common/tusb_fifo.h ****   const uint16_t ovf_count = tu_ff_overflow_count(depth, wr_idx, rd_idx);
 274:SynaptiX_FDK/lib/tinyusb/src/common/tusb_fifo.h ****   return (depth > ovf_count) ? (depth - ovf_count) : 0;
 275:SynaptiX_FDK/lib/tinyusb/src/common/tusb_fifo.h **** }
 276:SynaptiX_FDK/lib/tinyusb/src/common/tusb_fifo.h **** 
 277:SynaptiX_FDK/lib/tinyusb/src/common/tusb_fifo.h **** //--------------------------------------------------------------------+
 278:SynaptiX_FDK/lib/tinyusb/src/common/tusb_fifo.h **** // State API
 279:SynaptiX_FDK/lib/tinyusb/src/common/tusb_fifo.h **** // Following functions are reentrant since they only access read/write indices once, therefore can 
ARM GAS  C:\Users\DELL\AppData\Local\Temp\ccgExmFy.s 			page 32


 280:SynaptiX_FDK/lib/tinyusb/src/common/tusb_fifo.h **** // ISRs context without the need of mutexes
 281:SynaptiX_FDK/lib/tinyusb/src/common/tusb_fifo.h **** //--------------------------------------------------------------------+
 282:SynaptiX_FDK/lib/tinyusb/src/common/tusb_fifo.h **** TU_ATTR_ALWAYS_INLINE static inline uint16_t tu_fifo_depth(const tu_fifo_t *f) {
 283:SynaptiX_FDK/lib/tinyusb/src/common/tusb_fifo.h ****   return f->depth;
 284:SynaptiX_FDK/lib/tinyusb/src/common/tusb_fifo.h **** }
 285:SynaptiX_FDK/lib/tinyusb/src/common/tusb_fifo.h **** 
 286:SynaptiX_FDK/lib/tinyusb/src/common/tusb_fifo.h **** TU_ATTR_ALWAYS_INLINE static inline bool tu_fifo_empty(const tu_fifo_t *f) {
 287:SynaptiX_FDK/lib/tinyusb/src/common/tusb_fifo.h ****   const uint16_t wr_idx = f->wr_idx;
 288:SynaptiX_FDK/lib/tinyusb/src/common/tusb_fifo.h ****   const uint16_t rd_idx = f->rd_idx;
 289:SynaptiX_FDK/lib/tinyusb/src/common/tusb_fifo.h ****   return wr_idx == rd_idx;
 290:SynaptiX_FDK/lib/tinyusb/src/common/tusb_fifo.h **** }
 291:SynaptiX_FDK/lib/tinyusb/src/common/tusb_fifo.h **** 
 292:SynaptiX_FDK/lib/tinyusb/src/common/tusb_fifo.h **** // return number of items in fifo, capped to fifo's depth
 293:SynaptiX_FDK/lib/tinyusb/src/common/tusb_fifo.h **** TU_ATTR_ALWAYS_INLINE static inline uint16_t tu_fifo_count(const tu_fifo_t *f) {
 589              		.loc 6 293 46 view .LVU135
 590              	.LBB144:
 294:SynaptiX_FDK/lib/tinyusb/src/common/tusb_fifo.h ****   const uint16_t wr_idx = f->wr_idx;
 591              		.loc 6 294 3 view .LVU136
 592              		.loc 6 294 18 is_stmt 0 view .LVU137
 593 0010 1A8B     		ldrh	r2, [r3, #24]
 594 0012 92B2     		uxth	r2, r2
 595              	.LVL42:
 295:SynaptiX_FDK/lib/tinyusb/src/common/tusb_fifo.h ****   const uint16_t rd_idx = f->rd_idx;
 596              		.loc 6 295 3 is_stmt 1 view .LVU138
 597              		.loc 6 295 18 is_stmt 0 view .LVU139
 598 0014 598B     		ldrh	r1, [r3, #26]
 599 0016 89B2     		uxth	r1, r1
 600              	.LVL43:
 296:SynaptiX_FDK/lib/tinyusb/src/common/tusb_fifo.h ****   return tu_min16(tu_ff_overflow_count(f->depth, wr_idx, rd_idx), f->depth);
 601              		.loc 6 296 3 is_stmt 1 view .LVU140
 602              		.loc 6 296 41 is_stmt 0 view .LVU141
 603 0018 988A     		ldrh	r0, [r3, #20]
 604              	.LVL44:
 605              	.LBB145:
 606              	.LBI145:
 262:SynaptiX_FDK/lib/tinyusb/src/common/tusb_fifo.h ****   const int32_t diff = (int32_t)wr_idx - (int32_t)rd_idx;
 607              		.loc 6 262 46 is_stmt 1 view .LVU142
 608              	.LBB146:
 263:SynaptiX_FDK/lib/tinyusb/src/common/tusb_fifo.h ****   if (diff >= 0) {
 609              		.loc 6 263 3 view .LVU143
 263:SynaptiX_FDK/lib/tinyusb/src/common/tusb_fifo.h ****   if (diff >= 0) {
 610              		.loc 6 263 17 is_stmt 0 view .LVU144
 611 001a 531A     		subs	r3, r2, r1
 612              	.LVL45:
 264:SynaptiX_FDK/lib/tinyusb/src/common/tusb_fifo.h ****     return (uint16_t)diff;
 613              		.loc 6 264 3 is_stmt 1 view .LVU145
 264:SynaptiX_FDK/lib/tinyusb/src/common/tusb_fifo.h ****     return (uint16_t)diff;
 614              		.loc 6 264 6 is_stmt 0 view .LVU146
 615 001c 002B     		cmp	r3, #0
 616 001e 04DB     		blt	.L44
 265:SynaptiX_FDK/lib/tinyusb/src/common/tusb_fifo.h ****   } else {
 617              		.loc 6 265 5 is_stmt 1 view .LVU147
 265:SynaptiX_FDK/lib/tinyusb/src/common/tusb_fifo.h ****   } else {
 618              		.loc 6 265 12 is_stmt 0 view .LVU148
 619 0020 9AB2     		uxth	r2, r3
 620              	.LVL46:
 621              	.L45:
ARM GAS  C:\Users\DELL\AppData\Local\Temp\ccgExmFy.s 			page 33


 265:SynaptiX_FDK/lib/tinyusb/src/common/tusb_fifo.h ****   } else {
 622              		.loc 6 265 12 view .LVU149
 623              	.LBE146:
 624              	.LBE145:
 625              	.LBB148:
 626              	.LBI148:
 203:SynaptiX_FDK/lib/tinyusb/src/common/tusb_common.h **** 
 204:SynaptiX_FDK/lib/tinyusb/src/common/tusb_common.h **** //------------- Min -------------//
 205:SynaptiX_FDK/lib/tinyusb/src/common/tusb_common.h **** TU_ATTR_ALWAYS_INLINE static inline uint8_t  tu_min8  (uint8_t  x, uint8_t y ) { return (x < y) ? x
 206:SynaptiX_FDK/lib/tinyusb/src/common/tusb_common.h **** TU_ATTR_ALWAYS_INLINE static inline uint16_t tu_min16 (uint16_t x, uint16_t y) { return (x < y) ? x
 627              		.loc 5 206 46 is_stmt 1 view .LVU150
 628              	.LBB149:
 629              		.loc 5 206 82 view .LVU151
 630              		.loc 5 206 101 is_stmt 0 view .LVU152
 631 0022 9042     		cmp	r0, r2
 632 0024 28BF     		it	cs
 633 0026 1046     		movcs	r0, r2
 634              	.LVL47:
 635              		.loc 5 206 101 view .LVU153
 636              	.LBE149:
 637              	.LBE148:
 638              	.LBE144:
 639              	.LBE143:
 640              	.LBE142:
 641              	.LBE141:
 642              		.loc 1 191 10 view .LVU154
 643 0028 7047     		bx	lr
 644              	.LVL48:
 645              	.L44:
 646              	.LBB154:
 647              	.LBB153:
 648              	.LBB152:
 649              	.LBB151:
 650              	.LBB150:
 651              	.LBB147:
 267:SynaptiX_FDK/lib/tinyusb/src/common/tusb_fifo.h ****   }
 652              		.loc 6 267 5 is_stmt 1 view .LVU155
 267:SynaptiX_FDK/lib/tinyusb/src/common/tusb_fifo.h ****   }
 653              		.loc 6 267 12 is_stmt 0 view .LVU156
 654 002a 521A     		subs	r2, r2, r1
 655              	.LVL49:
 267:SynaptiX_FDK/lib/tinyusb/src/common/tusb_fifo.h ****   }
 656              		.loc 6 267 12 view .LVU157
 657 002c 02EB4002 		add	r2, r2, r0, lsl #1
 658 0030 92B2     		uxth	r2, r2
 659 0032 F6E7     		b	.L45
 660              	.LVL50:
 661              	.L46:
 267:SynaptiX_FDK/lib/tinyusb/src/common/tusb_fifo.h ****   }
 662              		.loc 6 267 12 view .LVU158
 663              	.LBE147:
 664              	.LBE150:
 665              	.LBE151:
 666              	.LBE152:
 667              	.LBE153:
 668              	.LBE154:
 190:SynaptiX_FDK/lib/tinyusb/src/class/cdc/cdc_device.c ****   return tu_edpt_stream_read_available(&_cdcd_itf[itf].rx_stream);
ARM GAS  C:\Users\DELL\AppData\Local\Temp\ccgExmFy.s 			page 34


 669              		.loc 1 190 3 discriminator 1 view .LVU159
 670 0034 0020     		movs	r0, #0
 671              	.LVL51:
 192:SynaptiX_FDK/lib/tinyusb/src/class/cdc/cdc_device.c **** }
 672              		.loc 1 192 1 view .LVU160
 673 0036 7047     		bx	lr
 674              	.L48:
 675              		.align	2
 676              	.L47:
 677 0038 00000000 		.word	_cdcd_itf
 678              		.cfi_endproc
 679              	.LFE458:
 681              		.section	.text.tud_cdc_n_read,"ax",%progbits
 682              		.align	1
 683              		.global	tud_cdc_n_read
 684              		.syntax unified
 685              		.thumb
 686              		.thumb_func
 688              	tud_cdc_n_read:
 689              	.LVL52:
 690              	.LFB459:
 193:SynaptiX_FDK/lib/tinyusb/src/class/cdc/cdc_device.c **** 
 194:SynaptiX_FDK/lib/tinyusb/src/class/cdc/cdc_device.c **** uint32_t tud_cdc_n_read(uint8_t itf, void* buffer, uint32_t bufsize) {
 691              		.loc 1 194 70 is_stmt 1 view -0
 692              		.cfi_startproc
 693              		@ args = 0, pretend = 0, frame = 0
 694              		@ frame_needed = 0, uses_anonymous_args = 0
 195:SynaptiX_FDK/lib/tinyusb/src/class/cdc/cdc_device.c ****   TU_VERIFY(itf < CFG_TUD_CDC, 0);
 695              		.loc 1 195 3 view .LVU162
 696              		.loc 1 195 3 view .LVU163
 697 0000 08B1     		cbz	r0, .L56
 698              		.loc 1 195 3 is_stmt 0 discriminator 1 view .LVU164
 699 0002 0020     		movs	r0, #0
 700              	.LVL53:
 196:SynaptiX_FDK/lib/tinyusb/src/class/cdc/cdc_device.c ****   cdcd_interface_t *p_cdc = &_cdcd_itf[itf];
 197:SynaptiX_FDK/lib/tinyusb/src/class/cdc/cdc_device.c ****   return tu_edpt_stream_read(&p_cdc->rx_stream, buffer, bufsize);
 198:SynaptiX_FDK/lib/tinyusb/src/class/cdc/cdc_device.c **** }
 701              		.loc 1 198 1 view .LVU165
 702 0004 7047     		bx	lr
 703              	.LVL54:
 704              	.L56:
 194:SynaptiX_FDK/lib/tinyusb/src/class/cdc/cdc_device.c ****   TU_VERIFY(itf < CFG_TUD_CDC, 0);
 705              		.loc 1 194 70 view .LVU166
 706 0006 08B5     		push	{r3, lr}
 707              	.LCFI3:
 708              		.cfi_def_cfa_offset 8
 709              		.cfi_offset 3, -8
 710              		.cfi_offset 14, -4
 711 0008 0346     		mov	r3, r0
 195:SynaptiX_FDK/lib/tinyusb/src/class/cdc/cdc_device.c ****   TU_VERIFY(itf < CFG_TUD_CDC, 0);
 712              		.loc 1 195 3 is_stmt 1 view .LVU167
 196:SynaptiX_FDK/lib/tinyusb/src/class/cdc/cdc_device.c ****   cdcd_interface_t *p_cdc = &_cdcd_itf[itf];
 713              		.loc 1 196 3 view .LVU168
 714              	.LVL55:
 197:SynaptiX_FDK/lib/tinyusb/src/class/cdc/cdc_device.c **** }
 715              		.loc 1 197 3 view .LVU169
 197:SynaptiX_FDK/lib/tinyusb/src/class/cdc/cdc_device.c **** }
ARM GAS  C:\Users\DELL\AppData\Local\Temp\ccgExmFy.s 			page 35


 716              		.loc 1 197 10 is_stmt 0 view .LVU170
 717 000a BC20     		movs	r0, #188
 718              	.LVL56:
 197:SynaptiX_FDK/lib/tinyusb/src/class/cdc/cdc_device.c **** }
 719              		.loc 1 197 10 view .LVU171
 720 000c 03FB00F0 		mul	r0, r3, r0
 721 0010 2030     		adds	r0, r0, #32
 722 0012 034B     		ldr	r3, .L57
 723              	.LVL57:
 197:SynaptiX_FDK/lib/tinyusb/src/class/cdc/cdc_device.c **** }
 724              		.loc 1 197 10 view .LVU172
 725 0014 1844     		add	r0, r0, r3
 726 0016 0430     		adds	r0, r0, #4
 727 0018 FFF7FEFF 		bl	tu_edpt_stream_read
 728              	.LVL58:
 729              		.loc 1 198 1 view .LVU173
 730 001c 08BD     		pop	{r3, pc}
 731              	.L58:
 732 001e 00BF     		.align	2
 733              	.L57:
 734 0020 00000000 		.word	_cdcd_itf
 735              		.cfi_endproc
 736              	.LFE459:
 738              		.section	.text.tud_cdc_n_peek,"ax",%progbits
 739              		.align	1
 740              		.global	tud_cdc_n_peek
 741              		.syntax unified
 742              		.thumb
 743              		.thumb_func
 745              	tud_cdc_n_peek:
 746              	.LVL59:
 747              	.LFB460:
 199:SynaptiX_FDK/lib/tinyusb/src/class/cdc/cdc_device.c **** 
 200:SynaptiX_FDK/lib/tinyusb/src/class/cdc/cdc_device.c **** bool tud_cdc_n_peek(uint8_t itf, uint8_t *chr) {
 748              		.loc 1 200 48 is_stmt 1 view -0
 749              		.cfi_startproc
 750              		@ args = 0, pretend = 0, frame = 0
 751              		@ frame_needed = 0, uses_anonymous_args = 0
 201:SynaptiX_FDK/lib/tinyusb/src/class/cdc/cdc_device.c ****   TU_VERIFY(itf < CFG_TUD_CDC);
 752              		.loc 1 201 3 view .LVU175
 753              		.loc 1 201 3 view .LVU176
 754 0000 08B1     		cbz	r0, .L66
 755              		.loc 1 201 3 is_stmt 0 discriminator 1 view .LVU177
 756 0002 0020     		movs	r0, #0
 757              	.LVL60:
 202:SynaptiX_FDK/lib/tinyusb/src/class/cdc/cdc_device.c ****   return tu_edpt_stream_peek(&_cdcd_itf[itf].rx_stream, chr);
 203:SynaptiX_FDK/lib/tinyusb/src/class/cdc/cdc_device.c **** }
 758              		.loc 1 203 1 view .LVU178
 759 0004 7047     		bx	lr
 760              	.LVL61:
 761              	.L66:
 200:SynaptiX_FDK/lib/tinyusb/src/class/cdc/cdc_device.c ****   TU_VERIFY(itf < CFG_TUD_CDC);
 762              		.loc 1 200 48 view .LVU179
 763 0006 08B5     		push	{r3, lr}
 764              	.LCFI4:
 765              		.cfi_def_cfa_offset 8
 766              		.cfi_offset 3, -8
ARM GAS  C:\Users\DELL\AppData\Local\Temp\ccgExmFy.s 			page 36


 767              		.cfi_offset 14, -4
 201:SynaptiX_FDK/lib/tinyusb/src/class/cdc/cdc_device.c ****   TU_VERIFY(itf < CFG_TUD_CDC);
 768              		.loc 1 201 3 is_stmt 1 view .LVU180
 202:SynaptiX_FDK/lib/tinyusb/src/class/cdc/cdc_device.c ****   return tu_edpt_stream_peek(&_cdcd_itf[itf].rx_stream, chr);
 769              		.loc 1 202 3 view .LVU181
 770              	.LVL62:
 771              	.LBB155:
 772              	.LBI155:
 190:SynaptiX_FDK/lib/tinyusb/src/common/tusb_private.h **** }
 191:SynaptiX_FDK/lib/tinyusb/src/common/tusb_private.h **** 
 192:SynaptiX_FDK/lib/tinyusb/src/common/tusb_private.h **** TU_ATTR_ALWAYS_INLINE static inline bool tu_edpt_stream_peek(tu_edpt_stream_t *s, uint8_t *ch) {
 773              		.loc 4 192 42 view .LVU182
 774              	.LBB156:
 193:SynaptiX_FDK/lib/tinyusb/src/common/tusb_private.h ****   return tu_fifo_peek(&s->ff, ch);
 775              		.loc 4 193 3 view .LVU183
 776              		.loc 4 193 10 is_stmt 0 view .LVU184
 777 0008 BC22     		movs	r2, #188
 778 000a 02FB00F0 		mul	r0, r2, r0
 779              	.LVL63:
 780              		.loc 4 193 10 view .LVU185
 781 000e 2830     		adds	r0, r0, #40
 782 0010 024B     		ldr	r3, .L67
 783 0012 1844     		add	r0, r0, r3
 784 0014 0830     		adds	r0, r0, #8
 785 0016 FFF7FEFF 		bl	tu_fifo_peek
 786              	.LVL64:
 787              		.loc 4 193 10 view .LVU186
 788              	.LBE156:
 789              	.LBE155:
 790              		.loc 1 203 1 view .LVU187
 791 001a 08BD     		pop	{r3, pc}
 792              	.L68:
 793              		.align	2
 794              	.L67:
 795 001c 00000000 		.word	_cdcd_itf
 796              		.cfi_endproc
 797              	.LFE460:
 799              		.section	.text.tud_cdc_n_read_flush,"ax",%progbits
 800              		.align	1
 801              		.global	tud_cdc_n_read_flush
 802              		.syntax unified
 803              		.thumb
 804              		.thumb_func
 806              	tud_cdc_n_read_flush:
 807              	.LVL65:
 808              	.LFB461:
 204:SynaptiX_FDK/lib/tinyusb/src/class/cdc/cdc_device.c **** 
 205:SynaptiX_FDK/lib/tinyusb/src/class/cdc/cdc_device.c **** void tud_cdc_n_read_flush(uint8_t itf) {
 809              		.loc 1 205 40 is_stmt 1 view -0
 810              		.cfi_startproc
 811              		@ args = 0, pretend = 0, frame = 0
 812              		@ frame_needed = 0, uses_anonymous_args = 0
 206:SynaptiX_FDK/lib/tinyusb/src/class/cdc/cdc_device.c ****   TU_VERIFY(itf < CFG_TUD_CDC, );
 813              		.loc 1 206 3 view .LVU189
 814              		.loc 1 206 3 view .LVU190
 815 0000 00B1     		cbz	r0, .L75
 816 0002 7047     		bx	lr
ARM GAS  C:\Users\DELL\AppData\Local\Temp\ccgExmFy.s 			page 37


 817              	.L75:
 205:SynaptiX_FDK/lib/tinyusb/src/class/cdc/cdc_device.c ****   TU_VERIFY(itf < CFG_TUD_CDC, );
 818              		.loc 1 205 40 is_stmt 0 view .LVU191
 819 0004 38B5     		push	{r3, r4, r5, lr}
 820              	.LCFI5:
 821              		.cfi_def_cfa_offset 16
 822              		.cfi_offset 3, -16
 823              		.cfi_offset 4, -12
 824              		.cfi_offset 5, -8
 825              		.cfi_offset 14, -4
 826              		.loc 1 206 3 is_stmt 1 view .LVU192
 207:SynaptiX_FDK/lib/tinyusb/src/class/cdc/cdc_device.c ****   cdcd_interface_t *p_cdc = &_cdcd_itf[itf];
 827              		.loc 1 207 3 view .LVU193
 828              	.LVL66:
 208:SynaptiX_FDK/lib/tinyusb/src/class/cdc/cdc_device.c ****   tu_edpt_stream_clear(&p_cdc->rx_stream);
 829              		.loc 1 208 3 view .LVU194
 830              	.LBB157:
 831              	.LBI157:
 138:SynaptiX_FDK/lib/tinyusb/src/common/tusb_private.h ****   tu_fifo_clear(&s->ff);
 832              		.loc 4 138 42 view .LVU195
 833              	.LBB158:
 139:SynaptiX_FDK/lib/tinyusb/src/common/tusb_private.h **** }
 834              		.loc 4 139 3 view .LVU196
 835 0006 BC22     		movs	r2, #188
 836 0008 02FB00F4 		mul	r4, r2, r0
 837 000c 04F12800 		add	r0, r4, #40
 838              	.LVL67:
 139:SynaptiX_FDK/lib/tinyusb/src/common/tusb_private.h **** }
 839              		.loc 4 139 3 is_stmt 0 view .LVU197
 840 0010 054D     		ldr	r5, .L76
 841 0012 2844     		add	r0, r0, r5
 842 0014 0830     		adds	r0, r0, #8
 843 0016 FFF7FEFF 		bl	tu_fifo_clear
 844              	.LVL68:
 139:SynaptiX_FDK/lib/tinyusb/src/common/tusb_private.h **** }
 845              		.loc 4 139 3 view .LVU198
 846              	.LBE158:
 847              	.LBE157:
 209:SynaptiX_FDK/lib/tinyusb/src/class/cdc/cdc_device.c ****   tu_edpt_stream_read_xfer(&p_cdc->rx_stream);
 848              		.loc 1 209 3 is_stmt 1 view .LVU199
 849 001a 04F12003 		add	r3, r4, #32
 850 001e 5819     		adds	r0, r3, r5
 851 0020 0430     		adds	r0, r0, #4
 852 0022 FFF7FEFF 		bl	tu_edpt_stream_read_xfer
 853              	.LVL69:
 210:SynaptiX_FDK/lib/tinyusb/src/class/cdc/cdc_device.c **** }
 854              		.loc 1 210 1 is_stmt 0 view .LVU200
 855 0026 38BD     		pop	{r3, r4, r5, pc}
 856              	.L77:
 857              		.align	2
 858              	.L76:
 859 0028 00000000 		.word	_cdcd_itf
 860              		.cfi_endproc
 861              	.LFE461:
 863              		.section	.text.tud_cdc_n_write,"ax",%progbits
 864              		.align	1
 865              		.global	tud_cdc_n_write
ARM GAS  C:\Users\DELL\AppData\Local\Temp\ccgExmFy.s 			page 38


 866              		.syntax unified
 867              		.thumb
 868              		.thumb_func
 870              	tud_cdc_n_write:
 871              	.LVL70:
 872              	.LFB462:
 211:SynaptiX_FDK/lib/tinyusb/src/class/cdc/cdc_device.c **** 
 212:SynaptiX_FDK/lib/tinyusb/src/class/cdc/cdc_device.c **** //--------------------------------------------------------------------+
 213:SynaptiX_FDK/lib/tinyusb/src/class/cdc/cdc_device.c **** // WRITE API
 214:SynaptiX_FDK/lib/tinyusb/src/class/cdc/cdc_device.c **** //--------------------------------------------------------------------+
 215:SynaptiX_FDK/lib/tinyusb/src/class/cdc/cdc_device.c **** uint32_t tud_cdc_n_write(uint8_t itf, const void* buffer, uint32_t bufsize) {
 873              		.loc 1 215 77 is_stmt 1 view -0
 874              		.cfi_startproc
 875              		@ args = 0, pretend = 0, frame = 0
 876              		@ frame_needed = 0, uses_anonymous_args = 0
 216:SynaptiX_FDK/lib/tinyusb/src/class/cdc/cdc_device.c ****   TU_VERIFY(itf < CFG_TUD_CDC, 0);
 877              		.loc 1 216 3 view .LVU202
 878              		.loc 1 216 3 view .LVU203
 879 0000 08B1     		cbz	r0, .L85
 880              		.loc 1 216 3 is_stmt 0 discriminator 1 view .LVU204
 881 0002 0020     		movs	r0, #0
 882              	.LVL71:
 217:SynaptiX_FDK/lib/tinyusb/src/class/cdc/cdc_device.c ****   cdcd_interface_t *p_cdc = &_cdcd_itf[itf];
 218:SynaptiX_FDK/lib/tinyusb/src/class/cdc/cdc_device.c ****   return tu_edpt_stream_write(&p_cdc->tx_stream, buffer, bufsize);
 219:SynaptiX_FDK/lib/tinyusb/src/class/cdc/cdc_device.c **** }
 883              		.loc 1 219 1 view .LVU205
 884 0004 7047     		bx	lr
 885              	.LVL72:
 886              	.L85:
 215:SynaptiX_FDK/lib/tinyusb/src/class/cdc/cdc_device.c ****   TU_VERIFY(itf < CFG_TUD_CDC, 0);
 887              		.loc 1 215 77 view .LVU206
 888 0006 08B5     		push	{r3, lr}
 889              	.LCFI6:
 890              		.cfi_def_cfa_offset 8
 891              		.cfi_offset 3, -8
 892              		.cfi_offset 14, -4
 893 0008 0346     		mov	r3, r0
 216:SynaptiX_FDK/lib/tinyusb/src/class/cdc/cdc_device.c ****   TU_VERIFY(itf < CFG_TUD_CDC, 0);
 894              		.loc 1 216 3 is_stmt 1 view .LVU207
 217:SynaptiX_FDK/lib/tinyusb/src/class/cdc/cdc_device.c ****   cdcd_interface_t *p_cdc = &_cdcd_itf[itf];
 895              		.loc 1 217 3 view .LVU208
 896              	.LVL73:
 218:SynaptiX_FDK/lib/tinyusb/src/class/cdc/cdc_device.c **** }
 897              		.loc 1 218 3 view .LVU209
 218:SynaptiX_FDK/lib/tinyusb/src/class/cdc/cdc_device.c **** }
 898              		.loc 1 218 10 is_stmt 0 view .LVU210
 899 000a BC20     		movs	r0, #188
 900              	.LVL74:
 218:SynaptiX_FDK/lib/tinyusb/src/class/cdc/cdc_device.c **** }
 901              		.loc 1 218 10 view .LVU211
 902 000c 03FB00F0 		mul	r0, r3, r0
 903 0010 0830     		adds	r0, r0, #8
 904 0012 034B     		ldr	r3, .L86
 905              	.LVL75:
 218:SynaptiX_FDK/lib/tinyusb/src/class/cdc/cdc_device.c **** }
 906              		.loc 1 218 10 view .LVU212
 907 0014 1844     		add	r0, r0, r3
ARM GAS  C:\Users\DELL\AppData\Local\Temp\ccgExmFy.s 			page 39


 908 0016 0430     		adds	r0, r0, #4
 909 0018 FFF7FEFF 		bl	tu_edpt_stream_write
 910              	.LVL76:
 911              		.loc 1 219 1 view .LVU213
 912 001c 08BD     		pop	{r3, pc}
 913              	.L87:
 914 001e 00BF     		.align	2
 915              	.L86:
 916 0020 00000000 		.word	_cdcd_itf
 917              		.cfi_endproc
 918              	.LFE462:
 920              		.section	.text.tud_cdc_n_write_flush,"ax",%progbits
 921              		.align	1
 922              		.global	tud_cdc_n_write_flush
 923              		.syntax unified
 924              		.thumb
 925              		.thumb_func
 927              	tud_cdc_n_write_flush:
 928              	.LVL77:
 929              	.LFB463:
 220:SynaptiX_FDK/lib/tinyusb/src/class/cdc/cdc_device.c **** 
 221:SynaptiX_FDK/lib/tinyusb/src/class/cdc/cdc_device.c **** uint32_t tud_cdc_n_write_flush(uint8_t itf) {
 930              		.loc 1 221 45 is_stmt 1 view -0
 931              		.cfi_startproc
 932              		@ args = 0, pretend = 0, frame = 0
 933              		@ frame_needed = 0, uses_anonymous_args = 0
 222:SynaptiX_FDK/lib/tinyusb/src/class/cdc/cdc_device.c ****   TU_VERIFY(itf < CFG_TUD_CDC, 0);
 934              		.loc 1 222 3 view .LVU215
 935              		.loc 1 222 3 view .LVU216
 936 0000 08B1     		cbz	r0, .L95
 937              		.loc 1 222 3 is_stmt 0 discriminator 1 view .LVU217
 938 0002 0020     		movs	r0, #0
 939              	.LVL78:
 223:SynaptiX_FDK/lib/tinyusb/src/class/cdc/cdc_device.c ****   cdcd_interface_t *p_cdc = &_cdcd_itf[itf];
 224:SynaptiX_FDK/lib/tinyusb/src/class/cdc/cdc_device.c ****   return tu_edpt_stream_write_xfer(&p_cdc->tx_stream);
 225:SynaptiX_FDK/lib/tinyusb/src/class/cdc/cdc_device.c **** }
 940              		.loc 1 225 1 view .LVU218
 941 0004 7047     		bx	lr
 942              	.LVL79:
 943              	.L95:
 221:SynaptiX_FDK/lib/tinyusb/src/class/cdc/cdc_device.c ****   TU_VERIFY(itf < CFG_TUD_CDC, 0);
 944              		.loc 1 221 45 view .LVU219
 945 0006 08B5     		push	{r3, lr}
 946              	.LCFI7:
 947              		.cfi_def_cfa_offset 8
 948              		.cfi_offset 3, -8
 949              		.cfi_offset 14, -4
 222:SynaptiX_FDK/lib/tinyusb/src/class/cdc/cdc_device.c ****   TU_VERIFY(itf < CFG_TUD_CDC, 0);
 950              		.loc 1 222 3 is_stmt 1 view .LVU220
 223:SynaptiX_FDK/lib/tinyusb/src/class/cdc/cdc_device.c ****   cdcd_interface_t *p_cdc = &_cdcd_itf[itf];
 951              		.loc 1 223 3 view .LVU221
 952              	.LVL80:
 224:SynaptiX_FDK/lib/tinyusb/src/class/cdc/cdc_device.c **** }
 953              		.loc 1 224 3 view .LVU222
 224:SynaptiX_FDK/lib/tinyusb/src/class/cdc/cdc_device.c **** }
 954              		.loc 1 224 10 is_stmt 0 view .LVU223
 955 0008 BC22     		movs	r2, #188
ARM GAS  C:\Users\DELL\AppData\Local\Temp\ccgExmFy.s 			page 40


 956 000a 02FB00F0 		mul	r0, r2, r0
 957              	.LVL81:
 224:SynaptiX_FDK/lib/tinyusb/src/class/cdc/cdc_device.c **** }
 958              		.loc 1 224 10 view .LVU224
 959 000e 0830     		adds	r0, r0, #8
 960 0010 024B     		ldr	r3, .L96
 961 0012 1844     		add	r0, r0, r3
 962 0014 0430     		adds	r0, r0, #4
 963 0016 FFF7FEFF 		bl	tu_edpt_stream_write_xfer
 964              	.LVL82:
 965              		.loc 1 225 1 view .LVU225
 966 001a 08BD     		pop	{r3, pc}
 967              	.L97:
 968              		.align	2
 969              	.L96:
 970 001c 00000000 		.word	_cdcd_itf
 971              		.cfi_endproc
 972              	.LFE463:
 974              		.section	.text.tud_cdc_n_write_available,"ax",%progbits
 975              		.align	1
 976              		.global	tud_cdc_n_write_available
 977              		.syntax unified
 978              		.thumb
 979              		.thumb_func
 981              	tud_cdc_n_write_available:
 982              	.LVL83:
 983              	.LFB464:
 226:SynaptiX_FDK/lib/tinyusb/src/class/cdc/cdc_device.c **** 
 227:SynaptiX_FDK/lib/tinyusb/src/class/cdc/cdc_device.c **** uint32_t tud_cdc_n_write_available(uint8_t itf) {
 984              		.loc 1 227 49 is_stmt 1 view -0
 985              		.cfi_startproc
 986              		@ args = 0, pretend = 0, frame = 0
 987              		@ frame_needed = 0, uses_anonymous_args = 0
 228:SynaptiX_FDK/lib/tinyusb/src/class/cdc/cdc_device.c ****   TU_VERIFY(itf < CFG_TUD_CDC, 0);
 988              		.loc 1 228 3 view .LVU227
 989              		.loc 1 228 3 view .LVU228
 990 0000 08B1     		cbz	r0, .L105
 991              		.loc 1 228 3 is_stmt 0 discriminator 1 view .LVU229
 992 0002 0020     		movs	r0, #0
 993              	.LVL84:
 229:SynaptiX_FDK/lib/tinyusb/src/class/cdc/cdc_device.c ****   cdcd_interface_t *p_cdc = &_cdcd_itf[itf];
 230:SynaptiX_FDK/lib/tinyusb/src/class/cdc/cdc_device.c ****   return tu_edpt_stream_write_available(&p_cdc->tx_stream);
 231:SynaptiX_FDK/lib/tinyusb/src/class/cdc/cdc_device.c **** }
 994              		.loc 1 231 1 view .LVU230
 995 0004 7047     		bx	lr
 996              	.LVL85:
 997              	.L105:
 227:SynaptiX_FDK/lib/tinyusb/src/class/cdc/cdc_device.c ****   TU_VERIFY(itf < CFG_TUD_CDC, 0);
 998              		.loc 1 227 49 view .LVU231
 999 0006 08B5     		push	{r3, lr}
 1000              	.LCFI8:
 1001              		.cfi_def_cfa_offset 8
 1002              		.cfi_offset 3, -8
 1003              		.cfi_offset 14, -4
 228:SynaptiX_FDK/lib/tinyusb/src/class/cdc/cdc_device.c ****   TU_VERIFY(itf < CFG_TUD_CDC, 0);
 1004              		.loc 1 228 3 is_stmt 1 view .LVU232
 229:SynaptiX_FDK/lib/tinyusb/src/class/cdc/cdc_device.c ****   cdcd_interface_t *p_cdc = &_cdcd_itf[itf];
ARM GAS  C:\Users\DELL\AppData\Local\Temp\ccgExmFy.s 			page 41


 1005              		.loc 1 229 3 view .LVU233
 1006              	.LVL86:
 230:SynaptiX_FDK/lib/tinyusb/src/class/cdc/cdc_device.c **** }
 1007              		.loc 1 230 3 view .LVU234
 230:SynaptiX_FDK/lib/tinyusb/src/class/cdc/cdc_device.c **** }
 1008              		.loc 1 230 10 is_stmt 0 view .LVU235
 1009 0008 BC22     		movs	r2, #188
 1010 000a 02FB00F0 		mul	r0, r2, r0
 1011              	.LVL87:
 230:SynaptiX_FDK/lib/tinyusb/src/class/cdc/cdc_device.c **** }
 1012              		.loc 1 230 10 view .LVU236
 1013 000e 0830     		adds	r0, r0, #8
 1014 0010 024B     		ldr	r3, .L106
 1015 0012 1844     		add	r0, r0, r3
 1016 0014 0430     		adds	r0, r0, #4
 1017 0016 FFF7FEFF 		bl	tu_edpt_stream_write_available
 1018              	.LVL88:
 1019              		.loc 1 231 1 view .LVU237
 1020 001a 08BD     		pop	{r3, pc}
 1021              	.L107:
 1022              		.align	2
 1023              	.L106:
 1024 001c 00000000 		.word	_cdcd_itf
 1025              		.cfi_endproc
 1026              	.LFE464:
 1028              		.section	.text.tud_cdc_n_write_clear,"ax",%progbits
 1029              		.align	1
 1030              		.global	tud_cdc_n_write_clear
 1031              		.syntax unified
 1032              		.thumb
 1033              		.thumb_func
 1035              	tud_cdc_n_write_clear:
 1036              	.LVL89:
 1037              	.LFB465:
 232:SynaptiX_FDK/lib/tinyusb/src/class/cdc/cdc_device.c **** 
 233:SynaptiX_FDK/lib/tinyusb/src/class/cdc/cdc_device.c **** bool tud_cdc_n_write_clear(uint8_t itf) {
 1038              		.loc 1 233 41 is_stmt 1 view -0
 1039              		.cfi_startproc
 1040              		@ args = 0, pretend = 0, frame = 0
 1041              		@ frame_needed = 0, uses_anonymous_args = 0
 234:SynaptiX_FDK/lib/tinyusb/src/class/cdc/cdc_device.c ****   TU_VERIFY(itf < CFG_TUD_CDC);
 1042              		.loc 1 234 3 view .LVU239
 1043              		.loc 1 234 3 view .LVU240
 1044 0000 08B1     		cbz	r0, .L115
 1045              		.loc 1 234 3 is_stmt 0 discriminator 1 view .LVU241
 1046 0002 0020     		movs	r0, #0
 1047              	.LVL90:
 235:SynaptiX_FDK/lib/tinyusb/src/class/cdc/cdc_device.c ****   cdcd_interface_t *p_cdc = &_cdcd_itf[itf];
 236:SynaptiX_FDK/lib/tinyusb/src/class/cdc/cdc_device.c ****   tu_edpt_stream_clear(&p_cdc->tx_stream);
 237:SynaptiX_FDK/lib/tinyusb/src/class/cdc/cdc_device.c ****   return true;
 238:SynaptiX_FDK/lib/tinyusb/src/class/cdc/cdc_device.c **** }
 1048              		.loc 1 238 1 view .LVU242
 1049 0004 7047     		bx	lr
 1050              	.LVL91:
 1051              	.L115:
 233:SynaptiX_FDK/lib/tinyusb/src/class/cdc/cdc_device.c ****   TU_VERIFY(itf < CFG_TUD_CDC);
 1052              		.loc 1 233 41 view .LVU243
ARM GAS  C:\Users\DELL\AppData\Local\Temp\ccgExmFy.s 			page 42


 1053 0006 08B5     		push	{r3, lr}
 1054              	.LCFI9:
 1055              		.cfi_def_cfa_offset 8
 1056              		.cfi_offset 3, -8
 1057              		.cfi_offset 14, -4
 234:SynaptiX_FDK/lib/tinyusb/src/class/cdc/cdc_device.c ****   TU_VERIFY(itf < CFG_TUD_CDC);
 1058              		.loc 1 234 3 is_stmt 1 view .LVU244
 235:SynaptiX_FDK/lib/tinyusb/src/class/cdc/cdc_device.c ****   cdcd_interface_t *p_cdc = &_cdcd_itf[itf];
 1059              		.loc 1 235 3 view .LVU245
 1060              	.LVL92:
 236:SynaptiX_FDK/lib/tinyusb/src/class/cdc/cdc_device.c ****   return true;
 1061              		.loc 1 236 3 view .LVU246
 1062              	.LBB159:
 1063              	.LBI159:
 138:SynaptiX_FDK/lib/tinyusb/src/common/tusb_private.h ****   tu_fifo_clear(&s->ff);
 1064              		.loc 4 138 42 view .LVU247
 1065              	.LBB160:
 139:SynaptiX_FDK/lib/tinyusb/src/common/tusb_private.h **** }
 1066              		.loc 4 139 3 view .LVU248
 1067 0008 BC22     		movs	r2, #188
 1068 000a 02FB00F0 		mul	r0, r2, r0
 1069              	.LVL93:
 139:SynaptiX_FDK/lib/tinyusb/src/common/tusb_private.h **** }
 1070              		.loc 4 139 3 is_stmt 0 view .LVU249
 1071 000e 1030     		adds	r0, r0, #16
 1072 0010 034B     		ldr	r3, .L116
 1073 0012 1844     		add	r0, r0, r3
 1074 0014 0830     		adds	r0, r0, #8
 1075 0016 FFF7FEFF 		bl	tu_fifo_clear
 1076              	.LVL94:
 139:SynaptiX_FDK/lib/tinyusb/src/common/tusb_private.h **** }
 1077              		.loc 4 139 3 view .LVU250
 1078              	.LBE160:
 1079              	.LBE159:
 237:SynaptiX_FDK/lib/tinyusb/src/class/cdc/cdc_device.c **** }
 1080              		.loc 1 237 3 is_stmt 1 view .LVU251
 237:SynaptiX_FDK/lib/tinyusb/src/class/cdc/cdc_device.c **** }
 1081              		.loc 1 237 10 is_stmt 0 view .LVU252
 1082 001a 0120     		movs	r0, #1
 1083              		.loc 1 238 1 view .LVU253
 1084 001c 08BD     		pop	{r3, pc}
 1085              	.L117:
 1086 001e 00BF     		.align	2
 1087              	.L116:
 1088 0020 00000000 		.word	_cdcd_itf
 1089              		.cfi_endproc
 1090              	.LFE465:
 1092              		.section	.text.cdcd_init,"ax",%progbits
 1093              		.align	1
 1094              		.global	cdcd_init
 1095              		.syntax unified
 1096              		.thumb
 1097              		.thumb_func
 1099              	cdcd_init:
 1100              	.LFB466:
 239:SynaptiX_FDK/lib/tinyusb/src/class/cdc/cdc_device.c **** 
 240:SynaptiX_FDK/lib/tinyusb/src/class/cdc/cdc_device.c **** //--------------------------------------------------------------------+
ARM GAS  C:\Users\DELL\AppData\Local\Temp\ccgExmFy.s 			page 43


 241:SynaptiX_FDK/lib/tinyusb/src/class/cdc/cdc_device.c **** // USBD Driver API
 242:SynaptiX_FDK/lib/tinyusb/src/class/cdc/cdc_device.c **** //--------------------------------------------------------------------+
 243:SynaptiX_FDK/lib/tinyusb/src/class/cdc/cdc_device.c **** void cdcd_init(void) {
 1101              		.loc 1 243 22 is_stmt 1 view -0
 1102              		.cfi_startproc
 1103              		@ args = 0, pretend = 0, frame = 0
 1104              		@ frame_needed = 0, uses_anonymous_args = 0
 1105 0000 2DE9F041 		push	{r4, r5, r6, r7, r8, lr}
 1106              	.LCFI10:
 1107              		.cfi_def_cfa_offset 24
 1108              		.cfi_offset 4, -24
 1109              		.cfi_offset 5, -20
 1110              		.cfi_offset 6, -16
 1111              		.cfi_offset 7, -12
 1112              		.cfi_offset 8, -8
 1113              		.cfi_offset 14, -4
 1114 0004 84B0     		sub	sp, sp, #16
 1115              	.LCFI11:
 1116              		.cfi_def_cfa_offset 40
 244:SynaptiX_FDK/lib/tinyusb/src/class/cdc/cdc_device.c ****   tu_memclr(_cdcd_itf, sizeof(_cdcd_itf));
 1117              		.loc 1 244 3 view .LVU255
 1118 0006 BC22     		movs	r2, #188
 1119 0008 0021     		movs	r1, #0
 1120 000a 1E48     		ldr	r0, .L122
 1121 000c FFF7FEFF 		bl	memset
 1122              	.LVL95:
 245:SynaptiX_FDK/lib/tinyusb/src/class/cdc/cdc_device.c ****   for (uint8_t i = 0; i < CFG_TUD_CDC; i++) {
 1123              		.loc 1 245 3 view .LVU256
 1124              	.LBB161:
 1125              		.loc 1 245 8 view .LVU257
 1126              		.loc 1 245 16 is_stmt 0 view .LVU258
 1127 0010 0026     		movs	r6, #0
 1128              	.LVL96:
 1129              	.L119:
 1130              		.loc 1 245 25 is_stmt 1 discriminator 1 view .LVU259
 1131 0012 16B1     		cbz	r6, .L120
 1132              	.LBE161:
 246:SynaptiX_FDK/lib/tinyusb/src/class/cdc/cdc_device.c ****     cdcd_interface_t *p_cdc   = &_cdcd_itf[i];
 247:SynaptiX_FDK/lib/tinyusb/src/class/cdc/cdc_device.c ****     p_cdc->wanted_char = (char) -1;
 248:SynaptiX_FDK/lib/tinyusb/src/class/cdc/cdc_device.c **** 
 249:SynaptiX_FDK/lib/tinyusb/src/class/cdc/cdc_device.c ****     // default line coding is : stop bit = 1, parity = none, data bits = 8
 250:SynaptiX_FDK/lib/tinyusb/src/class/cdc/cdc_device.c ****     p_cdc->line_coding.bit_rate = 115200;
 251:SynaptiX_FDK/lib/tinyusb/src/class/cdc/cdc_device.c ****     p_cdc->line_coding.stop_bits = 0;
 252:SynaptiX_FDK/lib/tinyusb/src/class/cdc/cdc_device.c ****     p_cdc->line_coding.parity = 0;
 253:SynaptiX_FDK/lib/tinyusb/src/class/cdc/cdc_device.c ****     p_cdc->line_coding.data_bits = 8;
 254:SynaptiX_FDK/lib/tinyusb/src/class/cdc/cdc_device.c **** 
 255:SynaptiX_FDK/lib/tinyusb/src/class/cdc/cdc_device.c ****   #if CFG_TUD_EDPT_DEDICATED_HWFIFO
 256:SynaptiX_FDK/lib/tinyusb/src/class/cdc/cdc_device.c ****     uint8_t *epout_buf = NULL;
 257:SynaptiX_FDK/lib/tinyusb/src/class/cdc/cdc_device.c ****     uint8_t *epin_buf  = NULL;
 258:SynaptiX_FDK/lib/tinyusb/src/class/cdc/cdc_device.c ****   #else
 259:SynaptiX_FDK/lib/tinyusb/src/class/cdc/cdc_device.c ****     uint8_t *epout_buf = _cdcd_epbuf[i].epout;
 260:SynaptiX_FDK/lib/tinyusb/src/class/cdc/cdc_device.c ****     uint8_t *epin_buf  = _cdcd_epbuf[i].epin;
 261:SynaptiX_FDK/lib/tinyusb/src/class/cdc/cdc_device.c ****   #endif
 262:SynaptiX_FDK/lib/tinyusb/src/class/cdc/cdc_device.c **** 
 263:SynaptiX_FDK/lib/tinyusb/src/class/cdc/cdc_device.c ****     tu_edpt_stream_init(&p_cdc->rx_stream, false, false, false, p_cdc->rx_ff_buf, CFG_TUD_CDC_RX_BU
 264:SynaptiX_FDK/lib/tinyusb/src/class/cdc/cdc_device.c **** 
 265:SynaptiX_FDK/lib/tinyusb/src/class/cdc/cdc_device.c ****     // TX fifo can be configured to change to overwritable if not connected (DTR bit not set). With
ARM GAS  C:\Users\DELL\AppData\Local\Temp\ccgExmFy.s 			page 44


 266:SynaptiX_FDK/lib/tinyusb/src/class/cdc/cdc_device.c ****     // know if data is actually polled by terminal. This way the most current data is prioritized.
 267:SynaptiX_FDK/lib/tinyusb/src/class/cdc/cdc_device.c ****     // Default: is overwritable
 268:SynaptiX_FDK/lib/tinyusb/src/class/cdc/cdc_device.c ****     tu_edpt_stream_init(&p_cdc->tx_stream, false, true, CFG_TUD_CDC_TX_OVERWRITABLE_IF_NOT_CONNECTE
 269:SynaptiX_FDK/lib/tinyusb/src/class/cdc/cdc_device.c ****                         CFG_TUD_CDC_TX_BUFSIZE, epin_buf);
 270:SynaptiX_FDK/lib/tinyusb/src/class/cdc/cdc_device.c ****   }
 271:SynaptiX_FDK/lib/tinyusb/src/class/cdc/cdc_device.c **** }
 1133              		.loc 1 271 1 is_stmt 0 view .LVU260
 1134 0014 04B0     		add	sp, sp, #16
 1135              	.LCFI12:
 1136              		.cfi_remember_state
 1137              		.cfi_def_cfa_offset 24
 1138              		@ sp needed
 1139 0016 BDE8F081 		pop	{r4, r5, r6, r7, r8, pc}
 1140              	.LVL97:
 1141              	.L120:
 1142              	.LCFI13:
 1143              		.cfi_restore_state
 1144              	.LBB163:
 1145              	.LBB162:
 246:SynaptiX_FDK/lib/tinyusb/src/class/cdc/cdc_device.c ****     cdcd_interface_t *p_cdc   = &_cdcd_itf[i];
 1146              		.loc 1 246 5 is_stmt 1 view .LVU261
 247:SynaptiX_FDK/lib/tinyusb/src/class/cdc/cdc_device.c **** 
 1147              		.loc 1 247 5 view .LVU262
 247:SynaptiX_FDK/lib/tinyusb/src/class/cdc/cdc_device.c **** 
 1148              		.loc 1 247 24 is_stmt 0 view .LVU263
 1149 001a DFF86880 		ldr	r8, .L122
 1150 001e BC24     		movs	r4, #188
 1151 0020 06FB04F4 		mul	r4, r6, r4
 1152 0024 08EB0403 		add	r3, r8, r4
 1153              	.LVL98:
 247:SynaptiX_FDK/lib/tinyusb/src/class/cdc/cdc_device.c **** 
 1154              		.loc 1 247 24 view .LVU264
 1155 0028 FF22     		movs	r2, #255
 1156 002a DA72     		strb	r2, [r3, #11]
 250:SynaptiX_FDK/lib/tinyusb/src/class/cdc/cdc_device.c ****     p_cdc->line_coding.stop_bits = 0;
 1157              		.loc 1 250 5 is_stmt 1 view .LVU265
 250:SynaptiX_FDK/lib/tinyusb/src/class/cdc/cdc_device.c ****     p_cdc->line_coding.stop_bits = 0;
 1158              		.loc 1 250 33 is_stmt 0 view .LVU266
 1159 002c 4FF4E132 		mov	r2, #115200
 1160 0030 5A60     		str	r2, [r3, #4]
 251:SynaptiX_FDK/lib/tinyusb/src/class/cdc/cdc_device.c ****     p_cdc->line_coding.parity = 0;
 1161              		.loc 1 251 5 is_stmt 1 view .LVU267
 251:SynaptiX_FDK/lib/tinyusb/src/class/cdc/cdc_device.c ****     p_cdc->line_coding.parity = 0;
 1162              		.loc 1 251 34 is_stmt 0 view .LVU268
 1163 0032 0025     		movs	r5, #0
 1164 0034 1D72     		strb	r5, [r3, #8]
 252:SynaptiX_FDK/lib/tinyusb/src/class/cdc/cdc_device.c ****     p_cdc->line_coding.data_bits = 8;
 1165              		.loc 1 252 5 is_stmt 1 view .LVU269
 252:SynaptiX_FDK/lib/tinyusb/src/class/cdc/cdc_device.c ****     p_cdc->line_coding.data_bits = 8;
 1166              		.loc 1 252 31 is_stmt 0 view .LVU270
 1167 0036 5D72     		strb	r5, [r3, #9]
 253:SynaptiX_FDK/lib/tinyusb/src/class/cdc/cdc_device.c **** 
 1168              		.loc 1 253 5 is_stmt 1 view .LVU271
 253:SynaptiX_FDK/lib/tinyusb/src/class/cdc/cdc_device.c **** 
 1169              		.loc 1 253 34 is_stmt 0 view .LVU272
 1170 0038 0822     		movs	r2, #8
 1171 003a 9A72     		strb	r2, [r3, #10]
ARM GAS  C:\Users\DELL\AppData\Local\Temp\ccgExmFy.s 			page 45


 256:SynaptiX_FDK/lib/tinyusb/src/class/cdc/cdc_device.c ****     uint8_t *epin_buf  = NULL;
 1172              		.loc 1 256 5 is_stmt 1 view .LVU273
 1173              	.LVL99:
 257:SynaptiX_FDK/lib/tinyusb/src/class/cdc/cdc_device.c ****   #else
 1174              		.loc 1 257 5 view .LVU274
 263:SynaptiX_FDK/lib/tinyusb/src/class/cdc/cdc_device.c **** 
 1175              		.loc 1 263 5 view .LVU275
 263:SynaptiX_FDK/lib/tinyusb/src/class/cdc/cdc_device.c **** 
 1176              		.loc 1 263 70 is_stmt 0 view .LVU276
 1177 003c 04F17803 		add	r3, r4, #120
 1178              	.LVL100:
 263:SynaptiX_FDK/lib/tinyusb/src/class/cdc/cdc_device.c **** 
 1179              		.loc 1 263 70 view .LVU277
 1180 0040 4344     		add	r3, r3, r8
 1181 0042 0433     		adds	r3, r3, #4
 263:SynaptiX_FDK/lib/tinyusb/src/class/cdc/cdc_device.c **** 
 1182              		.loc 1 263 5 view .LVU278
 1183 0044 04F12000 		add	r0, r4, #32
 1184 0048 4044     		add	r0, r0, r8
 1185 004a 0295     		str	r5, [sp, #8]
 1186 004c 4027     		movs	r7, #64
 1187 004e 0197     		str	r7, [sp, #4]
 1188 0050 0093     		str	r3, [sp]
 1189 0052 2B46     		mov	r3, r5
 1190 0054 2A46     		mov	r2, r5
 1191 0056 2946     		mov	r1, r5
 1192 0058 0430     		adds	r0, r0, #4
 1193 005a FFF7FEFF 		bl	tu_edpt_stream_init
 1194              	.LVL101:
 268:SynaptiX_FDK/lib/tinyusb/src/class/cdc/cdc_device.c ****                         CFG_TUD_CDC_TX_BUFSIZE, epin_buf);
 1195              		.loc 1 268 5 is_stmt 1 view .LVU279
 268:SynaptiX_FDK/lib/tinyusb/src/class/cdc/cdc_device.c ****                         CFG_TUD_CDC_TX_BUFSIZE, epin_buf);
 1196              		.loc 1 268 108 is_stmt 0 view .LVU280
 1197 005e 04F13803 		add	r3, r4, #56
 1198 0062 4344     		add	r3, r3, r8
 1199 0064 0433     		adds	r3, r3, #4
 268:SynaptiX_FDK/lib/tinyusb/src/class/cdc/cdc_device.c ****                         CFG_TUD_CDC_TX_BUFSIZE, epin_buf);
 1200              		.loc 1 268 5 view .LVU281
 1201 0066 04F10800 		add	r0, r4, #8
 1202 006a 4044     		add	r0, r0, r8
 1203 006c 0295     		str	r5, [sp, #8]
 1204 006e 0197     		str	r7, [sp, #4]
 1205 0070 0093     		str	r3, [sp]
 1206 0072 0123     		movs	r3, #1
 1207 0074 1A46     		mov	r2, r3
 1208 0076 2946     		mov	r1, r5
 1209 0078 0430     		adds	r0, r0, #4
 1210 007a FFF7FEFF 		bl	tu_edpt_stream_init
 1211              	.LVL102:
 1212              	.LBE162:
 245:SynaptiX_FDK/lib/tinyusb/src/class/cdc/cdc_device.c ****     cdcd_interface_t *p_cdc   = &_cdcd_itf[i];
 1213              		.loc 1 245 41 is_stmt 1 discriminator 3 view .LVU282
 1214 007e 0136     		adds	r6, r6, #1
 1215              	.LVL103:
 245:SynaptiX_FDK/lib/tinyusb/src/class/cdc/cdc_device.c ****     cdcd_interface_t *p_cdc   = &_cdcd_itf[i];
 1216              		.loc 1 245 41 is_stmt 0 discriminator 3 view .LVU283
 1217 0080 F6B2     		uxtb	r6, r6
ARM GAS  C:\Users\DELL\AppData\Local\Temp\ccgExmFy.s 			page 46


 1218              	.LVL104:
 245:SynaptiX_FDK/lib/tinyusb/src/class/cdc/cdc_device.c ****     cdcd_interface_t *p_cdc   = &_cdcd_itf[i];
 1219              		.loc 1 245 41 discriminator 3 view .LVU284
 1220 0082 C6E7     		b	.L119
 1221              	.L123:
 1222              		.align	2
 1223              	.L122:
 1224 0084 00000000 		.word	_cdcd_itf
 1225              	.LBE163:
 1226              		.cfi_endproc
 1227              	.LFE466:
 1229              		.section	.text.cdcd_deinit,"ax",%progbits
 1230              		.align	1
 1231              		.global	cdcd_deinit
 1232              		.syntax unified
 1233              		.thumb
 1234              		.thumb_func
 1236              	cdcd_deinit:
 1237              	.LFB467:
 272:SynaptiX_FDK/lib/tinyusb/src/class/cdc/cdc_device.c **** 
 273:SynaptiX_FDK/lib/tinyusb/src/class/cdc/cdc_device.c **** bool cdcd_deinit(void) {
 1238              		.loc 1 273 24 is_stmt 1 view -0
 1239              		.cfi_startproc
 1240              		@ args = 0, pretend = 0, frame = 0
 1241              		@ frame_needed = 0, uses_anonymous_args = 0
 1242              		@ link register save eliminated.
 274:SynaptiX_FDK/lib/tinyusb/src/class/cdc/cdc_device.c ****   for (uint8_t i = 0; i < CFG_TUD_CDC; i++) {
 1243              		.loc 1 274 3 view .LVU286
 1244              	.LBB164:
 1245              		.loc 1 274 8 view .LVU287
 1246              	.LVL105:
 1247              		.loc 1 274 16 is_stmt 0 view .LVU288
 1248 0000 0023     		movs	r3, #0
 1249              	.LVL106:
 1250              	.L125:
 1251              		.loc 1 274 25 is_stmt 1 discriminator 1 view .LVU289
 1252 0002 0BB1     		cbz	r3, .L126
 1253              	.LBE164:
 275:SynaptiX_FDK/lib/tinyusb/src/class/cdc/cdc_device.c ****     cdcd_interface_t* p_cdc = &_cdcd_itf[i];
 276:SynaptiX_FDK/lib/tinyusb/src/class/cdc/cdc_device.c ****     tu_edpt_stream_deinit(&p_cdc->rx_stream);
 277:SynaptiX_FDK/lib/tinyusb/src/class/cdc/cdc_device.c ****     tu_edpt_stream_deinit(&p_cdc->tx_stream);
 278:SynaptiX_FDK/lib/tinyusb/src/class/cdc/cdc_device.c ****   }
 279:SynaptiX_FDK/lib/tinyusb/src/class/cdc/cdc_device.c ****   return true;
 1254              		.loc 1 279 3 view .LVU290
 280:SynaptiX_FDK/lib/tinyusb/src/class/cdc/cdc_device.c **** }
 1255              		.loc 1 280 1 is_stmt 0 view .LVU291
 1256 0004 0120     		movs	r0, #1
 1257 0006 7047     		bx	lr
 1258              	.L126:
 275:SynaptiX_FDK/lib/tinyusb/src/class/cdc/cdc_device.c ****     cdcd_interface_t* p_cdc = &_cdcd_itf[i];
 1259              		.loc 1 275 5 is_stmt 1 view .LVU292
 1260              	.LVL107:
 276:SynaptiX_FDK/lib/tinyusb/src/class/cdc/cdc_device.c ****     tu_edpt_stream_deinit(&p_cdc->tx_stream);
 1261              		.loc 1 276 5 view .LVU293
 277:SynaptiX_FDK/lib/tinyusb/src/class/cdc/cdc_device.c ****   }
 1262              		.loc 1 277 5 view .LVU294
 1263              	.LBB165:
ARM GAS  C:\Users\DELL\AppData\Local\Temp\ccgExmFy.s 			page 47


 274:SynaptiX_FDK/lib/tinyusb/src/class/cdc/cdc_device.c ****     cdcd_interface_t* p_cdc = &_cdcd_itf[i];
 1264              		.loc 1 274 41 discriminator 3 view .LVU295
 1265 0008 0133     		adds	r3, r3, #1
 1266              	.LVL108:
 274:SynaptiX_FDK/lib/tinyusb/src/class/cdc/cdc_device.c ****     cdcd_interface_t* p_cdc = &_cdcd_itf[i];
 1267              		.loc 1 274 41 is_stmt 0 discriminator 3 view .LVU296
 1268 000a DBB2     		uxtb	r3, r3
 1269              	.LVL109:
 274:SynaptiX_FDK/lib/tinyusb/src/class/cdc/cdc_device.c ****     cdcd_interface_t* p_cdc = &_cdcd_itf[i];
 1270              		.loc 1 274 41 discriminator 3 view .LVU297
 1271 000c F9E7     		b	.L125
 1272              	.LBE165:
 1273              		.cfi_endproc
 1274              	.LFE467:
 1276              		.section	.text.cdcd_reset,"ax",%progbits
 1277              		.align	1
 1278              		.global	cdcd_reset
 1279              		.syntax unified
 1280              		.thumb
 1281              		.thumb_func
 1283              	cdcd_reset:
 1284              	.LVL110:
 1285              	.LFB468:
 281:SynaptiX_FDK/lib/tinyusb/src/class/cdc/cdc_device.c **** 
 282:SynaptiX_FDK/lib/tinyusb/src/class/cdc/cdc_device.c **** void cdcd_reset(uint8_t rhport) {
 1286              		.loc 1 282 33 is_stmt 1 view -0
 1287              		.cfi_startproc
 1288              		@ args = 0, pretend = 0, frame = 0
 1289              		@ frame_needed = 0, uses_anonymous_args = 0
 1290              		.loc 1 282 33 is_stmt 0 view .LVU299
 1291 0000 70B5     		push	{r4, r5, r6, lr}
 1292              	.LCFI14:
 1293              		.cfi_def_cfa_offset 16
 1294              		.cfi_offset 4, -16
 1295              		.cfi_offset 5, -12
 1296              		.cfi_offset 6, -8
 1297              		.cfi_offset 14, -4
 283:SynaptiX_FDK/lib/tinyusb/src/class/cdc/cdc_device.c ****   (void) rhport;
 1298              		.loc 1 283 3 is_stmt 1 view .LVU300
 284:SynaptiX_FDK/lib/tinyusb/src/class/cdc/cdc_device.c **** 
 285:SynaptiX_FDK/lib/tinyusb/src/class/cdc/cdc_device.c ****   for (uint8_t i = 0; i < CFG_TUD_CDC; i++) {
 1299              		.loc 1 285 3 view .LVU301
 1300              	.LBB166:
 1301              		.loc 1 285 8 view .LVU302
 1302              	.LVL111:
 1303              		.loc 1 285 16 is_stmt 0 view .LVU303
 1304 0002 0024     		movs	r4, #0
 1305              	.LVL112:
 1306              	.L128:
 1307              		.loc 1 285 25 is_stmt 1 discriminator 1 view .LVU304
 1308 0004 04B1     		cbz	r4, .L129
 1309              	.LBE166:
 286:SynaptiX_FDK/lib/tinyusb/src/class/cdc/cdc_device.c ****     cdcd_interface_t* p_cdc = &_cdcd_itf[i];
 287:SynaptiX_FDK/lib/tinyusb/src/class/cdc/cdc_device.c ****     tu_memclr(p_cdc, ITF_MEM_RESET_SIZE);
 288:SynaptiX_FDK/lib/tinyusb/src/class/cdc/cdc_device.c **** 
 289:SynaptiX_FDK/lib/tinyusb/src/class/cdc/cdc_device.c ****     tu_fifo_set_overwritable(&p_cdc->tx_stream.ff, CFG_TUD_CDC_TX_OVERWRITABLE_IF_NOT_CONNECTED); /
 290:SynaptiX_FDK/lib/tinyusb/src/class/cdc/cdc_device.c ****     tu_edpt_stream_close(&p_cdc->rx_stream);
ARM GAS  C:\Users\DELL\AppData\Local\Temp\ccgExmFy.s 			page 48


 291:SynaptiX_FDK/lib/tinyusb/src/class/cdc/cdc_device.c ****     tu_edpt_stream_close(&p_cdc->tx_stream);
 292:SynaptiX_FDK/lib/tinyusb/src/class/cdc/cdc_device.c ****   }
 293:SynaptiX_FDK/lib/tinyusb/src/class/cdc/cdc_device.c **** }
 1310              		.loc 1 293 1 is_stmt 0 view .LVU305
 1311 0006 70BD     		pop	{r4, r5, r6, pc}
 1312              	.LVL113:
 1313              	.L129:
 1314              	.LBB172:
 1315              	.LBB167:
 286:SynaptiX_FDK/lib/tinyusb/src/class/cdc/cdc_device.c ****     cdcd_interface_t* p_cdc = &_cdcd_itf[i];
 1316              		.loc 1 286 5 is_stmt 1 view .LVU306
 286:SynaptiX_FDK/lib/tinyusb/src/class/cdc/cdc_device.c ****     cdcd_interface_t* p_cdc = &_cdcd_itf[i];
 1317              		.loc 1 286 23 is_stmt 0 view .LVU307
 1318 0008 BC20     		movs	r0, #188
 1319 000a 04FB00F0 		mul	r0, r4, r0
 1320 000e 084B     		ldr	r3, .L131
 1321 0010 C618     		adds	r6, r0, r3
 1322              	.LVL114:
 287:SynaptiX_FDK/lib/tinyusb/src/class/cdc/cdc_device.c **** 
 1323              		.loc 1 287 5 is_stmt 1 view .LVU308
 1324 0012 0025     		movs	r5, #0
 1325 0014 1D50     		str	r5, [r3, r0]	@ unaligned
 289:SynaptiX_FDK/lib/tinyusb/src/class/cdc/cdc_device.c ****     tu_edpt_stream_close(&p_cdc->rx_stream);
 1326              		.loc 1 289 5 view .LVU309
 1327 0016 1030     		adds	r0, r0, #16
 1328 0018 1844     		add	r0, r0, r3
 1329 001a 0121     		movs	r1, #1
 1330 001c 0830     		adds	r0, r0, #8
 1331 001e FFF7FEFF 		bl	tu_fifo_set_overwritable
 1332              	.LVL115:
 290:SynaptiX_FDK/lib/tinyusb/src/class/cdc/cdc_device.c ****     tu_edpt_stream_close(&p_cdc->tx_stream);
 1333              		.loc 1 290 5 view .LVU310
 1334              	.LBB168:
 1335              	.LBI168:
 134:SynaptiX_FDK/lib/tinyusb/src/common/tusb_private.h ****   s->ep_addr = 0;
 1336              		.loc 4 134 42 view .LVU311
 1337              	.LBB169:
 135:SynaptiX_FDK/lib/tinyusb/src/common/tusb_private.h **** }
 1338              		.loc 4 135 3 view .LVU312
 135:SynaptiX_FDK/lib/tinyusb/src/common/tusb_private.h **** }
 1339              		.loc 4 135 14 is_stmt 0 view .LVU313
 1340 0022 86F82650 		strb	r5, [r6, #38]
 1341              	.LVL116:
 135:SynaptiX_FDK/lib/tinyusb/src/common/tusb_private.h **** }
 1342              		.loc 4 135 14 view .LVU314
 1343              	.LBE169:
 1344              	.LBE168:
 291:SynaptiX_FDK/lib/tinyusb/src/class/cdc/cdc_device.c ****   }
 1345              		.loc 1 291 5 is_stmt 1 view .LVU315
 1346              	.LBB170:
 1347              	.LBI170:
 134:SynaptiX_FDK/lib/tinyusb/src/common/tusb_private.h ****   s->ep_addr = 0;
 1348              		.loc 4 134 42 view .LVU316
 1349              	.LBB171:
 135:SynaptiX_FDK/lib/tinyusb/src/common/tusb_private.h **** }
 1350              		.loc 4 135 3 view .LVU317
 135:SynaptiX_FDK/lib/tinyusb/src/common/tusb_private.h **** }
ARM GAS  C:\Users\DELL\AppData\Local\Temp\ccgExmFy.s 			page 49


 1351              		.loc 4 135 14 is_stmt 0 view .LVU318
 1352 0026 B573     		strb	r5, [r6, #14]
 1353              	.LVL117:
 135:SynaptiX_FDK/lib/tinyusb/src/common/tusb_private.h **** }
 1354              		.loc 4 135 14 view .LVU319
 1355              	.LBE171:
 1356              	.LBE170:
 1357              	.LBE167:
 285:SynaptiX_FDK/lib/tinyusb/src/class/cdc/cdc_device.c ****     cdcd_interface_t* p_cdc = &_cdcd_itf[i];
 1358              		.loc 1 285 41 is_stmt 1 discriminator 3 view .LVU320
 1359 0028 0134     		adds	r4, r4, #1
 1360              	.LVL118:
 285:SynaptiX_FDK/lib/tinyusb/src/class/cdc/cdc_device.c ****     cdcd_interface_t* p_cdc = &_cdcd_itf[i];
 1361              		.loc 1 285 41 is_stmt 0 discriminator 3 view .LVU321
 1362 002a E4B2     		uxtb	r4, r4
 1363 002c EAE7     		b	.L128
 1364              	.L132:
 1365 002e 00BF     		.align	2
 1366              	.L131:
 1367 0030 00000000 		.word	_cdcd_itf
 1368              	.LBE172:
 1369              		.cfi_endproc
 1370              	.LFE468:
 1372              		.section	.text.cdcd_open,"ax",%progbits
 1373              		.align	1
 1374              		.global	cdcd_open
 1375              		.syntax unified
 1376              		.thumb
 1377              		.thumb_func
 1379              	cdcd_open:
 1380              	.LVL119:
 1381              	.LFB469:
 294:SynaptiX_FDK/lib/tinyusb/src/class/cdc/cdc_device.c **** 
 295:SynaptiX_FDK/lib/tinyusb/src/class/cdc/cdc_device.c **** uint16_t cdcd_open(uint8_t rhport, const tusb_desc_interface_t* itf_desc, uint16_t max_len) {
 1382              		.loc 1 295 93 is_stmt 1 view -0
 1383              		.cfi_startproc
 1384              		@ args = 0, pretend = 0, frame = 0
 1385              		@ frame_needed = 0, uses_anonymous_args = 0
 1386              		.loc 1 295 93 is_stmt 0 view .LVU323
 1387 0000 2DE9F84F 		push	{r3, r4, r5, r6, r7, r8, r9, r10, fp, lr}
 1388              	.LCFI15:
 1389              		.cfi_def_cfa_offset 40
 1390              		.cfi_offset 3, -40
 1391              		.cfi_offset 4, -36
 1392              		.cfi_offset 5, -32
 1393              		.cfi_offset 6, -28
 1394              		.cfi_offset 7, -24
 1395              		.cfi_offset 8, -20
 1396              		.cfi_offset 9, -16
 1397              		.cfi_offset 10, -12
 1398              		.cfi_offset 11, -8
 1399              		.cfi_offset 14, -4
 296:SynaptiX_FDK/lib/tinyusb/src/class/cdc/cdc_device.c ****   // Only support ACM subclass
 297:SynaptiX_FDK/lib/tinyusb/src/class/cdc/cdc_device.c ****   TU_VERIFY(TUSB_CLASS_CDC == itf_desc->bInterfaceClass &&
 1400              		.loc 1 297 3 is_stmt 1 view .LVU324
 1401              		.loc 1 297 3 view .LVU325
 1402 0004 4B79     		ldrb	r3, [r1, #5]	@ zero_extendqisi2
ARM GAS  C:\Users\DELL\AppData\Local\Temp\ccgExmFy.s 			page 50


 1403 0006 022B     		cmp	r3, #2
 1404 0008 40F0DE80 		bne	.L157
 1405 000c 0746     		mov	r7, r0
 1406 000e 0C46     		mov	r4, r1
 1407              		.loc 1 297 3 is_stmt 0 discriminator 2 view .LVU326
 1408 0010 8B79     		ldrb	r3, [r1, #6]	@ zero_extendqisi2
 1409 0012 022B     		cmp	r3, #2
 1410 0014 40F0DB80 		bne	.L158
 1411              	.LBB173:
 1412              	.LBB174:
 1413              	.LBB175:
 121:SynaptiX_FDK/lib/tinyusb/src/class/cdc/cdc_device.c ****     const cdcd_interface_t *p_cdc = &_cdcd_itf[idx];
 1414              		.loc 1 121 16 view .LVU327
 1415 0018 0026     		movs	r6, #0
 1416              	.LVL120:
 1417              	.L135:
 121:SynaptiX_FDK/lib/tinyusb/src/class/cdc/cdc_device.c ****     const cdcd_interface_t *p_cdc = &_cdcd_itf[idx];
 1418              		.loc 1 121 29 is_stmt 1 discriminator 1 view .LVU328
 1419 001a CEB1     		cbz	r6, .L137
 1420              	.LBE175:
 128:SynaptiX_FDK/lib/tinyusb/src/class/cdc/cdc_device.c **** }
 1421              		.loc 1 128 10 is_stmt 0 view .LVU329
 1422 001c FF26     		movs	r6, #255
 1423              	.LVL121:
 1424              	.L136:
 128:SynaptiX_FDK/lib/tinyusb/src/class/cdc/cdc_device.c **** }
 1425              		.loc 1 128 10 view .LVU330
 1426              	.LBE174:
 1427              	.LBE173:
 298:SynaptiX_FDK/lib/tinyusb/src/class/cdc/cdc_device.c ****               CDC_COMM_SUBCLASS_ABSTRACT_CONTROL_MODEL == itf_desc->bInterfaceSubClass,
 299:SynaptiX_FDK/lib/tinyusb/src/class/cdc/cdc_device.c ****             0);
 300:SynaptiX_FDK/lib/tinyusb/src/class/cdc/cdc_device.c **** 
 301:SynaptiX_FDK/lib/tinyusb/src/class/cdc/cdc_device.c ****   const uint8_t cdc_id = find_cdc_itf(0); // Find available interface
 302:SynaptiX_FDK/lib/tinyusb/src/class/cdc/cdc_device.c ****   TU_ASSERT(cdc_id < CFG_TUD_CDC, 0);
 1428              		.loc 1 302 3 is_stmt 1 view .LVU331
 1429              		.loc 1 302 3 view .LVU332
 1430 001e 46BB     		cbnz	r6, .L162
 1431              		.loc 1 302 3 view .LVU333
 303:SynaptiX_FDK/lib/tinyusb/src/class/cdc/cdc_device.c ****   cdcd_interface_t *p_cdc = &_cdcd_itf[cdc_id];
 1432              		.loc 1 303 3 view .LVU334
 1433              		.loc 1 303 39 is_stmt 0 view .LVU335
 1434 0020 B046     		mov	r8, r6
 1435              	.LVL122:
 304:SynaptiX_FDK/lib/tinyusb/src/class/cdc/cdc_device.c **** 
 305:SynaptiX_FDK/lib/tinyusb/src/class/cdc/cdc_device.c ****   //------------- Control Interface -------------//
 306:SynaptiX_FDK/lib/tinyusb/src/class/cdc/cdc_device.c ****   p_cdc->rhport = rhport;
 1436              		.loc 1 306 3 is_stmt 1 view .LVU336
 1437              		.loc 1 306 17 is_stmt 0 view .LVU337
 1438 0022 6C49     		ldr	r1, .L169
 1439 0024 BC23     		movs	r3, #188
 1440 0026 06FB03F3 		mul	r3, r6, r3
 1441 002a C818     		adds	r0, r1, r3
 1442              	.LVL123:
 1443              		.loc 1 306 17 view .LVU338
 1444 002c CF54     		strb	r7, [r1, r3]
 307:SynaptiX_FDK/lib/tinyusb/src/class/cdc/cdc_device.c ****   p_cdc->itf_num = itf_desc->bInterfaceNumber;
 1445              		.loc 1 307 3 is_stmt 1 view .LVU339
ARM GAS  C:\Users\DELL\AppData\Local\Temp\ccgExmFy.s 			page 51


 1446              		.loc 1 307 28 is_stmt 0 view .LVU340
 1447 002e A378     		ldrb	r3, [r4, #2]	@ zero_extendqisi2
 1448              		.loc 1 307 18 view .LVU341
 1449 0030 4370     		strb	r3, [r0, #1]
 308:SynaptiX_FDK/lib/tinyusb/src/class/cdc/cdc_device.c **** 
 309:SynaptiX_FDK/lib/tinyusb/src/class/cdc/cdc_device.c ****   const uint8_t *p_desc   = (const uint8_t *)itf_desc;
 1450              		.loc 1 309 3 is_stmt 1 view .LVU342
 1451              	.LVL124:
 310:SynaptiX_FDK/lib/tinyusb/src/class/cdc/cdc_device.c ****   const uint8_t *desc_end = p_desc + max_len;
 1452              		.loc 1 310 3 view .LVU343
 1453              		.loc 1 310 18 is_stmt 0 view .LVU344
 1454 0032 04EB0209 		add	r9, r4, r2
 1455              	.LVL125:
 311:SynaptiX_FDK/lib/tinyusb/src/class/cdc/cdc_device.c **** 
 312:SynaptiX_FDK/lib/tinyusb/src/class/cdc/cdc_device.c ****   // Skip all class-specific descriptor
 313:SynaptiX_FDK/lib/tinyusb/src/class/cdc/cdc_device.c ****   p_desc = tu_desc_next(itf_desc);
 1456              		.loc 1 313 3 is_stmt 1 view .LVU345
 1457              	.LBB179:
 1458              	.LBI179:
 207:SynaptiX_FDK/lib/tinyusb/src/common/tusb_common.h **** TU_ATTR_ALWAYS_INLINE static inline uint32_t tu_min32 (uint32_t x, uint32_t y) { return (x < y) ? x
 208:SynaptiX_FDK/lib/tinyusb/src/common/tusb_common.h **** 
 209:SynaptiX_FDK/lib/tinyusb/src/common/tusb_common.h **** //------------- Max -------------//
 210:SynaptiX_FDK/lib/tinyusb/src/common/tusb_common.h **** TU_ATTR_ALWAYS_INLINE static inline uint8_t  tu_max8  (uint8_t  x, uint8_t y ) { return (x > y) ? x
 211:SynaptiX_FDK/lib/tinyusb/src/common/tusb_common.h **** TU_ATTR_ALWAYS_INLINE static inline uint16_t tu_max16 (uint16_t x, uint16_t y) { return (x > y) ? x
 212:SynaptiX_FDK/lib/tinyusb/src/common/tusb_common.h **** TU_ATTR_ALWAYS_INLINE static inline uint32_t tu_max32 (uint32_t x, uint32_t y) { return (x > y) ? x
 213:SynaptiX_FDK/lib/tinyusb/src/common/tusb_common.h **** 
 214:SynaptiX_FDK/lib/tinyusb/src/common/tusb_common.h **** //------------- Align -------------//
 215:SynaptiX_FDK/lib/tinyusb/src/common/tusb_common.h **** TU_ATTR_ALWAYS_INLINE static inline uint32_t tu_align(uint32_t value, uint32_t alignment) {
 216:SynaptiX_FDK/lib/tinyusb/src/common/tusb_common.h ****   return value & ((uint32_t) ~(alignment-1));
 217:SynaptiX_FDK/lib/tinyusb/src/common/tusb_common.h **** }
 218:SynaptiX_FDK/lib/tinyusb/src/common/tusb_common.h **** 
 219:SynaptiX_FDK/lib/tinyusb/src/common/tusb_common.h **** TU_ATTR_ALWAYS_INLINE static inline uint32_t tu_align4  (uint32_t value) { return (value & 0xFFFFFF
 220:SynaptiX_FDK/lib/tinyusb/src/common/tusb_common.h **** TU_ATTR_ALWAYS_INLINE static inline uint32_t tu_align8  (uint32_t value) { return (value & 0xFFFFFF
 221:SynaptiX_FDK/lib/tinyusb/src/common/tusb_common.h **** TU_ATTR_ALWAYS_INLINE static inline uint32_t tu_align16 (uint32_t value) { return (value & 0xFFFFFF
 222:SynaptiX_FDK/lib/tinyusb/src/common/tusb_common.h **** TU_ATTR_ALWAYS_INLINE static inline uint32_t tu_align32 (uint32_t value) { return (value & 0xFFFFFF
 223:SynaptiX_FDK/lib/tinyusb/src/common/tusb_common.h **** TU_ATTR_ALWAYS_INLINE static inline uint32_t tu_align4k (uint32_t value) { return (value & 0xFFFFF0
 224:SynaptiX_FDK/lib/tinyusb/src/common/tusb_common.h **** TU_ATTR_ALWAYS_INLINE static inline uint32_t tu_offset4k(uint32_t value) { return (value & 0xFFFUL)
 225:SynaptiX_FDK/lib/tinyusb/src/common/tusb_common.h **** 
 226:SynaptiX_FDK/lib/tinyusb/src/common/tusb_common.h **** TU_ATTR_ALWAYS_INLINE static inline bool tu_is_aligned32(uint32_t value) { return (value & 0x1FUL) 
 227:SynaptiX_FDK/lib/tinyusb/src/common/tusb_common.h **** TU_ATTR_ALWAYS_INLINE static inline bool tu_is_aligned64(uint64_t value) { return (value & 0x3FUL) 
 228:SynaptiX_FDK/lib/tinyusb/src/common/tusb_common.h **** 
 229:SynaptiX_FDK/lib/tinyusb/src/common/tusb_common.h **** //------------- Mathematics -------------//
 230:SynaptiX_FDK/lib/tinyusb/src/common/tusb_common.h **** TU_ATTR_ALWAYS_INLINE static inline uint32_t tu_div_ceil(uint32_t v, uint32_t d) { return TU_DIV_CE
 231:SynaptiX_FDK/lib/tinyusb/src/common/tusb_common.h **** TU_ATTR_ALWAYS_INLINE static inline uint32_t tu_div_round_nearest(uint32_t v, uint32_t d) { return 
 232:SynaptiX_FDK/lib/tinyusb/src/common/tusb_common.h **** 
 233:SynaptiX_FDK/lib/tinyusb/src/common/tusb_common.h **** TU_ATTR_ALWAYS_INLINE static inline uint32_t tu_round_up(uint32_t v, uint32_t f) { return tu_div_ce
 234:SynaptiX_FDK/lib/tinyusb/src/common/tusb_common.h **** 
 235:SynaptiX_FDK/lib/tinyusb/src/common/tusb_common.h **** // log2 of a value is its MSB's position
 236:SynaptiX_FDK/lib/tinyusb/src/common/tusb_common.h **** // TODO use clz TODO remove
 237:SynaptiX_FDK/lib/tinyusb/src/common/tusb_common.h **** TU_ATTR_ALWAYS_INLINE static inline uint8_t tu_log2(uint32_t value) {
 238:SynaptiX_FDK/lib/tinyusb/src/common/tusb_common.h ****   uint8_t result = 0;
 239:SynaptiX_FDK/lib/tinyusb/src/common/tusb_common.h ****   while ((value >>= 1u) != 0u) {
 240:SynaptiX_FDK/lib/tinyusb/src/common/tusb_common.h ****     result++;
 241:SynaptiX_FDK/lib/tinyusb/src/common/tusb_common.h ****   }
 242:SynaptiX_FDK/lib/tinyusb/src/common/tusb_common.h ****   return result;
 243:SynaptiX_FDK/lib/tinyusb/src/common/tusb_common.h **** }
 244:SynaptiX_FDK/lib/tinyusb/src/common/tusb_common.h **** 
ARM GAS  C:\Users\DELL\AppData\Local\Temp\ccgExmFy.s 			page 52


 245:SynaptiX_FDK/lib/tinyusb/src/common/tusb_common.h **** //static inline uint8_t tu_log2(uint32_t value)
 246:SynaptiX_FDK/lib/tinyusb/src/common/tusb_common.h **** //{
 247:SynaptiX_FDK/lib/tinyusb/src/common/tusb_common.h **** //   return sizeof(uint32_t) * CHAR_BIT - __builtin_clz(x) - 1;
 248:SynaptiX_FDK/lib/tinyusb/src/common/tusb_common.h **** //}
 249:SynaptiX_FDK/lib/tinyusb/src/common/tusb_common.h **** 
 250:SynaptiX_FDK/lib/tinyusb/src/common/tusb_common.h **** TU_ATTR_ALWAYS_INLINE static inline bool tu_is_power_of_two(uint32_t value) {
 251:SynaptiX_FDK/lib/tinyusb/src/common/tusb_common.h ****    return (value != 0) && ((value & (value - 1)) == 0);
 252:SynaptiX_FDK/lib/tinyusb/src/common/tusb_common.h **** }
 253:SynaptiX_FDK/lib/tinyusb/src/common/tusb_common.h **** 
 254:SynaptiX_FDK/lib/tinyusb/src/common/tusb_common.h **** //------------- Unaligned Access -------------//
 255:SynaptiX_FDK/lib/tinyusb/src/common/tusb_common.h **** #if TUP_ARCH_STRICT_ALIGN
 256:SynaptiX_FDK/lib/tinyusb/src/common/tusb_common.h **** 
 257:SynaptiX_FDK/lib/tinyusb/src/common/tusb_common.h **** // Rely on compiler to generate correct code for unaligned access
 258:SynaptiX_FDK/lib/tinyusb/src/common/tusb_common.h **** typedef struct { uint16_t val; } TU_ATTR_PACKED tu_unaligned_uint16_t;
 259:SynaptiX_FDK/lib/tinyusb/src/common/tusb_common.h **** typedef struct { uint32_t val; } TU_ATTR_PACKED tu_unaligned_uint32_t;
 260:SynaptiX_FDK/lib/tinyusb/src/common/tusb_common.h **** 
 261:SynaptiX_FDK/lib/tinyusb/src/common/tusb_common.h **** TU_ATTR_ALWAYS_INLINE static inline uint32_t tu_unaligned_read32(const void *mem) {
 262:SynaptiX_FDK/lib/tinyusb/src/common/tusb_common.h ****   tu_unaligned_uint32_t const *ua32 = (tu_unaligned_uint32_t const *) mem;
 263:SynaptiX_FDK/lib/tinyusb/src/common/tusb_common.h ****   return ua32->val;
 264:SynaptiX_FDK/lib/tinyusb/src/common/tusb_common.h **** }
 265:SynaptiX_FDK/lib/tinyusb/src/common/tusb_common.h **** 
 266:SynaptiX_FDK/lib/tinyusb/src/common/tusb_common.h **** TU_ATTR_ALWAYS_INLINE static inline void tu_unaligned_write32(void *mem, uint32_t value) {
 267:SynaptiX_FDK/lib/tinyusb/src/common/tusb_common.h ****   tu_unaligned_uint32_t *ua32 = (tu_unaligned_uint32_t *) mem;
 268:SynaptiX_FDK/lib/tinyusb/src/common/tusb_common.h ****   ua32->val = value;
 269:SynaptiX_FDK/lib/tinyusb/src/common/tusb_common.h **** }
 270:SynaptiX_FDK/lib/tinyusb/src/common/tusb_common.h **** 
 271:SynaptiX_FDK/lib/tinyusb/src/common/tusb_common.h **** TU_ATTR_ALWAYS_INLINE static inline uint16_t tu_unaligned_read16(const void *mem) {
 272:SynaptiX_FDK/lib/tinyusb/src/common/tusb_common.h ****   tu_unaligned_uint16_t const *ua16 = (tu_unaligned_uint16_t const *) mem;
 273:SynaptiX_FDK/lib/tinyusb/src/common/tusb_common.h ****   return ua16->val;
 274:SynaptiX_FDK/lib/tinyusb/src/common/tusb_common.h **** }
 275:SynaptiX_FDK/lib/tinyusb/src/common/tusb_common.h **** 
 276:SynaptiX_FDK/lib/tinyusb/src/common/tusb_common.h **** TU_ATTR_ALWAYS_INLINE static inline void tu_unaligned_write16(void *mem, uint16_t value) {
 277:SynaptiX_FDK/lib/tinyusb/src/common/tusb_common.h ****   tu_unaligned_uint16_t *ua16 = (tu_unaligned_uint16_t *) mem;
 278:SynaptiX_FDK/lib/tinyusb/src/common/tusb_common.h ****   ua16->val = value;
 279:SynaptiX_FDK/lib/tinyusb/src/common/tusb_common.h **** }
 280:SynaptiX_FDK/lib/tinyusb/src/common/tusb_common.h **** 
 281:SynaptiX_FDK/lib/tinyusb/src/common/tusb_common.h **** #elif TUP_MCU_STRICT_ALIGN
 282:SynaptiX_FDK/lib/tinyusb/src/common/tusb_common.h **** 
 283:SynaptiX_FDK/lib/tinyusb/src/common/tusb_common.h **** // MCU such as LPC_IP3511 Highspeed cannot access unaligned memory on USB_RAM although it is ARM M4
 284:SynaptiX_FDK/lib/tinyusb/src/common/tusb_common.h **** // We have to manually pick up bytes since tu_unaligned_uint32_t will still generate unaligned code
 285:SynaptiX_FDK/lib/tinyusb/src/common/tusb_common.h **** // NOTE: volatile cast to memory to prevent compiler to optimize and generate unaligned code
 286:SynaptiX_FDK/lib/tinyusb/src/common/tusb_common.h **** // TODO Big Endian may need minor changes
 287:SynaptiX_FDK/lib/tinyusb/src/common/tusb_common.h **** TU_ATTR_ALWAYS_INLINE static inline uint32_t tu_unaligned_read32(const void* mem) {
 288:SynaptiX_FDK/lib/tinyusb/src/common/tusb_common.h ****   volatile uint8_t const* buf8 = (uint8_t const*) mem;
 289:SynaptiX_FDK/lib/tinyusb/src/common/tusb_common.h ****   return tu_u32(buf8[3], buf8[2], buf8[1], buf8[0]);
 290:SynaptiX_FDK/lib/tinyusb/src/common/tusb_common.h **** }
 291:SynaptiX_FDK/lib/tinyusb/src/common/tusb_common.h **** 
 292:SynaptiX_FDK/lib/tinyusb/src/common/tusb_common.h **** TU_ATTR_ALWAYS_INLINE static inline void tu_unaligned_write32(void* mem, uint32_t value) {
 293:SynaptiX_FDK/lib/tinyusb/src/common/tusb_common.h ****   volatile uint8_t* buf8 = (uint8_t*) mem;
 294:SynaptiX_FDK/lib/tinyusb/src/common/tusb_common.h ****   buf8[0] = tu_u32_byte0(value);
 295:SynaptiX_FDK/lib/tinyusb/src/common/tusb_common.h ****   buf8[1] = tu_u32_byte1(value);
 296:SynaptiX_FDK/lib/tinyusb/src/common/tusb_common.h ****   buf8[2] = tu_u32_byte2(value);
 297:SynaptiX_FDK/lib/tinyusb/src/common/tusb_common.h ****   buf8[3] = tu_u32_byte3(value);
 298:SynaptiX_FDK/lib/tinyusb/src/common/tusb_common.h **** }
 299:SynaptiX_FDK/lib/tinyusb/src/common/tusb_common.h **** 
 300:SynaptiX_FDK/lib/tinyusb/src/common/tusb_common.h **** TU_ATTR_ALWAYS_INLINE static inline uint16_t tu_unaligned_read16(const void* mem) {
 301:SynaptiX_FDK/lib/tinyusb/src/common/tusb_common.h ****   volatile uint8_t const* buf8 = (uint8_t const*) mem;
ARM GAS  C:\Users\DELL\AppData\Local\Temp\ccgExmFy.s 			page 53


 302:SynaptiX_FDK/lib/tinyusb/src/common/tusb_common.h ****   return tu_u16(buf8[1], buf8[0]);
 303:SynaptiX_FDK/lib/tinyusb/src/common/tusb_common.h **** }
 304:SynaptiX_FDK/lib/tinyusb/src/common/tusb_common.h **** 
 305:SynaptiX_FDK/lib/tinyusb/src/common/tusb_common.h **** TU_ATTR_ALWAYS_INLINE static inline void tu_unaligned_write16(void* mem, uint16_t value) {
 306:SynaptiX_FDK/lib/tinyusb/src/common/tusb_common.h ****   volatile uint8_t* buf8 = (uint8_t*) mem;
 307:SynaptiX_FDK/lib/tinyusb/src/common/tusb_common.h ****   buf8[0] = tu_u16_low(value);
 308:SynaptiX_FDK/lib/tinyusb/src/common/tusb_common.h ****   buf8[1] = tu_u16_high(value);
 309:SynaptiX_FDK/lib/tinyusb/src/common/tusb_common.h **** }
 310:SynaptiX_FDK/lib/tinyusb/src/common/tusb_common.h **** 
 311:SynaptiX_FDK/lib/tinyusb/src/common/tusb_common.h **** #else
 312:SynaptiX_FDK/lib/tinyusb/src/common/tusb_common.h **** 
 313:SynaptiX_FDK/lib/tinyusb/src/common/tusb_common.h **** // MCU that could access unaligned memory natively
 314:SynaptiX_FDK/lib/tinyusb/src/common/tusb_common.h **** TU_ATTR_ALWAYS_INLINE static inline uint32_t tu_unaligned_read32(const void *mem) {
 315:SynaptiX_FDK/lib/tinyusb/src/common/tusb_common.h ****   return *((uint32_t const *) mem);
 316:SynaptiX_FDK/lib/tinyusb/src/common/tusb_common.h **** }
 317:SynaptiX_FDK/lib/tinyusb/src/common/tusb_common.h **** 
 318:SynaptiX_FDK/lib/tinyusb/src/common/tusb_common.h **** TU_ATTR_ALWAYS_INLINE static inline uint16_t tu_unaligned_read16(const void *mem) {
 319:SynaptiX_FDK/lib/tinyusb/src/common/tusb_common.h ****   return *((uint16_t const *) mem);
 320:SynaptiX_FDK/lib/tinyusb/src/common/tusb_common.h **** }
 321:SynaptiX_FDK/lib/tinyusb/src/common/tusb_common.h **** 
 322:SynaptiX_FDK/lib/tinyusb/src/common/tusb_common.h **** TU_ATTR_ALWAYS_INLINE static inline void tu_unaligned_write32(void *mem, uint32_t value) {
 323:SynaptiX_FDK/lib/tinyusb/src/common/tusb_common.h ****   *((uint32_t *) mem) = value;
 324:SynaptiX_FDK/lib/tinyusb/src/common/tusb_common.h **** }
 325:SynaptiX_FDK/lib/tinyusb/src/common/tusb_common.h **** 
 326:SynaptiX_FDK/lib/tinyusb/src/common/tusb_common.h **** TU_ATTR_ALWAYS_INLINE static inline void tu_unaligned_write16(void *mem, uint16_t value) {
 327:SynaptiX_FDK/lib/tinyusb/src/common/tusb_common.h ****   *((uint16_t *) mem) = value;
 328:SynaptiX_FDK/lib/tinyusb/src/common/tusb_common.h **** }
 329:SynaptiX_FDK/lib/tinyusb/src/common/tusb_common.h **** 
 330:SynaptiX_FDK/lib/tinyusb/src/common/tusb_common.h **** #endif
 331:SynaptiX_FDK/lib/tinyusb/src/common/tusb_common.h **** 
 332:SynaptiX_FDK/lib/tinyusb/src/common/tusb_common.h **** // scatter read 4 bytes from two buffers (LE). Parameter are not checked
 333:SynaptiX_FDK/lib/tinyusb/src/common/tusb_common.h **** TU_ATTR_ALWAYS_INLINE static inline uint32_t tu_scatter_read32(const uint8_t *buf1, uint8_t len1, c
 334:SynaptiX_FDK/lib/tinyusb/src/common/tusb_common.h ****                                                                uint8_t len2) {
 335:SynaptiX_FDK/lib/tinyusb/src/common/tusb_common.h ****   uint32_t result = 0;
 336:SynaptiX_FDK/lib/tinyusb/src/common/tusb_common.h ****   uint8_t  shift  = 0;
 337:SynaptiX_FDK/lib/tinyusb/src/common/tusb_common.h **** 
 338:SynaptiX_FDK/lib/tinyusb/src/common/tusb_common.h ****   for (uint8_t i = 0; i < len1; ++i) {
 339:SynaptiX_FDK/lib/tinyusb/src/common/tusb_common.h ****     result |= ((uint32_t)buf1[i]) << shift;
 340:SynaptiX_FDK/lib/tinyusb/src/common/tusb_common.h ****     shift += 8;
 341:SynaptiX_FDK/lib/tinyusb/src/common/tusb_common.h ****   }
 342:SynaptiX_FDK/lib/tinyusb/src/common/tusb_common.h **** 
 343:SynaptiX_FDK/lib/tinyusb/src/common/tusb_common.h ****   for (uint8_t i = 0; i < len2; ++i) {
 344:SynaptiX_FDK/lib/tinyusb/src/common/tusb_common.h ****     result |= ((uint32_t)buf2[i]) << shift;
 345:SynaptiX_FDK/lib/tinyusb/src/common/tusb_common.h ****     shift += 8;
 346:SynaptiX_FDK/lib/tinyusb/src/common/tusb_common.h ****   }
 347:SynaptiX_FDK/lib/tinyusb/src/common/tusb_common.h **** 
 348:SynaptiX_FDK/lib/tinyusb/src/common/tusb_common.h ****   return result;
 349:SynaptiX_FDK/lib/tinyusb/src/common/tusb_common.h **** }
 350:SynaptiX_FDK/lib/tinyusb/src/common/tusb_common.h **** 
 351:SynaptiX_FDK/lib/tinyusb/src/common/tusb_common.h **** // scatter write 4 bytes (LE) to two buffers. Parameter are not checked
 352:SynaptiX_FDK/lib/tinyusb/src/common/tusb_common.h **** TU_ATTR_ALWAYS_INLINE static inline void tu_scatter_write32(uint32_t value, uint8_t *buf1, uint8_t 
 353:SynaptiX_FDK/lib/tinyusb/src/common/tusb_common.h ****                                                             uint8_t *buf2, uint8_t len2) {
 354:SynaptiX_FDK/lib/tinyusb/src/common/tusb_common.h ****   for (uint8_t i = 0; i < len1; ++i) {
 355:SynaptiX_FDK/lib/tinyusb/src/common/tusb_common.h ****     buf1[i] = (uint8_t)(value & 0xFF);
 356:SynaptiX_FDK/lib/tinyusb/src/common/tusb_common.h ****     value >>= 8;
 357:SynaptiX_FDK/lib/tinyusb/src/common/tusb_common.h ****   }
 358:SynaptiX_FDK/lib/tinyusb/src/common/tusb_common.h **** 
ARM GAS  C:\Users\DELL\AppData\Local\Temp\ccgExmFy.s 			page 54


 359:SynaptiX_FDK/lib/tinyusb/src/common/tusb_common.h ****   for (uint8_t i = 0; i < len2; ++i) {
 360:SynaptiX_FDK/lib/tinyusb/src/common/tusb_common.h ****     buf2[i] = (uint8_t)(value & 0xFF);
 361:SynaptiX_FDK/lib/tinyusb/src/common/tusb_common.h ****     value >>= 8;
 362:SynaptiX_FDK/lib/tinyusb/src/common/tusb_common.h ****   }
 363:SynaptiX_FDK/lib/tinyusb/src/common/tusb_common.h **** }
 364:SynaptiX_FDK/lib/tinyusb/src/common/tusb_common.h **** 
 365:SynaptiX_FDK/lib/tinyusb/src/common/tusb_common.h **** //--------------------------------------------------------------------+
 366:SynaptiX_FDK/lib/tinyusb/src/common/tusb_common.h **** // Descriptor helper
 367:SynaptiX_FDK/lib/tinyusb/src/common/tusb_common.h **** //--------------------------------------------------------------------+
 368:SynaptiX_FDK/lib/tinyusb/src/common/tusb_common.h **** 
 369:SynaptiX_FDK/lib/tinyusb/src/common/tusb_common.h **** // return next descriptor
 370:SynaptiX_FDK/lib/tinyusb/src/common/tusb_common.h **** TU_ATTR_ALWAYS_INLINE static inline uint8_t const * tu_desc_next(void const* desc) {
 1459              		.loc 5 370 53 view .LVU346
 1460              	.LBB180:
 371:SynaptiX_FDK/lib/tinyusb/src/common/tusb_common.h ****   uint8_t const* desc8 = (uint8_t const*) desc;
 1461              		.loc 5 371 3 view .LVU347
 372:SynaptiX_FDK/lib/tinyusb/src/common/tusb_common.h ****   return desc8 + desc8[DESC_OFFSET_LEN];
 1462              		.loc 5 372 3 view .LVU348
 1463              		.loc 5 372 23 is_stmt 0 view .LVU349
 1464 0036 2578     		ldrb	r5, [r4]	@ zero_extendqisi2
 1465              		.loc 5 372 16 view .LVU350
 1466 0038 2544     		add	r5, r5, r4
 1467              	.LVL126:
 1468              		.loc 5 372 16 view .LVU351
 1469              	.LBE180:
 1470              	.LBE179:
 314:SynaptiX_FDK/lib/tinyusb/src/class/cdc/cdc_device.c ****   while (tu_desc_in_bounds(p_desc, desc_end) && TUSB_DESC_CS_INTERFACE == tu_desc_type(p_desc)) {
 1471              		.loc 1 314 3 is_stmt 1 view .LVU352
 1472              	.L141:
 1473              		.loc 1 314 46 view .LVU353
 1474              	.LBB181:
 1475              	.LBI181:
 373:SynaptiX_FDK/lib/tinyusb/src/common/tusb_common.h **** }
 374:SynaptiX_FDK/lib/tinyusb/src/common/tusb_common.h **** 
 375:SynaptiX_FDK/lib/tinyusb/src/common/tusb_common.h **** // get descriptor length
 376:SynaptiX_FDK/lib/tinyusb/src/common/tusb_common.h **** TU_ATTR_ALWAYS_INLINE static inline uint8_t tu_desc_len(void const* desc) {
 377:SynaptiX_FDK/lib/tinyusb/src/common/tusb_common.h ****   return ((uint8_t const*) desc)[DESC_OFFSET_LEN];
 378:SynaptiX_FDK/lib/tinyusb/src/common/tusb_common.h **** }
 379:SynaptiX_FDK/lib/tinyusb/src/common/tusb_common.h **** 
 380:SynaptiX_FDK/lib/tinyusb/src/common/tusb_common.h **** // get descriptor type
 381:SynaptiX_FDK/lib/tinyusb/src/common/tusb_common.h **** TU_ATTR_ALWAYS_INLINE static inline uint8_t tu_desc_type(void const* desc) {
 382:SynaptiX_FDK/lib/tinyusb/src/common/tusb_common.h ****   return ((uint8_t const*) desc)[DESC_OFFSET_TYPE];
 383:SynaptiX_FDK/lib/tinyusb/src/common/tusb_common.h **** }
 384:SynaptiX_FDK/lib/tinyusb/src/common/tusb_common.h **** 
 385:SynaptiX_FDK/lib/tinyusb/src/common/tusb_common.h **** // get descriptor subtype
 386:SynaptiX_FDK/lib/tinyusb/src/common/tusb_common.h **** TU_ATTR_ALWAYS_INLINE static inline uint8_t tu_desc_subtype(void const* desc) {
 387:SynaptiX_FDK/lib/tinyusb/src/common/tusb_common.h ****   return ((uint8_t const*) desc)[DESC_OFFSET_SUBTYPE];
 388:SynaptiX_FDK/lib/tinyusb/src/common/tusb_common.h **** }
 389:SynaptiX_FDK/lib/tinyusb/src/common/tusb_common.h **** 
 390:SynaptiX_FDK/lib/tinyusb/src/common/tusb_common.h **** TU_ATTR_ALWAYS_INLINE static inline bool tu_desc_in_bounds(const uint8_t *p_desc, const uint8_t *de
 1476              		.loc 5 390 42 view .LVU354
 1477              	.LBB182:
 391:SynaptiX_FDK/lib/tinyusb/src/common/tusb_common.h ****   return p_desc < desc_end && tu_desc_next(p_desc) <= desc_end;
 1478              		.loc 5 391 3 view .LVU355
 1479              		.loc 5 391 28 is_stmt 0 view .LVU356
 1480 003a 4D45     		cmp	r5, r9
 1481 003c 23D2     		bcs	.L140
ARM GAS  C:\Users\DELL\AppData\Local\Temp\ccgExmFy.s 			page 55


 1482              	.LVL127:
 1483              	.LBB183:
 1484              	.LBI183:
 370:SynaptiX_FDK/lib/tinyusb/src/common/tusb_common.h ****   uint8_t const* desc8 = (uint8_t const*) desc;
 1485              		.loc 5 370 53 is_stmt 1 view .LVU357
 1486              	.LBB184:
 371:SynaptiX_FDK/lib/tinyusb/src/common/tusb_common.h ****   return desc8 + desc8[DESC_OFFSET_LEN];
 1487              		.loc 5 371 3 view .LVU358
 372:SynaptiX_FDK/lib/tinyusb/src/common/tusb_common.h **** }
 1488              		.loc 5 372 3 view .LVU359
 372:SynaptiX_FDK/lib/tinyusb/src/common/tusb_common.h **** }
 1489              		.loc 5 372 23 is_stmt 0 view .LVU360
 1490 003e 2B78     		ldrb	r3, [r5]	@ zero_extendqisi2
 372:SynaptiX_FDK/lib/tinyusb/src/common/tusb_common.h **** }
 1491              		.loc 5 372 16 view .LVU361
 1492 0040 2B44     		add	r3, r3, r5
 1493              	.LVL128:
 372:SynaptiX_FDK/lib/tinyusb/src/common/tusb_common.h **** }
 1494              		.loc 5 372 16 view .LVU362
 1495              	.LBE184:
 1496              	.LBE183:
 1497              		.loc 5 391 28 discriminator 1 view .LVU363
 1498 0042 9945     		cmp	r9, r3
 1499 0044 1FD3     		bcc	.L140
 1500              	.LVL129:
 1501              		.loc 5 391 28 discriminator 1 view .LVU364
 1502              	.LBE182:
 1503              	.LBE181:
 1504              	.LBB185:
 1505              	.LBI185:
 381:SynaptiX_FDK/lib/tinyusb/src/common/tusb_common.h ****   return ((uint8_t const*) desc)[DESC_OFFSET_TYPE];
 1506              		.loc 5 381 45 is_stmt 1 view .LVU365
 1507              	.LBB186:
 382:SynaptiX_FDK/lib/tinyusb/src/common/tusb_common.h **** }
 1508              		.loc 5 382 3 view .LVU366
 382:SynaptiX_FDK/lib/tinyusb/src/common/tusb_common.h **** }
 1509              		.loc 5 382 33 is_stmt 0 view .LVU367
 1510 0046 6A78     		ldrb	r2, [r5, #1]	@ zero_extendqisi2
 1511              	.LVL130:
 382:SynaptiX_FDK/lib/tinyusb/src/common/tusb_common.h **** }
 1512              		.loc 5 382 33 view .LVU368
 1513              	.LBE186:
 1514              	.LBE185:
 1515              		.loc 1 314 46 discriminator 1 view .LVU369
 1516 0048 242A     		cmp	r2, #36
 1517 004a 1CD1     		bne	.L140
 315:SynaptiX_FDK/lib/tinyusb/src/class/cdc/cdc_device.c ****     p_desc = tu_desc_next(p_desc);
 1518              		.loc 1 315 14 view .LVU370
 1519 004c 1D46     		mov	r5, r3
 1520              	.LVL131:
 1521              		.loc 1 315 14 view .LVU371
 1522 004e F4E7     		b	.L141
 1523              	.LVL132:
 1524              	.L137:
 1525              	.LBB187:
 1526              	.LBB178:
 1527              	.LBB177:
ARM GAS  C:\Users\DELL\AppData\Local\Temp\ccgExmFy.s 			page 56


 1528              	.LBB176:
 122:SynaptiX_FDK/lib/tinyusb/src/class/cdc/cdc_device.c ****     if (ep_addr == p_cdc->rx_stream.ep_addr || ep_addr == p_cdc->tx_stream.ep_addr ||
 1529              		.loc 1 122 5 is_stmt 1 view .LVU372
 123:SynaptiX_FDK/lib/tinyusb/src/class/cdc/cdc_device.c ****         (ep_addr == p_cdc->ep_notify && ep_addr != 0)) {
 1530              		.loc 1 123 5 view .LVU373
 123:SynaptiX_FDK/lib/tinyusb/src/class/cdc/cdc_device.c ****         (ep_addr == p_cdc->ep_notify && ep_addr != 0)) {
 1531              		.loc 1 123 36 is_stmt 0 view .LVU374
 1532 0050 604B     		ldr	r3, .L169
 1533 0052 BC21     		movs	r1, #188
 1534 0054 01FB0633 		mla	r3, r1, r6, r3
 1535              	.LVL133:
 123:SynaptiX_FDK/lib/tinyusb/src/class/cdc/cdc_device.c ****         (ep_addr == p_cdc->ep_notify && ep_addr != 0)) {
 1536              		.loc 1 123 36 view .LVU375
 1537 0058 93F82630 		ldrb	r3, [r3, #38]	@ zero_extendqisi2
 1538              	.LVL134:
 123:SynaptiX_FDK/lib/tinyusb/src/class/cdc/cdc_device.c ****         (ep_addr == p_cdc->ep_notify && ep_addr != 0)) {
 1539              		.loc 1 123 8 view .LVU376
 1540 005c 002B     		cmp	r3, #0
 1541 005e DED0     		beq	.L136
 123:SynaptiX_FDK/lib/tinyusb/src/class/cdc/cdc_device.c ****         (ep_addr == p_cdc->ep_notify && ep_addr != 0)) {
 1542              		.loc 1 123 75 discriminator 1 view .LVU377
 1543 0060 5C4B     		ldr	r3, .L169
 1544 0062 01FB0633 		mla	r3, r1, r6, r3
 1545              	.LVL135:
 123:SynaptiX_FDK/lib/tinyusb/src/class/cdc/cdc_device.c ****         (ep_addr == p_cdc->ep_notify && ep_addr != 0)) {
 1546              		.loc 1 123 75 discriminator 1 view .LVU378
 1547 0066 9B7B     		ldrb	r3, [r3, #14]	@ zero_extendqisi2
 1548              	.LVL136:
 123:SynaptiX_FDK/lib/tinyusb/src/class/cdc/cdc_device.c ****         (ep_addr == p_cdc->ep_notify && ep_addr != 0)) {
 1549              		.loc 1 123 45 discriminator 1 view .LVU379
 1550 0068 002B     		cmp	r3, #0
 1551 006a D8D0     		beq	.L136
 1552              	.LBE176:
 121:SynaptiX_FDK/lib/tinyusb/src/class/cdc/cdc_device.c ****     const cdcd_interface_t *p_cdc = &_cdcd_itf[idx];
 1553              		.loc 1 121 47 is_stmt 1 discriminator 2 view .LVU380
 1554 006c 0136     		adds	r6, r6, #1
 1555              	.LVL137:
 121:SynaptiX_FDK/lib/tinyusb/src/class/cdc/cdc_device.c ****     const cdcd_interface_t *p_cdc = &_cdcd_itf[idx];
 1556              		.loc 1 121 47 is_stmt 0 discriminator 2 view .LVU381
 1557 006e F6B2     		uxtb	r6, r6
 1558              	.LVL138:
 121:SynaptiX_FDK/lib/tinyusb/src/class/cdc/cdc_device.c ****     const cdcd_interface_t *p_cdc = &_cdcd_itf[idx];
 1559              		.loc 1 121 47 discriminator 2 view .LVU382
 1560 0070 D3E7     		b	.L135
 1561              	.LVL139:
 1562              	.L162:
 121:SynaptiX_FDK/lib/tinyusb/src/class/cdc/cdc_device.c ****     const cdcd_interface_t *p_cdc = &_cdcd_itf[idx];
 1563              		.loc 1 121 47 discriminator 2 view .LVU383
 1564              	.LBE177:
 1565              	.LBE178:
 1566              	.LBE187:
 302:SynaptiX_FDK/lib/tinyusb/src/class/cdc/cdc_device.c ****   cdcd_interface_t *p_cdc = &_cdcd_itf[cdc_id];
 1567              		.loc 1 302 3 is_stmt 1 discriminator 1 view .LVU384
 302:SynaptiX_FDK/lib/tinyusb/src/class/cdc/cdc_device.c ****   cdcd_interface_t *p_cdc = &_cdcd_itf[cdc_id];
 1568              		.loc 1 302 3 discriminator 1 view .LVU385
 302:SynaptiX_FDK/lib/tinyusb/src/class/cdc/cdc_device.c ****   cdcd_interface_t *p_cdc = &_cdcd_itf[cdc_id];
 1569              		.loc 1 302 3 discriminator 1 view .LVU386
ARM GAS  C:\Users\DELL\AppData\Local\Temp\ccgExmFy.s 			page 57


 302:SynaptiX_FDK/lib/tinyusb/src/class/cdc/cdc_device.c ****   cdcd_interface_t *p_cdc = &_cdcd_itf[cdc_id];
 1570              		.loc 1 302 3 discriminator 1 view .LVU387
 1571              	.LBB188:
 302:SynaptiX_FDK/lib/tinyusb/src/class/cdc/cdc_device.c ****   cdcd_interface_t *p_cdc = &_cdcd_itf[cdc_id];
 1572              		.loc 1 302 3 discriminator 1 view .LVU388
 302:SynaptiX_FDK/lib/tinyusb/src/class/cdc/cdc_device.c ****   cdcd_interface_t *p_cdc = &_cdcd_itf[cdc_id];
 1573              		.loc 1 302 3 view .LVU389
 302:SynaptiX_FDK/lib/tinyusb/src/class/cdc/cdc_device.c ****   cdcd_interface_t *p_cdc = &_cdcd_itf[cdc_id];
 1574              		.loc 1 302 3 is_stmt 0 discriminator 1 view .LVU390
 1575 0072 4FF0E023 		mov	r3, #-536813568
 1576 0076 D3F8F03D 		ldr	r3, [r3, #3568]
 1577 007a 13F0010F 		tst	r3, #1
 1578 007e 00D0     		beq	.L139
 302:SynaptiX_FDK/lib/tinyusb/src/class/cdc/cdc_device.c ****   cdcd_interface_t *p_cdc = &_cdcd_itf[cdc_id];
 1579              		.loc 1 302 3 is_stmt 1 discriminator 2 view .LVU391
 1580              		.syntax unified
 1581              	@ 302 "SynaptiX_FDK/lib/tinyusb/src/class/cdc/cdc_device.c" 1
 1582 0080 00BE     		BKPT #0
 1583              	
 1584              	@ 0 "" 2
 1585              		.thumb
 1586              		.syntax unified
 1587              	.L139:
 1588              	.LBE188:
 302:SynaptiX_FDK/lib/tinyusb/src/class/cdc/cdc_device.c ****   cdcd_interface_t *p_cdc = &_cdcd_itf[cdc_id];
 1589              		.loc 1 302 3 discriminator 4 view .LVU392
 302:SynaptiX_FDK/lib/tinyusb/src/class/cdc/cdc_device.c ****   cdcd_interface_t *p_cdc = &_cdcd_itf[cdc_id];
 1590              		.loc 1 302 3 discriminator 4 view .LVU393
 1591 0082 0020     		movs	r0, #0
 1592              	.LVL140:
 302:SynaptiX_FDK/lib/tinyusb/src/class/cdc/cdc_device.c ****   cdcd_interface_t *p_cdc = &_cdcd_itf[cdc_id];
 1593              		.loc 1 302 3 is_stmt 0 view .LVU394
 1594 0084 A1E0     		b	.L134
 1595              	.LVL141:
 1596              	.L140:
 316:SynaptiX_FDK/lib/tinyusb/src/class/cdc/cdc_device.c ****   }
 317:SynaptiX_FDK/lib/tinyusb/src/class/cdc/cdc_device.c **** 
 318:SynaptiX_FDK/lib/tinyusb/src/class/cdc/cdc_device.c ****   // notification endpoint (optional)
 319:SynaptiX_FDK/lib/tinyusb/src/class/cdc/cdc_device.c ****   if (TUSB_DESC_ENDPOINT == tu_desc_type(p_desc)) {
 1597              		.loc 1 319 3 is_stmt 1 view .LVU395
 1598              	.LBB189:
 1599              	.LBI189:
 381:SynaptiX_FDK/lib/tinyusb/src/common/tusb_common.h ****   return ((uint8_t const*) desc)[DESC_OFFSET_TYPE];
 1600              		.loc 5 381 45 view .LVU396
 1601              	.LBB190:
 382:SynaptiX_FDK/lib/tinyusb/src/common/tusb_common.h **** }
 1602              		.loc 5 382 3 view .LVU397
 382:SynaptiX_FDK/lib/tinyusb/src/common/tusb_common.h **** }
 1603              		.loc 5 382 33 is_stmt 0 view .LVU398
 1604 0086 6B78     		ldrb	r3, [r5, #1]	@ zero_extendqisi2
 1605              	.LVL142:
 382:SynaptiX_FDK/lib/tinyusb/src/common/tusb_common.h **** }
 1606              		.loc 5 382 33 view .LVU399
 1607              	.LBE190:
 1608              	.LBE189:
 1609              		.loc 1 319 6 discriminator 1 view .LVU400
 1610 0088 052B     		cmp	r3, #5
ARM GAS  C:\Users\DELL\AppData\Local\Temp\ccgExmFy.s 			page 58


 1611 008a 05D0     		beq	.L163
 1612              	.LVL143:
 1613              	.L142:
 320:SynaptiX_FDK/lib/tinyusb/src/class/cdc/cdc_device.c ****     const tusb_desc_endpoint_t* desc_ep = (const tusb_desc_endpoint_t*) p_desc;
 321:SynaptiX_FDK/lib/tinyusb/src/class/cdc/cdc_device.c ****     TU_ASSERT(usbd_edpt_open(rhport, desc_ep), 0);
 322:SynaptiX_FDK/lib/tinyusb/src/class/cdc/cdc_device.c ****     p_cdc->ep_notify = desc_ep->bEndpointAddress;
 323:SynaptiX_FDK/lib/tinyusb/src/class/cdc/cdc_device.c **** 
 324:SynaptiX_FDK/lib/tinyusb/src/class/cdc/cdc_device.c ****     p_desc = tu_desc_next(p_desc);
 325:SynaptiX_FDK/lib/tinyusb/src/class/cdc/cdc_device.c ****   }
 326:SynaptiX_FDK/lib/tinyusb/src/class/cdc/cdc_device.c **** 
 327:SynaptiX_FDK/lib/tinyusb/src/class/cdc/cdc_device.c ****   //------------- Data Interface (optional) -------------//
 328:SynaptiX_FDK/lib/tinyusb/src/class/cdc/cdc_device.c ****   if (TUSB_DESC_INTERFACE == tu_desc_type(p_desc)) {
 1614              		.loc 1 328 3 is_stmt 1 view .LVU401
 1615              	.LBB191:
 1616              	.LBI191:
 381:SynaptiX_FDK/lib/tinyusb/src/common/tusb_common.h ****   return ((uint8_t const*) desc)[DESC_OFFSET_TYPE];
 1617              		.loc 5 381 45 view .LVU402
 1618              	.LBB192:
 382:SynaptiX_FDK/lib/tinyusb/src/common/tusb_common.h **** }
 1619              		.loc 5 382 3 view .LVU403
 382:SynaptiX_FDK/lib/tinyusb/src/common/tusb_common.h **** }
 1620              		.loc 5 382 33 is_stmt 0 view .LVU404
 1621 008c 6B78     		ldrb	r3, [r5, #1]	@ zero_extendqisi2
 1622              	.LVL144:
 382:SynaptiX_FDK/lib/tinyusb/src/common/tusb_common.h **** }
 1623              		.loc 5 382 33 view .LVU405
 1624              	.LBE192:
 1625              	.LBE191:
 1626              		.loc 1 328 6 discriminator 1 view .LVU406
 1627 008e 042B     		cmp	r3, #4
 1628 0090 1AD0     		beq	.L164
 1629              	.LVL145:
 1630              	.L145:
 329:SynaptiX_FDK/lib/tinyusb/src/class/cdc/cdc_device.c ****     const tusb_desc_interface_t *data_itf_desc = (const tusb_desc_interface_t *)p_desc;
 330:SynaptiX_FDK/lib/tinyusb/src/class/cdc/cdc_device.c ****     if (TUSB_CLASS_CDC_DATA == data_itf_desc->bInterfaceClass) {
 331:SynaptiX_FDK/lib/tinyusb/src/class/cdc/cdc_device.c ****       for (uint8_t e = 0; e < data_itf_desc->bNumEndpoints; e++) {
 332:SynaptiX_FDK/lib/tinyusb/src/class/cdc/cdc_device.c ****         if (!tu_desc_in_bounds(p_desc, desc_end)) {
 333:SynaptiX_FDK/lib/tinyusb/src/class/cdc/cdc_device.c ****           break;
 334:SynaptiX_FDK/lib/tinyusb/src/class/cdc/cdc_device.c ****         }
 335:SynaptiX_FDK/lib/tinyusb/src/class/cdc/cdc_device.c ****         p_desc = tu_desc_next(p_desc);
 336:SynaptiX_FDK/lib/tinyusb/src/class/cdc/cdc_device.c **** 
 337:SynaptiX_FDK/lib/tinyusb/src/class/cdc/cdc_device.c ****         const tusb_desc_endpoint_t *desc_ep = (const tusb_desc_endpoint_t *)p_desc;
 338:SynaptiX_FDK/lib/tinyusb/src/class/cdc/cdc_device.c ****         TU_ASSERT(TUSB_DESC_ENDPOINT == desc_ep->bDescriptorType && TUSB_XFER_BULK == desc_ep->bmAt
 339:SynaptiX_FDK/lib/tinyusb/src/class/cdc/cdc_device.c **** 
 340:SynaptiX_FDK/lib/tinyusb/src/class/cdc/cdc_device.c ****         TU_ASSERT(usbd_edpt_open(rhport, desc_ep), 0);
 341:SynaptiX_FDK/lib/tinyusb/src/class/cdc/cdc_device.c ****         if (tu_edpt_dir(desc_ep->bEndpointAddress) == TUSB_DIR_IN) {
 342:SynaptiX_FDK/lib/tinyusb/src/class/cdc/cdc_device.c ****           tu_edpt_stream_t *stream_tx = &p_cdc->tx_stream;
 343:SynaptiX_FDK/lib/tinyusb/src/class/cdc/cdc_device.c ****           tu_edpt_stream_open(stream_tx, rhport, desc_ep, CFG_TUD_CDC_TX_EPSIZE);
 344:SynaptiX_FDK/lib/tinyusb/src/class/cdc/cdc_device.c **** 
 345:SynaptiX_FDK/lib/tinyusb/src/class/cdc/cdc_device.c ****   #if CFG_TUD_CDC_TX_PERSISTENT
 346:SynaptiX_FDK/lib/tinyusb/src/class/cdc/cdc_device.c ****           tu_edpt_stream_write_xfer(stream_tx); // flush pending data
 347:SynaptiX_FDK/lib/tinyusb/src/class/cdc/cdc_device.c ****   #else
 348:SynaptiX_FDK/lib/tinyusb/src/class/cdc/cdc_device.c ****           tu_edpt_stream_clear(stream_tx);
 349:SynaptiX_FDK/lib/tinyusb/src/class/cdc/cdc_device.c ****   #endif
 350:SynaptiX_FDK/lib/tinyusb/src/class/cdc/cdc_device.c ****         } else {
 351:SynaptiX_FDK/lib/tinyusb/src/class/cdc/cdc_device.c ****           tu_edpt_stream_t *stream_rx = &p_cdc->rx_stream;
 352:SynaptiX_FDK/lib/tinyusb/src/class/cdc/cdc_device.c ****   #if CFG_TUD_CDC_RX_NEED_ZLP
ARM GAS  C:\Users\DELL\AppData\Local\Temp\ccgExmFy.s 			page 59


 353:SynaptiX_FDK/lib/tinyusb/src/class/cdc/cdc_device.c ****           const uint16_t xfer_len = CFG_TUD_CDC_RX_EPSIZE;
 354:SynaptiX_FDK/lib/tinyusb/src/class/cdc/cdc_device.c ****   #else
 355:SynaptiX_FDK/lib/tinyusb/src/class/cdc/cdc_device.c ****           const uint16_t xfer_len = tu_edpt_packet_size(desc_ep);
 356:SynaptiX_FDK/lib/tinyusb/src/class/cdc/cdc_device.c ****   #endif
 357:SynaptiX_FDK/lib/tinyusb/src/class/cdc/cdc_device.c **** 
 358:SynaptiX_FDK/lib/tinyusb/src/class/cdc/cdc_device.c ****           tu_edpt_stream_open(stream_rx, rhport, desc_ep, xfer_len);
 359:SynaptiX_FDK/lib/tinyusb/src/class/cdc/cdc_device.c **** 
 360:SynaptiX_FDK/lib/tinyusb/src/class/cdc/cdc_device.c ****   #if !CFG_TUD_CDC_RX_PERSISTENT
 361:SynaptiX_FDK/lib/tinyusb/src/class/cdc/cdc_device.c ****           tu_edpt_stream_clear(stream_rx);
 362:SynaptiX_FDK/lib/tinyusb/src/class/cdc/cdc_device.c ****   #endif
 363:SynaptiX_FDK/lib/tinyusb/src/class/cdc/cdc_device.c **** 
 364:SynaptiX_FDK/lib/tinyusb/src/class/cdc/cdc_device.c ****           TU_ASSERT(tu_edpt_stream_read_xfer(stream_rx) > 0, 0); // prepare for incoming data
 365:SynaptiX_FDK/lib/tinyusb/src/class/cdc/cdc_device.c ****         }
 366:SynaptiX_FDK/lib/tinyusb/src/class/cdc/cdc_device.c ****       }
 367:SynaptiX_FDK/lib/tinyusb/src/class/cdc/cdc_device.c **** 
 368:SynaptiX_FDK/lib/tinyusb/src/class/cdc/cdc_device.c ****       p_desc = tu_desc_next(p_desc);
 369:SynaptiX_FDK/lib/tinyusb/src/class/cdc/cdc_device.c ****     }
 370:SynaptiX_FDK/lib/tinyusb/src/class/cdc/cdc_device.c ****   }
 371:SynaptiX_FDK/lib/tinyusb/src/class/cdc/cdc_device.c **** 
 372:SynaptiX_FDK/lib/tinyusb/src/class/cdc/cdc_device.c ****   return (uint16_t)(p_desc - (const uint8_t *)itf_desc);
 1631              		.loc 1 372 3 is_stmt 1 view .LVU407
 1632              		.loc 1 372 28 is_stmt 0 view .LVU408
 1633 0092 281B     		subs	r0, r5, r4
 1634              		.loc 1 372 10 view .LVU409
 1635 0094 80B2     		uxth	r0, r0
 1636 0096 98E0     		b	.L134
 1637              	.LVL146:
 1638              	.L163:
 1639              	.LBB193:
 320:SynaptiX_FDK/lib/tinyusb/src/class/cdc/cdc_device.c ****     TU_ASSERT(usbd_edpt_open(rhport, desc_ep), 0);
 1640              		.loc 1 320 5 is_stmt 1 view .LVU410
 321:SynaptiX_FDK/lib/tinyusb/src/class/cdc/cdc_device.c ****     p_cdc->ep_notify = desc_ep->bEndpointAddress;
 1641              		.loc 1 321 5 view .LVU411
 321:SynaptiX_FDK/lib/tinyusb/src/class/cdc/cdc_device.c ****     p_cdc->ep_notify = desc_ep->bEndpointAddress;
 1642              		.loc 1 321 5 view .LVU412
 1643 0098 2946     		mov	r1, r5
 1644 009a 3846     		mov	r0, r7
 1645              	.LVL147:
 321:SynaptiX_FDK/lib/tinyusb/src/class/cdc/cdc_device.c ****     p_cdc->ep_notify = desc_ep->bEndpointAddress;
 1646              		.loc 1 321 5 is_stmt 0 view .LVU413
 1647 009c FFF7FEFF 		bl	usbd_edpt_open
 1648              	.LVL148:
 321:SynaptiX_FDK/lib/tinyusb/src/class/cdc/cdc_device.c ****     p_cdc->ep_notify = desc_ep->bEndpointAddress;
 1649              		.loc 1 321 5 discriminator 1 view .LVU414
 1650 00a0 40B1     		cbz	r0, .L165
 321:SynaptiX_FDK/lib/tinyusb/src/class/cdc/cdc_device.c ****     p_cdc->ep_notify = desc_ep->bEndpointAddress;
 1651              		.loc 1 321 5 is_stmt 1 view .LVU415
 322:SynaptiX_FDK/lib/tinyusb/src/class/cdc/cdc_device.c **** 
 1652              		.loc 1 322 5 view .LVU416
 322:SynaptiX_FDK/lib/tinyusb/src/class/cdc/cdc_device.c **** 
 1653              		.loc 1 322 31 is_stmt 0 view .LVU417
 1654 00a2 AA78     		ldrb	r2, [r5, #2]	@ zero_extendqisi2
 322:SynaptiX_FDK/lib/tinyusb/src/class/cdc/cdc_device.c **** 
 1655              		.loc 1 322 22 view .LVU418
 1656 00a4 4B4B     		ldr	r3, .L169
 1657 00a6 BC21     		movs	r1, #188
 1658 00a8 01FB0833 		mla	r3, r1, r8, r3
ARM GAS  C:\Users\DELL\AppData\Local\Temp\ccgExmFy.s 			page 60


 1659 00ac 9A70     		strb	r2, [r3, #2]
 324:SynaptiX_FDK/lib/tinyusb/src/class/cdc/cdc_device.c ****   }
 1660              		.loc 1 324 5 is_stmt 1 view .LVU419
 1661              	.LVL149:
 1662              	.LBB194:
 1663              	.LBI194:
 370:SynaptiX_FDK/lib/tinyusb/src/common/tusb_common.h ****   uint8_t const* desc8 = (uint8_t const*) desc;
 1664              		.loc 5 370 53 view .LVU420
 1665              	.LBB195:
 371:SynaptiX_FDK/lib/tinyusb/src/common/tusb_common.h ****   return desc8 + desc8[DESC_OFFSET_LEN];
 1666              		.loc 5 371 3 view .LVU421
 372:SynaptiX_FDK/lib/tinyusb/src/common/tusb_common.h **** }
 1667              		.loc 5 372 3 view .LVU422
 372:SynaptiX_FDK/lib/tinyusb/src/common/tusb_common.h **** }
 1668              		.loc 5 372 23 is_stmt 0 view .LVU423
 1669 00ae 2B78     		ldrb	r3, [r5]	@ zero_extendqisi2
 372:SynaptiX_FDK/lib/tinyusb/src/common/tusb_common.h **** }
 1670              		.loc 5 372 16 view .LVU424
 1671 00b0 1D44     		add	r5, r5, r3
 1672              	.LVL150:
 372:SynaptiX_FDK/lib/tinyusb/src/common/tusb_common.h **** }
 1673              		.loc 5 372 16 view .LVU425
 1674 00b2 EBE7     		b	.L142
 1675              	.LVL151:
 1676              	.L165:
 372:SynaptiX_FDK/lib/tinyusb/src/common/tusb_common.h **** }
 1677              		.loc 5 372 16 view .LVU426
 1678              	.LBE195:
 1679              	.LBE194:
 321:SynaptiX_FDK/lib/tinyusb/src/class/cdc/cdc_device.c ****     p_cdc->ep_notify = desc_ep->bEndpointAddress;
 1680              		.loc 1 321 5 is_stmt 1 discriminator 1 view .LVU427
 321:SynaptiX_FDK/lib/tinyusb/src/class/cdc/cdc_device.c ****     p_cdc->ep_notify = desc_ep->bEndpointAddress;
 1681              		.loc 1 321 5 discriminator 1 view .LVU428
 321:SynaptiX_FDK/lib/tinyusb/src/class/cdc/cdc_device.c ****     p_cdc->ep_notify = desc_ep->bEndpointAddress;
 1682              		.loc 1 321 5 discriminator 1 view .LVU429
 321:SynaptiX_FDK/lib/tinyusb/src/class/cdc/cdc_device.c ****     p_cdc->ep_notify = desc_ep->bEndpointAddress;
 1683              		.loc 1 321 5 discriminator 1 view .LVU430
 1684              	.LBB196:
 321:SynaptiX_FDK/lib/tinyusb/src/class/cdc/cdc_device.c ****     p_cdc->ep_notify = desc_ep->bEndpointAddress;
 1685              		.loc 1 321 5 discriminator 1 view .LVU431
 321:SynaptiX_FDK/lib/tinyusb/src/class/cdc/cdc_device.c ****     p_cdc->ep_notify = desc_ep->bEndpointAddress;
 1686              		.loc 1 321 5 view .LVU432
 321:SynaptiX_FDK/lib/tinyusb/src/class/cdc/cdc_device.c ****     p_cdc->ep_notify = desc_ep->bEndpointAddress;
 1687              		.loc 1 321 5 is_stmt 0 discriminator 1 view .LVU433
 1688 00b4 4FF0E023 		mov	r3, #-536813568
 1689 00b8 D3F8F03D 		ldr	r3, [r3, #3568]
 1690 00bc 13F0010F 		tst	r3, #1
 1691 00c0 00D0     		beq	.L144
 321:SynaptiX_FDK/lib/tinyusb/src/class/cdc/cdc_device.c ****     p_cdc->ep_notify = desc_ep->bEndpointAddress;
 1692              		.loc 1 321 5 is_stmt 1 discriminator 2 view .LVU434
 1693              		.syntax unified
 1694              	@ 321 "SynaptiX_FDK/lib/tinyusb/src/class/cdc/cdc_device.c" 1
 1695 00c2 00BE     		BKPT #0
 1696              	
 1697              	@ 0 "" 2
 1698              		.thumb
 1699              		.syntax unified
ARM GAS  C:\Users\DELL\AppData\Local\Temp\ccgExmFy.s 			page 61


 1700              	.L144:
 321:SynaptiX_FDK/lib/tinyusb/src/class/cdc/cdc_device.c ****     p_cdc->ep_notify = desc_ep->bEndpointAddress;
 1701              		.loc 1 321 5 is_stmt 0 discriminator 2 view .LVU435
 1702              	.LBE196:
 321:SynaptiX_FDK/lib/tinyusb/src/class/cdc/cdc_device.c ****     p_cdc->ep_notify = desc_ep->bEndpointAddress;
 1703              		.loc 1 321 5 is_stmt 1 discriminator 4 view .LVU436
 321:SynaptiX_FDK/lib/tinyusb/src/class/cdc/cdc_device.c ****     p_cdc->ep_notify = desc_ep->bEndpointAddress;
 1704              		.loc 1 321 5 discriminator 4 view .LVU437
 1705 00c4 0020     		movs	r0, #0
 321:SynaptiX_FDK/lib/tinyusb/src/class/cdc/cdc_device.c ****     p_cdc->ep_notify = desc_ep->bEndpointAddress;
 1706              		.loc 1 321 5 is_stmt 0 view .LVU438
 1707 00c6 80E0     		b	.L134
 1708              	.LVL152:
 1709              	.L164:
 321:SynaptiX_FDK/lib/tinyusb/src/class/cdc/cdc_device.c ****     p_cdc->ep_notify = desc_ep->bEndpointAddress;
 1710              		.loc 1 321 5 view .LVU439
 1711              	.LBE193:
 1712              	.LBB197:
 329:SynaptiX_FDK/lib/tinyusb/src/class/cdc/cdc_device.c ****     if (TUSB_CLASS_CDC_DATA == data_itf_desc->bInterfaceClass) {
 1713              		.loc 1 329 5 is_stmt 1 view .LVU440
 330:SynaptiX_FDK/lib/tinyusb/src/class/cdc/cdc_device.c ****       for (uint8_t e = 0; e < data_itf_desc->bNumEndpoints; e++) {
 1714              		.loc 1 330 5 view .LVU441
 330:SynaptiX_FDK/lib/tinyusb/src/class/cdc/cdc_device.c ****       for (uint8_t e = 0; e < data_itf_desc->bNumEndpoints; e++) {
 1715              		.loc 1 330 45 is_stmt 0 view .LVU442
 1716 00c8 6B79     		ldrb	r3, [r5, #5]	@ zero_extendqisi2
 330:SynaptiX_FDK/lib/tinyusb/src/class/cdc/cdc_device.c ****       for (uint8_t e = 0; e < data_itf_desc->bNumEndpoints; e++) {
 1717              		.loc 1 330 8 view .LVU443
 1718 00ca 0A2B     		cmp	r3, #10
 1719 00cc E1D1     		bne	.L145
 1720 00ce 2B46     		mov	r3, r5
 1721              	.LVL153:
 1722              	.L146:
 1723              	.LBB198:
 331:SynaptiX_FDK/lib/tinyusb/src/class/cdc/cdc_device.c ****         if (!tu_desc_in_bounds(p_desc, desc_end)) {
 1724              		.loc 1 331 29 is_stmt 1 discriminator 1 view .LVU444
 331:SynaptiX_FDK/lib/tinyusb/src/class/cdc/cdc_device.c ****         if (!tu_desc_in_bounds(p_desc, desc_end)) {
 1725              		.loc 1 331 44 is_stmt 0 discriminator 1 view .LVU445
 1726 00d0 2A79     		ldrb	r2, [r5, #4]	@ zero_extendqisi2
 331:SynaptiX_FDK/lib/tinyusb/src/class/cdc/cdc_device.c ****         if (!tu_desc_in_bounds(p_desc, desc_end)) {
 1727              		.loc 1 331 29 discriminator 1 view .LVU446
 1728 00d2 B242     		cmp	r2, r6
 1729 00d4 75D9     		bls	.L147
 1730              	.LBB199:
 332:SynaptiX_FDK/lib/tinyusb/src/class/cdc/cdc_device.c ****           break;
 1731              		.loc 1 332 9 is_stmt 1 view .LVU447
 1732              	.LVL154:
 1733              	.LBB200:
 1734              	.LBI200:
 390:SynaptiX_FDK/lib/tinyusb/src/common/tusb_common.h ****   return p_desc < desc_end && tu_desc_next(p_desc) <= desc_end;
 1735              		.loc 5 390 42 view .LVU448
 1736              	.LBB201:
 1737              		.loc 5 391 3 view .LVU449
 1738              		.loc 5 391 28 is_stmt 0 view .LVU450
 1739 00d6 4B45     		cmp	r3, r9
 1740 00d8 73D2     		bcs	.L147
 1741              	.LVL155:
 1742              	.LBB202:
ARM GAS  C:\Users\DELL\AppData\Local\Temp\ccgExmFy.s 			page 62


 1743              	.LBI202:
 370:SynaptiX_FDK/lib/tinyusb/src/common/tusb_common.h ****   uint8_t const* desc8 = (uint8_t const*) desc;
 1744              		.loc 5 370 53 is_stmt 1 view .LVU451
 1745              	.LBB203:
 371:SynaptiX_FDK/lib/tinyusb/src/common/tusb_common.h ****   return desc8 + desc8[DESC_OFFSET_LEN];
 1746              		.loc 5 371 3 view .LVU452
 372:SynaptiX_FDK/lib/tinyusb/src/common/tusb_common.h **** }
 1747              		.loc 5 372 3 view .LVU453
 372:SynaptiX_FDK/lib/tinyusb/src/common/tusb_common.h **** }
 1748              		.loc 5 372 23 is_stmt 0 view .LVU454
 1749 00da 93F800A0 		ldrb	r10, [r3]	@ zero_extendqisi2
 372:SynaptiX_FDK/lib/tinyusb/src/common/tusb_common.h **** }
 1750              		.loc 5 372 16 view .LVU455
 1751 00de 9A44     		add	r10, r10, r3
 1752              	.LVL156:
 372:SynaptiX_FDK/lib/tinyusb/src/common/tusb_common.h **** }
 1753              		.loc 5 372 16 view .LVU456
 1754              	.LBE203:
 1755              	.LBE202:
 1756              		.loc 5 391 28 discriminator 1 view .LVU457
 1757 00e0 D145     		cmp	r9, r10
 1758 00e2 6ED3     		bcc	.L147
 1759              	.LVL157:
 1760              		.loc 5 391 28 discriminator 1 view .LVU458
 1761              	.LBE201:
 1762              	.LBE200:
 335:SynaptiX_FDK/lib/tinyusb/src/class/cdc/cdc_device.c **** 
 1763              		.loc 1 335 9 is_stmt 1 view .LVU459
 337:SynaptiX_FDK/lib/tinyusb/src/class/cdc/cdc_device.c ****         TU_ASSERT(TUSB_DESC_ENDPOINT == desc_ep->bDescriptorType && TUSB_XFER_BULK == desc_ep->bmAt
 1764              		.loc 1 337 9 view .LVU460
 338:SynaptiX_FDK/lib/tinyusb/src/class/cdc/cdc_device.c **** 
 1765              		.loc 1 338 9 view .LVU461
 338:SynaptiX_FDK/lib/tinyusb/src/class/cdc/cdc_device.c **** 
 1766              		.loc 1 338 9 view .LVU462
 1767 00e4 9AF80130 		ldrb	r3, [r10, #1]	@ zero_extendqisi2
 1768              	.LVL158:
 338:SynaptiX_FDK/lib/tinyusb/src/class/cdc/cdc_device.c **** 
 1769              		.loc 1 338 9 is_stmt 0 view .LVU463
 1770 00e8 052B     		cmp	r3, #5
 1771 00ea 36D1     		bne	.L148
 338:SynaptiX_FDK/lib/tinyusb/src/class/cdc/cdc_device.c **** 
 1772              		.loc 1 338 9 discriminator 2 view .LVU464
 1773 00ec 9AF80330 		ldrb	r3, [r10, #3]	@ zero_extendqisi2
 1774 00f0 03F00303 		and	r3, r3, #3
 1775 00f4 022B     		cmp	r3, #2
 1776 00f6 30D1     		bne	.L148
 338:SynaptiX_FDK/lib/tinyusb/src/class/cdc/cdc_device.c **** 
 1777              		.loc 1 338 9 is_stmt 1 view .LVU465
 340:SynaptiX_FDK/lib/tinyusb/src/class/cdc/cdc_device.c ****         if (tu_edpt_dir(desc_ep->bEndpointAddress) == TUSB_DIR_IN) {
 1778              		.loc 1 340 9 view .LVU466
 340:SynaptiX_FDK/lib/tinyusb/src/class/cdc/cdc_device.c ****         if (tu_edpt_dir(desc_ep->bEndpointAddress) == TUSB_DIR_IN) {
 1779              		.loc 1 340 9 view .LVU467
 1780 00f8 5146     		mov	r1, r10
 1781 00fa 3846     		mov	r0, r7
 1782 00fc FFF7FEFF 		bl	usbd_edpt_open
 1783              	.LVL159:
 340:SynaptiX_FDK/lib/tinyusb/src/class/cdc/cdc_device.c ****         if (tu_edpt_dir(desc_ep->bEndpointAddress) == TUSB_DIR_IN) {
ARM GAS  C:\Users\DELL\AppData\Local\Temp\ccgExmFy.s 			page 63


 1784              		.loc 1 340 9 is_stmt 0 discriminator 1 view .LVU468
 1785 0100 A8B3     		cbz	r0, .L166
 340:SynaptiX_FDK/lib/tinyusb/src/class/cdc/cdc_device.c ****         if (tu_edpt_dir(desc_ep->bEndpointAddress) == TUSB_DIR_IN) {
 1786              		.loc 1 340 9 is_stmt 1 view .LVU469
 341:SynaptiX_FDK/lib/tinyusb/src/class/cdc/cdc_device.c ****           tu_edpt_stream_t *stream_tx = &p_cdc->tx_stream;
 1787              		.loc 1 341 9 view .LVU470
 341:SynaptiX_FDK/lib/tinyusb/src/class/cdc/cdc_device.c ****           tu_edpt_stream_t *stream_tx = &p_cdc->tx_stream;
 1788              		.loc 1 341 32 is_stmt 0 view .LVU471
 1789 0102 9AF80230 		ldrb	r3, [r10, #2]	@ zero_extendqisi2
 1790              	.LVL160:
 1791              	.LBB204:
 1792              	.LBI204:
 1793              		.file 7 "SynaptiX_FDK/lib/tinyusb/src/common/tusb_types.h"
   1:SynaptiX_FDK/lib/tinyusb/src/common/tusb_types.h **** /*
   2:SynaptiX_FDK/lib/tinyusb/src/common/tusb_types.h ****  * The MIT License (MIT)
   3:SynaptiX_FDK/lib/tinyusb/src/common/tusb_types.h ****  *
   4:SynaptiX_FDK/lib/tinyusb/src/common/tusb_types.h ****  * Copyright (c) 2019 Ha Thach (tinyusb.org)
   5:SynaptiX_FDK/lib/tinyusb/src/common/tusb_types.h ****  *
   6:SynaptiX_FDK/lib/tinyusb/src/common/tusb_types.h ****  * Permission is hereby granted, free of charge, to any person obtaining a copy
   7:SynaptiX_FDK/lib/tinyusb/src/common/tusb_types.h ****  * of this software and associated documentation files (the "Software"), to deal
   8:SynaptiX_FDK/lib/tinyusb/src/common/tusb_types.h ****  * in the Software without restriction, including without limitation the rights
   9:SynaptiX_FDK/lib/tinyusb/src/common/tusb_types.h ****  * to use, copy, modify, merge, publish, distribute, sublicense, and/or sell
  10:SynaptiX_FDK/lib/tinyusb/src/common/tusb_types.h ****  * copies of the Software, and to permit persons to whom the Software is
  11:SynaptiX_FDK/lib/tinyusb/src/common/tusb_types.h ****  * furnished to do so, subject to the following conditions:
  12:SynaptiX_FDK/lib/tinyusb/src/common/tusb_types.h ****  *
  13:SynaptiX_FDK/lib/tinyusb/src/common/tusb_types.h ****  * The above copyright notice and this permission notice shall be included in
  14:SynaptiX_FDK/lib/tinyusb/src/common/tusb_types.h ****  * all copies or substantial portions of the Software.
  15:SynaptiX_FDK/lib/tinyusb/src/common/tusb_types.h ****  *
  16:SynaptiX_FDK/lib/tinyusb/src/common/tusb_types.h ****  * THE SOFTWARE IS PROVIDED "AS IS", WITHOUT WARRANTY OF ANY KIND, EXPRESS OR
  17:SynaptiX_FDK/lib/tinyusb/src/common/tusb_types.h ****  * IMPLIED, INCLUDING BUT NOT LIMITED TO THE WARRANTIES OF MERCHANTABILITY,
  18:SynaptiX_FDK/lib/tinyusb/src/common/tusb_types.h ****  * FITNESS FOR A PARTICULAR PURPOSE AND NONINFRINGEMENT. IN NO EVENT SHALL THE
  19:SynaptiX_FDK/lib/tinyusb/src/common/tusb_types.h ****  * AUTHORS OR COPYRIGHT HOLDERS BE LIABLE FOR ANY CLAIM, DAMAGES OR OTHER
  20:SynaptiX_FDK/lib/tinyusb/src/common/tusb_types.h ****  * LIABILITY, WHETHER IN AN ACTION OF CONTRACT, TORT OR OTHERWISE, ARISING FROM,
  21:SynaptiX_FDK/lib/tinyusb/src/common/tusb_types.h ****  * OUT OF OR IN CONNECTION WITH THE SOFTWARE OR THE USE OR OTHER DEALINGS IN
  22:SynaptiX_FDK/lib/tinyusb/src/common/tusb_types.h ****  * THE SOFTWARE.
  23:SynaptiX_FDK/lib/tinyusb/src/common/tusb_types.h ****  *
  24:SynaptiX_FDK/lib/tinyusb/src/common/tusb_types.h ****  * This file is part of the TinyUSB stack.
  25:SynaptiX_FDK/lib/tinyusb/src/common/tusb_types.h ****  */
  26:SynaptiX_FDK/lib/tinyusb/src/common/tusb_types.h **** 
  27:SynaptiX_FDK/lib/tinyusb/src/common/tusb_types.h **** #ifndef TUSB_TYPES_H_
  28:SynaptiX_FDK/lib/tinyusb/src/common/tusb_types.h **** #define TUSB_TYPES_H_
  29:SynaptiX_FDK/lib/tinyusb/src/common/tusb_types.h **** 
  30:SynaptiX_FDK/lib/tinyusb/src/common/tusb_types.h **** #include <stdbool.h>
  31:SynaptiX_FDK/lib/tinyusb/src/common/tusb_types.h **** #include <stdint.h>
  32:SynaptiX_FDK/lib/tinyusb/src/common/tusb_types.h **** #include "tusb_compiler.h"
  33:SynaptiX_FDK/lib/tinyusb/src/common/tusb_types.h **** 
  34:SynaptiX_FDK/lib/tinyusb/src/common/tusb_types.h **** #ifdef __cplusplus
  35:SynaptiX_FDK/lib/tinyusb/src/common/tusb_types.h ****  extern "C" {
  36:SynaptiX_FDK/lib/tinyusb/src/common/tusb_types.h **** #endif
  37:SynaptiX_FDK/lib/tinyusb/src/common/tusb_types.h **** 
  38:SynaptiX_FDK/lib/tinyusb/src/common/tusb_types.h **** //------------- Device DCache declaration -------------//
  39:SynaptiX_FDK/lib/tinyusb/src/common/tusb_types.h **** #define TUD_EPBUF_DCACHE_SIZE(_size) (CFG_TUD_MEM_DCACHE_ENABLE ? \
  40:SynaptiX_FDK/lib/tinyusb/src/common/tusb_types.h ****   (TU_DIV_CEIL(_size, CFG_TUD_MEM_DCACHE_LINE_SIZE) * CFG_TUD_MEM_DCACHE_LINE_SIZE) : (_size))
  41:SynaptiX_FDK/lib/tinyusb/src/common/tusb_types.h **** 
  42:SynaptiX_FDK/lib/tinyusb/src/common/tusb_types.h **** // Declare an endpoint buffer with uint8_t[size]
  43:SynaptiX_FDK/lib/tinyusb/src/common/tusb_types.h **** #define TUD_EPBUF_DEF(_name, _size) \
  44:SynaptiX_FDK/lib/tinyusb/src/common/tusb_types.h ****   union { \
ARM GAS  C:\Users\DELL\AppData\Local\Temp\ccgExmFy.s 			page 64


  45:SynaptiX_FDK/lib/tinyusb/src/common/tusb_types.h ****     CFG_TUD_MEM_ALIGN uint8_t _name[_size]; \
  46:SynaptiX_FDK/lib/tinyusb/src/common/tusb_types.h ****     TU_ATTR_ALIGNED(CFG_TUD_MEM_DCACHE_ENABLE ? CFG_TUD_MEM_DCACHE_LINE_SIZE : 1) uint8_t _name##_d
  47:SynaptiX_FDK/lib/tinyusb/src/common/tusb_types.h ****   }
  48:SynaptiX_FDK/lib/tinyusb/src/common/tusb_types.h **** 
  49:SynaptiX_FDK/lib/tinyusb/src/common/tusb_types.h **** // Declare an endpoint buffer with a type
  50:SynaptiX_FDK/lib/tinyusb/src/common/tusb_types.h **** #define TUD_EPBUF_TYPE_DEF(_type, _name) \
  51:SynaptiX_FDK/lib/tinyusb/src/common/tusb_types.h ****   union { \
  52:SynaptiX_FDK/lib/tinyusb/src/common/tusb_types.h ****     CFG_TUD_MEM_ALIGN _type _name; \
  53:SynaptiX_FDK/lib/tinyusb/src/common/tusb_types.h ****     TU_ATTR_ALIGNED(CFG_TUD_MEM_DCACHE_ENABLE ? CFG_TUD_MEM_DCACHE_LINE_SIZE : 1) uint8_t _name##_d
  54:SynaptiX_FDK/lib/tinyusb/src/common/tusb_types.h ****   }
  55:SynaptiX_FDK/lib/tinyusb/src/common/tusb_types.h **** 
  56:SynaptiX_FDK/lib/tinyusb/src/common/tusb_types.h **** //------------- Host DCache declaration -------------//
  57:SynaptiX_FDK/lib/tinyusb/src/common/tusb_types.h **** #define TUH_EPBUF_DCACHE_SIZE(_size) (CFG_TUH_MEM_DCACHE_ENABLE ? \
  58:SynaptiX_FDK/lib/tinyusb/src/common/tusb_types.h ****   (TU_DIV_CEIL(_size, CFG_TUH_MEM_DCACHE_LINE_SIZE) * CFG_TUH_MEM_DCACHE_LINE_SIZE) : (_size))
  59:SynaptiX_FDK/lib/tinyusb/src/common/tusb_types.h **** 
  60:SynaptiX_FDK/lib/tinyusb/src/common/tusb_types.h **** // Declare an endpoint buffer with uint8_t[size]
  61:SynaptiX_FDK/lib/tinyusb/src/common/tusb_types.h **** #define TUH_EPBUF_DEF(_name, _size) \
  62:SynaptiX_FDK/lib/tinyusb/src/common/tusb_types.h ****   union { \
  63:SynaptiX_FDK/lib/tinyusb/src/common/tusb_types.h ****     CFG_TUH_MEM_ALIGN uint8_t _name[_size]; \
  64:SynaptiX_FDK/lib/tinyusb/src/common/tusb_types.h ****     TU_ATTR_ALIGNED(CFG_TUH_MEM_DCACHE_ENABLE ? CFG_TUH_MEM_DCACHE_LINE_SIZE : 1) uint8_t _name##_d
  65:SynaptiX_FDK/lib/tinyusb/src/common/tusb_types.h ****   }
  66:SynaptiX_FDK/lib/tinyusb/src/common/tusb_types.h **** 
  67:SynaptiX_FDK/lib/tinyusb/src/common/tusb_types.h **** // Declare an endpoint buffer with a type
  68:SynaptiX_FDK/lib/tinyusb/src/common/tusb_types.h **** #define TUH_EPBUF_TYPE_DEF(_type, _name) \
  69:SynaptiX_FDK/lib/tinyusb/src/common/tusb_types.h ****   union { \
  70:SynaptiX_FDK/lib/tinyusb/src/common/tusb_types.h ****     CFG_TUH_MEM_ALIGN _type _name; \
  71:SynaptiX_FDK/lib/tinyusb/src/common/tusb_types.h ****     TU_ATTR_ALIGNED(CFG_TUH_MEM_DCACHE_ENABLE ? CFG_TUH_MEM_DCACHE_LINE_SIZE : 1) uint8_t _name##_d
  72:SynaptiX_FDK/lib/tinyusb/src/common/tusb_types.h ****   }
  73:SynaptiX_FDK/lib/tinyusb/src/common/tusb_types.h **** 
  74:SynaptiX_FDK/lib/tinyusb/src/common/tusb_types.h **** 
  75:SynaptiX_FDK/lib/tinyusb/src/common/tusb_types.h **** /*------------------------------------------------------------------*/
  76:SynaptiX_FDK/lib/tinyusb/src/common/tusb_types.h **** /* CONSTANTS
  77:SynaptiX_FDK/lib/tinyusb/src/common/tusb_types.h ****  *------------------------------------------------------------------*/
  78:SynaptiX_FDK/lib/tinyusb/src/common/tusb_types.h **** 
  79:SynaptiX_FDK/lib/tinyusb/src/common/tusb_types.h **** typedef enum {
  80:SynaptiX_FDK/lib/tinyusb/src/common/tusb_types.h ****   TUSB_ROLE_INVALID = 0u,
  81:SynaptiX_FDK/lib/tinyusb/src/common/tusb_types.h ****   TUSB_ROLE_DEVICE  = 0x1,
  82:SynaptiX_FDK/lib/tinyusb/src/common/tusb_types.h ****   TUSB_ROLE_HOST    = 0x2,
  83:SynaptiX_FDK/lib/tinyusb/src/common/tusb_types.h **** } tusb_role_t;
  84:SynaptiX_FDK/lib/tinyusb/src/common/tusb_types.h **** 
  85:SynaptiX_FDK/lib/tinyusb/src/common/tusb_types.h **** /// defined base on EHCI specs value for Endpoint Speed
  86:SynaptiX_FDK/lib/tinyusb/src/common/tusb_types.h **** typedef enum {
  87:SynaptiX_FDK/lib/tinyusb/src/common/tusb_types.h ****   TUSB_SPEED_FULL = 0,
  88:SynaptiX_FDK/lib/tinyusb/src/common/tusb_types.h ****   TUSB_SPEED_LOW  = 1,
  89:SynaptiX_FDK/lib/tinyusb/src/common/tusb_types.h ****   TUSB_SPEED_HIGH = 2,
  90:SynaptiX_FDK/lib/tinyusb/src/common/tusb_types.h ****   TUSB_SPEED_AUTO = 0xaa,
  91:SynaptiX_FDK/lib/tinyusb/src/common/tusb_types.h ****   TUSB_SPEED_INVALID = 0xff,
  92:SynaptiX_FDK/lib/tinyusb/src/common/tusb_types.h **** } tusb_speed_t;
  93:SynaptiX_FDK/lib/tinyusb/src/common/tusb_types.h **** 
  94:SynaptiX_FDK/lib/tinyusb/src/common/tusb_types.h **** /// defined base on USB Specs Endpoint's bmAttributes
  95:SynaptiX_FDK/lib/tinyusb/src/common/tusb_types.h **** typedef enum {
  96:SynaptiX_FDK/lib/tinyusb/src/common/tusb_types.h ****   TUSB_XFER_CONTROL     = 0,
  97:SynaptiX_FDK/lib/tinyusb/src/common/tusb_types.h ****   TUSB_XFER_ISOCHRONOUS = 1,
  98:SynaptiX_FDK/lib/tinyusb/src/common/tusb_types.h ****   TUSB_XFER_BULK        = 2,
  99:SynaptiX_FDK/lib/tinyusb/src/common/tusb_types.h ****   TUSB_XFER_INTERRUPT   = 3
 100:SynaptiX_FDK/lib/tinyusb/src/common/tusb_types.h **** } tusb_xfer_type_t;
 101:SynaptiX_FDK/lib/tinyusb/src/common/tusb_types.h **** 
ARM GAS  C:\Users\DELL\AppData\Local\Temp\ccgExmFy.s 			page 65


 102:SynaptiX_FDK/lib/tinyusb/src/common/tusb_types.h **** typedef enum {
 103:SynaptiX_FDK/lib/tinyusb/src/common/tusb_types.h ****   TUSB_DIR_OUT = 0,
 104:SynaptiX_FDK/lib/tinyusb/src/common/tusb_types.h ****   TUSB_DIR_IN  = 1,
 105:SynaptiX_FDK/lib/tinyusb/src/common/tusb_types.h **** 
 106:SynaptiX_FDK/lib/tinyusb/src/common/tusb_types.h ****   TUSB_EPNUM_MASK = 0x0F,
 107:SynaptiX_FDK/lib/tinyusb/src/common/tusb_types.h ****   TUSB_DIR_IN_MASK = 0x80
 108:SynaptiX_FDK/lib/tinyusb/src/common/tusb_types.h **** } tusb_dir_t;
 109:SynaptiX_FDK/lib/tinyusb/src/common/tusb_types.h **** 
 110:SynaptiX_FDK/lib/tinyusb/src/common/tusb_types.h **** enum {
 111:SynaptiX_FDK/lib/tinyusb/src/common/tusb_types.h ****   TUSB_EPSIZE_BULK_FS = 64,
 112:SynaptiX_FDK/lib/tinyusb/src/common/tusb_types.h ****   TUSB_EPSIZE_BULK_HS = 512,
 113:SynaptiX_FDK/lib/tinyusb/src/common/tusb_types.h **** 
 114:SynaptiX_FDK/lib/tinyusb/src/common/tusb_types.h ****   TUSB_EPSIZE_ISO_FS_MAX = 1023,
 115:SynaptiX_FDK/lib/tinyusb/src/common/tusb_types.h ****   TUSB_EPSIZE_ISO_HS_MAX = 1024,
 116:SynaptiX_FDK/lib/tinyusb/src/common/tusb_types.h **** };
 117:SynaptiX_FDK/lib/tinyusb/src/common/tusb_types.h **** 
 118:SynaptiX_FDK/lib/tinyusb/src/common/tusb_types.h **** // Endpoint Bulk size depending on host/device max speed
 119:SynaptiX_FDK/lib/tinyusb/src/common/tusb_types.h **** #define TUD_EPSIZE_BULK_MAX   (TUD_OPT_HIGH_SPEED ? 512 : 64)
 120:SynaptiX_FDK/lib/tinyusb/src/common/tusb_types.h **** #define TUH_EPSIZE_BULK_MAX   (TUH_OPT_HIGH_SPEED ? 512 : 64)
 121:SynaptiX_FDK/lib/tinyusb/src/common/tusb_types.h **** 
 122:SynaptiX_FDK/lib/tinyusb/src/common/tusb_types.h **** /// Isochronous Endpoint Attributes
 123:SynaptiX_FDK/lib/tinyusb/src/common/tusb_types.h **** typedef enum {
 124:SynaptiX_FDK/lib/tinyusb/src/common/tusb_types.h ****   TUSB_ISO_EP_ATT_NO_SYNC         = 0x00,
 125:SynaptiX_FDK/lib/tinyusb/src/common/tusb_types.h ****   TUSB_ISO_EP_ATT_ASYNCHRONOUS    = 0x04,
 126:SynaptiX_FDK/lib/tinyusb/src/common/tusb_types.h ****   TUSB_ISO_EP_ATT_ADAPTIVE        = 0x08,
 127:SynaptiX_FDK/lib/tinyusb/src/common/tusb_types.h ****   TUSB_ISO_EP_ATT_SYNCHRONOUS     = 0x0C,
 128:SynaptiX_FDK/lib/tinyusb/src/common/tusb_types.h ****   TUSB_ISO_EP_ATT_DATA            = 0x00, ///< Data End Point
 129:SynaptiX_FDK/lib/tinyusb/src/common/tusb_types.h ****   TUSB_ISO_EP_ATT_EXPLICIT_FB     = 0x10, ///< Feedback End Point
 130:SynaptiX_FDK/lib/tinyusb/src/common/tusb_types.h ****   TUSB_ISO_EP_ATT_IMPLICIT_FB     = 0x20, ///< Data endpoint that also serves as an implicit feedba
 131:SynaptiX_FDK/lib/tinyusb/src/common/tusb_types.h **** } tusb_iso_ep_attribute_t;
 132:SynaptiX_FDK/lib/tinyusb/src/common/tusb_types.h **** 
 133:SynaptiX_FDK/lib/tinyusb/src/common/tusb_types.h **** /// USB Descriptor Types
 134:SynaptiX_FDK/lib/tinyusb/src/common/tusb_types.h **** typedef enum {
 135:SynaptiX_FDK/lib/tinyusb/src/common/tusb_types.h ****   TUSB_DESC_DEVICE                = 0x01,
 136:SynaptiX_FDK/lib/tinyusb/src/common/tusb_types.h ****   TUSB_DESC_CONFIGURATION         = 0x02,
 137:SynaptiX_FDK/lib/tinyusb/src/common/tusb_types.h ****   TUSB_DESC_STRING                = 0x03,
 138:SynaptiX_FDK/lib/tinyusb/src/common/tusb_types.h ****   TUSB_DESC_INTERFACE             = 0x04,
 139:SynaptiX_FDK/lib/tinyusb/src/common/tusb_types.h ****   TUSB_DESC_ENDPOINT              = 0x05,
 140:SynaptiX_FDK/lib/tinyusb/src/common/tusb_types.h ****   TUSB_DESC_DEVICE_QUALIFIER      = 0x06,
 141:SynaptiX_FDK/lib/tinyusb/src/common/tusb_types.h ****   TUSB_DESC_OTHER_SPEED_CONFIG    = 0x07,
 142:SynaptiX_FDK/lib/tinyusb/src/common/tusb_types.h ****   TUSB_DESC_INTERFACE_POWER       = 0x08,
 143:SynaptiX_FDK/lib/tinyusb/src/common/tusb_types.h ****   TUSB_DESC_OTG                   = 0x09,
 144:SynaptiX_FDK/lib/tinyusb/src/common/tusb_types.h ****   TUSB_DESC_DEBUG                 = 0x0A,
 145:SynaptiX_FDK/lib/tinyusb/src/common/tusb_types.h ****   TUSB_DESC_INTERFACE_ASSOCIATION = 0x0B,
 146:SynaptiX_FDK/lib/tinyusb/src/common/tusb_types.h **** 
 147:SynaptiX_FDK/lib/tinyusb/src/common/tusb_types.h ****   TUSB_DESC_BOS                   = 0x0F,
 148:SynaptiX_FDK/lib/tinyusb/src/common/tusb_types.h ****   TUSB_DESC_DEVICE_CAPABILITY     = 0x10,
 149:SynaptiX_FDK/lib/tinyusb/src/common/tusb_types.h **** 
 150:SynaptiX_FDK/lib/tinyusb/src/common/tusb_types.h ****   TUSB_DESC_FUNCTIONAL            = 0x21,
 151:SynaptiX_FDK/lib/tinyusb/src/common/tusb_types.h **** 
 152:SynaptiX_FDK/lib/tinyusb/src/common/tusb_types.h ****   // Class Specific Descriptor
 153:SynaptiX_FDK/lib/tinyusb/src/common/tusb_types.h ****   TUSB_DESC_CS_DEVICE             = 0x21,
 154:SynaptiX_FDK/lib/tinyusb/src/common/tusb_types.h ****   TUSB_DESC_CS_CONFIGURATION      = 0x22,
 155:SynaptiX_FDK/lib/tinyusb/src/common/tusb_types.h ****   TUSB_DESC_CS_STRING             = 0x23,
 156:SynaptiX_FDK/lib/tinyusb/src/common/tusb_types.h ****   TUSB_DESC_CS_INTERFACE          = 0x24,
 157:SynaptiX_FDK/lib/tinyusb/src/common/tusb_types.h ****   TUSB_DESC_CS_ENDPOINT           = 0x25,
 158:SynaptiX_FDK/lib/tinyusb/src/common/tusb_types.h **** 
ARM GAS  C:\Users\DELL\AppData\Local\Temp\ccgExmFy.s 			page 66


 159:SynaptiX_FDK/lib/tinyusb/src/common/tusb_types.h ****   TUSB_DESC_SUPERSPEED_ENDPOINT_COMPANION     = 0x30,
 160:SynaptiX_FDK/lib/tinyusb/src/common/tusb_types.h ****   TUSB_DESC_SUPERSPEED_ISO_ENDPOINT_COMPANION = 0x31
 161:SynaptiX_FDK/lib/tinyusb/src/common/tusb_types.h **** } tusb_desc_type_t;
 162:SynaptiX_FDK/lib/tinyusb/src/common/tusb_types.h **** 
 163:SynaptiX_FDK/lib/tinyusb/src/common/tusb_types.h **** typedef enum {
 164:SynaptiX_FDK/lib/tinyusb/src/common/tusb_types.h ****   TUSB_REQ_GET_STATUS        = 0  ,
 165:SynaptiX_FDK/lib/tinyusb/src/common/tusb_types.h ****   TUSB_REQ_CLEAR_FEATURE     = 1  ,
 166:SynaptiX_FDK/lib/tinyusb/src/common/tusb_types.h ****   TUSB_REQ_RESERVED          = 2  ,
 167:SynaptiX_FDK/lib/tinyusb/src/common/tusb_types.h ****   TUSB_REQ_SET_FEATURE       = 3  ,
 168:SynaptiX_FDK/lib/tinyusb/src/common/tusb_types.h ****   TUSB_REQ_RESERVED2         = 4  ,
 169:SynaptiX_FDK/lib/tinyusb/src/common/tusb_types.h ****   TUSB_REQ_SET_ADDRESS       = 5  ,
 170:SynaptiX_FDK/lib/tinyusb/src/common/tusb_types.h ****   TUSB_REQ_GET_DESCRIPTOR    = 6  ,
 171:SynaptiX_FDK/lib/tinyusb/src/common/tusb_types.h ****   TUSB_REQ_SET_DESCRIPTOR    = 7  ,
 172:SynaptiX_FDK/lib/tinyusb/src/common/tusb_types.h ****   TUSB_REQ_GET_CONFIGURATION = 8  ,
 173:SynaptiX_FDK/lib/tinyusb/src/common/tusb_types.h ****   TUSB_REQ_SET_CONFIGURATION = 9  ,
 174:SynaptiX_FDK/lib/tinyusb/src/common/tusb_types.h ****   TUSB_REQ_GET_INTERFACE     = 10 ,
 175:SynaptiX_FDK/lib/tinyusb/src/common/tusb_types.h ****   TUSB_REQ_SET_INTERFACE     = 11 ,
 176:SynaptiX_FDK/lib/tinyusb/src/common/tusb_types.h ****   TUSB_REQ_SYNCH_FRAME       = 12
 177:SynaptiX_FDK/lib/tinyusb/src/common/tusb_types.h **** } tusb_request_code_t;
 178:SynaptiX_FDK/lib/tinyusb/src/common/tusb_types.h **** 
 179:SynaptiX_FDK/lib/tinyusb/src/common/tusb_types.h **** typedef enum {
 180:SynaptiX_FDK/lib/tinyusb/src/common/tusb_types.h ****   TUSB_REQ_FEATURE_EDPT_HALT     = 0,
 181:SynaptiX_FDK/lib/tinyusb/src/common/tusb_types.h ****   TUSB_REQ_FEATURE_REMOTE_WAKEUP = 1,
 182:SynaptiX_FDK/lib/tinyusb/src/common/tusb_types.h ****   TUSB_REQ_FEATURE_TEST_MODE     = 2
 183:SynaptiX_FDK/lib/tinyusb/src/common/tusb_types.h **** } tusb_request_feature_selector_t;
 184:SynaptiX_FDK/lib/tinyusb/src/common/tusb_types.h **** 
 185:SynaptiX_FDK/lib/tinyusb/src/common/tusb_types.h **** typedef enum {
 186:SynaptiX_FDK/lib/tinyusb/src/common/tusb_types.h ****   TUSB_REQ_TYPE_STANDARD = 0u,
 187:SynaptiX_FDK/lib/tinyusb/src/common/tusb_types.h ****   TUSB_REQ_TYPE_CLASS,
 188:SynaptiX_FDK/lib/tinyusb/src/common/tusb_types.h ****   TUSB_REQ_TYPE_VENDOR,
 189:SynaptiX_FDK/lib/tinyusb/src/common/tusb_types.h ****   TUSB_REQ_TYPE_INVALID
 190:SynaptiX_FDK/lib/tinyusb/src/common/tusb_types.h **** } tusb_request_type_t;
 191:SynaptiX_FDK/lib/tinyusb/src/common/tusb_types.h **** 
 192:SynaptiX_FDK/lib/tinyusb/src/common/tusb_types.h **** typedef enum {
 193:SynaptiX_FDK/lib/tinyusb/src/common/tusb_types.h ****   TUSB_REQ_RCPT_DEVICE =0,
 194:SynaptiX_FDK/lib/tinyusb/src/common/tusb_types.h ****   TUSB_REQ_RCPT_INTERFACE,
 195:SynaptiX_FDK/lib/tinyusb/src/common/tusb_types.h ****   TUSB_REQ_RCPT_ENDPOINT,
 196:SynaptiX_FDK/lib/tinyusb/src/common/tusb_types.h ****   TUSB_REQ_RCPT_OTHER
 197:SynaptiX_FDK/lib/tinyusb/src/common/tusb_types.h **** } tusb_request_recipient_t;
 198:SynaptiX_FDK/lib/tinyusb/src/common/tusb_types.h **** 
 199:SynaptiX_FDK/lib/tinyusb/src/common/tusb_types.h **** // https://www.usb.org/defined-class-codes
 200:SynaptiX_FDK/lib/tinyusb/src/common/tusb_types.h **** typedef enum {
 201:SynaptiX_FDK/lib/tinyusb/src/common/tusb_types.h ****   TUSB_CLASS_UNSPECIFIED          = 0    ,
 202:SynaptiX_FDK/lib/tinyusb/src/common/tusb_types.h ****   TUSB_CLASS_AUDIO                = 1    ,
 203:SynaptiX_FDK/lib/tinyusb/src/common/tusb_types.h ****   TUSB_CLASS_CDC                  = 2    ,
 204:SynaptiX_FDK/lib/tinyusb/src/common/tusb_types.h ****   TUSB_CLASS_HID                  = 3    ,
 205:SynaptiX_FDK/lib/tinyusb/src/common/tusb_types.h ****   TUSB_CLASS_RESERVED_4           = 4    ,
 206:SynaptiX_FDK/lib/tinyusb/src/common/tusb_types.h ****   TUSB_CLASS_PHYSICAL             = 5    ,
 207:SynaptiX_FDK/lib/tinyusb/src/common/tusb_types.h ****   TUSB_CLASS_IMAGE                = 6    ,
 208:SynaptiX_FDK/lib/tinyusb/src/common/tusb_types.h ****   TUSB_CLASS_PRINTER              = 7    ,
 209:SynaptiX_FDK/lib/tinyusb/src/common/tusb_types.h ****   TUSB_CLASS_MSC                  = 8    ,
 210:SynaptiX_FDK/lib/tinyusb/src/common/tusb_types.h ****   TUSB_CLASS_HUB                  = 9    ,
 211:SynaptiX_FDK/lib/tinyusb/src/common/tusb_types.h ****   TUSB_CLASS_CDC_DATA             = 10   ,
 212:SynaptiX_FDK/lib/tinyusb/src/common/tusb_types.h ****   TUSB_CLASS_SMART_CARD           = 11   ,
 213:SynaptiX_FDK/lib/tinyusb/src/common/tusb_types.h ****   TUSB_CLASS_RESERVED_12          = 12   ,
 214:SynaptiX_FDK/lib/tinyusb/src/common/tusb_types.h ****   TUSB_CLASS_CONTENT_SECURITY     = 13   ,
 215:SynaptiX_FDK/lib/tinyusb/src/common/tusb_types.h ****   TUSB_CLASS_VIDEO                = 14   ,
ARM GAS  C:\Users\DELL\AppData\Local\Temp\ccgExmFy.s 			page 67


 216:SynaptiX_FDK/lib/tinyusb/src/common/tusb_types.h ****   TUSB_CLASS_PERSONAL_HEALTHCARE  = 15   ,
 217:SynaptiX_FDK/lib/tinyusb/src/common/tusb_types.h ****   TUSB_CLASS_AUDIO_VIDEO          = 16   ,
 218:SynaptiX_FDK/lib/tinyusb/src/common/tusb_types.h **** 
 219:SynaptiX_FDK/lib/tinyusb/src/common/tusb_types.h ****   TUSB_CLASS_DIAGNOSTIC           = 0xDC ,
 220:SynaptiX_FDK/lib/tinyusb/src/common/tusb_types.h ****   TUSB_CLASS_WIRELESS_CONTROLLER  = 0xE0 ,
 221:SynaptiX_FDK/lib/tinyusb/src/common/tusb_types.h ****   TUSB_CLASS_MISC                 = 0xEF ,
 222:SynaptiX_FDK/lib/tinyusb/src/common/tusb_types.h ****   TUSB_CLASS_APPLICATION_SPECIFIC = 0xFE ,
 223:SynaptiX_FDK/lib/tinyusb/src/common/tusb_types.h ****   TUSB_CLASS_VENDOR_SPECIFIC      = 0xFF
 224:SynaptiX_FDK/lib/tinyusb/src/common/tusb_types.h **** } tusb_class_code_t;
 225:SynaptiX_FDK/lib/tinyusb/src/common/tusb_types.h **** 
 226:SynaptiX_FDK/lib/tinyusb/src/common/tusb_types.h **** typedef enum
 227:SynaptiX_FDK/lib/tinyusb/src/common/tusb_types.h **** {
 228:SynaptiX_FDK/lib/tinyusb/src/common/tusb_types.h ****   MISC_SUBCLASS_COMMON = 2
 229:SynaptiX_FDK/lib/tinyusb/src/common/tusb_types.h **** }misc_subclass_type_t;
 230:SynaptiX_FDK/lib/tinyusb/src/common/tusb_types.h **** 
 231:SynaptiX_FDK/lib/tinyusb/src/common/tusb_types.h **** typedef enum {
 232:SynaptiX_FDK/lib/tinyusb/src/common/tusb_types.h ****   MISC_PROTOCOL_IAD = 1
 233:SynaptiX_FDK/lib/tinyusb/src/common/tusb_types.h **** } misc_protocol_type_t;
 234:SynaptiX_FDK/lib/tinyusb/src/common/tusb_types.h **** 
 235:SynaptiX_FDK/lib/tinyusb/src/common/tusb_types.h **** typedef enum {
 236:SynaptiX_FDK/lib/tinyusb/src/common/tusb_types.h ****   APP_SUBCLASS_USBTMC = 0x03,
 237:SynaptiX_FDK/lib/tinyusb/src/common/tusb_types.h ****   APP_SUBCLASS_DFU_RUNTIME = 0x01
 238:SynaptiX_FDK/lib/tinyusb/src/common/tusb_types.h **** } app_subclass_type_t;
 239:SynaptiX_FDK/lib/tinyusb/src/common/tusb_types.h **** 
 240:SynaptiX_FDK/lib/tinyusb/src/common/tusb_types.h **** typedef enum {
 241:SynaptiX_FDK/lib/tinyusb/src/common/tusb_types.h ****   DEVICE_CAPABILITY_WIRELESS_USB               = 0x01,
 242:SynaptiX_FDK/lib/tinyusb/src/common/tusb_types.h ****   DEVICE_CAPABILITY_USB20_EXTENSION            = 0x02,
 243:SynaptiX_FDK/lib/tinyusb/src/common/tusb_types.h ****   DEVICE_CAPABILITY_SUPERSPEED_USB             = 0x03,
 244:SynaptiX_FDK/lib/tinyusb/src/common/tusb_types.h ****   DEVICE_CAPABILITY_CONTAINER_id               = 0x04,
 245:SynaptiX_FDK/lib/tinyusb/src/common/tusb_types.h ****   DEVICE_CAPABILITY_PLATFORM                   = 0x05,
 246:SynaptiX_FDK/lib/tinyusb/src/common/tusb_types.h ****   DEVICE_CAPABILITY_POWER_DELIVERY             = 0x06,
 247:SynaptiX_FDK/lib/tinyusb/src/common/tusb_types.h ****   DEVICE_CAPABILITY_BATTERY_INFO               = 0x07,
 248:SynaptiX_FDK/lib/tinyusb/src/common/tusb_types.h ****   DEVICE_CAPABILITY_PD_CONSUMER_PORT           = 0x08,
 249:SynaptiX_FDK/lib/tinyusb/src/common/tusb_types.h ****   DEVICE_CAPABILITY_PD_PROVIDER_PORT           = 0x09,
 250:SynaptiX_FDK/lib/tinyusb/src/common/tusb_types.h ****   DEVICE_CAPABILITY_SUPERSPEED_PLUS            = 0x0A,
 251:SynaptiX_FDK/lib/tinyusb/src/common/tusb_types.h ****   DEVICE_CAPABILITY_PRECESION_TIME_MEASUREMENT = 0x0B,
 252:SynaptiX_FDK/lib/tinyusb/src/common/tusb_types.h ****   DEVICE_CAPABILITY_WIRELESS_USB_EXT           = 0x0C,
 253:SynaptiX_FDK/lib/tinyusb/src/common/tusb_types.h ****   DEVICE_CAPABILITY_BILLBOARD                  = 0x0D,
 254:SynaptiX_FDK/lib/tinyusb/src/common/tusb_types.h ****   DEVICE_CAPABILITY_AUTHENTICATION             = 0x0E,
 255:SynaptiX_FDK/lib/tinyusb/src/common/tusb_types.h ****   DEVICE_CAPABILITY_BILLBOARD_EX               = 0x0F,
 256:SynaptiX_FDK/lib/tinyusb/src/common/tusb_types.h ****   DEVICE_CAPABILITY_CONFIGURATION_SUMMARY      = 0x10
 257:SynaptiX_FDK/lib/tinyusb/src/common/tusb_types.h **** } device_capability_type_t;
 258:SynaptiX_FDK/lib/tinyusb/src/common/tusb_types.h **** 
 259:SynaptiX_FDK/lib/tinyusb/src/common/tusb_types.h **** enum {
 260:SynaptiX_FDK/lib/tinyusb/src/common/tusb_types.h ****   TUSB_DESC_CONFIG_ATT_REMOTE_WAKEUP = 1 << 5,
 261:SynaptiX_FDK/lib/tinyusb/src/common/tusb_types.h ****   TUSB_DESC_CONFIG_ATT_SELF_POWERED  = 1 << 6,
 262:SynaptiX_FDK/lib/tinyusb/src/common/tusb_types.h **** };
 263:SynaptiX_FDK/lib/tinyusb/src/common/tusb_types.h **** 
 264:SynaptiX_FDK/lib/tinyusb/src/common/tusb_types.h **** #define TUSB_DESC_CONFIG_POWER_MA(x)  ((x)/2)
 265:SynaptiX_FDK/lib/tinyusb/src/common/tusb_types.h **** 
 266:SynaptiX_FDK/lib/tinyusb/src/common/tusb_types.h **** // USB 2.0 Spec Table 9-7: Test Mode Selectors
 267:SynaptiX_FDK/lib/tinyusb/src/common/tusb_types.h **** typedef enum {
 268:SynaptiX_FDK/lib/tinyusb/src/common/tusb_types.h ****   TUSB_FEATURE_TEST_J = 1,
 269:SynaptiX_FDK/lib/tinyusb/src/common/tusb_types.h ****   TUSB_FEATURE_TEST_K = 2,
 270:SynaptiX_FDK/lib/tinyusb/src/common/tusb_types.h ****   TUSB_FEATURE_TEST_SE0_NAK = 3,
 271:SynaptiX_FDK/lib/tinyusb/src/common/tusb_types.h ****   TUSB_FEATURE_TEST_PACKET = 4,
 272:SynaptiX_FDK/lib/tinyusb/src/common/tusb_types.h ****   TUSB_FEATURE_TEST_FORCE_ENABLE = 5,
ARM GAS  C:\Users\DELL\AppData\Local\Temp\ccgExmFy.s 			page 68


 273:SynaptiX_FDK/lib/tinyusb/src/common/tusb_types.h **** } tusb_feature_test_mode_t;
 274:SynaptiX_FDK/lib/tinyusb/src/common/tusb_types.h **** 
 275:SynaptiX_FDK/lib/tinyusb/src/common/tusb_types.h **** //--------------------------------------------------------------------+
 276:SynaptiX_FDK/lib/tinyusb/src/common/tusb_types.h **** //
 277:SynaptiX_FDK/lib/tinyusb/src/common/tusb_types.h **** //--------------------------------------------------------------------+
 278:SynaptiX_FDK/lib/tinyusb/src/common/tusb_types.h **** typedef enum {
 279:SynaptiX_FDK/lib/tinyusb/src/common/tusb_types.h ****   XFER_RESULT_SUCCESS = 0,
 280:SynaptiX_FDK/lib/tinyusb/src/common/tusb_types.h ****   XFER_RESULT_FAILED,
 281:SynaptiX_FDK/lib/tinyusb/src/common/tusb_types.h ****   XFER_RESULT_STALLED,
 282:SynaptiX_FDK/lib/tinyusb/src/common/tusb_types.h ****   XFER_RESULT_TIMEOUT,
 283:SynaptiX_FDK/lib/tinyusb/src/common/tusb_types.h ****   XFER_RESULT_INVALID
 284:SynaptiX_FDK/lib/tinyusb/src/common/tusb_types.h **** } xfer_result_t;
 285:SynaptiX_FDK/lib/tinyusb/src/common/tusb_types.h **** 
 286:SynaptiX_FDK/lib/tinyusb/src/common/tusb_types.h **** #define tusb_xfer_result_t xfer_result_t
 287:SynaptiX_FDK/lib/tinyusb/src/common/tusb_types.h **** 
 288:SynaptiX_FDK/lib/tinyusb/src/common/tusb_types.h **** // TODO remove
 289:SynaptiX_FDK/lib/tinyusb/src/common/tusb_types.h **** enum {
 290:SynaptiX_FDK/lib/tinyusb/src/common/tusb_types.h ****   DESC_OFFSET_LEN  = 0,
 291:SynaptiX_FDK/lib/tinyusb/src/common/tusb_types.h ****   DESC_OFFSET_TYPE = 1,
 292:SynaptiX_FDK/lib/tinyusb/src/common/tusb_types.h ****   DESC_OFFSET_SUBTYPE = 2
 293:SynaptiX_FDK/lib/tinyusb/src/common/tusb_types.h **** };
 294:SynaptiX_FDK/lib/tinyusb/src/common/tusb_types.h **** 
 295:SynaptiX_FDK/lib/tinyusb/src/common/tusb_types.h **** enum {
 296:SynaptiX_FDK/lib/tinyusb/src/common/tusb_types.h ****   INTERFACE_INVALID_NUMBER = 0xff
 297:SynaptiX_FDK/lib/tinyusb/src/common/tusb_types.h **** };
 298:SynaptiX_FDK/lib/tinyusb/src/common/tusb_types.h **** 
 299:SynaptiX_FDK/lib/tinyusb/src/common/tusb_types.h **** typedef enum {
 300:SynaptiX_FDK/lib/tinyusb/src/common/tusb_types.h ****   MS_OS_20_SET_HEADER_DESCRIPTOR       = 0x00,
 301:SynaptiX_FDK/lib/tinyusb/src/common/tusb_types.h ****   MS_OS_20_SUBSET_HEADER_CONFIGURATION = 0x01,
 302:SynaptiX_FDK/lib/tinyusb/src/common/tusb_types.h ****   MS_OS_20_SUBSET_HEADER_FUNCTION      = 0x02,
 303:SynaptiX_FDK/lib/tinyusb/src/common/tusb_types.h ****   MS_OS_20_FEATURE_COMPATBLE_ID        = 0x03,
 304:SynaptiX_FDK/lib/tinyusb/src/common/tusb_types.h ****   MS_OS_20_FEATURE_REG_PROPERTY        = 0x04,
 305:SynaptiX_FDK/lib/tinyusb/src/common/tusb_types.h ****   MS_OS_20_FEATURE_MIN_RESUME_TIME     = 0x05,
 306:SynaptiX_FDK/lib/tinyusb/src/common/tusb_types.h ****   MS_OS_20_FEATURE_MODEL_ID            = 0x06,
 307:SynaptiX_FDK/lib/tinyusb/src/common/tusb_types.h ****   MS_OS_20_FEATURE_CCGP_DEVICE         = 0x07,
 308:SynaptiX_FDK/lib/tinyusb/src/common/tusb_types.h ****   MS_OS_20_FEATURE_VENDOR_REVISION     = 0x08
 309:SynaptiX_FDK/lib/tinyusb/src/common/tusb_types.h **** } microsoft_os_20_type_t;
 310:SynaptiX_FDK/lib/tinyusb/src/common/tusb_types.h **** 
 311:SynaptiX_FDK/lib/tinyusb/src/common/tusb_types.h **** enum {
 312:SynaptiX_FDK/lib/tinyusb/src/common/tusb_types.h ****   CONTROL_STAGE_IDLE = 0,
 313:SynaptiX_FDK/lib/tinyusb/src/common/tusb_types.h ****   CONTROL_STAGE_SETUP, // 1
 314:SynaptiX_FDK/lib/tinyusb/src/common/tusb_types.h ****   CONTROL_STAGE_DATA,  // 2
 315:SynaptiX_FDK/lib/tinyusb/src/common/tusb_types.h ****   CONTROL_STAGE_ACK    // 3
 316:SynaptiX_FDK/lib/tinyusb/src/common/tusb_types.h **** };
 317:SynaptiX_FDK/lib/tinyusb/src/common/tusb_types.h **** 
 318:SynaptiX_FDK/lib/tinyusb/src/common/tusb_types.h **** enum {
 319:SynaptiX_FDK/lib/tinyusb/src/common/tusb_types.h ****   TUSB_INDEX_INVALID_8 = 0xFF
 320:SynaptiX_FDK/lib/tinyusb/src/common/tusb_types.h **** };
 321:SynaptiX_FDK/lib/tinyusb/src/common/tusb_types.h **** 
 322:SynaptiX_FDK/lib/tinyusb/src/common/tusb_types.h **** //--------------------------------------------------------------------+
 323:SynaptiX_FDK/lib/tinyusb/src/common/tusb_types.h **** //
 324:SynaptiX_FDK/lib/tinyusb/src/common/tusb_types.h **** //--------------------------------------------------------------------+
 325:SynaptiX_FDK/lib/tinyusb/src/common/tusb_types.h **** typedef struct {
 326:SynaptiX_FDK/lib/tinyusb/src/common/tusb_types.h ****   tusb_role_t role;
 327:SynaptiX_FDK/lib/tinyusb/src/common/tusb_types.h ****   tusb_speed_t speed;
 328:SynaptiX_FDK/lib/tinyusb/src/common/tusb_types.h **** } tusb_rhport_init_t;
 329:SynaptiX_FDK/lib/tinyusb/src/common/tusb_types.h **** 
ARM GAS  C:\Users\DELL\AppData\Local\Temp\ccgExmFy.s 			page 69


 330:SynaptiX_FDK/lib/tinyusb/src/common/tusb_types.h **** typedef struct {
 331:SynaptiX_FDK/lib/tinyusb/src/common/tusb_types.h ****   uint16_t len;
 332:SynaptiX_FDK/lib/tinyusb/src/common/tusb_types.h ****   uint8_t *buffer;
 333:SynaptiX_FDK/lib/tinyusb/src/common/tusb_types.h **** } tusb_buffer_t;
 334:SynaptiX_FDK/lib/tinyusb/src/common/tusb_types.h **** 
 335:SynaptiX_FDK/lib/tinyusb/src/common/tusb_types.h **** //--------------------------------------------------------------------+
 336:SynaptiX_FDK/lib/tinyusb/src/common/tusb_types.h **** // USB Descriptors
 337:SynaptiX_FDK/lib/tinyusb/src/common/tusb_types.h **** //--------------------------------------------------------------------+
 338:SynaptiX_FDK/lib/tinyusb/src/common/tusb_types.h **** 
 339:SynaptiX_FDK/lib/tinyusb/src/common/tusb_types.h **** // Start of all packed definitions for compiler without per-type packed
 340:SynaptiX_FDK/lib/tinyusb/src/common/tusb_types.h **** TU_ATTR_PACKED_BEGIN
 341:SynaptiX_FDK/lib/tinyusb/src/common/tusb_types.h **** TU_ATTR_BIT_FIELD_ORDER_BEGIN
 342:SynaptiX_FDK/lib/tinyusb/src/common/tusb_types.h **** 
 343:SynaptiX_FDK/lib/tinyusb/src/common/tusb_types.h **** /// USB Device Descriptor
 344:SynaptiX_FDK/lib/tinyusb/src/common/tusb_types.h **** typedef struct TU_ATTR_PACKED {
 345:SynaptiX_FDK/lib/tinyusb/src/common/tusb_types.h ****   uint8_t  bLength            ; ///< Size of this descriptor in bytes.
 346:SynaptiX_FDK/lib/tinyusb/src/common/tusb_types.h ****   uint8_t  bDescriptorType    ; ///< DEVICE Descriptor Type.
 347:SynaptiX_FDK/lib/tinyusb/src/common/tusb_types.h ****   uint16_t bcdUSB             ; ///< BUSB Specification Release Number in Binary-Coded Decimal (i.e
 348:SynaptiX_FDK/lib/tinyusb/src/common/tusb_types.h ****   uint8_t  bDeviceClass       ; ///< Class code (assigned by the USB-IF).
 349:SynaptiX_FDK/lib/tinyusb/src/common/tusb_types.h ****   uint8_t  bDeviceSubClass    ; ///< Subclass code (assigned by the USB-IF).
 350:SynaptiX_FDK/lib/tinyusb/src/common/tusb_types.h ****   uint8_t  bDeviceProtocol    ; ///< Protocol code (assigned by the USB-IF).
 351:SynaptiX_FDK/lib/tinyusb/src/common/tusb_types.h ****   uint8_t  bMaxPacketSize0    ; ///< Maximum packet size for endpoint zero (only 8, 16, 32, or 64 a
 352:SynaptiX_FDK/lib/tinyusb/src/common/tusb_types.h ****   uint16_t idVendor           ; ///< Vendor ID (assigned by the USB-IF).
 353:SynaptiX_FDK/lib/tinyusb/src/common/tusb_types.h ****   uint16_t idProduct          ; ///< Product ID (assigned by the manufacturer).
 354:SynaptiX_FDK/lib/tinyusb/src/common/tusb_types.h ****   uint16_t bcdDevice          ; ///< Device release number in binary-coded decimal.
 355:SynaptiX_FDK/lib/tinyusb/src/common/tusb_types.h ****   uint8_t  iManufacturer      ; ///< Index of string descriptor describing manufacturer.
 356:SynaptiX_FDK/lib/tinyusb/src/common/tusb_types.h ****   uint8_t  iProduct           ; ///< Index of string descriptor describing product.
 357:SynaptiX_FDK/lib/tinyusb/src/common/tusb_types.h ****   uint8_t  iSerialNumber      ; ///< Index of string descriptor describing the device's serial numb
 358:SynaptiX_FDK/lib/tinyusb/src/common/tusb_types.h ****   uint8_t  bNumConfigurations ; ///< Number of possible configurations.
 359:SynaptiX_FDK/lib/tinyusb/src/common/tusb_types.h **** } tusb_desc_device_t;
 360:SynaptiX_FDK/lib/tinyusb/src/common/tusb_types.h **** 
 361:SynaptiX_FDK/lib/tinyusb/src/common/tusb_types.h **** TU_VERIFY_STATIC( sizeof(tusb_desc_device_t) == 18u, "size is not correct");
 362:SynaptiX_FDK/lib/tinyusb/src/common/tusb_types.h **** 
 363:SynaptiX_FDK/lib/tinyusb/src/common/tusb_types.h **** // USB Binary Device Object Store (BOS) Descriptor
 364:SynaptiX_FDK/lib/tinyusb/src/common/tusb_types.h **** typedef struct TU_ATTR_PACKED {
 365:SynaptiX_FDK/lib/tinyusb/src/common/tusb_types.h ****   uint8_t  bLength         ; ///< Size of this descriptor in bytes
 366:SynaptiX_FDK/lib/tinyusb/src/common/tusb_types.h ****   uint8_t  bDescriptorType ; ///< CONFIGURATION Descriptor Type
 367:SynaptiX_FDK/lib/tinyusb/src/common/tusb_types.h ****   uint16_t wTotalLength    ; ///< Total length of data returned for this descriptor
 368:SynaptiX_FDK/lib/tinyusb/src/common/tusb_types.h ****   uint8_t  bNumDeviceCaps  ; ///< Number of device capability descriptors in the BOS
 369:SynaptiX_FDK/lib/tinyusb/src/common/tusb_types.h **** } tusb_desc_bos_t;
 370:SynaptiX_FDK/lib/tinyusb/src/common/tusb_types.h **** 
 371:SynaptiX_FDK/lib/tinyusb/src/common/tusb_types.h **** TU_VERIFY_STATIC( sizeof(tusb_desc_bos_t) == 5u, "size is not correct");
 372:SynaptiX_FDK/lib/tinyusb/src/common/tusb_types.h **** 
 373:SynaptiX_FDK/lib/tinyusb/src/common/tusb_types.h **** /// USB Configuration Descriptor
 374:SynaptiX_FDK/lib/tinyusb/src/common/tusb_types.h **** typedef struct TU_ATTR_PACKED {
 375:SynaptiX_FDK/lib/tinyusb/src/common/tusb_types.h ****   uint8_t  bLength             ; ///< Size of this descriptor in bytes
 376:SynaptiX_FDK/lib/tinyusb/src/common/tusb_types.h ****   uint8_t  bDescriptorType     ; ///< CONFIGURATION Descriptor Type
 377:SynaptiX_FDK/lib/tinyusb/src/common/tusb_types.h ****   uint16_t wTotalLength        ; ///< Total length of data returned for this configuration. Include
 378:SynaptiX_FDK/lib/tinyusb/src/common/tusb_types.h **** 
 379:SynaptiX_FDK/lib/tinyusb/src/common/tusb_types.h ****   uint8_t  bNumInterfaces      ; ///< Number of interfaces supported by this configuration
 380:SynaptiX_FDK/lib/tinyusb/src/common/tusb_types.h ****   uint8_t  bConfigurationValue ; ///< Value to use as an argument to the SetConfiguration() request
 381:SynaptiX_FDK/lib/tinyusb/src/common/tusb_types.h ****   uint8_t  iConfiguration      ; ///< Index of string descriptor describing this configuration
 382:SynaptiX_FDK/lib/tinyusb/src/common/tusb_types.h ****   uint8_t  bmAttributes        ; ///< Configuration characteristics \n D7: Reserved (set to one)\n 
 383:SynaptiX_FDK/lib/tinyusb/src/common/tusb_types.h ****   uint8_t  bMaxPower           ; ///< Maximum power consumption of the USB device from the bus in t
 384:SynaptiX_FDK/lib/tinyusb/src/common/tusb_types.h **** } tusb_desc_configuration_t;
 385:SynaptiX_FDK/lib/tinyusb/src/common/tusb_types.h **** 
 386:SynaptiX_FDK/lib/tinyusb/src/common/tusb_types.h **** TU_VERIFY_STATIC( sizeof(tusb_desc_configuration_t) == 9u, "size is not correct");
ARM GAS  C:\Users\DELL\AppData\Local\Temp\ccgExmFy.s 			page 70


 387:SynaptiX_FDK/lib/tinyusb/src/common/tusb_types.h **** 
 388:SynaptiX_FDK/lib/tinyusb/src/common/tusb_types.h **** /// USB Interface Descriptor
 389:SynaptiX_FDK/lib/tinyusb/src/common/tusb_types.h **** typedef struct TU_ATTR_PACKED {
 390:SynaptiX_FDK/lib/tinyusb/src/common/tusb_types.h ****   uint8_t  bLength            ; ///< Size of this descriptor in bytes
 391:SynaptiX_FDK/lib/tinyusb/src/common/tusb_types.h ****   uint8_t  bDescriptorType    ; ///< INTERFACE Descriptor Type
 392:SynaptiX_FDK/lib/tinyusb/src/common/tusb_types.h **** 
 393:SynaptiX_FDK/lib/tinyusb/src/common/tusb_types.h ****   uint8_t  bInterfaceNumber   ; ///< Number of this interface. Zero-based value identifying the ind
 394:SynaptiX_FDK/lib/tinyusb/src/common/tusb_types.h ****   uint8_t  bAlternateSetting  ; ///< Value used to select this alternate setting for the interface 
 395:SynaptiX_FDK/lib/tinyusb/src/common/tusb_types.h ****   uint8_t  bNumEndpoints      ; ///< Number of endpoints used by this interface (excluding endpoint
 396:SynaptiX_FDK/lib/tinyusb/src/common/tusb_types.h ****   uint8_t  bInterfaceClass    ; ///< Class code (assigned by the USB-IF). \li A value of zero is re
 397:SynaptiX_FDK/lib/tinyusb/src/common/tusb_types.h ****   uint8_t  bInterfaceSubClass ; ///< Subclass code (assigned by the USB-IF). \n These codes are qua
 398:SynaptiX_FDK/lib/tinyusb/src/common/tusb_types.h ****   uint8_t  bInterfaceProtocol ; ///< Protocol code (assigned by the USB). \n These codes are qualif
 399:SynaptiX_FDK/lib/tinyusb/src/common/tusb_types.h ****   uint8_t  iInterface         ; ///< Index of string descriptor describing this interface
 400:SynaptiX_FDK/lib/tinyusb/src/common/tusb_types.h **** } tusb_desc_interface_t;
 401:SynaptiX_FDK/lib/tinyusb/src/common/tusb_types.h **** 
 402:SynaptiX_FDK/lib/tinyusb/src/common/tusb_types.h **** TU_VERIFY_STATIC( sizeof(tusb_desc_interface_t) == 9u, "size is not correct");
 403:SynaptiX_FDK/lib/tinyusb/src/common/tusb_types.h **** 
 404:SynaptiX_FDK/lib/tinyusb/src/common/tusb_types.h **** /// USB Endpoint Descriptor
 405:SynaptiX_FDK/lib/tinyusb/src/common/tusb_types.h **** typedef struct TU_ATTR_PACKED {
 406:SynaptiX_FDK/lib/tinyusb/src/common/tusb_types.h ****   uint8_t  bLength          ; // Size of this descriptor in bytes
 407:SynaptiX_FDK/lib/tinyusb/src/common/tusb_types.h ****   uint8_t  bDescriptorType  ; // ENDPOINT Descriptor Type
 408:SynaptiX_FDK/lib/tinyusb/src/common/tusb_types.h **** 
 409:SynaptiX_FDK/lib/tinyusb/src/common/tusb_types.h ****   uint8_t  bEndpointAddress ; // The address of the endpoint
 410:SynaptiX_FDK/lib/tinyusb/src/common/tusb_types.h **** 
 411:SynaptiX_FDK/lib/tinyusb/src/common/tusb_types.h ****   struct TU_ATTR_PACKED {
 412:SynaptiX_FDK/lib/tinyusb/src/common/tusb_types.h ****     uint8_t xfer  : 2;        // Control, ISO, Bulk, Interrupt
 413:SynaptiX_FDK/lib/tinyusb/src/common/tusb_types.h ****     uint8_t sync  : 2;        // None, Asynchronous, Adaptive, Synchronous
 414:SynaptiX_FDK/lib/tinyusb/src/common/tusb_types.h ****     uint8_t usage : 2;        // Data, Feedback, Implicit feedback
 415:SynaptiX_FDK/lib/tinyusb/src/common/tusb_types.h ****     uint8_t       : 2;
 416:SynaptiX_FDK/lib/tinyusb/src/common/tusb_types.h ****   } bmAttributes;
 417:SynaptiX_FDK/lib/tinyusb/src/common/tusb_types.h **** 
 418:SynaptiX_FDK/lib/tinyusb/src/common/tusb_types.h ****   uint16_t wMaxPacketSize   ; // Bit 10..0 : max packet size, bit 12..11 additional transaction per
 419:SynaptiX_FDK/lib/tinyusb/src/common/tusb_types.h ****   uint8_t  bInterval        ; // Polling interval, in frames or microframes depending on the operat
 420:SynaptiX_FDK/lib/tinyusb/src/common/tusb_types.h **** } tusb_desc_endpoint_t;
 421:SynaptiX_FDK/lib/tinyusb/src/common/tusb_types.h **** 
 422:SynaptiX_FDK/lib/tinyusb/src/common/tusb_types.h **** TU_VERIFY_STATIC( sizeof(tusb_desc_endpoint_t) == 7u, "size is not correct");
 423:SynaptiX_FDK/lib/tinyusb/src/common/tusb_types.h **** 
 424:SynaptiX_FDK/lib/tinyusb/src/common/tusb_types.h **** /// USB Other Speed Configuration Descriptor
 425:SynaptiX_FDK/lib/tinyusb/src/common/tusb_types.h **** typedef struct TU_ATTR_PACKED {
 426:SynaptiX_FDK/lib/tinyusb/src/common/tusb_types.h ****   uint8_t  bLength             ; ///< Size of descriptor
 427:SynaptiX_FDK/lib/tinyusb/src/common/tusb_types.h ****   uint8_t  bDescriptorType     ; ///< Other_speed_Configuration Type
 428:SynaptiX_FDK/lib/tinyusb/src/common/tusb_types.h ****   uint16_t wTotalLength        ; ///< Total length of data returned
 429:SynaptiX_FDK/lib/tinyusb/src/common/tusb_types.h **** 
 430:SynaptiX_FDK/lib/tinyusb/src/common/tusb_types.h ****   uint8_t  bNumInterfaces      ; ///< Number of interfaces supported by this speed configuration
 431:SynaptiX_FDK/lib/tinyusb/src/common/tusb_types.h ****   uint8_t  bConfigurationValue ; ///< Value to use to select configuration
 432:SynaptiX_FDK/lib/tinyusb/src/common/tusb_types.h ****   uint8_t  iConfiguration      ; ///< Index of string descriptor
 433:SynaptiX_FDK/lib/tinyusb/src/common/tusb_types.h ****   uint8_t  bmAttributes        ; ///< Same as Configuration descriptor
 434:SynaptiX_FDK/lib/tinyusb/src/common/tusb_types.h ****   uint8_t  bMaxPower           ; ///< Same as Configuration descriptor
 435:SynaptiX_FDK/lib/tinyusb/src/common/tusb_types.h **** } tusb_desc_other_speed_t;
 436:SynaptiX_FDK/lib/tinyusb/src/common/tusb_types.h **** 
 437:SynaptiX_FDK/lib/tinyusb/src/common/tusb_types.h **** /// USB Device Qualifier Descriptor
 438:SynaptiX_FDK/lib/tinyusb/src/common/tusb_types.h **** typedef struct TU_ATTR_PACKED {
 439:SynaptiX_FDK/lib/tinyusb/src/common/tusb_types.h ****   uint8_t  bLength            ; ///< Size of descriptor
 440:SynaptiX_FDK/lib/tinyusb/src/common/tusb_types.h ****   uint8_t  bDescriptorType    ; ///< Device Qualifier Type
 441:SynaptiX_FDK/lib/tinyusb/src/common/tusb_types.h ****   uint16_t bcdUSB             ; ///< USB specification version number (e.g., 0200H for V2.00)
 442:SynaptiX_FDK/lib/tinyusb/src/common/tusb_types.h **** 
 443:SynaptiX_FDK/lib/tinyusb/src/common/tusb_types.h ****   uint8_t  bDeviceClass       ; ///< Class Code
ARM GAS  C:\Users\DELL\AppData\Local\Temp\ccgExmFy.s 			page 71


 444:SynaptiX_FDK/lib/tinyusb/src/common/tusb_types.h ****   uint8_t  bDeviceSubClass    ; ///< SubClass Code
 445:SynaptiX_FDK/lib/tinyusb/src/common/tusb_types.h ****   uint8_t  bDeviceProtocol    ; ///< Protocol Code
 446:SynaptiX_FDK/lib/tinyusb/src/common/tusb_types.h **** 
 447:SynaptiX_FDK/lib/tinyusb/src/common/tusb_types.h ****   uint8_t  bMaxPacketSize0    ; ///< Maximum packet size for other speed
 448:SynaptiX_FDK/lib/tinyusb/src/common/tusb_types.h ****   uint8_t  bNumConfigurations ; ///< Number of Other-speed Configurations
 449:SynaptiX_FDK/lib/tinyusb/src/common/tusb_types.h ****   uint8_t  bReserved          ; ///< Reserved for future use, must be zero
 450:SynaptiX_FDK/lib/tinyusb/src/common/tusb_types.h **** } tusb_desc_device_qualifier_t;
 451:SynaptiX_FDK/lib/tinyusb/src/common/tusb_types.h **** 
 452:SynaptiX_FDK/lib/tinyusb/src/common/tusb_types.h **** TU_VERIFY_STATIC( sizeof(tusb_desc_device_qualifier_t) == 10u, "size is not correct");
 453:SynaptiX_FDK/lib/tinyusb/src/common/tusb_types.h **** 
 454:SynaptiX_FDK/lib/tinyusb/src/common/tusb_types.h **** /// USB Interface Association Descriptor (IAD ECN)
 455:SynaptiX_FDK/lib/tinyusb/src/common/tusb_types.h **** typedef struct TU_ATTR_PACKED {
 456:SynaptiX_FDK/lib/tinyusb/src/common/tusb_types.h ****   uint8_t bLength           ; ///< Size of descriptor
 457:SynaptiX_FDK/lib/tinyusb/src/common/tusb_types.h ****   uint8_t bDescriptorType   ; ///< Other_speed_Configuration Type
 458:SynaptiX_FDK/lib/tinyusb/src/common/tusb_types.h **** 
 459:SynaptiX_FDK/lib/tinyusb/src/common/tusb_types.h ****   uint8_t bFirstInterface   ; ///< Index of the first associated interface.
 460:SynaptiX_FDK/lib/tinyusb/src/common/tusb_types.h ****   uint8_t bInterfaceCount   ; ///< Total number of associated interfaces.
 461:SynaptiX_FDK/lib/tinyusb/src/common/tusb_types.h **** 
 462:SynaptiX_FDK/lib/tinyusb/src/common/tusb_types.h ****   uint8_t bFunctionClass    ; ///< Interface class ID.
 463:SynaptiX_FDK/lib/tinyusb/src/common/tusb_types.h ****   uint8_t bFunctionSubClass ; ///< Interface subclass ID.
 464:SynaptiX_FDK/lib/tinyusb/src/common/tusb_types.h ****   uint8_t bFunctionProtocol ; ///< Interface protocol ID.
 465:SynaptiX_FDK/lib/tinyusb/src/common/tusb_types.h **** 
 466:SynaptiX_FDK/lib/tinyusb/src/common/tusb_types.h ****   uint8_t iFunction         ; ///< Index of the string descriptor describing the interface associat
 467:SynaptiX_FDK/lib/tinyusb/src/common/tusb_types.h **** } tusb_desc_interface_assoc_t;
 468:SynaptiX_FDK/lib/tinyusb/src/common/tusb_types.h **** 
 469:SynaptiX_FDK/lib/tinyusb/src/common/tusb_types.h **** TU_VERIFY_STATIC( sizeof(tusb_desc_interface_assoc_t) == 8u, "size is not correct");
 470:SynaptiX_FDK/lib/tinyusb/src/common/tusb_types.h **** 
 471:SynaptiX_FDK/lib/tinyusb/src/common/tusb_types.h **** // USB String Descriptor
 472:SynaptiX_FDK/lib/tinyusb/src/common/tusb_types.h **** typedef struct TU_ATTR_PACKED {
 473:SynaptiX_FDK/lib/tinyusb/src/common/tusb_types.h ****   uint8_t  bLength         ; ///< Size of this descriptor in bytes
 474:SynaptiX_FDK/lib/tinyusb/src/common/tusb_types.h ****   uint8_t  bDescriptorType ; ///< Descriptor Type
 475:SynaptiX_FDK/lib/tinyusb/src/common/tusb_types.h ****   uint16_t utf16le[];
 476:SynaptiX_FDK/lib/tinyusb/src/common/tusb_types.h **** } tusb_desc_string_t;
 477:SynaptiX_FDK/lib/tinyusb/src/common/tusb_types.h **** 
 478:SynaptiX_FDK/lib/tinyusb/src/common/tusb_types.h **** // USB Binary Device Object Store (BOS)
 479:SynaptiX_FDK/lib/tinyusb/src/common/tusb_types.h **** typedef struct TU_ATTR_PACKED {
 480:SynaptiX_FDK/lib/tinyusb/src/common/tusb_types.h ****   uint8_t bLength;
 481:SynaptiX_FDK/lib/tinyusb/src/common/tusb_types.h ****   uint8_t bDescriptorType ;
 482:SynaptiX_FDK/lib/tinyusb/src/common/tusb_types.h ****   uint8_t bDevCapabilityType;
 483:SynaptiX_FDK/lib/tinyusb/src/common/tusb_types.h ****   uint8_t bReserved;
 484:SynaptiX_FDK/lib/tinyusb/src/common/tusb_types.h ****   uint8_t PlatformCapabilityUUID[16];
 485:SynaptiX_FDK/lib/tinyusb/src/common/tusb_types.h ****   uint8_t CapabilityData[];
 486:SynaptiX_FDK/lib/tinyusb/src/common/tusb_types.h **** } tusb_desc_bos_platform_t;
 487:SynaptiX_FDK/lib/tinyusb/src/common/tusb_types.h **** 
 488:SynaptiX_FDK/lib/tinyusb/src/common/tusb_types.h **** // USB WebUSB URL Descriptor
 489:SynaptiX_FDK/lib/tinyusb/src/common/tusb_types.h **** typedef struct TU_ATTR_PACKED {
 490:SynaptiX_FDK/lib/tinyusb/src/common/tusb_types.h ****   uint8_t bLength;
 491:SynaptiX_FDK/lib/tinyusb/src/common/tusb_types.h ****   uint8_t bDescriptorType;
 492:SynaptiX_FDK/lib/tinyusb/src/common/tusb_types.h ****   uint8_t bScheme;
 493:SynaptiX_FDK/lib/tinyusb/src/common/tusb_types.h ****   char    url[];
 494:SynaptiX_FDK/lib/tinyusb/src/common/tusb_types.h **** } tusb_desc_webusb_url_t;
 495:SynaptiX_FDK/lib/tinyusb/src/common/tusb_types.h **** 
 496:SynaptiX_FDK/lib/tinyusb/src/common/tusb_types.h **** // DFU Functional Descriptor
 497:SynaptiX_FDK/lib/tinyusb/src/common/tusb_types.h **** typedef struct TU_ATTR_PACKED {
 498:SynaptiX_FDK/lib/tinyusb/src/common/tusb_types.h ****   uint8_t  bLength;
 499:SynaptiX_FDK/lib/tinyusb/src/common/tusb_types.h ****   uint8_t  bDescriptorType;
 500:SynaptiX_FDK/lib/tinyusb/src/common/tusb_types.h **** 
ARM GAS  C:\Users\DELL\AppData\Local\Temp\ccgExmFy.s 			page 72


 501:SynaptiX_FDK/lib/tinyusb/src/common/tusb_types.h ****   union {
 502:SynaptiX_FDK/lib/tinyusb/src/common/tusb_types.h ****     struct TU_ATTR_PACKED {
 503:SynaptiX_FDK/lib/tinyusb/src/common/tusb_types.h ****       uint8_t bitCanDnload             : 1;
 504:SynaptiX_FDK/lib/tinyusb/src/common/tusb_types.h ****       uint8_t bitCanUpload             : 1;
 505:SynaptiX_FDK/lib/tinyusb/src/common/tusb_types.h ****       uint8_t bitManifestationTolerant : 1;
 506:SynaptiX_FDK/lib/tinyusb/src/common/tusb_types.h ****       uint8_t bitWillDetach            : 1;
 507:SynaptiX_FDK/lib/tinyusb/src/common/tusb_types.h ****       uint8_t reserved                 : 4;
 508:SynaptiX_FDK/lib/tinyusb/src/common/tusb_types.h ****     } bmAttributes;
 509:SynaptiX_FDK/lib/tinyusb/src/common/tusb_types.h **** 
 510:SynaptiX_FDK/lib/tinyusb/src/common/tusb_types.h ****     uint8_t bAttributes;
 511:SynaptiX_FDK/lib/tinyusb/src/common/tusb_types.h ****   };
 512:SynaptiX_FDK/lib/tinyusb/src/common/tusb_types.h **** 
 513:SynaptiX_FDK/lib/tinyusb/src/common/tusb_types.h ****   uint16_t wDetachTimeOut;
 514:SynaptiX_FDK/lib/tinyusb/src/common/tusb_types.h ****   uint16_t wTransferSize;
 515:SynaptiX_FDK/lib/tinyusb/src/common/tusb_types.h ****   uint16_t bcdDFUVersion;
 516:SynaptiX_FDK/lib/tinyusb/src/common/tusb_types.h **** } tusb_desc_dfu_functional_t;
 517:SynaptiX_FDK/lib/tinyusb/src/common/tusb_types.h **** 
 518:SynaptiX_FDK/lib/tinyusb/src/common/tusb_types.h **** //--------------------------------------------------------------------+
 519:SynaptiX_FDK/lib/tinyusb/src/common/tusb_types.h **** //
 520:SynaptiX_FDK/lib/tinyusb/src/common/tusb_types.h **** //--------------------------------------------------------------------+
 521:SynaptiX_FDK/lib/tinyusb/src/common/tusb_types.h **** 
 522:SynaptiX_FDK/lib/tinyusb/src/common/tusb_types.h **** typedef struct TU_ATTR_PACKED {
 523:SynaptiX_FDK/lib/tinyusb/src/common/tusb_types.h ****   union {
 524:SynaptiX_FDK/lib/tinyusb/src/common/tusb_types.h ****     struct TU_ATTR_PACKED {
 525:SynaptiX_FDK/lib/tinyusb/src/common/tusb_types.h ****       uint8_t recipient :  5; ///< Recipient type tusb_request_recipient_t.
 526:SynaptiX_FDK/lib/tinyusb/src/common/tusb_types.h ****       uint8_t type      :  2; ///< Request type tusb_request_type_t.
 527:SynaptiX_FDK/lib/tinyusb/src/common/tusb_types.h ****       uint8_t direction :  1; ///< Direction type. tusb_dir_t
 528:SynaptiX_FDK/lib/tinyusb/src/common/tusb_types.h ****     } bmRequestType_bit;
 529:SynaptiX_FDK/lib/tinyusb/src/common/tusb_types.h **** 
 530:SynaptiX_FDK/lib/tinyusb/src/common/tusb_types.h ****     uint8_t bmRequestType;
 531:SynaptiX_FDK/lib/tinyusb/src/common/tusb_types.h ****   };
 532:SynaptiX_FDK/lib/tinyusb/src/common/tusb_types.h **** 
 533:SynaptiX_FDK/lib/tinyusb/src/common/tusb_types.h ****   uint8_t  bRequest;
 534:SynaptiX_FDK/lib/tinyusb/src/common/tusb_types.h ****   uint16_t wValue;
 535:SynaptiX_FDK/lib/tinyusb/src/common/tusb_types.h ****   uint16_t wIndex;
 536:SynaptiX_FDK/lib/tinyusb/src/common/tusb_types.h ****   uint16_t wLength;
 537:SynaptiX_FDK/lib/tinyusb/src/common/tusb_types.h **** } tusb_control_request_t;
 538:SynaptiX_FDK/lib/tinyusb/src/common/tusb_types.h **** 
 539:SynaptiX_FDK/lib/tinyusb/src/common/tusb_types.h **** TU_VERIFY_STATIC( sizeof(tusb_control_request_t) == 8u, "size is not correct");
 540:SynaptiX_FDK/lib/tinyusb/src/common/tusb_types.h **** 
 541:SynaptiX_FDK/lib/tinyusb/src/common/tusb_types.h **** TU_ATTR_PACKED_END  // End of all packed definitions
 542:SynaptiX_FDK/lib/tinyusb/src/common/tusb_types.h **** TU_ATTR_BIT_FIELD_ORDER_END
 543:SynaptiX_FDK/lib/tinyusb/src/common/tusb_types.h **** 
 544:SynaptiX_FDK/lib/tinyusb/src/common/tusb_types.h **** //--------------------------------------------------------------------+
 545:SynaptiX_FDK/lib/tinyusb/src/common/tusb_types.h **** // Endpoint helper
 546:SynaptiX_FDK/lib/tinyusb/src/common/tusb_types.h **** //--------------------------------------------------------------------+
 547:SynaptiX_FDK/lib/tinyusb/src/common/tusb_types.h **** 
 548:SynaptiX_FDK/lib/tinyusb/src/common/tusb_types.h **** // Get direction from Endpoint address
 549:SynaptiX_FDK/lib/tinyusb/src/common/tusb_types.h **** TU_ATTR_ALWAYS_INLINE static inline tusb_dir_t tu_edpt_dir(uint8_t addr) {
 1794              		.loc 7 549 48 is_stmt 1 view .LVU472
 1795              	.LBB205:
 550:SynaptiX_FDK/lib/tinyusb/src/common/tusb_types.h ****   return (addr & TUSB_DIR_IN_MASK) ? TUSB_DIR_IN : TUSB_DIR_OUT;
 1796              		.loc 7 550 3 view .LVU473
 1797              		.loc 7 550 3 is_stmt 0 view .LVU474
 1798              	.LBE205:
 1799              	.LBE204:
 341:SynaptiX_FDK/lib/tinyusb/src/class/cdc/cdc_device.c ****           tu_edpt_stream_t *stream_tx = &p_cdc->tx_stream;
ARM GAS  C:\Users\DELL\AppData\Local\Temp\ccgExmFy.s 			page 73


 1800              		.loc 1 341 12 discriminator 1 view .LVU475
 1801 0106 DB09     		lsrs	r3, r3, #7
 1802 0108 3BD1     		bne	.L167
 1803              	.LBB206:
 351:SynaptiX_FDK/lib/tinyusb/src/class/cdc/cdc_device.c ****   #if CFG_TUD_CDC_RX_NEED_ZLP
 1804              		.loc 1 351 11 is_stmt 1 view .LVU476
 351:SynaptiX_FDK/lib/tinyusb/src/class/cdc/cdc_device.c ****   #if CFG_TUD_CDC_RX_NEED_ZLP
 1805              		.loc 1 351 29 is_stmt 0 view .LVU477
 1806 010a BC23     		movs	r3, #188
 1807 010c 03FB08F3 		mul	r3, r3, r8
 1808 0110 03F1200B 		add	fp, r3, #32
 1809 0114 2F49     		ldr	r1, .L169
 1810 0116 8B44     		add	fp, fp, r1
 1811 0118 0BF1040B 		add	fp, fp, #4
 1812              	.LVL161:
 355:SynaptiX_FDK/lib/tinyusb/src/class/cdc/cdc_device.c ****   #endif
 1813              		.loc 1 355 11 is_stmt 1 view .LVU478
 1814              	.LBB207:
 1815              	.LBI207:
 551:SynaptiX_FDK/lib/tinyusb/src/common/tusb_types.h **** }
 552:SynaptiX_FDK/lib/tinyusb/src/common/tusb_types.h **** 
 553:SynaptiX_FDK/lib/tinyusb/src/common/tusb_types.h **** // Get Endpoint number from address
 554:SynaptiX_FDK/lib/tinyusb/src/common/tusb_types.h **** TU_ATTR_ALWAYS_INLINE static inline uint8_t tu_edpt_number(uint8_t addr) {
 555:SynaptiX_FDK/lib/tinyusb/src/common/tusb_types.h ****   return (uint8_t) (addr & TUSB_EPNUM_MASK);
 556:SynaptiX_FDK/lib/tinyusb/src/common/tusb_types.h **** }
 557:SynaptiX_FDK/lib/tinyusb/src/common/tusb_types.h **** 
 558:SynaptiX_FDK/lib/tinyusb/src/common/tusb_types.h **** TU_ATTR_ALWAYS_INLINE static inline uint8_t tu_edpt_addr(uint8_t num, uint8_t dir) {
 559:SynaptiX_FDK/lib/tinyusb/src/common/tusb_types.h ****   return (uint8_t) (num | (dir == (uint8_t)TUSB_DIR_IN ? (uint8_t)TUSB_DIR_IN_MASK : 0u));
 560:SynaptiX_FDK/lib/tinyusb/src/common/tusb_types.h **** }
 561:SynaptiX_FDK/lib/tinyusb/src/common/tusb_types.h **** 
 562:SynaptiX_FDK/lib/tinyusb/src/common/tusb_types.h **** TU_ATTR_ALWAYS_INLINE static inline uint16_t tu_edpt_packet_size(tusb_desc_endpoint_t const* desc_e
 1816              		.loc 7 562 46 view .LVU479
 1817              	.LBB208:
 563:SynaptiX_FDK/lib/tinyusb/src/common/tusb_types.h ****   return tu_le16toh(desc_ep->wMaxPacketSize) & 0x7FF;
 1818              		.loc 7 563 3 view .LVU480
 1819              		.loc 7 563 10 is_stmt 0 view .LVU481
 1820 011c BAF80400 		ldrh	r0, [r10, #4]	@ unaligned
 1821              		.loc 7 563 46 view .LVU482
 1822 0120 C0F30A00 		ubfx	r0, r0, #0, #11
 1823              	.LVL162:
 1824              		.loc 7 563 46 view .LVU483
 1825              	.LBE208:
 1826              	.LBE207:
 358:SynaptiX_FDK/lib/tinyusb/src/class/cdc/cdc_device.c **** 
 1827              		.loc 1 358 11 is_stmt 1 view .LVU484
 1828              	.LBB209:
 1829              	.LBI209:
 122:SynaptiX_FDK/lib/tinyusb/src/common/tusb_private.h ****                                                              const tusb_desc_endpoint_t *desc_ep, u
 1830              		.loc 4 122 42 view .LVU485
 1831              	.LBB210:
 124:SynaptiX_FDK/lib/tinyusb/src/common/tusb_private.h ****   s->ep_addr = desc_ep->bEndpointAddress;
 1832              		.loc 4 124 3 view .LVU486
 124:SynaptiX_FDK/lib/tinyusb/src/common/tusb_private.h ****   s->ep_addr = desc_ep->bEndpointAddress;
 1833              		.loc 4 124 14 is_stmt 0 view .LVU487
 1834 0124 CA18     		adds	r2, r1, r3
 1835 0126 82F82470 		strb	r7, [r2, #36]
 125:SynaptiX_FDK/lib/tinyusb/src/common/tusb_private.h ****   s->mps = tu_edpt_packet_size(desc_ep);
ARM GAS  C:\Users\DELL\AppData\Local\Temp\ccgExmFy.s 			page 74


 1836              		.loc 4 125 3 is_stmt 1 view .LVU488
 125:SynaptiX_FDK/lib/tinyusb/src/common/tusb_private.h ****   s->mps = tu_edpt_packet_size(desc_ep);
 1837              		.loc 4 125 23 is_stmt 0 view .LVU489
 1838 012a 9AF802C0 		ldrb	ip, [r10, #2]	@ zero_extendqisi2
 125:SynaptiX_FDK/lib/tinyusb/src/common/tusb_private.h ****   s->mps = tu_edpt_packet_size(desc_ep);
 1839              		.loc 4 125 14 view .LVU490
 1840 012e 82F826C0 		strb	ip, [r2, #38]
 126:SynaptiX_FDK/lib/tinyusb/src/common/tusb_private.h ****   s->xfer_len = xfer_len;
 1841              		.loc 4 126 3 is_stmt 1 view .LVU491
 1842              	.LVL163:
 1843              	.LBB211:
 1844              	.LBI211:
 562:SynaptiX_FDK/lib/tinyusb/src/common/tusb_types.h ****   return tu_le16toh(desc_ep->wMaxPacketSize) & 0x7FF;
 1845              		.loc 7 562 46 view .LVU492
 1846              	.LBB212:
 1847              		.loc 7 563 3 view .LVU493
 1848              		.loc 7 563 10 is_stmt 0 view .LVU494
 1849 0132 BAF804C0 		ldrh	ip, [r10, #4]	@ unaligned
 1850              		.loc 7 563 46 view .LVU495
 1851 0136 CCF30A0C 		ubfx	ip, ip, #0, #11
 1852              	.LVL164:
 1853              		.loc 7 563 46 view .LVU496
 1854              	.LBE212:
 1855              	.LBE211:
 126:SynaptiX_FDK/lib/tinyusb/src/common/tusb_private.h ****   s->xfer_len = xfer_len;
 1856              		.loc 4 126 10 discriminator 1 view .LVU497
 1857 013a A2F828C0 		strh	ip, [r2, #40]	@ movhi
 127:SynaptiX_FDK/lib/tinyusb/src/common/tusb_private.h **** }
 1858              		.loc 4 127 3 is_stmt 1 view .LVU498
 127:SynaptiX_FDK/lib/tinyusb/src/common/tusb_private.h **** }
 1859              		.loc 4 127 15 is_stmt 0 view .LVU499
 1860 013e 5085     		strh	r0, [r2, #42]	@ movhi
 1861              	.LVL165:
 127:SynaptiX_FDK/lib/tinyusb/src/common/tusb_private.h **** }
 1862              		.loc 4 127 15 view .LVU500
 1863              	.LBE210:
 1864              	.LBE209:
 361:SynaptiX_FDK/lib/tinyusb/src/class/cdc/cdc_device.c ****   #endif
 1865              		.loc 1 361 11 is_stmt 1 view .LVU501
 1866              	.LBB213:
 1867              	.LBI213:
 138:SynaptiX_FDK/lib/tinyusb/src/common/tusb_private.h ****   tu_fifo_clear(&s->ff);
 1868              		.loc 4 138 42 view .LVU502
 1869              	.LBB214:
 139:SynaptiX_FDK/lib/tinyusb/src/common/tusb_private.h **** }
 1870              		.loc 4 139 3 view .LVU503
 1871 0140 2833     		adds	r3, r3, #40
 1872 0142 5818     		adds	r0, r3, r1
 1873              	.LVL166:
 139:SynaptiX_FDK/lib/tinyusb/src/common/tusb_private.h **** }
 1874              		.loc 4 139 3 is_stmt 0 view .LVU504
 1875 0144 0830     		adds	r0, r0, #8
 1876 0146 FFF7FEFF 		bl	tu_fifo_clear
 1877              	.LVL167:
 139:SynaptiX_FDK/lib/tinyusb/src/common/tusb_private.h **** }
 1878              		.loc 4 139 3 view .LVU505
 1879              	.LBE214:
ARM GAS  C:\Users\DELL\AppData\Local\Temp\ccgExmFy.s 			page 75


 1880              	.LBE213:
 364:SynaptiX_FDK/lib/tinyusb/src/class/cdc/cdc_device.c ****         }
 1881              		.loc 1 364 11 is_stmt 1 view .LVU506
 364:SynaptiX_FDK/lib/tinyusb/src/class/cdc/cdc_device.c ****         }
 1882              		.loc 1 364 11 view .LVU507
 1883 014a 5846     		mov	r0, fp
 1884 014c FFF7FEFF 		bl	tu_edpt_stream_read_xfer
 1885              	.LVL168:
 364:SynaptiX_FDK/lib/tinyusb/src/class/cdc/cdc_device.c ****         }
 1886              		.loc 1 364 11 is_stmt 0 discriminator 1 view .LVU508
 1887 0150 68B3     		cbz	r0, .L168
 1888              	.LVL169:
 1889              	.L154:
 364:SynaptiX_FDK/lib/tinyusb/src/class/cdc/cdc_device.c ****         }
 1890              		.loc 1 364 11 is_stmt 1 view .LVU509
 1891              	.LBE206:
 1892              	.LBE199:
 331:SynaptiX_FDK/lib/tinyusb/src/class/cdc/cdc_device.c ****         if (!tu_desc_in_bounds(p_desc, desc_end)) {
 1893              		.loc 1 331 62 discriminator 2 view .LVU510
 1894 0152 0136     		adds	r6, r6, #1
 1895              	.LVL170:
 331:SynaptiX_FDK/lib/tinyusb/src/class/cdc/cdc_device.c ****         if (!tu_desc_in_bounds(p_desc, desc_end)) {
 1896              		.loc 1 331 62 is_stmt 0 discriminator 2 view .LVU511
 1897 0154 F6B2     		uxtb	r6, r6
 1898              	.LVL171:
 1899              	.LBB226:
 335:SynaptiX_FDK/lib/tinyusb/src/class/cdc/cdc_device.c **** 
 1900              		.loc 1 335 18 view .LVU512
 1901 0156 5346     		mov	r3, r10
 1902 0158 BAE7     		b	.L146
 1903              	.LVL172:
 1904              	.L148:
 338:SynaptiX_FDK/lib/tinyusb/src/class/cdc/cdc_device.c **** 
 1905              		.loc 1 338 9 is_stmt 1 discriminator 3 view .LVU513
 338:SynaptiX_FDK/lib/tinyusb/src/class/cdc/cdc_device.c **** 
 1906              		.loc 1 338 9 discriminator 3 view .LVU514
 338:SynaptiX_FDK/lib/tinyusb/src/class/cdc/cdc_device.c **** 
 1907              		.loc 1 338 9 discriminator 3 view .LVU515
 338:SynaptiX_FDK/lib/tinyusb/src/class/cdc/cdc_device.c **** 
 1908              		.loc 1 338 9 discriminator 3 view .LVU516
 1909              	.LBB216:
 338:SynaptiX_FDK/lib/tinyusb/src/class/cdc/cdc_device.c **** 
 1910              		.loc 1 338 9 discriminator 3 view .LVU517
 338:SynaptiX_FDK/lib/tinyusb/src/class/cdc/cdc_device.c **** 
 1911              		.loc 1 338 9 view .LVU518
 338:SynaptiX_FDK/lib/tinyusb/src/class/cdc/cdc_device.c **** 
 1912              		.loc 1 338 9 is_stmt 0 discriminator 3 view .LVU519
 1913 015a 4FF0E023 		mov	r3, #-536813568
 1914 015e D3F8F03D 		ldr	r3, [r3, #3568]
 1915 0162 13F0010F 		tst	r3, #1
 1916 0166 00D0     		beq	.L150
 338:SynaptiX_FDK/lib/tinyusb/src/class/cdc/cdc_device.c **** 
 1917              		.loc 1 338 9 is_stmt 1 discriminator 4 view .LVU520
 1918              		.syntax unified
 1919              	@ 338 "SynaptiX_FDK/lib/tinyusb/src/class/cdc/cdc_device.c" 1
 1920 0168 00BE     		BKPT #0
 1921              	
ARM GAS  C:\Users\DELL\AppData\Local\Temp\ccgExmFy.s 			page 76


 1922              	@ 0 "" 2
 1923              		.thumb
 1924              		.syntax unified
 1925              	.L150:
 1926              	.LBE216:
 338:SynaptiX_FDK/lib/tinyusb/src/class/cdc/cdc_device.c **** 
 1927              		.loc 1 338 9 discriminator 6 view .LVU521
 338:SynaptiX_FDK/lib/tinyusb/src/class/cdc/cdc_device.c **** 
 1928              		.loc 1 338 9 discriminator 6 view .LVU522
 1929 016a 0020     		movs	r0, #0
 338:SynaptiX_FDK/lib/tinyusb/src/class/cdc/cdc_device.c **** 
 1930              		.loc 1 338 9 is_stmt 0 view .LVU523
 1931 016c 2DE0     		b	.L134
 1932              	.LVL173:
 1933              	.L166:
 340:SynaptiX_FDK/lib/tinyusb/src/class/cdc/cdc_device.c ****         if (tu_edpt_dir(desc_ep->bEndpointAddress) == TUSB_DIR_IN) {
 1934              		.loc 1 340 9 is_stmt 1 discriminator 1 view .LVU524
 340:SynaptiX_FDK/lib/tinyusb/src/class/cdc/cdc_device.c ****         if (tu_edpt_dir(desc_ep->bEndpointAddress) == TUSB_DIR_IN) {
 1935              		.loc 1 340 9 discriminator 1 view .LVU525
 340:SynaptiX_FDK/lib/tinyusb/src/class/cdc/cdc_device.c ****         if (tu_edpt_dir(desc_ep->bEndpointAddress) == TUSB_DIR_IN) {
 1936              		.loc 1 340 9 discriminator 1 view .LVU526
 340:SynaptiX_FDK/lib/tinyusb/src/class/cdc/cdc_device.c ****         if (tu_edpt_dir(desc_ep->bEndpointAddress) == TUSB_DIR_IN) {
 1937              		.loc 1 340 9 discriminator 1 view .LVU527
 1938              	.LBB217:
 340:SynaptiX_FDK/lib/tinyusb/src/class/cdc/cdc_device.c ****         if (tu_edpt_dir(desc_ep->bEndpointAddress) == TUSB_DIR_IN) {
 1939              		.loc 1 340 9 discriminator 1 view .LVU528
 340:SynaptiX_FDK/lib/tinyusb/src/class/cdc/cdc_device.c ****         if (tu_edpt_dir(desc_ep->bEndpointAddress) == TUSB_DIR_IN) {
 1940              		.loc 1 340 9 view .LVU529
 340:SynaptiX_FDK/lib/tinyusb/src/class/cdc/cdc_device.c ****         if (tu_edpt_dir(desc_ep->bEndpointAddress) == TUSB_DIR_IN) {
 1941              		.loc 1 340 9 is_stmt 0 discriminator 1 view .LVU530
 1942 016e 4FF0E023 		mov	r3, #-536813568
 1943 0172 D3F8F03D 		ldr	r3, [r3, #3568]
 1944 0176 13F0010F 		tst	r3, #1
 1945 017a 00D0     		beq	.L152
 340:SynaptiX_FDK/lib/tinyusb/src/class/cdc/cdc_device.c ****         if (tu_edpt_dir(desc_ep->bEndpointAddress) == TUSB_DIR_IN) {
 1946              		.loc 1 340 9 is_stmt 1 discriminator 2 view .LVU531
 1947              		.syntax unified
 1948              	@ 340 "SynaptiX_FDK/lib/tinyusb/src/class/cdc/cdc_device.c" 1
 1949 017c 00BE     		BKPT #0
 1950              	
 1951              	@ 0 "" 2
 1952              		.thumb
 1953              		.syntax unified
 1954              	.L152:
 340:SynaptiX_FDK/lib/tinyusb/src/class/cdc/cdc_device.c ****         if (tu_edpt_dir(desc_ep->bEndpointAddress) == TUSB_DIR_IN) {
 1955              		.loc 1 340 9 is_stmt 0 discriminator 2 view .LVU532
 1956              	.LBE217:
 340:SynaptiX_FDK/lib/tinyusb/src/class/cdc/cdc_device.c ****         if (tu_edpt_dir(desc_ep->bEndpointAddress) == TUSB_DIR_IN) {
 1957              		.loc 1 340 9 is_stmt 1 discriminator 4 view .LVU533
 340:SynaptiX_FDK/lib/tinyusb/src/class/cdc/cdc_device.c ****         if (tu_edpt_dir(desc_ep->bEndpointAddress) == TUSB_DIR_IN) {
 1958              		.loc 1 340 9 discriminator 4 view .LVU534
 1959 017e 0020     		movs	r0, #0
 340:SynaptiX_FDK/lib/tinyusb/src/class/cdc/cdc_device.c ****         if (tu_edpt_dir(desc_ep->bEndpointAddress) == TUSB_DIR_IN) {
 1960              		.loc 1 340 9 is_stmt 0 view .LVU535
 1961 0180 23E0     		b	.L134
 1962              	.LVL174:
 1963              	.L167:
ARM GAS  C:\Users\DELL\AppData\Local\Temp\ccgExmFy.s 			page 77


 1964              	.LBB218:
 342:SynaptiX_FDK/lib/tinyusb/src/class/cdc/cdc_device.c ****           tu_edpt_stream_open(stream_tx, rhport, desc_ep, CFG_TUD_CDC_TX_EPSIZE);
 1965              		.loc 1 342 11 is_stmt 1 view .LVU536
 343:SynaptiX_FDK/lib/tinyusb/src/class/cdc/cdc_device.c **** 
 1966              		.loc 1 343 11 view .LVU537
 1967              	.LBB219:
 1968              	.LBI219:
 122:SynaptiX_FDK/lib/tinyusb/src/common/tusb_private.h ****                                                              const tusb_desc_endpoint_t *desc_ep, u
 1969              		.loc 4 122 42 view .LVU538
 1970              	.LBB220:
 124:SynaptiX_FDK/lib/tinyusb/src/common/tusb_private.h ****   s->ep_addr = desc_ep->bEndpointAddress;
 1971              		.loc 4 124 3 view .LVU539
 124:SynaptiX_FDK/lib/tinyusb/src/common/tusb_private.h ****   s->ep_addr = desc_ep->bEndpointAddress;
 1972              		.loc 4 124 14 is_stmt 0 view .LVU540
 1973 0182 1448     		ldr	r0, .L169
 1974 0184 BC23     		movs	r3, #188
 1975 0186 03FB08F3 		mul	r3, r3, r8
 1976 018a C218     		adds	r2, r0, r3
 1977 018c 1773     		strb	r7, [r2, #12]
 125:SynaptiX_FDK/lib/tinyusb/src/common/tusb_private.h ****   s->mps = tu_edpt_packet_size(desc_ep);
 1978              		.loc 4 125 3 is_stmt 1 view .LVU541
 125:SynaptiX_FDK/lib/tinyusb/src/common/tusb_private.h ****   s->mps = tu_edpt_packet_size(desc_ep);
 1979              		.loc 4 125 23 is_stmt 0 view .LVU542
 1980 018e 9AF80210 		ldrb	r1, [r10, #2]	@ zero_extendqisi2
 125:SynaptiX_FDK/lib/tinyusb/src/common/tusb_private.h ****   s->mps = tu_edpt_packet_size(desc_ep);
 1981              		.loc 4 125 14 view .LVU543
 1982 0192 9173     		strb	r1, [r2, #14]
 126:SynaptiX_FDK/lib/tinyusb/src/common/tusb_private.h ****   s->xfer_len = xfer_len;
 1983              		.loc 4 126 3 is_stmt 1 view .LVU544
 1984              	.LVL175:
 1985              	.LBB221:
 1986              	.LBI221:
 562:SynaptiX_FDK/lib/tinyusb/src/common/tusb_types.h ****   return tu_le16toh(desc_ep->wMaxPacketSize) & 0x7FF;
 1987              		.loc 7 562 46 view .LVU545
 1988              	.LBB222:
 1989              		.loc 7 563 3 view .LVU546
 1990              		.loc 7 563 10 is_stmt 0 view .LVU547
 1991 0194 BAF80410 		ldrh	r1, [r10, #4]	@ unaligned
 1992              		.loc 7 563 46 view .LVU548
 1993 0198 C1F30A01 		ubfx	r1, r1, #0, #11
 1994              	.LVL176:
 1995              		.loc 7 563 46 view .LVU549
 1996              	.LBE222:
 1997              	.LBE221:
 126:SynaptiX_FDK/lib/tinyusb/src/common/tusb_private.h ****   s->xfer_len = xfer_len;
 1998              		.loc 4 126 10 discriminator 1 view .LVU550
 1999 019c 1182     		strh	r1, [r2, #16]	@ movhi
 127:SynaptiX_FDK/lib/tinyusb/src/common/tusb_private.h **** }
 2000              		.loc 4 127 3 is_stmt 1 view .LVU551
 127:SynaptiX_FDK/lib/tinyusb/src/common/tusb_private.h **** }
 2001              		.loc 4 127 15 is_stmt 0 view .LVU552
 2002 019e 4021     		movs	r1, #64
 2003 01a0 5182     		strh	r1, [r2, #18]	@ movhi
 2004              	.LVL177:
 127:SynaptiX_FDK/lib/tinyusb/src/common/tusb_private.h **** }
 2005              		.loc 4 127 15 view .LVU553
 2006              	.LBE220:
ARM GAS  C:\Users\DELL\AppData\Local\Temp\ccgExmFy.s 			page 78


 2007              	.LBE219:
 348:SynaptiX_FDK/lib/tinyusb/src/class/cdc/cdc_device.c ****   #endif
 2008              		.loc 1 348 11 is_stmt 1 view .LVU554
 2009              	.LBB223:
 2010              	.LBI223:
 138:SynaptiX_FDK/lib/tinyusb/src/common/tusb_private.h ****   tu_fifo_clear(&s->ff);
 2011              		.loc 4 138 42 view .LVU555
 2012              	.LBB224:
 139:SynaptiX_FDK/lib/tinyusb/src/common/tusb_private.h **** }
 2013              		.loc 4 139 3 view .LVU556
 2014 01a2 1033     		adds	r3, r3, #16
 2015 01a4 1844     		add	r0, r0, r3
 2016 01a6 0830     		adds	r0, r0, #8
 2017 01a8 FFF7FEFF 		bl	tu_fifo_clear
 2018              	.LVL178:
 140:SynaptiX_FDK/lib/tinyusb/src/common/tusb_private.h **** 
 2019              		.loc 4 140 1 is_stmt 0 view .LVU557
 2020 01ac D1E7     		b	.L154
 2021              	.LVL179:
 2022              	.L168:
 140:SynaptiX_FDK/lib/tinyusb/src/common/tusb_private.h **** 
 2023              		.loc 4 140 1 view .LVU558
 2024              	.LBE224:
 2025              	.LBE223:
 2026              	.LBE218:
 2027              	.LBB225:
 364:SynaptiX_FDK/lib/tinyusb/src/class/cdc/cdc_device.c ****         }
 2028              		.loc 1 364 11 is_stmt 1 discriminator 1 view .LVU559
 364:SynaptiX_FDK/lib/tinyusb/src/class/cdc/cdc_device.c ****         }
 2029              		.loc 1 364 11 discriminator 1 view .LVU560
 364:SynaptiX_FDK/lib/tinyusb/src/class/cdc/cdc_device.c ****         }
 2030              		.loc 1 364 11 discriminator 1 view .LVU561
 364:SynaptiX_FDK/lib/tinyusb/src/class/cdc/cdc_device.c ****         }
 2031              		.loc 1 364 11 discriminator 1 view .LVU562
 2032              	.LBB215:
 364:SynaptiX_FDK/lib/tinyusb/src/class/cdc/cdc_device.c ****         }
 2033              		.loc 1 364 11 discriminator 1 view .LVU563
 364:SynaptiX_FDK/lib/tinyusb/src/class/cdc/cdc_device.c ****         }
 2034              		.loc 1 364 11 view .LVU564
 364:SynaptiX_FDK/lib/tinyusb/src/class/cdc/cdc_device.c ****         }
 2035              		.loc 1 364 11 is_stmt 0 discriminator 1 view .LVU565
 2036 01ae 4FF0E023 		mov	r3, #-536813568
 2037 01b2 D3F8F03D 		ldr	r3, [r3, #3568]
 2038 01b6 13F0010F 		tst	r3, #1
 2039 01ba 00D0     		beq	.L155
 364:SynaptiX_FDK/lib/tinyusb/src/class/cdc/cdc_device.c ****         }
 2040              		.loc 1 364 11 is_stmt 1 discriminator 2 view .LVU566
 2041              		.syntax unified
 2042              	@ 364 "SynaptiX_FDK/lib/tinyusb/src/class/cdc/cdc_device.c" 1
 2043 01bc 00BE     		BKPT #0
 2044              	
 2045              	@ 0 "" 2
 2046              		.thumb
 2047              		.syntax unified
 2048              	.L155:
 364:SynaptiX_FDK/lib/tinyusb/src/class/cdc/cdc_device.c ****         }
 2049              		.loc 1 364 11 is_stmt 0 discriminator 2 view .LVU567
ARM GAS  C:\Users\DELL\AppData\Local\Temp\ccgExmFy.s 			page 79


 2050              	.LBE215:
 364:SynaptiX_FDK/lib/tinyusb/src/class/cdc/cdc_device.c ****         }
 2051              		.loc 1 364 11 is_stmt 1 discriminator 4 view .LVU568
 364:SynaptiX_FDK/lib/tinyusb/src/class/cdc/cdc_device.c ****         }
 2052              		.loc 1 364 11 discriminator 4 view .LVU569
 2053 01be 0020     		movs	r0, #0
 364:SynaptiX_FDK/lib/tinyusb/src/class/cdc/cdc_device.c ****         }
 2054              		.loc 1 364 11 is_stmt 0 view .LVU570
 2055 01c0 03E0     		b	.L134
 2056              	.LVL180:
 2057              	.L147:
 364:SynaptiX_FDK/lib/tinyusb/src/class/cdc/cdc_device.c ****         }
 2058              		.loc 1 364 11 view .LVU571
 2059              	.LBE225:
 2060              	.LBE226:
 2061              	.LBE198:
 368:SynaptiX_FDK/lib/tinyusb/src/class/cdc/cdc_device.c ****     }
 2062              		.loc 1 368 7 is_stmt 1 view .LVU572
 2063              	.LBB227:
 2064              	.LBI227:
 370:SynaptiX_FDK/lib/tinyusb/src/common/tusb_common.h ****   uint8_t const* desc8 = (uint8_t const*) desc;
 2065              		.loc 5 370 53 view .LVU573
 2066              	.LBB228:
 371:SynaptiX_FDK/lib/tinyusb/src/common/tusb_common.h ****   return desc8 + desc8[DESC_OFFSET_LEN];
 2067              		.loc 5 371 3 view .LVU574
 372:SynaptiX_FDK/lib/tinyusb/src/common/tusb_common.h **** }
 2068              		.loc 5 372 3 view .LVU575
 372:SynaptiX_FDK/lib/tinyusb/src/common/tusb_common.h **** }
 2069              		.loc 5 372 23 is_stmt 0 view .LVU576
 2070 01c2 1D78     		ldrb	r5, [r3]	@ zero_extendqisi2
 2071              	.LVL181:
 372:SynaptiX_FDK/lib/tinyusb/src/common/tusb_common.h **** }
 2072              		.loc 5 372 16 view .LVU577
 2073 01c4 1D44     		add	r5, r5, r3
 2074              	.LVL182:
 372:SynaptiX_FDK/lib/tinyusb/src/common/tusb_common.h **** }
 2075              		.loc 5 372 16 view .LVU578
 2076 01c6 64E7     		b	.L145
 2077              	.LVL183:
 2078              	.L157:
 372:SynaptiX_FDK/lib/tinyusb/src/common/tusb_common.h **** }
 2079              		.loc 5 372 16 view .LVU579
 2080              	.LBE228:
 2081              	.LBE227:
 2082              	.LBE197:
 297:SynaptiX_FDK/lib/tinyusb/src/class/cdc/cdc_device.c ****               CDC_COMM_SUBCLASS_ABSTRACT_CONTROL_MODEL == itf_desc->bInterfaceSubClass,
 2083              		.loc 1 297 3 discriminator 3 view .LVU580
 2084 01c8 0020     		movs	r0, #0
 2085              	.LVL184:
 2086              	.L134:
 373:SynaptiX_FDK/lib/tinyusb/src/class/cdc/cdc_device.c **** }
 2087              		.loc 1 373 1 view .LVU581
 2088 01ca BDE8F88F 		pop	{r3, r4, r5, r6, r7, r8, r9, r10, fp, pc}
 2089              	.LVL185:
 2090              	.L158:
 297:SynaptiX_FDK/lib/tinyusb/src/class/cdc/cdc_device.c ****               CDC_COMM_SUBCLASS_ABSTRACT_CONTROL_MODEL == itf_desc->bInterfaceSubClass,
 2091              		.loc 1 297 3 discriminator 3 view .LVU582
ARM GAS  C:\Users\DELL\AppData\Local\Temp\ccgExmFy.s 			page 80


 2092 01ce 0020     		movs	r0, #0
 2093              	.LVL186:
 297:SynaptiX_FDK/lib/tinyusb/src/class/cdc/cdc_device.c ****               CDC_COMM_SUBCLASS_ABSTRACT_CONTROL_MODEL == itf_desc->bInterfaceSubClass,
 2094              		.loc 1 297 3 discriminator 3 view .LVU583
 2095 01d0 FBE7     		b	.L134
 2096              	.L170:
 2097 01d2 00BF     		.align	2
 2098              	.L169:
 2099 01d4 00000000 		.word	_cdcd_itf
 2100              		.cfi_endproc
 2101              	.LFE469:
 2103              		.section	.text.cdcd_control_xfer_cb,"ax",%progbits
 2104              		.align	1
 2105              		.global	cdcd_control_xfer_cb
 2106              		.syntax unified
 2107              		.thumb
 2108              		.thumb_func
 2110              	cdcd_control_xfer_cb:
 2111              	.LVL187:
 2112              	.LFB470:
 374:SynaptiX_FDK/lib/tinyusb/src/class/cdc/cdc_device.c **** 
 375:SynaptiX_FDK/lib/tinyusb/src/class/cdc/cdc_device.c **** // Invoked when a control transfer occurred on an interface of this class
 376:SynaptiX_FDK/lib/tinyusb/src/class/cdc/cdc_device.c **** // Driver response accordingly to the request and the transfer stage (setup/data/ack)
 377:SynaptiX_FDK/lib/tinyusb/src/class/cdc/cdc_device.c **** // return false to stall control endpoint (e.g unsupported request)
 378:SynaptiX_FDK/lib/tinyusb/src/class/cdc/cdc_device.c **** bool cdcd_control_xfer_cb(uint8_t rhport, uint8_t stage, const tusb_control_request_t* request) {
 2113              		.loc 1 378 97 is_stmt 1 view -0
 2114              		.cfi_startproc
 2115              		@ args = 0, pretend = 0, frame = 0
 2116              		@ frame_needed = 0, uses_anonymous_args = 0
 379:SynaptiX_FDK/lib/tinyusb/src/class/cdc/cdc_device.c ****   // Handle class request only
 380:SynaptiX_FDK/lib/tinyusb/src/class/cdc/cdc_device.c ****   TU_VERIFY(request->bmRequestType_bit.type == TUSB_REQ_TYPE_CLASS);
 2117              		.loc 1 380 3 view .LVU585
 2118              		.loc 1 380 3 view .LVU586
 2119 0000 1378     		ldrb	r3, [r2]	@ zero_extendqisi2
 2120 0002 03F06003 		and	r3, r3, #96
 2121 0006 202B     		cmp	r3, #32
 2122 0008 6ED1     		bne	.L184
 378:SynaptiX_FDK/lib/tinyusb/src/class/cdc/cdc_device.c ****   // Handle class request only
 2123              		.loc 1 378 97 is_stmt 0 view .LVU587
 2124 000a 70B5     		push	{r4, r5, r6, lr}
 2125              	.LCFI16:
 2126              		.cfi_def_cfa_offset 16
 2127              		.cfi_offset 4, -16
 2128              		.cfi_offset 5, -12
 2129              		.cfi_offset 6, -8
 2130              		.cfi_offset 14, -4
 2131 000c 9446     		mov	ip, r2
 381:SynaptiX_FDK/lib/tinyusb/src/class/cdc/cdc_device.c **** 
 382:SynaptiX_FDK/lib/tinyusb/src/class/cdc/cdc_device.c ****   uint8_t itf;
 383:SynaptiX_FDK/lib/tinyusb/src/class/cdc/cdc_device.c ****   cdcd_interface_t* p_cdc;
 384:SynaptiX_FDK/lib/tinyusb/src/class/cdc/cdc_device.c **** 
 385:SynaptiX_FDK/lib/tinyusb/src/class/cdc/cdc_device.c ****   // Identify which interface to use
 386:SynaptiX_FDK/lib/tinyusb/src/class/cdc/cdc_device.c ****   for (itf = 0; itf < CFG_TUD_CDC; itf++) {
 2132              		.loc 1 386 12 view .LVU588
 2133 000e 0024     		movs	r4, #0
 2134              	.LVL188:
 2135              	.L173:
ARM GAS  C:\Users\DELL\AppData\Local\Temp\ccgExmFy.s 			page 81


 2136              		.loc 1 386 21 is_stmt 1 discriminator 1 view .LVU589
 2137 0010 54B1     		cbz	r4, .L175
 2138              	.L174:
 387:SynaptiX_FDK/lib/tinyusb/src/class/cdc/cdc_device.c ****     p_cdc = &_cdcd_itf[itf];
 388:SynaptiX_FDK/lib/tinyusb/src/class/cdc/cdc_device.c ****     if (p_cdc->itf_num == request->wIndex) {
 389:SynaptiX_FDK/lib/tinyusb/src/class/cdc/cdc_device.c ****       break;
 390:SynaptiX_FDK/lib/tinyusb/src/class/cdc/cdc_device.c ****     }
 391:SynaptiX_FDK/lib/tinyusb/src/class/cdc/cdc_device.c ****   }
 392:SynaptiX_FDK/lib/tinyusb/src/class/cdc/cdc_device.c ****   TU_VERIFY(itf < CFG_TUD_CDC);
 2139              		.loc 1 392 3 view .LVU590
 2140              		.loc 1 392 3 view .LVU591
 2141 0012 002C     		cmp	r4, #0
 2142 0014 6AD1     		bne	.L185
 2143              		.loc 1 392 3 view .LVU592
 393:SynaptiX_FDK/lib/tinyusb/src/class/cdc/cdc_device.c **** 
 394:SynaptiX_FDK/lib/tinyusb/src/class/cdc/cdc_device.c ****   switch (request->bRequest) {
 2144              		.loc 1 394 3 view .LVU593
 2145              		.loc 1 394 18 is_stmt 0 view .LVU594
 2146 0016 9CF80130 		ldrb	r3, [ip, #1]	@ zero_extendqisi2
 2147              		.loc 1 394 3 view .LVU595
 2148 001a 203B     		subs	r3, r3, #32
 2149 001c 032B     		cmp	r3, #3
 2150 001e 67D8     		bhi	.L186
 2151 0020 DFE803F0 		tbb	[pc, r3]
 2152              	.L177:
 2153 0024 0F       		.byte	(.L180-.L177)/2
 2154 0025 24       		.byte	(.L179-.L177)/2
 2155 0026 30       		.byte	(.L178-.L177)/2
 2156 0027 50       		.byte	(.L176-.L177)/2
 2157              		.p2align 1
 2158              	.L175:
 387:SynaptiX_FDK/lib/tinyusb/src/class/cdc/cdc_device.c ****     p_cdc = &_cdcd_itf[itf];
 2159              		.loc 1 387 5 is_stmt 1 view .LVU596
 387:SynaptiX_FDK/lib/tinyusb/src/class/cdc/cdc_device.c ****     p_cdc = &_cdcd_itf[itf];
 2160              		.loc 1 387 11 is_stmt 0 view .LVU597
 2161 0028 BC22     		movs	r2, #188
 2162 002a 324B     		ldr	r3, .L202
 2163 002c 02FB043E 		mla	lr, r2, r4, r3
 2164              	.LVL189:
 388:SynaptiX_FDK/lib/tinyusb/src/class/cdc/cdc_device.c ****       break;
 2165              		.loc 1 388 5 is_stmt 1 view .LVU598
 388:SynaptiX_FDK/lib/tinyusb/src/class/cdc/cdc_device.c ****       break;
 2166              		.loc 1 388 14 is_stmt 0 view .LVU599
 2167 0030 9EF80120 		ldrb	r2, [lr, #1]	@ zero_extendqisi2
 388:SynaptiX_FDK/lib/tinyusb/src/class/cdc/cdc_device.c ****       break;
 2168              		.loc 1 388 34 view .LVU600
 2169 0034 BCF80430 		ldrh	r3, [ip, #4]	@ unaligned
 388:SynaptiX_FDK/lib/tinyusb/src/class/cdc/cdc_device.c ****       break;
 2170              		.loc 1 388 8 view .LVU601
 2171 0038 9A42     		cmp	r2, r3
 2172 003a EAD0     		beq	.L174
 386:SynaptiX_FDK/lib/tinyusb/src/class/cdc/cdc_device.c ****     p_cdc = &_cdcd_itf[itf];
 2173              		.loc 1 386 39 is_stmt 1 discriminator 2 view .LVU602
 2174 003c 0134     		adds	r4, r4, #1
 2175              	.LVL190:
 386:SynaptiX_FDK/lib/tinyusb/src/class/cdc/cdc_device.c ****     p_cdc = &_cdcd_itf[itf];
 2176              		.loc 1 386 39 is_stmt 0 discriminator 2 view .LVU603
ARM GAS  C:\Users\DELL\AppData\Local\Temp\ccgExmFy.s 			page 82


 2177 003e E4B2     		uxtb	r4, r4
 2178 0040 E6E7     		b	.L173
 2179              	.LVL191:
 2180              	.L180:
 395:SynaptiX_FDK/lib/tinyusb/src/class/cdc/cdc_device.c ****     case CDC_REQUEST_SET_LINE_CODING:
 396:SynaptiX_FDK/lib/tinyusb/src/class/cdc/cdc_device.c ****       if (stage == CONTROL_STAGE_SETUP) {
 2181              		.loc 1 396 7 is_stmt 1 view .LVU604
 2182              		.loc 1 396 10 is_stmt 0 view .LVU605
 2183 0042 0129     		cmp	r1, #1
 2184 0044 03D0     		beq	.L195
 397:SynaptiX_FDK/lib/tinyusb/src/class/cdc/cdc_device.c ****         TU_LOG_DRV("  Set Line Coding\r\n");
 398:SynaptiX_FDK/lib/tinyusb/src/class/cdc/cdc_device.c ****         tud_control_xfer(rhport, request, &p_cdc->line_coding, sizeof(cdc_line_coding_t));
 399:SynaptiX_FDK/lib/tinyusb/src/class/cdc/cdc_device.c ****       } else if (stage == CONTROL_STAGE_ACK) {
 2185              		.loc 1 399 14 is_stmt 1 view .LVU606
 2186              		.loc 1 399 17 is_stmt 0 view .LVU607
 2187 0046 0329     		cmp	r1, #3
 2188 0048 09D0     		beq	.L196
 400:SynaptiX_FDK/lib/tinyusb/src/class/cdc/cdc_device.c ****         tud_cdc_line_coding_cb(itf, &p_cdc->line_coding);
 401:SynaptiX_FDK/lib/tinyusb/src/class/cdc/cdc_device.c ****       } else {
 402:SynaptiX_FDK/lib/tinyusb/src/class/cdc/cdc_device.c ****         // nothing to do
 403:SynaptiX_FDK/lib/tinyusb/src/class/cdc/cdc_device.c ****       }
 404:SynaptiX_FDK/lib/tinyusb/src/class/cdc/cdc_device.c ****       break;
 405:SynaptiX_FDK/lib/tinyusb/src/class/cdc/cdc_device.c **** 
 406:SynaptiX_FDK/lib/tinyusb/src/class/cdc/cdc_device.c ****     case CDC_REQUEST_GET_LINE_CODING:
 407:SynaptiX_FDK/lib/tinyusb/src/class/cdc/cdc_device.c ****       if (stage == CONTROL_STAGE_SETUP) {
 408:SynaptiX_FDK/lib/tinyusb/src/class/cdc/cdc_device.c ****         TU_LOG_DRV("  Get Line Coding\r\n");
 409:SynaptiX_FDK/lib/tinyusb/src/class/cdc/cdc_device.c ****         tud_control_xfer(rhport, request, &p_cdc->line_coding, sizeof(cdc_line_coding_t));
 410:SynaptiX_FDK/lib/tinyusb/src/class/cdc/cdc_device.c ****       }
 411:SynaptiX_FDK/lib/tinyusb/src/class/cdc/cdc_device.c ****       break;
 412:SynaptiX_FDK/lib/tinyusb/src/class/cdc/cdc_device.c **** 
 413:SynaptiX_FDK/lib/tinyusb/src/class/cdc/cdc_device.c ****     case CDC_REQUEST_SET_CONTROL_LINE_STATE:
 414:SynaptiX_FDK/lib/tinyusb/src/class/cdc/cdc_device.c ****       if (stage == CONTROL_STAGE_SETUP) {
 415:SynaptiX_FDK/lib/tinyusb/src/class/cdc/cdc_device.c ****         tud_control_status(rhport, request);
 416:SynaptiX_FDK/lib/tinyusb/src/class/cdc/cdc_device.c ****       } else if (stage == CONTROL_STAGE_ACK) {
 417:SynaptiX_FDK/lib/tinyusb/src/class/cdc/cdc_device.c ****         // CDC PSTN v1.2 section 6.3.12
 418:SynaptiX_FDK/lib/tinyusb/src/class/cdc/cdc_device.c ****         // Bit 0: Indicates if DTE is present or not.
 419:SynaptiX_FDK/lib/tinyusb/src/class/cdc/cdc_device.c ****         //        This signal corresponds to V.24 signal 108/2 and RS-232 signal DTR (Data Terminal
 420:SynaptiX_FDK/lib/tinyusb/src/class/cdc/cdc_device.c ****         // Bit 1: Carrier control for half-duplex modems.
 421:SynaptiX_FDK/lib/tinyusb/src/class/cdc/cdc_device.c ****         //        This signal corresponds to V.24 signal 105 and RS-232 signal RTS (Request to Send
 422:SynaptiX_FDK/lib/tinyusb/src/class/cdc/cdc_device.c ****         bool const dtr = tu_bit_test(request->wValue, 0);
 423:SynaptiX_FDK/lib/tinyusb/src/class/cdc/cdc_device.c ****         bool const rts = tu_bit_test(request->wValue, 1);
 424:SynaptiX_FDK/lib/tinyusb/src/class/cdc/cdc_device.c **** 
 425:SynaptiX_FDK/lib/tinyusb/src/class/cdc/cdc_device.c ****         p_cdc->line_state = (uint8_t) request->wValue;
 426:SynaptiX_FDK/lib/tinyusb/src/class/cdc/cdc_device.c **** 
 427:SynaptiX_FDK/lib/tinyusb/src/class/cdc/cdc_device.c ****         // If enabled: fifo overwriting is disabled if DTR bit is set and vice versa
 428:SynaptiX_FDK/lib/tinyusb/src/class/cdc/cdc_device.c ****   #if CFG_TUD_CDC_TX_OVERWRITABLE_IF_NOT_CONNECTED
 429:SynaptiX_FDK/lib/tinyusb/src/class/cdc/cdc_device.c ****         const bool is_overwritable = !dtr;
 430:SynaptiX_FDK/lib/tinyusb/src/class/cdc/cdc_device.c ****   #else
 431:SynaptiX_FDK/lib/tinyusb/src/class/cdc/cdc_device.c ****         const bool is_overwritable = false;
 432:SynaptiX_FDK/lib/tinyusb/src/class/cdc/cdc_device.c ****   #endif
 433:SynaptiX_FDK/lib/tinyusb/src/class/cdc/cdc_device.c **** 
 434:SynaptiX_FDK/lib/tinyusb/src/class/cdc/cdc_device.c ****         tu_fifo_set_overwritable(&p_cdc->tx_stream.ff, is_overwritable);
 435:SynaptiX_FDK/lib/tinyusb/src/class/cdc/cdc_device.c ****         TU_LOG_DRV("  Set Control Line State: DTR = %d, RTS = %d\r\n", dtr, rts);
 436:SynaptiX_FDK/lib/tinyusb/src/class/cdc/cdc_device.c ****         tud_cdc_line_state_cb(itf, dtr, rts); // invoke callback
 437:SynaptiX_FDK/lib/tinyusb/src/class/cdc/cdc_device.c ****       } else {
 438:SynaptiX_FDK/lib/tinyusb/src/class/cdc/cdc_device.c ****         // nothing to do
 439:SynaptiX_FDK/lib/tinyusb/src/class/cdc/cdc_device.c ****       }
ARM GAS  C:\Users\DELL\AppData\Local\Temp\ccgExmFy.s 			page 83


 440:SynaptiX_FDK/lib/tinyusb/src/class/cdc/cdc_device.c ****       break;
 441:SynaptiX_FDK/lib/tinyusb/src/class/cdc/cdc_device.c **** 
 442:SynaptiX_FDK/lib/tinyusb/src/class/cdc/cdc_device.c ****     case CDC_REQUEST_SEND_BREAK:
 443:SynaptiX_FDK/lib/tinyusb/src/class/cdc/cdc_device.c ****       if (stage == CONTROL_STAGE_SETUP) {
 444:SynaptiX_FDK/lib/tinyusb/src/class/cdc/cdc_device.c ****         tud_control_status(rhport, request);
 445:SynaptiX_FDK/lib/tinyusb/src/class/cdc/cdc_device.c ****       } else if (stage == CONTROL_STAGE_ACK) {
 446:SynaptiX_FDK/lib/tinyusb/src/class/cdc/cdc_device.c ****         TU_LOG_DRV("  Send Break\r\n");
 447:SynaptiX_FDK/lib/tinyusb/src/class/cdc/cdc_device.c ****         tud_cdc_send_break_cb(itf, request->wValue);
 448:SynaptiX_FDK/lib/tinyusb/src/class/cdc/cdc_device.c ****       } else {
 449:SynaptiX_FDK/lib/tinyusb/src/class/cdc/cdc_device.c ****         // nothing to do
 450:SynaptiX_FDK/lib/tinyusb/src/class/cdc/cdc_device.c ****       }
 451:SynaptiX_FDK/lib/tinyusb/src/class/cdc/cdc_device.c ****       break;
 452:SynaptiX_FDK/lib/tinyusb/src/class/cdc/cdc_device.c **** 
 453:SynaptiX_FDK/lib/tinyusb/src/class/cdc/cdc_device.c ****     default:
 454:SynaptiX_FDK/lib/tinyusb/src/class/cdc/cdc_device.c ****       return false; // stall unsupported request
 455:SynaptiX_FDK/lib/tinyusb/src/class/cdc/cdc_device.c ****   }
 456:SynaptiX_FDK/lib/tinyusb/src/class/cdc/cdc_device.c **** 
 457:SynaptiX_FDK/lib/tinyusb/src/class/cdc/cdc_device.c ****   return true;
 2189              		.loc 1 457 10 view .LVU608
 2190 004a 0120     		movs	r0, #1
 2191              	.LVL192:
 2192              		.loc 1 457 10 view .LVU609
 2193 004c 4FE0     		b	.L172
 2194              	.LVL193:
 2195              	.L195:
 397:SynaptiX_FDK/lib/tinyusb/src/class/cdc/cdc_device.c ****         TU_LOG_DRV("  Set Line Coding\r\n");
 2196              		.loc 1 397 44 is_stmt 1 view .LVU610
 398:SynaptiX_FDK/lib/tinyusb/src/class/cdc/cdc_device.c ****       } else if (stage == CONTROL_STAGE_ACK) {
 2197              		.loc 1 398 9 view .LVU611
 2198 004e 0723     		movs	r3, #7
 2199 0050 0EF10402 		add	r2, lr, #4
 2200 0054 6146     		mov	r1, ip
 2201              	.LVL194:
 398:SynaptiX_FDK/lib/tinyusb/src/class/cdc/cdc_device.c ****       } else if (stage == CONTROL_STAGE_ACK) {
 2202              		.loc 1 398 9 is_stmt 0 view .LVU612
 2203 0056 FFF7FEFF 		bl	tud_control_xfer
 2204              	.LVL195:
 2205              		.loc 1 457 10 view .LVU613
 2206 005a 0120     		movs	r0, #1
 2207 005c 47E0     		b	.L172
 2208              	.LVL196:
 2209              	.L196:
 400:SynaptiX_FDK/lib/tinyusb/src/class/cdc/cdc_device.c ****         tud_cdc_line_coding_cb(itf, &p_cdc->line_coding);
 2210              		.loc 1 400 9 is_stmt 1 view .LVU614
 2211 005e 0EF10401 		add	r1, lr, #4
 2212              	.LVL197:
 400:SynaptiX_FDK/lib/tinyusb/src/class/cdc/cdc_device.c ****         tud_cdc_line_coding_cb(itf, &p_cdc->line_coding);
 2213              		.loc 1 400 9 is_stmt 0 view .LVU615
 2214 0062 2046     		mov	r0, r4
 2215              	.LVL198:
 400:SynaptiX_FDK/lib/tinyusb/src/class/cdc/cdc_device.c ****         tud_cdc_line_coding_cb(itf, &p_cdc->line_coding);
 2216              		.loc 1 400 9 view .LVU616
 2217 0064 FFF7FEFF 		bl	tud_cdc_line_coding_cb
 2218              	.LVL199:
 2219              		.loc 1 457 10 view .LVU617
 2220 0068 0120     		movs	r0, #1
 2221 006a 40E0     		b	.L172
ARM GAS  C:\Users\DELL\AppData\Local\Temp\ccgExmFy.s 			page 84


 2222              	.LVL200:
 2223              	.L179:
 407:SynaptiX_FDK/lib/tinyusb/src/class/cdc/cdc_device.c ****         TU_LOG_DRV("  Get Line Coding\r\n");
 2224              		.loc 1 407 7 is_stmt 1 view .LVU618
 407:SynaptiX_FDK/lib/tinyusb/src/class/cdc/cdc_device.c ****         TU_LOG_DRV("  Get Line Coding\r\n");
 2225              		.loc 1 407 10 is_stmt 0 view .LVU619
 2226 006c 0129     		cmp	r1, #1
 2227 006e 01D0     		beq	.L197
 2228              		.loc 1 457 10 view .LVU620
 2229 0070 0120     		movs	r0, #1
 2230              	.LVL201:
 2231              		.loc 1 457 10 view .LVU621
 2232 0072 3CE0     		b	.L172
 2233              	.LVL202:
 2234              	.L197:
 408:SynaptiX_FDK/lib/tinyusb/src/class/cdc/cdc_device.c ****         tud_control_xfer(rhport, request, &p_cdc->line_coding, sizeof(cdc_line_coding_t));
 2235              		.loc 1 408 44 is_stmt 1 view .LVU622
 409:SynaptiX_FDK/lib/tinyusb/src/class/cdc/cdc_device.c ****       }
 2236              		.loc 1 409 9 view .LVU623
 2237 0074 0723     		movs	r3, #7
 2238 0076 0EF10402 		add	r2, lr, #4
 2239 007a 6146     		mov	r1, ip
 2240              	.LVL203:
 409:SynaptiX_FDK/lib/tinyusb/src/class/cdc/cdc_device.c ****       }
 2241              		.loc 1 409 9 is_stmt 0 view .LVU624
 2242 007c FFF7FEFF 		bl	tud_control_xfer
 2243              	.LVL204:
 2244              		.loc 1 457 10 view .LVU625
 2245 0080 0120     		movs	r0, #1
 2246 0082 34E0     		b	.L172
 2247              	.LVL205:
 2248              	.L178:
 414:SynaptiX_FDK/lib/tinyusb/src/class/cdc/cdc_device.c ****         tud_control_status(rhport, request);
 2249              		.loc 1 414 7 is_stmt 1 view .LVU626
 414:SynaptiX_FDK/lib/tinyusb/src/class/cdc/cdc_device.c ****         tud_control_status(rhport, request);
 2250              		.loc 1 414 10 is_stmt 0 view .LVU627
 2251 0084 0129     		cmp	r1, #1
 2252 0086 03D0     		beq	.L198
 416:SynaptiX_FDK/lib/tinyusb/src/class/cdc/cdc_device.c ****         // CDC PSTN v1.2 section 6.3.12
 2253              		.loc 1 416 14 is_stmt 1 view .LVU628
 416:SynaptiX_FDK/lib/tinyusb/src/class/cdc/cdc_device.c ****         // CDC PSTN v1.2 section 6.3.12
 2254              		.loc 1 416 17 is_stmt 0 view .LVU629
 2255 0088 0329     		cmp	r1, #3
 2256 008a 06D0     		beq	.L199
 2257              		.loc 1 457 10 view .LVU630
 2258 008c 0120     		movs	r0, #1
 2259              	.LVL206:
 2260              		.loc 1 457 10 view .LVU631
 2261 008e 2EE0     		b	.L172
 2262              	.LVL207:
 2263              	.L198:
 415:SynaptiX_FDK/lib/tinyusb/src/class/cdc/cdc_device.c ****       } else if (stage == CONTROL_STAGE_ACK) {
 2264              		.loc 1 415 9 is_stmt 1 view .LVU632
 2265 0090 6146     		mov	r1, ip
 2266              	.LVL208:
 415:SynaptiX_FDK/lib/tinyusb/src/class/cdc/cdc_device.c ****       } else if (stage == CONTROL_STAGE_ACK) {
 2267              		.loc 1 415 9 is_stmt 0 view .LVU633
ARM GAS  C:\Users\DELL\AppData\Local\Temp\ccgExmFy.s 			page 85


 2268 0092 FFF7FEFF 		bl	tud_control_status
 2269              	.LVL209:
 2270              		.loc 1 457 10 view .LVU634
 2271 0096 0120     		movs	r0, #1
 2272 0098 29E0     		b	.L172
 2273              	.LVL210:
 2274              	.L199:
 2275              	.LBB229:
 422:SynaptiX_FDK/lib/tinyusb/src/class/cdc/cdc_device.c ****         bool const rts = tu_bit_test(request->wValue, 1);
 2276              		.loc 1 422 9 is_stmt 1 view .LVU635
 422:SynaptiX_FDK/lib/tinyusb/src/class/cdc/cdc_device.c ****         bool const rts = tu_bit_test(request->wValue, 1);
 2277              		.loc 1 422 45 is_stmt 0 view .LVU636
 2278 009a BCF80230 		ldrh	r3, [ip, #2]	@ unaligned
 2279              	.LVL211:
 2280              	.LBB230:
 2281              	.LBI230:
 202:SynaptiX_FDK/lib/tinyusb/src/common/tusb_common.h **** 
 2282              		.loc 5 202 46 is_stmt 1 view .LVU637
 2283              	.LBB231:
 202:SynaptiX_FDK/lib/tinyusb/src/common/tusb_common.h **** 
 2284              		.loc 5 202 90 view .LVU638
 202:SynaptiX_FDK/lib/tinyusb/src/common/tusb_common.h **** 
 2285              		.loc 5 202 126 is_stmt 0 view .LVU639
 2286 009e 03F00105 		and	r5, r3, #1
 2287              	.LVL212:
 202:SynaptiX_FDK/lib/tinyusb/src/common/tusb_common.h **** 
 2288              		.loc 5 202 126 view .LVU640
 2289              	.LBE231:
 2290              	.LBE230:
 423:SynaptiX_FDK/lib/tinyusb/src/class/cdc/cdc_device.c **** 
 2291              		.loc 1 423 9 is_stmt 1 view .LVU641
 2292              	.LBB232:
 2293              	.LBI232:
 202:SynaptiX_FDK/lib/tinyusb/src/common/tusb_common.h **** 
 2294              		.loc 5 202 46 view .LVU642
 2295              	.LBB233:
 202:SynaptiX_FDK/lib/tinyusb/src/common/tusb_common.h **** 
 2296              		.loc 5 202 90 view .LVU643
 202:SynaptiX_FDK/lib/tinyusb/src/common/tusb_common.h **** 
 2297              		.loc 5 202 126 is_stmt 0 view .LVU644
 2298 00a2 C3F34006 		ubfx	r6, r3, #1, #1
 2299              	.LVL213:
 202:SynaptiX_FDK/lib/tinyusb/src/common/tusb_common.h **** 
 2300              		.loc 5 202 126 view .LVU645
 2301              	.LBE233:
 2302              	.LBE232:
 425:SynaptiX_FDK/lib/tinyusb/src/class/cdc/cdc_device.c **** 
 2303              		.loc 1 425 9 is_stmt 1 view .LVU646
 425:SynaptiX_FDK/lib/tinyusb/src/class/cdc/cdc_device.c **** 
 2304              		.loc 1 425 27 is_stmt 0 view .LVU647
 2305 00a6 8EF80330 		strb	r3, [lr, #3]
 429:SynaptiX_FDK/lib/tinyusb/src/class/cdc/cdc_device.c ****   #else
 2306              		.loc 1 429 9 is_stmt 1 view .LVU648
 2307              	.LVL214:
 434:SynaptiX_FDK/lib/tinyusb/src/class/cdc/cdc_device.c ****         TU_LOG_DRV("  Set Control Line State: DTR = %d, RTS = %d\r\n", dtr, rts);
 2308              		.loc 1 434 9 view .LVU649
 2309 00aa 85F00101 		eor	r1, r5, #1
ARM GAS  C:\Users\DELL\AppData\Local\Temp\ccgExmFy.s 			page 86


 2310              	.LVL215:
 434:SynaptiX_FDK/lib/tinyusb/src/class/cdc/cdc_device.c ****         TU_LOG_DRV("  Set Control Line State: DTR = %d, RTS = %d\r\n", dtr, rts);
 2311              		.loc 1 434 9 is_stmt 0 view .LVU650
 2312 00ae 0EF11800 		add	r0, lr, #24
 2313              	.LVL216:
 434:SynaptiX_FDK/lib/tinyusb/src/class/cdc/cdc_device.c ****         TU_LOG_DRV("  Set Control Line State: DTR = %d, RTS = %d\r\n", dtr, rts);
 2314              		.loc 1 434 9 view .LVU651
 2315 00b2 FFF7FEFF 		bl	tu_fifo_set_overwritable
 2316              	.LVL217:
 435:SynaptiX_FDK/lib/tinyusb/src/class/cdc/cdc_device.c ****         tud_cdc_line_state_cb(itf, dtr, rts); // invoke callback
 2317              		.loc 1 435 81 is_stmt 1 view .LVU652
 436:SynaptiX_FDK/lib/tinyusb/src/class/cdc/cdc_device.c ****       } else {
 2318              		.loc 1 436 9 view .LVU653
 2319 00b6 3246     		mov	r2, r6
 2320 00b8 2946     		mov	r1, r5
 2321 00ba 2046     		mov	r0, r4
 2322 00bc FFF7FEFF 		bl	tud_cdc_line_state_cb
 2323              	.LVL218:
 2324              	.LBE229:
 2325              		.loc 1 457 10 is_stmt 0 view .LVU654
 2326 00c0 0120     		movs	r0, #1
 2327 00c2 14E0     		b	.L172
 2328              	.LVL219:
 2329              	.L176:
 443:SynaptiX_FDK/lib/tinyusb/src/class/cdc/cdc_device.c ****         tud_control_status(rhport, request);
 2330              		.loc 1 443 7 is_stmt 1 view .LVU655
 443:SynaptiX_FDK/lib/tinyusb/src/class/cdc/cdc_device.c ****         tud_control_status(rhport, request);
 2331              		.loc 1 443 10 is_stmt 0 view .LVU656
 2332 00c4 0129     		cmp	r1, #1
 2333 00c6 03D0     		beq	.L200
 445:SynaptiX_FDK/lib/tinyusb/src/class/cdc/cdc_device.c ****         TU_LOG_DRV("  Send Break\r\n");
 2334              		.loc 1 445 14 is_stmt 1 view .LVU657
 445:SynaptiX_FDK/lib/tinyusb/src/class/cdc/cdc_device.c ****         TU_LOG_DRV("  Send Break\r\n");
 2335              		.loc 1 445 17 is_stmt 0 view .LVU658
 2336 00c8 0329     		cmp	r1, #3
 2337 00ca 06D0     		beq	.L201
 2338              		.loc 1 457 10 view .LVU659
 2339 00cc 0120     		movs	r0, #1
 2340              	.LVL220:
 2341              		.loc 1 457 10 view .LVU660
 2342 00ce 0EE0     		b	.L172
 2343              	.LVL221:
 2344              	.L200:
 444:SynaptiX_FDK/lib/tinyusb/src/class/cdc/cdc_device.c ****       } else if (stage == CONTROL_STAGE_ACK) {
 2345              		.loc 1 444 9 is_stmt 1 view .LVU661
 2346 00d0 6146     		mov	r1, ip
 2347              	.LVL222:
 444:SynaptiX_FDK/lib/tinyusb/src/class/cdc/cdc_device.c ****       } else if (stage == CONTROL_STAGE_ACK) {
 2348              		.loc 1 444 9 is_stmt 0 view .LVU662
 2349 00d2 FFF7FEFF 		bl	tud_control_status
 2350              	.LVL223:
 2351              		.loc 1 457 10 view .LVU663
 2352 00d6 0120     		movs	r0, #1
 2353 00d8 09E0     		b	.L172
 2354              	.LVL224:
 2355              	.L201:
 446:SynaptiX_FDK/lib/tinyusb/src/class/cdc/cdc_device.c ****         tud_cdc_send_break_cb(itf, request->wValue);
ARM GAS  C:\Users\DELL\AppData\Local\Temp\ccgExmFy.s 			page 87


 2356              		.loc 1 446 39 is_stmt 1 view .LVU664
 447:SynaptiX_FDK/lib/tinyusb/src/class/cdc/cdc_device.c ****       } else {
 2357              		.loc 1 447 9 view .LVU665
 2358 00da BCF80210 		ldrh	r1, [ip, #2]	@ unaligned
 2359              	.LVL225:
 447:SynaptiX_FDK/lib/tinyusb/src/class/cdc/cdc_device.c ****       } else {
 2360              		.loc 1 447 9 is_stmt 0 view .LVU666
 2361 00de 2046     		mov	r0, r4
 2362              	.LVL226:
 447:SynaptiX_FDK/lib/tinyusb/src/class/cdc/cdc_device.c ****       } else {
 2363              		.loc 1 447 9 view .LVU667
 2364 00e0 FFF7FEFF 		bl	tud_cdc_send_break_cb
 2365              	.LVL227:
 2366              		.loc 1 457 10 view .LVU668
 2367 00e4 0120     		movs	r0, #1
 2368 00e6 02E0     		b	.L172
 2369              	.LVL228:
 2370              	.L184:
 2371              	.LCFI17:
 2372              		.cfi_def_cfa_offset 0
 2373              		.cfi_restore 4
 2374              		.cfi_restore 5
 2375              		.cfi_restore 6
 2376              		.cfi_restore 14
 380:SynaptiX_FDK/lib/tinyusb/src/class/cdc/cdc_device.c **** 
 2377              		.loc 1 380 3 discriminator 1 view .LVU669
 2378 00e8 0020     		movs	r0, #0
 2379              	.LVL229:
 458:SynaptiX_FDK/lib/tinyusb/src/class/cdc/cdc_device.c **** }
 2380              		.loc 1 458 1 view .LVU670
 2381 00ea 7047     		bx	lr
 2382              	.LVL230:
 2383              	.L185:
 2384              	.LCFI18:
 2385              		.cfi_def_cfa_offset 16
 2386              		.cfi_offset 4, -16
 2387              		.cfi_offset 5, -12
 2388              		.cfi_offset 6, -8
 2389              		.cfi_offset 14, -4
 392:SynaptiX_FDK/lib/tinyusb/src/class/cdc/cdc_device.c **** 
 2390              		.loc 1 392 3 discriminator 1 view .LVU671
 2391 00ec 0020     		movs	r0, #0
 2392              	.LVL231:
 2393              	.L172:
 2394              		.loc 1 458 1 view .LVU672
 2395 00ee 70BD     		pop	{r4, r5, r6, pc}
 2396              	.LVL232:
 2397              	.L186:
 394:SynaptiX_FDK/lib/tinyusb/src/class/cdc/cdc_device.c ****     case CDC_REQUEST_SET_LINE_CODING:
 2398              		.loc 1 394 3 view .LVU673
 2399 00f0 0020     		movs	r0, #0
 2400              	.LVL233:
 394:SynaptiX_FDK/lib/tinyusb/src/class/cdc/cdc_device.c ****     case CDC_REQUEST_SET_LINE_CODING:
 2401              		.loc 1 394 3 view .LVU674
 2402 00f2 FCE7     		b	.L172
 2403              	.L203:
 2404              		.align	2
ARM GAS  C:\Users\DELL\AppData\Local\Temp\ccgExmFy.s 			page 88


 2405              	.L202:
 2406 00f4 00000000 		.word	_cdcd_itf
 2407              		.cfi_endproc
 2408              	.LFE470:
 2410              		.section	.text.cdcd_xfer_cb,"ax",%progbits
 2411              		.align	1
 2412              		.global	cdcd_xfer_cb
 2413              		.syntax unified
 2414              		.thumb
 2415              		.thumb_func
 2417              	cdcd_xfer_cb:
 2418              	.LVL234:
 2419              	.LFB471:
 459:SynaptiX_FDK/lib/tinyusb/src/class/cdc/cdc_device.c **** 
 460:SynaptiX_FDK/lib/tinyusb/src/class/cdc/cdc_device.c **** bool cdcd_xfer_cb(uint8_t rhport, uint8_t ep_addr, xfer_result_t result, uint32_t xferred_bytes) {
 2420              		.loc 1 460 98 is_stmt 1 view -0
 2421              		.cfi_startproc
 2422              		@ args = 0, pretend = 0, frame = 16
 2423              		@ frame_needed = 0, uses_anonymous_args = 0
 2424              		.loc 1 460 98 is_stmt 0 view .LVU676
 2425 0000 2DE9F043 		push	{r4, r5, r6, r7, r8, r9, lr}
 2426              	.LCFI19:
 2427              		.cfi_def_cfa_offset 28
 2428              		.cfi_offset 4, -28
 2429              		.cfi_offset 5, -24
 2430              		.cfi_offset 6, -20
 2431              		.cfi_offset 7, -16
 2432              		.cfi_offset 8, -12
 2433              		.cfi_offset 9, -8
 2434              		.cfi_offset 14, -4
 2435 0004 85B0     		sub	sp, sp, #20
 2436              	.LCFI20:
 2437              		.cfi_def_cfa_offset 48
 2438 0006 0D46     		mov	r5, r1
 2439 0008 1F46     		mov	r7, r3
 461:SynaptiX_FDK/lib/tinyusb/src/class/cdc/cdc_device.c ****   (void)rhport;
 2440              		.loc 1 461 3 is_stmt 1 view .LVU677
 462:SynaptiX_FDK/lib/tinyusb/src/class/cdc/cdc_device.c ****   (void)result;
 2441              		.loc 1 462 3 view .LVU678
 463:SynaptiX_FDK/lib/tinyusb/src/class/cdc/cdc_device.c **** 
 464:SynaptiX_FDK/lib/tinyusb/src/class/cdc/cdc_device.c ****   uint8_t itf = find_cdc_itf(ep_addr);
 2442              		.loc 1 464 3 view .LVU679
 2443              	.LVL235:
 2444              	.LBB234:
 2445              	.LBI234:
 120:SynaptiX_FDK/lib/tinyusb/src/class/cdc/cdc_device.c ****   for (uint8_t idx = 0; idx < CFG_TUD_CDC; idx++) {
 2446              		.loc 1 120 45 view .LVU680
 2447              	.LBB235:
 121:SynaptiX_FDK/lib/tinyusb/src/class/cdc/cdc_device.c ****     const cdcd_interface_t *p_cdc = &_cdcd_itf[idx];
 2448              		.loc 1 121 3 view .LVU681
 2449              	.LBB236:
 121:SynaptiX_FDK/lib/tinyusb/src/class/cdc/cdc_device.c ****     const cdcd_interface_t *p_cdc = &_cdcd_itf[idx];
 2450              		.loc 1 121 8 view .LVU682
 121:SynaptiX_FDK/lib/tinyusb/src/class/cdc/cdc_device.c ****     const cdcd_interface_t *p_cdc = &_cdcd_itf[idx];
 2451              		.loc 1 121 16 is_stmt 0 view .LVU683
 2452 000a 0024     		movs	r4, #0
 2453              	.LVL236:
ARM GAS  C:\Users\DELL\AppData\Local\Temp\ccgExmFy.s 			page 89


 2454              	.L205:
 121:SynaptiX_FDK/lib/tinyusb/src/class/cdc/cdc_device.c ****     const cdcd_interface_t *p_cdc = &_cdcd_itf[idx];
 2455              		.loc 1 121 29 is_stmt 1 discriminator 1 view .LVU684
 2456 000c 4CB3     		cbz	r4, .L208
 2457              	.LBE236:
 128:SynaptiX_FDK/lib/tinyusb/src/class/cdc/cdc_device.c **** }
 2458              		.loc 1 128 10 is_stmt 0 view .LVU685
 2459 000e FF24     		movs	r4, #255
 2460              	.LVL237:
 2461              	.L206:
 128:SynaptiX_FDK/lib/tinyusb/src/class/cdc/cdc_device.c **** }
 2462              		.loc 1 128 10 view .LVU686
 2463              	.LBE235:
 2464              	.LBE234:
 465:SynaptiX_FDK/lib/tinyusb/src/class/cdc/cdc_device.c ****   TU_ASSERT(itf < CFG_TUD_CDC);
 2465              		.loc 1 465 3 is_stmt 1 view .LVU687
 2466              		.loc 1 465 3 view .LVU688
 2467 0010 002C     		cmp	r4, #0
 2468 0012 40D1     		bne	.L228
 2469              		.loc 1 465 3 view .LVU689
 466:SynaptiX_FDK/lib/tinyusb/src/class/cdc/cdc_device.c ****   cdcd_interface_t *p_cdc     = &_cdcd_itf[itf];
 2470              		.loc 1 466 3 view .LVU690
 2471              		.loc 1 466 43 is_stmt 0 view .LVU691
 2472 0014 A146     		mov	r9, r4
 2473              	.LVL238:
 467:SynaptiX_FDK/lib/tinyusb/src/class/cdc/cdc_device.c ****   tu_edpt_stream_t *stream_rx = &p_cdc->rx_stream;
 2474              		.loc 1 467 3 is_stmt 1 view .LVU692
 2475              		.loc 1 467 21 is_stmt 0 view .LVU693
 2476 0016 BC23     		movs	r3, #188
 2477 0018 04FB03F3 		mul	r3, r4, r3
 2478 001c 03F12006 		add	r6, r3, #32
 2479 0020 5A4A     		ldr	r2, .L237
 2480 0022 1644     		add	r6, r6, r2
 2481 0024 0436     		adds	r6, r6, #4
 2482              	.LVL239:
 468:SynaptiX_FDK/lib/tinyusb/src/class/cdc/cdc_device.c ****   tu_edpt_stream_t *stream_tx = &p_cdc->tx_stream;
 2483              		.loc 1 468 3 is_stmt 1 view .LVU694
 2484              		.loc 1 468 21 is_stmt 0 view .LVU695
 2485 0026 03F10808 		add	r8, r3, #8
 2486 002a 9044     		add	r8, r8, r2
 2487 002c 08F10408 		add	r8, r8, #4
 2488              	.LVL240:
 469:SynaptiX_FDK/lib/tinyusb/src/class/cdc/cdc_device.c **** 
 470:SynaptiX_FDK/lib/tinyusb/src/class/cdc/cdc_device.c ****   // Received new data, move to fifo
 471:SynaptiX_FDK/lib/tinyusb/src/class/cdc/cdc_device.c ****   if (ep_addr == stream_rx->ep_addr) {
 2489              		.loc 1 471 3 is_stmt 1 view .LVU696
 2490              		.loc 1 471 27 is_stmt 0 view .LVU697
 2491 0030 1A44     		add	r2, r2, r3
 2492              	.LVL241:
 2493              		.loc 1 471 27 view .LVU698
 2494 0032 92F82630 		ldrb	r3, [r2, #38]	@ zero_extendqisi2
 2495              		.loc 1 471 6 view .LVU699
 2496 0036 AB42     		cmp	r3, r5
 2497 0038 37D0     		beq	.L229
 2498              	.LVL242:
 2499              	.L212:
 472:SynaptiX_FDK/lib/tinyusb/src/class/cdc/cdc_device.c ****     tu_edpt_stream_read_xfer_complete(stream_rx, xferred_bytes);
ARM GAS  C:\Users\DELL\AppData\Local\Temp\ccgExmFy.s 			page 90


 473:SynaptiX_FDK/lib/tinyusb/src/class/cdc/cdc_device.c **** 
 474:SynaptiX_FDK/lib/tinyusb/src/class/cdc/cdc_device.c ****     // Check for wanted char and invoke wanted callback
 475:SynaptiX_FDK/lib/tinyusb/src/class/cdc/cdc_device.c ****     if (((signed char)p_cdc->wanted_char) != -1) {
 476:SynaptiX_FDK/lib/tinyusb/src/class/cdc/cdc_device.c ****       tu_fifo_buffer_info_t buf_info;
 477:SynaptiX_FDK/lib/tinyusb/src/class/cdc/cdc_device.c ****       tu_fifo_get_read_info(&stream_rx->ff, &buf_info);
 478:SynaptiX_FDK/lib/tinyusb/src/class/cdc/cdc_device.c **** 
 479:SynaptiX_FDK/lib/tinyusb/src/class/cdc/cdc_device.c ****       // find backward
 480:SynaptiX_FDK/lib/tinyusb/src/class/cdc/cdc_device.c ****       uint8_t *ptr;
 481:SynaptiX_FDK/lib/tinyusb/src/class/cdc/cdc_device.c ****       if (buf_info.wrapped.len > 0) {
 482:SynaptiX_FDK/lib/tinyusb/src/class/cdc/cdc_device.c ****         ptr = buf_info.wrapped.ptr + buf_info.wrapped.len - 1; // last byte of wrap buffer
 483:SynaptiX_FDK/lib/tinyusb/src/class/cdc/cdc_device.c ****       } else if (buf_info.linear.len > 0) {
 484:SynaptiX_FDK/lib/tinyusb/src/class/cdc/cdc_device.c ****         ptr = buf_info.linear.ptr + buf_info.linear.len - 1;   // last byte of linear buffer
 485:SynaptiX_FDK/lib/tinyusb/src/class/cdc/cdc_device.c ****       } else {
 486:SynaptiX_FDK/lib/tinyusb/src/class/cdc/cdc_device.c ****         ptr = NULL;                                      // no data
 487:SynaptiX_FDK/lib/tinyusb/src/class/cdc/cdc_device.c ****       }
 488:SynaptiX_FDK/lib/tinyusb/src/class/cdc/cdc_device.c **** 
 489:SynaptiX_FDK/lib/tinyusb/src/class/cdc/cdc_device.c ****       if (ptr != NULL) {
 490:SynaptiX_FDK/lib/tinyusb/src/class/cdc/cdc_device.c ****         for (uint32_t i = 0; i < xferred_bytes; i++) {
 491:SynaptiX_FDK/lib/tinyusb/src/class/cdc/cdc_device.c ****           if (p_cdc->wanted_char == (char)*ptr) {
 492:SynaptiX_FDK/lib/tinyusb/src/class/cdc/cdc_device.c ****             tud_cdc_rx_wanted_cb(itf, p_cdc->wanted_char);
 493:SynaptiX_FDK/lib/tinyusb/src/class/cdc/cdc_device.c ****             break; // only invoke once per transfer, even if multiple wanted chars are present
 494:SynaptiX_FDK/lib/tinyusb/src/class/cdc/cdc_device.c ****           }
 495:SynaptiX_FDK/lib/tinyusb/src/class/cdc/cdc_device.c **** 
 496:SynaptiX_FDK/lib/tinyusb/src/class/cdc/cdc_device.c ****           if (ptr == buf_info.wrapped.ptr) {
 497:SynaptiX_FDK/lib/tinyusb/src/class/cdc/cdc_device.c ****             ptr = buf_info.linear.ptr + buf_info.linear.len - 1; // last byte of linear buffer
 498:SynaptiX_FDK/lib/tinyusb/src/class/cdc/cdc_device.c ****           } else if (ptr == buf_info.linear.ptr) {
 499:SynaptiX_FDK/lib/tinyusb/src/class/cdc/cdc_device.c ****             break;                                         // reached the beginning
 500:SynaptiX_FDK/lib/tinyusb/src/class/cdc/cdc_device.c ****           } else {
 501:SynaptiX_FDK/lib/tinyusb/src/class/cdc/cdc_device.c ****             ptr--;
 502:SynaptiX_FDK/lib/tinyusb/src/class/cdc/cdc_device.c ****           }
 503:SynaptiX_FDK/lib/tinyusb/src/class/cdc/cdc_device.c ****         }
 504:SynaptiX_FDK/lib/tinyusb/src/class/cdc/cdc_device.c ****       }
 505:SynaptiX_FDK/lib/tinyusb/src/class/cdc/cdc_device.c ****     }
 506:SynaptiX_FDK/lib/tinyusb/src/class/cdc/cdc_device.c **** 
 507:SynaptiX_FDK/lib/tinyusb/src/class/cdc/cdc_device.c ****     // invoke receive callback if there is still data
 508:SynaptiX_FDK/lib/tinyusb/src/class/cdc/cdc_device.c ****     if (!tu_edpt_stream_empty(stream_rx)) {
 509:SynaptiX_FDK/lib/tinyusb/src/class/cdc/cdc_device.c ****       tud_cdc_rx_cb(itf);
 510:SynaptiX_FDK/lib/tinyusb/src/class/cdc/cdc_device.c ****     }
 511:SynaptiX_FDK/lib/tinyusb/src/class/cdc/cdc_device.c **** 
 512:SynaptiX_FDK/lib/tinyusb/src/class/cdc/cdc_device.c ****     tu_edpt_stream_read_xfer(stream_rx); // prepare for more data
 513:SynaptiX_FDK/lib/tinyusb/src/class/cdc/cdc_device.c ****   }
 514:SynaptiX_FDK/lib/tinyusb/src/class/cdc/cdc_device.c **** 
 515:SynaptiX_FDK/lib/tinyusb/src/class/cdc/cdc_device.c ****   // Data sent to host, we continue to fetch from tx fifo to send.
 516:SynaptiX_FDK/lib/tinyusb/src/class/cdc/cdc_device.c ****   // Note: This will cause incorrect baudrate set in line coding. Though maybe the baudrate is not 
 517:SynaptiX_FDK/lib/tinyusb/src/class/cdc/cdc_device.c ****   if (ep_addr == stream_tx->ep_addr) {
 2500              		.loc 1 517 3 is_stmt 1 view .LVU700
 2501              		.loc 1 517 27 is_stmt 0 view .LVU701
 2502 003a 544B     		ldr	r3, .L237
 2503 003c BC22     		movs	r2, #188
 2504 003e 02FB0933 		mla	r3, r2, r9, r3
 2505 0042 9B7B     		ldrb	r3, [r3, #14]	@ zero_extendqisi2
 2506              		.loc 1 517 6 view .LVU702
 2507 0044 AB42     		cmp	r3, r5
 2508 0046 00F08D80 		beq	.L230
 2509              	.L224:
 518:SynaptiX_FDK/lib/tinyusb/src/class/cdc/cdc_device.c ****     tud_cdc_tx_complete_cb(itf); // invoke callback to possibly refill tx fifo
 519:SynaptiX_FDK/lib/tinyusb/src/class/cdc/cdc_device.c **** 
ARM GAS  C:\Users\DELL\AppData\Local\Temp\ccgExmFy.s 			page 91


 520:SynaptiX_FDK/lib/tinyusb/src/class/cdc/cdc_device.c ****     if (0 == tu_edpt_stream_write_xfer(stream_tx)) {
 521:SynaptiX_FDK/lib/tinyusb/src/class/cdc/cdc_device.c ****       // If there is no data left, a ZLP should be sent if needed
 522:SynaptiX_FDK/lib/tinyusb/src/class/cdc/cdc_device.c ****       tu_edpt_stream_write_zlp_if_needed(stream_tx, xferred_bytes);
 523:SynaptiX_FDK/lib/tinyusb/src/class/cdc/cdc_device.c ****     }
 524:SynaptiX_FDK/lib/tinyusb/src/class/cdc/cdc_device.c ****   }
 525:SynaptiX_FDK/lib/tinyusb/src/class/cdc/cdc_device.c **** 
 526:SynaptiX_FDK/lib/tinyusb/src/class/cdc/cdc_device.c ****   // Sent notification to host
 527:SynaptiX_FDK/lib/tinyusb/src/class/cdc/cdc_device.c ****   if (ep_addr == p_cdc->ep_notify) {
 2510              		.loc 1 527 3 is_stmt 1 view .LVU703
 2511              		.loc 1 527 23 is_stmt 0 view .LVU704
 2512 004a 504B     		ldr	r3, .L237
 2513 004c BC22     		movs	r2, #188
 2514 004e 02FB0933 		mla	r3, r2, r9, r3
 2515 0052 9B78     		ldrb	r3, [r3, #2]	@ zero_extendqisi2
 2516              		.loc 1 527 6 view .LVU705
 2517 0054 AB42     		cmp	r3, r5
 2518 0056 00F09380 		beq	.L231
 528:SynaptiX_FDK/lib/tinyusb/src/class/cdc/cdc_device.c ****     tud_cdc_notify_complete_cb(itf);
 529:SynaptiX_FDK/lib/tinyusb/src/class/cdc/cdc_device.c ****   }
 530:SynaptiX_FDK/lib/tinyusb/src/class/cdc/cdc_device.c **** 
 531:SynaptiX_FDK/lib/tinyusb/src/class/cdc/cdc_device.c ****   return true;
 2519              		.loc 1 531 10 view .LVU706
 2520 005a 0120     		movs	r0, #1
 2521              	.LVL243:
 2522              	.L211:
 532:SynaptiX_FDK/lib/tinyusb/src/class/cdc/cdc_device.c **** }
 2523              		.loc 1 532 1 view .LVU707
 2524 005c 05B0     		add	sp, sp, #20
 2525              	.LCFI21:
 2526              		.cfi_remember_state
 2527              		.cfi_def_cfa_offset 28
 2528              		@ sp needed
 2529 005e BDE8F083 		pop	{r4, r5, r6, r7, r8, r9, pc}
 2530              	.LVL244:
 2531              	.L208:
 2532              	.LCFI22:
 2533              		.cfi_restore_state
 2534              	.LBB241:
 2535              	.LBB240:
 2536              	.LBB239:
 2537              	.LBB237:
 122:SynaptiX_FDK/lib/tinyusb/src/class/cdc/cdc_device.c ****     if (ep_addr == p_cdc->rx_stream.ep_addr || ep_addr == p_cdc->tx_stream.ep_addr ||
 2538              		.loc 1 122 5 is_stmt 1 view .LVU708
 123:SynaptiX_FDK/lib/tinyusb/src/class/cdc/cdc_device.c ****         (ep_addr == p_cdc->ep_notify && ep_addr != 0)) {
 2539              		.loc 1 123 5 view .LVU709
 123:SynaptiX_FDK/lib/tinyusb/src/class/cdc/cdc_device.c ****         (ep_addr == p_cdc->ep_notify && ep_addr != 0)) {
 2540              		.loc 1 123 36 is_stmt 0 view .LVU710
 2541 0062 4A4B     		ldr	r3, .L237
 2542 0064 BC22     		movs	r2, #188
 2543 0066 02FB0433 		mla	r3, r2, r4, r3
 2544              	.LVL245:
 123:SynaptiX_FDK/lib/tinyusb/src/class/cdc/cdc_device.c ****         (ep_addr == p_cdc->ep_notify && ep_addr != 0)) {
 2545              		.loc 1 123 36 view .LVU711
 2546 006a 93F82630 		ldrb	r3, [r3, #38]	@ zero_extendqisi2
 2547              	.LVL246:
 123:SynaptiX_FDK/lib/tinyusb/src/class/cdc/cdc_device.c ****         (ep_addr == p_cdc->ep_notify && ep_addr != 0)) {
 2548              		.loc 1 123 8 view .LVU712
ARM GAS  C:\Users\DELL\AppData\Local\Temp\ccgExmFy.s 			page 92


 2549 006e 9D42     		cmp	r5, r3
 2550 0070 CED0     		beq	.L206
 123:SynaptiX_FDK/lib/tinyusb/src/class/cdc/cdc_device.c ****         (ep_addr == p_cdc->ep_notify && ep_addr != 0)) {
 2551              		.loc 1 123 75 discriminator 1 view .LVU713
 2552 0072 464B     		ldr	r3, .L237
 2553 0074 02FB0433 		mla	r3, r2, r4, r3
 2554              	.LVL247:
 123:SynaptiX_FDK/lib/tinyusb/src/class/cdc/cdc_device.c ****         (ep_addr == p_cdc->ep_notify && ep_addr != 0)) {
 2555              		.loc 1 123 75 discriminator 1 view .LVU714
 2556 0078 9B7B     		ldrb	r3, [r3, #14]	@ zero_extendqisi2
 2557              	.LVL248:
 123:SynaptiX_FDK/lib/tinyusb/src/class/cdc/cdc_device.c ****         (ep_addr == p_cdc->ep_notify && ep_addr != 0)) {
 2558              		.loc 1 123 45 discriminator 1 view .LVU715
 2559 007a 9D42     		cmp	r5, r3
 2560 007c C8D0     		beq	.L206
 124:SynaptiX_FDK/lib/tinyusb/src/class/cdc/cdc_device.c ****       return idx;
 2561              		.loc 1 124 26 view .LVU716
 2562 007e 434B     		ldr	r3, .L237
 2563 0080 02FB0433 		mla	r3, r2, r4, r3
 2564              	.LVL249:
 124:SynaptiX_FDK/lib/tinyusb/src/class/cdc/cdc_device.c ****       return idx;
 2565              		.loc 1 124 26 view .LVU717
 2566 0084 9B78     		ldrb	r3, [r3, #2]	@ zero_extendqisi2
 2567              	.LVL250:
 123:SynaptiX_FDK/lib/tinyusb/src/class/cdc/cdc_device.c ****         (ep_addr == p_cdc->ep_notify && ep_addr != 0)) {
 2568              		.loc 1 123 84 discriminator 2 view .LVU718
 2569 0086 9D42     		cmp	r5, r3
 2570 0088 02D0     		beq	.L232
 2571              	.L207:
 2572              	.LBE237:
 121:SynaptiX_FDK/lib/tinyusb/src/class/cdc/cdc_device.c ****     const cdcd_interface_t *p_cdc = &_cdcd_itf[idx];
 2573              		.loc 1 121 47 is_stmt 1 discriminator 2 view .LVU719
 2574 008a 0134     		adds	r4, r4, #1
 2575              	.LVL251:
 121:SynaptiX_FDK/lib/tinyusb/src/class/cdc/cdc_device.c ****     const cdcd_interface_t *p_cdc = &_cdcd_itf[idx];
 2576              		.loc 1 121 47 is_stmt 0 discriminator 2 view .LVU720
 2577 008c E4B2     		uxtb	r4, r4
 2578              	.LVL252:
 121:SynaptiX_FDK/lib/tinyusb/src/class/cdc/cdc_device.c ****     const cdcd_interface_t *p_cdc = &_cdcd_itf[idx];
 2579              		.loc 1 121 47 discriminator 2 view .LVU721
 2580 008e BDE7     		b	.L205
 2581              	.LVL253:
 2582              	.L232:
 2583              	.LBB238:
 124:SynaptiX_FDK/lib/tinyusb/src/class/cdc/cdc_device.c ****       return idx;
 2584              		.loc 1 124 38 view .LVU722
 2585 0090 002D     		cmp	r5, #0
 2586 0092 FAD0     		beq	.L207
 2587 0094 BCE7     		b	.L206
 2588              	.LVL254:
 2589              	.L228:
 124:SynaptiX_FDK/lib/tinyusb/src/class/cdc/cdc_device.c ****       return idx;
 2590              		.loc 1 124 38 view .LVU723
 2591              	.LBE238:
 2592              	.LBE239:
 2593              	.LBE240:
 2594              	.LBE241:
ARM GAS  C:\Users\DELL\AppData\Local\Temp\ccgExmFy.s 			page 93


 465:SynaptiX_FDK/lib/tinyusb/src/class/cdc/cdc_device.c ****   cdcd_interface_t *p_cdc     = &_cdcd_itf[itf];
 2595              		.loc 1 465 3 is_stmt 1 discriminator 1 view .LVU724
 465:SynaptiX_FDK/lib/tinyusb/src/class/cdc/cdc_device.c ****   cdcd_interface_t *p_cdc     = &_cdcd_itf[itf];
 2596              		.loc 1 465 3 discriminator 1 view .LVU725
 465:SynaptiX_FDK/lib/tinyusb/src/class/cdc/cdc_device.c ****   cdcd_interface_t *p_cdc     = &_cdcd_itf[itf];
 2597              		.loc 1 465 3 discriminator 1 view .LVU726
 465:SynaptiX_FDK/lib/tinyusb/src/class/cdc/cdc_device.c ****   cdcd_interface_t *p_cdc     = &_cdcd_itf[itf];
 2598              		.loc 1 465 3 discriminator 1 view .LVU727
 2599              	.LBB242:
 465:SynaptiX_FDK/lib/tinyusb/src/class/cdc/cdc_device.c ****   cdcd_interface_t *p_cdc     = &_cdcd_itf[itf];
 2600              		.loc 1 465 3 discriminator 1 view .LVU728
 465:SynaptiX_FDK/lib/tinyusb/src/class/cdc/cdc_device.c ****   cdcd_interface_t *p_cdc     = &_cdcd_itf[itf];
 2601              		.loc 1 465 3 view .LVU729
 465:SynaptiX_FDK/lib/tinyusb/src/class/cdc/cdc_device.c ****   cdcd_interface_t *p_cdc     = &_cdcd_itf[itf];
 2602              		.loc 1 465 3 is_stmt 0 discriminator 1 view .LVU730
 2603 0096 4FF0E023 		mov	r3, #-536813568
 2604 009a D3F8F03D 		ldr	r3, [r3, #3568]
 2605 009e 13F0010F 		tst	r3, #1
 2606 00a2 00D0     		beq	.L210
 465:SynaptiX_FDK/lib/tinyusb/src/class/cdc/cdc_device.c ****   cdcd_interface_t *p_cdc     = &_cdcd_itf[itf];
 2607              		.loc 1 465 3 is_stmt 1 discriminator 2 view .LVU731
 2608              		.syntax unified
 2609              	@ 465 "SynaptiX_FDK/lib/tinyusb/src/class/cdc/cdc_device.c" 1
 2610 00a4 00BE     		BKPT #0
 2611              	
 2612              	@ 0 "" 2
 2613              		.thumb
 2614              		.syntax unified
 2615              	.L210:
 2616              	.LBE242:
 465:SynaptiX_FDK/lib/tinyusb/src/class/cdc/cdc_device.c ****   cdcd_interface_t *p_cdc     = &_cdcd_itf[itf];
 2617              		.loc 1 465 3 discriminator 4 view .LVU732
 465:SynaptiX_FDK/lib/tinyusb/src/class/cdc/cdc_device.c ****   cdcd_interface_t *p_cdc     = &_cdcd_itf[itf];
 2618              		.loc 1 465 3 discriminator 4 view .LVU733
 2619 00a6 0020     		movs	r0, #0
 2620              	.LVL255:
 465:SynaptiX_FDK/lib/tinyusb/src/class/cdc/cdc_device.c ****   cdcd_interface_t *p_cdc     = &_cdcd_itf[itf];
 2621              		.loc 1 465 3 is_stmt 0 view .LVU734
 2622 00a8 D8E7     		b	.L211
 2623              	.LVL256:
 2624              	.L229:
 472:SynaptiX_FDK/lib/tinyusb/src/class/cdc/cdc_device.c **** 
 2625              		.loc 1 472 5 is_stmt 1 view .LVU735
 2626              	.LBB243:
 2627              	.LBI243:
 175:SynaptiX_FDK/lib/tinyusb/src/common/tusb_private.h ****   if (s->ep_buf != NULL) {
 2628              		.loc 4 175 6 view .LVU736
 2629              	.LBB244:
 176:SynaptiX_FDK/lib/tinyusb/src/common/tusb_private.h ****     tu_fifo_write_n(&s->ff, s->ep_buf, (uint16_t)xferred_bytes);
 2630              		.loc 4 176 3 view .LVU737
 176:SynaptiX_FDK/lib/tinyusb/src/common/tusb_private.h ****     tu_fifo_write_n(&s->ff, s->ep_buf, (uint16_t)xferred_bytes);
 2631              		.loc 4 176 8 is_stmt 0 view .LVU738
 2632 00aa 384B     		ldr	r3, .L237
 2633 00ac BC22     		movs	r2, #188
 2634              	.LVL257:
 176:SynaptiX_FDK/lib/tinyusb/src/common/tusb_private.h ****     tu_fifo_write_n(&s->ff, s->ep_buf, (uint16_t)xferred_bytes);
 2635              		.loc 4 176 8 view .LVU739
ARM GAS  C:\Users\DELL\AppData\Local\Temp\ccgExmFy.s 			page 94


 2636 00ae 02FB0433 		mla	r3, r2, r4, r3
 2637 00b2 D96A     		ldr	r1, [r3, #44]
 2638              	.LVL258:
 176:SynaptiX_FDK/lib/tinyusb/src/common/tusb_private.h ****     tu_fifo_write_n(&s->ff, s->ep_buf, (uint16_t)xferred_bytes);
 2639              		.loc 4 176 6 view .LVU740
 2640 00b4 51B1     		cbz	r1, .L213
 177:SynaptiX_FDK/lib/tinyusb/src/common/tusb_private.h ****   }
 2641              		.loc 4 177 5 is_stmt 1 view .LVU741
 2642 00b6 1046     		mov	r0, r2
 2643              	.LVL259:
 177:SynaptiX_FDK/lib/tinyusb/src/common/tusb_private.h ****   }
 2644              		.loc 4 177 5 is_stmt 0 view .LVU742
 2645 00b8 04FB00F0 		mul	r0, r4, r0
 2646 00bc 2830     		adds	r0, r0, #40
 2647 00be 334B     		ldr	r3, .L237
 2648 00c0 1844     		add	r0, r0, r3
 2649              	.LVL260:
 2650              	.LBB245:
 2651              	.LBI245:
 224:SynaptiX_FDK/lib/tinyusb/src/common/tusb_fifo.h ****   return tu_fifo_write_n_access_mode(f, data, n, NULL);
 2652              		.loc 6 224 46 is_stmt 1 view .LVU743
 2653              	.LBB246:
 225:SynaptiX_FDK/lib/tinyusb/src/common/tusb_fifo.h **** }
 2654              		.loc 6 225 3 view .LVU744
 225:SynaptiX_FDK/lib/tinyusb/src/common/tusb_fifo.h **** }
 2655              		.loc 6 225 10 is_stmt 0 view .LVU745
 2656 00c2 0023     		movs	r3, #0
 2657 00c4 BAB2     		uxth	r2, r7
 2658 00c6 0830     		adds	r0, r0, #8
 2659              	.LVL261:
 225:SynaptiX_FDK/lib/tinyusb/src/common/tusb_fifo.h **** }
 2660              		.loc 6 225 10 view .LVU746
 2661 00c8 FFF7FEFF 		bl	tu_fifo_write_n_access_mode
 2662              	.LVL262:
 2663              	.L213:
 225:SynaptiX_FDK/lib/tinyusb/src/common/tusb_fifo.h **** }
 2664              		.loc 6 225 10 view .LVU747
 2665              	.LBE246:
 2666              	.LBE245:
 2667              	.LBE244:
 2668              	.LBE243:
 475:SynaptiX_FDK/lib/tinyusb/src/class/cdc/cdc_device.c ****       tu_fifo_buffer_info_t buf_info;
 2669              		.loc 1 475 5 is_stmt 1 view .LVU748
 475:SynaptiX_FDK/lib/tinyusb/src/class/cdc/cdc_device.c ****       tu_fifo_buffer_info_t buf_info;
 2670              		.loc 1 475 28 is_stmt 0 view .LVU749
 2671 00cc 2F4B     		ldr	r3, .L237
 2672 00ce BC22     		movs	r2, #188
 2673 00d0 02FB0933 		mla	r3, r2, r9, r3
 2674 00d4 DB7A     		ldrb	r3, [r3, #11]	@ zero_extendqisi2
 475:SynaptiX_FDK/lib/tinyusb/src/class/cdc/cdc_device.c ****       tu_fifo_buffer_info_t buf_info;
 2675              		.loc 1 475 8 view .LVU750
 2676 00d6 FF2B     		cmp	r3, #255
 2677 00d8 09D1     		bne	.L233
 2678              	.L214:
 508:SynaptiX_FDK/lib/tinyusb/src/class/cdc/cdc_device.c ****       tud_cdc_rx_cb(itf);
 2679              		.loc 1 508 5 is_stmt 1 view .LVU751
 2680              	.LVL263:
ARM GAS  C:\Users\DELL\AppData\Local\Temp\ccgExmFy.s 			page 95


 2681              	.LBB247:
 2682              	.LBI247:
 142:SynaptiX_FDK/lib/tinyusb/src/common/tusb_private.h ****   return tu_fifo_empty(&s->ff);
 2683              		.loc 4 142 42 view .LVU752
 143:SynaptiX_FDK/lib/tinyusb/src/common/tusb_private.h **** }
 2684              		.loc 4 143 3 view .LVU753
 2685              	.LBB248:
 2686              	.LBI248:
 286:SynaptiX_FDK/lib/tinyusb/src/common/tusb_fifo.h ****   const uint16_t wr_idx = f->wr_idx;
 2687              		.loc 6 286 42 view .LVU754
 2688              	.LBB249:
 287:SynaptiX_FDK/lib/tinyusb/src/common/tusb_fifo.h ****   const uint16_t rd_idx = f->rd_idx;
 2689              		.loc 6 287 3 view .LVU755
 287:SynaptiX_FDK/lib/tinyusb/src/common/tusb_fifo.h ****   const uint16_t rd_idx = f->rd_idx;
 2690              		.loc 6 287 18 is_stmt 0 view .LVU756
 2691 00da B28A     		ldrh	r2, [r6, #20]
 2692 00dc 92B2     		uxth	r2, r2
 2693              	.LVL264:
 288:SynaptiX_FDK/lib/tinyusb/src/common/tusb_fifo.h ****   return wr_idx == rd_idx;
 2694              		.loc 6 288 3 is_stmt 1 view .LVU757
 288:SynaptiX_FDK/lib/tinyusb/src/common/tusb_fifo.h ****   return wr_idx == rd_idx;
 2695              		.loc 6 288 18 is_stmt 0 view .LVU758
 2696 00de F38A     		ldrh	r3, [r6, #22]
 2697 00e0 9BB2     		uxth	r3, r3
 2698              	.LVL265:
 289:SynaptiX_FDK/lib/tinyusb/src/common/tusb_fifo.h **** }
 2699              		.loc 6 289 3 is_stmt 1 view .LVU759
 289:SynaptiX_FDK/lib/tinyusb/src/common/tusb_fifo.h **** }
 2700              		.loc 6 289 3 is_stmt 0 view .LVU760
 2701              	.LBE249:
 2702              	.LBE248:
 2703              	.LBE247:
 508:SynaptiX_FDK/lib/tinyusb/src/class/cdc/cdc_device.c ****       tud_cdc_rx_cb(itf);
 2704              		.loc 1 508 8 discriminator 1 view .LVU761
 2705 00e2 9A42     		cmp	r2, r3
 2706 00e4 3AD1     		bne	.L234
 2707              	.L223:
 512:SynaptiX_FDK/lib/tinyusb/src/class/cdc/cdc_device.c ****   }
 2708              		.loc 1 512 5 is_stmt 1 view .LVU762
 2709 00e6 3046     		mov	r0, r6
 2710 00e8 FFF7FEFF 		bl	tu_edpt_stream_read_xfer
 2711              	.LVL266:
 2712 00ec A5E7     		b	.L212
 2713              	.L233:
 2714              	.LBB250:
 476:SynaptiX_FDK/lib/tinyusb/src/class/cdc/cdc_device.c ****       tu_fifo_get_read_info(&stream_rx->ff, &buf_info);
 2715              		.loc 1 476 7 view .LVU763
 477:SynaptiX_FDK/lib/tinyusb/src/class/cdc/cdc_device.c **** 
 2716              		.loc 1 477 7 view .LVU764
 2717 00ee 02FB09F0 		mul	r0, r2, r9
 2718 00f2 2830     		adds	r0, r0, #40
 2719 00f4 254B     		ldr	r3, .L237
 2720 00f6 1844     		add	r0, r0, r3
 2721 00f8 6946     		mov	r1, sp
 2722 00fa 0830     		adds	r0, r0, #8
 2723 00fc FFF7FEFF 		bl	tu_fifo_get_read_info
 2724              	.LVL267:
ARM GAS  C:\Users\DELL\AppData\Local\Temp\ccgExmFy.s 			page 96


 480:SynaptiX_FDK/lib/tinyusb/src/class/cdc/cdc_device.c ****       if (buf_info.wrapped.len > 0) {
 2725              		.loc 1 480 7 view .LVU765
 481:SynaptiX_FDK/lib/tinyusb/src/class/cdc/cdc_device.c ****         ptr = buf_info.wrapped.ptr + buf_info.wrapped.len - 1; // last byte of wrap buffer
 2726              		.loc 1 481 7 view .LVU766
 481:SynaptiX_FDK/lib/tinyusb/src/class/cdc/cdc_device.c ****         ptr = buf_info.wrapped.ptr + buf_info.wrapped.len - 1; // last byte of wrap buffer
 2727              		.loc 1 481 27 is_stmt 0 view .LVU767
 2728 0100 BDF80830 		ldrh	r3, [sp, #8]
 481:SynaptiX_FDK/lib/tinyusb/src/class/cdc/cdc_device.c ****         ptr = buf_info.wrapped.ptr + buf_info.wrapped.len - 1; // last byte of wrap buffer
 2729              		.loc 1 481 10 view .LVU768
 2730 0104 33B1     		cbz	r3, .L215
 482:SynaptiX_FDK/lib/tinyusb/src/class/cdc/cdc_device.c ****       } else if (buf_info.linear.len > 0) {
 2731              		.loc 1 482 9 is_stmt 1 view .LVU769
 482:SynaptiX_FDK/lib/tinyusb/src/class/cdc/cdc_device.c ****       } else if (buf_info.linear.len > 0) {
 2732              		.loc 1 482 59 is_stmt 0 view .LVU770
 2733 0106 013B     		subs	r3, r3, #1
 482:SynaptiX_FDK/lib/tinyusb/src/class/cdc/cdc_device.c ****       } else if (buf_info.linear.len > 0) {
 2734              		.loc 1 482 13 view .LVU771
 2735 0108 039A     		ldr	r2, [sp, #12]
 2736 010a 1344     		add	r3, r3, r2
 2737              	.LVL268:
 2738              	.L216:
 489:SynaptiX_FDK/lib/tinyusb/src/class/cdc/cdc_device.c ****         for (uint32_t i = 0; i < xferred_bytes; i++) {
 2739              		.loc 1 489 7 is_stmt 1 view .LVU772
 489:SynaptiX_FDK/lib/tinyusb/src/class/cdc/cdc_device.c ****         for (uint32_t i = 0; i < xferred_bytes; i++) {
 2740              		.loc 1 489 10 is_stmt 0 view .LVU773
 2741 010c 002B     		cmp	r3, #0
 2742 010e E4D0     		beq	.L214
 2743              	.LBB251:
 490:SynaptiX_FDK/lib/tinyusb/src/class/cdc/cdc_device.c ****           if (p_cdc->wanted_char == (char)*ptr) {
 2744              		.loc 1 490 23 view .LVU774
 2745 0110 0020     		movs	r0, #0
 2746 0112 11E0     		b	.L218
 2747              	.LVL269:
 2748              	.L215:
 490:SynaptiX_FDK/lib/tinyusb/src/class/cdc/cdc_device.c ****           if (p_cdc->wanted_char == (char)*ptr) {
 2749              		.loc 1 490 23 view .LVU775
 2750              	.LBE251:
 483:SynaptiX_FDK/lib/tinyusb/src/class/cdc/cdc_device.c ****         ptr = buf_info.linear.ptr + buf_info.linear.len - 1;   // last byte of linear buffer
 2751              		.loc 1 483 14 is_stmt 1 view .LVU776
 483:SynaptiX_FDK/lib/tinyusb/src/class/cdc/cdc_device.c ****         ptr = buf_info.linear.ptr + buf_info.linear.len - 1;   // last byte of linear buffer
 2752              		.loc 1 483 33 is_stmt 0 view .LVU777
 2753 0114 BDF80030 		ldrh	r3, [sp]
 483:SynaptiX_FDK/lib/tinyusb/src/class/cdc/cdc_device.c ****         ptr = buf_info.linear.ptr + buf_info.linear.len - 1;   // last byte of linear buffer
 2754              		.loc 1 483 17 view .LVU778
 2755 0118 002B     		cmp	r3, #0
 2756 011a DED0     		beq	.L214
 484:SynaptiX_FDK/lib/tinyusb/src/class/cdc/cdc_device.c ****       } else {
 2757              		.loc 1 484 9 is_stmt 1 view .LVU779
 484:SynaptiX_FDK/lib/tinyusb/src/class/cdc/cdc_device.c ****       } else {
 2758              		.loc 1 484 57 is_stmt 0 view .LVU780
 2759 011c 013B     		subs	r3, r3, #1
 484:SynaptiX_FDK/lib/tinyusb/src/class/cdc/cdc_device.c ****       } else {
 2760              		.loc 1 484 13 view .LVU781
 2761 011e 019A     		ldr	r2, [sp, #4]
 2762 0120 1344     		add	r3, r3, r2
 2763 0122 F3E7     		b	.L216
 2764              	.LVL270:
ARM GAS  C:\Users\DELL\AppData\Local\Temp\ccgExmFy.s 			page 97


 2765              	.L235:
 2766              	.LBB252:
 492:SynaptiX_FDK/lib/tinyusb/src/class/cdc/cdc_device.c ****             break; // only invoke once per transfer, even if multiple wanted chars are present
 2767              		.loc 1 492 13 is_stmt 1 view .LVU782
 2768 0124 2046     		mov	r0, r4
 2769              	.LVL271:
 492:SynaptiX_FDK/lib/tinyusb/src/class/cdc/cdc_device.c ****             break; // only invoke once per transfer, even if multiple wanted chars are present
 2770              		.loc 1 492 13 is_stmt 0 view .LVU783
 2771 0126 FFF7FEFF 		bl	tud_cdc_rx_wanted_cb
 2772              	.LVL272:
 493:SynaptiX_FDK/lib/tinyusb/src/class/cdc/cdc_device.c ****           }
 2773              		.loc 1 493 13 is_stmt 1 view .LVU784
 2774 012a D6E7     		b	.L214
 2775              	.LVL273:
 2776              	.L236:
 497:SynaptiX_FDK/lib/tinyusb/src/class/cdc/cdc_device.c ****           } else if (ptr == buf_info.linear.ptr) {
 2777              		.loc 1 497 13 view .LVU785
 497:SynaptiX_FDK/lib/tinyusb/src/class/cdc/cdc_device.c ****           } else if (ptr == buf_info.linear.ptr) {
 2778              		.loc 1 497 56 is_stmt 0 view .LVU786
 2779 012c BDF80020 		ldrh	r2, [sp]
 497:SynaptiX_FDK/lib/tinyusb/src/class/cdc/cdc_device.c ****           } else if (ptr == buf_info.linear.ptr) {
 2780              		.loc 1 497 61 view .LVU787
 2781 0130 013A     		subs	r2, r2, #1
 497:SynaptiX_FDK/lib/tinyusb/src/class/cdc/cdc_device.c ****           } else if (ptr == buf_info.linear.ptr) {
 2782              		.loc 1 497 17 view .LVU788
 2783 0132 019B     		ldr	r3, [sp, #4]
 2784              	.LVL274:
 497:SynaptiX_FDK/lib/tinyusb/src/class/cdc/cdc_device.c ****           } else if (ptr == buf_info.linear.ptr) {
 2785              		.loc 1 497 17 view .LVU789
 2786 0134 1344     		add	r3, r3, r2
 2787              	.LVL275:
 2788              	.L221:
 490:SynaptiX_FDK/lib/tinyusb/src/class/cdc/cdc_device.c ****           if (p_cdc->wanted_char == (char)*ptr) {
 2789              		.loc 1 490 50 is_stmt 1 discriminator 2 view .LVU790
 2790 0136 0130     		adds	r0, r0, #1
 2791              	.LVL276:
 2792              	.L218:
 490:SynaptiX_FDK/lib/tinyusb/src/class/cdc/cdc_device.c ****           if (p_cdc->wanted_char == (char)*ptr) {
 2793              		.loc 1 490 32 discriminator 1 view .LVU791
 2794 0138 B842     		cmp	r0, r7
 2795 013a CED2     		bcs	.L214
 491:SynaptiX_FDK/lib/tinyusb/src/class/cdc/cdc_device.c ****             tud_cdc_rx_wanted_cb(itf, p_cdc->wanted_char);
 2796              		.loc 1 491 11 view .LVU792
 491:SynaptiX_FDK/lib/tinyusb/src/class/cdc/cdc_device.c ****             tud_cdc_rx_wanted_cb(itf, p_cdc->wanted_char);
 2797              		.loc 1 491 20 is_stmt 0 view .LVU793
 2798 013c 134A     		ldr	r2, .L237
 2799 013e BC21     		movs	r1, #188
 2800 0140 01FB0922 		mla	r2, r1, r9, r2
 2801 0144 D17A     		ldrb	r1, [r2, #11]	@ zero_extendqisi2
 491:SynaptiX_FDK/lib/tinyusb/src/class/cdc/cdc_device.c ****             tud_cdc_rx_wanted_cb(itf, p_cdc->wanted_char);
 2802              		.loc 1 491 34 view .LVU794
 2803 0146 1A78     		ldrb	r2, [r3]	@ zero_extendqisi2
 491:SynaptiX_FDK/lib/tinyusb/src/class/cdc/cdc_device.c ****             tud_cdc_rx_wanted_cb(itf, p_cdc->wanted_char);
 2804              		.loc 1 491 14 view .LVU795
 2805 0148 9142     		cmp	r1, r2
 2806 014a EBD0     		beq	.L235
 496:SynaptiX_FDK/lib/tinyusb/src/class/cdc/cdc_device.c ****             ptr = buf_info.linear.ptr + buf_info.linear.len - 1; // last byte of linear buffer
ARM GAS  C:\Users\DELL\AppData\Local\Temp\ccgExmFy.s 			page 98


 2807              		.loc 1 496 11 is_stmt 1 view .LVU796
 496:SynaptiX_FDK/lib/tinyusb/src/class/cdc/cdc_device.c ****             ptr = buf_info.linear.ptr + buf_info.linear.len - 1; // last byte of linear buffer
 2808              		.loc 1 496 38 is_stmt 0 view .LVU797
 2809 014c 039A     		ldr	r2, [sp, #12]
 496:SynaptiX_FDK/lib/tinyusb/src/class/cdc/cdc_device.c ****             ptr = buf_info.linear.ptr + buf_info.linear.len - 1; // last byte of linear buffer
 2810              		.loc 1 496 14 view .LVU798
 2811 014e 9A42     		cmp	r2, r3
 2812 0150 ECD0     		beq	.L236
 498:SynaptiX_FDK/lib/tinyusb/src/class/cdc/cdc_device.c ****             break;                                         // reached the beginning
 2813              		.loc 1 498 18 is_stmt 1 view .LVU799
 498:SynaptiX_FDK/lib/tinyusb/src/class/cdc/cdc_device.c ****             break;                                         // reached the beginning
 2814              		.loc 1 498 44 is_stmt 0 view .LVU800
 2815 0152 019A     		ldr	r2, [sp, #4]
 498:SynaptiX_FDK/lib/tinyusb/src/class/cdc/cdc_device.c ****             break;                                         // reached the beginning
 2816              		.loc 1 498 21 view .LVU801
 2817 0154 9A42     		cmp	r2, r3
 2818 0156 C0D0     		beq	.L214
 501:SynaptiX_FDK/lib/tinyusb/src/class/cdc/cdc_device.c ****           }
 2819              		.loc 1 501 13 is_stmt 1 view .LVU802
 501:SynaptiX_FDK/lib/tinyusb/src/class/cdc/cdc_device.c ****           }
 2820              		.loc 1 501 16 is_stmt 0 view .LVU803
 2821 0158 013B     		subs	r3, r3, #1
 2822              	.LVL277:
 501:SynaptiX_FDK/lib/tinyusb/src/class/cdc/cdc_device.c ****           }
 2823              		.loc 1 501 16 view .LVU804
 2824 015a ECE7     		b	.L221
 2825              	.LVL278:
 2826              	.L234:
 501:SynaptiX_FDK/lib/tinyusb/src/class/cdc/cdc_device.c ****           }
 2827              		.loc 1 501 16 view .LVU805
 2828              	.LBE252:
 2829              	.LBE250:
 509:SynaptiX_FDK/lib/tinyusb/src/class/cdc/cdc_device.c ****     }
 2830              		.loc 1 509 7 is_stmt 1 view .LVU806
 2831 015c 2046     		mov	r0, r4
 2832 015e FFF7FEFF 		bl	tud_cdc_rx_cb
 2833              	.LVL279:
 2834 0162 C0E7     		b	.L223
 2835              	.L230:
 518:SynaptiX_FDK/lib/tinyusb/src/class/cdc/cdc_device.c **** 
 2836              		.loc 1 518 5 view .LVU807
 2837 0164 2046     		mov	r0, r4
 2838 0166 FFF7FEFF 		bl	tud_cdc_tx_complete_cb
 2839              	.LVL280:
 520:SynaptiX_FDK/lib/tinyusb/src/class/cdc/cdc_device.c ****       // If there is no data left, a ZLP should be sent if needed
 2840              		.loc 1 520 5 view .LVU808
 520:SynaptiX_FDK/lib/tinyusb/src/class/cdc/cdc_device.c ****       // If there is no data left, a ZLP should be sent if needed
 2841              		.loc 1 520 14 is_stmt 0 view .LVU809
 2842 016a 4046     		mov	r0, r8
 2843 016c FFF7FEFF 		bl	tu_edpt_stream_write_xfer
 2844              	.LVL281:
 520:SynaptiX_FDK/lib/tinyusb/src/class/cdc/cdc_device.c ****       // If there is no data left, a ZLP should be sent if needed
 2845              		.loc 1 520 8 discriminator 1 view .LVU810
 2846 0170 0028     		cmp	r0, #0
 2847 0172 7FF46AAF 		bne	.L224
 522:SynaptiX_FDK/lib/tinyusb/src/class/cdc/cdc_device.c ****     }
 2848              		.loc 1 522 7 is_stmt 1 view .LVU811
ARM GAS  C:\Users\DELL\AppData\Local\Temp\ccgExmFy.s 			page 99


 2849 0176 3946     		mov	r1, r7
 2850 0178 4046     		mov	r0, r8
 2851 017a FFF7FEFF 		bl	tu_edpt_stream_write_zlp_if_needed
 2852              	.LVL282:
 2853 017e 64E7     		b	.L224
 2854              	.L231:
 528:SynaptiX_FDK/lib/tinyusb/src/class/cdc/cdc_device.c ****   }
 2855              		.loc 1 528 5 view .LVU812
 2856 0180 2046     		mov	r0, r4
 2857 0182 FFF7FEFF 		bl	tud_cdc_notify_complete_cb
 2858              	.LVL283:
 531:SynaptiX_FDK/lib/tinyusb/src/class/cdc/cdc_device.c **** }
 2859              		.loc 1 531 10 is_stmt 0 view .LVU813
 2860 0186 0120     		movs	r0, #1
 2861 0188 68E7     		b	.L211
 2862              	.L238:
 2863 018a 00BF     		.align	2
 2864              	.L237:
 2865 018c 00000000 		.word	_cdcd_itf
 2866              		.cfi_endproc
 2867              	.LFE471:
 2869              		.section	.bss._cdcd_itf,"aw",%nobits
 2870              		.align	2
 2873              	_cdcd_itf:
 2874 0000 00000000 		.space	188
 2874      00000000 
 2874      00000000 
 2874      00000000 
 2874      00000000 
 2875              		.text
 2876              	.Letext0:
 2877              		.file 8 "D:\\stm32cubeclt\\STM32CubeCLT_1.21.0\\GNU-tools-for-STM32\\bin\\../lib/gcc/arm-none-eabi
 2878              		.file 9 "D:\\stm32cubeclt\\STM32CubeCLT_1.21.0\\GNU-tools-for-STM32\\bin\\../lib/gcc/arm-none-eabi
 2879              		.file 10 "Drivers/STM32H5xx_HAL_Driver/Inc/stm32h5xx_ll_lptim.h"
 2880              		.file 11 "SynaptiX_FDK/lib/tinyusb/src/class/cdc/cdc.h"
 2881              		.file 12 "SynaptiX_FDK/lib/tinyusb/src/device/usbd_pvt.h"
 2882              		.file 13 "D:\\stm32cubeclt\\STM32CubeCLT_1.21.0\\GNU-tools-for-STM32\\bin\\../lib/gcc/arm-none-eab
 2883              		.file 14 "Drivers/STM32H5xx_HAL_Driver/Inc/stm32h5xx_hal.h"
 2884              		.file 15 "<built-in>"
ARM GAS  C:\Users\DELL\AppData\Local\Temp\ccgExmFy.s 			page 100


DEFINED SYMBOLS
                            *ABS*:00000000 cdc_device.c
C:\Users\DELL\AppData\Local\Temp\ccgExmFy.s:22     .text.sx_gettick:00000000 $t
C:\Users\DELL\AppData\Local\Temp\ccgExmFy.s:28     .text.sx_gettick:00000000 sx_gettick
C:\Users\DELL\AppData\Local\Temp\ccgExmFy.s:50     .text.tud_cdc_rx_cb:00000000 $t
C:\Users\DELL\AppData\Local\Temp\ccgExmFy.s:56     .text.tud_cdc_rx_cb:00000000 tud_cdc_rx_cb
C:\Users\DELL\AppData\Local\Temp\ccgExmFy.s:71     .text.tud_cdc_rx_wanted_cb:00000000 $t
C:\Users\DELL\AppData\Local\Temp\ccgExmFy.s:77     .text.tud_cdc_rx_wanted_cb:00000000 tud_cdc_rx_wanted_cb
C:\Users\DELL\AppData\Local\Temp\ccgExmFy.s:93     .text.tud_cdc_tx_complete_cb:00000000 $t
C:\Users\DELL\AppData\Local\Temp\ccgExmFy.s:99     .text.tud_cdc_tx_complete_cb:00000000 tud_cdc_tx_complete_cb
C:\Users\DELL\AppData\Local\Temp\ccgExmFy.s:114    .text.tud_cdc_notify_complete_cb:00000000 $t
C:\Users\DELL\AppData\Local\Temp\ccgExmFy.s:120    .text.tud_cdc_notify_complete_cb:00000000 tud_cdc_notify_complete_cb
C:\Users\DELL\AppData\Local\Temp\ccgExmFy.s:135    .text.tud_cdc_line_state_cb:00000000 $t
C:\Users\DELL\AppData\Local\Temp\ccgExmFy.s:141    .text.tud_cdc_line_state_cb:00000000 tud_cdc_line_state_cb
C:\Users\DELL\AppData\Local\Temp\ccgExmFy.s:158    .text.tud_cdc_line_coding_cb:00000000 $t
C:\Users\DELL\AppData\Local\Temp\ccgExmFy.s:164    .text.tud_cdc_line_coding_cb:00000000 tud_cdc_line_coding_cb
C:\Users\DELL\AppData\Local\Temp\ccgExmFy.s:180    .text.tud_cdc_send_break_cb:00000000 $t
C:\Users\DELL\AppData\Local\Temp\ccgExmFy.s:186    .text.tud_cdc_send_break_cb:00000000 tud_cdc_send_break_cb
C:\Users\DELL\AppData\Local\Temp\ccgExmFy.s:202    .text.tud_cdc_n_ready:00000000 $t
C:\Users\DELL\AppData\Local\Temp\ccgExmFy.s:208    .text.tud_cdc_n_ready:00000000 tud_cdc_n_ready
C:\Users\DELL\AppData\Local\Temp\ccgExmFy.s:324    .text.tud_cdc_n_ready:00000040 $d
C:\Users\DELL\AppData\Local\Temp\ccgExmFy.s:2873   .bss._cdcd_itf:00000000 _cdcd_itf
C:\Users\DELL\AppData\Local\Temp\ccgExmFy.s:329    .text.tud_cdc_n_connected:00000000 $t
C:\Users\DELL\AppData\Local\Temp\ccgExmFy.s:335    .text.tud_cdc_n_connected:00000000 tud_cdc_n_connected
C:\Users\DELL\AppData\Local\Temp\ccgExmFy.s:424    .text.tud_cdc_n_connected:00000030 $d
C:\Users\DELL\AppData\Local\Temp\ccgExmFy.s:429    .text.tud_cdc_n_get_line_state:00000000 $t
C:\Users\DELL\AppData\Local\Temp\ccgExmFy.s:435    .text.tud_cdc_n_get_line_state:00000000 tud_cdc_n_get_line_state
C:\Users\DELL\AppData\Local\Temp\ccgExmFy.s:466    .text.tud_cdc_n_get_line_state:00000014 $d
C:\Users\DELL\AppData\Local\Temp\ccgExmFy.s:471    .text.tud_cdc_n_get_line_coding:00000000 $t
C:\Users\DELL\AppData\Local\Temp\ccgExmFy.s:477    .text.tud_cdc_n_get_line_coding:00000000 tud_cdc_n_get_line_coding
C:\Users\DELL\AppData\Local\Temp\ccgExmFy.s:511    .text.tud_cdc_n_get_line_coding:0000001c $d
C:\Users\DELL\AppData\Local\Temp\ccgExmFy.s:516    .text.tud_cdc_n_set_wanted_char:00000000 $t
C:\Users\DELL\AppData\Local\Temp\ccgExmFy.s:522    .text.tud_cdc_n_set_wanted_char:00000000 tud_cdc_n_set_wanted_char
C:\Users\DELL\AppData\Local\Temp\ccgExmFy.s:549    .text.tud_cdc_n_set_wanted_char:00000010 $d
C:\Users\DELL\AppData\Local\Temp\ccgExmFy.s:554    .text.tud_cdc_n_available:00000000 $t
C:\Users\DELL\AppData\Local\Temp\ccgExmFy.s:560    .text.tud_cdc_n_available:00000000 tud_cdc_n_available
C:\Users\DELL\AppData\Local\Temp\ccgExmFy.s:677    .text.tud_cdc_n_available:00000038 $d
C:\Users\DELL\AppData\Local\Temp\ccgExmFy.s:682    .text.tud_cdc_n_read:00000000 $t
C:\Users\DELL\AppData\Local\Temp\ccgExmFy.s:688    .text.tud_cdc_n_read:00000000 tud_cdc_n_read
C:\Users\DELL\AppData\Local\Temp\ccgExmFy.s:734    .text.tud_cdc_n_read:00000020 $d
C:\Users\DELL\AppData\Local\Temp\ccgExmFy.s:739    .text.tud_cdc_n_peek:00000000 $t
C:\Users\DELL\AppData\Local\Temp\ccgExmFy.s:745    .text.tud_cdc_n_peek:00000000 tud_cdc_n_peek
C:\Users\DELL\AppData\Local\Temp\ccgExmFy.s:795    .text.tud_cdc_n_peek:0000001c $d
C:\Users\DELL\AppData\Local\Temp\ccgExmFy.s:800    .text.tud_cdc_n_read_flush:00000000 $t
C:\Users\DELL\AppData\Local\Temp\ccgExmFy.s:806    .text.tud_cdc_n_read_flush:00000000 tud_cdc_n_read_flush
C:\Users\DELL\AppData\Local\Temp\ccgExmFy.s:859    .text.tud_cdc_n_read_flush:00000028 $d
C:\Users\DELL\AppData\Local\Temp\ccgExmFy.s:864    .text.tud_cdc_n_write:00000000 $t
C:\Users\DELL\AppData\Local\Temp\ccgExmFy.s:870    .text.tud_cdc_n_write:00000000 tud_cdc_n_write
C:\Users\DELL\AppData\Local\Temp\ccgExmFy.s:916    .text.tud_cdc_n_write:00000020 $d
C:\Users\DELL\AppData\Local\Temp\ccgExmFy.s:921    .text.tud_cdc_n_write_flush:00000000 $t
C:\Users\DELL\AppData\Local\Temp\ccgExmFy.s:927    .text.tud_cdc_n_write_flush:00000000 tud_cdc_n_write_flush
C:\Users\DELL\AppData\Local\Temp\ccgExmFy.s:970    .text.tud_cdc_n_write_flush:0000001c $d
C:\Users\DELL\AppData\Local\Temp\ccgExmFy.s:975    .text.tud_cdc_n_write_available:00000000 $t
C:\Users\DELL\AppData\Local\Temp\ccgExmFy.s:981    .text.tud_cdc_n_write_available:00000000 tud_cdc_n_write_available
C:\Users\DELL\AppData\Local\Temp\ccgExmFy.s:1024   .text.tud_cdc_n_write_available:0000001c $d
C:\Users\DELL\AppData\Local\Temp\ccgExmFy.s:1029   .text.tud_cdc_n_write_clear:00000000 $t
C:\Users\DELL\AppData\Local\Temp\ccgExmFy.s:1035   .text.tud_cdc_n_write_clear:00000000 tud_cdc_n_write_clear
ARM GAS  C:\Users\DELL\AppData\Local\Temp\ccgExmFy.s 			page 101


C:\Users\DELL\AppData\Local\Temp\ccgExmFy.s:1088   .text.tud_cdc_n_write_clear:00000020 $d
C:\Users\DELL\AppData\Local\Temp\ccgExmFy.s:1093   .text.cdcd_init:00000000 $t
C:\Users\DELL\AppData\Local\Temp\ccgExmFy.s:1099   .text.cdcd_init:00000000 cdcd_init
C:\Users\DELL\AppData\Local\Temp\ccgExmFy.s:1224   .text.cdcd_init:00000084 $d
C:\Users\DELL\AppData\Local\Temp\ccgExmFy.s:1230   .text.cdcd_deinit:00000000 $t
C:\Users\DELL\AppData\Local\Temp\ccgExmFy.s:1236   .text.cdcd_deinit:00000000 cdcd_deinit
C:\Users\DELL\AppData\Local\Temp\ccgExmFy.s:1277   .text.cdcd_reset:00000000 $t
C:\Users\DELL\AppData\Local\Temp\ccgExmFy.s:1283   .text.cdcd_reset:00000000 cdcd_reset
C:\Users\DELL\AppData\Local\Temp\ccgExmFy.s:1367   .text.cdcd_reset:00000030 $d
C:\Users\DELL\AppData\Local\Temp\ccgExmFy.s:1373   .text.cdcd_open:00000000 $t
C:\Users\DELL\AppData\Local\Temp\ccgExmFy.s:1379   .text.cdcd_open:00000000 cdcd_open
C:\Users\DELL\AppData\Local\Temp\ccgExmFy.s:2099   .text.cdcd_open:000001d4 $d
C:\Users\DELL\AppData\Local\Temp\ccgExmFy.s:2104   .text.cdcd_control_xfer_cb:00000000 $t
C:\Users\DELL\AppData\Local\Temp\ccgExmFy.s:2110   .text.cdcd_control_xfer_cb:00000000 cdcd_control_xfer_cb
C:\Users\DELL\AppData\Local\Temp\ccgExmFy.s:2153   .text.cdcd_control_xfer_cb:00000024 $d
C:\Users\DELL\AppData\Local\Temp\ccgExmFy.s:2157   .text.cdcd_control_xfer_cb:00000028 $t
C:\Users\DELL\AppData\Local\Temp\ccgExmFy.s:2406   .text.cdcd_control_xfer_cb:000000f4 $d
C:\Users\DELL\AppData\Local\Temp\ccgExmFy.s:2411   .text.cdcd_xfer_cb:00000000 $t
C:\Users\DELL\AppData\Local\Temp\ccgExmFy.s:2417   .text.cdcd_xfer_cb:00000000 cdcd_xfer_cb
C:\Users\DELL\AppData\Local\Temp\ccgExmFy.s:2865   .text.cdcd_xfer_cb:0000018c $d
C:\Users\DELL\AppData\Local\Temp\ccgExmFy.s:2870   .bss._cdcd_itf:00000000 $d

UNDEFINED SYMBOLS
HAL_GetTick
tud_mounted
tud_suspended
tu_edpt_stream_read
tu_fifo_peek
tu_fifo_clear
tu_edpt_stream_read_xfer
tu_edpt_stream_write
tu_edpt_stream_write_xfer
tu_edpt_stream_write_available
memset
tu_edpt_stream_init
tu_fifo_set_overwritable
usbd_edpt_open
tud_control_xfer
tud_control_status
tu_fifo_write_n_access_mode
tu_fifo_get_read_info
tu_edpt_stream_write_zlp_if_needed
