ARM GAS  C:\Users\DELL\AppData\Local\Temp\ccXjhdgA.s 			page 1


   1              		.cpu cortex-m33
   2              		.arch armv8-m.main
   3              		.fpu fpv5-sp-d16
   4              		.arch_extension dsp
   5              		.eabi_attribute 27, 1
   6              		.eabi_attribute 28, 1
   7              		.eabi_attribute 20, 1
   8              		.eabi_attribute 21, 1
   9              		.eabi_attribute 23, 3
  10              		.eabi_attribute 24, 1
  11              		.eabi_attribute 25, 1
  12              		.eabi_attribute 26, 1
  13              		.eabi_attribute 30, 1
  14              		.eabi_attribute 34, 1
  15              		.eabi_attribute 18, 4
  16              		.file	"cJSON.c"
  17              		.text
  18              	.Ltext0:
  19              		.cfi_sections	.debug_frame
  20              		.file 1 "SynaptiX_FDK/services/cJSON/cJSON.c"
  21              		.section	.text.case_insensitive_strcmp,"ax",%progbits
  22              		.align	1
  23              		.syntax unified
  24              		.thumb
  25              		.thumb_func
  27              	case_insensitive_strcmp:
  28              	.LVL0:
  29              	.LFB8:
   1:SynaptiX_FDK/services/cJSON/cJSON.c **** /*
   2:SynaptiX_FDK/services/cJSON/cJSON.c ****   Copyright (c) 2009-2017 Dave Gamble and cJSON contributors
   3:SynaptiX_FDK/services/cJSON/cJSON.c **** 
   4:SynaptiX_FDK/services/cJSON/cJSON.c ****   Permission is hereby granted, free of charge, to any person obtaining a copy
   5:SynaptiX_FDK/services/cJSON/cJSON.c ****   of this software and associated documentation files (the "Software"), to deal
   6:SynaptiX_FDK/services/cJSON/cJSON.c ****   in the Software without restriction, including without limitation the rights
   7:SynaptiX_FDK/services/cJSON/cJSON.c ****   to use, copy, modify, merge, publish, distribute, sublicense, and/or sell
   8:SynaptiX_FDK/services/cJSON/cJSON.c ****   copies of the Software, and to permit persons to whom the Software is
   9:SynaptiX_FDK/services/cJSON/cJSON.c ****   furnished to do so, subject to the following conditions:
  10:SynaptiX_FDK/services/cJSON/cJSON.c **** 
  11:SynaptiX_FDK/services/cJSON/cJSON.c ****   The above copyright notice and this permission notice shall be included in
  12:SynaptiX_FDK/services/cJSON/cJSON.c ****   all copies or substantial portions of the Software.
  13:SynaptiX_FDK/services/cJSON/cJSON.c **** 
  14:SynaptiX_FDK/services/cJSON/cJSON.c ****   THE SOFTWARE IS PROVIDED "AS IS", WITHOUT WARRANTY OF ANY KIND, EXPRESS OR
  15:SynaptiX_FDK/services/cJSON/cJSON.c ****   IMPLIED, INCLUDING BUT NOT LIMITED TO THE WARRANTIES OF MERCHANTABILITY,
  16:SynaptiX_FDK/services/cJSON/cJSON.c ****   FITNESS FOR A PARTICULAR PURPOSE AND NONINFRINGEMENT. IN NO EVENT SHALL THE
  17:SynaptiX_FDK/services/cJSON/cJSON.c ****   AUTHORS OR COPYRIGHT HOLDERS BE LIABLE FOR ANY CLAIM, DAMAGES OR OTHER
  18:SynaptiX_FDK/services/cJSON/cJSON.c ****   LIABILITY, WHETHER IN AN ACTION OF CONTRACT, TORT OR OTHERWISE, ARISING FROM,
  19:SynaptiX_FDK/services/cJSON/cJSON.c ****   OUT OF OR IN CONNECTION WITH THE SOFTWARE OR THE USE OR OTHER DEALINGS IN
  20:SynaptiX_FDK/services/cJSON/cJSON.c ****   THE SOFTWARE.
  21:SynaptiX_FDK/services/cJSON/cJSON.c **** */
  22:SynaptiX_FDK/services/cJSON/cJSON.c **** 
  23:SynaptiX_FDK/services/cJSON/cJSON.c **** /* cJSON */
  24:SynaptiX_FDK/services/cJSON/cJSON.c **** /* JSON parser in C. */
  25:SynaptiX_FDK/services/cJSON/cJSON.c **** 
  26:SynaptiX_FDK/services/cJSON/cJSON.c **** /* disable warnings about old C89 functions in MSVC */
  27:SynaptiX_FDK/services/cJSON/cJSON.c **** #if !defined(_CRT_SECURE_NO_DEPRECATE) && defined(_MSC_VER)
  28:SynaptiX_FDK/services/cJSON/cJSON.c **** #define _CRT_SECURE_NO_DEPRECATE
  29:SynaptiX_FDK/services/cJSON/cJSON.c **** #endif
ARM GAS  C:\Users\DELL\AppData\Local\Temp\ccXjhdgA.s 			page 2


  30:SynaptiX_FDK/services/cJSON/cJSON.c **** 
  31:SynaptiX_FDK/services/cJSON/cJSON.c **** #ifdef __GNUC__
  32:SynaptiX_FDK/services/cJSON/cJSON.c **** #pragma GCC visibility push(default)
  33:SynaptiX_FDK/services/cJSON/cJSON.c **** #endif
  34:SynaptiX_FDK/services/cJSON/cJSON.c **** #if defined(_MSC_VER)
  35:SynaptiX_FDK/services/cJSON/cJSON.c **** #pragma warning (push)
  36:SynaptiX_FDK/services/cJSON/cJSON.c **** /* disable warning about single line comments in system headers */
  37:SynaptiX_FDK/services/cJSON/cJSON.c **** #pragma warning (disable : 4001)
  38:SynaptiX_FDK/services/cJSON/cJSON.c **** #endif
  39:SynaptiX_FDK/services/cJSON/cJSON.c **** 
  40:SynaptiX_FDK/services/cJSON/cJSON.c **** #include <string.h>
  41:SynaptiX_FDK/services/cJSON/cJSON.c **** #include <stdio.h>
  42:SynaptiX_FDK/services/cJSON/cJSON.c **** #include <math.h>
  43:SynaptiX_FDK/services/cJSON/cJSON.c **** #include <stdlib.h>
  44:SynaptiX_FDK/services/cJSON/cJSON.c **** #include <limits.h>
  45:SynaptiX_FDK/services/cJSON/cJSON.c **** #include <ctype.h>
  46:SynaptiX_FDK/services/cJSON/cJSON.c **** #include <float.h>
  47:SynaptiX_FDK/services/cJSON/cJSON.c **** 
  48:SynaptiX_FDK/services/cJSON/cJSON.c **** #ifdef ENABLE_LOCALES
  49:SynaptiX_FDK/services/cJSON/cJSON.c **** #include <locale.h>
  50:SynaptiX_FDK/services/cJSON/cJSON.c **** #endif
  51:SynaptiX_FDK/services/cJSON/cJSON.c **** 
  52:SynaptiX_FDK/services/cJSON/cJSON.c **** #if defined(_MSC_VER)
  53:SynaptiX_FDK/services/cJSON/cJSON.c **** #pragma warning (pop)
  54:SynaptiX_FDK/services/cJSON/cJSON.c **** #endif
  55:SynaptiX_FDK/services/cJSON/cJSON.c **** #ifdef __GNUC__
  56:SynaptiX_FDK/services/cJSON/cJSON.c **** #pragma GCC visibility pop
  57:SynaptiX_FDK/services/cJSON/cJSON.c **** #endif
  58:SynaptiX_FDK/services/cJSON/cJSON.c **** 
  59:SynaptiX_FDK/services/cJSON/cJSON.c **** #include "cJSON.h"
  60:SynaptiX_FDK/services/cJSON/cJSON.c **** 
  61:SynaptiX_FDK/services/cJSON/cJSON.c **** /* define our own boolean type */
  62:SynaptiX_FDK/services/cJSON/cJSON.c **** #ifdef true
  63:SynaptiX_FDK/services/cJSON/cJSON.c **** #undef true
  64:SynaptiX_FDK/services/cJSON/cJSON.c **** #endif
  65:SynaptiX_FDK/services/cJSON/cJSON.c **** #define true ((cJSON_bool)1)
  66:SynaptiX_FDK/services/cJSON/cJSON.c **** 
  67:SynaptiX_FDK/services/cJSON/cJSON.c **** #ifdef false
  68:SynaptiX_FDK/services/cJSON/cJSON.c **** #undef false
  69:SynaptiX_FDK/services/cJSON/cJSON.c **** #endif
  70:SynaptiX_FDK/services/cJSON/cJSON.c **** #define false ((cJSON_bool)0)
  71:SynaptiX_FDK/services/cJSON/cJSON.c **** 
  72:SynaptiX_FDK/services/cJSON/cJSON.c **** /* define isnan and isinf for ANSI C, if in C99 or above, isnan and isinf has been defined in math.
  73:SynaptiX_FDK/services/cJSON/cJSON.c **** #ifndef isinf
  74:SynaptiX_FDK/services/cJSON/cJSON.c **** #define isinf(d) (isnan((d - d)) && !isnan(d))
  75:SynaptiX_FDK/services/cJSON/cJSON.c **** #endif
  76:SynaptiX_FDK/services/cJSON/cJSON.c **** #ifndef isnan
  77:SynaptiX_FDK/services/cJSON/cJSON.c **** #define isnan(d) (d != d)
  78:SynaptiX_FDK/services/cJSON/cJSON.c **** #endif
  79:SynaptiX_FDK/services/cJSON/cJSON.c **** 
  80:SynaptiX_FDK/services/cJSON/cJSON.c **** #ifndef NAN
  81:SynaptiX_FDK/services/cJSON/cJSON.c **** #ifdef _WIN32
  82:SynaptiX_FDK/services/cJSON/cJSON.c **** #define NAN sqrt(-1.0)
  83:SynaptiX_FDK/services/cJSON/cJSON.c **** #else
  84:SynaptiX_FDK/services/cJSON/cJSON.c **** #define NAN 0.0/0.0
  85:SynaptiX_FDK/services/cJSON/cJSON.c **** #endif
  86:SynaptiX_FDK/services/cJSON/cJSON.c **** #endif
ARM GAS  C:\Users\DELL\AppData\Local\Temp\ccXjhdgA.s 			page 3


  87:SynaptiX_FDK/services/cJSON/cJSON.c **** 
  88:SynaptiX_FDK/services/cJSON/cJSON.c **** typedef struct {
  89:SynaptiX_FDK/services/cJSON/cJSON.c ****     const unsigned char *json;
  90:SynaptiX_FDK/services/cJSON/cJSON.c ****     size_t position;
  91:SynaptiX_FDK/services/cJSON/cJSON.c **** } error;
  92:SynaptiX_FDK/services/cJSON/cJSON.c **** static error global_error = { NULL, 0 };
  93:SynaptiX_FDK/services/cJSON/cJSON.c **** 
  94:SynaptiX_FDK/services/cJSON/cJSON.c **** CJSON_PUBLIC(const char *) cJSON_GetErrorPtr(void)
  95:SynaptiX_FDK/services/cJSON/cJSON.c **** {
  96:SynaptiX_FDK/services/cJSON/cJSON.c ****     return (const char*) (global_error.json + global_error.position);
  97:SynaptiX_FDK/services/cJSON/cJSON.c **** }
  98:SynaptiX_FDK/services/cJSON/cJSON.c **** 
  99:SynaptiX_FDK/services/cJSON/cJSON.c **** CJSON_PUBLIC(char *) cJSON_GetStringValue(const cJSON * const item)
 100:SynaptiX_FDK/services/cJSON/cJSON.c **** {
 101:SynaptiX_FDK/services/cJSON/cJSON.c ****     if (!cJSON_IsString(item))
 102:SynaptiX_FDK/services/cJSON/cJSON.c ****     {
 103:SynaptiX_FDK/services/cJSON/cJSON.c ****         return NULL;
 104:SynaptiX_FDK/services/cJSON/cJSON.c ****     }
 105:SynaptiX_FDK/services/cJSON/cJSON.c **** 
 106:SynaptiX_FDK/services/cJSON/cJSON.c ****     return item->valuestring;
 107:SynaptiX_FDK/services/cJSON/cJSON.c **** }
 108:SynaptiX_FDK/services/cJSON/cJSON.c **** 
 109:SynaptiX_FDK/services/cJSON/cJSON.c **** CJSON_PUBLIC(double) cJSON_GetNumberValue(const cJSON * const item)
 110:SynaptiX_FDK/services/cJSON/cJSON.c **** {
 111:SynaptiX_FDK/services/cJSON/cJSON.c ****     if (!cJSON_IsNumber(item))
 112:SynaptiX_FDK/services/cJSON/cJSON.c ****     {
 113:SynaptiX_FDK/services/cJSON/cJSON.c ****         return (double) NAN;
 114:SynaptiX_FDK/services/cJSON/cJSON.c ****     }
 115:SynaptiX_FDK/services/cJSON/cJSON.c **** 
 116:SynaptiX_FDK/services/cJSON/cJSON.c ****     return item->valuedouble;
 117:SynaptiX_FDK/services/cJSON/cJSON.c **** }
 118:SynaptiX_FDK/services/cJSON/cJSON.c **** 
 119:SynaptiX_FDK/services/cJSON/cJSON.c **** /* This is a safeguard to prevent copy-pasters from using incompatible C and header files */
 120:SynaptiX_FDK/services/cJSON/cJSON.c **** #if (CJSON_VERSION_MAJOR != 1) || (CJSON_VERSION_MINOR != 7) || (CJSON_VERSION_PATCH != 18)
 121:SynaptiX_FDK/services/cJSON/cJSON.c ****     #error cJSON.h and cJSON.c have different versions. Make sure that both have the same.
 122:SynaptiX_FDK/services/cJSON/cJSON.c **** #endif
 123:SynaptiX_FDK/services/cJSON/cJSON.c **** 
 124:SynaptiX_FDK/services/cJSON/cJSON.c **** CJSON_PUBLIC(const char*) cJSON_Version(void)
 125:SynaptiX_FDK/services/cJSON/cJSON.c **** {
 126:SynaptiX_FDK/services/cJSON/cJSON.c ****     static char version[15];
 127:SynaptiX_FDK/services/cJSON/cJSON.c ****     sprintf(version, "%i.%i.%i", CJSON_VERSION_MAJOR, CJSON_VERSION_MINOR, CJSON_VERSION_PATCH);
 128:SynaptiX_FDK/services/cJSON/cJSON.c **** 
 129:SynaptiX_FDK/services/cJSON/cJSON.c ****     return version;
 130:SynaptiX_FDK/services/cJSON/cJSON.c **** }
 131:SynaptiX_FDK/services/cJSON/cJSON.c **** 
 132:SynaptiX_FDK/services/cJSON/cJSON.c **** /* Case insensitive string comparison, doesn't consider two NULL pointers equal though */
 133:SynaptiX_FDK/services/cJSON/cJSON.c **** static int case_insensitive_strcmp(const unsigned char *string1, const unsigned char *string2)
 134:SynaptiX_FDK/services/cJSON/cJSON.c **** {
  30              		.loc 1 134 1 view -0
  31              		.cfi_startproc
  32              		@ args = 0, pretend = 0, frame = 0
  33              		@ frame_needed = 0, uses_anonymous_args = 0
 135:SynaptiX_FDK/services/cJSON/cJSON.c ****     if ((string1 == NULL) || (string2 == NULL))
  34              		.loc 1 135 5 view .LVU1
  35              		.loc 1 135 8 is_stmt 0 view .LVU2
  36 0000 18B3     		cbz	r0, .L9
  37 0002 8446     		mov	ip, r0
ARM GAS  C:\Users\DELL\AppData\Local\Temp\ccXjhdgA.s 			page 4


  38              		.loc 1 135 27 discriminator 1 view .LVU3
  39 0004 19B3     		cbz	r1, .L10
 136:SynaptiX_FDK/services/cJSON/cJSON.c ****     {
 137:SynaptiX_FDK/services/cJSON/cJSON.c ****         return 1;
 138:SynaptiX_FDK/services/cJSON/cJSON.c ****     }
 139:SynaptiX_FDK/services/cJSON/cJSON.c **** 
 140:SynaptiX_FDK/services/cJSON/cJSON.c ****     if (string1 == string2)
  40              		.loc 1 140 5 is_stmt 1 view .LVU4
  41              		.loc 1 140 8 is_stmt 0 view .LVU5
  42 0006 8842     		cmp	r0, r1
  43 0008 23D0     		beq	.L16
 134:SynaptiX_FDK/services/cJSON/cJSON.c ****     if ((string1 == NULL) || (string2 == NULL))
  44              		.loc 1 134 1 view .LVU6
  45 000a 00B5     		push	{lr}
  46              	.LCFI0:
  47              		.cfi_def_cfa_offset 4
  48              		.cfi_offset 14, -4
  49 000c 08E0     		b	.L3
  50              	.LVL1:
  51              	.L18:
  52              	.LBB2:
 141:SynaptiX_FDK/services/cJSON/cJSON.c ****     {
 142:SynaptiX_FDK/services/cJSON/cJSON.c ****         return 0;
 143:SynaptiX_FDK/services/cJSON/cJSON.c ****     }
 144:SynaptiX_FDK/services/cJSON/cJSON.c **** 
 145:SynaptiX_FDK/services/cJSON/cJSON.c ****     for(; tolower(*string1) == tolower(*string2); (void)string1++, string2++)
  53              		.loc 1 145 11 discriminator 2 view .LVU7
  54 000e 00F1200E 		add	lr, r0, #32
  55 0012 0EE0     		b	.L5
  56              	.LVL2:
  57              	.L7:
  58              		.loc 1 145 11 discriminator 2 view .LVU8
  59              	.LBE2:
  60              		.loc 1 145 29 discriminator 9 view .LVU9
  61 0014 9E45     		cmp	lr, r3
  62 0016 15D1     		bne	.L17
 146:SynaptiX_FDK/services/cJSON/cJSON.c ****     {
 147:SynaptiX_FDK/services/cJSON/cJSON.c ****         if (*string1 == '\0')
  63              		.loc 1 147 9 is_stmt 1 view .LVU10
  64              		.loc 1 147 12 is_stmt 0 view .LVU11
  65 0018 E8B1     		cbz	r0, .L12
 145:SynaptiX_FDK/services/cJSON/cJSON.c ****     {
  66              		.loc 1 145 66 is_stmt 1 view .LVU12
 145:SynaptiX_FDK/services/cJSON/cJSON.c ****     {
  67              		.loc 1 145 51 is_stmt 0 view .LVU13
  68 001a 0CF1010C 		add	ip, ip, #1
  69              	.LVL3:
 145:SynaptiX_FDK/services/cJSON/cJSON.c ****     {
  70              		.loc 1 145 75 view .LVU14
  71 001e 0131     		adds	r1, r1, #1
  72              	.LVL4:
  73              	.L3:
 145:SynaptiX_FDK/services/cJSON/cJSON.c ****     {
  74              		.loc 1 145 29 is_stmt 1 discriminator 1 view .LVU15
  75              	.LBB3:
 145:SynaptiX_FDK/services/cJSON/cJSON.c ****     {
  76              		.loc 1 145 11 discriminator 1 view .LVU16
ARM GAS  C:\Users\DELL\AppData\Local\Temp\ccXjhdgA.s 			page 5


  77 0020 9CF80000 		ldrb	r0, [ip]	@ zero_extendqisi2
  78              	.LVL5:
 145:SynaptiX_FDK/services/cJSON/cJSON.c ****     {
  79              		.loc 1 145 11 view .LVU17
 145:SynaptiX_FDK/services/cJSON/cJSON.c ****     {
  80              		.loc 1 145 11 is_stmt 0 discriminator 1 view .LVU18
  81 0024 0D4B     		ldr	r3, .L19
  82 0026 1B5C     		ldrb	r3, [r3, r0]	@ zero_extendqisi2
  83 0028 03F00303 		and	r3, r3, #3
  84 002c 012B     		cmp	r3, #1
  85 002e EED0     		beq	.L18
 145:SynaptiX_FDK/services/cJSON/cJSON.c ****     {
  86              		.loc 1 145 11 discriminator 3 view .LVU19
  87 0030 8646     		mov	lr, r0
  88              	.L5:
 145:SynaptiX_FDK/services/cJSON/cJSON.c ****     {
  89              		.loc 1 145 11 discriminator 3 view .LVU20
  90              	.LBE3:
  91              	.LBB4:
 145:SynaptiX_FDK/services/cJSON/cJSON.c ****     {
  92              		.loc 1 145 32 is_stmt 1 view .LVU21
 145:SynaptiX_FDK/services/cJSON/cJSON.c ****     {
  93              		.loc 1 145 32 is_stmt 0 discriminator 5 view .LVU22
  94 0032 0B78     		ldrb	r3, [r1]	@ zero_extendqisi2
  95              	.LVL6:
 145:SynaptiX_FDK/services/cJSON/cJSON.c ****     {
  96              		.loc 1 145 32 is_stmt 1 view .LVU23
 145:SynaptiX_FDK/services/cJSON/cJSON.c ****     {
  97              		.loc 1 145 32 is_stmt 0 discriminator 5 view .LVU24
  98 0034 094A     		ldr	r2, .L19
  99 0036 D25C     		ldrb	r2, [r2, r3]	@ zero_extendqisi2
 100 0038 02F00302 		and	r2, r2, #3
 101 003c 012A     		cmp	r2, #1
 102 003e E9D1     		bne	.L7
 145:SynaptiX_FDK/services/cJSON/cJSON.c ****     {
 103              		.loc 1 145 32 discriminator 6 view .LVU25
 104 0040 2033     		adds	r3, r3, #32
 105              	.LVL7:
 145:SynaptiX_FDK/services/cJSON/cJSON.c ****     {
 106              		.loc 1 145 32 discriminator 6 view .LVU26
 107 0042 E7E7     		b	.L7
 108              	.LVL8:
 109              	.L17:
 145:SynaptiX_FDK/services/cJSON/cJSON.c ****     {
 110              		.loc 1 145 32 discriminator 6 view .LVU27
 111              	.LBE4:
 148:SynaptiX_FDK/services/cJSON/cJSON.c ****         {
 149:SynaptiX_FDK/services/cJSON/cJSON.c ****             return 0;
 150:SynaptiX_FDK/services/cJSON/cJSON.c ****         }
 151:SynaptiX_FDK/services/cJSON/cJSON.c ****     }
 152:SynaptiX_FDK/services/cJSON/cJSON.c **** 
 153:SynaptiX_FDK/services/cJSON/cJSON.c ****     return tolower(*string1) - tolower(*string2);
 112              		.loc 1 153 5 is_stmt 1 view .LVU28
 113              		.loc 1 153 12 view .LVU29
 114              		.loc 1 153 12 view .LVU30
 115              		.loc 1 153 32 view .LVU31
 116              		.loc 1 153 32 view .LVU32
ARM GAS  C:\Users\DELL\AppData\Local\Temp\ccXjhdgA.s 			page 6


 117              		.loc 1 153 30 is_stmt 0 discriminator 8 view .LVU33
 118 0044 AEEB0300 		sub	r0, lr, r3
 119              	.LVL9:
 120              	.L1:
 154:SynaptiX_FDK/services/cJSON/cJSON.c **** }
 121              		.loc 1 154 1 view .LVU34
 122 0048 00BD     		pop	{pc}
 123              	.LVL10:
 124              	.L9:
 125              	.LCFI1:
 126              		.cfi_def_cfa_offset 0
 127              		.cfi_restore 14
 137:SynaptiX_FDK/services/cJSON/cJSON.c ****     }
 128              		.loc 1 137 16 view .LVU35
 129 004a 0120     		movs	r0, #1
 130              	.LVL11:
 137:SynaptiX_FDK/services/cJSON/cJSON.c ****     }
 131              		.loc 1 137 16 view .LVU36
 132 004c 7047     		bx	lr
 133              	.LVL12:
 134              	.L10:
 137:SynaptiX_FDK/services/cJSON/cJSON.c ****     }
 135              		.loc 1 137 16 view .LVU37
 136 004e 0120     		movs	r0, #1
 137              	.LVL13:
 137:SynaptiX_FDK/services/cJSON/cJSON.c ****     }
 138              		.loc 1 137 16 view .LVU38
 139 0050 7047     		bx	lr
 140              	.LVL14:
 141              	.L16:
 142:SynaptiX_FDK/services/cJSON/cJSON.c ****     }
 142              		.loc 1 142 16 view .LVU39
 143 0052 0020     		movs	r0, #0
 144              	.LVL15:
 145              		.loc 1 154 1 view .LVU40
 146 0054 7047     		bx	lr
 147              	.LVL16:
 148              	.L12:
 149              	.LCFI2:
 150              		.cfi_def_cfa_offset 4
 151              		.cfi_offset 14, -4
 149:SynaptiX_FDK/services/cJSON/cJSON.c ****         }
 152              		.loc 1 149 20 view .LVU41
 153 0056 0020     		movs	r0, #0
 154              	.LVL17:
 149:SynaptiX_FDK/services/cJSON/cJSON.c ****         }
 155              		.loc 1 149 20 view .LVU42
 156 0058 F6E7     		b	.L1
 157              	.L20:
 158 005a 00BF     		.align	2
 159              	.L19:
 160 005c 01000000 		.word	_ctype_+1
 161              		.cfi_endproc
 162              	.LFE8:
 164              		.section	.text.get_decimal_point,"ax",%progbits
 165              		.align	1
 166              		.syntax unified
ARM GAS  C:\Users\DELL\AppData\Local\Temp\ccXjhdgA.s 			page 7


 167              		.thumb
 168              		.thumb_func
 170              	get_decimal_point:
 171              	.LFB13:
 155:SynaptiX_FDK/services/cJSON/cJSON.c **** 
 156:SynaptiX_FDK/services/cJSON/cJSON.c **** typedef struct internal_hooks
 157:SynaptiX_FDK/services/cJSON/cJSON.c **** {
 158:SynaptiX_FDK/services/cJSON/cJSON.c ****     void *(CJSON_CDECL *allocate)(size_t size);
 159:SynaptiX_FDK/services/cJSON/cJSON.c ****     void (CJSON_CDECL *deallocate)(void *pointer);
 160:SynaptiX_FDK/services/cJSON/cJSON.c ****     void *(CJSON_CDECL *reallocate)(void *pointer, size_t size);
 161:SynaptiX_FDK/services/cJSON/cJSON.c **** } internal_hooks;
 162:SynaptiX_FDK/services/cJSON/cJSON.c **** 
 163:SynaptiX_FDK/services/cJSON/cJSON.c **** #if defined(_MSC_VER)
 164:SynaptiX_FDK/services/cJSON/cJSON.c **** /* work around MSVC error C2322: '...' address of dllimport '...' is not static */
 165:SynaptiX_FDK/services/cJSON/cJSON.c **** static void * CJSON_CDECL internal_malloc(size_t size)
 166:SynaptiX_FDK/services/cJSON/cJSON.c **** {
 167:SynaptiX_FDK/services/cJSON/cJSON.c ****     return malloc(size);
 168:SynaptiX_FDK/services/cJSON/cJSON.c **** }
 169:SynaptiX_FDK/services/cJSON/cJSON.c **** static void CJSON_CDECL internal_free(void *pointer)
 170:SynaptiX_FDK/services/cJSON/cJSON.c **** {
 171:SynaptiX_FDK/services/cJSON/cJSON.c ****     free(pointer);
 172:SynaptiX_FDK/services/cJSON/cJSON.c **** }
 173:SynaptiX_FDK/services/cJSON/cJSON.c **** static void * CJSON_CDECL internal_realloc(void *pointer, size_t size)
 174:SynaptiX_FDK/services/cJSON/cJSON.c **** {
 175:SynaptiX_FDK/services/cJSON/cJSON.c ****     return realloc(pointer, size);
 176:SynaptiX_FDK/services/cJSON/cJSON.c **** }
 177:SynaptiX_FDK/services/cJSON/cJSON.c **** #else
 178:SynaptiX_FDK/services/cJSON/cJSON.c **** #define internal_malloc malloc
 179:SynaptiX_FDK/services/cJSON/cJSON.c **** #define internal_free free
 180:SynaptiX_FDK/services/cJSON/cJSON.c **** #define internal_realloc realloc
 181:SynaptiX_FDK/services/cJSON/cJSON.c **** #endif
 182:SynaptiX_FDK/services/cJSON/cJSON.c **** 
 183:SynaptiX_FDK/services/cJSON/cJSON.c **** /* strlen of character literals resolved at compile time */
 184:SynaptiX_FDK/services/cJSON/cJSON.c **** #define static_strlen(string_literal) (sizeof(string_literal) - sizeof(""))
 185:SynaptiX_FDK/services/cJSON/cJSON.c **** 
 186:SynaptiX_FDK/services/cJSON/cJSON.c **** static internal_hooks global_hooks = { internal_malloc, internal_free, internal_realloc };
 187:SynaptiX_FDK/services/cJSON/cJSON.c **** 
 188:SynaptiX_FDK/services/cJSON/cJSON.c **** static unsigned char* cJSON_strdup(const unsigned char* string, const internal_hooks * const hooks)
 189:SynaptiX_FDK/services/cJSON/cJSON.c **** {
 190:SynaptiX_FDK/services/cJSON/cJSON.c ****     size_t length = 0;
 191:SynaptiX_FDK/services/cJSON/cJSON.c ****     unsigned char *copy = NULL;
 192:SynaptiX_FDK/services/cJSON/cJSON.c **** 
 193:SynaptiX_FDK/services/cJSON/cJSON.c ****     if (string == NULL)
 194:SynaptiX_FDK/services/cJSON/cJSON.c ****     {
 195:SynaptiX_FDK/services/cJSON/cJSON.c ****         return NULL;
 196:SynaptiX_FDK/services/cJSON/cJSON.c ****     }
 197:SynaptiX_FDK/services/cJSON/cJSON.c **** 
 198:SynaptiX_FDK/services/cJSON/cJSON.c ****     length = strlen((const char*)string) + sizeof("");
 199:SynaptiX_FDK/services/cJSON/cJSON.c ****     copy = (unsigned char*)hooks->allocate(length);
 200:SynaptiX_FDK/services/cJSON/cJSON.c ****     if (copy == NULL)
 201:SynaptiX_FDK/services/cJSON/cJSON.c ****     {
 202:SynaptiX_FDK/services/cJSON/cJSON.c ****         return NULL;
 203:SynaptiX_FDK/services/cJSON/cJSON.c ****     }
 204:SynaptiX_FDK/services/cJSON/cJSON.c ****     memcpy(copy, string, length);
 205:SynaptiX_FDK/services/cJSON/cJSON.c **** 
 206:SynaptiX_FDK/services/cJSON/cJSON.c ****     return copy;
 207:SynaptiX_FDK/services/cJSON/cJSON.c **** }
ARM GAS  C:\Users\DELL\AppData\Local\Temp\ccXjhdgA.s 			page 8


 208:SynaptiX_FDK/services/cJSON/cJSON.c **** 
 209:SynaptiX_FDK/services/cJSON/cJSON.c **** CJSON_PUBLIC(void) cJSON_InitHooks(cJSON_Hooks* hooks)
 210:SynaptiX_FDK/services/cJSON/cJSON.c **** {
 211:SynaptiX_FDK/services/cJSON/cJSON.c ****     if (hooks == NULL)
 212:SynaptiX_FDK/services/cJSON/cJSON.c ****     {
 213:SynaptiX_FDK/services/cJSON/cJSON.c ****         /* Reset hooks */
 214:SynaptiX_FDK/services/cJSON/cJSON.c ****         global_hooks.allocate = malloc;
 215:SynaptiX_FDK/services/cJSON/cJSON.c ****         global_hooks.deallocate = free;
 216:SynaptiX_FDK/services/cJSON/cJSON.c ****         global_hooks.reallocate = realloc;
 217:SynaptiX_FDK/services/cJSON/cJSON.c ****         return;
 218:SynaptiX_FDK/services/cJSON/cJSON.c ****     }
 219:SynaptiX_FDK/services/cJSON/cJSON.c **** 
 220:SynaptiX_FDK/services/cJSON/cJSON.c ****     global_hooks.allocate = malloc;
 221:SynaptiX_FDK/services/cJSON/cJSON.c ****     if (hooks->malloc_fn != NULL)
 222:SynaptiX_FDK/services/cJSON/cJSON.c ****     {
 223:SynaptiX_FDK/services/cJSON/cJSON.c ****         global_hooks.allocate = hooks->malloc_fn;
 224:SynaptiX_FDK/services/cJSON/cJSON.c ****     }
 225:SynaptiX_FDK/services/cJSON/cJSON.c **** 
 226:SynaptiX_FDK/services/cJSON/cJSON.c ****     global_hooks.deallocate = free;
 227:SynaptiX_FDK/services/cJSON/cJSON.c ****     if (hooks->free_fn != NULL)
 228:SynaptiX_FDK/services/cJSON/cJSON.c ****     {
 229:SynaptiX_FDK/services/cJSON/cJSON.c ****         global_hooks.deallocate = hooks->free_fn;
 230:SynaptiX_FDK/services/cJSON/cJSON.c ****     }
 231:SynaptiX_FDK/services/cJSON/cJSON.c **** 
 232:SynaptiX_FDK/services/cJSON/cJSON.c ****     /* use realloc only if both free and malloc are used */
 233:SynaptiX_FDK/services/cJSON/cJSON.c ****     global_hooks.reallocate = NULL;
 234:SynaptiX_FDK/services/cJSON/cJSON.c ****     if ((global_hooks.allocate == malloc) && (global_hooks.deallocate == free))
 235:SynaptiX_FDK/services/cJSON/cJSON.c ****     {
 236:SynaptiX_FDK/services/cJSON/cJSON.c ****         global_hooks.reallocate = realloc;
 237:SynaptiX_FDK/services/cJSON/cJSON.c ****     }
 238:SynaptiX_FDK/services/cJSON/cJSON.c **** }
 239:SynaptiX_FDK/services/cJSON/cJSON.c **** 
 240:SynaptiX_FDK/services/cJSON/cJSON.c **** /* Internal constructor. */
 241:SynaptiX_FDK/services/cJSON/cJSON.c **** static cJSON *cJSON_New_Item(const internal_hooks * const hooks)
 242:SynaptiX_FDK/services/cJSON/cJSON.c **** {
 243:SynaptiX_FDK/services/cJSON/cJSON.c ****     cJSON* node = (cJSON*)hooks->allocate(sizeof(cJSON));
 244:SynaptiX_FDK/services/cJSON/cJSON.c ****     if (node)
 245:SynaptiX_FDK/services/cJSON/cJSON.c ****     {
 246:SynaptiX_FDK/services/cJSON/cJSON.c ****         memset(node, '\0', sizeof(cJSON));
 247:SynaptiX_FDK/services/cJSON/cJSON.c ****     }
 248:SynaptiX_FDK/services/cJSON/cJSON.c **** 
 249:SynaptiX_FDK/services/cJSON/cJSON.c ****     return node;
 250:SynaptiX_FDK/services/cJSON/cJSON.c **** }
 251:SynaptiX_FDK/services/cJSON/cJSON.c **** 
 252:SynaptiX_FDK/services/cJSON/cJSON.c **** /* Delete a cJSON structure. */
 253:SynaptiX_FDK/services/cJSON/cJSON.c **** CJSON_PUBLIC(void) cJSON_Delete(cJSON *item)
 254:SynaptiX_FDK/services/cJSON/cJSON.c **** {
 255:SynaptiX_FDK/services/cJSON/cJSON.c ****     cJSON *next = NULL;
 256:SynaptiX_FDK/services/cJSON/cJSON.c ****     while (item != NULL)
 257:SynaptiX_FDK/services/cJSON/cJSON.c ****     {
 258:SynaptiX_FDK/services/cJSON/cJSON.c ****         next = item->next;
 259:SynaptiX_FDK/services/cJSON/cJSON.c ****         if (!(item->type & cJSON_IsReference) && (item->child != NULL))
 260:SynaptiX_FDK/services/cJSON/cJSON.c ****         {
 261:SynaptiX_FDK/services/cJSON/cJSON.c ****             cJSON_Delete(item->child);
 262:SynaptiX_FDK/services/cJSON/cJSON.c ****         }
 263:SynaptiX_FDK/services/cJSON/cJSON.c ****         if (!(item->type & cJSON_IsReference) && (item->valuestring != NULL))
 264:SynaptiX_FDK/services/cJSON/cJSON.c ****         {
ARM GAS  C:\Users\DELL\AppData\Local\Temp\ccXjhdgA.s 			page 9


 265:SynaptiX_FDK/services/cJSON/cJSON.c ****             global_hooks.deallocate(item->valuestring);
 266:SynaptiX_FDK/services/cJSON/cJSON.c ****             item->valuestring = NULL;
 267:SynaptiX_FDK/services/cJSON/cJSON.c ****         }
 268:SynaptiX_FDK/services/cJSON/cJSON.c ****         if (!(item->type & cJSON_StringIsConst) && (item->string != NULL))
 269:SynaptiX_FDK/services/cJSON/cJSON.c ****         {
 270:SynaptiX_FDK/services/cJSON/cJSON.c ****             global_hooks.deallocate(item->string);
 271:SynaptiX_FDK/services/cJSON/cJSON.c ****             item->string = NULL;
 272:SynaptiX_FDK/services/cJSON/cJSON.c ****         }
 273:SynaptiX_FDK/services/cJSON/cJSON.c ****         global_hooks.deallocate(item);
 274:SynaptiX_FDK/services/cJSON/cJSON.c ****         item = next;
 275:SynaptiX_FDK/services/cJSON/cJSON.c ****     }
 276:SynaptiX_FDK/services/cJSON/cJSON.c **** }
 277:SynaptiX_FDK/services/cJSON/cJSON.c **** 
 278:SynaptiX_FDK/services/cJSON/cJSON.c **** /* get the decimal point character of the current locale */
 279:SynaptiX_FDK/services/cJSON/cJSON.c **** static unsigned char get_decimal_point(void)
 280:SynaptiX_FDK/services/cJSON/cJSON.c **** {
 172              		.loc 1 280 1 is_stmt 1 view -0
 173              		.cfi_startproc
 174              		@ args = 0, pretend = 0, frame = 0
 175              		@ frame_needed = 0, uses_anonymous_args = 0
 176              		@ link register save eliminated.
 281:SynaptiX_FDK/services/cJSON/cJSON.c **** #ifdef ENABLE_LOCALES
 282:SynaptiX_FDK/services/cJSON/cJSON.c ****     struct lconv *lconv = localeconv();
 283:SynaptiX_FDK/services/cJSON/cJSON.c ****     return (unsigned char) lconv->decimal_point[0];
 284:SynaptiX_FDK/services/cJSON/cJSON.c **** #else
 285:SynaptiX_FDK/services/cJSON/cJSON.c ****     return '.';
 177              		.loc 1 285 5 view .LVU44
 286:SynaptiX_FDK/services/cJSON/cJSON.c **** #endif
 287:SynaptiX_FDK/services/cJSON/cJSON.c **** }
 178              		.loc 1 287 1 is_stmt 0 view .LVU45
 179 0000 2E20     		movs	r0, #46
 180 0002 7047     		bx	lr
 181              		.cfi_endproc
 182              	.LFE13:
 184              		.section	.text.compare_double,"ax",%progbits
 185              		.align	1
 186              		.syntax unified
 187              		.thumb
 188              		.thumb_func
 190              	compare_double:
 191              	.LVL18:
 192              	.LFB19:
 288:SynaptiX_FDK/services/cJSON/cJSON.c **** 
 289:SynaptiX_FDK/services/cJSON/cJSON.c **** typedef struct
 290:SynaptiX_FDK/services/cJSON/cJSON.c **** {
 291:SynaptiX_FDK/services/cJSON/cJSON.c ****     const unsigned char *content;
 292:SynaptiX_FDK/services/cJSON/cJSON.c ****     size_t length;
 293:SynaptiX_FDK/services/cJSON/cJSON.c ****     size_t offset;
 294:SynaptiX_FDK/services/cJSON/cJSON.c ****     size_t depth; /* How deeply nested (in arrays/objects) is the input at the current offset. */
 295:SynaptiX_FDK/services/cJSON/cJSON.c ****     internal_hooks hooks;
 296:SynaptiX_FDK/services/cJSON/cJSON.c **** } parse_buffer;
 297:SynaptiX_FDK/services/cJSON/cJSON.c **** 
 298:SynaptiX_FDK/services/cJSON/cJSON.c **** /* check if the given size is left to read in a given parse buffer (starting with 1) */
 299:SynaptiX_FDK/services/cJSON/cJSON.c **** #define can_read(buffer, size) ((buffer != NULL) && (((buffer)->offset + size) <= (buffer)->length)
 300:SynaptiX_FDK/services/cJSON/cJSON.c **** /* check if the buffer can be accessed at the given index (starting with 0) */
 301:SynaptiX_FDK/services/cJSON/cJSON.c **** #define can_access_at_index(buffer, index) ((buffer != NULL) && (((buffer)->offset + index) < (buff
 302:SynaptiX_FDK/services/cJSON/cJSON.c **** #define cannot_access_at_index(buffer, index) (!can_access_at_index(buffer, index))
ARM GAS  C:\Users\DELL\AppData\Local\Temp\ccXjhdgA.s 			page 10


 303:SynaptiX_FDK/services/cJSON/cJSON.c **** /* get a pointer to the buffer at the position */
 304:SynaptiX_FDK/services/cJSON/cJSON.c **** #define buffer_at_offset(buffer) ((buffer)->content + (buffer)->offset)
 305:SynaptiX_FDK/services/cJSON/cJSON.c **** 
 306:SynaptiX_FDK/services/cJSON/cJSON.c **** /* Parse the input text to generate a number, and populate the result into item. */
 307:SynaptiX_FDK/services/cJSON/cJSON.c **** static cJSON_bool parse_number(cJSON * const item, parse_buffer * const input_buffer)
 308:SynaptiX_FDK/services/cJSON/cJSON.c **** {
 309:SynaptiX_FDK/services/cJSON/cJSON.c ****     double number = 0;
 310:SynaptiX_FDK/services/cJSON/cJSON.c ****     unsigned char *after_end = NULL;
 311:SynaptiX_FDK/services/cJSON/cJSON.c ****     unsigned char number_c_string[64];
 312:SynaptiX_FDK/services/cJSON/cJSON.c ****     unsigned char decimal_point = get_decimal_point();
 313:SynaptiX_FDK/services/cJSON/cJSON.c ****     size_t i = 0;
 314:SynaptiX_FDK/services/cJSON/cJSON.c **** 
 315:SynaptiX_FDK/services/cJSON/cJSON.c ****     if ((input_buffer == NULL) || (input_buffer->content == NULL))
 316:SynaptiX_FDK/services/cJSON/cJSON.c ****     {
 317:SynaptiX_FDK/services/cJSON/cJSON.c ****         return false;
 318:SynaptiX_FDK/services/cJSON/cJSON.c ****     }
 319:SynaptiX_FDK/services/cJSON/cJSON.c **** 
 320:SynaptiX_FDK/services/cJSON/cJSON.c ****     /* copy the number into a temporary buffer and replace '.' with the decimal point
 321:SynaptiX_FDK/services/cJSON/cJSON.c ****      * of the current locale (for strtod)
 322:SynaptiX_FDK/services/cJSON/cJSON.c ****      * This also takes care of '\0' not necessarily being available for marking the end of the inpu
 323:SynaptiX_FDK/services/cJSON/cJSON.c ****     for (i = 0; (i < (sizeof(number_c_string) - 1)) && can_access_at_index(input_buffer, i); i++)
 324:SynaptiX_FDK/services/cJSON/cJSON.c ****     {
 325:SynaptiX_FDK/services/cJSON/cJSON.c ****         switch (buffer_at_offset(input_buffer)[i])
 326:SynaptiX_FDK/services/cJSON/cJSON.c ****         {
 327:SynaptiX_FDK/services/cJSON/cJSON.c ****             case '0':
 328:SynaptiX_FDK/services/cJSON/cJSON.c ****             case '1':
 329:SynaptiX_FDK/services/cJSON/cJSON.c ****             case '2':
 330:SynaptiX_FDK/services/cJSON/cJSON.c ****             case '3':
 331:SynaptiX_FDK/services/cJSON/cJSON.c ****             case '4':
 332:SynaptiX_FDK/services/cJSON/cJSON.c ****             case '5':
 333:SynaptiX_FDK/services/cJSON/cJSON.c ****             case '6':
 334:SynaptiX_FDK/services/cJSON/cJSON.c ****             case '7':
 335:SynaptiX_FDK/services/cJSON/cJSON.c ****             case '8':
 336:SynaptiX_FDK/services/cJSON/cJSON.c ****             case '9':
 337:SynaptiX_FDK/services/cJSON/cJSON.c ****             case '+':
 338:SynaptiX_FDK/services/cJSON/cJSON.c ****             case '-':
 339:SynaptiX_FDK/services/cJSON/cJSON.c ****             case 'e':
 340:SynaptiX_FDK/services/cJSON/cJSON.c ****             case 'E':
 341:SynaptiX_FDK/services/cJSON/cJSON.c ****                 number_c_string[i] = buffer_at_offset(input_buffer)[i];
 342:SynaptiX_FDK/services/cJSON/cJSON.c ****                 break;
 343:SynaptiX_FDK/services/cJSON/cJSON.c **** 
 344:SynaptiX_FDK/services/cJSON/cJSON.c ****             case '.':
 345:SynaptiX_FDK/services/cJSON/cJSON.c ****                 number_c_string[i] = decimal_point;
 346:SynaptiX_FDK/services/cJSON/cJSON.c ****                 break;
 347:SynaptiX_FDK/services/cJSON/cJSON.c **** 
 348:SynaptiX_FDK/services/cJSON/cJSON.c ****             default:
 349:SynaptiX_FDK/services/cJSON/cJSON.c ****                 goto loop_end;
 350:SynaptiX_FDK/services/cJSON/cJSON.c ****         }
 351:SynaptiX_FDK/services/cJSON/cJSON.c ****     }
 352:SynaptiX_FDK/services/cJSON/cJSON.c **** loop_end:
 353:SynaptiX_FDK/services/cJSON/cJSON.c ****     number_c_string[i] = '\0';
 354:SynaptiX_FDK/services/cJSON/cJSON.c **** 
 355:SynaptiX_FDK/services/cJSON/cJSON.c ****     number = strtod((const char*)number_c_string, (char**)&after_end);
 356:SynaptiX_FDK/services/cJSON/cJSON.c ****     if (number_c_string == after_end)
 357:SynaptiX_FDK/services/cJSON/cJSON.c ****     {
 358:SynaptiX_FDK/services/cJSON/cJSON.c ****         return false; /* parse_error */
 359:SynaptiX_FDK/services/cJSON/cJSON.c ****     }
ARM GAS  C:\Users\DELL\AppData\Local\Temp\ccXjhdgA.s 			page 11


 360:SynaptiX_FDK/services/cJSON/cJSON.c **** 
 361:SynaptiX_FDK/services/cJSON/cJSON.c ****     item->valuedouble = number;
 362:SynaptiX_FDK/services/cJSON/cJSON.c **** 
 363:SynaptiX_FDK/services/cJSON/cJSON.c ****     /* use saturation in case of overflow */
 364:SynaptiX_FDK/services/cJSON/cJSON.c ****     if (number >= INT_MAX)
 365:SynaptiX_FDK/services/cJSON/cJSON.c ****     {
 366:SynaptiX_FDK/services/cJSON/cJSON.c ****         item->valueint = INT_MAX;
 367:SynaptiX_FDK/services/cJSON/cJSON.c ****     }
 368:SynaptiX_FDK/services/cJSON/cJSON.c ****     else if (number <= (double)INT_MIN)
 369:SynaptiX_FDK/services/cJSON/cJSON.c ****     {
 370:SynaptiX_FDK/services/cJSON/cJSON.c ****         item->valueint = INT_MIN;
 371:SynaptiX_FDK/services/cJSON/cJSON.c ****     }
 372:SynaptiX_FDK/services/cJSON/cJSON.c ****     else
 373:SynaptiX_FDK/services/cJSON/cJSON.c ****     {
 374:SynaptiX_FDK/services/cJSON/cJSON.c ****         item->valueint = (int)number;
 375:SynaptiX_FDK/services/cJSON/cJSON.c ****     }
 376:SynaptiX_FDK/services/cJSON/cJSON.c **** 
 377:SynaptiX_FDK/services/cJSON/cJSON.c ****     item->type = cJSON_Number;
 378:SynaptiX_FDK/services/cJSON/cJSON.c **** 
 379:SynaptiX_FDK/services/cJSON/cJSON.c ****     input_buffer->offset += (size_t)(after_end - number_c_string);
 380:SynaptiX_FDK/services/cJSON/cJSON.c ****     return true;
 381:SynaptiX_FDK/services/cJSON/cJSON.c **** }
 382:SynaptiX_FDK/services/cJSON/cJSON.c **** 
 383:SynaptiX_FDK/services/cJSON/cJSON.c **** /* don't ask me, but the original cJSON_SetNumberValue returns an integer or double */
 384:SynaptiX_FDK/services/cJSON/cJSON.c **** CJSON_PUBLIC(double) cJSON_SetNumberHelper(cJSON *object, double number)
 385:SynaptiX_FDK/services/cJSON/cJSON.c **** {
 386:SynaptiX_FDK/services/cJSON/cJSON.c ****     if (number >= INT_MAX)
 387:SynaptiX_FDK/services/cJSON/cJSON.c ****     {
 388:SynaptiX_FDK/services/cJSON/cJSON.c ****         object->valueint = INT_MAX;
 389:SynaptiX_FDK/services/cJSON/cJSON.c ****     }
 390:SynaptiX_FDK/services/cJSON/cJSON.c ****     else if (number <= (double)INT_MIN)
 391:SynaptiX_FDK/services/cJSON/cJSON.c ****     {
 392:SynaptiX_FDK/services/cJSON/cJSON.c ****         object->valueint = INT_MIN;
 393:SynaptiX_FDK/services/cJSON/cJSON.c ****     }
 394:SynaptiX_FDK/services/cJSON/cJSON.c ****     else
 395:SynaptiX_FDK/services/cJSON/cJSON.c ****     {
 396:SynaptiX_FDK/services/cJSON/cJSON.c ****         object->valueint = (int)number;
 397:SynaptiX_FDK/services/cJSON/cJSON.c ****     }
 398:SynaptiX_FDK/services/cJSON/cJSON.c **** 
 399:SynaptiX_FDK/services/cJSON/cJSON.c ****     return object->valuedouble = number;
 400:SynaptiX_FDK/services/cJSON/cJSON.c **** }
 401:SynaptiX_FDK/services/cJSON/cJSON.c **** 
 402:SynaptiX_FDK/services/cJSON/cJSON.c **** /* Note: when passing a NULL valuestring, cJSON_SetValuestring treats this as an error and return N
 403:SynaptiX_FDK/services/cJSON/cJSON.c **** CJSON_PUBLIC(char*) cJSON_SetValuestring(cJSON *object, const char *valuestring)
 404:SynaptiX_FDK/services/cJSON/cJSON.c **** {
 405:SynaptiX_FDK/services/cJSON/cJSON.c ****     char *copy = NULL;
 406:SynaptiX_FDK/services/cJSON/cJSON.c ****     size_t v1_len;
 407:SynaptiX_FDK/services/cJSON/cJSON.c ****     size_t v2_len;
 408:SynaptiX_FDK/services/cJSON/cJSON.c ****     /* if object's type is not cJSON_String or is cJSON_IsReference, it should not set valuestring 
 409:SynaptiX_FDK/services/cJSON/cJSON.c ****     if ((object == NULL) || !(object->type & cJSON_String) || (object->type & cJSON_IsReference))
 410:SynaptiX_FDK/services/cJSON/cJSON.c ****     {
 411:SynaptiX_FDK/services/cJSON/cJSON.c ****         return NULL;
 412:SynaptiX_FDK/services/cJSON/cJSON.c ****     }
 413:SynaptiX_FDK/services/cJSON/cJSON.c ****     /* return NULL if the object is corrupted or valuestring is NULL */
 414:SynaptiX_FDK/services/cJSON/cJSON.c ****     if (object->valuestring == NULL || valuestring == NULL)
 415:SynaptiX_FDK/services/cJSON/cJSON.c ****     {
 416:SynaptiX_FDK/services/cJSON/cJSON.c ****         return NULL;
ARM GAS  C:\Users\DELL\AppData\Local\Temp\ccXjhdgA.s 			page 12


 417:SynaptiX_FDK/services/cJSON/cJSON.c ****     }
 418:SynaptiX_FDK/services/cJSON/cJSON.c **** 
 419:SynaptiX_FDK/services/cJSON/cJSON.c ****     v1_len = strlen(valuestring);
 420:SynaptiX_FDK/services/cJSON/cJSON.c ****     v2_len = strlen(object->valuestring);
 421:SynaptiX_FDK/services/cJSON/cJSON.c **** 
 422:SynaptiX_FDK/services/cJSON/cJSON.c ****     if (v1_len <= v2_len)
 423:SynaptiX_FDK/services/cJSON/cJSON.c ****     {
 424:SynaptiX_FDK/services/cJSON/cJSON.c ****         /* strcpy does not handle overlapping string: [X1, X2] [Y1, Y2] => X2 < Y1 or Y2 < X1 */
 425:SynaptiX_FDK/services/cJSON/cJSON.c ****         if (!( valuestring + v1_len < object->valuestring || object->valuestring + v2_len < valuest
 426:SynaptiX_FDK/services/cJSON/cJSON.c ****         {
 427:SynaptiX_FDK/services/cJSON/cJSON.c ****             return NULL;
 428:SynaptiX_FDK/services/cJSON/cJSON.c ****         }
 429:SynaptiX_FDK/services/cJSON/cJSON.c ****         strcpy(object->valuestring, valuestring);
 430:SynaptiX_FDK/services/cJSON/cJSON.c ****         return object->valuestring;
 431:SynaptiX_FDK/services/cJSON/cJSON.c ****     }
 432:SynaptiX_FDK/services/cJSON/cJSON.c ****     copy = (char*) cJSON_strdup((const unsigned char*)valuestring, &global_hooks);
 433:SynaptiX_FDK/services/cJSON/cJSON.c ****     if (copy == NULL)
 434:SynaptiX_FDK/services/cJSON/cJSON.c ****     {
 435:SynaptiX_FDK/services/cJSON/cJSON.c ****         return NULL;
 436:SynaptiX_FDK/services/cJSON/cJSON.c ****     }
 437:SynaptiX_FDK/services/cJSON/cJSON.c ****     if (object->valuestring != NULL)
 438:SynaptiX_FDK/services/cJSON/cJSON.c ****     {
 439:SynaptiX_FDK/services/cJSON/cJSON.c ****         cJSON_free(object->valuestring);
 440:SynaptiX_FDK/services/cJSON/cJSON.c ****     }
 441:SynaptiX_FDK/services/cJSON/cJSON.c ****     object->valuestring = copy;
 442:SynaptiX_FDK/services/cJSON/cJSON.c **** 
 443:SynaptiX_FDK/services/cJSON/cJSON.c ****     return copy;
 444:SynaptiX_FDK/services/cJSON/cJSON.c **** }
 445:SynaptiX_FDK/services/cJSON/cJSON.c **** 
 446:SynaptiX_FDK/services/cJSON/cJSON.c **** typedef struct
 447:SynaptiX_FDK/services/cJSON/cJSON.c **** {
 448:SynaptiX_FDK/services/cJSON/cJSON.c ****     unsigned char *buffer;
 449:SynaptiX_FDK/services/cJSON/cJSON.c ****     size_t length;
 450:SynaptiX_FDK/services/cJSON/cJSON.c ****     size_t offset;
 451:SynaptiX_FDK/services/cJSON/cJSON.c ****     size_t depth; /* current nesting depth (for formatted printing) */
 452:SynaptiX_FDK/services/cJSON/cJSON.c ****     cJSON_bool noalloc;
 453:SynaptiX_FDK/services/cJSON/cJSON.c ****     cJSON_bool format; /* is this print a formatted print */
 454:SynaptiX_FDK/services/cJSON/cJSON.c ****     internal_hooks hooks;
 455:SynaptiX_FDK/services/cJSON/cJSON.c **** } printbuffer;
 456:SynaptiX_FDK/services/cJSON/cJSON.c **** 
 457:SynaptiX_FDK/services/cJSON/cJSON.c **** /* realloc printbuffer if necessary to have at least "needed" bytes more */
 458:SynaptiX_FDK/services/cJSON/cJSON.c **** static unsigned char* ensure(printbuffer * const p, size_t needed)
 459:SynaptiX_FDK/services/cJSON/cJSON.c **** {
 460:SynaptiX_FDK/services/cJSON/cJSON.c ****     unsigned char *newbuffer = NULL;
 461:SynaptiX_FDK/services/cJSON/cJSON.c ****     size_t newsize = 0;
 462:SynaptiX_FDK/services/cJSON/cJSON.c **** 
 463:SynaptiX_FDK/services/cJSON/cJSON.c ****     if ((p == NULL) || (p->buffer == NULL))
 464:SynaptiX_FDK/services/cJSON/cJSON.c ****     {
 465:SynaptiX_FDK/services/cJSON/cJSON.c ****         return NULL;
 466:SynaptiX_FDK/services/cJSON/cJSON.c ****     }
 467:SynaptiX_FDK/services/cJSON/cJSON.c **** 
 468:SynaptiX_FDK/services/cJSON/cJSON.c ****     if ((p->length > 0) && (p->offset >= p->length))
 469:SynaptiX_FDK/services/cJSON/cJSON.c ****     {
 470:SynaptiX_FDK/services/cJSON/cJSON.c ****         /* make sure that offset is valid */
 471:SynaptiX_FDK/services/cJSON/cJSON.c ****         return NULL;
 472:SynaptiX_FDK/services/cJSON/cJSON.c ****     }
 473:SynaptiX_FDK/services/cJSON/cJSON.c **** 
ARM GAS  C:\Users\DELL\AppData\Local\Temp\ccXjhdgA.s 			page 13


 474:SynaptiX_FDK/services/cJSON/cJSON.c ****     if (needed > INT_MAX)
 475:SynaptiX_FDK/services/cJSON/cJSON.c ****     {
 476:SynaptiX_FDK/services/cJSON/cJSON.c ****         /* sizes bigger than INT_MAX are currently not supported */
 477:SynaptiX_FDK/services/cJSON/cJSON.c ****         return NULL;
 478:SynaptiX_FDK/services/cJSON/cJSON.c ****     }
 479:SynaptiX_FDK/services/cJSON/cJSON.c **** 
 480:SynaptiX_FDK/services/cJSON/cJSON.c ****     needed += p->offset + 1;
 481:SynaptiX_FDK/services/cJSON/cJSON.c ****     if (needed <= p->length)
 482:SynaptiX_FDK/services/cJSON/cJSON.c ****     {
 483:SynaptiX_FDK/services/cJSON/cJSON.c ****         return p->buffer + p->offset;
 484:SynaptiX_FDK/services/cJSON/cJSON.c ****     }
 485:SynaptiX_FDK/services/cJSON/cJSON.c **** 
 486:SynaptiX_FDK/services/cJSON/cJSON.c ****     if (p->noalloc) {
 487:SynaptiX_FDK/services/cJSON/cJSON.c ****         return NULL;
 488:SynaptiX_FDK/services/cJSON/cJSON.c ****     }
 489:SynaptiX_FDK/services/cJSON/cJSON.c **** 
 490:SynaptiX_FDK/services/cJSON/cJSON.c ****     /* calculate new buffer size */
 491:SynaptiX_FDK/services/cJSON/cJSON.c ****     if (needed > (INT_MAX / 2))
 492:SynaptiX_FDK/services/cJSON/cJSON.c ****     {
 493:SynaptiX_FDK/services/cJSON/cJSON.c ****         /* overflow of int, use INT_MAX if possible */
 494:SynaptiX_FDK/services/cJSON/cJSON.c ****         if (needed <= INT_MAX)
 495:SynaptiX_FDK/services/cJSON/cJSON.c ****         {
 496:SynaptiX_FDK/services/cJSON/cJSON.c ****             newsize = INT_MAX;
 497:SynaptiX_FDK/services/cJSON/cJSON.c ****         }
 498:SynaptiX_FDK/services/cJSON/cJSON.c ****         else
 499:SynaptiX_FDK/services/cJSON/cJSON.c ****         {
 500:SynaptiX_FDK/services/cJSON/cJSON.c ****             return NULL;
 501:SynaptiX_FDK/services/cJSON/cJSON.c ****         }
 502:SynaptiX_FDK/services/cJSON/cJSON.c ****     }
 503:SynaptiX_FDK/services/cJSON/cJSON.c ****     else
 504:SynaptiX_FDK/services/cJSON/cJSON.c ****     {
 505:SynaptiX_FDK/services/cJSON/cJSON.c ****         newsize = needed * 2;
 506:SynaptiX_FDK/services/cJSON/cJSON.c ****     }
 507:SynaptiX_FDK/services/cJSON/cJSON.c **** 
 508:SynaptiX_FDK/services/cJSON/cJSON.c ****     if (p->hooks.reallocate != NULL)
 509:SynaptiX_FDK/services/cJSON/cJSON.c ****     {
 510:SynaptiX_FDK/services/cJSON/cJSON.c ****         /* reallocate with realloc if available */
 511:SynaptiX_FDK/services/cJSON/cJSON.c ****         newbuffer = (unsigned char*)p->hooks.reallocate(p->buffer, newsize);
 512:SynaptiX_FDK/services/cJSON/cJSON.c ****         if (newbuffer == NULL)
 513:SynaptiX_FDK/services/cJSON/cJSON.c ****         {
 514:SynaptiX_FDK/services/cJSON/cJSON.c ****             p->hooks.deallocate(p->buffer);
 515:SynaptiX_FDK/services/cJSON/cJSON.c ****             p->length = 0;
 516:SynaptiX_FDK/services/cJSON/cJSON.c ****             p->buffer = NULL;
 517:SynaptiX_FDK/services/cJSON/cJSON.c **** 
 518:SynaptiX_FDK/services/cJSON/cJSON.c ****             return NULL;
 519:SynaptiX_FDK/services/cJSON/cJSON.c ****         }
 520:SynaptiX_FDK/services/cJSON/cJSON.c ****     }
 521:SynaptiX_FDK/services/cJSON/cJSON.c ****     else
 522:SynaptiX_FDK/services/cJSON/cJSON.c ****     {
 523:SynaptiX_FDK/services/cJSON/cJSON.c ****         /* otherwise reallocate manually */
 524:SynaptiX_FDK/services/cJSON/cJSON.c ****         newbuffer = (unsigned char*)p->hooks.allocate(newsize);
 525:SynaptiX_FDK/services/cJSON/cJSON.c ****         if (!newbuffer)
 526:SynaptiX_FDK/services/cJSON/cJSON.c ****         {
 527:SynaptiX_FDK/services/cJSON/cJSON.c ****             p->hooks.deallocate(p->buffer);
 528:SynaptiX_FDK/services/cJSON/cJSON.c ****             p->length = 0;
 529:SynaptiX_FDK/services/cJSON/cJSON.c ****             p->buffer = NULL;
 530:SynaptiX_FDK/services/cJSON/cJSON.c **** 
ARM GAS  C:\Users\DELL\AppData\Local\Temp\ccXjhdgA.s 			page 14


 531:SynaptiX_FDK/services/cJSON/cJSON.c ****             return NULL;
 532:SynaptiX_FDK/services/cJSON/cJSON.c ****         }
 533:SynaptiX_FDK/services/cJSON/cJSON.c **** 
 534:SynaptiX_FDK/services/cJSON/cJSON.c ****         memcpy(newbuffer, p->buffer, p->offset + 1);
 535:SynaptiX_FDK/services/cJSON/cJSON.c ****         p->hooks.deallocate(p->buffer);
 536:SynaptiX_FDK/services/cJSON/cJSON.c ****     }
 537:SynaptiX_FDK/services/cJSON/cJSON.c ****     p->length = newsize;
 538:SynaptiX_FDK/services/cJSON/cJSON.c ****     p->buffer = newbuffer;
 539:SynaptiX_FDK/services/cJSON/cJSON.c **** 
 540:SynaptiX_FDK/services/cJSON/cJSON.c ****     return newbuffer + p->offset;
 541:SynaptiX_FDK/services/cJSON/cJSON.c **** }
 542:SynaptiX_FDK/services/cJSON/cJSON.c **** 
 543:SynaptiX_FDK/services/cJSON/cJSON.c **** /* calculate the new length of the string in a printbuffer and update the offset */
 544:SynaptiX_FDK/services/cJSON/cJSON.c **** static void update_offset(printbuffer * const buffer)
 545:SynaptiX_FDK/services/cJSON/cJSON.c **** {
 546:SynaptiX_FDK/services/cJSON/cJSON.c ****     const unsigned char *buffer_pointer = NULL;
 547:SynaptiX_FDK/services/cJSON/cJSON.c ****     if ((buffer == NULL) || (buffer->buffer == NULL))
 548:SynaptiX_FDK/services/cJSON/cJSON.c ****     {
 549:SynaptiX_FDK/services/cJSON/cJSON.c ****         return;
 550:SynaptiX_FDK/services/cJSON/cJSON.c ****     }
 551:SynaptiX_FDK/services/cJSON/cJSON.c ****     buffer_pointer = buffer->buffer + buffer->offset;
 552:SynaptiX_FDK/services/cJSON/cJSON.c **** 
 553:SynaptiX_FDK/services/cJSON/cJSON.c ****     buffer->offset += strlen((const char*)buffer_pointer);
 554:SynaptiX_FDK/services/cJSON/cJSON.c **** }
 555:SynaptiX_FDK/services/cJSON/cJSON.c **** 
 556:SynaptiX_FDK/services/cJSON/cJSON.c **** /* securely comparison of floating-point variables */
 557:SynaptiX_FDK/services/cJSON/cJSON.c **** static cJSON_bool compare_double(double a, double b)
 558:SynaptiX_FDK/services/cJSON/cJSON.c **** {
 193              		.loc 1 558 1 is_stmt 1 view -0
 194              		.cfi_startproc
 195              		@ args = 0, pretend = 0, frame = 0
 196              		@ frame_needed = 0, uses_anonymous_args = 0
 197              		.loc 1 558 1 is_stmt 0 view .LVU47
 198 0000 2DE9F84F 		push	{r3, r4, r5, r6, r7, r8, r9, r10, fp, lr}
 199              	.LCFI3:
 200              		.cfi_def_cfa_offset 40
 201              		.cfi_offset 3, -40
 202              		.cfi_offset 4, -36
 203              		.cfi_offset 5, -32
 204              		.cfi_offset 6, -28
 205              		.cfi_offset 7, -24
 206              		.cfi_offset 8, -20
 207              		.cfi_offset 9, -16
 208              		.cfi_offset 10, -12
 209              		.cfi_offset 11, -8
 210              		.cfi_offset 14, -4
 211 0004 5BEC10AB 		vmov	r10, fp, d0
 212 0008 55EC114B 		vmov	r4, r5, d1
 559:SynaptiX_FDK/services/cJSON/cJSON.c ****     double maxVal = fabs(a) > fabs(b) ? fabs(a) : fabs(b);
 213              		.loc 1 559 5 is_stmt 1 view .LVU48
 214              		.loc 1 559 21 is_stmt 0 view .LVU49
 215 000c 2BF00049 		bic	r9, fp, #-2147483648
 216              		.loc 1 559 31 view .LVU50
 217 0010 2646     		mov	r6, r4
 218 0012 25F00047 		bic	r7, r5, #-2147483648
 219              		.loc 1 559 49 view .LVU51
 220 0016 2246     		mov	r2, r4
ARM GAS  C:\Users\DELL\AppData\Local\Temp\ccXjhdgA.s 			page 15


 221 0018 3B46     		mov	r3, r7
 222 001a 5046     		mov	r0, r10
 223 001c 4946     		mov	r1, r9
 224 001e FFF7FEFF 		bl	__aeabi_dcmpgt
 225              	.LVL19:
 226              		.loc 1 559 49 view .LVU52
 227 0022 08B1     		cbz	r0, .L23
 228              		.loc 1 559 49 discriminator 1 view .LVU53
 229 0024 5646     		mov	r6, r10
 230 0026 4F46     		mov	r7, r9
 231              	.L23:
 232              	.LVL20:
 560:SynaptiX_FDK/services/cJSON/cJSON.c ****     return (fabs(a - b) <= maxVal * DBL_EPSILON);
 233              		.loc 1 560 5 is_stmt 1 view .LVU54
 234              		.loc 1 560 20 is_stmt 0 view .LVU55
 235 0028 2246     		mov	r2, r4
 236 002a 2B46     		mov	r3, r5
 237 002c 5046     		mov	r0, r10
 238 002e 5946     		mov	r1, fp
 239 0030 FFF7FEFF 		bl	__aeabi_dsub
 240              	.LVL21:
 241              		.loc 1 560 13 view .LVU56
 242 0034 0446     		mov	r4, r0
 243              	.LVL22:
 244              		.loc 1 560 13 view .LVU57
 245 0036 21F00045 		bic	r5, r1, #-2147483648
 246              		.loc 1 560 35 view .LVU58
 247 003a 0022     		movs	r2, #0
 248 003c 084B     		ldr	r3, .L28
 249 003e 3046     		mov	r0, r6
 250 0040 3946     		mov	r1, r7
 251 0042 FFF7FEFF 		bl	__aeabi_dmul
 252              	.LVL23:
 253 0046 0246     		mov	r2, r0
 254 0048 0B46     		mov	r3, r1
 255              		.loc 1 560 25 view .LVU59
 256 004a 0126     		movs	r6, #1
 257              	.LVL24:
 258              		.loc 1 560 25 view .LVU60
 259 004c 2046     		mov	r0, r4
 260 004e 2946     		mov	r1, r5
 261 0050 FFF7FEFF 		bl	__aeabi_dcmple
 262              	.LVL25:
 263 0054 00B9     		cbnz	r0, .L25
 264 0056 0026     		movs	r6, #0
 265              	.L25:
 561:SynaptiX_FDK/services/cJSON/cJSON.c **** }
 266              		.loc 1 561 1 view .LVU61
 267 0058 3046     		mov	r0, r6
 268 005a BDE8F88F 		pop	{r3, r4, r5, r6, r7, r8, r9, r10, fp, pc}
 269              	.LVL26:
 270              	.L29:
 271              		.loc 1 561 1 view .LVU62
 272 005e 00BF     		.align	2
 273              	.L28:
 274 0060 0000B03C 		.word	1018167296
 275              		.cfi_endproc
ARM GAS  C:\Users\DELL\AppData\Local\Temp\ccXjhdgA.s 			page 16


 276              	.LFE19:
 278              		.section	.text.parse_hex4,"ax",%progbits
 279              		.align	1
 280              		.syntax unified
 281              		.thumb
 282              		.thumb_func
 284              	parse_hex4:
 285              	.LVL27:
 286              	.LFB21:
 562:SynaptiX_FDK/services/cJSON/cJSON.c **** 
 563:SynaptiX_FDK/services/cJSON/cJSON.c **** /* Render the number nicely from the given item into a string. */
 564:SynaptiX_FDK/services/cJSON/cJSON.c **** static cJSON_bool print_number(const cJSON * const item, printbuffer * const output_buffer)
 565:SynaptiX_FDK/services/cJSON/cJSON.c **** {
 566:SynaptiX_FDK/services/cJSON/cJSON.c ****     unsigned char *output_pointer = NULL;
 567:SynaptiX_FDK/services/cJSON/cJSON.c ****     double d = item->valuedouble;
 568:SynaptiX_FDK/services/cJSON/cJSON.c ****     int length = 0;
 569:SynaptiX_FDK/services/cJSON/cJSON.c ****     size_t i = 0;
 570:SynaptiX_FDK/services/cJSON/cJSON.c ****     unsigned char number_buffer[26] = {0}; /* temporary buffer to print the number into */
 571:SynaptiX_FDK/services/cJSON/cJSON.c ****     unsigned char decimal_point = get_decimal_point();
 572:SynaptiX_FDK/services/cJSON/cJSON.c ****     double test = 0.0;
 573:SynaptiX_FDK/services/cJSON/cJSON.c **** 
 574:SynaptiX_FDK/services/cJSON/cJSON.c ****     if (output_buffer == NULL)
 575:SynaptiX_FDK/services/cJSON/cJSON.c ****     {
 576:SynaptiX_FDK/services/cJSON/cJSON.c ****         return false;
 577:SynaptiX_FDK/services/cJSON/cJSON.c ****     }
 578:SynaptiX_FDK/services/cJSON/cJSON.c **** 
 579:SynaptiX_FDK/services/cJSON/cJSON.c ****     /* This checks for NaN and Infinity */
 580:SynaptiX_FDK/services/cJSON/cJSON.c ****     if (isnan(d) || isinf(d))
 581:SynaptiX_FDK/services/cJSON/cJSON.c ****     {
 582:SynaptiX_FDK/services/cJSON/cJSON.c ****         length = sprintf((char*)number_buffer, "null");
 583:SynaptiX_FDK/services/cJSON/cJSON.c ****     }
 584:SynaptiX_FDK/services/cJSON/cJSON.c ****     else if(d == (double)item->valueint)
 585:SynaptiX_FDK/services/cJSON/cJSON.c ****     {
 586:SynaptiX_FDK/services/cJSON/cJSON.c ****         length = sprintf((char*)number_buffer, "%d", item->valueint);
 587:SynaptiX_FDK/services/cJSON/cJSON.c ****     }
 588:SynaptiX_FDK/services/cJSON/cJSON.c ****     else
 589:SynaptiX_FDK/services/cJSON/cJSON.c ****     {
 590:SynaptiX_FDK/services/cJSON/cJSON.c ****         /* Try 15 decimal places of precision to avoid nonsignificant nonzero digits */
 591:SynaptiX_FDK/services/cJSON/cJSON.c ****         length = sprintf((char*)number_buffer, "%.4f", d);
 592:SynaptiX_FDK/services/cJSON/cJSON.c **** 
 593:SynaptiX_FDK/services/cJSON/cJSON.c ****         /* Check whether the original double can be recovered */
 594:SynaptiX_FDK/services/cJSON/cJSON.c ****         if ((sscanf((char*)number_buffer, "%lg", &test) != 1) || !compare_double((double)test, d))
 595:SynaptiX_FDK/services/cJSON/cJSON.c ****         {
 596:SynaptiX_FDK/services/cJSON/cJSON.c ****             /* If not, print with 17 decimal places of precision */
 597:SynaptiX_FDK/services/cJSON/cJSON.c ****             length = sprintf((char*)number_buffer, "%.4f", d);
 598:SynaptiX_FDK/services/cJSON/cJSON.c ****         }
 599:SynaptiX_FDK/services/cJSON/cJSON.c ****     }
 600:SynaptiX_FDK/services/cJSON/cJSON.c **** 
 601:SynaptiX_FDK/services/cJSON/cJSON.c ****     /* sprintf failed or buffer overrun occurred */
 602:SynaptiX_FDK/services/cJSON/cJSON.c ****     if ((length < 0) || (length > (int)(sizeof(number_buffer) - 1)))
 603:SynaptiX_FDK/services/cJSON/cJSON.c ****     {
 604:SynaptiX_FDK/services/cJSON/cJSON.c ****         return false;
 605:SynaptiX_FDK/services/cJSON/cJSON.c ****     }
 606:SynaptiX_FDK/services/cJSON/cJSON.c **** 
 607:SynaptiX_FDK/services/cJSON/cJSON.c ****     /* reserve appropriate space in the output */
 608:SynaptiX_FDK/services/cJSON/cJSON.c ****     output_pointer = ensure(output_buffer, (size_t)length + sizeof(""));
 609:SynaptiX_FDK/services/cJSON/cJSON.c ****     if (output_pointer == NULL)
ARM GAS  C:\Users\DELL\AppData\Local\Temp\ccXjhdgA.s 			page 17


 610:SynaptiX_FDK/services/cJSON/cJSON.c ****     {
 611:SynaptiX_FDK/services/cJSON/cJSON.c ****         return false;
 612:SynaptiX_FDK/services/cJSON/cJSON.c ****     }
 613:SynaptiX_FDK/services/cJSON/cJSON.c **** 
 614:SynaptiX_FDK/services/cJSON/cJSON.c ****     /* copy the printed number to the output and replace locale
 615:SynaptiX_FDK/services/cJSON/cJSON.c ****      * dependent decimal point with '.' */
 616:SynaptiX_FDK/services/cJSON/cJSON.c ****     for (i = 0; i < ((size_t)length); i++)
 617:SynaptiX_FDK/services/cJSON/cJSON.c ****     {
 618:SynaptiX_FDK/services/cJSON/cJSON.c ****         if (number_buffer[i] == decimal_point)
 619:SynaptiX_FDK/services/cJSON/cJSON.c ****         {
 620:SynaptiX_FDK/services/cJSON/cJSON.c ****             output_pointer[i] = '.';
 621:SynaptiX_FDK/services/cJSON/cJSON.c ****             continue;
 622:SynaptiX_FDK/services/cJSON/cJSON.c ****         }
 623:SynaptiX_FDK/services/cJSON/cJSON.c **** 
 624:SynaptiX_FDK/services/cJSON/cJSON.c ****         output_pointer[i] = number_buffer[i];
 625:SynaptiX_FDK/services/cJSON/cJSON.c ****     }
 626:SynaptiX_FDK/services/cJSON/cJSON.c ****     output_pointer[i] = '\0';
 627:SynaptiX_FDK/services/cJSON/cJSON.c **** 
 628:SynaptiX_FDK/services/cJSON/cJSON.c ****     output_buffer->offset += (size_t)length;
 629:SynaptiX_FDK/services/cJSON/cJSON.c **** 
 630:SynaptiX_FDK/services/cJSON/cJSON.c ****     return true;
 631:SynaptiX_FDK/services/cJSON/cJSON.c **** }
 632:SynaptiX_FDK/services/cJSON/cJSON.c **** 
 633:SynaptiX_FDK/services/cJSON/cJSON.c **** /* parse 4 digit hexadecimal number */
 634:SynaptiX_FDK/services/cJSON/cJSON.c **** static unsigned parse_hex4(const unsigned char * const input)
 635:SynaptiX_FDK/services/cJSON/cJSON.c **** {
 287              		.loc 1 635 1 is_stmt 1 view -0
 288              		.cfi_startproc
 289              		@ args = 0, pretend = 0, frame = 0
 290              		@ frame_needed = 0, uses_anonymous_args = 0
 291              		@ link register save eliminated.
 292              		.loc 1 635 1 is_stmt 0 view .LVU64
 293 0000 8446     		mov	ip, r0
 636:SynaptiX_FDK/services/cJSON/cJSON.c ****     unsigned int h = 0;
 294              		.loc 1 636 5 is_stmt 1 view .LVU65
 295              	.LVL28:
 637:SynaptiX_FDK/services/cJSON/cJSON.c ****     size_t i = 0;
 296              		.loc 1 637 5 view .LVU66
 638:SynaptiX_FDK/services/cJSON/cJSON.c **** 
 639:SynaptiX_FDK/services/cJSON/cJSON.c ****     for (i = 0; i < 4; i++)
 297              		.loc 1 639 5 view .LVU67
 298              		.loc 1 639 12 is_stmt 0 view .LVU68
 299 0002 0022     		movs	r2, #0
 636:SynaptiX_FDK/services/cJSON/cJSON.c ****     size_t i = 0;
 300              		.loc 1 636 18 view .LVU69
 301 0004 1046     		mov	r0, r2
 302              	.LVL29:
 303              		.loc 1 639 5 view .LVU70
 304 0006 0BE0     		b	.L31
 305              	.LVL30:
 306              	.L32:
 640:SynaptiX_FDK/services/cJSON/cJSON.c ****     {
 641:SynaptiX_FDK/services/cJSON/cJSON.c ****         /* parse digit */
 642:SynaptiX_FDK/services/cJSON/cJSON.c ****         if ((input[i] >= '0') && (input[i] <= '9'))
 643:SynaptiX_FDK/services/cJSON/cJSON.c ****         {
 644:SynaptiX_FDK/services/cJSON/cJSON.c ****             h += (unsigned int) input[i] - '0';
 645:SynaptiX_FDK/services/cJSON/cJSON.c ****         }
ARM GAS  C:\Users\DELL\AppData\Local\Temp\ccXjhdgA.s 			page 18


 646:SynaptiX_FDK/services/cJSON/cJSON.c ****         else if ((input[i] >= 'A') && (input[i] <= 'F'))
 307              		.loc 1 646 14 is_stmt 1 view .LVU71
 308              		.loc 1 646 36 is_stmt 0 view .LVU72
 309 0008 A1F14103 		sub	r3, r1, #65
 310 000c DBB2     		uxtb	r3, r3
 311              		.loc 1 646 17 view .LVU73
 312 000e 052B     		cmp	r3, #5
 313 0010 12D8     		bhi	.L34
 647:SynaptiX_FDK/services/cJSON/cJSON.c ****         {
 648:SynaptiX_FDK/services/cJSON/cJSON.c ****             h += (unsigned int) 10 + input[i] - 'A';
 314              		.loc 1 648 13 is_stmt 1 view .LVU74
 315              		.loc 1 648 15 is_stmt 0 view .LVU75
 316 0012 0B18     		adds	r3, r1, r0
 317 0014 A3F13700 		sub	r0, r3, #55
 318              	.LVL31:
 319              	.L33:
 649:SynaptiX_FDK/services/cJSON/cJSON.c ****         }
 650:SynaptiX_FDK/services/cJSON/cJSON.c ****         else if ((input[i] >= 'a') && (input[i] <= 'f'))
 651:SynaptiX_FDK/services/cJSON/cJSON.c ****         {
 652:SynaptiX_FDK/services/cJSON/cJSON.c ****             h += (unsigned int) 10 + input[i] - 'a';
 653:SynaptiX_FDK/services/cJSON/cJSON.c ****         }
 654:SynaptiX_FDK/services/cJSON/cJSON.c ****         else /* invalid */
 655:SynaptiX_FDK/services/cJSON/cJSON.c ****         {
 656:SynaptiX_FDK/services/cJSON/cJSON.c ****             return 0;
 657:SynaptiX_FDK/services/cJSON/cJSON.c ****         }
 658:SynaptiX_FDK/services/cJSON/cJSON.c **** 
 659:SynaptiX_FDK/services/cJSON/cJSON.c ****         if (i < 3)
 320              		.loc 1 659 9 is_stmt 1 view .LVU76
 321              		.loc 1 659 12 is_stmt 0 view .LVU77
 322 0018 022A     		cmp	r2, #2
 323 001a 00D8     		bhi	.L36
 660:SynaptiX_FDK/services/cJSON/cJSON.c ****         {
 661:SynaptiX_FDK/services/cJSON/cJSON.c ****             /* shift left to make place for the next nibble */
 662:SynaptiX_FDK/services/cJSON/cJSON.c ****             h = h << 4;
 324              		.loc 1 662 13 is_stmt 1 view .LVU78
 325              		.loc 1 662 15 is_stmt 0 view .LVU79
 326 001c 0001     		lsls	r0, r0, #4
 327              	.LVL32:
 328              	.L36:
 639:SynaptiX_FDK/services/cJSON/cJSON.c ****     {
 329              		.loc 1 639 25 is_stmt 1 discriminator 2 view .LVU80
 330 001e 0132     		adds	r2, r2, #1
 331              	.LVL33:
 332              	.L31:
 639:SynaptiX_FDK/services/cJSON/cJSON.c ****     {
 333              		.loc 1 639 19 discriminator 1 view .LVU81
 334 0020 032A     		cmp	r2, #3
 335 0022 12D8     		bhi	.L39
 642:SynaptiX_FDK/services/cJSON/cJSON.c ****         {
 336              		.loc 1 642 9 view .LVU82
 642:SynaptiX_FDK/services/cJSON/cJSON.c ****         {
 337              		.loc 1 642 19 is_stmt 0 view .LVU83
 338 0024 1CF80210 		ldrb	r1, [ip, r2]	@ zero_extendqisi2
 642:SynaptiX_FDK/services/cJSON/cJSON.c ****         {
 339              		.loc 1 642 31 view .LVU84
 340 0028 A1F13003 		sub	r3, r1, #48
 341 002c DBB2     		uxtb	r3, r3
ARM GAS  C:\Users\DELL\AppData\Local\Temp\ccXjhdgA.s 			page 19


 642:SynaptiX_FDK/services/cJSON/cJSON.c ****         {
 342              		.loc 1 642 12 view .LVU85
 343 002e 092B     		cmp	r3, #9
 344 0030 EAD8     		bhi	.L32
 644:SynaptiX_FDK/services/cJSON/cJSON.c ****         }
 345              		.loc 1 644 13 is_stmt 1 view .LVU86
 644:SynaptiX_FDK/services/cJSON/cJSON.c ****         }
 346              		.loc 1 644 15 is_stmt 0 view .LVU87
 347 0032 0844     		add	r0, r0, r1
 348              	.LVL34:
 644:SynaptiX_FDK/services/cJSON/cJSON.c ****         }
 349              		.loc 1 644 15 view .LVU88
 350 0034 3038     		subs	r0, r0, #48
 351              	.LVL35:
 644:SynaptiX_FDK/services/cJSON/cJSON.c ****         }
 352              		.loc 1 644 15 view .LVU89
 353 0036 EFE7     		b	.L33
 354              	.L34:
 650:SynaptiX_FDK/services/cJSON/cJSON.c ****         {
 355              		.loc 1 650 14 is_stmt 1 view .LVU90
 650:SynaptiX_FDK/services/cJSON/cJSON.c ****         {
 356              		.loc 1 650 36 is_stmt 0 view .LVU91
 357 0038 A1F16103 		sub	r3, r1, #97
 358 003c DBB2     		uxtb	r3, r3
 650:SynaptiX_FDK/services/cJSON/cJSON.c ****         {
 359              		.loc 1 650 17 view .LVU92
 360 003e 052B     		cmp	r3, #5
 361 0040 04D8     		bhi	.L38
 652:SynaptiX_FDK/services/cJSON/cJSON.c ****         }
 362              		.loc 1 652 13 is_stmt 1 view .LVU93
 652:SynaptiX_FDK/services/cJSON/cJSON.c ****         }
 363              		.loc 1 652 15 is_stmt 0 view .LVU94
 364 0042 0B18     		adds	r3, r1, r0
 365 0044 A3F15700 		sub	r0, r3, #87
 366              	.LVL36:
 652:SynaptiX_FDK/services/cJSON/cJSON.c ****         }
 367              		.loc 1 652 15 view .LVU95
 368 0048 E6E7     		b	.L33
 369              	.LVL37:
 370              	.L39:
 652:SynaptiX_FDK/services/cJSON/cJSON.c ****         }
 371              		.loc 1 652 15 view .LVU96
 372 004a 7047     		bx	lr
 373              	.L38:
 656:SynaptiX_FDK/services/cJSON/cJSON.c ****         }
 374              		.loc 1 656 20 view .LVU97
 375 004c 0020     		movs	r0, #0
 376              	.LVL38:
 663:SynaptiX_FDK/services/cJSON/cJSON.c ****         }
 664:SynaptiX_FDK/services/cJSON/cJSON.c ****     }
 665:SynaptiX_FDK/services/cJSON/cJSON.c **** 
 666:SynaptiX_FDK/services/cJSON/cJSON.c ****     return h;
 667:SynaptiX_FDK/services/cJSON/cJSON.c **** }
 377              		.loc 1 667 1 view .LVU98
 378 004e 7047     		bx	lr
 379              		.cfi_endproc
 380              	.LFE21:
ARM GAS  C:\Users\DELL\AppData\Local\Temp\ccXjhdgA.s 			page 20


 382              		.section	.text.utf16_literal_to_utf8,"ax",%progbits
 383              		.align	1
 384              		.syntax unified
 385              		.thumb
 386              		.thumb_func
 388              	utf16_literal_to_utf8:
 389              	.LVL39:
 390              	.LFB22:
 668:SynaptiX_FDK/services/cJSON/cJSON.c **** 
 669:SynaptiX_FDK/services/cJSON/cJSON.c **** /* converts a UTF-16 literal to UTF-8
 670:SynaptiX_FDK/services/cJSON/cJSON.c ****  * A literal can be one or two sequences of the form \uXXXX */
 671:SynaptiX_FDK/services/cJSON/cJSON.c **** static unsigned char utf16_literal_to_utf8(const unsigned char * const input_pointer, const unsigne
 672:SynaptiX_FDK/services/cJSON/cJSON.c **** {
 391              		.loc 1 672 1 is_stmt 1 view -0
 392              		.cfi_startproc
 393              		@ args = 0, pretend = 0, frame = 0
 394              		@ frame_needed = 0, uses_anonymous_args = 0
 395              		.loc 1 672 1 is_stmt 0 view .LVU100
 396 0000 F8B5     		push	{r3, r4, r5, r6, r7, lr}
 397              	.LCFI4:
 398              		.cfi_def_cfa_offset 24
 399              		.cfi_offset 3, -24
 400              		.cfi_offset 4, -20
 401              		.cfi_offset 5, -16
 402              		.cfi_offset 6, -12
 403              		.cfi_offset 7, -8
 404              		.cfi_offset 14, -4
 673:SynaptiX_FDK/services/cJSON/cJSON.c ****     long unsigned int codepoint = 0;
 405              		.loc 1 673 5 is_stmt 1 view .LVU101
 406              	.LVL40:
 674:SynaptiX_FDK/services/cJSON/cJSON.c ****     unsigned int first_code = 0;
 407              		.loc 1 674 5 view .LVU102
 675:SynaptiX_FDK/services/cJSON/cJSON.c ****     const unsigned char *first_sequence = input_pointer;
 408              		.loc 1 675 5 view .LVU103
 676:SynaptiX_FDK/services/cJSON/cJSON.c ****     unsigned char utf8_length = 0;
 409              		.loc 1 676 5 view .LVU104
 677:SynaptiX_FDK/services/cJSON/cJSON.c ****     unsigned char utf8_position = 0;
 410              		.loc 1 677 5 view .LVU105
 678:SynaptiX_FDK/services/cJSON/cJSON.c ****     unsigned char sequence_length = 0;
 411              		.loc 1 678 5 view .LVU106
 679:SynaptiX_FDK/services/cJSON/cJSON.c ****     unsigned char first_byte_mark = 0;
 412              		.loc 1 679 5 view .LVU107
 680:SynaptiX_FDK/services/cJSON/cJSON.c **** 
 681:SynaptiX_FDK/services/cJSON/cJSON.c ****     if ((input_end - first_sequence) < 6)
 413              		.loc 1 681 5 view .LVU108
 414              		.loc 1 681 20 is_stmt 0 view .LVU109
 415 0002 0B1A     		subs	r3, r1, r0
 416              		.loc 1 681 8 view .LVU110
 417 0004 052B     		cmp	r3, #5
 418 0006 61DD     		ble	.L49
 419 0008 0646     		mov	r6, r0
 420 000a 0F46     		mov	r7, r1
 421 000c 1546     		mov	r5, r2
 682:SynaptiX_FDK/services/cJSON/cJSON.c ****     {
 683:SynaptiX_FDK/services/cJSON/cJSON.c ****         /* input ends unexpectedly */
 684:SynaptiX_FDK/services/cJSON/cJSON.c ****         goto fail;
 685:SynaptiX_FDK/services/cJSON/cJSON.c ****     }
ARM GAS  C:\Users\DELL\AppData\Local\Temp\ccXjhdgA.s 			page 21


 686:SynaptiX_FDK/services/cJSON/cJSON.c **** 
 687:SynaptiX_FDK/services/cJSON/cJSON.c ****     /* get the first utf16 sequence */
 688:SynaptiX_FDK/services/cJSON/cJSON.c ****     first_code = parse_hex4(first_sequence + 2);
 422              		.loc 1 688 5 is_stmt 1 view .LVU111
 423              		.loc 1 688 18 is_stmt 0 view .LVU112
 424 000e 0230     		adds	r0, r0, #2
 425              	.LVL41:
 426              		.loc 1 688 18 view .LVU113
 427 0010 FFF7FEFF 		bl	parse_hex4
 428              	.LVL42:
 429              		.loc 1 688 18 view .LVU114
 430 0014 0446     		mov	r4, r0
 431              	.LVL43:
 689:SynaptiX_FDK/services/cJSON/cJSON.c **** 
 690:SynaptiX_FDK/services/cJSON/cJSON.c ****     /* check that the code is valid */
 691:SynaptiX_FDK/services/cJSON/cJSON.c ****     if (((first_code >= 0xDC00) && (first_code <= 0xDFFF)))
 432              		.loc 1 691 5 is_stmt 1 view .LVU115
 433              		.loc 1 691 33 is_stmt 0 view .LVU116
 434 0016 A0F55C43 		sub	r3, r0, #56320
 435              		.loc 1 691 8 view .LVU117
 436 001a B3F5806F 		cmp	r3, #1024
 437 001e 57D3     		bcc	.L50
 692:SynaptiX_FDK/services/cJSON/cJSON.c ****     {
 693:SynaptiX_FDK/services/cJSON/cJSON.c ****         goto fail;
 694:SynaptiX_FDK/services/cJSON/cJSON.c ****     }
 695:SynaptiX_FDK/services/cJSON/cJSON.c **** 
 696:SynaptiX_FDK/services/cJSON/cJSON.c ****     /* UTF16 surrogate pair */
 697:SynaptiX_FDK/services/cJSON/cJSON.c ****     if ((first_code >= 0xD800) && (first_code <= 0xDBFF))
 438              		.loc 1 697 5 is_stmt 1 view .LVU118
 439              		.loc 1 697 32 is_stmt 0 view .LVU119
 440 0020 A0F55843 		sub	r3, r0, #55296
 441              		.loc 1 697 8 view .LVU120
 442 0024 B3F5806F 		cmp	r3, #1024
 443 0028 1CD2     		bcs	.L42
 444              	.LBB5:
 698:SynaptiX_FDK/services/cJSON/cJSON.c ****     {
 699:SynaptiX_FDK/services/cJSON/cJSON.c ****         const unsigned char *second_sequence = first_sequence + 6;
 445              		.loc 1 699 9 is_stmt 1 view .LVU121
 446              		.loc 1 699 30 is_stmt 0 view .LVU122
 447 002a B31D     		adds	r3, r6, #6
 448              	.LVL44:
 700:SynaptiX_FDK/services/cJSON/cJSON.c ****         unsigned int second_code = 0;
 449              		.loc 1 700 9 is_stmt 1 view .LVU123
 701:SynaptiX_FDK/services/cJSON/cJSON.c ****         sequence_length = 12; /* \uXXXX\uXXXX */
 450              		.loc 1 701 9 view .LVU124
 702:SynaptiX_FDK/services/cJSON/cJSON.c **** 
 703:SynaptiX_FDK/services/cJSON/cJSON.c ****         if ((input_end - second_sequence) < 6)
 451              		.loc 1 703 9 view .LVU125
 452              		.loc 1 703 24 is_stmt 0 view .LVU126
 453 002c FF1A     		subs	r7, r7, r3
 454              	.LVL45:
 455              		.loc 1 703 12 view .LVU127
 456 002e 052F     		cmp	r7, #5
 457 0030 50DD     		ble	.L51
 704:SynaptiX_FDK/services/cJSON/cJSON.c ****         {
 705:SynaptiX_FDK/services/cJSON/cJSON.c ****             /* input ends unexpectedly */
 706:SynaptiX_FDK/services/cJSON/cJSON.c ****             goto fail;
ARM GAS  C:\Users\DELL\AppData\Local\Temp\ccXjhdgA.s 			page 22


 707:SynaptiX_FDK/services/cJSON/cJSON.c ****         }
 708:SynaptiX_FDK/services/cJSON/cJSON.c **** 
 709:SynaptiX_FDK/services/cJSON/cJSON.c ****         if ((second_sequence[0] != '\\') || (second_sequence[1] != 'u'))
 458              		.loc 1 709 9 is_stmt 1 view .LVU128
 459              		.loc 1 709 29 is_stmt 0 view .LVU129
 460 0032 B379     		ldrb	r3, [r6, #6]	@ zero_extendqisi2
 461              	.LVL46:
 462              		.loc 1 709 12 view .LVU130
 463 0034 5C2B     		cmp	r3, #92
 464 0036 4FD1     		bne	.L52
 465              		.loc 1 709 61 discriminator 1 view .LVU131
 466 0038 F379     		ldrb	r3, [r6, #7]	@ zero_extendqisi2
 467              		.loc 1 709 42 discriminator 1 view .LVU132
 468 003a 752B     		cmp	r3, #117
 469 003c 4ED1     		bne	.L53
 710:SynaptiX_FDK/services/cJSON/cJSON.c ****         {
 711:SynaptiX_FDK/services/cJSON/cJSON.c ****             /* missing second half of the surrogate pair */
 712:SynaptiX_FDK/services/cJSON/cJSON.c ****             goto fail;
 713:SynaptiX_FDK/services/cJSON/cJSON.c ****         }
 714:SynaptiX_FDK/services/cJSON/cJSON.c **** 
 715:SynaptiX_FDK/services/cJSON/cJSON.c ****         /* get the second utf16 sequence */
 716:SynaptiX_FDK/services/cJSON/cJSON.c ****         second_code = parse_hex4(second_sequence + 2);
 470              		.loc 1 716 9 is_stmt 1 view .LVU133
 471              		.loc 1 716 23 is_stmt 0 view .LVU134
 472 003e 06F10800 		add	r0, r6, #8
 473              	.LVL47:
 474              		.loc 1 716 23 view .LVU135
 475 0042 FFF7FEFF 		bl	parse_hex4
 476              	.LVL48:
 717:SynaptiX_FDK/services/cJSON/cJSON.c ****         /* check that the code is valid */
 718:SynaptiX_FDK/services/cJSON/cJSON.c ****         if ((second_code < 0xDC00) || (second_code > 0xDFFF))
 477              		.loc 1 718 9 is_stmt 1 view .LVU136
 478              		.loc 1 718 36 is_stmt 0 view .LVU137
 479 0046 A0F55C43 		sub	r3, r0, #56320
 480              		.loc 1 718 12 view .LVU138
 481 004a B3F5806F 		cmp	r3, #1024
 482 004e 47D2     		bcs	.L54
 719:SynaptiX_FDK/services/cJSON/cJSON.c ****         {
 720:SynaptiX_FDK/services/cJSON/cJSON.c ****             /* invalid second half of the surrogate pair */
 721:SynaptiX_FDK/services/cJSON/cJSON.c ****             goto fail;
 722:SynaptiX_FDK/services/cJSON/cJSON.c ****         }
 723:SynaptiX_FDK/services/cJSON/cJSON.c **** 
 724:SynaptiX_FDK/services/cJSON/cJSON.c **** 
 725:SynaptiX_FDK/services/cJSON/cJSON.c ****         /* calculate the unicode codepoint from the surrogate pair */
 726:SynaptiX_FDK/services/cJSON/cJSON.c ****         codepoint = 0x10000 + (((first_code & 0x3FF) << 10) | (second_code & 0x3FF));
 483              		.loc 1 726 9 is_stmt 1 view .LVU139
 484              		.loc 1 726 54 is_stmt 0 view .LVU140
 485 0050 254B     		ldr	r3, .L60
 486 0052 03EA8423 		and	r3, r3, r4, lsl #10
 487              		.loc 1 726 76 view .LVU141
 488 0056 C0F30900 		ubfx	r0, r0, #0, #10
 489              	.LVL49:
 490              		.loc 1 726 61 view .LVU142
 491 005a 0343     		orrs	r3, r3, r0
 492              		.loc 1 726 19 view .LVU143
 493 005c 03F58034 		add	r4, r3, #65536
 494              	.LVL50:
ARM GAS  C:\Users\DELL\AppData\Local\Temp\ccXjhdgA.s 			page 23


 495              		.loc 1 726 19 view .LVU144
 496              	.LBE5:
 727:SynaptiX_FDK/services/cJSON/cJSON.c ****     }
 728:SynaptiX_FDK/services/cJSON/cJSON.c ****     else
 729:SynaptiX_FDK/services/cJSON/cJSON.c ****     {
 730:SynaptiX_FDK/services/cJSON/cJSON.c ****         sequence_length = 6; /* \uXXXX */
 731:SynaptiX_FDK/services/cJSON/cJSON.c ****         codepoint = first_code;
 732:SynaptiX_FDK/services/cJSON/cJSON.c ****     }
 733:SynaptiX_FDK/services/cJSON/cJSON.c **** 
 734:SynaptiX_FDK/services/cJSON/cJSON.c ****     /* encode as UTF-8
 735:SynaptiX_FDK/services/cJSON/cJSON.c ****      * takes at maximum 4 bytes to encode:
 736:SynaptiX_FDK/services/cJSON/cJSON.c ****      * 11110xxx 10xxxxxx 10xxxxxx 10xxxxxx */
 737:SynaptiX_FDK/services/cJSON/cJSON.c ****     if (codepoint < 0x80)
 497              		.loc 1 737 5 is_stmt 1 view .LVU145
 498              	.LBB6:
 701:SynaptiX_FDK/services/cJSON/cJSON.c **** 
 499              		.loc 1 701 25 is_stmt 0 view .LVU146
 500 0060 0C20     		movs	r0, #12
 501 0062 02E0     		b	.L43
 502              	.LVL51:
 503              	.L42:
 701:SynaptiX_FDK/services/cJSON/cJSON.c **** 
 504              		.loc 1 701 25 view .LVU147
 505              	.LBE6:
 506              		.loc 1 737 5 is_stmt 1 view .LVU148
 507              		.loc 1 737 8 is_stmt 0 view .LVU149
 508 0064 7F28     		cmp	r0, #127
 509 0066 0CD9     		bls	.L55
 510 0068 0620     		movs	r0, #6
 511              	.LVL52:
 512              	.L43:
 738:SynaptiX_FDK/services/cJSON/cJSON.c ****     {
 739:SynaptiX_FDK/services/cJSON/cJSON.c ****         /* normal ascii, encoding 0xxxxxxx */
 740:SynaptiX_FDK/services/cJSON/cJSON.c ****         utf8_length = 1;
 741:SynaptiX_FDK/services/cJSON/cJSON.c ****     }
 742:SynaptiX_FDK/services/cJSON/cJSON.c ****     else if (codepoint < 0x800)
 513              		.loc 1 742 10 is_stmt 1 view .LVU150
 514              		.loc 1 742 13 is_stmt 0 view .LVU151
 515 006a B4F5006F 		cmp	r4, #2048
 516 006e 0ED3     		bcc	.L56
 743:SynaptiX_FDK/services/cJSON/cJSON.c ****     {
 744:SynaptiX_FDK/services/cJSON/cJSON.c ****         /* two bytes, encoding 110xxxxx 10xxxxxx */
 745:SynaptiX_FDK/services/cJSON/cJSON.c ****         utf8_length = 2;
 746:SynaptiX_FDK/services/cJSON/cJSON.c ****         first_byte_mark = 0xC0; /* 11000000 */
 747:SynaptiX_FDK/services/cJSON/cJSON.c ****     }
 748:SynaptiX_FDK/services/cJSON/cJSON.c ****     else if (codepoint < 0x10000)
 517              		.loc 1 748 10 is_stmt 1 view .LVU152
 518              		.loc 1 748 13 is_stmt 0 view .LVU153
 519 0070 B4F5803F 		cmp	r4, #65536
 520 0074 0ED3     		bcc	.L57
 749:SynaptiX_FDK/services/cJSON/cJSON.c ****     {
 750:SynaptiX_FDK/services/cJSON/cJSON.c ****         /* three bytes, encoding 1110xxxx 10xxxxxx 10xxxxxx */
 751:SynaptiX_FDK/services/cJSON/cJSON.c ****         utf8_length = 3;
 752:SynaptiX_FDK/services/cJSON/cJSON.c ****         first_byte_mark = 0xE0; /* 11100000 */
 753:SynaptiX_FDK/services/cJSON/cJSON.c ****     }
 754:SynaptiX_FDK/services/cJSON/cJSON.c ****     else if (codepoint <= 0x10FFFF)
 521              		.loc 1 754 10 is_stmt 1 view .LVU154
ARM GAS  C:\Users\DELL\AppData\Local\Temp\ccXjhdgA.s 			page 24


 522              		.loc 1 754 13 is_stmt 0 view .LVU155
 523 0076 B4F5881F 		cmp	r4, #1114112
 524 007a 33D2     		bcs	.L58
 755:SynaptiX_FDK/services/cJSON/cJSON.c ****     {
 756:SynaptiX_FDK/services/cJSON/cJSON.c ****         /* four bytes, encoding 1110xxxx 10xxxxxx 10xxxxxx 10xxxxxx */
 757:SynaptiX_FDK/services/cJSON/cJSON.c ****         utf8_length = 4;
 758:SynaptiX_FDK/services/cJSON/cJSON.c ****         first_byte_mark = 0xF0; /* 11110000 */
 525              		.loc 1 758 25 view .LVU156
 526 007c F027     		movs	r7, #240
 757:SynaptiX_FDK/services/cJSON/cJSON.c ****         first_byte_mark = 0xF0; /* 11110000 */
 527              		.loc 1 757 21 view .LVU157
 528 007e 0426     		movs	r6, #4
 529              	.LVL53:
 757:SynaptiX_FDK/services/cJSON/cJSON.c ****         first_byte_mark = 0xF0; /* 11110000 */
 530              		.loc 1 757 21 view .LVU158
 531 0080 02E0     		b	.L44
 532              	.LVL54:
 533              	.L55:
 757:SynaptiX_FDK/services/cJSON/cJSON.c ****         first_byte_mark = 0xF0; /* 11110000 */
 534              		.loc 1 757 21 view .LVU159
 535 0082 0620     		movs	r0, #6
 536              	.LVL55:
 679:SynaptiX_FDK/services/cJSON/cJSON.c **** 
 537              		.loc 1 679 19 view .LVU160
 538 0084 0027     		movs	r7, #0
 539              	.LVL56:
 740:SynaptiX_FDK/services/cJSON/cJSON.c ****     }
 540              		.loc 1 740 21 view .LVU161
 541 0086 0126     		movs	r6, #1
 542              	.LVL57:
 543              	.L44:
 759:SynaptiX_FDK/services/cJSON/cJSON.c ****     }
 760:SynaptiX_FDK/services/cJSON/cJSON.c ****     else
 761:SynaptiX_FDK/services/cJSON/cJSON.c ****     {
 762:SynaptiX_FDK/services/cJSON/cJSON.c ****         /* invalid unicode codepoint */
 763:SynaptiX_FDK/services/cJSON/cJSON.c ****         goto fail;
 764:SynaptiX_FDK/services/cJSON/cJSON.c ****     }
 765:SynaptiX_FDK/services/cJSON/cJSON.c **** 
 766:SynaptiX_FDK/services/cJSON/cJSON.c ****     /* encode as utf8 */
 767:SynaptiX_FDK/services/cJSON/cJSON.c ****     for (utf8_position = (unsigned char)(utf8_length - 1); utf8_position > 0; utf8_position--)
 544              		.loc 1 767 5 is_stmt 1 view .LVU162
 545              		.loc 1 767 24 is_stmt 0 view .LVU163
 546 0088 731E     		subs	r3, r6, #1
 547 008a DBB2     		uxtb	r3, r3
 548              	.LVL58:
 549              		.loc 1 767 5 view .LVU164
 550 008c 0EE0     		b	.L45
 551              	.LVL59:
 552              	.L56:
 746:SynaptiX_FDK/services/cJSON/cJSON.c ****     }
 553              		.loc 1 746 25 view .LVU165
 554 008e C027     		movs	r7, #192
 745:SynaptiX_FDK/services/cJSON/cJSON.c ****         first_byte_mark = 0xC0; /* 11000000 */
 555              		.loc 1 745 21 view .LVU166
 556 0090 0226     		movs	r6, #2
 557              	.LVL60:
 745:SynaptiX_FDK/services/cJSON/cJSON.c ****         first_byte_mark = 0xC0; /* 11000000 */
ARM GAS  C:\Users\DELL\AppData\Local\Temp\ccXjhdgA.s 			page 25


 558              		.loc 1 745 21 view .LVU167
 559 0092 F9E7     		b	.L44
 560              	.LVL61:
 561              	.L57:
 752:SynaptiX_FDK/services/cJSON/cJSON.c ****     }
 562              		.loc 1 752 25 view .LVU168
 563 0094 E027     		movs	r7, #224
 751:SynaptiX_FDK/services/cJSON/cJSON.c ****         first_byte_mark = 0xE0; /* 11100000 */
 564              		.loc 1 751 21 view .LVU169
 565 0096 0326     		movs	r6, #3
 566              	.LVL62:
 751:SynaptiX_FDK/services/cJSON/cJSON.c ****         first_byte_mark = 0xE0; /* 11100000 */
 567              		.loc 1 751 21 view .LVU170
 568 0098 F6E7     		b	.L44
 569              	.LVL63:
 570              	.L46:
 768:SynaptiX_FDK/services/cJSON/cJSON.c ****     {
 769:SynaptiX_FDK/services/cJSON/cJSON.c ****         /* 10xxxxxx */
 770:SynaptiX_FDK/services/cJSON/cJSON.c ****         (*output_pointer)[utf8_position] = (unsigned char)((codepoint | 0x80) & 0xBF);
 571              		.loc 1 770 9 is_stmt 1 view .LVU171
 572              		.loc 1 770 79 is_stmt 0 view .LVU172
 573 009a 04F03F01 		and	r1, r4, #63
 574              		.loc 1 770 10 view .LVU173
 575 009e 2A68     		ldr	r2, [r5]
 576              		.loc 1 770 44 view .LVU174
 577 00a0 41F08001 		orr	r1, r1, #128
 578              		.loc 1 770 42 view .LVU175
 579 00a4 D154     		strb	r1, [r2, r3]
 771:SynaptiX_FDK/services/cJSON/cJSON.c ****         codepoint >>= 6;
 580              		.loc 1 771 9 is_stmt 1 view .LVU176
 581              		.loc 1 771 19 is_stmt 0 view .LVU177
 582 00a6 A409     		lsrs	r4, r4, #6
 583              	.LVL64:
 767:SynaptiX_FDK/services/cJSON/cJSON.c ****     {
 584              		.loc 1 767 92 is_stmt 1 discriminator 3 view .LVU178
 585 00a8 013B     		subs	r3, r3, #1
 586              	.LVL65:
 767:SynaptiX_FDK/services/cJSON/cJSON.c ****     {
 587              		.loc 1 767 92 is_stmt 0 discriminator 3 view .LVU179
 588 00aa DBB2     		uxtb	r3, r3
 589              	.LVL66:
 590              	.L45:
 767:SynaptiX_FDK/services/cJSON/cJSON.c ****     {
 591              		.loc 1 767 74 is_stmt 1 discriminator 1 view .LVU180
 592 00ac 002B     		cmp	r3, #0
 593 00ae F4D1     		bne	.L46
 772:SynaptiX_FDK/services/cJSON/cJSON.c ****     }
 773:SynaptiX_FDK/services/cJSON/cJSON.c ****     /* encode first byte */
 774:SynaptiX_FDK/services/cJSON/cJSON.c ****     if (utf8_length > 1)
 594              		.loc 1 774 5 view .LVU181
 595              		.loc 1 774 8 is_stmt 0 view .LVU182
 596 00b0 012E     		cmp	r6, #1
 597 00b2 06D9     		bls	.L47
 775:SynaptiX_FDK/services/cJSON/cJSON.c ****     {
 776:SynaptiX_FDK/services/cJSON/cJSON.c ****         (*output_pointer)[0] = (unsigned char)((codepoint | first_byte_mark) & 0xFF);
 598              		.loc 1 776 9 is_stmt 1 view .LVU183
 599              		.loc 1 776 10 is_stmt 0 view .LVU184
ARM GAS  C:\Users\DELL\AppData\Local\Temp\ccXjhdgA.s 			page 26


 600 00b4 2B68     		ldr	r3, [r5]
 601              	.LVL67:
 602              		.loc 1 776 32 view .LVU185
 603 00b6 2743     		orrs	r7, r7, r4
 604              	.LVL68:
 605              		.loc 1 776 30 view .LVU186
 606 00b8 1F70     		strb	r7, [r3]
 607              	.LVL69:
 608              	.L48:
 777:SynaptiX_FDK/services/cJSON/cJSON.c ****     }
 778:SynaptiX_FDK/services/cJSON/cJSON.c ****     else
 779:SynaptiX_FDK/services/cJSON/cJSON.c ****     {
 780:SynaptiX_FDK/services/cJSON/cJSON.c ****         (*output_pointer)[0] = (unsigned char)(codepoint & 0x7F);
 781:SynaptiX_FDK/services/cJSON/cJSON.c ****     }
 782:SynaptiX_FDK/services/cJSON/cJSON.c **** 
 783:SynaptiX_FDK/services/cJSON/cJSON.c ****     *output_pointer += utf8_length;
 609              		.loc 1 783 5 is_stmt 1 view .LVU187
 610 00ba 2B68     		ldr	r3, [r5]
 611              		.loc 1 783 21 is_stmt 0 view .LVU188
 612 00bc 3344     		add	r3, r3, r6
 613 00be 2B60     		str	r3, [r5]
 784:SynaptiX_FDK/services/cJSON/cJSON.c **** 
 785:SynaptiX_FDK/services/cJSON/cJSON.c ****     return sequence_length;
 614              		.loc 1 785 5 is_stmt 1 view .LVU189
 615              		.loc 1 785 12 is_stmt 0 view .LVU190
 616 00c0 05E0     		b	.L41
 617              	.LVL70:
 618              	.L47:
 780:SynaptiX_FDK/services/cJSON/cJSON.c ****     }
 619              		.loc 1 780 9 is_stmt 1 view .LVU191
 780:SynaptiX_FDK/services/cJSON/cJSON.c ****     }
 620              		.loc 1 780 10 is_stmt 0 view .LVU192
 621 00c2 2B68     		ldr	r3, [r5]
 622              	.LVL71:
 780:SynaptiX_FDK/services/cJSON/cJSON.c ****     }
 623              		.loc 1 780 32 view .LVU193
 624 00c4 04F07F04 		and	r4, r4, #127
 625              	.LVL72:
 780:SynaptiX_FDK/services/cJSON/cJSON.c ****     }
 626              		.loc 1 780 30 view .LVU194
 627 00c8 1C70     		strb	r4, [r3]
 628 00ca F6E7     		b	.L48
 629              	.LVL73:
 630              	.L49:
 786:SynaptiX_FDK/services/cJSON/cJSON.c **** 
 787:SynaptiX_FDK/services/cJSON/cJSON.c **** fail:
 788:SynaptiX_FDK/services/cJSON/cJSON.c ****     return 0;
 631              		.loc 1 788 12 view .LVU195
 632 00cc 0020     		movs	r0, #0
 633              	.LVL74:
 634              	.L41:
 789:SynaptiX_FDK/services/cJSON/cJSON.c **** }
 635              		.loc 1 789 1 view .LVU196
 636 00ce F8BD     		pop	{r3, r4, r5, r6, r7, pc}
 637              	.LVL75:
 638              	.L50:
 788:SynaptiX_FDK/services/cJSON/cJSON.c **** }
ARM GAS  C:\Users\DELL\AppData\Local\Temp\ccXjhdgA.s 			page 27


 639              		.loc 1 788 12 view .LVU197
 640 00d0 0020     		movs	r0, #0
 641              	.LVL76:
 788:SynaptiX_FDK/services/cJSON/cJSON.c **** }
 642              		.loc 1 788 12 view .LVU198
 643 00d2 FCE7     		b	.L41
 644              	.LVL77:
 645              	.L51:
 788:SynaptiX_FDK/services/cJSON/cJSON.c **** }
 646              		.loc 1 788 12 view .LVU199
 647 00d4 0020     		movs	r0, #0
 648              	.LVL78:
 788:SynaptiX_FDK/services/cJSON/cJSON.c **** }
 649              		.loc 1 788 12 view .LVU200
 650 00d6 FAE7     		b	.L41
 651              	.LVL79:
 652              	.L52:
 788:SynaptiX_FDK/services/cJSON/cJSON.c **** }
 653              		.loc 1 788 12 view .LVU201
 654 00d8 0020     		movs	r0, #0
 655              	.LVL80:
 788:SynaptiX_FDK/services/cJSON/cJSON.c **** }
 656              		.loc 1 788 12 view .LVU202
 657 00da F8E7     		b	.L41
 658              	.LVL81:
 659              	.L53:
 788:SynaptiX_FDK/services/cJSON/cJSON.c **** }
 660              		.loc 1 788 12 view .LVU203
 661 00dc 0020     		movs	r0, #0
 662              	.LVL82:
 788:SynaptiX_FDK/services/cJSON/cJSON.c **** }
 663              		.loc 1 788 12 view .LVU204
 664 00de F6E7     		b	.L41
 665              	.LVL83:
 666              	.L54:
 788:SynaptiX_FDK/services/cJSON/cJSON.c **** }
 667              		.loc 1 788 12 view .LVU205
 668 00e0 0020     		movs	r0, #0
 669              	.LVL84:
 788:SynaptiX_FDK/services/cJSON/cJSON.c **** }
 670              		.loc 1 788 12 view .LVU206
 671 00e2 F4E7     		b	.L41
 672              	.LVL85:
 673              	.L58:
 788:SynaptiX_FDK/services/cJSON/cJSON.c **** }
 674              		.loc 1 788 12 view .LVU207
 675 00e4 0020     		movs	r0, #0
 676 00e6 F2E7     		b	.L41
 677              	.L61:
 678              		.align	2
 679              	.L60:
 680 00e8 00FC0F00 		.word	1047552
 681              		.cfi_endproc
 682              	.LFE22:
 684              		.section	.text.parse_string,"ax",%progbits
 685              		.align	1
 686              		.syntax unified
ARM GAS  C:\Users\DELL\AppData\Local\Temp\ccXjhdgA.s 			page 28


 687              		.thumb
 688              		.thumb_func
 690              	parse_string:
 691              	.LVL86:
 692              	.LFB23:
 790:SynaptiX_FDK/services/cJSON/cJSON.c **** 
 791:SynaptiX_FDK/services/cJSON/cJSON.c **** /* Parse the input text into an unescaped cinput, and populate item. */
 792:SynaptiX_FDK/services/cJSON/cJSON.c **** static cJSON_bool parse_string(cJSON * const item, parse_buffer * const input_buffer)
 793:SynaptiX_FDK/services/cJSON/cJSON.c **** {
 693              		.loc 1 793 1 is_stmt 1 view -0
 694              		.cfi_startproc
 695              		@ args = 0, pretend = 0, frame = 8
 696              		@ frame_needed = 0, uses_anonymous_args = 0
 697              		.loc 1 793 1 is_stmt 0 view .LVU209
 698 0000 2DE9F041 		push	{r4, r5, r6, r7, r8, lr}
 699              	.LCFI5:
 700              		.cfi_def_cfa_offset 24
 701              		.cfi_offset 4, -24
 702              		.cfi_offset 5, -20
 703              		.cfi_offset 6, -16
 704              		.cfi_offset 7, -12
 705              		.cfi_offset 8, -8
 706              		.cfi_offset 14, -4
 707 0004 82B0     		sub	sp, sp, #8
 708              	.LCFI6:
 709              		.cfi_def_cfa_offset 32
 710 0006 8046     		mov	r8, r0
 711 0008 0D46     		mov	r5, r1
 794:SynaptiX_FDK/services/cJSON/cJSON.c ****     const unsigned char *input_pointer = buffer_at_offset(input_buffer) + 1;
 712              		.loc 1 794 5 is_stmt 1 view .LVU210
 713              		.loc 1 794 42 is_stmt 0 view .LVU211
 714 000a 0E68     		ldr	r6, [r1]
 715 000c 8B68     		ldr	r3, [r1, #8]
 716              		.loc 1 794 73 view .LVU212
 717 000e 5F1C     		adds	r7, r3, #1
 718              		.loc 1 794 26 view .LVU213
 719 0010 3744     		add	r7, r7, r6
 720              	.LVL87:
 795:SynaptiX_FDK/services/cJSON/cJSON.c ****     const unsigned char *input_end = buffer_at_offset(input_buffer) + 1;
 721              		.loc 1 795 5 is_stmt 1 view .LVU214
 796:SynaptiX_FDK/services/cJSON/cJSON.c ****     unsigned char *output_pointer = NULL;
 722              		.loc 1 796 5 view .LVU215
 723              		.loc 1 796 20 is_stmt 0 view .LVU216
 724 0012 0022     		movs	r2, #0
 725 0014 0192     		str	r2, [sp, #4]
 797:SynaptiX_FDK/services/cJSON/cJSON.c ****     unsigned char *output = NULL;
 726              		.loc 1 797 5 is_stmt 1 view .LVU217
 727              	.LVL88:
 798:SynaptiX_FDK/services/cJSON/cJSON.c **** 
 799:SynaptiX_FDK/services/cJSON/cJSON.c ****     /* not a string */
 800:SynaptiX_FDK/services/cJSON/cJSON.c ****     if (buffer_at_offset(input_buffer)[0] != '\"')
 728              		.loc 1 800 5 view .LVU218
 729              		.loc 1 800 39 is_stmt 0 view .LVU219
 730 0016 F018     		adds	r0, r6, r3
 731              	.LVL89:
 732              		.loc 1 800 39 view .LVU220
 733 0018 F35C     		ldrb	r3, [r6, r3]	@ zero_extendqisi2
ARM GAS  C:\Users\DELL\AppData\Local\Temp\ccXjhdgA.s 			page 29


 734              		.loc 1 800 8 view .LVU221
 735 001a 222B     		cmp	r3, #34
 736 001c 4ED1     		bne	.L63
 795:SynaptiX_FDK/services/cJSON/cJSON.c ****     unsigned char *output_pointer = NULL;
 737              		.loc 1 795 26 view .LVU222
 738 001e 3C46     		mov	r4, r7
 739              	.LBB7:
 801:SynaptiX_FDK/services/cJSON/cJSON.c ****     {
 802:SynaptiX_FDK/services/cJSON/cJSON.c ****         goto fail;
 803:SynaptiX_FDK/services/cJSON/cJSON.c ****     }
 804:SynaptiX_FDK/services/cJSON/cJSON.c **** 
 805:SynaptiX_FDK/services/cJSON/cJSON.c ****     {
 806:SynaptiX_FDK/services/cJSON/cJSON.c ****         /* calculate approximate size of the output (overestimate) */
 807:SynaptiX_FDK/services/cJSON/cJSON.c ****         size_t allocation_length = 0;
 808:SynaptiX_FDK/services/cJSON/cJSON.c ****         size_t skipped_bytes = 0;
 740              		.loc 1 808 16 view .LVU223
 741 0020 9446     		mov	ip, r2
 742 0022 00E0     		b	.L64
 743              	.LVL90:
 744              	.L65:
 809:SynaptiX_FDK/services/cJSON/cJSON.c ****         while (((size_t)(input_end - input_buffer->content) < input_buffer->length) && (*input_end 
 810:SynaptiX_FDK/services/cJSON/cJSON.c ****         {
 811:SynaptiX_FDK/services/cJSON/cJSON.c ****             /* is escape sequence */
 812:SynaptiX_FDK/services/cJSON/cJSON.c ****             if (input_end[0] == '\\')
 813:SynaptiX_FDK/services/cJSON/cJSON.c ****             {
 814:SynaptiX_FDK/services/cJSON/cJSON.c ****                 if ((size_t)(input_end + 1 - input_buffer->content) >= input_buffer->length)
 815:SynaptiX_FDK/services/cJSON/cJSON.c ****                 {
 816:SynaptiX_FDK/services/cJSON/cJSON.c ****                     /* prevent buffer overflow when last input character is a backslash */
 817:SynaptiX_FDK/services/cJSON/cJSON.c ****                     goto fail;
 818:SynaptiX_FDK/services/cJSON/cJSON.c ****                 }
 819:SynaptiX_FDK/services/cJSON/cJSON.c ****                 skipped_bytes++;
 820:SynaptiX_FDK/services/cJSON/cJSON.c ****                 input_end++;
 821:SynaptiX_FDK/services/cJSON/cJSON.c ****             }
 822:SynaptiX_FDK/services/cJSON/cJSON.c ****             input_end++;
 745              		.loc 1 822 13 is_stmt 1 view .LVU224
 746              		.loc 1 822 22 is_stmt 0 view .LVU225
 747 0024 0134     		adds	r4, r4, #1
 748              	.LVL91:
 749              	.L64:
 809:SynaptiX_FDK/services/cJSON/cJSON.c ****         while (((size_t)(input_end - input_buffer->content) < input_buffer->length) && (*input_end 
 750              		.loc 1 809 85 is_stmt 1 view .LVU226
 809:SynaptiX_FDK/services/cJSON/cJSON.c ****         while (((size_t)(input_end - input_buffer->content) < input_buffer->length) && (*input_end 
 751              		.loc 1 809 36 is_stmt 0 view .LVU227
 752 0026 A11B     		subs	r1, r4, r6
 809:SynaptiX_FDK/services/cJSON/cJSON.c ****         while (((size_t)(input_end - input_buffer->content) < input_buffer->length) && (*input_end 
 753              		.loc 1 809 75 view .LVU228
 754 0028 6A68     		ldr	r2, [r5, #4]
 809:SynaptiX_FDK/services/cJSON/cJSON.c ****         while (((size_t)(input_end - input_buffer->content) < input_buffer->length) && (*input_end 
 755              		.loc 1 809 85 view .LVU229
 756 002a 9142     		cmp	r1, r2
 757 002c 0BD2     		bcs	.L66
 809:SynaptiX_FDK/services/cJSON/cJSON.c ****         while (((size_t)(input_end - input_buffer->content) < input_buffer->length) && (*input_end 
 758              		.loc 1 809 89 discriminator 1 view .LVU230
 759 002e 2378     		ldrb	r3, [r4]	@ zero_extendqisi2
 809:SynaptiX_FDK/services/cJSON/cJSON.c ****         while (((size_t)(input_end - input_buffer->content) < input_buffer->length) && (*input_end 
 760              		.loc 1 809 85 discriminator 1 view .LVU231
 761 0030 222B     		cmp	r3, #34
ARM GAS  C:\Users\DELL\AppData\Local\Temp\ccXjhdgA.s 			page 30


 762 0032 08D0     		beq	.L66
 812:SynaptiX_FDK/services/cJSON/cJSON.c ****             {
 763              		.loc 1 812 13 is_stmt 1 view .LVU232
 812:SynaptiX_FDK/services/cJSON/cJSON.c ****             {
 764              		.loc 1 812 16 is_stmt 0 view .LVU233
 765 0034 5C2B     		cmp	r3, #92
 766 0036 F5D1     		bne	.L65
 814:SynaptiX_FDK/services/cJSON/cJSON.c ****                 {
 767              		.loc 1 814 17 is_stmt 1 view .LVU234
 814:SynaptiX_FDK/services/cJSON/cJSON.c ****                 {
 768              		.loc 1 814 40 is_stmt 0 view .LVU235
 769 0038 0134     		adds	r4, r4, #1
 770              	.LVL92:
 814:SynaptiX_FDK/services/cJSON/cJSON.c ****                 {
 771              		.loc 1 814 44 view .LVU236
 772 003a A31B     		subs	r3, r4, r6
 814:SynaptiX_FDK/services/cJSON/cJSON.c ****                 {
 773              		.loc 1 814 20 view .LVU237
 774 003c 9342     		cmp	r3, r2
 775 003e 3DD2     		bcs	.L63
 819:SynaptiX_FDK/services/cJSON/cJSON.c ****                 input_end++;
 776              		.loc 1 819 17 is_stmt 1 view .LVU238
 819:SynaptiX_FDK/services/cJSON/cJSON.c ****                 input_end++;
 777              		.loc 1 819 30 is_stmt 0 view .LVU239
 778 0040 0CF1010C 		add	ip, ip, #1
 779              	.LVL93:
 820:SynaptiX_FDK/services/cJSON/cJSON.c ****             }
 780              		.loc 1 820 17 is_stmt 1 view .LVU240
 781 0044 EEE7     		b	.L65
 782              	.LVL94:
 783              	.L66:
 823:SynaptiX_FDK/services/cJSON/cJSON.c ****         }
 824:SynaptiX_FDK/services/cJSON/cJSON.c ****         if (((size_t)(input_end - input_buffer->content) >= input_buffer->length) || (*input_end !=
 784              		.loc 1 824 9 view .LVU241
 785              		.loc 1 824 12 is_stmt 0 view .LVU242
 786 0046 9142     		cmp	r1, r2
 787 0048 38D2     		bcs	.L63
 788              		.loc 1 824 87 discriminator 1 view .LVU243
 789 004a 2378     		ldrb	r3, [r4]	@ zero_extendqisi2
 790              		.loc 1 824 83 discriminator 1 view .LVU244
 791 004c 222B     		cmp	r3, #34
 792 004e 35D1     		bne	.L63
 825:SynaptiX_FDK/services/cJSON/cJSON.c ****         {
 826:SynaptiX_FDK/services/cJSON/cJSON.c ****             goto fail; /* string ended unexpectedly */
 827:SynaptiX_FDK/services/cJSON/cJSON.c ****         }
 828:SynaptiX_FDK/services/cJSON/cJSON.c **** 
 829:SynaptiX_FDK/services/cJSON/cJSON.c ****         /* This is at most how much we need for the output */
 830:SynaptiX_FDK/services/cJSON/cJSON.c ****         allocation_length = (size_t) (input_end - buffer_at_offset(input_buffer)) - skipped_bytes;
 793              		.loc 1 830 9 is_stmt 1 view .LVU245
 794              		.loc 1 830 49 is_stmt 0 view .LVU246
 795 0050 201A     		subs	r0, r4, r0
 796              		.loc 1 830 27 view .LVU247
 797 0052 A0EB0C00 		sub	r0, r0, ip
 798              	.LVL95:
 831:SynaptiX_FDK/services/cJSON/cJSON.c ****         output = (unsigned char*)input_buffer->hooks.allocate(allocation_length + sizeof(""));
 799              		.loc 1 831 9 is_stmt 1 view .LVU248
 800              		.loc 1 831 53 is_stmt 0 view .LVU249
ARM GAS  C:\Users\DELL\AppData\Local\Temp\ccXjhdgA.s 			page 31


 801 0056 2B69     		ldr	r3, [r5, #16]
 802              		.loc 1 831 34 view .LVU250
 803 0058 0130     		adds	r0, r0, #1
 804              	.LVL96:
 805              		.loc 1 831 34 view .LVU251
 806 005a 9847     		blx	r3
 807              	.LVL97:
 832:SynaptiX_FDK/services/cJSON/cJSON.c ****         if (output == NULL)
 808              		.loc 1 832 9 is_stmt 1 view .LVU252
 809              		.loc 1 832 12 is_stmt 0 view .LVU253
 810 005c 0646     		mov	r6, r0
 811              		.loc 1 832 12 view .LVU254
 812 005e 68B3     		cbz	r0, .L63
 813              	.LBE7:
 833:SynaptiX_FDK/services/cJSON/cJSON.c ****         {
 834:SynaptiX_FDK/services/cJSON/cJSON.c ****             goto fail; /* allocation failure */
 835:SynaptiX_FDK/services/cJSON/cJSON.c ****         }
 836:SynaptiX_FDK/services/cJSON/cJSON.c ****     }
 837:SynaptiX_FDK/services/cJSON/cJSON.c **** 
 838:SynaptiX_FDK/services/cJSON/cJSON.c ****     output_pointer = output;
 814              		.loc 1 838 5 is_stmt 1 view .LVU255
 815              		.loc 1 838 20 is_stmt 0 view .LVU256
 816 0060 0190     		str	r0, [sp, #4]
 839:SynaptiX_FDK/services/cJSON/cJSON.c ****     /* loop through the string literal */
 840:SynaptiX_FDK/services/cJSON/cJSON.c ****     while (input_pointer < input_end)
 817              		.loc 1 840 5 is_stmt 1 view .LVU257
 818              	.LVL98:
 819              	.L68:
 820              		.loc 1 840 26 view .LVU258
 821 0062 A742     		cmp	r7, r4
 822 0064 67D2     		bcs	.L88
 841:SynaptiX_FDK/services/cJSON/cJSON.c ****     {
 842:SynaptiX_FDK/services/cJSON/cJSON.c ****         if (*input_pointer != '\\')
 823              		.loc 1 842 9 view .LVU259
 824              		.loc 1 842 13 is_stmt 0 view .LVU260
 825 0066 3B78     		ldrb	r3, [r7]	@ zero_extendqisi2
 826              		.loc 1 842 12 view .LVU261
 827 0068 5C2B     		cmp	r3, #92
 828 006a 06D0     		beq	.L69
 843:SynaptiX_FDK/services/cJSON/cJSON.c ****         {
 844:SynaptiX_FDK/services/cJSON/cJSON.c ****             *output_pointer++ = *input_pointer++;
 829              		.loc 1 844 13 is_stmt 1 view .LVU262
 830              	.LVL99:
 831              		.loc 1 844 28 is_stmt 0 view .LVU263
 832 006c 019B     		ldr	r3, [sp, #4]
 833 006e 5A1C     		adds	r2, r3, #1
 834 0070 0192     		str	r2, [sp, #4]
 835              		.loc 1 844 33 view .LVU264
 836 0072 17F8012B 		ldrb	r2, [r7], #1	@ zero_extendqisi2
 837              	.LVL100:
 838              		.loc 1 844 31 view .LVU265
 839 0076 1A70     		strb	r2, [r3]
 840 0078 F3E7     		b	.L68
 841              	.L69:
 842              	.LBB8:
 845:SynaptiX_FDK/services/cJSON/cJSON.c ****         }
 846:SynaptiX_FDK/services/cJSON/cJSON.c ****         /* escape sequence */
ARM GAS  C:\Users\DELL\AppData\Local\Temp\ccXjhdgA.s 			page 32


 847:SynaptiX_FDK/services/cJSON/cJSON.c ****         else
 848:SynaptiX_FDK/services/cJSON/cJSON.c ****         {
 849:SynaptiX_FDK/services/cJSON/cJSON.c ****             unsigned char sequence_length = 2;
 843              		.loc 1 849 13 is_stmt 1 view .LVU266
 844              	.LVL101:
 850:SynaptiX_FDK/services/cJSON/cJSON.c ****             if ((input_end - input_pointer) < 1)
 845              		.loc 1 850 13 view .LVU267
 846              		.loc 1 850 28 is_stmt 0 view .LVU268
 847 007a E31B     		subs	r3, r4, r7
 848              		.loc 1 850 16 view .LVU269
 849 007c 002B     		cmp	r3, #0
 850 007e 1ADD     		ble	.L71
 851:SynaptiX_FDK/services/cJSON/cJSON.c ****             {
 852:SynaptiX_FDK/services/cJSON/cJSON.c ****                 goto fail;
 853:SynaptiX_FDK/services/cJSON/cJSON.c ****             }
 854:SynaptiX_FDK/services/cJSON/cJSON.c **** 
 855:SynaptiX_FDK/services/cJSON/cJSON.c ****             switch (input_pointer[1])
 851              		.loc 1 855 13 is_stmt 1 view .LVU270
 852              		.loc 1 855 34 is_stmt 0 view .LVU271
 853 0080 7B78     		ldrb	r3, [r7, #1]	@ zero_extendqisi2
 854              		.loc 1 855 13 view .LVU272
 855 0082 752B     		cmp	r3, #117
 856 0084 17D8     		bhi	.L71
 857 0086 5C2B     		cmp	r3, #92
 858 0088 11D3     		bcc	.L89
 859 008a 5C3B     		subs	r3, r3, #92
 860 008c 192B     		cmp	r3, #25
 861 008e 12D8     		bhi	.L71
 862 0090 DFE803F0 		tbb	[pc, r3]
 863              	.L75:
 864 0094 40       		.byte	(.L73-.L75)/2
 865 0095 11       		.byte	(.L71-.L75)/2
 866 0096 11       		.byte	(.L71-.L75)/2
 867 0097 11       		.byte	(.L71-.L75)/2
 868 0098 11       		.byte	(.L71-.L75)/2
 869 0099 11       		.byte	(.L71-.L75)/2
 870 009a 1D       		.byte	(.L80-.L75)/2
 871 009b 11       		.byte	(.L71-.L75)/2
 872 009c 11       		.byte	(.L71-.L75)/2
 873 009d 11       		.byte	(.L71-.L75)/2
 874 009e 24       		.byte	(.L79-.L75)/2
 875 009f 11       		.byte	(.L71-.L75)/2
 876 00a0 11       		.byte	(.L71-.L75)/2
 877 00a1 11       		.byte	(.L71-.L75)/2
 878 00a2 11       		.byte	(.L71-.L75)/2
 879 00a3 11       		.byte	(.L71-.L75)/2
 880 00a4 11       		.byte	(.L71-.L75)/2
 881 00a5 11       		.byte	(.L71-.L75)/2
 882 00a6 2B       		.byte	(.L78-.L75)/2
 883 00a7 11       		.byte	(.L71-.L75)/2
 884 00a8 11       		.byte	(.L71-.L75)/2
 885 00a9 11       		.byte	(.L71-.L75)/2
 886 00aa 32       		.byte	(.L77-.L75)/2
 887 00ab 11       		.byte	(.L71-.L75)/2
 888 00ac 39       		.byte	(.L76-.L75)/2
 889 00ad 48       		.byte	(.L74-.L75)/2
 890              		.p2align 1
ARM GAS  C:\Users\DELL\AppData\Local\Temp\ccXjhdgA.s 			page 33


 891              	.L89:
 892 00ae 222B     		cmp	r3, #34
 893 00b0 30D0     		beq	.L73
 894 00b2 2F2B     		cmp	r3, #47
 895 00b4 2ED0     		beq	.L73
 896              	.LVL102:
 897              	.L71:
 898              		.loc 1 855 13 view .LVU273
 899              	.LBE8:
 856:SynaptiX_FDK/services/cJSON/cJSON.c ****             {
 857:SynaptiX_FDK/services/cJSON/cJSON.c ****                 case 'b':
 858:SynaptiX_FDK/services/cJSON/cJSON.c ****                     *output_pointer++ = '\b';
 859:SynaptiX_FDK/services/cJSON/cJSON.c ****                     break;
 860:SynaptiX_FDK/services/cJSON/cJSON.c ****                 case 'f':
 861:SynaptiX_FDK/services/cJSON/cJSON.c ****                     *output_pointer++ = '\f';
 862:SynaptiX_FDK/services/cJSON/cJSON.c ****                     break;
 863:SynaptiX_FDK/services/cJSON/cJSON.c ****                 case 'n':
 864:SynaptiX_FDK/services/cJSON/cJSON.c ****                     *output_pointer++ = '\n';
 865:SynaptiX_FDK/services/cJSON/cJSON.c ****                     break;
 866:SynaptiX_FDK/services/cJSON/cJSON.c ****                 case 'r':
 867:SynaptiX_FDK/services/cJSON/cJSON.c ****                     *output_pointer++ = '\r';
 868:SynaptiX_FDK/services/cJSON/cJSON.c ****                     break;
 869:SynaptiX_FDK/services/cJSON/cJSON.c ****                 case 't':
 870:SynaptiX_FDK/services/cJSON/cJSON.c ****                     *output_pointer++ = '\t';
 871:SynaptiX_FDK/services/cJSON/cJSON.c ****                     break;
 872:SynaptiX_FDK/services/cJSON/cJSON.c ****                 case '\"':
 873:SynaptiX_FDK/services/cJSON/cJSON.c ****                 case '\\':
 874:SynaptiX_FDK/services/cJSON/cJSON.c ****                 case '/':
 875:SynaptiX_FDK/services/cJSON/cJSON.c ****                     *output_pointer++ = input_pointer[1];
 876:SynaptiX_FDK/services/cJSON/cJSON.c ****                     break;
 877:SynaptiX_FDK/services/cJSON/cJSON.c **** 
 878:SynaptiX_FDK/services/cJSON/cJSON.c ****                 /* UTF-16 literal */
 879:SynaptiX_FDK/services/cJSON/cJSON.c ****                 case 'u':
 880:SynaptiX_FDK/services/cJSON/cJSON.c ****                     sequence_length = utf16_literal_to_utf8(input_pointer, input_end, &output_point
 881:SynaptiX_FDK/services/cJSON/cJSON.c ****                     if (sequence_length == 0)
 882:SynaptiX_FDK/services/cJSON/cJSON.c ****                     {
 883:SynaptiX_FDK/services/cJSON/cJSON.c ****                         /* failed to convert UTF16-literal to UTF-8 */
 884:SynaptiX_FDK/services/cJSON/cJSON.c ****                         goto fail;
 885:SynaptiX_FDK/services/cJSON/cJSON.c ****                     }
 886:SynaptiX_FDK/services/cJSON/cJSON.c ****                     break;
 887:SynaptiX_FDK/services/cJSON/cJSON.c **** 
 888:SynaptiX_FDK/services/cJSON/cJSON.c ****                 default:
 889:SynaptiX_FDK/services/cJSON/cJSON.c ****                     goto fail;
 890:SynaptiX_FDK/services/cJSON/cJSON.c ****             }
 891:SynaptiX_FDK/services/cJSON/cJSON.c ****             input_pointer += sequence_length;
 892:SynaptiX_FDK/services/cJSON/cJSON.c ****         }
 893:SynaptiX_FDK/services/cJSON/cJSON.c ****     }
 894:SynaptiX_FDK/services/cJSON/cJSON.c **** 
 895:SynaptiX_FDK/services/cJSON/cJSON.c ****     /* zero terminate the output */
 896:SynaptiX_FDK/services/cJSON/cJSON.c ****     *output_pointer = '\0';
 897:SynaptiX_FDK/services/cJSON/cJSON.c **** 
 898:SynaptiX_FDK/services/cJSON/cJSON.c ****     item->type = cJSON_String;
 899:SynaptiX_FDK/services/cJSON/cJSON.c ****     item->valuestring = (char*)output;
 900:SynaptiX_FDK/services/cJSON/cJSON.c **** 
 901:SynaptiX_FDK/services/cJSON/cJSON.c ****     input_buffer->offset = (size_t) (input_end - input_buffer->content);
 902:SynaptiX_FDK/services/cJSON/cJSON.c ****     input_buffer->offset++;
 903:SynaptiX_FDK/services/cJSON/cJSON.c **** 
ARM GAS  C:\Users\DELL\AppData\Local\Temp\ccXjhdgA.s 			page 34


 904:SynaptiX_FDK/services/cJSON/cJSON.c ****     return true;
 905:SynaptiX_FDK/services/cJSON/cJSON.c **** 
 906:SynaptiX_FDK/services/cJSON/cJSON.c **** fail:
 907:SynaptiX_FDK/services/cJSON/cJSON.c ****     if (output != NULL)
 900              		.loc 1 907 5 is_stmt 1 view .LVU274
 908:SynaptiX_FDK/services/cJSON/cJSON.c ****     {
 909:SynaptiX_FDK/services/cJSON/cJSON.c ****         input_buffer->hooks.deallocate(output);
 901              		.loc 1 909 9 view .LVU275
 902              		.loc 1 909 28 is_stmt 0 view .LVU276
 903 00b6 6B69     		ldr	r3, [r5, #20]
 904              		.loc 1 909 9 view .LVU277
 905 00b8 3046     		mov	r0, r6
 906 00ba 9847     		blx	r3
 907              	.LVL103:
 910:SynaptiX_FDK/services/cJSON/cJSON.c ****         output = NULL;
 908              		.loc 1 910 9 is_stmt 1 view .LVU278
 909              	.L63:
 911:SynaptiX_FDK/services/cJSON/cJSON.c ****     }
 912:SynaptiX_FDK/services/cJSON/cJSON.c **** 
 913:SynaptiX_FDK/services/cJSON/cJSON.c ****     if (input_pointer != NULL)
 910              		.loc 1 913 5 view .LVU279
 911              		.loc 1 913 8 is_stmt 0 view .LVU280
 912 00bc 002F     		cmp	r7, #0
 913 00be 49D0     		beq	.L84
 914:SynaptiX_FDK/services/cJSON/cJSON.c ****     {
 915:SynaptiX_FDK/services/cJSON/cJSON.c ****         input_buffer->offset = (size_t)(input_pointer - input_buffer->content);
 914              		.loc 1 915 9 is_stmt 1 view .LVU281
 915              		.loc 1 915 69 is_stmt 0 view .LVU282
 916 00c0 2B68     		ldr	r3, [r5]
 917              		.loc 1 915 55 view .LVU283
 918 00c2 FF1A     		subs	r7, r7, r3
 919              		.loc 1 915 30 view .LVU284
 920 00c4 AF60     		str	r7, [r5, #8]
 916:SynaptiX_FDK/services/cJSON/cJSON.c ****     }
 917:SynaptiX_FDK/services/cJSON/cJSON.c **** 
 918:SynaptiX_FDK/services/cJSON/cJSON.c ****     return false;
 921              		.loc 1 918 12 view .LVU285
 922 00c6 0020     		movs	r0, #0
 923              	.L62:
 919:SynaptiX_FDK/services/cJSON/cJSON.c **** }
 924              		.loc 1 919 1 view .LVU286
 925 00c8 02B0     		add	sp, sp, #8
 926              	.LCFI7:
 927              		.cfi_remember_state
 928              		.cfi_def_cfa_offset 24
 929              		@ sp needed
 930 00ca BDE8F081 		pop	{r4, r5, r6, r7, r8, pc}
 931              	.LVL104:
 932              	.L80:
 933              	.LCFI8:
 934              		.cfi_restore_state
 935              	.LBB9:
 858:SynaptiX_FDK/services/cJSON/cJSON.c ****                     break;
 936              		.loc 1 858 21 is_stmt 1 view .LVU287
 858:SynaptiX_FDK/services/cJSON/cJSON.c ****                     break;
 937              		.loc 1 858 36 is_stmt 0 view .LVU288
 938 00ce 019B     		ldr	r3, [sp, #4]
ARM GAS  C:\Users\DELL\AppData\Local\Temp\ccXjhdgA.s 			page 35


 939 00d0 5A1C     		adds	r2, r3, #1
 940 00d2 0192     		str	r2, [sp, #4]
 858:SynaptiX_FDK/services/cJSON/cJSON.c ****                     break;
 941              		.loc 1 858 39 view .LVU289
 942 00d4 0822     		movs	r2, #8
 943 00d6 1A70     		strb	r2, [r3]
 859:SynaptiX_FDK/services/cJSON/cJSON.c ****                 case 'f':
 944              		.loc 1 859 21 is_stmt 1 view .LVU290
 849:SynaptiX_FDK/services/cJSON/cJSON.c ****             if ((input_end - input_pointer) < 1)
 945              		.loc 1 849 27 is_stmt 0 view .LVU291
 946 00d8 0223     		movs	r3, #2
 859:SynaptiX_FDK/services/cJSON/cJSON.c ****                 case 'f':
 947              		.loc 1 859 21 view .LVU292
 948 00da 21E0     		b	.L81
 949              	.L79:
 861:SynaptiX_FDK/services/cJSON/cJSON.c ****                     break;
 950              		.loc 1 861 21 is_stmt 1 view .LVU293
 861:SynaptiX_FDK/services/cJSON/cJSON.c ****                     break;
 951              		.loc 1 861 36 is_stmt 0 view .LVU294
 952 00dc 019B     		ldr	r3, [sp, #4]
 953 00de 5A1C     		adds	r2, r3, #1
 954 00e0 0192     		str	r2, [sp, #4]
 861:SynaptiX_FDK/services/cJSON/cJSON.c ****                     break;
 955              		.loc 1 861 39 view .LVU295
 956 00e2 0C22     		movs	r2, #12
 957 00e4 1A70     		strb	r2, [r3]
 862:SynaptiX_FDK/services/cJSON/cJSON.c ****                 case 'n':
 958              		.loc 1 862 21 is_stmt 1 view .LVU296
 849:SynaptiX_FDK/services/cJSON/cJSON.c ****             if ((input_end - input_pointer) < 1)
 959              		.loc 1 849 27 is_stmt 0 view .LVU297
 960 00e6 0223     		movs	r3, #2
 862:SynaptiX_FDK/services/cJSON/cJSON.c ****                 case 'n':
 961              		.loc 1 862 21 view .LVU298
 962 00e8 1AE0     		b	.L81
 963              	.L78:
 864:SynaptiX_FDK/services/cJSON/cJSON.c ****                     break;
 964              		.loc 1 864 21 is_stmt 1 view .LVU299
 864:SynaptiX_FDK/services/cJSON/cJSON.c ****                     break;
 965              		.loc 1 864 36 is_stmt 0 view .LVU300
 966 00ea 019B     		ldr	r3, [sp, #4]
 967 00ec 5A1C     		adds	r2, r3, #1
 968 00ee 0192     		str	r2, [sp, #4]
 864:SynaptiX_FDK/services/cJSON/cJSON.c ****                     break;
 969              		.loc 1 864 39 view .LVU301
 970 00f0 0A22     		movs	r2, #10
 971 00f2 1A70     		strb	r2, [r3]
 865:SynaptiX_FDK/services/cJSON/cJSON.c ****                 case 'r':
 972              		.loc 1 865 21 is_stmt 1 view .LVU302
 849:SynaptiX_FDK/services/cJSON/cJSON.c ****             if ((input_end - input_pointer) < 1)
 973              		.loc 1 849 27 is_stmt 0 view .LVU303
 974 00f4 0223     		movs	r3, #2
 865:SynaptiX_FDK/services/cJSON/cJSON.c ****                 case 'r':
 975              		.loc 1 865 21 view .LVU304
 976 00f6 13E0     		b	.L81
 977              	.L77:
 867:SynaptiX_FDK/services/cJSON/cJSON.c ****                     break;
 978              		.loc 1 867 21 is_stmt 1 view .LVU305
ARM GAS  C:\Users\DELL\AppData\Local\Temp\ccXjhdgA.s 			page 36


 867:SynaptiX_FDK/services/cJSON/cJSON.c ****                     break;
 979              		.loc 1 867 36 is_stmt 0 view .LVU306
 980 00f8 019B     		ldr	r3, [sp, #4]
 981 00fa 5A1C     		adds	r2, r3, #1
 982 00fc 0192     		str	r2, [sp, #4]
 867:SynaptiX_FDK/services/cJSON/cJSON.c ****                     break;
 983              		.loc 1 867 39 view .LVU307
 984 00fe 0D22     		movs	r2, #13
 985 0100 1A70     		strb	r2, [r3]
 868:SynaptiX_FDK/services/cJSON/cJSON.c ****                 case 't':
 986              		.loc 1 868 21 is_stmt 1 view .LVU308
 849:SynaptiX_FDK/services/cJSON/cJSON.c ****             if ((input_end - input_pointer) < 1)
 987              		.loc 1 849 27 is_stmt 0 view .LVU309
 988 0102 0223     		movs	r3, #2
 868:SynaptiX_FDK/services/cJSON/cJSON.c ****                 case 't':
 989              		.loc 1 868 21 view .LVU310
 990 0104 0CE0     		b	.L81
 991              	.L76:
 870:SynaptiX_FDK/services/cJSON/cJSON.c ****                     break;
 992              		.loc 1 870 21 is_stmt 1 view .LVU311
 870:SynaptiX_FDK/services/cJSON/cJSON.c ****                     break;
 993              		.loc 1 870 36 is_stmt 0 view .LVU312
 994 0106 019B     		ldr	r3, [sp, #4]
 995 0108 5A1C     		adds	r2, r3, #1
 996 010a 0192     		str	r2, [sp, #4]
 870:SynaptiX_FDK/services/cJSON/cJSON.c ****                     break;
 997              		.loc 1 870 39 view .LVU313
 998 010c 0922     		movs	r2, #9
 999 010e 1A70     		strb	r2, [r3]
 871:SynaptiX_FDK/services/cJSON/cJSON.c ****                 case '\"':
 1000              		.loc 1 871 21 is_stmt 1 view .LVU314
 849:SynaptiX_FDK/services/cJSON/cJSON.c ****             if ((input_end - input_pointer) < 1)
 1001              		.loc 1 849 27 is_stmt 0 view .LVU315
 1002 0110 0223     		movs	r3, #2
 871:SynaptiX_FDK/services/cJSON/cJSON.c ****                 case '\"':
 1003              		.loc 1 871 21 view .LVU316
 1004 0112 05E0     		b	.L81
 1005              	.L73:
 875:SynaptiX_FDK/services/cJSON/cJSON.c ****                     break;
 1006              		.loc 1 875 21 is_stmt 1 view .LVU317
 875:SynaptiX_FDK/services/cJSON/cJSON.c ****                     break;
 1007              		.loc 1 875 36 is_stmt 0 view .LVU318
 1008 0114 019B     		ldr	r3, [sp, #4]
 1009 0116 5A1C     		adds	r2, r3, #1
 1010 0118 0192     		str	r2, [sp, #4]
 875:SynaptiX_FDK/services/cJSON/cJSON.c ****                     break;
 1011              		.loc 1 875 54 view .LVU319
 1012 011a 7A78     		ldrb	r2, [r7, #1]	@ zero_extendqisi2
 875:SynaptiX_FDK/services/cJSON/cJSON.c ****                     break;
 1013              		.loc 1 875 39 view .LVU320
 1014 011c 1A70     		strb	r2, [r3]
 876:SynaptiX_FDK/services/cJSON/cJSON.c **** 
 1015              		.loc 1 876 21 is_stmt 1 view .LVU321
 849:SynaptiX_FDK/services/cJSON/cJSON.c ****             if ((input_end - input_pointer) < 1)
 1016              		.loc 1 849 27 is_stmt 0 view .LVU322
 1017 011e 0223     		movs	r3, #2
 1018              	.LVL105:
ARM GAS  C:\Users\DELL\AppData\Local\Temp\ccXjhdgA.s 			page 37


 1019              	.L81:
 891:SynaptiX_FDK/services/cJSON/cJSON.c ****         }
 1020              		.loc 1 891 13 is_stmt 1 view .LVU323
 891:SynaptiX_FDK/services/cJSON/cJSON.c ****         }
 1021              		.loc 1 891 27 is_stmt 0 view .LVU324
 1022 0120 1F44     		add	r7, r7, r3
 1023              	.LVL106:
 891:SynaptiX_FDK/services/cJSON/cJSON.c ****         }
 1024              		.loc 1 891 27 view .LVU325
 1025 0122 9EE7     		b	.L68
 1026              	.LVL107:
 1027              	.L74:
 880:SynaptiX_FDK/services/cJSON/cJSON.c ****                     if (sequence_length == 0)
 1028              		.loc 1 880 21 is_stmt 1 view .LVU326
 880:SynaptiX_FDK/services/cJSON/cJSON.c ****                     if (sequence_length == 0)
 1029              		.loc 1 880 39 is_stmt 0 view .LVU327
 1030 0124 01AA     		add	r2, sp, #4
 1031 0126 2146     		mov	r1, r4
 1032 0128 3846     		mov	r0, r7
 1033 012a FFF7FEFF 		bl	utf16_literal_to_utf8
 1034              	.LVL108:
 881:SynaptiX_FDK/services/cJSON/cJSON.c ****                     {
 1035              		.loc 1 881 21 is_stmt 1 view .LVU328
 881:SynaptiX_FDK/services/cJSON/cJSON.c ****                     {
 1036              		.loc 1 881 24 is_stmt 0 view .LVU329
 1037 012e 0346     		mov	r3, r0
 1038 0130 0028     		cmp	r0, #0
 1039 0132 F5D1     		bne	.L81
 1040 0134 BFE7     		b	.L71
 1041              	.LVL109:
 1042              	.L88:
 881:SynaptiX_FDK/services/cJSON/cJSON.c ****                     {
 1043              		.loc 1 881 24 view .LVU330
 1044              	.LBE9:
 896:SynaptiX_FDK/services/cJSON/cJSON.c **** 
 1045              		.loc 1 896 5 is_stmt 1 view .LVU331
 896:SynaptiX_FDK/services/cJSON/cJSON.c **** 
 1046              		.loc 1 896 21 is_stmt 0 view .LVU332
 1047 0136 019B     		ldr	r3, [sp, #4]
 1048 0138 0022     		movs	r2, #0
 1049 013a 1A70     		strb	r2, [r3]
 898:SynaptiX_FDK/services/cJSON/cJSON.c ****     item->valuestring = (char*)output;
 1050              		.loc 1 898 5 is_stmt 1 view .LVU333
 898:SynaptiX_FDK/services/cJSON/cJSON.c ****     item->valuestring = (char*)output;
 1051              		.loc 1 898 16 is_stmt 0 view .LVU334
 1052 013c 1023     		movs	r3, #16
 1053 013e C8F80C30 		str	r3, [r8, #12]
 899:SynaptiX_FDK/services/cJSON/cJSON.c **** 
 1054              		.loc 1 899 5 is_stmt 1 view .LVU335
 899:SynaptiX_FDK/services/cJSON/cJSON.c **** 
 1055              		.loc 1 899 23 is_stmt 0 view .LVU336
 1056 0142 C8F81060 		str	r6, [r8, #16]
 901:SynaptiX_FDK/services/cJSON/cJSON.c ****     input_buffer->offset++;
 1057              		.loc 1 901 5 is_stmt 1 view .LVU337
 901:SynaptiX_FDK/services/cJSON/cJSON.c ****     input_buffer->offset++;
 1058              		.loc 1 901 62 is_stmt 0 view .LVU338
 1059 0146 2B68     		ldr	r3, [r5]
ARM GAS  C:\Users\DELL\AppData\Local\Temp\ccXjhdgA.s 			page 38


 901:SynaptiX_FDK/services/cJSON/cJSON.c ****     input_buffer->offset++;
 1060              		.loc 1 901 48 view .LVU339
 1061 0148 E41A     		subs	r4, r4, r3
 1062              	.LVL110:
 901:SynaptiX_FDK/services/cJSON/cJSON.c ****     input_buffer->offset++;
 1063              		.loc 1 901 26 view .LVU340
 1064 014a AC60     		str	r4, [r5, #8]
 902:SynaptiX_FDK/services/cJSON/cJSON.c **** 
 1065              		.loc 1 902 5 is_stmt 1 view .LVU341
 902:SynaptiX_FDK/services/cJSON/cJSON.c **** 
 1066              		.loc 1 902 25 is_stmt 0 view .LVU342
 1067 014c 0134     		adds	r4, r4, #1
 1068 014e AC60     		str	r4, [r5, #8]
 904:SynaptiX_FDK/services/cJSON/cJSON.c **** 
 1069              		.loc 1 904 5 is_stmt 1 view .LVU343
 904:SynaptiX_FDK/services/cJSON/cJSON.c **** 
 1070              		.loc 1 904 12 is_stmt 0 view .LVU344
 1071 0150 0120     		movs	r0, #1
 1072 0152 B9E7     		b	.L62
 1073              	.LVL111:
 1074              	.L84:
 918:SynaptiX_FDK/services/cJSON/cJSON.c **** }
 1075              		.loc 1 918 12 view .LVU345
 1076 0154 0020     		movs	r0, #0
 1077 0156 B7E7     		b	.L62
 1078              		.cfi_endproc
 1079              	.LFE23:
 1081              		.section	.text.buffer_skip_whitespace,"ax",%progbits
 1082              		.align	1
 1083              		.syntax unified
 1084              		.thumb
 1085              		.thumb_func
 1087              	buffer_skip_whitespace:
 1088              	.LVL112:
 1089              	.LFB26:
 920:SynaptiX_FDK/services/cJSON/cJSON.c **** 
 921:SynaptiX_FDK/services/cJSON/cJSON.c **** /* Render the cstring provided to an escaped version that can be printed. */
 922:SynaptiX_FDK/services/cJSON/cJSON.c **** static cJSON_bool print_string_ptr(const unsigned char * const input, printbuffer * const output_bu
 923:SynaptiX_FDK/services/cJSON/cJSON.c **** {
 924:SynaptiX_FDK/services/cJSON/cJSON.c ****     const unsigned char *input_pointer = NULL;
 925:SynaptiX_FDK/services/cJSON/cJSON.c ****     unsigned char *output = NULL;
 926:SynaptiX_FDK/services/cJSON/cJSON.c ****     unsigned char *output_pointer = NULL;
 927:SynaptiX_FDK/services/cJSON/cJSON.c ****     size_t output_length = 0;
 928:SynaptiX_FDK/services/cJSON/cJSON.c ****     /* numbers of additional characters needed for escaping */
 929:SynaptiX_FDK/services/cJSON/cJSON.c ****     size_t escape_characters = 0;
 930:SynaptiX_FDK/services/cJSON/cJSON.c **** 
 931:SynaptiX_FDK/services/cJSON/cJSON.c ****     if (output_buffer == NULL)
 932:SynaptiX_FDK/services/cJSON/cJSON.c ****     {
 933:SynaptiX_FDK/services/cJSON/cJSON.c ****         return false;
 934:SynaptiX_FDK/services/cJSON/cJSON.c ****     }
 935:SynaptiX_FDK/services/cJSON/cJSON.c **** 
 936:SynaptiX_FDK/services/cJSON/cJSON.c ****     /* empty string */
 937:SynaptiX_FDK/services/cJSON/cJSON.c ****     if (input == NULL)
 938:SynaptiX_FDK/services/cJSON/cJSON.c ****     {
 939:SynaptiX_FDK/services/cJSON/cJSON.c ****         output = ensure(output_buffer, sizeof("\"\""));
 940:SynaptiX_FDK/services/cJSON/cJSON.c ****         if (output == NULL)
 941:SynaptiX_FDK/services/cJSON/cJSON.c ****         {
ARM GAS  C:\Users\DELL\AppData\Local\Temp\ccXjhdgA.s 			page 39


 942:SynaptiX_FDK/services/cJSON/cJSON.c ****             return false;
 943:SynaptiX_FDK/services/cJSON/cJSON.c ****         }
 944:SynaptiX_FDK/services/cJSON/cJSON.c ****         strcpy((char*)output, "\"\"");
 945:SynaptiX_FDK/services/cJSON/cJSON.c **** 
 946:SynaptiX_FDK/services/cJSON/cJSON.c ****         return true;
 947:SynaptiX_FDK/services/cJSON/cJSON.c ****     }
 948:SynaptiX_FDK/services/cJSON/cJSON.c **** 
 949:SynaptiX_FDK/services/cJSON/cJSON.c ****     /* set "flag" to 1 if something needs to be escaped */
 950:SynaptiX_FDK/services/cJSON/cJSON.c ****     for (input_pointer = input; *input_pointer; input_pointer++)
 951:SynaptiX_FDK/services/cJSON/cJSON.c ****     {
 952:SynaptiX_FDK/services/cJSON/cJSON.c ****         switch (*input_pointer)
 953:SynaptiX_FDK/services/cJSON/cJSON.c ****         {
 954:SynaptiX_FDK/services/cJSON/cJSON.c ****             case '\"':
 955:SynaptiX_FDK/services/cJSON/cJSON.c ****             case '\\':
 956:SynaptiX_FDK/services/cJSON/cJSON.c ****             case '\b':
 957:SynaptiX_FDK/services/cJSON/cJSON.c ****             case '\f':
 958:SynaptiX_FDK/services/cJSON/cJSON.c ****             case '\n':
 959:SynaptiX_FDK/services/cJSON/cJSON.c ****             case '\r':
 960:SynaptiX_FDK/services/cJSON/cJSON.c ****             case '\t':
 961:SynaptiX_FDK/services/cJSON/cJSON.c ****                 /* one character escape sequence */
 962:SynaptiX_FDK/services/cJSON/cJSON.c ****                 escape_characters++;
 963:SynaptiX_FDK/services/cJSON/cJSON.c ****                 break;
 964:SynaptiX_FDK/services/cJSON/cJSON.c ****             default:
 965:SynaptiX_FDK/services/cJSON/cJSON.c ****                 if (*input_pointer < 32)
 966:SynaptiX_FDK/services/cJSON/cJSON.c ****                 {
 967:SynaptiX_FDK/services/cJSON/cJSON.c ****                     /* UTF-16 escape sequence uXXXX */
 968:SynaptiX_FDK/services/cJSON/cJSON.c ****                     escape_characters += 5;
 969:SynaptiX_FDK/services/cJSON/cJSON.c ****                 }
 970:SynaptiX_FDK/services/cJSON/cJSON.c ****                 break;
 971:SynaptiX_FDK/services/cJSON/cJSON.c ****         }
 972:SynaptiX_FDK/services/cJSON/cJSON.c ****     }
 973:SynaptiX_FDK/services/cJSON/cJSON.c ****     output_length = (size_t)(input_pointer - input) + escape_characters;
 974:SynaptiX_FDK/services/cJSON/cJSON.c **** 
 975:SynaptiX_FDK/services/cJSON/cJSON.c ****     output = ensure(output_buffer, output_length + sizeof("\"\""));
 976:SynaptiX_FDK/services/cJSON/cJSON.c ****     if (output == NULL)
 977:SynaptiX_FDK/services/cJSON/cJSON.c ****     {
 978:SynaptiX_FDK/services/cJSON/cJSON.c ****         return false;
 979:SynaptiX_FDK/services/cJSON/cJSON.c ****     }
 980:SynaptiX_FDK/services/cJSON/cJSON.c **** 
 981:SynaptiX_FDK/services/cJSON/cJSON.c ****     /* no characters have to be escaped */
 982:SynaptiX_FDK/services/cJSON/cJSON.c ****     if (escape_characters == 0)
 983:SynaptiX_FDK/services/cJSON/cJSON.c ****     {
 984:SynaptiX_FDK/services/cJSON/cJSON.c ****         output[0] = '\"';
 985:SynaptiX_FDK/services/cJSON/cJSON.c ****         memcpy(output + 1, input, output_length);
 986:SynaptiX_FDK/services/cJSON/cJSON.c ****         output[output_length + 1] = '\"';
 987:SynaptiX_FDK/services/cJSON/cJSON.c ****         output[output_length + 2] = '\0';
 988:SynaptiX_FDK/services/cJSON/cJSON.c **** 
 989:SynaptiX_FDK/services/cJSON/cJSON.c ****         return true;
 990:SynaptiX_FDK/services/cJSON/cJSON.c ****     }
 991:SynaptiX_FDK/services/cJSON/cJSON.c **** 
 992:SynaptiX_FDK/services/cJSON/cJSON.c ****     output[0] = '\"';
 993:SynaptiX_FDK/services/cJSON/cJSON.c ****     output_pointer = output + 1;
 994:SynaptiX_FDK/services/cJSON/cJSON.c ****     /* copy the string */
 995:SynaptiX_FDK/services/cJSON/cJSON.c ****     for (input_pointer = input; *input_pointer != '\0'; (void)input_pointer++, output_pointer++)
 996:SynaptiX_FDK/services/cJSON/cJSON.c ****     {
 997:SynaptiX_FDK/services/cJSON/cJSON.c ****         if ((*input_pointer > 31) && (*input_pointer != '\"') && (*input_pointer != '\\'))
 998:SynaptiX_FDK/services/cJSON/cJSON.c ****         {
ARM GAS  C:\Users\DELL\AppData\Local\Temp\ccXjhdgA.s 			page 40


 999:SynaptiX_FDK/services/cJSON/cJSON.c ****             /* normal character, copy */
1000:SynaptiX_FDK/services/cJSON/cJSON.c ****             *output_pointer = *input_pointer;
1001:SynaptiX_FDK/services/cJSON/cJSON.c ****         }
1002:SynaptiX_FDK/services/cJSON/cJSON.c ****         else
1003:SynaptiX_FDK/services/cJSON/cJSON.c ****         {
1004:SynaptiX_FDK/services/cJSON/cJSON.c ****             /* character needs to be escaped */
1005:SynaptiX_FDK/services/cJSON/cJSON.c ****             *output_pointer++ = '\\';
1006:SynaptiX_FDK/services/cJSON/cJSON.c ****             switch (*input_pointer)
1007:SynaptiX_FDK/services/cJSON/cJSON.c ****             {
1008:SynaptiX_FDK/services/cJSON/cJSON.c ****                 case '\\':
1009:SynaptiX_FDK/services/cJSON/cJSON.c ****                     *output_pointer = '\\';
1010:SynaptiX_FDK/services/cJSON/cJSON.c ****                     break;
1011:SynaptiX_FDK/services/cJSON/cJSON.c ****                 case '\"':
1012:SynaptiX_FDK/services/cJSON/cJSON.c ****                     *output_pointer = '\"';
1013:SynaptiX_FDK/services/cJSON/cJSON.c ****                     break;
1014:SynaptiX_FDK/services/cJSON/cJSON.c ****                 case '\b':
1015:SynaptiX_FDK/services/cJSON/cJSON.c ****                     *output_pointer = 'b';
1016:SynaptiX_FDK/services/cJSON/cJSON.c ****                     break;
1017:SynaptiX_FDK/services/cJSON/cJSON.c ****                 case '\f':
1018:SynaptiX_FDK/services/cJSON/cJSON.c ****                     *output_pointer = 'f';
1019:SynaptiX_FDK/services/cJSON/cJSON.c ****                     break;
1020:SynaptiX_FDK/services/cJSON/cJSON.c ****                 case '\n':
1021:SynaptiX_FDK/services/cJSON/cJSON.c ****                     *output_pointer = 'n';
1022:SynaptiX_FDK/services/cJSON/cJSON.c ****                     break;
1023:SynaptiX_FDK/services/cJSON/cJSON.c ****                 case '\r':
1024:SynaptiX_FDK/services/cJSON/cJSON.c ****                     *output_pointer = 'r';
1025:SynaptiX_FDK/services/cJSON/cJSON.c ****                     break;
1026:SynaptiX_FDK/services/cJSON/cJSON.c ****                 case '\t':
1027:SynaptiX_FDK/services/cJSON/cJSON.c ****                     *output_pointer = 't';
1028:SynaptiX_FDK/services/cJSON/cJSON.c ****                     break;
1029:SynaptiX_FDK/services/cJSON/cJSON.c ****                 default:
1030:SynaptiX_FDK/services/cJSON/cJSON.c ****                     /* escape and print as unicode codepoint */
1031:SynaptiX_FDK/services/cJSON/cJSON.c ****                     sprintf((char*)output_pointer, "u%04x", *input_pointer);
1032:SynaptiX_FDK/services/cJSON/cJSON.c ****                     output_pointer += 4;
1033:SynaptiX_FDK/services/cJSON/cJSON.c ****                     break;
1034:SynaptiX_FDK/services/cJSON/cJSON.c ****             }
1035:SynaptiX_FDK/services/cJSON/cJSON.c ****         }
1036:SynaptiX_FDK/services/cJSON/cJSON.c ****     }
1037:SynaptiX_FDK/services/cJSON/cJSON.c ****     output[output_length + 1] = '\"';
1038:SynaptiX_FDK/services/cJSON/cJSON.c ****     output[output_length + 2] = '\0';
1039:SynaptiX_FDK/services/cJSON/cJSON.c **** 
1040:SynaptiX_FDK/services/cJSON/cJSON.c ****     return true;
1041:SynaptiX_FDK/services/cJSON/cJSON.c **** }
1042:SynaptiX_FDK/services/cJSON/cJSON.c **** 
1043:SynaptiX_FDK/services/cJSON/cJSON.c **** /* Invoke print_string_ptr (which is useful) on an item. */
1044:SynaptiX_FDK/services/cJSON/cJSON.c **** static cJSON_bool print_string(const cJSON * const item, printbuffer * const p)
1045:SynaptiX_FDK/services/cJSON/cJSON.c **** {
1046:SynaptiX_FDK/services/cJSON/cJSON.c ****     return print_string_ptr((unsigned char*)item->valuestring, p);
1047:SynaptiX_FDK/services/cJSON/cJSON.c **** }
1048:SynaptiX_FDK/services/cJSON/cJSON.c **** 
1049:SynaptiX_FDK/services/cJSON/cJSON.c **** /* Predeclare these prototypes. */
1050:SynaptiX_FDK/services/cJSON/cJSON.c **** static cJSON_bool parse_value(cJSON * const item, parse_buffer * const input_buffer);
1051:SynaptiX_FDK/services/cJSON/cJSON.c **** static cJSON_bool print_value(const cJSON * const item, printbuffer * const output_buffer);
1052:SynaptiX_FDK/services/cJSON/cJSON.c **** static cJSON_bool parse_array(cJSON * const item, parse_buffer * const input_buffer);
1053:SynaptiX_FDK/services/cJSON/cJSON.c **** static cJSON_bool print_array(const cJSON * const item, printbuffer * const output_buffer);
1054:SynaptiX_FDK/services/cJSON/cJSON.c **** static cJSON_bool parse_object(cJSON * const item, parse_buffer * const input_buffer);
1055:SynaptiX_FDK/services/cJSON/cJSON.c **** static cJSON_bool print_object(const cJSON * const item, printbuffer * const output_buffer);
ARM GAS  C:\Users\DELL\AppData\Local\Temp\ccXjhdgA.s 			page 41


1056:SynaptiX_FDK/services/cJSON/cJSON.c **** 
1057:SynaptiX_FDK/services/cJSON/cJSON.c **** /* Utility to jump whitespace and cr/lf */
1058:SynaptiX_FDK/services/cJSON/cJSON.c **** static parse_buffer *buffer_skip_whitespace(parse_buffer * const buffer)
1059:SynaptiX_FDK/services/cJSON/cJSON.c **** {
 1090              		.loc 1 1059 1 is_stmt 1 view -0
 1091              		.cfi_startproc
 1092              		@ args = 0, pretend = 0, frame = 0
 1093              		@ frame_needed = 0, uses_anonymous_args = 0
 1094              		@ link register save eliminated.
1060:SynaptiX_FDK/services/cJSON/cJSON.c ****     if ((buffer == NULL) || (buffer->content == NULL))
 1095              		.loc 1 1060 5 view .LVU347
 1096              		.loc 1 1060 8 is_stmt 0 view .LVU348
 1097 0000 0246     		mov	r2, r0
 1098 0002 D8B1     		cbz	r0, .L97
1059:SynaptiX_FDK/services/cJSON/cJSON.c ****     if ((buffer == NULL) || (buffer->content == NULL))
 1099              		.loc 1 1059 1 view .LVU349
 1100 0004 10B4     		push	{r4}
 1101              	.LCFI9:
 1102              		.cfi_def_cfa_offset 4
 1103              		.cfi_offset 4, -4
 1104              		.loc 1 1060 36 discriminator 1 view .LVU350
 1105 0006 0468     		ldr	r4, [r0]
 1106              		.loc 1 1060 26 discriminator 1 view .LVU351
 1107 0008 B4B1     		cbz	r4, .L95
1061:SynaptiX_FDK/services/cJSON/cJSON.c ****     {
1062:SynaptiX_FDK/services/cJSON/cJSON.c ****         return NULL;
1063:SynaptiX_FDK/services/cJSON/cJSON.c ****     }
1064:SynaptiX_FDK/services/cJSON/cJSON.c **** 
1065:SynaptiX_FDK/services/cJSON/cJSON.c ****     if (cannot_access_at_index(buffer, 0))
 1108              		.loc 1 1065 5 is_stmt 1 view .LVU352
 1109              		.loc 1 1065 9 is_stmt 0 discriminator 1 view .LVU353
 1110 000a 8368     		ldr	r3, [r0, #8]
 1111 000c 4068     		ldr	r0, [r0, #4]
 1112              	.LVL113:
 1113              		.loc 1 1065 9 discriminator 1 view .LVU354
 1114 000e 8342     		cmp	r3, r0
 1115 0010 02D3     		bcc	.L92
 1116 0012 0AE0     		b	.L91
 1117              	.L94:
1066:SynaptiX_FDK/services/cJSON/cJSON.c ****     {
1067:SynaptiX_FDK/services/cJSON/cJSON.c ****         return buffer;
1068:SynaptiX_FDK/services/cJSON/cJSON.c ****     }
1069:SynaptiX_FDK/services/cJSON/cJSON.c **** 
1070:SynaptiX_FDK/services/cJSON/cJSON.c ****     while (can_access_at_index(buffer, 0) && (buffer_at_offset(buffer)[0] <= 32))
1071:SynaptiX_FDK/services/cJSON/cJSON.c ****     {
1072:SynaptiX_FDK/services/cJSON/cJSON.c ****        buffer->offset++;
 1118              		.loc 1 1072 8 is_stmt 1 view .LVU355
 1119              		.loc 1 1072 22 is_stmt 0 view .LVU356
 1120 0014 0133     		adds	r3, r3, #1
 1121 0016 9360     		str	r3, [r2, #8]
 1122              	.L92:
1070:SynaptiX_FDK/services/cJSON/cJSON.c ****     {
 1123              		.loc 1 1070 43 is_stmt 1 view .LVU357
1070:SynaptiX_FDK/services/cJSON/cJSON.c ****     {
 1124              		.loc 1 1070 12 is_stmt 0 discriminator 1 view .LVU358
 1125 0018 9368     		ldr	r3, [r2, #8]
 1126 001a 9842     		cmp	r0, r3
ARM GAS  C:\Users\DELL\AppData\Local\Temp\ccXjhdgA.s 			page 42


 1127 001c 02D9     		bls	.L93
1070:SynaptiX_FDK/services/cJSON/cJSON.c ****     {
 1128              		.loc 1 1070 71 discriminator 2 view .LVU359
 1129 001e E15C     		ldrb	r1, [r4, r3]	@ zero_extendqisi2
1070:SynaptiX_FDK/services/cJSON/cJSON.c ****     {
 1130              		.loc 1 1070 43 discriminator 2 view .LVU360
 1131 0020 2029     		cmp	r1, #32
 1132 0022 F7D9     		bls	.L94
 1133              	.L93:
1073:SynaptiX_FDK/services/cJSON/cJSON.c ****     }
1074:SynaptiX_FDK/services/cJSON/cJSON.c **** 
1075:SynaptiX_FDK/services/cJSON/cJSON.c ****     if (buffer->offset == buffer->length)
 1134              		.loc 1 1075 5 is_stmt 1 view .LVU361
 1135              		.loc 1 1075 15 is_stmt 0 view .LVU362
 1136 0024 9368     		ldr	r3, [r2, #8]
 1137              		.loc 1 1075 8 view .LVU363
 1138 0026 9842     		cmp	r0, r3
 1139 0028 03D0     		beq	.L100
 1140              	.LVL114:
 1141              	.L91:
1076:SynaptiX_FDK/services/cJSON/cJSON.c ****     {
1077:SynaptiX_FDK/services/cJSON/cJSON.c ****         buffer->offset--;
1078:SynaptiX_FDK/services/cJSON/cJSON.c ****     }
1079:SynaptiX_FDK/services/cJSON/cJSON.c **** 
1080:SynaptiX_FDK/services/cJSON/cJSON.c ****     return buffer;
1081:SynaptiX_FDK/services/cJSON/cJSON.c **** }
 1142              		.loc 1 1081 1 view .LVU364
 1143 002a 1046     		mov	r0, r2
 1144 002c 5DF8044B 		ldr	r4, [sp], #4
 1145 0030 7047     		bx	lr
 1146              	.LVL115:
 1147              	.L100:
1077:SynaptiX_FDK/services/cJSON/cJSON.c ****     }
 1148              		.loc 1 1077 9 is_stmt 1 view .LVU365
1077:SynaptiX_FDK/services/cJSON/cJSON.c ****     }
 1149              		.loc 1 1077 23 is_stmt 0 view .LVU366
 1150 0032 013B     		subs	r3, r3, #1
 1151 0034 9360     		str	r3, [r2, #8]
 1152 0036 F8E7     		b	.L91
 1153              	.LVL116:
 1154              	.L95:
1062:SynaptiX_FDK/services/cJSON/cJSON.c ****     }
 1155              		.loc 1 1062 16 view .LVU367
 1156 0038 2246     		mov	r2, r4
 1157 003a F6E7     		b	.L91
 1158              	.L97:
 1159              	.LCFI10:
 1160              		.cfi_def_cfa_offset 0
 1161              		.cfi_restore 4
 1162              		.loc 1 1081 1 view .LVU368
 1163 003c 7047     		bx	lr
 1164              		.cfi_endproc
 1165              	.LFE26:
 1167              		.section	.text.get_array_item,"ax",%progbits
 1168              		.align	1
 1169              		.syntax unified
 1170              		.thumb
ARM GAS  C:\Users\DELL\AppData\Local\Temp\ccXjhdgA.s 			page 43


 1171              		.thumb_func
 1173              	get_array_item:
 1174              	.LVL117:
 1175              	.LFB44:
1082:SynaptiX_FDK/services/cJSON/cJSON.c **** 
1083:SynaptiX_FDK/services/cJSON/cJSON.c **** /* skip the UTF-8 BOM (byte order mark) if it is at the beginning of a buffer */
1084:SynaptiX_FDK/services/cJSON/cJSON.c **** static parse_buffer *skip_utf8_bom(parse_buffer * const buffer)
1085:SynaptiX_FDK/services/cJSON/cJSON.c **** {
1086:SynaptiX_FDK/services/cJSON/cJSON.c ****     if ((buffer == NULL) || (buffer->content == NULL) || (buffer->offset != 0))
1087:SynaptiX_FDK/services/cJSON/cJSON.c ****     {
1088:SynaptiX_FDK/services/cJSON/cJSON.c ****         return NULL;
1089:SynaptiX_FDK/services/cJSON/cJSON.c ****     }
1090:SynaptiX_FDK/services/cJSON/cJSON.c **** 
1091:SynaptiX_FDK/services/cJSON/cJSON.c ****     if (can_access_at_index(buffer, 4) && (strncmp((const char*)buffer_at_offset(buffer), "\xEF\xBB
1092:SynaptiX_FDK/services/cJSON/cJSON.c ****     {
1093:SynaptiX_FDK/services/cJSON/cJSON.c ****         buffer->offset += 3;
1094:SynaptiX_FDK/services/cJSON/cJSON.c ****     }
1095:SynaptiX_FDK/services/cJSON/cJSON.c **** 
1096:SynaptiX_FDK/services/cJSON/cJSON.c ****     return buffer;
1097:SynaptiX_FDK/services/cJSON/cJSON.c **** }
1098:SynaptiX_FDK/services/cJSON/cJSON.c **** 
1099:SynaptiX_FDK/services/cJSON/cJSON.c **** CJSON_PUBLIC(cJSON *) cJSON_ParseWithOpts(const char *value, const char **return_parse_end, cJSON_b
1100:SynaptiX_FDK/services/cJSON/cJSON.c **** {
1101:SynaptiX_FDK/services/cJSON/cJSON.c ****     size_t buffer_length;
1102:SynaptiX_FDK/services/cJSON/cJSON.c **** 
1103:SynaptiX_FDK/services/cJSON/cJSON.c ****     if (NULL == value)
1104:SynaptiX_FDK/services/cJSON/cJSON.c ****     {
1105:SynaptiX_FDK/services/cJSON/cJSON.c ****         return NULL;
1106:SynaptiX_FDK/services/cJSON/cJSON.c ****     }
1107:SynaptiX_FDK/services/cJSON/cJSON.c **** 
1108:SynaptiX_FDK/services/cJSON/cJSON.c ****     /* Adding null character size due to require_null_terminated. */
1109:SynaptiX_FDK/services/cJSON/cJSON.c ****     buffer_length = strlen(value) + sizeof("");
1110:SynaptiX_FDK/services/cJSON/cJSON.c **** 
1111:SynaptiX_FDK/services/cJSON/cJSON.c ****     return cJSON_ParseWithLengthOpts(value, buffer_length, return_parse_end, require_null_terminate
1112:SynaptiX_FDK/services/cJSON/cJSON.c **** }
1113:SynaptiX_FDK/services/cJSON/cJSON.c **** 
1114:SynaptiX_FDK/services/cJSON/cJSON.c **** /* Parse an object - create a new root, and populate. */
1115:SynaptiX_FDK/services/cJSON/cJSON.c **** CJSON_PUBLIC(cJSON *) cJSON_ParseWithLengthOpts(const char *value, size_t buffer_length, const char
1116:SynaptiX_FDK/services/cJSON/cJSON.c **** {
1117:SynaptiX_FDK/services/cJSON/cJSON.c ****     parse_buffer buffer = { 0, 0, 0, 0, { 0, 0, 0 } };
1118:SynaptiX_FDK/services/cJSON/cJSON.c ****     cJSON *item = NULL;
1119:SynaptiX_FDK/services/cJSON/cJSON.c **** 
1120:SynaptiX_FDK/services/cJSON/cJSON.c ****     /* reset error position */
1121:SynaptiX_FDK/services/cJSON/cJSON.c ****     global_error.json = NULL;
1122:SynaptiX_FDK/services/cJSON/cJSON.c ****     global_error.position = 0;
1123:SynaptiX_FDK/services/cJSON/cJSON.c **** 
1124:SynaptiX_FDK/services/cJSON/cJSON.c ****     if (value == NULL || 0 == buffer_length)
1125:SynaptiX_FDK/services/cJSON/cJSON.c ****     {
1126:SynaptiX_FDK/services/cJSON/cJSON.c ****         goto fail;
1127:SynaptiX_FDK/services/cJSON/cJSON.c ****     }
1128:SynaptiX_FDK/services/cJSON/cJSON.c **** 
1129:SynaptiX_FDK/services/cJSON/cJSON.c ****     buffer.content = (const unsigned char*)value;
1130:SynaptiX_FDK/services/cJSON/cJSON.c ****     buffer.length = buffer_length;
1131:SynaptiX_FDK/services/cJSON/cJSON.c ****     buffer.offset = 0;
1132:SynaptiX_FDK/services/cJSON/cJSON.c ****     buffer.hooks = global_hooks;
1133:SynaptiX_FDK/services/cJSON/cJSON.c **** 
1134:SynaptiX_FDK/services/cJSON/cJSON.c ****     item = cJSON_New_Item(&global_hooks);
ARM GAS  C:\Users\DELL\AppData\Local\Temp\ccXjhdgA.s 			page 44


1135:SynaptiX_FDK/services/cJSON/cJSON.c ****     if (item == NULL) /* memory fail */
1136:SynaptiX_FDK/services/cJSON/cJSON.c ****     {
1137:SynaptiX_FDK/services/cJSON/cJSON.c ****         goto fail;
1138:SynaptiX_FDK/services/cJSON/cJSON.c ****     }
1139:SynaptiX_FDK/services/cJSON/cJSON.c **** 
1140:SynaptiX_FDK/services/cJSON/cJSON.c ****     if (!parse_value(item, buffer_skip_whitespace(skip_utf8_bom(&buffer))))
1141:SynaptiX_FDK/services/cJSON/cJSON.c ****     {
1142:SynaptiX_FDK/services/cJSON/cJSON.c ****         /* parse failure. ep is set. */
1143:SynaptiX_FDK/services/cJSON/cJSON.c ****         goto fail;
1144:SynaptiX_FDK/services/cJSON/cJSON.c ****     }
1145:SynaptiX_FDK/services/cJSON/cJSON.c **** 
1146:SynaptiX_FDK/services/cJSON/cJSON.c ****     /* if we require null-terminated JSON without appended garbage, skip and then check for a null 
1147:SynaptiX_FDK/services/cJSON/cJSON.c ****     if (require_null_terminated)
1148:SynaptiX_FDK/services/cJSON/cJSON.c ****     {
1149:SynaptiX_FDK/services/cJSON/cJSON.c ****         buffer_skip_whitespace(&buffer);
1150:SynaptiX_FDK/services/cJSON/cJSON.c ****         if ((buffer.offset >= buffer.length) || buffer_at_offset(&buffer)[0] != '\0')
1151:SynaptiX_FDK/services/cJSON/cJSON.c ****         {
1152:SynaptiX_FDK/services/cJSON/cJSON.c ****             goto fail;
1153:SynaptiX_FDK/services/cJSON/cJSON.c ****         }
1154:SynaptiX_FDK/services/cJSON/cJSON.c ****     }
1155:SynaptiX_FDK/services/cJSON/cJSON.c ****     if (return_parse_end)
1156:SynaptiX_FDK/services/cJSON/cJSON.c ****     {
1157:SynaptiX_FDK/services/cJSON/cJSON.c ****         *return_parse_end = (const char*)buffer_at_offset(&buffer);
1158:SynaptiX_FDK/services/cJSON/cJSON.c ****     }
1159:SynaptiX_FDK/services/cJSON/cJSON.c **** 
1160:SynaptiX_FDK/services/cJSON/cJSON.c ****     return item;
1161:SynaptiX_FDK/services/cJSON/cJSON.c **** 
1162:SynaptiX_FDK/services/cJSON/cJSON.c **** fail:
1163:SynaptiX_FDK/services/cJSON/cJSON.c ****     if (item != NULL)
1164:SynaptiX_FDK/services/cJSON/cJSON.c ****     {
1165:SynaptiX_FDK/services/cJSON/cJSON.c ****         cJSON_Delete(item);
1166:SynaptiX_FDK/services/cJSON/cJSON.c ****     }
1167:SynaptiX_FDK/services/cJSON/cJSON.c **** 
1168:SynaptiX_FDK/services/cJSON/cJSON.c ****     if (value != NULL)
1169:SynaptiX_FDK/services/cJSON/cJSON.c ****     {
1170:SynaptiX_FDK/services/cJSON/cJSON.c ****         error local_error;
1171:SynaptiX_FDK/services/cJSON/cJSON.c ****         local_error.json = (const unsigned char*)value;
1172:SynaptiX_FDK/services/cJSON/cJSON.c ****         local_error.position = 0;
1173:SynaptiX_FDK/services/cJSON/cJSON.c **** 
1174:SynaptiX_FDK/services/cJSON/cJSON.c ****         if (buffer.offset < buffer.length)
1175:SynaptiX_FDK/services/cJSON/cJSON.c ****         {
1176:SynaptiX_FDK/services/cJSON/cJSON.c ****             local_error.position = buffer.offset;
1177:SynaptiX_FDK/services/cJSON/cJSON.c ****         }
1178:SynaptiX_FDK/services/cJSON/cJSON.c ****         else if (buffer.length > 0)
1179:SynaptiX_FDK/services/cJSON/cJSON.c ****         {
1180:SynaptiX_FDK/services/cJSON/cJSON.c ****             local_error.position = buffer.length - 1;
1181:SynaptiX_FDK/services/cJSON/cJSON.c ****         }
1182:SynaptiX_FDK/services/cJSON/cJSON.c **** 
1183:SynaptiX_FDK/services/cJSON/cJSON.c ****         if (return_parse_end != NULL)
1184:SynaptiX_FDK/services/cJSON/cJSON.c ****         {
1185:SynaptiX_FDK/services/cJSON/cJSON.c ****             *return_parse_end = (const char*)local_error.json + local_error.position;
1186:SynaptiX_FDK/services/cJSON/cJSON.c ****         }
1187:SynaptiX_FDK/services/cJSON/cJSON.c **** 
1188:SynaptiX_FDK/services/cJSON/cJSON.c ****         global_error = local_error;
1189:SynaptiX_FDK/services/cJSON/cJSON.c ****     }
1190:SynaptiX_FDK/services/cJSON/cJSON.c **** 
1191:SynaptiX_FDK/services/cJSON/cJSON.c ****     return NULL;
ARM GAS  C:\Users\DELL\AppData\Local\Temp\ccXjhdgA.s 			page 45


1192:SynaptiX_FDK/services/cJSON/cJSON.c **** }
1193:SynaptiX_FDK/services/cJSON/cJSON.c **** 
1194:SynaptiX_FDK/services/cJSON/cJSON.c **** /* Default options for cJSON_Parse */
1195:SynaptiX_FDK/services/cJSON/cJSON.c **** CJSON_PUBLIC(cJSON *) cJSON_Parse(const char *value)
1196:SynaptiX_FDK/services/cJSON/cJSON.c **** {
1197:SynaptiX_FDK/services/cJSON/cJSON.c ****     return cJSON_ParseWithOpts(value, 0, 0);
1198:SynaptiX_FDK/services/cJSON/cJSON.c **** }
1199:SynaptiX_FDK/services/cJSON/cJSON.c **** 
1200:SynaptiX_FDK/services/cJSON/cJSON.c **** CJSON_PUBLIC(cJSON *) cJSON_ParseWithLength(const char *value, size_t buffer_length)
1201:SynaptiX_FDK/services/cJSON/cJSON.c **** {
1202:SynaptiX_FDK/services/cJSON/cJSON.c ****     return cJSON_ParseWithLengthOpts(value, buffer_length, 0, 0);
1203:SynaptiX_FDK/services/cJSON/cJSON.c **** }
1204:SynaptiX_FDK/services/cJSON/cJSON.c **** 
1205:SynaptiX_FDK/services/cJSON/cJSON.c **** #define cjson_min(a, b) (((a) < (b)) ? (a) : (b))
1206:SynaptiX_FDK/services/cJSON/cJSON.c **** 
1207:SynaptiX_FDK/services/cJSON/cJSON.c **** static unsigned char *print(const cJSON * const item, cJSON_bool format, const internal_hooks * con
1208:SynaptiX_FDK/services/cJSON/cJSON.c **** {
1209:SynaptiX_FDK/services/cJSON/cJSON.c ****     static const size_t default_buffer_size = 256;
1210:SynaptiX_FDK/services/cJSON/cJSON.c ****     printbuffer buffer[1];
1211:SynaptiX_FDK/services/cJSON/cJSON.c ****     unsigned char *printed = NULL;
1212:SynaptiX_FDK/services/cJSON/cJSON.c **** 
1213:SynaptiX_FDK/services/cJSON/cJSON.c ****     memset(buffer, 0, sizeof(buffer));
1214:SynaptiX_FDK/services/cJSON/cJSON.c **** 
1215:SynaptiX_FDK/services/cJSON/cJSON.c ****     /* create buffer */
1216:SynaptiX_FDK/services/cJSON/cJSON.c ****     buffer->buffer = (unsigned char*) hooks->allocate(default_buffer_size);
1217:SynaptiX_FDK/services/cJSON/cJSON.c ****     buffer->length = default_buffer_size;
1218:SynaptiX_FDK/services/cJSON/cJSON.c ****     buffer->format = format;
1219:SynaptiX_FDK/services/cJSON/cJSON.c ****     buffer->hooks = *hooks;
1220:SynaptiX_FDK/services/cJSON/cJSON.c ****     if (buffer->buffer == NULL)
1221:SynaptiX_FDK/services/cJSON/cJSON.c ****     {
1222:SynaptiX_FDK/services/cJSON/cJSON.c ****         goto fail;
1223:SynaptiX_FDK/services/cJSON/cJSON.c ****     }
1224:SynaptiX_FDK/services/cJSON/cJSON.c **** 
1225:SynaptiX_FDK/services/cJSON/cJSON.c ****     /* print the value */
1226:SynaptiX_FDK/services/cJSON/cJSON.c ****     if (!print_value(item, buffer))
1227:SynaptiX_FDK/services/cJSON/cJSON.c ****     {
1228:SynaptiX_FDK/services/cJSON/cJSON.c ****         goto fail;
1229:SynaptiX_FDK/services/cJSON/cJSON.c ****     }
1230:SynaptiX_FDK/services/cJSON/cJSON.c ****     update_offset(buffer);
1231:SynaptiX_FDK/services/cJSON/cJSON.c **** 
1232:SynaptiX_FDK/services/cJSON/cJSON.c ****     /* check if reallocate is available */
1233:SynaptiX_FDK/services/cJSON/cJSON.c ****     if (hooks->reallocate != NULL)
1234:SynaptiX_FDK/services/cJSON/cJSON.c ****     {
1235:SynaptiX_FDK/services/cJSON/cJSON.c ****         printed = (unsigned char*) hooks->reallocate(buffer->buffer, buffer->offset + 1);
1236:SynaptiX_FDK/services/cJSON/cJSON.c ****         if (printed == NULL) {
1237:SynaptiX_FDK/services/cJSON/cJSON.c ****             goto fail;
1238:SynaptiX_FDK/services/cJSON/cJSON.c ****         }
1239:SynaptiX_FDK/services/cJSON/cJSON.c ****         buffer->buffer = NULL;
1240:SynaptiX_FDK/services/cJSON/cJSON.c ****     }
1241:SynaptiX_FDK/services/cJSON/cJSON.c ****     else /* otherwise copy the JSON over to a new buffer */
1242:SynaptiX_FDK/services/cJSON/cJSON.c ****     {
1243:SynaptiX_FDK/services/cJSON/cJSON.c ****         printed = (unsigned char*) hooks->allocate(buffer->offset + 1);
1244:SynaptiX_FDK/services/cJSON/cJSON.c ****         if (printed == NULL)
1245:SynaptiX_FDK/services/cJSON/cJSON.c ****         {
1246:SynaptiX_FDK/services/cJSON/cJSON.c ****             goto fail;
1247:SynaptiX_FDK/services/cJSON/cJSON.c ****         }
1248:SynaptiX_FDK/services/cJSON/cJSON.c ****         memcpy(printed, buffer->buffer, cjson_min(buffer->length, buffer->offset + 1));
ARM GAS  C:\Users\DELL\AppData\Local\Temp\ccXjhdgA.s 			page 46


1249:SynaptiX_FDK/services/cJSON/cJSON.c ****         printed[buffer->offset] = '\0'; /* just to be sure */
1250:SynaptiX_FDK/services/cJSON/cJSON.c **** 
1251:SynaptiX_FDK/services/cJSON/cJSON.c ****         /* free the buffer */
1252:SynaptiX_FDK/services/cJSON/cJSON.c ****         hooks->deallocate(buffer->buffer);
1253:SynaptiX_FDK/services/cJSON/cJSON.c ****         buffer->buffer = NULL;
1254:SynaptiX_FDK/services/cJSON/cJSON.c ****     }
1255:SynaptiX_FDK/services/cJSON/cJSON.c **** 
1256:SynaptiX_FDK/services/cJSON/cJSON.c ****     return printed;
1257:SynaptiX_FDK/services/cJSON/cJSON.c **** 
1258:SynaptiX_FDK/services/cJSON/cJSON.c **** fail:
1259:SynaptiX_FDK/services/cJSON/cJSON.c ****     if (buffer->buffer != NULL)
1260:SynaptiX_FDK/services/cJSON/cJSON.c ****     {
1261:SynaptiX_FDK/services/cJSON/cJSON.c ****         hooks->deallocate(buffer->buffer);
1262:SynaptiX_FDK/services/cJSON/cJSON.c ****         buffer->buffer = NULL;
1263:SynaptiX_FDK/services/cJSON/cJSON.c ****     }
1264:SynaptiX_FDK/services/cJSON/cJSON.c **** 
1265:SynaptiX_FDK/services/cJSON/cJSON.c ****     if (printed != NULL)
1266:SynaptiX_FDK/services/cJSON/cJSON.c ****     {
1267:SynaptiX_FDK/services/cJSON/cJSON.c ****         hooks->deallocate(printed);
1268:SynaptiX_FDK/services/cJSON/cJSON.c ****         printed = NULL;
1269:SynaptiX_FDK/services/cJSON/cJSON.c ****     }
1270:SynaptiX_FDK/services/cJSON/cJSON.c **** 
1271:SynaptiX_FDK/services/cJSON/cJSON.c ****     return NULL;
1272:SynaptiX_FDK/services/cJSON/cJSON.c **** }
1273:SynaptiX_FDK/services/cJSON/cJSON.c **** 
1274:SynaptiX_FDK/services/cJSON/cJSON.c **** /* Render a cJSON item/entity/structure to text. */
1275:SynaptiX_FDK/services/cJSON/cJSON.c **** CJSON_PUBLIC(char *) cJSON_Print(const cJSON *item)
1276:SynaptiX_FDK/services/cJSON/cJSON.c **** {
1277:SynaptiX_FDK/services/cJSON/cJSON.c ****     return (char*)print(item, true, &global_hooks);
1278:SynaptiX_FDK/services/cJSON/cJSON.c **** }
1279:SynaptiX_FDK/services/cJSON/cJSON.c **** 
1280:SynaptiX_FDK/services/cJSON/cJSON.c **** CJSON_PUBLIC(char *) cJSON_PrintUnformatted(const cJSON *item)
1281:SynaptiX_FDK/services/cJSON/cJSON.c **** {
1282:SynaptiX_FDK/services/cJSON/cJSON.c ****     return (char*)print(item, false, &global_hooks);
1283:SynaptiX_FDK/services/cJSON/cJSON.c **** }
1284:SynaptiX_FDK/services/cJSON/cJSON.c **** 
1285:SynaptiX_FDK/services/cJSON/cJSON.c **** CJSON_PUBLIC(char *) cJSON_PrintBuffered(const cJSON *item, int prebuffer, cJSON_bool fmt)
1286:SynaptiX_FDK/services/cJSON/cJSON.c **** {
1287:SynaptiX_FDK/services/cJSON/cJSON.c ****     printbuffer p = { 0, 0, 0, 0, 0, 0, { 0, 0, 0 } };
1288:SynaptiX_FDK/services/cJSON/cJSON.c **** 
1289:SynaptiX_FDK/services/cJSON/cJSON.c ****     if (prebuffer < 0)
1290:SynaptiX_FDK/services/cJSON/cJSON.c ****     {
1291:SynaptiX_FDK/services/cJSON/cJSON.c ****         return NULL;
1292:SynaptiX_FDK/services/cJSON/cJSON.c ****     }
1293:SynaptiX_FDK/services/cJSON/cJSON.c **** 
1294:SynaptiX_FDK/services/cJSON/cJSON.c ****     p.buffer = (unsigned char*)global_hooks.allocate((size_t)prebuffer);
1295:SynaptiX_FDK/services/cJSON/cJSON.c ****     if (!p.buffer)
1296:SynaptiX_FDK/services/cJSON/cJSON.c ****     {
1297:SynaptiX_FDK/services/cJSON/cJSON.c ****         return NULL;
1298:SynaptiX_FDK/services/cJSON/cJSON.c ****     }
1299:SynaptiX_FDK/services/cJSON/cJSON.c **** 
1300:SynaptiX_FDK/services/cJSON/cJSON.c ****     p.length = (size_t)prebuffer;
1301:SynaptiX_FDK/services/cJSON/cJSON.c ****     p.offset = 0;
1302:SynaptiX_FDK/services/cJSON/cJSON.c ****     p.noalloc = false;
1303:SynaptiX_FDK/services/cJSON/cJSON.c ****     p.format = fmt;
1304:SynaptiX_FDK/services/cJSON/cJSON.c ****     p.hooks = global_hooks;
1305:SynaptiX_FDK/services/cJSON/cJSON.c **** 
ARM GAS  C:\Users\DELL\AppData\Local\Temp\ccXjhdgA.s 			page 47


1306:SynaptiX_FDK/services/cJSON/cJSON.c ****     if (!print_value(item, &p))
1307:SynaptiX_FDK/services/cJSON/cJSON.c ****     {
1308:SynaptiX_FDK/services/cJSON/cJSON.c ****         global_hooks.deallocate(p.buffer);
1309:SynaptiX_FDK/services/cJSON/cJSON.c ****         p.buffer = NULL;
1310:SynaptiX_FDK/services/cJSON/cJSON.c ****         return NULL;
1311:SynaptiX_FDK/services/cJSON/cJSON.c ****     }
1312:SynaptiX_FDK/services/cJSON/cJSON.c **** 
1313:SynaptiX_FDK/services/cJSON/cJSON.c ****     return (char*)p.buffer;
1314:SynaptiX_FDK/services/cJSON/cJSON.c **** }
1315:SynaptiX_FDK/services/cJSON/cJSON.c **** 
1316:SynaptiX_FDK/services/cJSON/cJSON.c **** CJSON_PUBLIC(cJSON_bool) cJSON_PrintPreallocated(cJSON *item, char *buffer, const int length, const
1317:SynaptiX_FDK/services/cJSON/cJSON.c **** {
1318:SynaptiX_FDK/services/cJSON/cJSON.c ****     printbuffer p = { 0, 0, 0, 0, 0, 0, { 0, 0, 0 } };
1319:SynaptiX_FDK/services/cJSON/cJSON.c **** 
1320:SynaptiX_FDK/services/cJSON/cJSON.c ****     if ((length < 0) || (buffer == NULL))
1321:SynaptiX_FDK/services/cJSON/cJSON.c ****     {
1322:SynaptiX_FDK/services/cJSON/cJSON.c ****         return false;
1323:SynaptiX_FDK/services/cJSON/cJSON.c ****     }
1324:SynaptiX_FDK/services/cJSON/cJSON.c **** 
1325:SynaptiX_FDK/services/cJSON/cJSON.c ****     p.buffer = (unsigned char*)buffer;
1326:SynaptiX_FDK/services/cJSON/cJSON.c ****     p.length = (size_t)length;
1327:SynaptiX_FDK/services/cJSON/cJSON.c ****     p.offset = 0;
1328:SynaptiX_FDK/services/cJSON/cJSON.c ****     p.noalloc = true;
1329:SynaptiX_FDK/services/cJSON/cJSON.c ****     p.format = format;
1330:SynaptiX_FDK/services/cJSON/cJSON.c ****     p.hooks = global_hooks;
1331:SynaptiX_FDK/services/cJSON/cJSON.c **** 
1332:SynaptiX_FDK/services/cJSON/cJSON.c ****     return print_value(item, &p);
1333:SynaptiX_FDK/services/cJSON/cJSON.c **** }
1334:SynaptiX_FDK/services/cJSON/cJSON.c **** 
1335:SynaptiX_FDK/services/cJSON/cJSON.c **** /* Parser core - when encountering text, process appropriately. */
1336:SynaptiX_FDK/services/cJSON/cJSON.c **** static cJSON_bool parse_value(cJSON * const item, parse_buffer * const input_buffer)
1337:SynaptiX_FDK/services/cJSON/cJSON.c **** {
1338:SynaptiX_FDK/services/cJSON/cJSON.c ****     if ((input_buffer == NULL) || (input_buffer->content == NULL))
1339:SynaptiX_FDK/services/cJSON/cJSON.c ****     {
1340:SynaptiX_FDK/services/cJSON/cJSON.c ****         return false; /* no input */
1341:SynaptiX_FDK/services/cJSON/cJSON.c ****     }
1342:SynaptiX_FDK/services/cJSON/cJSON.c **** 
1343:SynaptiX_FDK/services/cJSON/cJSON.c ****     /* parse the different types of values */
1344:SynaptiX_FDK/services/cJSON/cJSON.c ****     /* null */
1345:SynaptiX_FDK/services/cJSON/cJSON.c ****     if (can_read(input_buffer, 4) && (strncmp((const char*)buffer_at_offset(input_buffer), "null", 
1346:SynaptiX_FDK/services/cJSON/cJSON.c ****     {
1347:SynaptiX_FDK/services/cJSON/cJSON.c ****         item->type = cJSON_NULL;
1348:SynaptiX_FDK/services/cJSON/cJSON.c ****         input_buffer->offset += 4;
1349:SynaptiX_FDK/services/cJSON/cJSON.c ****         return true;
1350:SynaptiX_FDK/services/cJSON/cJSON.c ****     }
1351:SynaptiX_FDK/services/cJSON/cJSON.c ****     /* false */
1352:SynaptiX_FDK/services/cJSON/cJSON.c ****     if (can_read(input_buffer, 5) && (strncmp((const char*)buffer_at_offset(input_buffer), "false",
1353:SynaptiX_FDK/services/cJSON/cJSON.c ****     {
1354:SynaptiX_FDK/services/cJSON/cJSON.c ****         item->type = cJSON_False;
1355:SynaptiX_FDK/services/cJSON/cJSON.c ****         input_buffer->offset += 5;
1356:SynaptiX_FDK/services/cJSON/cJSON.c ****         return true;
1357:SynaptiX_FDK/services/cJSON/cJSON.c ****     }
1358:SynaptiX_FDK/services/cJSON/cJSON.c ****     /* true */
1359:SynaptiX_FDK/services/cJSON/cJSON.c ****     if (can_read(input_buffer, 4) && (strncmp((const char*)buffer_at_offset(input_buffer), "true", 
1360:SynaptiX_FDK/services/cJSON/cJSON.c ****     {
1361:SynaptiX_FDK/services/cJSON/cJSON.c ****         item->type = cJSON_True;
1362:SynaptiX_FDK/services/cJSON/cJSON.c ****         item->valueint = 1;
ARM GAS  C:\Users\DELL\AppData\Local\Temp\ccXjhdgA.s 			page 48


1363:SynaptiX_FDK/services/cJSON/cJSON.c ****         input_buffer->offset += 4;
1364:SynaptiX_FDK/services/cJSON/cJSON.c ****         return true;
1365:SynaptiX_FDK/services/cJSON/cJSON.c ****     }
1366:SynaptiX_FDK/services/cJSON/cJSON.c ****     /* string */
1367:SynaptiX_FDK/services/cJSON/cJSON.c ****     if (can_access_at_index(input_buffer, 0) && (buffer_at_offset(input_buffer)[0] == '\"'))
1368:SynaptiX_FDK/services/cJSON/cJSON.c ****     {
1369:SynaptiX_FDK/services/cJSON/cJSON.c ****         return parse_string(item, input_buffer);
1370:SynaptiX_FDK/services/cJSON/cJSON.c ****     }
1371:SynaptiX_FDK/services/cJSON/cJSON.c ****     /* number */
1372:SynaptiX_FDK/services/cJSON/cJSON.c ****     if (can_access_at_index(input_buffer, 0) && ((buffer_at_offset(input_buffer)[0] == '-') || ((bu
1373:SynaptiX_FDK/services/cJSON/cJSON.c ****     {
1374:SynaptiX_FDK/services/cJSON/cJSON.c ****         return parse_number(item, input_buffer);
1375:SynaptiX_FDK/services/cJSON/cJSON.c ****     }
1376:SynaptiX_FDK/services/cJSON/cJSON.c ****     /* array */
1377:SynaptiX_FDK/services/cJSON/cJSON.c ****     if (can_access_at_index(input_buffer, 0) && (buffer_at_offset(input_buffer)[0] == '['))
1378:SynaptiX_FDK/services/cJSON/cJSON.c ****     {
1379:SynaptiX_FDK/services/cJSON/cJSON.c ****         return parse_array(item, input_buffer);
1380:SynaptiX_FDK/services/cJSON/cJSON.c ****     }
1381:SynaptiX_FDK/services/cJSON/cJSON.c ****     /* object */
1382:SynaptiX_FDK/services/cJSON/cJSON.c ****     if (can_access_at_index(input_buffer, 0) && (buffer_at_offset(input_buffer)[0] == '{'))
1383:SynaptiX_FDK/services/cJSON/cJSON.c ****     {
1384:SynaptiX_FDK/services/cJSON/cJSON.c ****         return parse_object(item, input_buffer);
1385:SynaptiX_FDK/services/cJSON/cJSON.c ****     }
1386:SynaptiX_FDK/services/cJSON/cJSON.c **** 
1387:SynaptiX_FDK/services/cJSON/cJSON.c ****     return false;
1388:SynaptiX_FDK/services/cJSON/cJSON.c **** }
1389:SynaptiX_FDK/services/cJSON/cJSON.c **** 
1390:SynaptiX_FDK/services/cJSON/cJSON.c **** /* Render a value to text. */
1391:SynaptiX_FDK/services/cJSON/cJSON.c **** static cJSON_bool print_value(const cJSON * const item, printbuffer * const output_buffer)
1392:SynaptiX_FDK/services/cJSON/cJSON.c **** {
1393:SynaptiX_FDK/services/cJSON/cJSON.c ****     unsigned char *output = NULL;
1394:SynaptiX_FDK/services/cJSON/cJSON.c **** 
1395:SynaptiX_FDK/services/cJSON/cJSON.c ****     if ((item == NULL) || (output_buffer == NULL))
1396:SynaptiX_FDK/services/cJSON/cJSON.c ****     {
1397:SynaptiX_FDK/services/cJSON/cJSON.c ****         return false;
1398:SynaptiX_FDK/services/cJSON/cJSON.c ****     }
1399:SynaptiX_FDK/services/cJSON/cJSON.c **** 
1400:SynaptiX_FDK/services/cJSON/cJSON.c ****     switch ((item->type) & 0xFF)
1401:SynaptiX_FDK/services/cJSON/cJSON.c ****     {
1402:SynaptiX_FDK/services/cJSON/cJSON.c ****         case cJSON_NULL:
1403:SynaptiX_FDK/services/cJSON/cJSON.c ****             output = ensure(output_buffer, 5);
1404:SynaptiX_FDK/services/cJSON/cJSON.c ****             if (output == NULL)
1405:SynaptiX_FDK/services/cJSON/cJSON.c ****             {
1406:SynaptiX_FDK/services/cJSON/cJSON.c ****                 return false;
1407:SynaptiX_FDK/services/cJSON/cJSON.c ****             }
1408:SynaptiX_FDK/services/cJSON/cJSON.c ****             strcpy((char*)output, "null");
1409:SynaptiX_FDK/services/cJSON/cJSON.c ****             return true;
1410:SynaptiX_FDK/services/cJSON/cJSON.c **** 
1411:SynaptiX_FDK/services/cJSON/cJSON.c ****         case cJSON_False:
1412:SynaptiX_FDK/services/cJSON/cJSON.c ****             output = ensure(output_buffer, 6);
1413:SynaptiX_FDK/services/cJSON/cJSON.c ****             if (output == NULL)
1414:SynaptiX_FDK/services/cJSON/cJSON.c ****             {
1415:SynaptiX_FDK/services/cJSON/cJSON.c ****                 return false;
1416:SynaptiX_FDK/services/cJSON/cJSON.c ****             }
1417:SynaptiX_FDK/services/cJSON/cJSON.c ****             strcpy((char*)output, "false");
1418:SynaptiX_FDK/services/cJSON/cJSON.c ****             return true;
1419:SynaptiX_FDK/services/cJSON/cJSON.c **** 
ARM GAS  C:\Users\DELL\AppData\Local\Temp\ccXjhdgA.s 			page 49


1420:SynaptiX_FDK/services/cJSON/cJSON.c ****         case cJSON_True:
1421:SynaptiX_FDK/services/cJSON/cJSON.c ****             output = ensure(output_buffer, 5);
1422:SynaptiX_FDK/services/cJSON/cJSON.c ****             if (output == NULL)
1423:SynaptiX_FDK/services/cJSON/cJSON.c ****             {
1424:SynaptiX_FDK/services/cJSON/cJSON.c ****                 return false;
1425:SynaptiX_FDK/services/cJSON/cJSON.c ****             }
1426:SynaptiX_FDK/services/cJSON/cJSON.c ****             strcpy((char*)output, "true");
1427:SynaptiX_FDK/services/cJSON/cJSON.c ****             return true;
1428:SynaptiX_FDK/services/cJSON/cJSON.c **** 
1429:SynaptiX_FDK/services/cJSON/cJSON.c ****         case cJSON_Number:
1430:SynaptiX_FDK/services/cJSON/cJSON.c ****             return print_number(item, output_buffer);
1431:SynaptiX_FDK/services/cJSON/cJSON.c **** 
1432:SynaptiX_FDK/services/cJSON/cJSON.c ****         case cJSON_Raw:
1433:SynaptiX_FDK/services/cJSON/cJSON.c ****         {
1434:SynaptiX_FDK/services/cJSON/cJSON.c ****             size_t raw_length = 0;
1435:SynaptiX_FDK/services/cJSON/cJSON.c ****             if (item->valuestring == NULL)
1436:SynaptiX_FDK/services/cJSON/cJSON.c ****             {
1437:SynaptiX_FDK/services/cJSON/cJSON.c ****                 return false;
1438:SynaptiX_FDK/services/cJSON/cJSON.c ****             }
1439:SynaptiX_FDK/services/cJSON/cJSON.c **** 
1440:SynaptiX_FDK/services/cJSON/cJSON.c ****             raw_length = strlen(item->valuestring) + sizeof("");
1441:SynaptiX_FDK/services/cJSON/cJSON.c ****             output = ensure(output_buffer, raw_length);
1442:SynaptiX_FDK/services/cJSON/cJSON.c ****             if (output == NULL)
1443:SynaptiX_FDK/services/cJSON/cJSON.c ****             {
1444:SynaptiX_FDK/services/cJSON/cJSON.c ****                 return false;
1445:SynaptiX_FDK/services/cJSON/cJSON.c ****             }
1446:SynaptiX_FDK/services/cJSON/cJSON.c ****             memcpy(output, item->valuestring, raw_length);
1447:SynaptiX_FDK/services/cJSON/cJSON.c ****             return true;
1448:SynaptiX_FDK/services/cJSON/cJSON.c ****         }
1449:SynaptiX_FDK/services/cJSON/cJSON.c **** 
1450:SynaptiX_FDK/services/cJSON/cJSON.c ****         case cJSON_String:
1451:SynaptiX_FDK/services/cJSON/cJSON.c ****             return print_string(item, output_buffer);
1452:SynaptiX_FDK/services/cJSON/cJSON.c **** 
1453:SynaptiX_FDK/services/cJSON/cJSON.c ****         case cJSON_Array:
1454:SynaptiX_FDK/services/cJSON/cJSON.c ****             return print_array(item, output_buffer);
1455:SynaptiX_FDK/services/cJSON/cJSON.c **** 
1456:SynaptiX_FDK/services/cJSON/cJSON.c ****         case cJSON_Object:
1457:SynaptiX_FDK/services/cJSON/cJSON.c ****             return print_object(item, output_buffer);
1458:SynaptiX_FDK/services/cJSON/cJSON.c **** 
1459:SynaptiX_FDK/services/cJSON/cJSON.c ****         default:
1460:SynaptiX_FDK/services/cJSON/cJSON.c ****             return false;
1461:SynaptiX_FDK/services/cJSON/cJSON.c ****     }
1462:SynaptiX_FDK/services/cJSON/cJSON.c **** }
1463:SynaptiX_FDK/services/cJSON/cJSON.c **** 
1464:SynaptiX_FDK/services/cJSON/cJSON.c **** /* Build an array from input text. */
1465:SynaptiX_FDK/services/cJSON/cJSON.c **** static cJSON_bool parse_array(cJSON * const item, parse_buffer * const input_buffer)
1466:SynaptiX_FDK/services/cJSON/cJSON.c **** {
1467:SynaptiX_FDK/services/cJSON/cJSON.c ****     cJSON *head = NULL; /* head of the linked list */
1468:SynaptiX_FDK/services/cJSON/cJSON.c ****     cJSON *current_item = NULL;
1469:SynaptiX_FDK/services/cJSON/cJSON.c **** 
1470:SynaptiX_FDK/services/cJSON/cJSON.c ****     if (input_buffer->depth >= CJSON_NESTING_LIMIT)
1471:SynaptiX_FDK/services/cJSON/cJSON.c ****     {
1472:SynaptiX_FDK/services/cJSON/cJSON.c ****         return false; /* to deeply nested */
1473:SynaptiX_FDK/services/cJSON/cJSON.c ****     }
1474:SynaptiX_FDK/services/cJSON/cJSON.c ****     input_buffer->depth++;
1475:SynaptiX_FDK/services/cJSON/cJSON.c **** 
1476:SynaptiX_FDK/services/cJSON/cJSON.c ****     if (buffer_at_offset(input_buffer)[0] != '[')
ARM GAS  C:\Users\DELL\AppData\Local\Temp\ccXjhdgA.s 			page 50


1477:SynaptiX_FDK/services/cJSON/cJSON.c ****     {
1478:SynaptiX_FDK/services/cJSON/cJSON.c ****         /* not an array */
1479:SynaptiX_FDK/services/cJSON/cJSON.c ****         goto fail;
1480:SynaptiX_FDK/services/cJSON/cJSON.c ****     }
1481:SynaptiX_FDK/services/cJSON/cJSON.c **** 
1482:SynaptiX_FDK/services/cJSON/cJSON.c ****     input_buffer->offset++;
1483:SynaptiX_FDK/services/cJSON/cJSON.c ****     buffer_skip_whitespace(input_buffer);
1484:SynaptiX_FDK/services/cJSON/cJSON.c ****     if (can_access_at_index(input_buffer, 0) && (buffer_at_offset(input_buffer)[0] == ']'))
1485:SynaptiX_FDK/services/cJSON/cJSON.c ****     {
1486:SynaptiX_FDK/services/cJSON/cJSON.c ****         /* empty array */
1487:SynaptiX_FDK/services/cJSON/cJSON.c ****         goto success;
1488:SynaptiX_FDK/services/cJSON/cJSON.c ****     }
1489:SynaptiX_FDK/services/cJSON/cJSON.c **** 
1490:SynaptiX_FDK/services/cJSON/cJSON.c ****     /* check if we skipped to the end of the buffer */
1491:SynaptiX_FDK/services/cJSON/cJSON.c ****     if (cannot_access_at_index(input_buffer, 0))
1492:SynaptiX_FDK/services/cJSON/cJSON.c ****     {
1493:SynaptiX_FDK/services/cJSON/cJSON.c ****         input_buffer->offset--;
1494:SynaptiX_FDK/services/cJSON/cJSON.c ****         goto fail;
1495:SynaptiX_FDK/services/cJSON/cJSON.c ****     }
1496:SynaptiX_FDK/services/cJSON/cJSON.c **** 
1497:SynaptiX_FDK/services/cJSON/cJSON.c ****     /* step back to character in front of the first element */
1498:SynaptiX_FDK/services/cJSON/cJSON.c ****     input_buffer->offset--;
1499:SynaptiX_FDK/services/cJSON/cJSON.c ****     /* loop through the comma separated array elements */
1500:SynaptiX_FDK/services/cJSON/cJSON.c ****     do
1501:SynaptiX_FDK/services/cJSON/cJSON.c ****     {
1502:SynaptiX_FDK/services/cJSON/cJSON.c ****         /* allocate next item */
1503:SynaptiX_FDK/services/cJSON/cJSON.c ****         cJSON *new_item = cJSON_New_Item(&(input_buffer->hooks));
1504:SynaptiX_FDK/services/cJSON/cJSON.c ****         if (new_item == NULL)
1505:SynaptiX_FDK/services/cJSON/cJSON.c ****         {
1506:SynaptiX_FDK/services/cJSON/cJSON.c ****             goto fail; /* allocation failure */
1507:SynaptiX_FDK/services/cJSON/cJSON.c ****         }
1508:SynaptiX_FDK/services/cJSON/cJSON.c **** 
1509:SynaptiX_FDK/services/cJSON/cJSON.c ****         /* attach next item to list */
1510:SynaptiX_FDK/services/cJSON/cJSON.c ****         if (head == NULL)
1511:SynaptiX_FDK/services/cJSON/cJSON.c ****         {
1512:SynaptiX_FDK/services/cJSON/cJSON.c ****             /* start the linked list */
1513:SynaptiX_FDK/services/cJSON/cJSON.c ****             current_item = head = new_item;
1514:SynaptiX_FDK/services/cJSON/cJSON.c ****         }
1515:SynaptiX_FDK/services/cJSON/cJSON.c ****         else
1516:SynaptiX_FDK/services/cJSON/cJSON.c ****         {
1517:SynaptiX_FDK/services/cJSON/cJSON.c ****             /* add to the end and advance */
1518:SynaptiX_FDK/services/cJSON/cJSON.c ****             current_item->next = new_item;
1519:SynaptiX_FDK/services/cJSON/cJSON.c ****             new_item->prev = current_item;
1520:SynaptiX_FDK/services/cJSON/cJSON.c ****             current_item = new_item;
1521:SynaptiX_FDK/services/cJSON/cJSON.c ****         }
1522:SynaptiX_FDK/services/cJSON/cJSON.c **** 
1523:SynaptiX_FDK/services/cJSON/cJSON.c ****         /* parse next value */
1524:SynaptiX_FDK/services/cJSON/cJSON.c ****         input_buffer->offset++;
1525:SynaptiX_FDK/services/cJSON/cJSON.c ****         buffer_skip_whitespace(input_buffer);
1526:SynaptiX_FDK/services/cJSON/cJSON.c ****         if (!parse_value(current_item, input_buffer))
1527:SynaptiX_FDK/services/cJSON/cJSON.c ****         {
1528:SynaptiX_FDK/services/cJSON/cJSON.c ****             goto fail; /* failed to parse value */
1529:SynaptiX_FDK/services/cJSON/cJSON.c ****         }
1530:SynaptiX_FDK/services/cJSON/cJSON.c ****         buffer_skip_whitespace(input_buffer);
1531:SynaptiX_FDK/services/cJSON/cJSON.c ****     }
1532:SynaptiX_FDK/services/cJSON/cJSON.c ****     while (can_access_at_index(input_buffer, 0) && (buffer_at_offset(input_buffer)[0] == ','));
1533:SynaptiX_FDK/services/cJSON/cJSON.c **** 
ARM GAS  C:\Users\DELL\AppData\Local\Temp\ccXjhdgA.s 			page 51


1534:SynaptiX_FDK/services/cJSON/cJSON.c ****     if (cannot_access_at_index(input_buffer, 0) || buffer_at_offset(input_buffer)[0] != ']')
1535:SynaptiX_FDK/services/cJSON/cJSON.c ****     {
1536:SynaptiX_FDK/services/cJSON/cJSON.c ****         goto fail; /* expected end of array */
1537:SynaptiX_FDK/services/cJSON/cJSON.c ****     }
1538:SynaptiX_FDK/services/cJSON/cJSON.c **** 
1539:SynaptiX_FDK/services/cJSON/cJSON.c **** success:
1540:SynaptiX_FDK/services/cJSON/cJSON.c ****     input_buffer->depth--;
1541:SynaptiX_FDK/services/cJSON/cJSON.c **** 
1542:SynaptiX_FDK/services/cJSON/cJSON.c ****     if (head != NULL) {
1543:SynaptiX_FDK/services/cJSON/cJSON.c ****         head->prev = current_item;
1544:SynaptiX_FDK/services/cJSON/cJSON.c ****     }
1545:SynaptiX_FDK/services/cJSON/cJSON.c **** 
1546:SynaptiX_FDK/services/cJSON/cJSON.c ****     item->type = cJSON_Array;
1547:SynaptiX_FDK/services/cJSON/cJSON.c ****     item->child = head;
1548:SynaptiX_FDK/services/cJSON/cJSON.c **** 
1549:SynaptiX_FDK/services/cJSON/cJSON.c ****     input_buffer->offset++;
1550:SynaptiX_FDK/services/cJSON/cJSON.c **** 
1551:SynaptiX_FDK/services/cJSON/cJSON.c ****     return true;
1552:SynaptiX_FDK/services/cJSON/cJSON.c **** 
1553:SynaptiX_FDK/services/cJSON/cJSON.c **** fail:
1554:SynaptiX_FDK/services/cJSON/cJSON.c ****     if (head != NULL)
1555:SynaptiX_FDK/services/cJSON/cJSON.c ****     {
1556:SynaptiX_FDK/services/cJSON/cJSON.c ****         cJSON_Delete(head);
1557:SynaptiX_FDK/services/cJSON/cJSON.c ****     }
1558:SynaptiX_FDK/services/cJSON/cJSON.c **** 
1559:SynaptiX_FDK/services/cJSON/cJSON.c ****     return false;
1560:SynaptiX_FDK/services/cJSON/cJSON.c **** }
1561:SynaptiX_FDK/services/cJSON/cJSON.c **** 
1562:SynaptiX_FDK/services/cJSON/cJSON.c **** /* Render an array to text */
1563:SynaptiX_FDK/services/cJSON/cJSON.c **** static cJSON_bool print_array(const cJSON * const item, printbuffer * const output_buffer)
1564:SynaptiX_FDK/services/cJSON/cJSON.c **** {
1565:SynaptiX_FDK/services/cJSON/cJSON.c ****     unsigned char *output_pointer = NULL;
1566:SynaptiX_FDK/services/cJSON/cJSON.c ****     size_t length = 0;
1567:SynaptiX_FDK/services/cJSON/cJSON.c ****     cJSON *current_element = item->child;
1568:SynaptiX_FDK/services/cJSON/cJSON.c **** 
1569:SynaptiX_FDK/services/cJSON/cJSON.c ****     if (output_buffer == NULL)
1570:SynaptiX_FDK/services/cJSON/cJSON.c ****     {
1571:SynaptiX_FDK/services/cJSON/cJSON.c ****         return false;
1572:SynaptiX_FDK/services/cJSON/cJSON.c ****     }
1573:SynaptiX_FDK/services/cJSON/cJSON.c **** 
1574:SynaptiX_FDK/services/cJSON/cJSON.c ****     /* Compose the output array. */
1575:SynaptiX_FDK/services/cJSON/cJSON.c ****     /* opening square bracket */
1576:SynaptiX_FDK/services/cJSON/cJSON.c ****     output_pointer = ensure(output_buffer, 1);
1577:SynaptiX_FDK/services/cJSON/cJSON.c ****     if (output_pointer == NULL)
1578:SynaptiX_FDK/services/cJSON/cJSON.c ****     {
1579:SynaptiX_FDK/services/cJSON/cJSON.c ****         return false;
1580:SynaptiX_FDK/services/cJSON/cJSON.c ****     }
1581:SynaptiX_FDK/services/cJSON/cJSON.c **** 
1582:SynaptiX_FDK/services/cJSON/cJSON.c ****     *output_pointer = '[';
1583:SynaptiX_FDK/services/cJSON/cJSON.c ****     output_buffer->offset++;
1584:SynaptiX_FDK/services/cJSON/cJSON.c ****     output_buffer->depth++;
1585:SynaptiX_FDK/services/cJSON/cJSON.c **** 
1586:SynaptiX_FDK/services/cJSON/cJSON.c ****     while (current_element != NULL)
1587:SynaptiX_FDK/services/cJSON/cJSON.c ****     {
1588:SynaptiX_FDK/services/cJSON/cJSON.c ****         if (!print_value(current_element, output_buffer))
1589:SynaptiX_FDK/services/cJSON/cJSON.c ****         {
1590:SynaptiX_FDK/services/cJSON/cJSON.c ****             return false;
ARM GAS  C:\Users\DELL\AppData\Local\Temp\ccXjhdgA.s 			page 52


1591:SynaptiX_FDK/services/cJSON/cJSON.c ****         }
1592:SynaptiX_FDK/services/cJSON/cJSON.c ****         update_offset(output_buffer);
1593:SynaptiX_FDK/services/cJSON/cJSON.c ****         if (current_element->next)
1594:SynaptiX_FDK/services/cJSON/cJSON.c ****         {
1595:SynaptiX_FDK/services/cJSON/cJSON.c ****             length = (size_t) (output_buffer->format ? 2 : 1);
1596:SynaptiX_FDK/services/cJSON/cJSON.c ****             output_pointer = ensure(output_buffer, length + 1);
1597:SynaptiX_FDK/services/cJSON/cJSON.c ****             if (output_pointer == NULL)
1598:SynaptiX_FDK/services/cJSON/cJSON.c ****             {
1599:SynaptiX_FDK/services/cJSON/cJSON.c ****                 return false;
1600:SynaptiX_FDK/services/cJSON/cJSON.c ****             }
1601:SynaptiX_FDK/services/cJSON/cJSON.c ****             *output_pointer++ = ',';
1602:SynaptiX_FDK/services/cJSON/cJSON.c ****             if(output_buffer->format)
1603:SynaptiX_FDK/services/cJSON/cJSON.c ****             {
1604:SynaptiX_FDK/services/cJSON/cJSON.c ****                 *output_pointer++ = ' ';
1605:SynaptiX_FDK/services/cJSON/cJSON.c ****             }
1606:SynaptiX_FDK/services/cJSON/cJSON.c ****             *output_pointer = '\0';
1607:SynaptiX_FDK/services/cJSON/cJSON.c ****             output_buffer->offset += length;
1608:SynaptiX_FDK/services/cJSON/cJSON.c ****         }
1609:SynaptiX_FDK/services/cJSON/cJSON.c ****         current_element = current_element->next;
1610:SynaptiX_FDK/services/cJSON/cJSON.c ****     }
1611:SynaptiX_FDK/services/cJSON/cJSON.c **** 
1612:SynaptiX_FDK/services/cJSON/cJSON.c ****     output_pointer = ensure(output_buffer, 2);
1613:SynaptiX_FDK/services/cJSON/cJSON.c ****     if (output_pointer == NULL)
1614:SynaptiX_FDK/services/cJSON/cJSON.c ****     {
1615:SynaptiX_FDK/services/cJSON/cJSON.c ****         return false;
1616:SynaptiX_FDK/services/cJSON/cJSON.c ****     }
1617:SynaptiX_FDK/services/cJSON/cJSON.c ****     *output_pointer++ = ']';
1618:SynaptiX_FDK/services/cJSON/cJSON.c ****     *output_pointer = '\0';
1619:SynaptiX_FDK/services/cJSON/cJSON.c ****     output_buffer->depth--;
1620:SynaptiX_FDK/services/cJSON/cJSON.c **** 
1621:SynaptiX_FDK/services/cJSON/cJSON.c ****     return true;
1622:SynaptiX_FDK/services/cJSON/cJSON.c **** }
1623:SynaptiX_FDK/services/cJSON/cJSON.c **** 
1624:SynaptiX_FDK/services/cJSON/cJSON.c **** /* Build an object from the text. */
1625:SynaptiX_FDK/services/cJSON/cJSON.c **** static cJSON_bool parse_object(cJSON * const item, parse_buffer * const input_buffer)
1626:SynaptiX_FDK/services/cJSON/cJSON.c **** {
1627:SynaptiX_FDK/services/cJSON/cJSON.c ****     cJSON *head = NULL; /* linked list head */
1628:SynaptiX_FDK/services/cJSON/cJSON.c ****     cJSON *current_item = NULL;
1629:SynaptiX_FDK/services/cJSON/cJSON.c **** 
1630:SynaptiX_FDK/services/cJSON/cJSON.c ****     if (input_buffer->depth >= CJSON_NESTING_LIMIT)
1631:SynaptiX_FDK/services/cJSON/cJSON.c ****     {
1632:SynaptiX_FDK/services/cJSON/cJSON.c ****         return false; /* to deeply nested */
1633:SynaptiX_FDK/services/cJSON/cJSON.c ****     }
1634:SynaptiX_FDK/services/cJSON/cJSON.c ****     input_buffer->depth++;
1635:SynaptiX_FDK/services/cJSON/cJSON.c **** 
1636:SynaptiX_FDK/services/cJSON/cJSON.c ****     if (cannot_access_at_index(input_buffer, 0) || (buffer_at_offset(input_buffer)[0] != '{'))
1637:SynaptiX_FDK/services/cJSON/cJSON.c ****     {
1638:SynaptiX_FDK/services/cJSON/cJSON.c ****         goto fail; /* not an object */
1639:SynaptiX_FDK/services/cJSON/cJSON.c ****     }
1640:SynaptiX_FDK/services/cJSON/cJSON.c **** 
1641:SynaptiX_FDK/services/cJSON/cJSON.c ****     input_buffer->offset++;
1642:SynaptiX_FDK/services/cJSON/cJSON.c ****     buffer_skip_whitespace(input_buffer);
1643:SynaptiX_FDK/services/cJSON/cJSON.c ****     if (can_access_at_index(input_buffer, 0) && (buffer_at_offset(input_buffer)[0] == '}'))
1644:SynaptiX_FDK/services/cJSON/cJSON.c ****     {
1645:SynaptiX_FDK/services/cJSON/cJSON.c ****         goto success; /* empty object */
1646:SynaptiX_FDK/services/cJSON/cJSON.c ****     }
1647:SynaptiX_FDK/services/cJSON/cJSON.c **** 
ARM GAS  C:\Users\DELL\AppData\Local\Temp\ccXjhdgA.s 			page 53


1648:SynaptiX_FDK/services/cJSON/cJSON.c ****     /* check if we skipped to the end of the buffer */
1649:SynaptiX_FDK/services/cJSON/cJSON.c ****     if (cannot_access_at_index(input_buffer, 0))
1650:SynaptiX_FDK/services/cJSON/cJSON.c ****     {
1651:SynaptiX_FDK/services/cJSON/cJSON.c ****         input_buffer->offset--;
1652:SynaptiX_FDK/services/cJSON/cJSON.c ****         goto fail;
1653:SynaptiX_FDK/services/cJSON/cJSON.c ****     }
1654:SynaptiX_FDK/services/cJSON/cJSON.c **** 
1655:SynaptiX_FDK/services/cJSON/cJSON.c ****     /* step back to character in front of the first element */
1656:SynaptiX_FDK/services/cJSON/cJSON.c ****     input_buffer->offset--;
1657:SynaptiX_FDK/services/cJSON/cJSON.c ****     /* loop through the comma separated array elements */
1658:SynaptiX_FDK/services/cJSON/cJSON.c ****     do
1659:SynaptiX_FDK/services/cJSON/cJSON.c ****     {
1660:SynaptiX_FDK/services/cJSON/cJSON.c ****         /* allocate next item */
1661:SynaptiX_FDK/services/cJSON/cJSON.c ****         cJSON *new_item = cJSON_New_Item(&(input_buffer->hooks));
1662:SynaptiX_FDK/services/cJSON/cJSON.c ****         if (new_item == NULL)
1663:SynaptiX_FDK/services/cJSON/cJSON.c ****         {
1664:SynaptiX_FDK/services/cJSON/cJSON.c ****             goto fail; /* allocation failure */
1665:SynaptiX_FDK/services/cJSON/cJSON.c ****         }
1666:SynaptiX_FDK/services/cJSON/cJSON.c **** 
1667:SynaptiX_FDK/services/cJSON/cJSON.c ****         /* attach next item to list */
1668:SynaptiX_FDK/services/cJSON/cJSON.c ****         if (head == NULL)
1669:SynaptiX_FDK/services/cJSON/cJSON.c ****         {
1670:SynaptiX_FDK/services/cJSON/cJSON.c ****             /* start the linked list */
1671:SynaptiX_FDK/services/cJSON/cJSON.c ****             current_item = head = new_item;
1672:SynaptiX_FDK/services/cJSON/cJSON.c ****         }
1673:SynaptiX_FDK/services/cJSON/cJSON.c ****         else
1674:SynaptiX_FDK/services/cJSON/cJSON.c ****         {
1675:SynaptiX_FDK/services/cJSON/cJSON.c ****             /* add to the end and advance */
1676:SynaptiX_FDK/services/cJSON/cJSON.c ****             current_item->next = new_item;
1677:SynaptiX_FDK/services/cJSON/cJSON.c ****             new_item->prev = current_item;
1678:SynaptiX_FDK/services/cJSON/cJSON.c ****             current_item = new_item;
1679:SynaptiX_FDK/services/cJSON/cJSON.c ****         }
1680:SynaptiX_FDK/services/cJSON/cJSON.c **** 
1681:SynaptiX_FDK/services/cJSON/cJSON.c ****         if (cannot_access_at_index(input_buffer, 1))
1682:SynaptiX_FDK/services/cJSON/cJSON.c ****         {
1683:SynaptiX_FDK/services/cJSON/cJSON.c ****             goto fail; /* nothing comes after the comma */
1684:SynaptiX_FDK/services/cJSON/cJSON.c ****         }
1685:SynaptiX_FDK/services/cJSON/cJSON.c **** 
1686:SynaptiX_FDK/services/cJSON/cJSON.c ****         /* parse the name of the child */
1687:SynaptiX_FDK/services/cJSON/cJSON.c ****         input_buffer->offset++;
1688:SynaptiX_FDK/services/cJSON/cJSON.c ****         buffer_skip_whitespace(input_buffer);
1689:SynaptiX_FDK/services/cJSON/cJSON.c ****         if (!parse_string(current_item, input_buffer))
1690:SynaptiX_FDK/services/cJSON/cJSON.c ****         {
1691:SynaptiX_FDK/services/cJSON/cJSON.c ****             goto fail; /* failed to parse name */
1692:SynaptiX_FDK/services/cJSON/cJSON.c ****         }
1693:SynaptiX_FDK/services/cJSON/cJSON.c ****         buffer_skip_whitespace(input_buffer);
1694:SynaptiX_FDK/services/cJSON/cJSON.c **** 
1695:SynaptiX_FDK/services/cJSON/cJSON.c ****         /* swap valuestring and string, because we parsed the name */
1696:SynaptiX_FDK/services/cJSON/cJSON.c ****         current_item->string = current_item->valuestring;
1697:SynaptiX_FDK/services/cJSON/cJSON.c ****         current_item->valuestring = NULL;
1698:SynaptiX_FDK/services/cJSON/cJSON.c **** 
1699:SynaptiX_FDK/services/cJSON/cJSON.c ****         if (cannot_access_at_index(input_buffer, 0) || (buffer_at_offset(input_buffer)[0] != ':'))
1700:SynaptiX_FDK/services/cJSON/cJSON.c ****         {
1701:SynaptiX_FDK/services/cJSON/cJSON.c ****             goto fail; /* invalid object */
1702:SynaptiX_FDK/services/cJSON/cJSON.c ****         }
1703:SynaptiX_FDK/services/cJSON/cJSON.c **** 
1704:SynaptiX_FDK/services/cJSON/cJSON.c ****         /* parse the value */
ARM GAS  C:\Users\DELL\AppData\Local\Temp\ccXjhdgA.s 			page 54


1705:SynaptiX_FDK/services/cJSON/cJSON.c ****         input_buffer->offset++;
1706:SynaptiX_FDK/services/cJSON/cJSON.c ****         buffer_skip_whitespace(input_buffer);
1707:SynaptiX_FDK/services/cJSON/cJSON.c ****         if (!parse_value(current_item, input_buffer))
1708:SynaptiX_FDK/services/cJSON/cJSON.c ****         {
1709:SynaptiX_FDK/services/cJSON/cJSON.c ****             goto fail; /* failed to parse value */
1710:SynaptiX_FDK/services/cJSON/cJSON.c ****         }
1711:SynaptiX_FDK/services/cJSON/cJSON.c ****         buffer_skip_whitespace(input_buffer);
1712:SynaptiX_FDK/services/cJSON/cJSON.c ****     }
1713:SynaptiX_FDK/services/cJSON/cJSON.c ****     while (can_access_at_index(input_buffer, 0) && (buffer_at_offset(input_buffer)[0] == ','));
1714:SynaptiX_FDK/services/cJSON/cJSON.c **** 
1715:SynaptiX_FDK/services/cJSON/cJSON.c ****     if (cannot_access_at_index(input_buffer, 0) || (buffer_at_offset(input_buffer)[0] != '}'))
1716:SynaptiX_FDK/services/cJSON/cJSON.c ****     {
1717:SynaptiX_FDK/services/cJSON/cJSON.c ****         goto fail; /* expected end of object */
1718:SynaptiX_FDK/services/cJSON/cJSON.c ****     }
1719:SynaptiX_FDK/services/cJSON/cJSON.c **** 
1720:SynaptiX_FDK/services/cJSON/cJSON.c **** success:
1721:SynaptiX_FDK/services/cJSON/cJSON.c ****     input_buffer->depth--;
1722:SynaptiX_FDK/services/cJSON/cJSON.c **** 
1723:SynaptiX_FDK/services/cJSON/cJSON.c ****     if (head != NULL) {
1724:SynaptiX_FDK/services/cJSON/cJSON.c ****         head->prev = current_item;
1725:SynaptiX_FDK/services/cJSON/cJSON.c ****     }
1726:SynaptiX_FDK/services/cJSON/cJSON.c **** 
1727:SynaptiX_FDK/services/cJSON/cJSON.c ****     item->type = cJSON_Object;
1728:SynaptiX_FDK/services/cJSON/cJSON.c ****     item->child = head;
1729:SynaptiX_FDK/services/cJSON/cJSON.c **** 
1730:SynaptiX_FDK/services/cJSON/cJSON.c ****     input_buffer->offset++;
1731:SynaptiX_FDK/services/cJSON/cJSON.c ****     return true;
1732:SynaptiX_FDK/services/cJSON/cJSON.c **** 
1733:SynaptiX_FDK/services/cJSON/cJSON.c **** fail:
1734:SynaptiX_FDK/services/cJSON/cJSON.c ****     if (head != NULL)
1735:SynaptiX_FDK/services/cJSON/cJSON.c ****     {
1736:SynaptiX_FDK/services/cJSON/cJSON.c ****         cJSON_Delete(head);
1737:SynaptiX_FDK/services/cJSON/cJSON.c ****     }
1738:SynaptiX_FDK/services/cJSON/cJSON.c **** 
1739:SynaptiX_FDK/services/cJSON/cJSON.c ****     return false;
1740:SynaptiX_FDK/services/cJSON/cJSON.c **** }
1741:SynaptiX_FDK/services/cJSON/cJSON.c **** 
1742:SynaptiX_FDK/services/cJSON/cJSON.c **** /* Render an object to text. */
1743:SynaptiX_FDK/services/cJSON/cJSON.c **** static cJSON_bool print_object(const cJSON * const item, printbuffer * const output_buffer)
1744:SynaptiX_FDK/services/cJSON/cJSON.c **** {
1745:SynaptiX_FDK/services/cJSON/cJSON.c ****     unsigned char *output_pointer = NULL;
1746:SynaptiX_FDK/services/cJSON/cJSON.c ****     size_t length = 0;
1747:SynaptiX_FDK/services/cJSON/cJSON.c ****     cJSON *current_item = item->child;
1748:SynaptiX_FDK/services/cJSON/cJSON.c **** 
1749:SynaptiX_FDK/services/cJSON/cJSON.c ****     if (output_buffer == NULL)
1750:SynaptiX_FDK/services/cJSON/cJSON.c ****     {
1751:SynaptiX_FDK/services/cJSON/cJSON.c ****         return false;
1752:SynaptiX_FDK/services/cJSON/cJSON.c ****     }
1753:SynaptiX_FDK/services/cJSON/cJSON.c **** 
1754:SynaptiX_FDK/services/cJSON/cJSON.c ****     /* Compose the output: */
1755:SynaptiX_FDK/services/cJSON/cJSON.c ****     length = (size_t) (output_buffer->format ? 2 : 1); /* fmt: {\n */
1756:SynaptiX_FDK/services/cJSON/cJSON.c ****     output_pointer = ensure(output_buffer, length + 1);
1757:SynaptiX_FDK/services/cJSON/cJSON.c ****     if (output_pointer == NULL)
1758:SynaptiX_FDK/services/cJSON/cJSON.c ****     {
1759:SynaptiX_FDK/services/cJSON/cJSON.c ****         return false;
1760:SynaptiX_FDK/services/cJSON/cJSON.c ****     }
1761:SynaptiX_FDK/services/cJSON/cJSON.c **** 
ARM GAS  C:\Users\DELL\AppData\Local\Temp\ccXjhdgA.s 			page 55


1762:SynaptiX_FDK/services/cJSON/cJSON.c ****     *output_pointer++ = '{';
1763:SynaptiX_FDK/services/cJSON/cJSON.c ****     output_buffer->depth++;
1764:SynaptiX_FDK/services/cJSON/cJSON.c ****     if (output_buffer->format)
1765:SynaptiX_FDK/services/cJSON/cJSON.c ****     {
1766:SynaptiX_FDK/services/cJSON/cJSON.c ****         *output_pointer++ = '\n';
1767:SynaptiX_FDK/services/cJSON/cJSON.c ****     }
1768:SynaptiX_FDK/services/cJSON/cJSON.c ****     output_buffer->offset += length;
1769:SynaptiX_FDK/services/cJSON/cJSON.c **** 
1770:SynaptiX_FDK/services/cJSON/cJSON.c ****     while (current_item)
1771:SynaptiX_FDK/services/cJSON/cJSON.c ****     {
1772:SynaptiX_FDK/services/cJSON/cJSON.c ****         if (output_buffer->format)
1773:SynaptiX_FDK/services/cJSON/cJSON.c ****         {
1774:SynaptiX_FDK/services/cJSON/cJSON.c ****             size_t i;
1775:SynaptiX_FDK/services/cJSON/cJSON.c ****             output_pointer = ensure(output_buffer, output_buffer->depth);
1776:SynaptiX_FDK/services/cJSON/cJSON.c ****             if (output_pointer == NULL)
1777:SynaptiX_FDK/services/cJSON/cJSON.c ****             {
1778:SynaptiX_FDK/services/cJSON/cJSON.c ****                 return false;
1779:SynaptiX_FDK/services/cJSON/cJSON.c ****             }
1780:SynaptiX_FDK/services/cJSON/cJSON.c ****             for (i = 0; i < output_buffer->depth; i++)
1781:SynaptiX_FDK/services/cJSON/cJSON.c ****             {
1782:SynaptiX_FDK/services/cJSON/cJSON.c ****                 *output_pointer++ = '\t';
1783:SynaptiX_FDK/services/cJSON/cJSON.c ****             }
1784:SynaptiX_FDK/services/cJSON/cJSON.c ****             output_buffer->offset += output_buffer->depth;
1785:SynaptiX_FDK/services/cJSON/cJSON.c ****         }
1786:SynaptiX_FDK/services/cJSON/cJSON.c **** 
1787:SynaptiX_FDK/services/cJSON/cJSON.c ****         /* print key */
1788:SynaptiX_FDK/services/cJSON/cJSON.c ****         if (!print_string_ptr((unsigned char*)current_item->string, output_buffer))
1789:SynaptiX_FDK/services/cJSON/cJSON.c ****         {
1790:SynaptiX_FDK/services/cJSON/cJSON.c ****             return false;
1791:SynaptiX_FDK/services/cJSON/cJSON.c ****         }
1792:SynaptiX_FDK/services/cJSON/cJSON.c ****         update_offset(output_buffer);
1793:SynaptiX_FDK/services/cJSON/cJSON.c **** 
1794:SynaptiX_FDK/services/cJSON/cJSON.c ****         length = (size_t) (output_buffer->format ? 2 : 1);
1795:SynaptiX_FDK/services/cJSON/cJSON.c ****         output_pointer = ensure(output_buffer, length);
1796:SynaptiX_FDK/services/cJSON/cJSON.c ****         if (output_pointer == NULL)
1797:SynaptiX_FDK/services/cJSON/cJSON.c ****         {
1798:SynaptiX_FDK/services/cJSON/cJSON.c ****             return false;
1799:SynaptiX_FDK/services/cJSON/cJSON.c ****         }
1800:SynaptiX_FDK/services/cJSON/cJSON.c ****         *output_pointer++ = ':';
1801:SynaptiX_FDK/services/cJSON/cJSON.c ****         if (output_buffer->format)
1802:SynaptiX_FDK/services/cJSON/cJSON.c ****         {
1803:SynaptiX_FDK/services/cJSON/cJSON.c ****             *output_pointer++ = '\t';
1804:SynaptiX_FDK/services/cJSON/cJSON.c ****         }
1805:SynaptiX_FDK/services/cJSON/cJSON.c ****         output_buffer->offset += length;
1806:SynaptiX_FDK/services/cJSON/cJSON.c **** 
1807:SynaptiX_FDK/services/cJSON/cJSON.c ****         /* print value */
1808:SynaptiX_FDK/services/cJSON/cJSON.c ****         if (!print_value(current_item, output_buffer))
1809:SynaptiX_FDK/services/cJSON/cJSON.c ****         {
1810:SynaptiX_FDK/services/cJSON/cJSON.c ****             return false;
1811:SynaptiX_FDK/services/cJSON/cJSON.c ****         }
1812:SynaptiX_FDK/services/cJSON/cJSON.c ****         update_offset(output_buffer);
1813:SynaptiX_FDK/services/cJSON/cJSON.c **** 
1814:SynaptiX_FDK/services/cJSON/cJSON.c ****         /* print comma if not last */
1815:SynaptiX_FDK/services/cJSON/cJSON.c ****         length = ((size_t)(output_buffer->format ? 1 : 0) + (size_t)(current_item->next ? 1 : 0));
1816:SynaptiX_FDK/services/cJSON/cJSON.c ****         output_pointer = ensure(output_buffer, length + 1);
1817:SynaptiX_FDK/services/cJSON/cJSON.c ****         if (output_pointer == NULL)
1818:SynaptiX_FDK/services/cJSON/cJSON.c ****         {
ARM GAS  C:\Users\DELL\AppData\Local\Temp\ccXjhdgA.s 			page 56


1819:SynaptiX_FDK/services/cJSON/cJSON.c ****             return false;
1820:SynaptiX_FDK/services/cJSON/cJSON.c ****         }
1821:SynaptiX_FDK/services/cJSON/cJSON.c ****         if (current_item->next)
1822:SynaptiX_FDK/services/cJSON/cJSON.c ****         {
1823:SynaptiX_FDK/services/cJSON/cJSON.c ****             *output_pointer++ = ',';
1824:SynaptiX_FDK/services/cJSON/cJSON.c ****         }
1825:SynaptiX_FDK/services/cJSON/cJSON.c **** 
1826:SynaptiX_FDK/services/cJSON/cJSON.c ****         if (output_buffer->format)
1827:SynaptiX_FDK/services/cJSON/cJSON.c ****         {
1828:SynaptiX_FDK/services/cJSON/cJSON.c ****             *output_pointer++ = '\n';
1829:SynaptiX_FDK/services/cJSON/cJSON.c ****         }
1830:SynaptiX_FDK/services/cJSON/cJSON.c ****         *output_pointer = '\0';
1831:SynaptiX_FDK/services/cJSON/cJSON.c ****         output_buffer->offset += length;
1832:SynaptiX_FDK/services/cJSON/cJSON.c **** 
1833:SynaptiX_FDK/services/cJSON/cJSON.c ****         current_item = current_item->next;
1834:SynaptiX_FDK/services/cJSON/cJSON.c ****     }
1835:SynaptiX_FDK/services/cJSON/cJSON.c **** 
1836:SynaptiX_FDK/services/cJSON/cJSON.c ****     output_pointer = ensure(output_buffer, output_buffer->format ? (output_buffer->depth + 1) : 2);
1837:SynaptiX_FDK/services/cJSON/cJSON.c ****     if (output_pointer == NULL)
1838:SynaptiX_FDK/services/cJSON/cJSON.c ****     {
1839:SynaptiX_FDK/services/cJSON/cJSON.c ****         return false;
1840:SynaptiX_FDK/services/cJSON/cJSON.c ****     }
1841:SynaptiX_FDK/services/cJSON/cJSON.c ****     if (output_buffer->format)
1842:SynaptiX_FDK/services/cJSON/cJSON.c ****     {
1843:SynaptiX_FDK/services/cJSON/cJSON.c ****         size_t i;
1844:SynaptiX_FDK/services/cJSON/cJSON.c ****         for (i = 0; i < (output_buffer->depth - 1); i++)
1845:SynaptiX_FDK/services/cJSON/cJSON.c ****         {
1846:SynaptiX_FDK/services/cJSON/cJSON.c ****             *output_pointer++ = '\t';
1847:SynaptiX_FDK/services/cJSON/cJSON.c ****         }
1848:SynaptiX_FDK/services/cJSON/cJSON.c ****     }
1849:SynaptiX_FDK/services/cJSON/cJSON.c ****     *output_pointer++ = '}';
1850:SynaptiX_FDK/services/cJSON/cJSON.c ****     *output_pointer = '\0';
1851:SynaptiX_FDK/services/cJSON/cJSON.c ****     output_buffer->depth--;
1852:SynaptiX_FDK/services/cJSON/cJSON.c **** 
1853:SynaptiX_FDK/services/cJSON/cJSON.c ****     return true;
1854:SynaptiX_FDK/services/cJSON/cJSON.c **** }
1855:SynaptiX_FDK/services/cJSON/cJSON.c **** 
1856:SynaptiX_FDK/services/cJSON/cJSON.c **** /* Get Array size/item / object item. */
1857:SynaptiX_FDK/services/cJSON/cJSON.c **** CJSON_PUBLIC(int) cJSON_GetArraySize(const cJSON *array)
1858:SynaptiX_FDK/services/cJSON/cJSON.c **** {
1859:SynaptiX_FDK/services/cJSON/cJSON.c ****     cJSON *child = NULL;
1860:SynaptiX_FDK/services/cJSON/cJSON.c ****     size_t size = 0;
1861:SynaptiX_FDK/services/cJSON/cJSON.c **** 
1862:SynaptiX_FDK/services/cJSON/cJSON.c ****     if (array == NULL)
1863:SynaptiX_FDK/services/cJSON/cJSON.c ****     {
1864:SynaptiX_FDK/services/cJSON/cJSON.c ****         return 0;
1865:SynaptiX_FDK/services/cJSON/cJSON.c ****     }
1866:SynaptiX_FDK/services/cJSON/cJSON.c **** 
1867:SynaptiX_FDK/services/cJSON/cJSON.c ****     child = array->child;
1868:SynaptiX_FDK/services/cJSON/cJSON.c **** 
1869:SynaptiX_FDK/services/cJSON/cJSON.c ****     while(child != NULL)
1870:SynaptiX_FDK/services/cJSON/cJSON.c ****     {
1871:SynaptiX_FDK/services/cJSON/cJSON.c ****         size++;
1872:SynaptiX_FDK/services/cJSON/cJSON.c ****         child = child->next;
1873:SynaptiX_FDK/services/cJSON/cJSON.c ****     }
1874:SynaptiX_FDK/services/cJSON/cJSON.c **** 
1875:SynaptiX_FDK/services/cJSON/cJSON.c ****     /* FIXME: Can overflow here. Cannot be fixed without breaking the API */
ARM GAS  C:\Users\DELL\AppData\Local\Temp\ccXjhdgA.s 			page 57


1876:SynaptiX_FDK/services/cJSON/cJSON.c **** 
1877:SynaptiX_FDK/services/cJSON/cJSON.c ****     return (int)size;
1878:SynaptiX_FDK/services/cJSON/cJSON.c **** }
1879:SynaptiX_FDK/services/cJSON/cJSON.c **** 
1880:SynaptiX_FDK/services/cJSON/cJSON.c **** static cJSON* get_array_item(const cJSON *array, size_t index)
1881:SynaptiX_FDK/services/cJSON/cJSON.c **** {
 1176              		.loc 1 1881 1 is_stmt 1 view -0
 1177              		.cfi_startproc
 1178              		@ args = 0, pretend = 0, frame = 0
 1179              		@ frame_needed = 0, uses_anonymous_args = 0
 1180              		@ link register save eliminated.
1882:SynaptiX_FDK/services/cJSON/cJSON.c ****     cJSON *current_child = NULL;
 1181              		.loc 1 1882 5 view .LVU370
1883:SynaptiX_FDK/services/cJSON/cJSON.c **** 
1884:SynaptiX_FDK/services/cJSON/cJSON.c ****     if (array == NULL)
 1182              		.loc 1 1884 5 view .LVU371
 1183              		.loc 1 1884 8 is_stmt 0 view .LVU372
 1184 0000 38B1     		cbz	r0, .L101
1885:SynaptiX_FDK/services/cJSON/cJSON.c ****     {
1886:SynaptiX_FDK/services/cJSON/cJSON.c ****         return NULL;
1887:SynaptiX_FDK/services/cJSON/cJSON.c ****     }
1888:SynaptiX_FDK/services/cJSON/cJSON.c **** 
1889:SynaptiX_FDK/services/cJSON/cJSON.c ****     current_child = array->child;
 1185              		.loc 1 1889 5 is_stmt 1 view .LVU373
 1186              		.loc 1 1889 19 is_stmt 0 view .LVU374
 1187 0002 8068     		ldr	r0, [r0, #8]
 1188              	.LVL118:
1890:SynaptiX_FDK/services/cJSON/cJSON.c ****     while ((current_child != NULL) && (index > 0))
 1189              		.loc 1 1890 5 is_stmt 1 view .LVU375
 1190              		.loc 1 1890 11 is_stmt 0 view .LVU376
 1191 0004 01E0     		b	.L103
 1192              	.L104:
1891:SynaptiX_FDK/services/cJSON/cJSON.c ****     {
1892:SynaptiX_FDK/services/cJSON/cJSON.c ****         index--;
 1193              		.loc 1 1892 9 is_stmt 1 view .LVU377
 1194              		.loc 1 1892 14 is_stmt 0 view .LVU378
 1195 0006 0139     		subs	r1, r1, #1
 1196              	.LVL119:
1893:SynaptiX_FDK/services/cJSON/cJSON.c ****         current_child = current_child->next;
 1197              		.loc 1 1893 9 is_stmt 1 view .LVU379
 1198              		.loc 1 1893 23 is_stmt 0 view .LVU380
 1199 0008 0068     		ldr	r0, [r0]
 1200              	.LVL120:
 1201              	.L103:
1890:SynaptiX_FDK/services/cJSON/cJSON.c ****     while ((current_child != NULL) && (index > 0))
 1202              		.loc 1 1890 36 is_stmt 1 view .LVU381
 1203 000a 10B1     		cbz	r0, .L101
1890:SynaptiX_FDK/services/cJSON/cJSON.c ****     while ((current_child != NULL) && (index > 0))
 1204              		.loc 1 1890 36 is_stmt 0 discriminator 1 view .LVU382
 1205 000c 0029     		cmp	r1, #0
 1206 000e FAD1     		bne	.L104
 1207 0010 7047     		bx	lr
 1208              	.LVL121:
 1209              	.L101:
1894:SynaptiX_FDK/services/cJSON/cJSON.c ****     }
1895:SynaptiX_FDK/services/cJSON/cJSON.c **** 
1896:SynaptiX_FDK/services/cJSON/cJSON.c ****     return current_child;
ARM GAS  C:\Users\DELL\AppData\Local\Temp\ccXjhdgA.s 			page 58


1897:SynaptiX_FDK/services/cJSON/cJSON.c **** }
 1210              		.loc 1 1897 1 view .LVU383
 1211 0012 7047     		bx	lr
 1212              		.cfi_endproc
 1213              	.LFE44:
 1215              		.section	.text.suffix_object,"ax",%progbits
 1216              		.align	1
 1217              		.syntax unified
 1218              		.thumb
 1219              		.thumb_func
 1221              	suffix_object:
 1222              	.LVL122:
 1223              	.LFB50:
1898:SynaptiX_FDK/services/cJSON/cJSON.c **** 
1899:SynaptiX_FDK/services/cJSON/cJSON.c **** CJSON_PUBLIC(cJSON *) cJSON_GetArrayItem(const cJSON *array, int index)
1900:SynaptiX_FDK/services/cJSON/cJSON.c **** {
1901:SynaptiX_FDK/services/cJSON/cJSON.c ****     if (index < 0)
1902:SynaptiX_FDK/services/cJSON/cJSON.c ****     {
1903:SynaptiX_FDK/services/cJSON/cJSON.c ****         return NULL;
1904:SynaptiX_FDK/services/cJSON/cJSON.c ****     }
1905:SynaptiX_FDK/services/cJSON/cJSON.c **** 
1906:SynaptiX_FDK/services/cJSON/cJSON.c ****     return get_array_item(array, (size_t)index);
1907:SynaptiX_FDK/services/cJSON/cJSON.c **** }
1908:SynaptiX_FDK/services/cJSON/cJSON.c **** 
1909:SynaptiX_FDK/services/cJSON/cJSON.c **** static cJSON *get_object_item(const cJSON * const object, const char * const name, const cJSON_bool
1910:SynaptiX_FDK/services/cJSON/cJSON.c **** {
1911:SynaptiX_FDK/services/cJSON/cJSON.c ****     cJSON *current_element = NULL;
1912:SynaptiX_FDK/services/cJSON/cJSON.c **** 
1913:SynaptiX_FDK/services/cJSON/cJSON.c ****     if ((object == NULL) || (name == NULL))
1914:SynaptiX_FDK/services/cJSON/cJSON.c ****     {
1915:SynaptiX_FDK/services/cJSON/cJSON.c ****         return NULL;
1916:SynaptiX_FDK/services/cJSON/cJSON.c ****     }
1917:SynaptiX_FDK/services/cJSON/cJSON.c **** 
1918:SynaptiX_FDK/services/cJSON/cJSON.c ****     current_element = object->child;
1919:SynaptiX_FDK/services/cJSON/cJSON.c ****     if (case_sensitive)
1920:SynaptiX_FDK/services/cJSON/cJSON.c ****     {
1921:SynaptiX_FDK/services/cJSON/cJSON.c ****         while ((current_element != NULL) && (current_element->string != NULL) && (strcmp(name, curr
1922:SynaptiX_FDK/services/cJSON/cJSON.c ****         {
1923:SynaptiX_FDK/services/cJSON/cJSON.c ****             current_element = current_element->next;
1924:SynaptiX_FDK/services/cJSON/cJSON.c ****         }
1925:SynaptiX_FDK/services/cJSON/cJSON.c ****     }
1926:SynaptiX_FDK/services/cJSON/cJSON.c ****     else
1927:SynaptiX_FDK/services/cJSON/cJSON.c ****     {
1928:SynaptiX_FDK/services/cJSON/cJSON.c ****         while ((current_element != NULL) && (case_insensitive_strcmp((const unsigned char*)name, (c
1929:SynaptiX_FDK/services/cJSON/cJSON.c ****         {
1930:SynaptiX_FDK/services/cJSON/cJSON.c ****             current_element = current_element->next;
1931:SynaptiX_FDK/services/cJSON/cJSON.c ****         }
1932:SynaptiX_FDK/services/cJSON/cJSON.c ****     }
1933:SynaptiX_FDK/services/cJSON/cJSON.c **** 
1934:SynaptiX_FDK/services/cJSON/cJSON.c ****     if ((current_element == NULL) || (current_element->string == NULL)) {
1935:SynaptiX_FDK/services/cJSON/cJSON.c ****         return NULL;
1936:SynaptiX_FDK/services/cJSON/cJSON.c ****     }
1937:SynaptiX_FDK/services/cJSON/cJSON.c **** 
1938:SynaptiX_FDK/services/cJSON/cJSON.c ****     return current_element;
1939:SynaptiX_FDK/services/cJSON/cJSON.c **** }
1940:SynaptiX_FDK/services/cJSON/cJSON.c **** 
1941:SynaptiX_FDK/services/cJSON/cJSON.c **** CJSON_PUBLIC(cJSON *) cJSON_GetObjectItem(const cJSON * const object, const char * const string)
ARM GAS  C:\Users\DELL\AppData\Local\Temp\ccXjhdgA.s 			page 59


1942:SynaptiX_FDK/services/cJSON/cJSON.c **** {
1943:SynaptiX_FDK/services/cJSON/cJSON.c ****     return get_object_item(object, string, false);
1944:SynaptiX_FDK/services/cJSON/cJSON.c **** }
1945:SynaptiX_FDK/services/cJSON/cJSON.c **** 
1946:SynaptiX_FDK/services/cJSON/cJSON.c **** CJSON_PUBLIC(cJSON *) cJSON_GetObjectItemCaseSensitive(const cJSON * const object, const char * con
1947:SynaptiX_FDK/services/cJSON/cJSON.c **** {
1948:SynaptiX_FDK/services/cJSON/cJSON.c ****     return get_object_item(object, string, true);
1949:SynaptiX_FDK/services/cJSON/cJSON.c **** }
1950:SynaptiX_FDK/services/cJSON/cJSON.c **** 
1951:SynaptiX_FDK/services/cJSON/cJSON.c **** CJSON_PUBLIC(cJSON_bool) cJSON_HasObjectItem(const cJSON *object, const char *string)
1952:SynaptiX_FDK/services/cJSON/cJSON.c **** {
1953:SynaptiX_FDK/services/cJSON/cJSON.c ****     return cJSON_GetObjectItem(object, string) ? 1 : 0;
1954:SynaptiX_FDK/services/cJSON/cJSON.c **** }
1955:SynaptiX_FDK/services/cJSON/cJSON.c **** 
1956:SynaptiX_FDK/services/cJSON/cJSON.c **** /* Utility for array list handling. */
1957:SynaptiX_FDK/services/cJSON/cJSON.c **** static void suffix_object(cJSON *prev, cJSON *item)
1958:SynaptiX_FDK/services/cJSON/cJSON.c **** {
 1224              		.loc 1 1958 1 is_stmt 1 view -0
 1225              		.cfi_startproc
 1226              		@ args = 0, pretend = 0, frame = 0
 1227              		@ frame_needed = 0, uses_anonymous_args = 0
 1228              		@ link register save eliminated.
1959:SynaptiX_FDK/services/cJSON/cJSON.c ****     prev->next = item;
 1229              		.loc 1 1959 5 view .LVU385
 1230              		.loc 1 1959 16 is_stmt 0 view .LVU386
 1231 0000 0160     		str	r1, [r0]
1960:SynaptiX_FDK/services/cJSON/cJSON.c ****     item->prev = prev;
 1232              		.loc 1 1960 5 is_stmt 1 view .LVU387
 1233              		.loc 1 1960 16 is_stmt 0 view .LVU388
 1234 0002 4860     		str	r0, [r1, #4]
1961:SynaptiX_FDK/services/cJSON/cJSON.c **** }
 1235              		.loc 1 1961 1 view .LVU389
 1236 0004 7047     		bx	lr
 1237              		.cfi_endproc
 1238              	.LFE50:
 1240              		.section	.text.add_item_to_array,"ax",%progbits
 1241              		.align	1
 1242              		.syntax unified
 1243              		.thumb
 1244              		.thumb_func
 1246              	add_item_to_array:
 1247              	.LVL123:
 1248              	.LFB52:
1962:SynaptiX_FDK/services/cJSON/cJSON.c **** 
1963:SynaptiX_FDK/services/cJSON/cJSON.c **** /* Utility for handling references. */
1964:SynaptiX_FDK/services/cJSON/cJSON.c **** static cJSON *create_reference(const cJSON *item, const internal_hooks * const hooks)
1965:SynaptiX_FDK/services/cJSON/cJSON.c **** {
1966:SynaptiX_FDK/services/cJSON/cJSON.c ****     cJSON *reference = NULL;
1967:SynaptiX_FDK/services/cJSON/cJSON.c ****     if (item == NULL)
1968:SynaptiX_FDK/services/cJSON/cJSON.c ****     {
1969:SynaptiX_FDK/services/cJSON/cJSON.c ****         return NULL;
1970:SynaptiX_FDK/services/cJSON/cJSON.c ****     }
1971:SynaptiX_FDK/services/cJSON/cJSON.c **** 
1972:SynaptiX_FDK/services/cJSON/cJSON.c ****     reference = cJSON_New_Item(hooks);
1973:SynaptiX_FDK/services/cJSON/cJSON.c ****     if (reference == NULL)
1974:SynaptiX_FDK/services/cJSON/cJSON.c ****     {
1975:SynaptiX_FDK/services/cJSON/cJSON.c ****         return NULL;
ARM GAS  C:\Users\DELL\AppData\Local\Temp\ccXjhdgA.s 			page 60


1976:SynaptiX_FDK/services/cJSON/cJSON.c ****     }
1977:SynaptiX_FDK/services/cJSON/cJSON.c **** 
1978:SynaptiX_FDK/services/cJSON/cJSON.c ****     memcpy(reference, item, sizeof(cJSON));
1979:SynaptiX_FDK/services/cJSON/cJSON.c ****     reference->string = NULL;
1980:SynaptiX_FDK/services/cJSON/cJSON.c ****     reference->type |= cJSON_IsReference;
1981:SynaptiX_FDK/services/cJSON/cJSON.c ****     reference->next = reference->prev = NULL;
1982:SynaptiX_FDK/services/cJSON/cJSON.c ****     return reference;
1983:SynaptiX_FDK/services/cJSON/cJSON.c **** }
1984:SynaptiX_FDK/services/cJSON/cJSON.c **** 
1985:SynaptiX_FDK/services/cJSON/cJSON.c **** static cJSON_bool add_item_to_array(cJSON *array, cJSON *item)
1986:SynaptiX_FDK/services/cJSON/cJSON.c **** {
 1249              		.loc 1 1986 1 is_stmt 1 view -0
 1250              		.cfi_startproc
 1251              		@ args = 0, pretend = 0, frame = 0
 1252              		@ frame_needed = 0, uses_anonymous_args = 0
1987:SynaptiX_FDK/services/cJSON/cJSON.c ****     cJSON *child = NULL;
 1253              		.loc 1 1987 5 view .LVU391
1988:SynaptiX_FDK/services/cJSON/cJSON.c **** 
1989:SynaptiX_FDK/services/cJSON/cJSON.c ****     if ((item == NULL) || (array == NULL) || (array == item))
 1254              		.loc 1 1989 5 view .LVU392
 1255              		.loc 1 1989 8 is_stmt 0 view .LVU393
 1256 0000 A1B1     		cbz	r1, .L110
1986:SynaptiX_FDK/services/cJSON/cJSON.c ****     cJSON *child = NULL;
 1257              		.loc 1 1986 1 view .LVU394
 1258 0002 38B5     		push	{r3, r4, r5, lr}
 1259              	.LCFI11:
 1260              		.cfi_def_cfa_offset 16
 1261              		.cfi_offset 3, -16
 1262              		.cfi_offset 4, -12
 1263              		.cfi_offset 5, -8
 1264              		.cfi_offset 14, -4
 1265 0004 0446     		mov	r4, r0
 1266 0006 0D46     		mov	r5, r1
 1267              		.loc 1 1989 24 discriminator 1 view .LVU395
 1268 0008 90B1     		cbz	r0, .L111
 1269              		.loc 1 1989 43 discriminator 2 view .LVU396
 1270 000a 8142     		cmp	r1, r0
 1271 000c 12D0     		beq	.L112
1990:SynaptiX_FDK/services/cJSON/cJSON.c ****     {
1991:SynaptiX_FDK/services/cJSON/cJSON.c ****         return false;
1992:SynaptiX_FDK/services/cJSON/cJSON.c ****     }
1993:SynaptiX_FDK/services/cJSON/cJSON.c **** 
1994:SynaptiX_FDK/services/cJSON/cJSON.c ****     child = array->child;
 1272              		.loc 1 1994 5 is_stmt 1 view .LVU397
 1273              		.loc 1 1994 11 is_stmt 0 view .LVU398
 1274 000e 8368     		ldr	r3, [r0, #8]
 1275              	.LVL124:
1995:SynaptiX_FDK/services/cJSON/cJSON.c ****     /*
1996:SynaptiX_FDK/services/cJSON/cJSON.c ****      * To find the last item in array quickly, we use prev in array
1997:SynaptiX_FDK/services/cJSON/cJSON.c ****      */
1998:SynaptiX_FDK/services/cJSON/cJSON.c ****     if (child == NULL)
 1276              		.loc 1 1998 5 is_stmt 1 view .LVU399
 1277              		.loc 1 1998 8 is_stmt 0 view .LVU400
 1278 0010 3BB1     		cbz	r3, .L118
1999:SynaptiX_FDK/services/cJSON/cJSON.c ****     {
2000:SynaptiX_FDK/services/cJSON/cJSON.c ****         /* list is empty, start new one */
2001:SynaptiX_FDK/services/cJSON/cJSON.c ****         array->child = item;
ARM GAS  C:\Users\DELL\AppData\Local\Temp\ccXjhdgA.s 			page 61


2002:SynaptiX_FDK/services/cJSON/cJSON.c ****         item->prev = item;
2003:SynaptiX_FDK/services/cJSON/cJSON.c ****         item->next = NULL;
2004:SynaptiX_FDK/services/cJSON/cJSON.c ****     }
2005:SynaptiX_FDK/services/cJSON/cJSON.c ****     else
2006:SynaptiX_FDK/services/cJSON/cJSON.c ****     {
2007:SynaptiX_FDK/services/cJSON/cJSON.c ****         /* append to the end */
2008:SynaptiX_FDK/services/cJSON/cJSON.c ****         if (child->prev)
 1279              		.loc 1 2008 9 is_stmt 1 view .LVU401
 1280              		.loc 1 2008 18 is_stmt 0 view .LVU402
 1281 0012 5868     		ldr	r0, [r3, #4]
 1282              	.LVL125:
 1283              		.loc 1 2008 12 view .LVU403
 1284 0014 80B1     		cbz	r0, .L113
2009:SynaptiX_FDK/services/cJSON/cJSON.c ****         {
2010:SynaptiX_FDK/services/cJSON/cJSON.c ****             suffix_object(child->prev, item);
 1285              		.loc 1 2010 13 is_stmt 1 view .LVU404
 1286 0016 FFF7FEFF 		bl	suffix_object
 1287              	.LVL126:
2011:SynaptiX_FDK/services/cJSON/cJSON.c ****             array->child->prev = item;
 1288              		.loc 1 2011 13 view .LVU405
 1289              		.loc 1 2011 18 is_stmt 0 view .LVU406
 1290 001a A368     		ldr	r3, [r4, #8]
 1291              		.loc 1 2011 32 view .LVU407
 1292 001c 5D60     		str	r5, [r3, #4]
2012:SynaptiX_FDK/services/cJSON/cJSON.c ****         }
2013:SynaptiX_FDK/services/cJSON/cJSON.c ****     }
2014:SynaptiX_FDK/services/cJSON/cJSON.c **** 
2015:SynaptiX_FDK/services/cJSON/cJSON.c ****     return true;
 1293              		.loc 1 2015 12 view .LVU408
 1294 001e 0120     		movs	r0, #1
 1295              	.LVL127:
 1296              	.L107:
2016:SynaptiX_FDK/services/cJSON/cJSON.c **** }
 1297              		.loc 1 2016 1 view .LVU409
 1298 0020 38BD     		pop	{r3, r4, r5, pc}
 1299              	.LVL128:
 1300              	.L118:
2001:SynaptiX_FDK/services/cJSON/cJSON.c ****         item->prev = item;
 1301              		.loc 1 2001 9 is_stmt 1 view .LVU410
2001:SynaptiX_FDK/services/cJSON/cJSON.c ****         item->prev = item;
 1302              		.loc 1 2001 22 is_stmt 0 view .LVU411
 1303 0022 8160     		str	r1, [r0, #8]
2002:SynaptiX_FDK/services/cJSON/cJSON.c ****         item->next = NULL;
 1304              		.loc 1 2002 9 is_stmt 1 view .LVU412
2002:SynaptiX_FDK/services/cJSON/cJSON.c ****         item->next = NULL;
 1305              		.loc 1 2002 20 is_stmt 0 view .LVU413
 1306 0024 4960     		str	r1, [r1, #4]
2003:SynaptiX_FDK/services/cJSON/cJSON.c ****     }
 1307              		.loc 1 2003 9 is_stmt 1 view .LVU414
2003:SynaptiX_FDK/services/cJSON/cJSON.c ****     }
 1308              		.loc 1 2003 20 is_stmt 0 view .LVU415
 1309 0026 0B60     		str	r3, [r1]
2015:SynaptiX_FDK/services/cJSON/cJSON.c **** }
 1310              		.loc 1 2015 12 view .LVU416
 1311 0028 0120     		movs	r0, #1
 1312              	.LVL129:
2015:SynaptiX_FDK/services/cJSON/cJSON.c **** }
ARM GAS  C:\Users\DELL\AppData\Local\Temp\ccXjhdgA.s 			page 62


 1313              		.loc 1 2015 12 view .LVU417
 1314 002a F9E7     		b	.L107
 1315              	.LVL130:
 1316              	.L110:
 1317              	.LCFI12:
 1318              		.cfi_def_cfa_offset 0
 1319              		.cfi_restore 3
 1320              		.cfi_restore 4
 1321              		.cfi_restore 5
 1322              		.cfi_restore 14
1991:SynaptiX_FDK/services/cJSON/cJSON.c ****     }
 1323              		.loc 1 1991 16 view .LVU418
 1324 002c 0020     		movs	r0, #0
 1325              	.LVL131:
 1326              		.loc 1 2016 1 view .LVU419
 1327 002e 7047     		bx	lr
 1328              	.LVL132:
 1329              	.L111:
 1330              	.LCFI13:
 1331              		.cfi_def_cfa_offset 16
 1332              		.cfi_offset 3, -16
 1333              		.cfi_offset 4, -12
 1334              		.cfi_offset 5, -8
 1335              		.cfi_offset 14, -4
1991:SynaptiX_FDK/services/cJSON/cJSON.c ****     }
 1336              		.loc 1 1991 16 view .LVU420
 1337 0030 0020     		movs	r0, #0
 1338              	.LVL133:
1991:SynaptiX_FDK/services/cJSON/cJSON.c ****     }
 1339              		.loc 1 1991 16 view .LVU421
 1340 0032 F5E7     		b	.L107
 1341              	.LVL134:
 1342              	.L112:
1991:SynaptiX_FDK/services/cJSON/cJSON.c ****     }
 1343              		.loc 1 1991 16 view .LVU422
 1344 0034 0020     		movs	r0, #0
 1345              	.LVL135:
1991:SynaptiX_FDK/services/cJSON/cJSON.c ****     }
 1346              		.loc 1 1991 16 view .LVU423
 1347 0036 F3E7     		b	.L107
 1348              	.LVL136:
 1349              	.L113:
2015:SynaptiX_FDK/services/cJSON/cJSON.c **** }
 1350              		.loc 1 2015 12 view .LVU424
 1351 0038 0120     		movs	r0, #1
 1352 003a F1E7     		b	.L107
 1353              		.cfi_endproc
 1354              	.LFE52:
 1356              		.section	.text.cast_away_const,"ax",%progbits
 1357              		.align	1
 1358              		.syntax unified
 1359              		.thumb
 1360              		.thumb_func
 1362              	cast_away_const:
 1363              	.LVL137:
 1364              	.LFB54:
2017:SynaptiX_FDK/services/cJSON/cJSON.c **** 
ARM GAS  C:\Users\DELL\AppData\Local\Temp\ccXjhdgA.s 			page 63


2018:SynaptiX_FDK/services/cJSON/cJSON.c **** /* Add item to array/object. */
2019:SynaptiX_FDK/services/cJSON/cJSON.c **** CJSON_PUBLIC(cJSON_bool) cJSON_AddItemToArray(cJSON *array, cJSON *item)
2020:SynaptiX_FDK/services/cJSON/cJSON.c **** {
2021:SynaptiX_FDK/services/cJSON/cJSON.c ****     return add_item_to_array(array, item);
2022:SynaptiX_FDK/services/cJSON/cJSON.c **** }
2023:SynaptiX_FDK/services/cJSON/cJSON.c **** 
2024:SynaptiX_FDK/services/cJSON/cJSON.c **** #if defined(__clang__) || (defined(__GNUC__)  && ((__GNUC__ > 4) || ((__GNUC__ == 4) && (__GNUC_MIN
2025:SynaptiX_FDK/services/cJSON/cJSON.c ****     #pragma GCC diagnostic push
2026:SynaptiX_FDK/services/cJSON/cJSON.c **** #endif
2027:SynaptiX_FDK/services/cJSON/cJSON.c **** #ifdef __GNUC__
2028:SynaptiX_FDK/services/cJSON/cJSON.c **** #pragma GCC diagnostic ignored "-Wcast-qual"
2029:SynaptiX_FDK/services/cJSON/cJSON.c **** #endif
2030:SynaptiX_FDK/services/cJSON/cJSON.c **** /* helper function to cast away const */
2031:SynaptiX_FDK/services/cJSON/cJSON.c **** static void* cast_away_const(const void* string)
2032:SynaptiX_FDK/services/cJSON/cJSON.c **** {
 1365              		.loc 1 2032 1 is_stmt 1 view -0
 1366              		.cfi_startproc
 1367              		@ args = 0, pretend = 0, frame = 0
 1368              		@ frame_needed = 0, uses_anonymous_args = 0
 1369              		@ link register save eliminated.
2033:SynaptiX_FDK/services/cJSON/cJSON.c ****     return (void*)string;
 1370              		.loc 1 2033 5 view .LVU426
2034:SynaptiX_FDK/services/cJSON/cJSON.c **** }
 1371              		.loc 1 2034 1 is_stmt 0 view .LVU427
 1372 0000 7047     		bx	lr
 1373              		.cfi_endproc
 1374              	.LFE54:
 1376              		.section	.text.skip_oneline_comment,"ax",%progbits
 1377              		.align	1
 1378              		.syntax unified
 1379              		.thumb
 1380              		.thumb_func
 1382              	skip_oneline_comment:
 1383              	.LVL138:
 1384              	.LFB100:
2035:SynaptiX_FDK/services/cJSON/cJSON.c **** #if defined(__clang__) || (defined(__GNUC__)  && ((__GNUC__ > 4) || ((__GNUC__ == 4) && (__GNUC_MIN
2036:SynaptiX_FDK/services/cJSON/cJSON.c ****     #pragma GCC diagnostic pop
2037:SynaptiX_FDK/services/cJSON/cJSON.c **** #endif
2038:SynaptiX_FDK/services/cJSON/cJSON.c **** 
2039:SynaptiX_FDK/services/cJSON/cJSON.c **** 
2040:SynaptiX_FDK/services/cJSON/cJSON.c **** static cJSON_bool add_item_to_object(cJSON * const object, const char * const string, cJSON * const
2041:SynaptiX_FDK/services/cJSON/cJSON.c **** {
2042:SynaptiX_FDK/services/cJSON/cJSON.c ****     char *new_key = NULL;
2043:SynaptiX_FDK/services/cJSON/cJSON.c ****     int new_type = cJSON_Invalid;
2044:SynaptiX_FDK/services/cJSON/cJSON.c **** 
2045:SynaptiX_FDK/services/cJSON/cJSON.c ****     if ((object == NULL) || (string == NULL) || (item == NULL) || (object == item))
2046:SynaptiX_FDK/services/cJSON/cJSON.c ****     {
2047:SynaptiX_FDK/services/cJSON/cJSON.c ****         return false;
2048:SynaptiX_FDK/services/cJSON/cJSON.c ****     }
2049:SynaptiX_FDK/services/cJSON/cJSON.c **** 
2050:SynaptiX_FDK/services/cJSON/cJSON.c ****     if (constant_key)
2051:SynaptiX_FDK/services/cJSON/cJSON.c ****     {
2052:SynaptiX_FDK/services/cJSON/cJSON.c ****         new_key = (char*)cast_away_const(string);
2053:SynaptiX_FDK/services/cJSON/cJSON.c ****         new_type = item->type | cJSON_StringIsConst;
2054:SynaptiX_FDK/services/cJSON/cJSON.c ****     }
2055:SynaptiX_FDK/services/cJSON/cJSON.c ****     else
2056:SynaptiX_FDK/services/cJSON/cJSON.c ****     {
ARM GAS  C:\Users\DELL\AppData\Local\Temp\ccXjhdgA.s 			page 64


2057:SynaptiX_FDK/services/cJSON/cJSON.c ****         new_key = (char*)cJSON_strdup((const unsigned char*)string, hooks);
2058:SynaptiX_FDK/services/cJSON/cJSON.c ****         if (new_key == NULL)
2059:SynaptiX_FDK/services/cJSON/cJSON.c ****         {
2060:SynaptiX_FDK/services/cJSON/cJSON.c ****             return false;
2061:SynaptiX_FDK/services/cJSON/cJSON.c ****         }
2062:SynaptiX_FDK/services/cJSON/cJSON.c **** 
2063:SynaptiX_FDK/services/cJSON/cJSON.c ****         new_type = item->type & ~cJSON_StringIsConst;
2064:SynaptiX_FDK/services/cJSON/cJSON.c ****     }
2065:SynaptiX_FDK/services/cJSON/cJSON.c **** 
2066:SynaptiX_FDK/services/cJSON/cJSON.c ****     if (!(item->type & cJSON_StringIsConst) && (item->string != NULL))
2067:SynaptiX_FDK/services/cJSON/cJSON.c ****     {
2068:SynaptiX_FDK/services/cJSON/cJSON.c ****         hooks->deallocate(item->string);
2069:SynaptiX_FDK/services/cJSON/cJSON.c ****     }
2070:SynaptiX_FDK/services/cJSON/cJSON.c **** 
2071:SynaptiX_FDK/services/cJSON/cJSON.c ****     item->string = new_key;
2072:SynaptiX_FDK/services/cJSON/cJSON.c ****     item->type = new_type;
2073:SynaptiX_FDK/services/cJSON/cJSON.c **** 
2074:SynaptiX_FDK/services/cJSON/cJSON.c ****     return add_item_to_array(object, item);
2075:SynaptiX_FDK/services/cJSON/cJSON.c **** }
2076:SynaptiX_FDK/services/cJSON/cJSON.c **** 
2077:SynaptiX_FDK/services/cJSON/cJSON.c **** CJSON_PUBLIC(cJSON_bool) cJSON_AddItemToObject(cJSON *object, const char *string, cJSON *item)
2078:SynaptiX_FDK/services/cJSON/cJSON.c **** {
2079:SynaptiX_FDK/services/cJSON/cJSON.c ****     return add_item_to_object(object, string, item, &global_hooks, false);
2080:SynaptiX_FDK/services/cJSON/cJSON.c **** }
2081:SynaptiX_FDK/services/cJSON/cJSON.c **** 
2082:SynaptiX_FDK/services/cJSON/cJSON.c **** /* Add an item to an object with constant string as key */
2083:SynaptiX_FDK/services/cJSON/cJSON.c **** CJSON_PUBLIC(cJSON_bool) cJSON_AddItemToObjectCS(cJSON *object, const char *string, cJSON *item)
2084:SynaptiX_FDK/services/cJSON/cJSON.c **** {
2085:SynaptiX_FDK/services/cJSON/cJSON.c ****     return add_item_to_object(object, string, item, &global_hooks, true);
2086:SynaptiX_FDK/services/cJSON/cJSON.c **** }
2087:SynaptiX_FDK/services/cJSON/cJSON.c **** 
2088:SynaptiX_FDK/services/cJSON/cJSON.c **** CJSON_PUBLIC(cJSON_bool) cJSON_AddItemReferenceToArray(cJSON *array, cJSON *item)
2089:SynaptiX_FDK/services/cJSON/cJSON.c **** {
2090:SynaptiX_FDK/services/cJSON/cJSON.c ****     if (array == NULL)
2091:SynaptiX_FDK/services/cJSON/cJSON.c ****     {
2092:SynaptiX_FDK/services/cJSON/cJSON.c ****         return false;
2093:SynaptiX_FDK/services/cJSON/cJSON.c ****     }
2094:SynaptiX_FDK/services/cJSON/cJSON.c **** 
2095:SynaptiX_FDK/services/cJSON/cJSON.c ****     return add_item_to_array(array, create_reference(item, &global_hooks));
2096:SynaptiX_FDK/services/cJSON/cJSON.c **** }
2097:SynaptiX_FDK/services/cJSON/cJSON.c **** 
2098:SynaptiX_FDK/services/cJSON/cJSON.c **** CJSON_PUBLIC(cJSON_bool) cJSON_AddItemReferenceToObject(cJSON *object, const char *string, cJSON *i
2099:SynaptiX_FDK/services/cJSON/cJSON.c **** {
2100:SynaptiX_FDK/services/cJSON/cJSON.c ****     if ((object == NULL) || (string == NULL))
2101:SynaptiX_FDK/services/cJSON/cJSON.c ****     {
2102:SynaptiX_FDK/services/cJSON/cJSON.c ****         return false;
2103:SynaptiX_FDK/services/cJSON/cJSON.c ****     }
2104:SynaptiX_FDK/services/cJSON/cJSON.c **** 
2105:SynaptiX_FDK/services/cJSON/cJSON.c ****     return add_item_to_object(object, string, create_reference(item, &global_hooks), &global_hooks,
2106:SynaptiX_FDK/services/cJSON/cJSON.c **** }
2107:SynaptiX_FDK/services/cJSON/cJSON.c **** 
2108:SynaptiX_FDK/services/cJSON/cJSON.c **** CJSON_PUBLIC(cJSON*) cJSON_AddNullToObject(cJSON * const object, const char * const name)
2109:SynaptiX_FDK/services/cJSON/cJSON.c **** {
2110:SynaptiX_FDK/services/cJSON/cJSON.c ****     cJSON *null = cJSON_CreateNull();
2111:SynaptiX_FDK/services/cJSON/cJSON.c ****     if (add_item_to_object(object, name, null, &global_hooks, false))
2112:SynaptiX_FDK/services/cJSON/cJSON.c ****     {
2113:SynaptiX_FDK/services/cJSON/cJSON.c ****         return null;
ARM GAS  C:\Users\DELL\AppData\Local\Temp\ccXjhdgA.s 			page 65


2114:SynaptiX_FDK/services/cJSON/cJSON.c ****     }
2115:SynaptiX_FDK/services/cJSON/cJSON.c **** 
2116:SynaptiX_FDK/services/cJSON/cJSON.c ****     cJSON_Delete(null);
2117:SynaptiX_FDK/services/cJSON/cJSON.c ****     return NULL;
2118:SynaptiX_FDK/services/cJSON/cJSON.c **** }
2119:SynaptiX_FDK/services/cJSON/cJSON.c **** 
2120:SynaptiX_FDK/services/cJSON/cJSON.c **** CJSON_PUBLIC(cJSON*) cJSON_AddTrueToObject(cJSON * const object, const char * const name)
2121:SynaptiX_FDK/services/cJSON/cJSON.c **** {
2122:SynaptiX_FDK/services/cJSON/cJSON.c ****     cJSON *true_item = cJSON_CreateTrue();
2123:SynaptiX_FDK/services/cJSON/cJSON.c ****     if (add_item_to_object(object, name, true_item, &global_hooks, false))
2124:SynaptiX_FDK/services/cJSON/cJSON.c ****     {
2125:SynaptiX_FDK/services/cJSON/cJSON.c ****         return true_item;
2126:SynaptiX_FDK/services/cJSON/cJSON.c ****     }
2127:SynaptiX_FDK/services/cJSON/cJSON.c **** 
2128:SynaptiX_FDK/services/cJSON/cJSON.c ****     cJSON_Delete(true_item);
2129:SynaptiX_FDK/services/cJSON/cJSON.c ****     return NULL;
2130:SynaptiX_FDK/services/cJSON/cJSON.c **** }
2131:SynaptiX_FDK/services/cJSON/cJSON.c **** 
2132:SynaptiX_FDK/services/cJSON/cJSON.c **** CJSON_PUBLIC(cJSON*) cJSON_AddFalseToObject(cJSON * const object, const char * const name)
2133:SynaptiX_FDK/services/cJSON/cJSON.c **** {
2134:SynaptiX_FDK/services/cJSON/cJSON.c ****     cJSON *false_item = cJSON_CreateFalse();
2135:SynaptiX_FDK/services/cJSON/cJSON.c ****     if (add_item_to_object(object, name, false_item, &global_hooks, false))
2136:SynaptiX_FDK/services/cJSON/cJSON.c ****     {
2137:SynaptiX_FDK/services/cJSON/cJSON.c ****         return false_item;
2138:SynaptiX_FDK/services/cJSON/cJSON.c ****     }
2139:SynaptiX_FDK/services/cJSON/cJSON.c **** 
2140:SynaptiX_FDK/services/cJSON/cJSON.c ****     cJSON_Delete(false_item);
2141:SynaptiX_FDK/services/cJSON/cJSON.c ****     return NULL;
2142:SynaptiX_FDK/services/cJSON/cJSON.c **** }
2143:SynaptiX_FDK/services/cJSON/cJSON.c **** 
2144:SynaptiX_FDK/services/cJSON/cJSON.c **** CJSON_PUBLIC(cJSON*) cJSON_AddBoolToObject(cJSON * const object, const char * const name, const cJS
2145:SynaptiX_FDK/services/cJSON/cJSON.c **** {
2146:SynaptiX_FDK/services/cJSON/cJSON.c ****     cJSON *bool_item = cJSON_CreateBool(boolean);
2147:SynaptiX_FDK/services/cJSON/cJSON.c ****     if (add_item_to_object(object, name, bool_item, &global_hooks, false))
2148:SynaptiX_FDK/services/cJSON/cJSON.c ****     {
2149:SynaptiX_FDK/services/cJSON/cJSON.c ****         return bool_item;
2150:SynaptiX_FDK/services/cJSON/cJSON.c ****     }
2151:SynaptiX_FDK/services/cJSON/cJSON.c **** 
2152:SynaptiX_FDK/services/cJSON/cJSON.c ****     cJSON_Delete(bool_item);
2153:SynaptiX_FDK/services/cJSON/cJSON.c ****     return NULL;
2154:SynaptiX_FDK/services/cJSON/cJSON.c **** }
2155:SynaptiX_FDK/services/cJSON/cJSON.c **** 
2156:SynaptiX_FDK/services/cJSON/cJSON.c **** CJSON_PUBLIC(cJSON*) cJSON_AddNumberToObject(cJSON * const object, const char * const name, const d
2157:SynaptiX_FDK/services/cJSON/cJSON.c **** {
2158:SynaptiX_FDK/services/cJSON/cJSON.c ****     cJSON *number_item = cJSON_CreateNumber(number);
2159:SynaptiX_FDK/services/cJSON/cJSON.c ****     if (add_item_to_object(object, name, number_item, &global_hooks, false))
2160:SynaptiX_FDK/services/cJSON/cJSON.c ****     {
2161:SynaptiX_FDK/services/cJSON/cJSON.c ****         return number_item;
2162:SynaptiX_FDK/services/cJSON/cJSON.c ****     }
2163:SynaptiX_FDK/services/cJSON/cJSON.c **** 
2164:SynaptiX_FDK/services/cJSON/cJSON.c ****     cJSON_Delete(number_item);
2165:SynaptiX_FDK/services/cJSON/cJSON.c ****     return NULL;
2166:SynaptiX_FDK/services/cJSON/cJSON.c **** }
2167:SynaptiX_FDK/services/cJSON/cJSON.c **** 
2168:SynaptiX_FDK/services/cJSON/cJSON.c **** CJSON_PUBLIC(cJSON*) cJSON_AddStringToObject(cJSON * const object, const char * const name, const c
2169:SynaptiX_FDK/services/cJSON/cJSON.c **** {
2170:SynaptiX_FDK/services/cJSON/cJSON.c ****     cJSON *string_item = cJSON_CreateString(string);
ARM GAS  C:\Users\DELL\AppData\Local\Temp\ccXjhdgA.s 			page 66


2171:SynaptiX_FDK/services/cJSON/cJSON.c ****     if (add_item_to_object(object, name, string_item, &global_hooks, false))
2172:SynaptiX_FDK/services/cJSON/cJSON.c ****     {
2173:SynaptiX_FDK/services/cJSON/cJSON.c ****         return string_item;
2174:SynaptiX_FDK/services/cJSON/cJSON.c ****     }
2175:SynaptiX_FDK/services/cJSON/cJSON.c **** 
2176:SynaptiX_FDK/services/cJSON/cJSON.c ****     cJSON_Delete(string_item);
2177:SynaptiX_FDK/services/cJSON/cJSON.c ****     return NULL;
2178:SynaptiX_FDK/services/cJSON/cJSON.c **** }
2179:SynaptiX_FDK/services/cJSON/cJSON.c **** 
2180:SynaptiX_FDK/services/cJSON/cJSON.c **** CJSON_PUBLIC(cJSON*) cJSON_AddRawToObject(cJSON * const object, const char * const name, const char
2181:SynaptiX_FDK/services/cJSON/cJSON.c **** {
2182:SynaptiX_FDK/services/cJSON/cJSON.c ****     cJSON *raw_item = cJSON_CreateRaw(raw);
2183:SynaptiX_FDK/services/cJSON/cJSON.c ****     if (add_item_to_object(object, name, raw_item, &global_hooks, false))
2184:SynaptiX_FDK/services/cJSON/cJSON.c ****     {
2185:SynaptiX_FDK/services/cJSON/cJSON.c ****         return raw_item;
2186:SynaptiX_FDK/services/cJSON/cJSON.c ****     }
2187:SynaptiX_FDK/services/cJSON/cJSON.c **** 
2188:SynaptiX_FDK/services/cJSON/cJSON.c ****     cJSON_Delete(raw_item);
2189:SynaptiX_FDK/services/cJSON/cJSON.c ****     return NULL;
2190:SynaptiX_FDK/services/cJSON/cJSON.c **** }
2191:SynaptiX_FDK/services/cJSON/cJSON.c **** 
2192:SynaptiX_FDK/services/cJSON/cJSON.c **** CJSON_PUBLIC(cJSON*) cJSON_AddObjectToObject(cJSON * const object, const char * const name)
2193:SynaptiX_FDK/services/cJSON/cJSON.c **** {
2194:SynaptiX_FDK/services/cJSON/cJSON.c ****     cJSON *object_item = cJSON_CreateObject();
2195:SynaptiX_FDK/services/cJSON/cJSON.c ****     if (add_item_to_object(object, name, object_item, &global_hooks, false))
2196:SynaptiX_FDK/services/cJSON/cJSON.c ****     {
2197:SynaptiX_FDK/services/cJSON/cJSON.c ****         return object_item;
2198:SynaptiX_FDK/services/cJSON/cJSON.c ****     }
2199:SynaptiX_FDK/services/cJSON/cJSON.c **** 
2200:SynaptiX_FDK/services/cJSON/cJSON.c ****     cJSON_Delete(object_item);
2201:SynaptiX_FDK/services/cJSON/cJSON.c ****     return NULL;
2202:SynaptiX_FDK/services/cJSON/cJSON.c **** }
2203:SynaptiX_FDK/services/cJSON/cJSON.c **** 
2204:SynaptiX_FDK/services/cJSON/cJSON.c **** CJSON_PUBLIC(cJSON*) cJSON_AddArrayToObject(cJSON * const object, const char * const name)
2205:SynaptiX_FDK/services/cJSON/cJSON.c **** {
2206:SynaptiX_FDK/services/cJSON/cJSON.c ****     cJSON *array = cJSON_CreateArray();
2207:SynaptiX_FDK/services/cJSON/cJSON.c ****     if (add_item_to_object(object, name, array, &global_hooks, false))
2208:SynaptiX_FDK/services/cJSON/cJSON.c ****     {
2209:SynaptiX_FDK/services/cJSON/cJSON.c ****         return array;
2210:SynaptiX_FDK/services/cJSON/cJSON.c ****     }
2211:SynaptiX_FDK/services/cJSON/cJSON.c **** 
2212:SynaptiX_FDK/services/cJSON/cJSON.c ****     cJSON_Delete(array);
2213:SynaptiX_FDK/services/cJSON/cJSON.c ****     return NULL;
2214:SynaptiX_FDK/services/cJSON/cJSON.c **** }
2215:SynaptiX_FDK/services/cJSON/cJSON.c **** 
2216:SynaptiX_FDK/services/cJSON/cJSON.c **** CJSON_PUBLIC(cJSON *) cJSON_DetachItemViaPointer(cJSON *parent, cJSON * const item)
2217:SynaptiX_FDK/services/cJSON/cJSON.c **** {
2218:SynaptiX_FDK/services/cJSON/cJSON.c ****     if ((parent == NULL) || (item == NULL) || (item != parent->child && item->prev == NULL))
2219:SynaptiX_FDK/services/cJSON/cJSON.c ****     {
2220:SynaptiX_FDK/services/cJSON/cJSON.c ****         return NULL;
2221:SynaptiX_FDK/services/cJSON/cJSON.c ****     }
2222:SynaptiX_FDK/services/cJSON/cJSON.c **** 
2223:SynaptiX_FDK/services/cJSON/cJSON.c ****     if (item != parent->child)
2224:SynaptiX_FDK/services/cJSON/cJSON.c ****     {
2225:SynaptiX_FDK/services/cJSON/cJSON.c ****         /* not the first element */
2226:SynaptiX_FDK/services/cJSON/cJSON.c ****         item->prev->next = item->next;
2227:SynaptiX_FDK/services/cJSON/cJSON.c ****     }
ARM GAS  C:\Users\DELL\AppData\Local\Temp\ccXjhdgA.s 			page 67


2228:SynaptiX_FDK/services/cJSON/cJSON.c ****     if (item->next != NULL)
2229:SynaptiX_FDK/services/cJSON/cJSON.c ****     {
2230:SynaptiX_FDK/services/cJSON/cJSON.c ****         /* not the last element */
2231:SynaptiX_FDK/services/cJSON/cJSON.c ****         item->next->prev = item->prev;
2232:SynaptiX_FDK/services/cJSON/cJSON.c ****     }
2233:SynaptiX_FDK/services/cJSON/cJSON.c **** 
2234:SynaptiX_FDK/services/cJSON/cJSON.c ****     if (item == parent->child)
2235:SynaptiX_FDK/services/cJSON/cJSON.c ****     {
2236:SynaptiX_FDK/services/cJSON/cJSON.c ****         /* first element */
2237:SynaptiX_FDK/services/cJSON/cJSON.c ****         parent->child = item->next;
2238:SynaptiX_FDK/services/cJSON/cJSON.c ****     }
2239:SynaptiX_FDK/services/cJSON/cJSON.c ****     else if (item->next == NULL)
2240:SynaptiX_FDK/services/cJSON/cJSON.c ****     {
2241:SynaptiX_FDK/services/cJSON/cJSON.c ****         /* last element */
2242:SynaptiX_FDK/services/cJSON/cJSON.c ****         parent->child->prev = item->prev;
2243:SynaptiX_FDK/services/cJSON/cJSON.c ****     }
2244:SynaptiX_FDK/services/cJSON/cJSON.c **** 
2245:SynaptiX_FDK/services/cJSON/cJSON.c ****     /* make sure the detached item doesn't point anywhere anymore */
2246:SynaptiX_FDK/services/cJSON/cJSON.c ****     item->prev = NULL;
2247:SynaptiX_FDK/services/cJSON/cJSON.c ****     item->next = NULL;
2248:SynaptiX_FDK/services/cJSON/cJSON.c **** 
2249:SynaptiX_FDK/services/cJSON/cJSON.c ****     return item;
2250:SynaptiX_FDK/services/cJSON/cJSON.c **** }
2251:SynaptiX_FDK/services/cJSON/cJSON.c **** 
2252:SynaptiX_FDK/services/cJSON/cJSON.c **** CJSON_PUBLIC(cJSON *) cJSON_DetachItemFromArray(cJSON *array, int which)
2253:SynaptiX_FDK/services/cJSON/cJSON.c **** {
2254:SynaptiX_FDK/services/cJSON/cJSON.c ****     if (which < 0)
2255:SynaptiX_FDK/services/cJSON/cJSON.c ****     {
2256:SynaptiX_FDK/services/cJSON/cJSON.c ****         return NULL;
2257:SynaptiX_FDK/services/cJSON/cJSON.c ****     }
2258:SynaptiX_FDK/services/cJSON/cJSON.c **** 
2259:SynaptiX_FDK/services/cJSON/cJSON.c ****     return cJSON_DetachItemViaPointer(array, get_array_item(array, (size_t)which));
2260:SynaptiX_FDK/services/cJSON/cJSON.c **** }
2261:SynaptiX_FDK/services/cJSON/cJSON.c **** 
2262:SynaptiX_FDK/services/cJSON/cJSON.c **** CJSON_PUBLIC(void) cJSON_DeleteItemFromArray(cJSON *array, int which)
2263:SynaptiX_FDK/services/cJSON/cJSON.c **** {
2264:SynaptiX_FDK/services/cJSON/cJSON.c ****     cJSON_Delete(cJSON_DetachItemFromArray(array, which));
2265:SynaptiX_FDK/services/cJSON/cJSON.c **** }
2266:SynaptiX_FDK/services/cJSON/cJSON.c **** 
2267:SynaptiX_FDK/services/cJSON/cJSON.c **** CJSON_PUBLIC(cJSON *) cJSON_DetachItemFromObject(cJSON *object, const char *string)
2268:SynaptiX_FDK/services/cJSON/cJSON.c **** {
2269:SynaptiX_FDK/services/cJSON/cJSON.c ****     cJSON *to_detach = cJSON_GetObjectItem(object, string);
2270:SynaptiX_FDK/services/cJSON/cJSON.c **** 
2271:SynaptiX_FDK/services/cJSON/cJSON.c ****     return cJSON_DetachItemViaPointer(object, to_detach);
2272:SynaptiX_FDK/services/cJSON/cJSON.c **** }
2273:SynaptiX_FDK/services/cJSON/cJSON.c **** 
2274:SynaptiX_FDK/services/cJSON/cJSON.c **** CJSON_PUBLIC(cJSON *) cJSON_DetachItemFromObjectCaseSensitive(cJSON *object, const char *string)
2275:SynaptiX_FDK/services/cJSON/cJSON.c **** {
2276:SynaptiX_FDK/services/cJSON/cJSON.c ****     cJSON *to_detach = cJSON_GetObjectItemCaseSensitive(object, string);
2277:SynaptiX_FDK/services/cJSON/cJSON.c **** 
2278:SynaptiX_FDK/services/cJSON/cJSON.c ****     return cJSON_DetachItemViaPointer(object, to_detach);
2279:SynaptiX_FDK/services/cJSON/cJSON.c **** }
2280:SynaptiX_FDK/services/cJSON/cJSON.c **** 
2281:SynaptiX_FDK/services/cJSON/cJSON.c **** CJSON_PUBLIC(void) cJSON_DeleteItemFromObject(cJSON *object, const char *string)
2282:SynaptiX_FDK/services/cJSON/cJSON.c **** {
2283:SynaptiX_FDK/services/cJSON/cJSON.c ****     cJSON_Delete(cJSON_DetachItemFromObject(object, string));
2284:SynaptiX_FDK/services/cJSON/cJSON.c **** }
ARM GAS  C:\Users\DELL\AppData\Local\Temp\ccXjhdgA.s 			page 68


2285:SynaptiX_FDK/services/cJSON/cJSON.c **** 
2286:SynaptiX_FDK/services/cJSON/cJSON.c **** CJSON_PUBLIC(void) cJSON_DeleteItemFromObjectCaseSensitive(cJSON *object, const char *string)
2287:SynaptiX_FDK/services/cJSON/cJSON.c **** {
2288:SynaptiX_FDK/services/cJSON/cJSON.c ****     cJSON_Delete(cJSON_DetachItemFromObjectCaseSensitive(object, string));
2289:SynaptiX_FDK/services/cJSON/cJSON.c **** }
2290:SynaptiX_FDK/services/cJSON/cJSON.c **** 
2291:SynaptiX_FDK/services/cJSON/cJSON.c **** /* Replace array/object items with new ones. */
2292:SynaptiX_FDK/services/cJSON/cJSON.c **** CJSON_PUBLIC(cJSON_bool) cJSON_InsertItemInArray(cJSON *array, int which, cJSON *newitem)
2293:SynaptiX_FDK/services/cJSON/cJSON.c **** {
2294:SynaptiX_FDK/services/cJSON/cJSON.c ****     cJSON *after_inserted = NULL;
2295:SynaptiX_FDK/services/cJSON/cJSON.c **** 
2296:SynaptiX_FDK/services/cJSON/cJSON.c ****     if (which < 0 || newitem == NULL)
2297:SynaptiX_FDK/services/cJSON/cJSON.c ****     {
2298:SynaptiX_FDK/services/cJSON/cJSON.c ****         return false;
2299:SynaptiX_FDK/services/cJSON/cJSON.c ****     }
2300:SynaptiX_FDK/services/cJSON/cJSON.c **** 
2301:SynaptiX_FDK/services/cJSON/cJSON.c ****     after_inserted = get_array_item(array, (size_t)which);
2302:SynaptiX_FDK/services/cJSON/cJSON.c ****     if (after_inserted == NULL)
2303:SynaptiX_FDK/services/cJSON/cJSON.c ****     {
2304:SynaptiX_FDK/services/cJSON/cJSON.c ****         return add_item_to_array(array, newitem);
2305:SynaptiX_FDK/services/cJSON/cJSON.c ****     }
2306:SynaptiX_FDK/services/cJSON/cJSON.c **** 
2307:SynaptiX_FDK/services/cJSON/cJSON.c ****     if (after_inserted != array->child && after_inserted->prev == NULL) {
2308:SynaptiX_FDK/services/cJSON/cJSON.c ****         /* return false if after_inserted is a corrupted array item */
2309:SynaptiX_FDK/services/cJSON/cJSON.c ****         return false;
2310:SynaptiX_FDK/services/cJSON/cJSON.c ****     }
2311:SynaptiX_FDK/services/cJSON/cJSON.c **** 
2312:SynaptiX_FDK/services/cJSON/cJSON.c ****     newitem->next = after_inserted;
2313:SynaptiX_FDK/services/cJSON/cJSON.c ****     newitem->prev = after_inserted->prev;
2314:SynaptiX_FDK/services/cJSON/cJSON.c ****     after_inserted->prev = newitem;
2315:SynaptiX_FDK/services/cJSON/cJSON.c ****     if (after_inserted == array->child)
2316:SynaptiX_FDK/services/cJSON/cJSON.c ****     {
2317:SynaptiX_FDK/services/cJSON/cJSON.c ****         array->child = newitem;
2318:SynaptiX_FDK/services/cJSON/cJSON.c ****     }
2319:SynaptiX_FDK/services/cJSON/cJSON.c ****     else
2320:SynaptiX_FDK/services/cJSON/cJSON.c ****     {
2321:SynaptiX_FDK/services/cJSON/cJSON.c ****         newitem->prev->next = newitem;
2322:SynaptiX_FDK/services/cJSON/cJSON.c ****     }
2323:SynaptiX_FDK/services/cJSON/cJSON.c ****     return true;
2324:SynaptiX_FDK/services/cJSON/cJSON.c **** }
2325:SynaptiX_FDK/services/cJSON/cJSON.c **** 
2326:SynaptiX_FDK/services/cJSON/cJSON.c **** CJSON_PUBLIC(cJSON_bool) cJSON_ReplaceItemViaPointer(cJSON * const parent, cJSON * const item, cJSO
2327:SynaptiX_FDK/services/cJSON/cJSON.c **** {
2328:SynaptiX_FDK/services/cJSON/cJSON.c ****     if ((parent == NULL) || (parent->child == NULL) || (replacement == NULL) || (item == NULL))
2329:SynaptiX_FDK/services/cJSON/cJSON.c ****     {
2330:SynaptiX_FDK/services/cJSON/cJSON.c ****         return false;
2331:SynaptiX_FDK/services/cJSON/cJSON.c ****     }
2332:SynaptiX_FDK/services/cJSON/cJSON.c **** 
2333:SynaptiX_FDK/services/cJSON/cJSON.c ****     if (replacement == item)
2334:SynaptiX_FDK/services/cJSON/cJSON.c ****     {
2335:SynaptiX_FDK/services/cJSON/cJSON.c ****         return true;
2336:SynaptiX_FDK/services/cJSON/cJSON.c ****     }
2337:SynaptiX_FDK/services/cJSON/cJSON.c **** 
2338:SynaptiX_FDK/services/cJSON/cJSON.c ****     replacement->next = item->next;
2339:SynaptiX_FDK/services/cJSON/cJSON.c ****     replacement->prev = item->prev;
2340:SynaptiX_FDK/services/cJSON/cJSON.c **** 
2341:SynaptiX_FDK/services/cJSON/cJSON.c ****     if (replacement->next != NULL)
ARM GAS  C:\Users\DELL\AppData\Local\Temp\ccXjhdgA.s 			page 69


2342:SynaptiX_FDK/services/cJSON/cJSON.c ****     {
2343:SynaptiX_FDK/services/cJSON/cJSON.c ****         replacement->next->prev = replacement;
2344:SynaptiX_FDK/services/cJSON/cJSON.c ****     }
2345:SynaptiX_FDK/services/cJSON/cJSON.c ****     if (parent->child == item)
2346:SynaptiX_FDK/services/cJSON/cJSON.c ****     {
2347:SynaptiX_FDK/services/cJSON/cJSON.c ****         if (parent->child->prev == parent->child)
2348:SynaptiX_FDK/services/cJSON/cJSON.c ****         {
2349:SynaptiX_FDK/services/cJSON/cJSON.c ****             replacement->prev = replacement;
2350:SynaptiX_FDK/services/cJSON/cJSON.c ****         }
2351:SynaptiX_FDK/services/cJSON/cJSON.c ****         parent->child = replacement;
2352:SynaptiX_FDK/services/cJSON/cJSON.c ****     }
2353:SynaptiX_FDK/services/cJSON/cJSON.c ****     else
2354:SynaptiX_FDK/services/cJSON/cJSON.c ****     {   /*
2355:SynaptiX_FDK/services/cJSON/cJSON.c ****          * To find the last item in array quickly, we use prev in array.
2356:SynaptiX_FDK/services/cJSON/cJSON.c ****          * We can't modify the last item's next pointer where this item was the parent's child
2357:SynaptiX_FDK/services/cJSON/cJSON.c ****          */
2358:SynaptiX_FDK/services/cJSON/cJSON.c ****         if (replacement->prev != NULL)
2359:SynaptiX_FDK/services/cJSON/cJSON.c ****         {
2360:SynaptiX_FDK/services/cJSON/cJSON.c ****             replacement->prev->next = replacement;
2361:SynaptiX_FDK/services/cJSON/cJSON.c ****         }
2362:SynaptiX_FDK/services/cJSON/cJSON.c ****         if (replacement->next == NULL)
2363:SynaptiX_FDK/services/cJSON/cJSON.c ****         {
2364:SynaptiX_FDK/services/cJSON/cJSON.c ****             parent->child->prev = replacement;
2365:SynaptiX_FDK/services/cJSON/cJSON.c ****         }
2366:SynaptiX_FDK/services/cJSON/cJSON.c ****     }
2367:SynaptiX_FDK/services/cJSON/cJSON.c **** 
2368:SynaptiX_FDK/services/cJSON/cJSON.c ****     item->next = NULL;
2369:SynaptiX_FDK/services/cJSON/cJSON.c ****     item->prev = NULL;
2370:SynaptiX_FDK/services/cJSON/cJSON.c ****     cJSON_Delete(item);
2371:SynaptiX_FDK/services/cJSON/cJSON.c **** 
2372:SynaptiX_FDK/services/cJSON/cJSON.c ****     return true;
2373:SynaptiX_FDK/services/cJSON/cJSON.c **** }
2374:SynaptiX_FDK/services/cJSON/cJSON.c **** 
2375:SynaptiX_FDK/services/cJSON/cJSON.c **** CJSON_PUBLIC(cJSON_bool) cJSON_ReplaceItemInArray(cJSON *array, int which, cJSON *newitem)
2376:SynaptiX_FDK/services/cJSON/cJSON.c **** {
2377:SynaptiX_FDK/services/cJSON/cJSON.c ****     if (which < 0)
2378:SynaptiX_FDK/services/cJSON/cJSON.c ****     {
2379:SynaptiX_FDK/services/cJSON/cJSON.c ****         return false;
2380:SynaptiX_FDK/services/cJSON/cJSON.c ****     }
2381:SynaptiX_FDK/services/cJSON/cJSON.c **** 
2382:SynaptiX_FDK/services/cJSON/cJSON.c ****     return cJSON_ReplaceItemViaPointer(array, get_array_item(array, (size_t)which), newitem);
2383:SynaptiX_FDK/services/cJSON/cJSON.c **** }
2384:SynaptiX_FDK/services/cJSON/cJSON.c **** 
2385:SynaptiX_FDK/services/cJSON/cJSON.c **** static cJSON_bool replace_item_in_object(cJSON *object, const char *string, cJSON *replacement, cJS
2386:SynaptiX_FDK/services/cJSON/cJSON.c **** {
2387:SynaptiX_FDK/services/cJSON/cJSON.c ****     if ((replacement == NULL) || (string == NULL))
2388:SynaptiX_FDK/services/cJSON/cJSON.c ****     {
2389:SynaptiX_FDK/services/cJSON/cJSON.c ****         return false;
2390:SynaptiX_FDK/services/cJSON/cJSON.c ****     }
2391:SynaptiX_FDK/services/cJSON/cJSON.c **** 
2392:SynaptiX_FDK/services/cJSON/cJSON.c ****     /* replace the name in the replacement */
2393:SynaptiX_FDK/services/cJSON/cJSON.c ****     if (!(replacement->type & cJSON_StringIsConst) && (replacement->string != NULL))
2394:SynaptiX_FDK/services/cJSON/cJSON.c ****     {
2395:SynaptiX_FDK/services/cJSON/cJSON.c ****         cJSON_free(replacement->string);
2396:SynaptiX_FDK/services/cJSON/cJSON.c ****     }
2397:SynaptiX_FDK/services/cJSON/cJSON.c ****     replacement->string = (char*)cJSON_strdup((const unsigned char*)string, &global_hooks);
2398:SynaptiX_FDK/services/cJSON/cJSON.c ****     if (replacement->string == NULL)
ARM GAS  C:\Users\DELL\AppData\Local\Temp\ccXjhdgA.s 			page 70


2399:SynaptiX_FDK/services/cJSON/cJSON.c ****     {
2400:SynaptiX_FDK/services/cJSON/cJSON.c ****         return false;
2401:SynaptiX_FDK/services/cJSON/cJSON.c ****     }
2402:SynaptiX_FDK/services/cJSON/cJSON.c **** 
2403:SynaptiX_FDK/services/cJSON/cJSON.c ****     replacement->type &= ~cJSON_StringIsConst;
2404:SynaptiX_FDK/services/cJSON/cJSON.c **** 
2405:SynaptiX_FDK/services/cJSON/cJSON.c ****     return cJSON_ReplaceItemViaPointer(object, get_object_item(object, string, case_sensitive), rep
2406:SynaptiX_FDK/services/cJSON/cJSON.c **** }
2407:SynaptiX_FDK/services/cJSON/cJSON.c **** 
2408:SynaptiX_FDK/services/cJSON/cJSON.c **** CJSON_PUBLIC(cJSON_bool) cJSON_ReplaceItemInObject(cJSON *object, const char *string, cJSON *newite
2409:SynaptiX_FDK/services/cJSON/cJSON.c **** {
2410:SynaptiX_FDK/services/cJSON/cJSON.c ****     return replace_item_in_object(object, string, newitem, false);
2411:SynaptiX_FDK/services/cJSON/cJSON.c **** }
2412:SynaptiX_FDK/services/cJSON/cJSON.c **** 
2413:SynaptiX_FDK/services/cJSON/cJSON.c **** CJSON_PUBLIC(cJSON_bool) cJSON_ReplaceItemInObjectCaseSensitive(cJSON *object, const char *string, 
2414:SynaptiX_FDK/services/cJSON/cJSON.c **** {
2415:SynaptiX_FDK/services/cJSON/cJSON.c ****     return replace_item_in_object(object, string, newitem, true);
2416:SynaptiX_FDK/services/cJSON/cJSON.c **** }
2417:SynaptiX_FDK/services/cJSON/cJSON.c **** 
2418:SynaptiX_FDK/services/cJSON/cJSON.c **** /* Create basic types: */
2419:SynaptiX_FDK/services/cJSON/cJSON.c **** CJSON_PUBLIC(cJSON *) cJSON_CreateNull(void)
2420:SynaptiX_FDK/services/cJSON/cJSON.c **** {
2421:SynaptiX_FDK/services/cJSON/cJSON.c ****     cJSON *item = cJSON_New_Item(&global_hooks);
2422:SynaptiX_FDK/services/cJSON/cJSON.c ****     if(item)
2423:SynaptiX_FDK/services/cJSON/cJSON.c ****     {
2424:SynaptiX_FDK/services/cJSON/cJSON.c ****         item->type = cJSON_NULL;
2425:SynaptiX_FDK/services/cJSON/cJSON.c ****     }
2426:SynaptiX_FDK/services/cJSON/cJSON.c **** 
2427:SynaptiX_FDK/services/cJSON/cJSON.c ****     return item;
2428:SynaptiX_FDK/services/cJSON/cJSON.c **** }
2429:SynaptiX_FDK/services/cJSON/cJSON.c **** 
2430:SynaptiX_FDK/services/cJSON/cJSON.c **** CJSON_PUBLIC(cJSON *) cJSON_CreateTrue(void)
2431:SynaptiX_FDK/services/cJSON/cJSON.c **** {
2432:SynaptiX_FDK/services/cJSON/cJSON.c ****     cJSON *item = cJSON_New_Item(&global_hooks);
2433:SynaptiX_FDK/services/cJSON/cJSON.c ****     if(item)
2434:SynaptiX_FDK/services/cJSON/cJSON.c ****     {
2435:SynaptiX_FDK/services/cJSON/cJSON.c ****         item->type = cJSON_True;
2436:SynaptiX_FDK/services/cJSON/cJSON.c ****     }
2437:SynaptiX_FDK/services/cJSON/cJSON.c **** 
2438:SynaptiX_FDK/services/cJSON/cJSON.c ****     return item;
2439:SynaptiX_FDK/services/cJSON/cJSON.c **** }
2440:SynaptiX_FDK/services/cJSON/cJSON.c **** 
2441:SynaptiX_FDK/services/cJSON/cJSON.c **** CJSON_PUBLIC(cJSON *) cJSON_CreateFalse(void)
2442:SynaptiX_FDK/services/cJSON/cJSON.c **** {
2443:SynaptiX_FDK/services/cJSON/cJSON.c ****     cJSON *item = cJSON_New_Item(&global_hooks);
2444:SynaptiX_FDK/services/cJSON/cJSON.c ****     if(item)
2445:SynaptiX_FDK/services/cJSON/cJSON.c ****     {
2446:SynaptiX_FDK/services/cJSON/cJSON.c ****         item->type = cJSON_False;
2447:SynaptiX_FDK/services/cJSON/cJSON.c ****     }
2448:SynaptiX_FDK/services/cJSON/cJSON.c **** 
2449:SynaptiX_FDK/services/cJSON/cJSON.c ****     return item;
2450:SynaptiX_FDK/services/cJSON/cJSON.c **** }
2451:SynaptiX_FDK/services/cJSON/cJSON.c **** 
2452:SynaptiX_FDK/services/cJSON/cJSON.c **** CJSON_PUBLIC(cJSON *) cJSON_CreateBool(cJSON_bool boolean)
2453:SynaptiX_FDK/services/cJSON/cJSON.c **** {
2454:SynaptiX_FDK/services/cJSON/cJSON.c ****     cJSON *item = cJSON_New_Item(&global_hooks);
2455:SynaptiX_FDK/services/cJSON/cJSON.c ****     if(item)
ARM GAS  C:\Users\DELL\AppData\Local\Temp\ccXjhdgA.s 			page 71


2456:SynaptiX_FDK/services/cJSON/cJSON.c ****     {
2457:SynaptiX_FDK/services/cJSON/cJSON.c ****         item->type = boolean ? cJSON_True : cJSON_False;
2458:SynaptiX_FDK/services/cJSON/cJSON.c ****     }
2459:SynaptiX_FDK/services/cJSON/cJSON.c **** 
2460:SynaptiX_FDK/services/cJSON/cJSON.c ****     return item;
2461:SynaptiX_FDK/services/cJSON/cJSON.c **** }
2462:SynaptiX_FDK/services/cJSON/cJSON.c **** 
2463:SynaptiX_FDK/services/cJSON/cJSON.c **** CJSON_PUBLIC(cJSON *) cJSON_CreateNumber(double num)
2464:SynaptiX_FDK/services/cJSON/cJSON.c **** {
2465:SynaptiX_FDK/services/cJSON/cJSON.c ****     cJSON *item = cJSON_New_Item(&global_hooks);
2466:SynaptiX_FDK/services/cJSON/cJSON.c ****     if(item)
2467:SynaptiX_FDK/services/cJSON/cJSON.c ****     {
2468:SynaptiX_FDK/services/cJSON/cJSON.c ****         item->type = cJSON_Number;
2469:SynaptiX_FDK/services/cJSON/cJSON.c ****         item->valuedouble = num;
2470:SynaptiX_FDK/services/cJSON/cJSON.c **** 
2471:SynaptiX_FDK/services/cJSON/cJSON.c ****         /* use saturation in case of overflow */
2472:SynaptiX_FDK/services/cJSON/cJSON.c ****         if (num >= INT_MAX)
2473:SynaptiX_FDK/services/cJSON/cJSON.c ****         {
2474:SynaptiX_FDK/services/cJSON/cJSON.c ****             item->valueint = INT_MAX;
2475:SynaptiX_FDK/services/cJSON/cJSON.c ****         }
2476:SynaptiX_FDK/services/cJSON/cJSON.c ****         else if (num <= (double)INT_MIN)
2477:SynaptiX_FDK/services/cJSON/cJSON.c ****         {
2478:SynaptiX_FDK/services/cJSON/cJSON.c ****             item->valueint = INT_MIN;
2479:SynaptiX_FDK/services/cJSON/cJSON.c ****         }
2480:SynaptiX_FDK/services/cJSON/cJSON.c ****         else
2481:SynaptiX_FDK/services/cJSON/cJSON.c ****         {
2482:SynaptiX_FDK/services/cJSON/cJSON.c ****             item->valueint = (int)num;
2483:SynaptiX_FDK/services/cJSON/cJSON.c ****         }
2484:SynaptiX_FDK/services/cJSON/cJSON.c ****     }
2485:SynaptiX_FDK/services/cJSON/cJSON.c **** 
2486:SynaptiX_FDK/services/cJSON/cJSON.c ****     return item;
2487:SynaptiX_FDK/services/cJSON/cJSON.c **** }
2488:SynaptiX_FDK/services/cJSON/cJSON.c **** 
2489:SynaptiX_FDK/services/cJSON/cJSON.c **** CJSON_PUBLIC(cJSON *) cJSON_CreateString(const char *string)
2490:SynaptiX_FDK/services/cJSON/cJSON.c **** {
2491:SynaptiX_FDK/services/cJSON/cJSON.c ****     cJSON *item = cJSON_New_Item(&global_hooks);
2492:SynaptiX_FDK/services/cJSON/cJSON.c ****     if(item)
2493:SynaptiX_FDK/services/cJSON/cJSON.c ****     {
2494:SynaptiX_FDK/services/cJSON/cJSON.c ****         item->type = cJSON_String;
2495:SynaptiX_FDK/services/cJSON/cJSON.c ****         item->valuestring = (char*)cJSON_strdup((const unsigned char*)string, &global_hooks);
2496:SynaptiX_FDK/services/cJSON/cJSON.c ****         if(!item->valuestring)
2497:SynaptiX_FDK/services/cJSON/cJSON.c ****         {
2498:SynaptiX_FDK/services/cJSON/cJSON.c ****             cJSON_Delete(item);
2499:SynaptiX_FDK/services/cJSON/cJSON.c ****             return NULL;
2500:SynaptiX_FDK/services/cJSON/cJSON.c ****         }
2501:SynaptiX_FDK/services/cJSON/cJSON.c ****     }
2502:SynaptiX_FDK/services/cJSON/cJSON.c **** 
2503:SynaptiX_FDK/services/cJSON/cJSON.c ****     return item;
2504:SynaptiX_FDK/services/cJSON/cJSON.c **** }
2505:SynaptiX_FDK/services/cJSON/cJSON.c **** 
2506:SynaptiX_FDK/services/cJSON/cJSON.c **** CJSON_PUBLIC(cJSON *) cJSON_CreateStringReference(const char *string)
2507:SynaptiX_FDK/services/cJSON/cJSON.c **** {
2508:SynaptiX_FDK/services/cJSON/cJSON.c ****     cJSON *item = cJSON_New_Item(&global_hooks);
2509:SynaptiX_FDK/services/cJSON/cJSON.c ****     if (item != NULL)
2510:SynaptiX_FDK/services/cJSON/cJSON.c ****     {
2511:SynaptiX_FDK/services/cJSON/cJSON.c ****         item->type = cJSON_String | cJSON_IsReference;
2512:SynaptiX_FDK/services/cJSON/cJSON.c ****         item->valuestring = (char*)cast_away_const(string);
ARM GAS  C:\Users\DELL\AppData\Local\Temp\ccXjhdgA.s 			page 72


2513:SynaptiX_FDK/services/cJSON/cJSON.c ****     }
2514:SynaptiX_FDK/services/cJSON/cJSON.c **** 
2515:SynaptiX_FDK/services/cJSON/cJSON.c ****     return item;
2516:SynaptiX_FDK/services/cJSON/cJSON.c **** }
2517:SynaptiX_FDK/services/cJSON/cJSON.c **** 
2518:SynaptiX_FDK/services/cJSON/cJSON.c **** CJSON_PUBLIC(cJSON *) cJSON_CreateObjectReference(const cJSON *child)
2519:SynaptiX_FDK/services/cJSON/cJSON.c **** {
2520:SynaptiX_FDK/services/cJSON/cJSON.c ****     cJSON *item = cJSON_New_Item(&global_hooks);
2521:SynaptiX_FDK/services/cJSON/cJSON.c ****     if (item != NULL) {
2522:SynaptiX_FDK/services/cJSON/cJSON.c ****         item->type = cJSON_Object | cJSON_IsReference;
2523:SynaptiX_FDK/services/cJSON/cJSON.c ****         item->child = (cJSON*)cast_away_const(child);
2524:SynaptiX_FDK/services/cJSON/cJSON.c ****     }
2525:SynaptiX_FDK/services/cJSON/cJSON.c **** 
2526:SynaptiX_FDK/services/cJSON/cJSON.c ****     return item;
2527:SynaptiX_FDK/services/cJSON/cJSON.c **** }
2528:SynaptiX_FDK/services/cJSON/cJSON.c **** 
2529:SynaptiX_FDK/services/cJSON/cJSON.c **** CJSON_PUBLIC(cJSON *) cJSON_CreateArrayReference(const cJSON *child) {
2530:SynaptiX_FDK/services/cJSON/cJSON.c ****     cJSON *item = cJSON_New_Item(&global_hooks);
2531:SynaptiX_FDK/services/cJSON/cJSON.c ****     if (item != NULL) {
2532:SynaptiX_FDK/services/cJSON/cJSON.c ****         item->type = cJSON_Array | cJSON_IsReference;
2533:SynaptiX_FDK/services/cJSON/cJSON.c ****         item->child = (cJSON*)cast_away_const(child);
2534:SynaptiX_FDK/services/cJSON/cJSON.c ****     }
2535:SynaptiX_FDK/services/cJSON/cJSON.c **** 
2536:SynaptiX_FDK/services/cJSON/cJSON.c ****     return item;
2537:SynaptiX_FDK/services/cJSON/cJSON.c **** }
2538:SynaptiX_FDK/services/cJSON/cJSON.c **** 
2539:SynaptiX_FDK/services/cJSON/cJSON.c **** CJSON_PUBLIC(cJSON *) cJSON_CreateRaw(const char *raw)
2540:SynaptiX_FDK/services/cJSON/cJSON.c **** {
2541:SynaptiX_FDK/services/cJSON/cJSON.c ****     cJSON *item = cJSON_New_Item(&global_hooks);
2542:SynaptiX_FDK/services/cJSON/cJSON.c ****     if(item)
2543:SynaptiX_FDK/services/cJSON/cJSON.c ****     {
2544:SynaptiX_FDK/services/cJSON/cJSON.c ****         item->type = cJSON_Raw;
2545:SynaptiX_FDK/services/cJSON/cJSON.c ****         item->valuestring = (char*)cJSON_strdup((const unsigned char*)raw, &global_hooks);
2546:SynaptiX_FDK/services/cJSON/cJSON.c ****         if(!item->valuestring)
2547:SynaptiX_FDK/services/cJSON/cJSON.c ****         {
2548:SynaptiX_FDK/services/cJSON/cJSON.c ****             cJSON_Delete(item);
2549:SynaptiX_FDK/services/cJSON/cJSON.c ****             return NULL;
2550:SynaptiX_FDK/services/cJSON/cJSON.c ****         }
2551:SynaptiX_FDK/services/cJSON/cJSON.c ****     }
2552:SynaptiX_FDK/services/cJSON/cJSON.c **** 
2553:SynaptiX_FDK/services/cJSON/cJSON.c ****     return item;
2554:SynaptiX_FDK/services/cJSON/cJSON.c **** }
2555:SynaptiX_FDK/services/cJSON/cJSON.c **** 
2556:SynaptiX_FDK/services/cJSON/cJSON.c **** CJSON_PUBLIC(cJSON *) cJSON_CreateArray(void)
2557:SynaptiX_FDK/services/cJSON/cJSON.c **** {
2558:SynaptiX_FDK/services/cJSON/cJSON.c ****     cJSON *item = cJSON_New_Item(&global_hooks);
2559:SynaptiX_FDK/services/cJSON/cJSON.c ****     if(item)
2560:SynaptiX_FDK/services/cJSON/cJSON.c ****     {
2561:SynaptiX_FDK/services/cJSON/cJSON.c ****         item->type=cJSON_Array;
2562:SynaptiX_FDK/services/cJSON/cJSON.c ****     }
2563:SynaptiX_FDK/services/cJSON/cJSON.c **** 
2564:SynaptiX_FDK/services/cJSON/cJSON.c ****     return item;
2565:SynaptiX_FDK/services/cJSON/cJSON.c **** }
2566:SynaptiX_FDK/services/cJSON/cJSON.c **** 
2567:SynaptiX_FDK/services/cJSON/cJSON.c **** CJSON_PUBLIC(cJSON *) cJSON_CreateObject(void)
2568:SynaptiX_FDK/services/cJSON/cJSON.c **** {
2569:SynaptiX_FDK/services/cJSON/cJSON.c ****     cJSON *item = cJSON_New_Item(&global_hooks);
ARM GAS  C:\Users\DELL\AppData\Local\Temp\ccXjhdgA.s 			page 73


2570:SynaptiX_FDK/services/cJSON/cJSON.c ****     if (item)
2571:SynaptiX_FDK/services/cJSON/cJSON.c ****     {
2572:SynaptiX_FDK/services/cJSON/cJSON.c ****         item->type = cJSON_Object;
2573:SynaptiX_FDK/services/cJSON/cJSON.c ****     }
2574:SynaptiX_FDK/services/cJSON/cJSON.c **** 
2575:SynaptiX_FDK/services/cJSON/cJSON.c ****     return item;
2576:SynaptiX_FDK/services/cJSON/cJSON.c **** }
2577:SynaptiX_FDK/services/cJSON/cJSON.c **** 
2578:SynaptiX_FDK/services/cJSON/cJSON.c **** /* Create Arrays: */
2579:SynaptiX_FDK/services/cJSON/cJSON.c **** CJSON_PUBLIC(cJSON *) cJSON_CreateIntArray(const int *numbers, int count)
2580:SynaptiX_FDK/services/cJSON/cJSON.c **** {
2581:SynaptiX_FDK/services/cJSON/cJSON.c ****     size_t i = 0;
2582:SynaptiX_FDK/services/cJSON/cJSON.c ****     cJSON *n = NULL;
2583:SynaptiX_FDK/services/cJSON/cJSON.c ****     cJSON *p = NULL;
2584:SynaptiX_FDK/services/cJSON/cJSON.c ****     cJSON *a = NULL;
2585:SynaptiX_FDK/services/cJSON/cJSON.c **** 
2586:SynaptiX_FDK/services/cJSON/cJSON.c ****     if ((count < 0) || (numbers == NULL))
2587:SynaptiX_FDK/services/cJSON/cJSON.c ****     {
2588:SynaptiX_FDK/services/cJSON/cJSON.c ****         return NULL;
2589:SynaptiX_FDK/services/cJSON/cJSON.c ****     }
2590:SynaptiX_FDK/services/cJSON/cJSON.c **** 
2591:SynaptiX_FDK/services/cJSON/cJSON.c ****     a = cJSON_CreateArray();
2592:SynaptiX_FDK/services/cJSON/cJSON.c **** 
2593:SynaptiX_FDK/services/cJSON/cJSON.c ****     for(i = 0; a && (i < (size_t)count); i++)
2594:SynaptiX_FDK/services/cJSON/cJSON.c ****     {
2595:SynaptiX_FDK/services/cJSON/cJSON.c ****         n = cJSON_CreateNumber(numbers[i]);
2596:SynaptiX_FDK/services/cJSON/cJSON.c ****         if (!n)
2597:SynaptiX_FDK/services/cJSON/cJSON.c ****         {
2598:SynaptiX_FDK/services/cJSON/cJSON.c ****             cJSON_Delete(a);
2599:SynaptiX_FDK/services/cJSON/cJSON.c ****             return NULL;
2600:SynaptiX_FDK/services/cJSON/cJSON.c ****         }
2601:SynaptiX_FDK/services/cJSON/cJSON.c ****         if(!i)
2602:SynaptiX_FDK/services/cJSON/cJSON.c ****         {
2603:SynaptiX_FDK/services/cJSON/cJSON.c ****             a->child = n;
2604:SynaptiX_FDK/services/cJSON/cJSON.c ****         }
2605:SynaptiX_FDK/services/cJSON/cJSON.c ****         else
2606:SynaptiX_FDK/services/cJSON/cJSON.c ****         {
2607:SynaptiX_FDK/services/cJSON/cJSON.c ****             suffix_object(p, n);
2608:SynaptiX_FDK/services/cJSON/cJSON.c ****         }
2609:SynaptiX_FDK/services/cJSON/cJSON.c ****         p = n;
2610:SynaptiX_FDK/services/cJSON/cJSON.c ****     }
2611:SynaptiX_FDK/services/cJSON/cJSON.c **** 
2612:SynaptiX_FDK/services/cJSON/cJSON.c ****     if (a && a->child) {
2613:SynaptiX_FDK/services/cJSON/cJSON.c ****         a->child->prev = n;
2614:SynaptiX_FDK/services/cJSON/cJSON.c ****     }
2615:SynaptiX_FDK/services/cJSON/cJSON.c **** 
2616:SynaptiX_FDK/services/cJSON/cJSON.c ****     return a;
2617:SynaptiX_FDK/services/cJSON/cJSON.c **** }
2618:SynaptiX_FDK/services/cJSON/cJSON.c **** 
2619:SynaptiX_FDK/services/cJSON/cJSON.c **** CJSON_PUBLIC(cJSON *) cJSON_CreateFloatArray(const float *numbers, int count)
2620:SynaptiX_FDK/services/cJSON/cJSON.c **** {
2621:SynaptiX_FDK/services/cJSON/cJSON.c ****     size_t i = 0;
2622:SynaptiX_FDK/services/cJSON/cJSON.c ****     cJSON *n = NULL;
2623:SynaptiX_FDK/services/cJSON/cJSON.c ****     cJSON *p = NULL;
2624:SynaptiX_FDK/services/cJSON/cJSON.c ****     cJSON *a = NULL;
2625:SynaptiX_FDK/services/cJSON/cJSON.c **** 
2626:SynaptiX_FDK/services/cJSON/cJSON.c ****     if ((count < 0) || (numbers == NULL))
ARM GAS  C:\Users\DELL\AppData\Local\Temp\ccXjhdgA.s 			page 74


2627:SynaptiX_FDK/services/cJSON/cJSON.c ****     {
2628:SynaptiX_FDK/services/cJSON/cJSON.c ****         return NULL;
2629:SynaptiX_FDK/services/cJSON/cJSON.c ****     }
2630:SynaptiX_FDK/services/cJSON/cJSON.c **** 
2631:SynaptiX_FDK/services/cJSON/cJSON.c ****     a = cJSON_CreateArray();
2632:SynaptiX_FDK/services/cJSON/cJSON.c **** 
2633:SynaptiX_FDK/services/cJSON/cJSON.c ****     for(i = 0; a && (i < (size_t)count); i++)
2634:SynaptiX_FDK/services/cJSON/cJSON.c ****     {
2635:SynaptiX_FDK/services/cJSON/cJSON.c ****         n = cJSON_CreateNumber((double)numbers[i]);
2636:SynaptiX_FDK/services/cJSON/cJSON.c ****         if(!n)
2637:SynaptiX_FDK/services/cJSON/cJSON.c ****         {
2638:SynaptiX_FDK/services/cJSON/cJSON.c ****             cJSON_Delete(a);
2639:SynaptiX_FDK/services/cJSON/cJSON.c ****             return NULL;
2640:SynaptiX_FDK/services/cJSON/cJSON.c ****         }
2641:SynaptiX_FDK/services/cJSON/cJSON.c ****         if(!i)
2642:SynaptiX_FDK/services/cJSON/cJSON.c ****         {
2643:SynaptiX_FDK/services/cJSON/cJSON.c ****             a->child = n;
2644:SynaptiX_FDK/services/cJSON/cJSON.c ****         }
2645:SynaptiX_FDK/services/cJSON/cJSON.c ****         else
2646:SynaptiX_FDK/services/cJSON/cJSON.c ****         {
2647:SynaptiX_FDK/services/cJSON/cJSON.c ****             suffix_object(p, n);
2648:SynaptiX_FDK/services/cJSON/cJSON.c ****         }
2649:SynaptiX_FDK/services/cJSON/cJSON.c ****         p = n;
2650:SynaptiX_FDK/services/cJSON/cJSON.c ****     }
2651:SynaptiX_FDK/services/cJSON/cJSON.c **** 
2652:SynaptiX_FDK/services/cJSON/cJSON.c ****     if (a && a->child) {
2653:SynaptiX_FDK/services/cJSON/cJSON.c ****         a->child->prev = n;
2654:SynaptiX_FDK/services/cJSON/cJSON.c ****     }
2655:SynaptiX_FDK/services/cJSON/cJSON.c **** 
2656:SynaptiX_FDK/services/cJSON/cJSON.c ****     return a;
2657:SynaptiX_FDK/services/cJSON/cJSON.c **** }
2658:SynaptiX_FDK/services/cJSON/cJSON.c **** 
2659:SynaptiX_FDK/services/cJSON/cJSON.c **** CJSON_PUBLIC(cJSON *) cJSON_CreateDoubleArray(const double *numbers, int count)
2660:SynaptiX_FDK/services/cJSON/cJSON.c **** {
2661:SynaptiX_FDK/services/cJSON/cJSON.c ****     size_t i = 0;
2662:SynaptiX_FDK/services/cJSON/cJSON.c ****     cJSON *n = NULL;
2663:SynaptiX_FDK/services/cJSON/cJSON.c ****     cJSON *p = NULL;
2664:SynaptiX_FDK/services/cJSON/cJSON.c ****     cJSON *a = NULL;
2665:SynaptiX_FDK/services/cJSON/cJSON.c **** 
2666:SynaptiX_FDK/services/cJSON/cJSON.c ****     if ((count < 0) || (numbers == NULL))
2667:SynaptiX_FDK/services/cJSON/cJSON.c ****     {
2668:SynaptiX_FDK/services/cJSON/cJSON.c ****         return NULL;
2669:SynaptiX_FDK/services/cJSON/cJSON.c ****     }
2670:SynaptiX_FDK/services/cJSON/cJSON.c **** 
2671:SynaptiX_FDK/services/cJSON/cJSON.c ****     a = cJSON_CreateArray();
2672:SynaptiX_FDK/services/cJSON/cJSON.c **** 
2673:SynaptiX_FDK/services/cJSON/cJSON.c ****     for(i = 0; a && (i < (size_t)count); i++)
2674:SynaptiX_FDK/services/cJSON/cJSON.c ****     {
2675:SynaptiX_FDK/services/cJSON/cJSON.c ****         n = cJSON_CreateNumber(numbers[i]);
2676:SynaptiX_FDK/services/cJSON/cJSON.c ****         if(!n)
2677:SynaptiX_FDK/services/cJSON/cJSON.c ****         {
2678:SynaptiX_FDK/services/cJSON/cJSON.c ****             cJSON_Delete(a);
2679:SynaptiX_FDK/services/cJSON/cJSON.c ****             return NULL;
2680:SynaptiX_FDK/services/cJSON/cJSON.c ****         }
2681:SynaptiX_FDK/services/cJSON/cJSON.c ****         if(!i)
2682:SynaptiX_FDK/services/cJSON/cJSON.c ****         {
2683:SynaptiX_FDK/services/cJSON/cJSON.c ****             a->child = n;
ARM GAS  C:\Users\DELL\AppData\Local\Temp\ccXjhdgA.s 			page 75


2684:SynaptiX_FDK/services/cJSON/cJSON.c ****         }
2685:SynaptiX_FDK/services/cJSON/cJSON.c ****         else
2686:SynaptiX_FDK/services/cJSON/cJSON.c ****         {
2687:SynaptiX_FDK/services/cJSON/cJSON.c ****             suffix_object(p, n);
2688:SynaptiX_FDK/services/cJSON/cJSON.c ****         }
2689:SynaptiX_FDK/services/cJSON/cJSON.c ****         p = n;
2690:SynaptiX_FDK/services/cJSON/cJSON.c ****     }
2691:SynaptiX_FDK/services/cJSON/cJSON.c **** 
2692:SynaptiX_FDK/services/cJSON/cJSON.c ****     if (a && a->child) {
2693:SynaptiX_FDK/services/cJSON/cJSON.c ****         a->child->prev = n;
2694:SynaptiX_FDK/services/cJSON/cJSON.c ****     }
2695:SynaptiX_FDK/services/cJSON/cJSON.c **** 
2696:SynaptiX_FDK/services/cJSON/cJSON.c ****     return a;
2697:SynaptiX_FDK/services/cJSON/cJSON.c **** }
2698:SynaptiX_FDK/services/cJSON/cJSON.c **** 
2699:SynaptiX_FDK/services/cJSON/cJSON.c **** CJSON_PUBLIC(cJSON *) cJSON_CreateStringArray(const char *const *strings, int count)
2700:SynaptiX_FDK/services/cJSON/cJSON.c **** {
2701:SynaptiX_FDK/services/cJSON/cJSON.c ****     size_t i = 0;
2702:SynaptiX_FDK/services/cJSON/cJSON.c ****     cJSON *n = NULL;
2703:SynaptiX_FDK/services/cJSON/cJSON.c ****     cJSON *p = NULL;
2704:SynaptiX_FDK/services/cJSON/cJSON.c ****     cJSON *a = NULL;
2705:SynaptiX_FDK/services/cJSON/cJSON.c **** 
2706:SynaptiX_FDK/services/cJSON/cJSON.c ****     if ((count < 0) || (strings == NULL))
2707:SynaptiX_FDK/services/cJSON/cJSON.c ****     {
2708:SynaptiX_FDK/services/cJSON/cJSON.c ****         return NULL;
2709:SynaptiX_FDK/services/cJSON/cJSON.c ****     }
2710:SynaptiX_FDK/services/cJSON/cJSON.c **** 
2711:SynaptiX_FDK/services/cJSON/cJSON.c ****     a = cJSON_CreateArray();
2712:SynaptiX_FDK/services/cJSON/cJSON.c **** 
2713:SynaptiX_FDK/services/cJSON/cJSON.c ****     for (i = 0; a && (i < (size_t)count); i++)
2714:SynaptiX_FDK/services/cJSON/cJSON.c ****     {
2715:SynaptiX_FDK/services/cJSON/cJSON.c ****         n = cJSON_CreateString(strings[i]);
2716:SynaptiX_FDK/services/cJSON/cJSON.c ****         if(!n)
2717:SynaptiX_FDK/services/cJSON/cJSON.c ****         {
2718:SynaptiX_FDK/services/cJSON/cJSON.c ****             cJSON_Delete(a);
2719:SynaptiX_FDK/services/cJSON/cJSON.c ****             return NULL;
2720:SynaptiX_FDK/services/cJSON/cJSON.c ****         }
2721:SynaptiX_FDK/services/cJSON/cJSON.c ****         if(!i)
2722:SynaptiX_FDK/services/cJSON/cJSON.c ****         {
2723:SynaptiX_FDK/services/cJSON/cJSON.c ****             a->child = n;
2724:SynaptiX_FDK/services/cJSON/cJSON.c ****         }
2725:SynaptiX_FDK/services/cJSON/cJSON.c ****         else
2726:SynaptiX_FDK/services/cJSON/cJSON.c ****         {
2727:SynaptiX_FDK/services/cJSON/cJSON.c ****             suffix_object(p,n);
2728:SynaptiX_FDK/services/cJSON/cJSON.c ****         }
2729:SynaptiX_FDK/services/cJSON/cJSON.c ****         p = n;
2730:SynaptiX_FDK/services/cJSON/cJSON.c ****     }
2731:SynaptiX_FDK/services/cJSON/cJSON.c **** 
2732:SynaptiX_FDK/services/cJSON/cJSON.c ****     if (a && a->child) {
2733:SynaptiX_FDK/services/cJSON/cJSON.c ****         a->child->prev = n;
2734:SynaptiX_FDK/services/cJSON/cJSON.c ****     }
2735:SynaptiX_FDK/services/cJSON/cJSON.c **** 
2736:SynaptiX_FDK/services/cJSON/cJSON.c ****     return a;
2737:SynaptiX_FDK/services/cJSON/cJSON.c **** }
2738:SynaptiX_FDK/services/cJSON/cJSON.c **** 
2739:SynaptiX_FDK/services/cJSON/cJSON.c **** /* Duplication */
2740:SynaptiX_FDK/services/cJSON/cJSON.c **** cJSON * cJSON_Duplicate_rec(const cJSON *item, size_t depth, cJSON_bool recurse);
ARM GAS  C:\Users\DELL\AppData\Local\Temp\ccXjhdgA.s 			page 76


2741:SynaptiX_FDK/services/cJSON/cJSON.c **** 
2742:SynaptiX_FDK/services/cJSON/cJSON.c **** CJSON_PUBLIC(cJSON *) cJSON_Duplicate(const cJSON *item, cJSON_bool recurse)
2743:SynaptiX_FDK/services/cJSON/cJSON.c **** {
2744:SynaptiX_FDK/services/cJSON/cJSON.c ****     return cJSON_Duplicate_rec(item, 0, recurse );
2745:SynaptiX_FDK/services/cJSON/cJSON.c **** }
2746:SynaptiX_FDK/services/cJSON/cJSON.c **** 
2747:SynaptiX_FDK/services/cJSON/cJSON.c **** cJSON * cJSON_Duplicate_rec(const cJSON *item, size_t depth, cJSON_bool recurse)
2748:SynaptiX_FDK/services/cJSON/cJSON.c **** {
2749:SynaptiX_FDK/services/cJSON/cJSON.c ****     cJSON *newitem = NULL;
2750:SynaptiX_FDK/services/cJSON/cJSON.c ****     cJSON *child = NULL;
2751:SynaptiX_FDK/services/cJSON/cJSON.c ****     cJSON *next = NULL;
2752:SynaptiX_FDK/services/cJSON/cJSON.c ****     cJSON *newchild = NULL;
2753:SynaptiX_FDK/services/cJSON/cJSON.c **** 
2754:SynaptiX_FDK/services/cJSON/cJSON.c ****     /* Bail on bad ptr */
2755:SynaptiX_FDK/services/cJSON/cJSON.c ****     if (!item)
2756:SynaptiX_FDK/services/cJSON/cJSON.c ****     {
2757:SynaptiX_FDK/services/cJSON/cJSON.c ****         goto fail;
2758:SynaptiX_FDK/services/cJSON/cJSON.c ****     }
2759:SynaptiX_FDK/services/cJSON/cJSON.c ****     /* Create new item */
2760:SynaptiX_FDK/services/cJSON/cJSON.c ****     newitem = cJSON_New_Item(&global_hooks);
2761:SynaptiX_FDK/services/cJSON/cJSON.c ****     if (!newitem)
2762:SynaptiX_FDK/services/cJSON/cJSON.c ****     {
2763:SynaptiX_FDK/services/cJSON/cJSON.c ****         goto fail;
2764:SynaptiX_FDK/services/cJSON/cJSON.c ****     }
2765:SynaptiX_FDK/services/cJSON/cJSON.c ****     /* Copy over all vars */
2766:SynaptiX_FDK/services/cJSON/cJSON.c ****     newitem->type = item->type & (~cJSON_IsReference);
2767:SynaptiX_FDK/services/cJSON/cJSON.c ****     newitem->valueint = item->valueint;
2768:SynaptiX_FDK/services/cJSON/cJSON.c ****     newitem->valuedouble = item->valuedouble;
2769:SynaptiX_FDK/services/cJSON/cJSON.c ****     if (item->valuestring)
2770:SynaptiX_FDK/services/cJSON/cJSON.c ****     {
2771:SynaptiX_FDK/services/cJSON/cJSON.c ****         newitem->valuestring = (char*)cJSON_strdup((unsigned char*)item->valuestring, &global_hooks
2772:SynaptiX_FDK/services/cJSON/cJSON.c ****         if (!newitem->valuestring)
2773:SynaptiX_FDK/services/cJSON/cJSON.c ****         {
2774:SynaptiX_FDK/services/cJSON/cJSON.c ****             goto fail;
2775:SynaptiX_FDK/services/cJSON/cJSON.c ****         }
2776:SynaptiX_FDK/services/cJSON/cJSON.c ****     }
2777:SynaptiX_FDK/services/cJSON/cJSON.c ****     if (item->string)
2778:SynaptiX_FDK/services/cJSON/cJSON.c ****     {
2779:SynaptiX_FDK/services/cJSON/cJSON.c ****         newitem->string = (item->type&cJSON_StringIsConst) ? item->string : (char*)cJSON_strdup((un
2780:SynaptiX_FDK/services/cJSON/cJSON.c ****         if (!newitem->string)
2781:SynaptiX_FDK/services/cJSON/cJSON.c ****         {
2782:SynaptiX_FDK/services/cJSON/cJSON.c ****             goto fail;
2783:SynaptiX_FDK/services/cJSON/cJSON.c ****         }
2784:SynaptiX_FDK/services/cJSON/cJSON.c ****     }
2785:SynaptiX_FDK/services/cJSON/cJSON.c ****     /* If non-recursive, then we're done! */
2786:SynaptiX_FDK/services/cJSON/cJSON.c ****     if (!recurse)
2787:SynaptiX_FDK/services/cJSON/cJSON.c ****     {
2788:SynaptiX_FDK/services/cJSON/cJSON.c ****         return newitem;
2789:SynaptiX_FDK/services/cJSON/cJSON.c ****     }
2790:SynaptiX_FDK/services/cJSON/cJSON.c ****     /* Walk the ->next chain for the child. */
2791:SynaptiX_FDK/services/cJSON/cJSON.c ****     child = item->child;
2792:SynaptiX_FDK/services/cJSON/cJSON.c ****     while (child != NULL)
2793:SynaptiX_FDK/services/cJSON/cJSON.c ****     {
2794:SynaptiX_FDK/services/cJSON/cJSON.c ****         if(depth >= CJSON_CIRCULAR_LIMIT) {
2795:SynaptiX_FDK/services/cJSON/cJSON.c ****             goto fail;
2796:SynaptiX_FDK/services/cJSON/cJSON.c ****         }
2797:SynaptiX_FDK/services/cJSON/cJSON.c ****         newchild = cJSON_Duplicate_rec(child, depth + 1, true); /* Duplicate (with recurse) each it
ARM GAS  C:\Users\DELL\AppData\Local\Temp\ccXjhdgA.s 			page 77


2798:SynaptiX_FDK/services/cJSON/cJSON.c ****         if (!newchild)
2799:SynaptiX_FDK/services/cJSON/cJSON.c ****         {
2800:SynaptiX_FDK/services/cJSON/cJSON.c ****             goto fail;
2801:SynaptiX_FDK/services/cJSON/cJSON.c ****         }
2802:SynaptiX_FDK/services/cJSON/cJSON.c ****         if (next != NULL)
2803:SynaptiX_FDK/services/cJSON/cJSON.c ****         {
2804:SynaptiX_FDK/services/cJSON/cJSON.c ****             /* If newitem->child already set, then crosswire ->prev and ->next and move on */
2805:SynaptiX_FDK/services/cJSON/cJSON.c ****             next->next = newchild;
2806:SynaptiX_FDK/services/cJSON/cJSON.c ****             newchild->prev = next;
2807:SynaptiX_FDK/services/cJSON/cJSON.c ****             next = newchild;
2808:SynaptiX_FDK/services/cJSON/cJSON.c ****         }
2809:SynaptiX_FDK/services/cJSON/cJSON.c ****         else
2810:SynaptiX_FDK/services/cJSON/cJSON.c ****         {
2811:SynaptiX_FDK/services/cJSON/cJSON.c ****             /* Set newitem->child and move to it */
2812:SynaptiX_FDK/services/cJSON/cJSON.c ****             newitem->child = newchild;
2813:SynaptiX_FDK/services/cJSON/cJSON.c ****             next = newchild;
2814:SynaptiX_FDK/services/cJSON/cJSON.c ****         }
2815:SynaptiX_FDK/services/cJSON/cJSON.c ****         child = child->next;
2816:SynaptiX_FDK/services/cJSON/cJSON.c ****     }
2817:SynaptiX_FDK/services/cJSON/cJSON.c ****     if (newitem && newitem->child)
2818:SynaptiX_FDK/services/cJSON/cJSON.c ****     {
2819:SynaptiX_FDK/services/cJSON/cJSON.c ****         newitem->child->prev = newchild;
2820:SynaptiX_FDK/services/cJSON/cJSON.c ****     }
2821:SynaptiX_FDK/services/cJSON/cJSON.c **** 
2822:SynaptiX_FDK/services/cJSON/cJSON.c ****     return newitem;
2823:SynaptiX_FDK/services/cJSON/cJSON.c **** 
2824:SynaptiX_FDK/services/cJSON/cJSON.c **** fail:
2825:SynaptiX_FDK/services/cJSON/cJSON.c ****     if (newitem != NULL)
2826:SynaptiX_FDK/services/cJSON/cJSON.c ****     {
2827:SynaptiX_FDK/services/cJSON/cJSON.c ****         cJSON_Delete(newitem);
2828:SynaptiX_FDK/services/cJSON/cJSON.c ****     }
2829:SynaptiX_FDK/services/cJSON/cJSON.c **** 
2830:SynaptiX_FDK/services/cJSON/cJSON.c ****     return NULL;
2831:SynaptiX_FDK/services/cJSON/cJSON.c **** }
2832:SynaptiX_FDK/services/cJSON/cJSON.c **** 
2833:SynaptiX_FDK/services/cJSON/cJSON.c **** static void skip_oneline_comment(char **input)
2834:SynaptiX_FDK/services/cJSON/cJSON.c **** {
 1385              		.loc 1 2834 1 is_stmt 1 view -0
 1386              		.cfi_startproc
 1387              		@ args = 0, pretend = 0, frame = 0
 1388              		@ frame_needed = 0, uses_anonymous_args = 0
 1389              		@ link register save eliminated.
2835:SynaptiX_FDK/services/cJSON/cJSON.c ****     *input += static_strlen("//");
 1390              		.loc 1 2835 5 view .LVU429
 1391 0000 0368     		ldr	r3, [r0]
 1392              		.loc 1 2835 12 is_stmt 0 view .LVU430
 1393 0002 0233     		adds	r3, r3, #2
 1394 0004 0360     		str	r3, [r0]
2836:SynaptiX_FDK/services/cJSON/cJSON.c **** 
2837:SynaptiX_FDK/services/cJSON/cJSON.c ****     for (; (*input)[0] != '\0'; ++(*input))
 1395              		.loc 1 2837 5 is_stmt 1 view .LVU431
 1396 0006 01E0     		b	.L121
 1397              	.L122:
 1398              		.loc 1 2837 33 view .LVU432
 1399 0008 0133     		adds	r3, r3, #1
 1400 000a 0360     		str	r3, [r0]
 1401              	.L121:
ARM GAS  C:\Users\DELL\AppData\Local\Temp\ccXjhdgA.s 			page 78


 1402              		.loc 1 2837 24 discriminator 1 view .LVU433
 1403              		.loc 1 2837 13 is_stmt 0 discriminator 1 view .LVU434
 1404 000c 0368     		ldr	r3, [r0]
 1405              		.loc 1 2837 20 discriminator 1 view .LVU435
 1406 000e 1A78     		ldrb	r2, [r3]	@ zero_extendqisi2
 1407              		.loc 1 2837 24 discriminator 1 view .LVU436
 1408 0010 22B1     		cbz	r2, .L125
2838:SynaptiX_FDK/services/cJSON/cJSON.c ****     {
2839:SynaptiX_FDK/services/cJSON/cJSON.c ****         if ((*input)[0] == '\n') {
 1409              		.loc 1 2839 9 is_stmt 1 view .LVU437
 1410              		.loc 1 2839 12 is_stmt 0 view .LVU438
 1411 0012 0A2A     		cmp	r2, #10
 1412 0014 F8D1     		bne	.L122
2840:SynaptiX_FDK/services/cJSON/cJSON.c ****             *input += static_strlen("\n");
 1413              		.loc 1 2840 13 is_stmt 1 view .LVU439
 1414              		.loc 1 2840 20 is_stmt 0 view .LVU440
 1415 0016 0133     		adds	r3, r3, #1
 1416 0018 0360     		str	r3, [r0]
2841:SynaptiX_FDK/services/cJSON/cJSON.c ****             return;
 1417              		.loc 1 2841 13 is_stmt 1 view .LVU441
 1418 001a 7047     		bx	lr
 1419              	.L125:
2842:SynaptiX_FDK/services/cJSON/cJSON.c ****         }
2843:SynaptiX_FDK/services/cJSON/cJSON.c ****     }
2844:SynaptiX_FDK/services/cJSON/cJSON.c **** }
 1420              		.loc 1 2844 1 is_stmt 0 view .LVU442
 1421 001c 7047     		bx	lr
 1422              		.cfi_endproc
 1423              	.LFE100:
 1425              		.section	.text.skip_multiline_comment,"ax",%progbits
 1426              		.align	1
 1427              		.syntax unified
 1428              		.thumb
 1429              		.thumb_func
 1431              	skip_multiline_comment:
 1432              	.LVL139:
 1433              	.LFB101:
2845:SynaptiX_FDK/services/cJSON/cJSON.c **** 
2846:SynaptiX_FDK/services/cJSON/cJSON.c **** static void skip_multiline_comment(char **input)
2847:SynaptiX_FDK/services/cJSON/cJSON.c **** {
 1434              		.loc 1 2847 1 is_stmt 1 view -0
 1435              		.cfi_startproc
 1436              		@ args = 0, pretend = 0, frame = 0
 1437              		@ frame_needed = 0, uses_anonymous_args = 0
 1438              		@ link register save eliminated.
2848:SynaptiX_FDK/services/cJSON/cJSON.c ****     *input += static_strlen("/*");
 1439              		.loc 1 2848 5 view .LVU444
 1440 0000 0368     		ldr	r3, [r0]
 1441              		.loc 1 2848 12 is_stmt 0 view .LVU445
 1442 0002 0233     		adds	r3, r3, #2
 1443 0004 0360     		str	r3, [r0]
2849:SynaptiX_FDK/services/cJSON/cJSON.c **** 
2850:SynaptiX_FDK/services/cJSON/cJSON.c ****     for (; (*input)[0] != '\0'; ++(*input))
 1444              		.loc 1 2850 5 is_stmt 1 view .LVU446
 1445 0006 01E0     		b	.L127
 1446              	.L128:
 1447              		.loc 1 2850 33 view .LVU447
ARM GAS  C:\Users\DELL\AppData\Local\Temp\ccXjhdgA.s 			page 79


 1448 0008 0133     		adds	r3, r3, #1
 1449 000a 0360     		str	r3, [r0]
 1450              	.L127:
 1451              		.loc 1 2850 24 discriminator 1 view .LVU448
 1452              		.loc 1 2850 13 is_stmt 0 discriminator 1 view .LVU449
 1453 000c 0368     		ldr	r3, [r0]
 1454              		.loc 1 2850 20 discriminator 1 view .LVU450
 1455 000e 1A78     		ldrb	r2, [r3]	@ zero_extendqisi2
 1456              		.loc 1 2850 24 discriminator 1 view .LVU451
 1457 0010 3AB1     		cbz	r2, .L131
2851:SynaptiX_FDK/services/cJSON/cJSON.c ****     {
2852:SynaptiX_FDK/services/cJSON/cJSON.c ****         if (((*input)[0] == '*') && ((*input)[1] == '/'))
 1458              		.loc 1 2852 9 is_stmt 1 view .LVU452
 1459              		.loc 1 2852 12 is_stmt 0 view .LVU453
 1460 0012 2A2A     		cmp	r2, #42
 1461 0014 F8D1     		bne	.L128
 1462              		.loc 1 2852 46 discriminator 1 view .LVU454
 1463 0016 5A78     		ldrb	r2, [r3, #1]	@ zero_extendqisi2
 1464              		.loc 1 2852 34 discriminator 1 view .LVU455
 1465 0018 2F2A     		cmp	r2, #47
 1466 001a F5D1     		bne	.L128
2853:SynaptiX_FDK/services/cJSON/cJSON.c ****         {
2854:SynaptiX_FDK/services/cJSON/cJSON.c ****             *input += static_strlen("*/");
 1467              		.loc 1 2854 13 is_stmt 1 view .LVU456
 1468              		.loc 1 2854 20 is_stmt 0 view .LVU457
 1469 001c 0233     		adds	r3, r3, #2
 1470 001e 0360     		str	r3, [r0]
2855:SynaptiX_FDK/services/cJSON/cJSON.c ****             return;
 1471              		.loc 1 2855 13 is_stmt 1 view .LVU458
 1472 0020 7047     		bx	lr
 1473              	.L131:
2856:SynaptiX_FDK/services/cJSON/cJSON.c ****         }
2857:SynaptiX_FDK/services/cJSON/cJSON.c ****     }
2858:SynaptiX_FDK/services/cJSON/cJSON.c **** }
 1474              		.loc 1 2858 1 is_stmt 0 view .LVU459
 1475 0022 7047     		bx	lr
 1476              		.cfi_endproc
 1477              	.LFE101:
 1479              		.section	.text.minify_string,"ax",%progbits
 1480              		.align	1
 1481              		.syntax unified
 1482              		.thumb
 1483              		.thumb_func
 1485              	minify_string:
 1486              	.LVL140:
 1487              	.LFB102:
2859:SynaptiX_FDK/services/cJSON/cJSON.c **** 
2860:SynaptiX_FDK/services/cJSON/cJSON.c **** static void minify_string(char **input, char **output) {
 1488              		.loc 1 2860 56 is_stmt 1 view -0
 1489              		.cfi_startproc
 1490              		@ args = 0, pretend = 0, frame = 0
 1491              		@ frame_needed = 0, uses_anonymous_args = 0
 1492              		@ link register save eliminated.
2861:SynaptiX_FDK/services/cJSON/cJSON.c ****     (*output)[0] = (*input)[0];
 1493              		.loc 1 2861 5 view .LVU461
 1494              		.loc 1 2861 21 is_stmt 0 view .LVU462
 1495 0000 0268     		ldr	r2, [r0]
ARM GAS  C:\Users\DELL\AppData\Local\Temp\ccXjhdgA.s 			page 80


 1496              		.loc 1 2861 6 view .LVU463
 1497 0002 0B68     		ldr	r3, [r1]
 1498              		.loc 1 2861 28 view .LVU464
 1499 0004 1278     		ldrb	r2, [r2]	@ zero_extendqisi2
 1500              		.loc 1 2861 18 view .LVU465
 1501 0006 1A70     		strb	r2, [r3]
2862:SynaptiX_FDK/services/cJSON/cJSON.c ****     *input += static_strlen("\"");
 1502              		.loc 1 2862 5 is_stmt 1 view .LVU466
 1503 0008 0368     		ldr	r3, [r0]
 1504              		.loc 1 2862 12 is_stmt 0 view .LVU467
 1505 000a 0133     		adds	r3, r3, #1
 1506 000c 0360     		str	r3, [r0]
2863:SynaptiX_FDK/services/cJSON/cJSON.c ****     *output += static_strlen("\"");
 1507              		.loc 1 2863 5 is_stmt 1 view .LVU468
 1508 000e 0B68     		ldr	r3, [r1]
 1509              		.loc 1 2863 13 is_stmt 0 view .LVU469
 1510 0010 0133     		adds	r3, r3, #1
 1511 0012 0B60     		str	r3, [r1]
2864:SynaptiX_FDK/services/cJSON/cJSON.c **** 
2865:SynaptiX_FDK/services/cJSON/cJSON.c **** 
2866:SynaptiX_FDK/services/cJSON/cJSON.c ****     for (; (*input)[0] != '\0'; (void)++(*input), ++(*output)) {
 1512              		.loc 1 2866 5 is_stmt 1 view .LVU470
 1513 0014 0FE0     		b	.L133
 1514              	.L139:
2867:SynaptiX_FDK/services/cJSON/cJSON.c ****         (*output)[0] = (*input)[0];
2868:SynaptiX_FDK/services/cJSON/cJSON.c **** 
2869:SynaptiX_FDK/services/cJSON/cJSON.c ****         if ((*input)[0] == '\"') {
2870:SynaptiX_FDK/services/cJSON/cJSON.c ****             (*output)[0] = '\"';
 1515              		.loc 1 2870 13 view .LVU471
 1516              		.loc 1 2870 14 is_stmt 0 view .LVU472
 1517 0016 0B68     		ldr	r3, [r1]
 1518              		.loc 1 2870 26 view .LVU473
 1519 0018 2222     		movs	r2, #34
 1520 001a 1A70     		strb	r2, [r3]
2871:SynaptiX_FDK/services/cJSON/cJSON.c ****             *input += static_strlen("\"");
 1521              		.loc 1 2871 13 is_stmt 1 view .LVU474
 1522 001c 0368     		ldr	r3, [r0]
 1523              		.loc 1 2871 20 is_stmt 0 view .LVU475
 1524 001e 0133     		adds	r3, r3, #1
 1525 0020 0360     		str	r3, [r0]
2872:SynaptiX_FDK/services/cJSON/cJSON.c ****             *output += static_strlen("\"");
 1526              		.loc 1 2872 13 is_stmt 1 view .LVU476
 1527 0022 0B68     		ldr	r3, [r1]
 1528              		.loc 1 2872 21 is_stmt 0 view .LVU477
 1529 0024 0133     		adds	r3, r3, #1
 1530 0026 0B60     		str	r3, [r1]
2873:SynaptiX_FDK/services/cJSON/cJSON.c ****             return;
 1531              		.loc 1 2873 13 is_stmt 1 view .LVU478
 1532 0028 7047     		bx	lr
 1533              	.L136:
2866:SynaptiX_FDK/services/cJSON/cJSON.c ****         (*output)[0] = (*input)[0];
 1534              		.loc 1 2866 49 view .LVU479
2866:SynaptiX_FDK/services/cJSON/cJSON.c ****         (*output)[0] = (*input)[0];
 1535              		.loc 1 2866 42 is_stmt 0 view .LVU480
 1536 002a 0368     		ldr	r3, [r0]
2866:SynaptiX_FDK/services/cJSON/cJSON.c ****         (*output)[0] = (*input)[0];
 1537              		.loc 1 2866 33 view .LVU481
ARM GAS  C:\Users\DELL\AppData\Local\Temp\ccXjhdgA.s 			page 81


 1538 002c 0133     		adds	r3, r3, #1
 1539 002e 0360     		str	r3, [r0]
2866:SynaptiX_FDK/services/cJSON/cJSON.c ****         (*output)[0] = (*input)[0];
 1540              		.loc 1 2866 54 view .LVU482
 1541 0030 0B68     		ldr	r3, [r1]
2866:SynaptiX_FDK/services/cJSON/cJSON.c ****         (*output)[0] = (*input)[0];
 1542              		.loc 1 2866 51 view .LVU483
 1543 0032 0133     		adds	r3, r3, #1
 1544 0034 0B60     		str	r3, [r1]
 1545              	.L133:
2866:SynaptiX_FDK/services/cJSON/cJSON.c ****         (*output)[0] = (*input)[0];
 1546              		.loc 1 2866 24 is_stmt 1 discriminator 1 view .LVU484
2866:SynaptiX_FDK/services/cJSON/cJSON.c ****         (*output)[0] = (*input)[0];
 1547              		.loc 1 2866 13 is_stmt 0 discriminator 1 view .LVU485
 1548 0036 0368     		ldr	r3, [r0]
2866:SynaptiX_FDK/services/cJSON/cJSON.c ****         (*output)[0] = (*input)[0];
 1549              		.loc 1 2866 20 discriminator 1 view .LVU486
 1550 0038 1B78     		ldrb	r3, [r3]	@ zero_extendqisi2
2866:SynaptiX_FDK/services/cJSON/cJSON.c ****         (*output)[0] = (*input)[0];
 1551              		.loc 1 2866 24 discriminator 1 view .LVU487
 1552 003a 9BB1     		cbz	r3, .L138
2867:SynaptiX_FDK/services/cJSON/cJSON.c **** 
 1553              		.loc 1 2867 9 is_stmt 1 view .LVU488
2867:SynaptiX_FDK/services/cJSON/cJSON.c **** 
 1554              		.loc 1 2867 10 is_stmt 0 view .LVU489
 1555 003c 0A68     		ldr	r2, [r1]
2867:SynaptiX_FDK/services/cJSON/cJSON.c **** 
 1556              		.loc 1 2867 22 view .LVU490
 1557 003e 1370     		strb	r3, [r2]
2869:SynaptiX_FDK/services/cJSON/cJSON.c ****             (*output)[0] = '\"';
 1558              		.loc 1 2869 9 is_stmt 1 view .LVU491
2869:SynaptiX_FDK/services/cJSON/cJSON.c ****             (*output)[0] = '\"';
 1559              		.loc 1 2869 14 is_stmt 0 view .LVU492
 1560 0040 0268     		ldr	r2, [r0]
2869:SynaptiX_FDK/services/cJSON/cJSON.c ****             (*output)[0] = '\"';
 1561              		.loc 1 2869 21 view .LVU493
 1562 0042 1378     		ldrb	r3, [r2]	@ zero_extendqisi2
2869:SynaptiX_FDK/services/cJSON/cJSON.c ****             (*output)[0] = '\"';
 1563              		.loc 1 2869 12 view .LVU494
 1564 0044 222B     		cmp	r3, #34
 1565 0046 E6D0     		beq	.L139
2874:SynaptiX_FDK/services/cJSON/cJSON.c ****         } else if (((*input)[0] == '\\') && ((*input)[1] == '\"')) {
 1566              		.loc 1 2874 16 is_stmt 1 view .LVU495
 1567              		.loc 1 2874 19 is_stmt 0 view .LVU496
 1568 0048 5C2B     		cmp	r3, #92
 1569 004a EED1     		bne	.L136
 1570              		.loc 1 2874 54 discriminator 1 view .LVU497
 1571 004c 5378     		ldrb	r3, [r2, #1]	@ zero_extendqisi2
 1572              		.loc 1 2874 42 discriminator 1 view .LVU498
 1573 004e 222B     		cmp	r3, #34
 1574 0050 EBD1     		bne	.L136
2875:SynaptiX_FDK/services/cJSON/cJSON.c ****             (*output)[1] = (*input)[1];
 1575              		.loc 1 2875 13 is_stmt 1 view .LVU499
 1576              		.loc 1 2875 14 is_stmt 0 view .LVU500
 1577 0052 0A68     		ldr	r2, [r1]
 1578              		.loc 1 2875 26 view .LVU501
 1579 0054 5370     		strb	r3, [r2, #1]
ARM GAS  C:\Users\DELL\AppData\Local\Temp\ccXjhdgA.s 			page 82


2876:SynaptiX_FDK/services/cJSON/cJSON.c ****             *input += static_strlen("\"");
 1580              		.loc 1 2876 13 is_stmt 1 view .LVU502
 1581 0056 0368     		ldr	r3, [r0]
 1582              		.loc 1 2876 20 is_stmt 0 view .LVU503
 1583 0058 0133     		adds	r3, r3, #1
 1584 005a 0360     		str	r3, [r0]
2877:SynaptiX_FDK/services/cJSON/cJSON.c ****             *output += static_strlen("\"");
 1585              		.loc 1 2877 13 is_stmt 1 view .LVU504
 1586 005c 0B68     		ldr	r3, [r1]
 1587              		.loc 1 2877 21 is_stmt 0 view .LVU505
 1588 005e 0133     		adds	r3, r3, #1
 1589 0060 0B60     		str	r3, [r1]
 1590 0062 E2E7     		b	.L136
 1591              	.L138:
2878:SynaptiX_FDK/services/cJSON/cJSON.c ****         }
2879:SynaptiX_FDK/services/cJSON/cJSON.c ****     }
2880:SynaptiX_FDK/services/cJSON/cJSON.c **** }
 1592              		.loc 1 2880 1 view .LVU506
 1593 0064 7047     		bx	lr
 1594              		.cfi_endproc
 1595              	.LFE102:
 1597              		.section	.text.update_offset,"ax",%progbits
 1598              		.align	1
 1599              		.syntax unified
 1600              		.thumb
 1601              		.thumb_func
 1603              	update_offset:
 1604              	.LVL141:
 1605              	.LFB18:
 545:SynaptiX_FDK/services/cJSON/cJSON.c ****     const unsigned char *buffer_pointer = NULL;
 1606              		.loc 1 545 1 is_stmt 1 view -0
 1607              		.cfi_startproc
 1608              		@ args = 0, pretend = 0, frame = 0
 1609              		@ frame_needed = 0, uses_anonymous_args = 0
 546:SynaptiX_FDK/services/cJSON/cJSON.c ****     if ((buffer == NULL) || (buffer->buffer == NULL))
 1610              		.loc 1 546 5 view .LVU508
 547:SynaptiX_FDK/services/cJSON/cJSON.c ****     {
 1611              		.loc 1 547 5 view .LVU509
 547:SynaptiX_FDK/services/cJSON/cJSON.c ****     {
 1612              		.loc 1 547 8 is_stmt 0 view .LVU510
 1613 0000 50B1     		cbz	r0, .L143
 545:SynaptiX_FDK/services/cJSON/cJSON.c ****     const unsigned char *buffer_pointer = NULL;
 1614              		.loc 1 545 1 view .LVU511
 1615 0002 38B5     		push	{r3, r4, r5, lr}
 1616              	.LCFI14:
 1617              		.cfi_def_cfa_offset 16
 1618              		.cfi_offset 3, -16
 1619              		.cfi_offset 4, -12
 1620              		.cfi_offset 5, -8
 1621              		.cfi_offset 14, -4
 1622 0004 0546     		mov	r5, r0
 547:SynaptiX_FDK/services/cJSON/cJSON.c ****     {
 1623              		.loc 1 547 36 discriminator 1 view .LVU512
 1624 0006 0068     		ldr	r0, [r0]
 1625              	.LVL142:
 547:SynaptiX_FDK/services/cJSON/cJSON.c ****     {
 1626              		.loc 1 547 26 discriminator 1 view .LVU513
ARM GAS  C:\Users\DELL\AppData\Local\Temp\ccXjhdgA.s 			page 83


 1627 0008 28B1     		cbz	r0, .L140
 551:SynaptiX_FDK/services/cJSON/cJSON.c **** 
 1628              		.loc 1 551 5 is_stmt 1 view .LVU514
 551:SynaptiX_FDK/services/cJSON/cJSON.c **** 
 1629              		.loc 1 551 45 is_stmt 0 view .LVU515
 1630 000a AC68     		ldr	r4, [r5, #8]
 1631              	.LVL143:
 553:SynaptiX_FDK/services/cJSON/cJSON.c **** }
 1632              		.loc 1 553 5 is_stmt 1 view .LVU516
 553:SynaptiX_FDK/services/cJSON/cJSON.c **** }
 1633              		.loc 1 553 23 is_stmt 0 view .LVU517
 1634 000c 2044     		add	r0, r0, r4
 1635              	.LVL144:
 553:SynaptiX_FDK/services/cJSON/cJSON.c **** }
 1636              		.loc 1 553 23 view .LVU518
 1637 000e FFF7FEFF 		bl	strlen
 1638              	.LVL145:
 553:SynaptiX_FDK/services/cJSON/cJSON.c **** }
 1639              		.loc 1 553 20 discriminator 1 view .LVU519
 1640 0012 0444     		add	r4, r4, r0
 1641 0014 AC60     		str	r4, [r5, #8]
 1642              	.LVL146:
 1643              	.L140:
 554:SynaptiX_FDK/services/cJSON/cJSON.c **** 
 1644              		.loc 1 554 1 view .LVU520
 1645 0016 38BD     		pop	{r3, r4, r5, pc}
 1646              	.LVL147:
 1647              	.L143:
 1648              	.LCFI15:
 1649              		.cfi_def_cfa_offset 0
 1650              		.cfi_restore 3
 1651              		.cfi_restore 4
 1652              		.cfi_restore 5
 1653              		.cfi_restore 14
 554:SynaptiX_FDK/services/cJSON/cJSON.c **** 
 1654              		.loc 1 554 1 view .LVU521
 1655 0018 7047     		bx	lr
 1656              		.cfi_endproc
 1657              	.LFE18:
 1659              		.section	.text.cJSON_strdup,"ax",%progbits
 1660              		.align	1
 1661              		.syntax unified
 1662              		.thumb
 1663              		.thumb_func
 1665              	cJSON_strdup:
 1666              	.LVL148:
 1667              	.LFB9:
 189:SynaptiX_FDK/services/cJSON/cJSON.c ****     size_t length = 0;
 1668              		.loc 1 189 1 is_stmt 1 view -0
 1669              		.cfi_startproc
 1670              		@ args = 0, pretend = 0, frame = 0
 1671              		@ frame_needed = 0, uses_anonymous_args = 0
 189:SynaptiX_FDK/services/cJSON/cJSON.c ****     size_t length = 0;
 1672              		.loc 1 189 1 is_stmt 0 view .LVU523
 1673 0000 70B5     		push	{r4, r5, r6, lr}
 1674              	.LCFI16:
 1675              		.cfi_def_cfa_offset 16
ARM GAS  C:\Users\DELL\AppData\Local\Temp\ccXjhdgA.s 			page 84


 1676              		.cfi_offset 4, -16
 1677              		.cfi_offset 5, -12
 1678              		.cfi_offset 6, -8
 1679              		.cfi_offset 14, -4
 190:SynaptiX_FDK/services/cJSON/cJSON.c ****     unsigned char *copy = NULL;
 1680              		.loc 1 190 5 is_stmt 1 view .LVU524
 1681              	.LVL149:
 191:SynaptiX_FDK/services/cJSON/cJSON.c **** 
 1682              		.loc 1 191 5 view .LVU525
 193:SynaptiX_FDK/services/cJSON/cJSON.c ****     {
 1683              		.loc 1 193 5 view .LVU526
 193:SynaptiX_FDK/services/cJSON/cJSON.c ****     {
 1684              		.loc 1 193 8 is_stmt 0 view .LVU527
 1685 0002 0646     		mov	r6, r0
 1686 0004 70B1     		cbz	r0, .L148
 1687 0006 0D46     		mov	r5, r1
 198:SynaptiX_FDK/services/cJSON/cJSON.c ****     copy = (unsigned char*)hooks->allocate(length);
 1688              		.loc 1 198 5 is_stmt 1 view .LVU528
 198:SynaptiX_FDK/services/cJSON/cJSON.c ****     copy = (unsigned char*)hooks->allocate(length);
 1689              		.loc 1 198 14 is_stmt 0 view .LVU529
 1690 0008 FFF7FEFF 		bl	strlen
 1691              	.LVL150:
 198:SynaptiX_FDK/services/cJSON/cJSON.c ****     copy = (unsigned char*)hooks->allocate(length);
 1692              		.loc 1 198 12 discriminator 1 view .LVU530
 1693 000c 441C     		adds	r4, r0, #1
 1694              	.LVL151:
 199:SynaptiX_FDK/services/cJSON/cJSON.c ****     if (copy == NULL)
 1695              		.loc 1 199 5 is_stmt 1 view .LVU531
 199:SynaptiX_FDK/services/cJSON/cJSON.c ****     if (copy == NULL)
 1696              		.loc 1 199 33 is_stmt 0 view .LVU532
 1697 000e 2B68     		ldr	r3, [r5]
 199:SynaptiX_FDK/services/cJSON/cJSON.c ****     if (copy == NULL)
 1698              		.loc 1 199 28 view .LVU533
 1699 0010 2046     		mov	r0, r4
 1700 0012 9847     		blx	r3
 1701              	.LVL152:
 200:SynaptiX_FDK/services/cJSON/cJSON.c ****     {
 1702              		.loc 1 200 5 is_stmt 1 view .LVU534
 200:SynaptiX_FDK/services/cJSON/cJSON.c ****     {
 1703              		.loc 1 200 8 is_stmt 0 view .LVU535
 1704 0014 0546     		mov	r5, r0
 1705              	.LVL153:
 200:SynaptiX_FDK/services/cJSON/cJSON.c ****     {
 1706              		.loc 1 200 8 view .LVU536
 1707 0016 18B1     		cbz	r0, .L146
 204:SynaptiX_FDK/services/cJSON/cJSON.c **** 
 1708              		.loc 1 204 5 is_stmt 1 view .LVU537
 1709 0018 2246     		mov	r2, r4
 1710 001a 3146     		mov	r1, r6
 1711 001c FFF7FEFF 		bl	memcpy
 1712              	.LVL154:
 206:SynaptiX_FDK/services/cJSON/cJSON.c **** }
 1713              		.loc 1 206 5 view .LVU538
 1714              	.L146:
 207:SynaptiX_FDK/services/cJSON/cJSON.c **** 
 1715              		.loc 1 207 1 is_stmt 0 view .LVU539
 1716 0020 2846     		mov	r0, r5
ARM GAS  C:\Users\DELL\AppData\Local\Temp\ccXjhdgA.s 			page 85


 1717 0022 70BD     		pop	{r4, r5, r6, pc}
 1718              	.LVL155:
 1719              	.L148:
 195:SynaptiX_FDK/services/cJSON/cJSON.c ****     }
 1720              		.loc 1 195 16 view .LVU540
 1721 0024 0546     		mov	r5, r0
 1722 0026 FBE7     		b	.L146
 1723              		.cfi_endproc
 1724              	.LFE9:
 1726              		.section	.text.add_item_to_object,"ax",%progbits
 1727              		.align	1
 1728              		.syntax unified
 1729              		.thumb
 1730              		.thumb_func
 1732              	add_item_to_object:
 1733              	.LVL156:
 1734              	.LFB55:
2041:SynaptiX_FDK/services/cJSON/cJSON.c ****     char *new_key = NULL;
 1735              		.loc 1 2041 1 is_stmt 1 view -0
 1736              		.cfi_startproc
 1737              		@ args = 4, pretend = 0, frame = 0
 1738              		@ frame_needed = 0, uses_anonymous_args = 0
2042:SynaptiX_FDK/services/cJSON/cJSON.c ****     int new_type = cJSON_Invalid;
 1739              		.loc 1 2042 5 view .LVU542
2043:SynaptiX_FDK/services/cJSON/cJSON.c **** 
 1740              		.loc 1 2043 5 view .LVU543
2045:SynaptiX_FDK/services/cJSON/cJSON.c ****     {
 1741              		.loc 1 2045 5 view .LVU544
2045:SynaptiX_FDK/services/cJSON/cJSON.c ****     {
 1742              		.loc 1 2045 8 is_stmt 0 view .LVU545
 1743 0000 68B3     		cbz	r0, .L155
2041:SynaptiX_FDK/services/cJSON/cJSON.c ****     char *new_key = NULL;
 1744              		.loc 1 2041 1 view .LVU546
 1745 0002 2DE9F041 		push	{r4, r5, r6, r7, r8, lr}
 1746              	.LCFI17:
 1747              		.cfi_def_cfa_offset 24
 1748              		.cfi_offset 4, -24
 1749              		.cfi_offset 5, -20
 1750              		.cfi_offset 6, -16
 1751              		.cfi_offset 7, -12
 1752              		.cfi_offset 8, -8
 1753              		.cfi_offset 14, -4
 1754 0006 0D46     		mov	r5, r1
 1755 0008 1446     		mov	r4, r2
 1756 000a 1E46     		mov	r6, r3
 1757 000c 0746     		mov	r7, r0
2045:SynaptiX_FDK/services/cJSON/cJSON.c ****     {
 1758              		.loc 1 2045 26 discriminator 1 view .LVU547
 1759 000e 41B3     		cbz	r1, .L156
2045:SynaptiX_FDK/services/cJSON/cJSON.c ****     {
 1760              		.loc 1 2045 46 discriminator 2 view .LVU548
 1761 0010 4AB3     		cbz	r2, .L157
2045:SynaptiX_FDK/services/cJSON/cJSON.c ****     {
 1762              		.loc 1 2045 64 discriminator 3 view .LVU549
 1763 0012 9042     		cmp	r0, r2
 1764 0014 29D0     		beq	.L158
2050:SynaptiX_FDK/services/cJSON/cJSON.c ****     {
ARM GAS  C:\Users\DELL\AppData\Local\Temp\ccXjhdgA.s 			page 86


 1765              		.loc 1 2050 5 is_stmt 1 view .LVU550
2050:SynaptiX_FDK/services/cJSON/cJSON.c ****     {
 1766              		.loc 1 2050 8 is_stmt 0 view .LVU551
 1767 0016 069B     		ldr	r3, [sp, #24]
 1768              	.LVL157:
2050:SynaptiX_FDK/services/cJSON/cJSON.c ****     {
 1769              		.loc 1 2050 8 view .LVU552
 1770 0018 BBB1     		cbz	r3, .L152
2052:SynaptiX_FDK/services/cJSON/cJSON.c ****         new_type = item->type | cJSON_StringIsConst;
 1771              		.loc 1 2052 9 is_stmt 1 view .LVU553
2052:SynaptiX_FDK/services/cJSON/cJSON.c ****         new_type = item->type | cJSON_StringIsConst;
 1772              		.loc 1 2052 26 is_stmt 0 view .LVU554
 1773 001a 0846     		mov	r0, r1
 1774              	.LVL158:
2052:SynaptiX_FDK/services/cJSON/cJSON.c ****         new_type = item->type | cJSON_StringIsConst;
 1775              		.loc 1 2052 26 view .LVU555
 1776 001c FFF7FEFF 		bl	cast_away_const
 1777              	.LVL159:
2052:SynaptiX_FDK/services/cJSON/cJSON.c ****         new_type = item->type | cJSON_StringIsConst;
 1778              		.loc 1 2052 26 view .LVU556
 1779 0020 8046     		mov	r8, r0
 1780              	.LVL160:
2053:SynaptiX_FDK/services/cJSON/cJSON.c ****     }
 1781              		.loc 1 2053 9 is_stmt 1 view .LVU557
2053:SynaptiX_FDK/services/cJSON/cJSON.c ****     }
 1782              		.loc 1 2053 24 is_stmt 0 view .LVU558
 1783 0022 E568     		ldr	r5, [r4, #12]
 1784              	.LVL161:
2053:SynaptiX_FDK/services/cJSON/cJSON.c ****     }
 1785              		.loc 1 2053 18 view .LVU559
 1786 0024 45F40075 		orr	r5, r5, #512
 1787              	.LVL162:
 1788              	.L153:
2066:SynaptiX_FDK/services/cJSON/cJSON.c ****     {
 1789              		.loc 1 2066 5 is_stmt 1 view .LVU560
2066:SynaptiX_FDK/services/cJSON/cJSON.c ****     {
 1790              		.loc 1 2066 15 is_stmt 0 view .LVU561
 1791 0028 E368     		ldr	r3, [r4, #12]
2066:SynaptiX_FDK/services/cJSON/cJSON.c ****     {
 1792              		.loc 1 2066 8 view .LVU562
 1793 002a 13F4007F 		tst	r3, #512
 1794 002e 03D1     		bne	.L154
2066:SynaptiX_FDK/services/cJSON/cJSON.c ****     {
 1795              		.loc 1 2066 53 discriminator 1 view .LVU563
 1796 0030 206A     		ldr	r0, [r4, #32]
 1797              	.LVL163:
2066:SynaptiX_FDK/services/cJSON/cJSON.c ****     {
 1798              		.loc 1 2066 45 discriminator 1 view .LVU564
 1799 0032 08B1     		cbz	r0, .L154
2068:SynaptiX_FDK/services/cJSON/cJSON.c ****     }
 1800              		.loc 1 2068 9 is_stmt 1 view .LVU565
2068:SynaptiX_FDK/services/cJSON/cJSON.c ****     }
 1801              		.loc 1 2068 14 is_stmt 0 view .LVU566
 1802 0034 7368     		ldr	r3, [r6, #4]
2068:SynaptiX_FDK/services/cJSON/cJSON.c ****     }
 1803              		.loc 1 2068 9 view .LVU567
 1804 0036 9847     		blx	r3
ARM GAS  C:\Users\DELL\AppData\Local\Temp\ccXjhdgA.s 			page 87


 1805              	.LVL164:
 1806              	.L154:
2071:SynaptiX_FDK/services/cJSON/cJSON.c ****     item->type = new_type;
 1807              		.loc 1 2071 5 is_stmt 1 view .LVU568
2071:SynaptiX_FDK/services/cJSON/cJSON.c ****     item->type = new_type;
 1808              		.loc 1 2071 18 is_stmt 0 view .LVU569
 1809 0038 C4F82080 		str	r8, [r4, #32]
2072:SynaptiX_FDK/services/cJSON/cJSON.c **** 
 1810              		.loc 1 2072 5 is_stmt 1 view .LVU570
2072:SynaptiX_FDK/services/cJSON/cJSON.c **** 
 1811              		.loc 1 2072 16 is_stmt 0 view .LVU571
 1812 003c E560     		str	r5, [r4, #12]
2074:SynaptiX_FDK/services/cJSON/cJSON.c **** }
 1813              		.loc 1 2074 5 is_stmt 1 view .LVU572
2074:SynaptiX_FDK/services/cJSON/cJSON.c **** }
 1814              		.loc 1 2074 12 is_stmt 0 view .LVU573
 1815 003e 2146     		mov	r1, r4
 1816 0040 3846     		mov	r0, r7
 1817 0042 FFF7FEFF 		bl	add_item_to_array
 1818              	.LVL165:
 1819              	.L150:
2075:SynaptiX_FDK/services/cJSON/cJSON.c **** 
 1820              		.loc 1 2075 1 view .LVU574
 1821 0046 BDE8F081 		pop	{r4, r5, r6, r7, r8, pc}
 1822              	.LVL166:
 1823              	.L152:
2057:SynaptiX_FDK/services/cJSON/cJSON.c ****         if (new_key == NULL)
 1824              		.loc 1 2057 9 is_stmt 1 view .LVU575
2057:SynaptiX_FDK/services/cJSON/cJSON.c ****         if (new_key == NULL)
 1825              		.loc 1 2057 26 is_stmt 0 view .LVU576
 1826 004a 3146     		mov	r1, r6
 1827              	.LVL167:
2057:SynaptiX_FDK/services/cJSON/cJSON.c ****         if (new_key == NULL)
 1828              		.loc 1 2057 26 view .LVU577
 1829 004c 2846     		mov	r0, r5
 1830              	.LVL168:
2057:SynaptiX_FDK/services/cJSON/cJSON.c ****         if (new_key == NULL)
 1831              		.loc 1 2057 26 view .LVU578
 1832 004e FFF7FEFF 		bl	cJSON_strdup
 1833              	.LVL169:
2058:SynaptiX_FDK/services/cJSON/cJSON.c ****         {
 1834              		.loc 1 2058 9 is_stmt 1 view .LVU579
2058:SynaptiX_FDK/services/cJSON/cJSON.c ****         {
 1835              		.loc 1 2058 12 is_stmt 0 view .LVU580
 1836 0052 8046     		mov	r8, r0
 1837 0054 58B1     		cbz	r0, .L159
2063:SynaptiX_FDK/services/cJSON/cJSON.c ****     }
 1838              		.loc 1 2063 9 is_stmt 1 view .LVU581
2063:SynaptiX_FDK/services/cJSON/cJSON.c ****     }
 1839              		.loc 1 2063 24 is_stmt 0 view .LVU582
 1840 0056 E568     		ldr	r5, [r4, #12]
 1841              	.LVL170:
2063:SynaptiX_FDK/services/cJSON/cJSON.c ****     }
 1842              		.loc 1 2063 18 view .LVU583
 1843 0058 25F40075 		bic	r5, r5, #512
 1844 005c E4E7     		b	.L153
 1845              	.LVL171:
ARM GAS  C:\Users\DELL\AppData\Local\Temp\ccXjhdgA.s 			page 88


 1846              	.L155:
 1847              	.LCFI18:
 1848              		.cfi_def_cfa_offset 0
 1849              		.cfi_restore 4
 1850              		.cfi_restore 5
 1851              		.cfi_restore 6
 1852              		.cfi_restore 7
 1853              		.cfi_restore 8
 1854              		.cfi_restore 14
2047:SynaptiX_FDK/services/cJSON/cJSON.c ****     }
 1855              		.loc 1 2047 16 view .LVU584
 1856 005e 0020     		movs	r0, #0
 1857              	.LVL172:
2075:SynaptiX_FDK/services/cJSON/cJSON.c **** 
 1858              		.loc 1 2075 1 view .LVU585
 1859 0060 7047     		bx	lr
 1860              	.LVL173:
 1861              	.L156:
 1862              	.LCFI19:
 1863              		.cfi_def_cfa_offset 24
 1864              		.cfi_offset 4, -24
 1865              		.cfi_offset 5, -20
 1866              		.cfi_offset 6, -16
 1867              		.cfi_offset 7, -12
 1868              		.cfi_offset 8, -8
 1869              		.cfi_offset 14, -4
2047:SynaptiX_FDK/services/cJSON/cJSON.c ****     }
 1870              		.loc 1 2047 16 view .LVU586
 1871 0062 0020     		movs	r0, #0
 1872              	.LVL174:
2047:SynaptiX_FDK/services/cJSON/cJSON.c ****     }
 1873              		.loc 1 2047 16 view .LVU587
 1874 0064 EFE7     		b	.L150
 1875              	.LVL175:
 1876              	.L157:
2047:SynaptiX_FDK/services/cJSON/cJSON.c ****     }
 1877              		.loc 1 2047 16 view .LVU588
 1878 0066 0020     		movs	r0, #0
 1879              	.LVL176:
2047:SynaptiX_FDK/services/cJSON/cJSON.c ****     }
 1880              		.loc 1 2047 16 view .LVU589
 1881 0068 EDE7     		b	.L150
 1882              	.LVL177:
 1883              	.L158:
2047:SynaptiX_FDK/services/cJSON/cJSON.c ****     }
 1884              		.loc 1 2047 16 view .LVU590
 1885 006a 0020     		movs	r0, #0
 1886              	.LVL178:
2047:SynaptiX_FDK/services/cJSON/cJSON.c ****     }
 1887              		.loc 1 2047 16 view .LVU591
 1888 006c EBE7     		b	.L150
 1889              	.LVL179:
 1890              	.L159:
2060:SynaptiX_FDK/services/cJSON/cJSON.c ****         }
 1891              		.loc 1 2060 20 view .LVU592
 1892 006e 0698     		ldr	r0, [sp, #24]
 1893              	.LVL180:
ARM GAS  C:\Users\DELL\AppData\Local\Temp\ccXjhdgA.s 			page 89


2060:SynaptiX_FDK/services/cJSON/cJSON.c ****         }
 1894              		.loc 1 2060 20 view .LVU593
 1895 0070 E9E7     		b	.L150
 1896              		.cfi_endproc
 1897              	.LFE55:
 1899              		.section	.text.ensure,"ax",%progbits
 1900              		.align	1
 1901              		.syntax unified
 1902              		.thumb
 1903              		.thumb_func
 1905              	ensure:
 1906              	.LVL181:
 1907              	.LFB17:
 459:SynaptiX_FDK/services/cJSON/cJSON.c ****     unsigned char *newbuffer = NULL;
 1908              		.loc 1 459 1 is_stmt 1 view -0
 1909              		.cfi_startproc
 1910              		@ args = 0, pretend = 0, frame = 0
 1911              		@ frame_needed = 0, uses_anonymous_args = 0
 459:SynaptiX_FDK/services/cJSON/cJSON.c ****     unsigned char *newbuffer = NULL;
 1912              		.loc 1 459 1 is_stmt 0 view .LVU595
 1913 0000 70B5     		push	{r4, r5, r6, lr}
 1914              	.LCFI20:
 1915              		.cfi_def_cfa_offset 16
 1916              		.cfi_offset 4, -16
 1917              		.cfi_offset 5, -12
 1918              		.cfi_offset 6, -8
 1919              		.cfi_offset 14, -4
 460:SynaptiX_FDK/services/cJSON/cJSON.c ****     size_t newsize = 0;
 1920              		.loc 1 460 5 is_stmt 1 view .LVU596
 1921              	.LVL182:
 461:SynaptiX_FDK/services/cJSON/cJSON.c **** 
 1922              		.loc 1 461 5 view .LVU597
 463:SynaptiX_FDK/services/cJSON/cJSON.c ****     {
 1923              		.loc 1 463 5 view .LVU598
 463:SynaptiX_FDK/services/cJSON/cJSON.c ****     {
 1924              		.loc 1 463 8 is_stmt 0 view .LVU599
 1925 0002 0546     		mov	r5, r0
 1926 0004 0028     		cmp	r0, #0
 1927 0006 46D0     		beq	.L173
 463:SynaptiX_FDK/services/cJSON/cJSON.c ****     {
 1928              		.loc 1 463 26 discriminator 1 view .LVU600
 1929 0008 0668     		ldr	r6, [r0]
 463:SynaptiX_FDK/services/cJSON/cJSON.c ****     {
 1930              		.loc 1 463 21 discriminator 1 view .LVU601
 1931 000a 36B3     		cbz	r6, .L164
 468:SynaptiX_FDK/services/cJSON/cJSON.c ****     {
 1932              		.loc 1 468 5 is_stmt 1 view .LVU602
 468:SynaptiX_FDK/services/cJSON/cJSON.c ****     {
 1933              		.loc 1 468 11 is_stmt 0 view .LVU603
 1934 000c 4368     		ldr	r3, [r0, #4]
 468:SynaptiX_FDK/services/cJSON/cJSON.c ****     {
 1935              		.loc 1 468 8 view .LVU604
 1936 000e 13B1     		cbz	r3, .L166
 468:SynaptiX_FDK/services/cJSON/cJSON.c ****     {
 1937              		.loc 1 468 30 discriminator 1 view .LVU605
 1938 0010 8268     		ldr	r2, [r0, #8]
 468:SynaptiX_FDK/services/cJSON/cJSON.c ****     {
ARM GAS  C:\Users\DELL\AppData\Local\Temp\ccXjhdgA.s 			page 90


 1939              		.loc 1 468 25 discriminator 1 view .LVU606
 1940 0012 9342     		cmp	r3, r2
 1941 0014 41D9     		bls	.L174
 1942              	.L166:
 474:SynaptiX_FDK/services/cJSON/cJSON.c ****     {
 1943              		.loc 1 474 5 is_stmt 1 view .LVU607
 474:SynaptiX_FDK/services/cJSON/cJSON.c ****     {
 1944              		.loc 1 474 8 is_stmt 0 view .LVU608
 1945 0016 0029     		cmp	r1, #0
 1946 0018 41DB     		blt	.L175
 480:SynaptiX_FDK/services/cJSON/cJSON.c ****     if (needed <= p->length)
 1947              		.loc 1 480 5 is_stmt 1 view .LVU609
 480:SynaptiX_FDK/services/cJSON/cJSON.c ****     if (needed <= p->length)
 1948              		.loc 1 480 16 is_stmt 0 view .LVU610
 1949 001a AA68     		ldr	r2, [r5, #8]
 480:SynaptiX_FDK/services/cJSON/cJSON.c ****     if (needed <= p->length)
 1950              		.loc 1 480 12 view .LVU611
 1951 001c 1144     		add	r1, r1, r2
 1952              	.LVL183:
 480:SynaptiX_FDK/services/cJSON/cJSON.c ****     if (needed <= p->length)
 1953              		.loc 1 480 12 view .LVU612
 1954 001e 0131     		adds	r1, r1, #1
 1955              	.LVL184:
 481:SynaptiX_FDK/services/cJSON/cJSON.c ****     {
 1956              		.loc 1 481 5 is_stmt 1 view .LVU613
 481:SynaptiX_FDK/services/cJSON/cJSON.c ****     {
 1957              		.loc 1 481 8 is_stmt 0 view .LVU614
 1958 0020 8B42     		cmp	r3, r1
 1959 0022 0AD2     		bcs	.L179
 486:SynaptiX_FDK/services/cJSON/cJSON.c ****         return NULL;
 1960              		.loc 1 486 5 is_stmt 1 view .LVU615
 486:SynaptiX_FDK/services/cJSON/cJSON.c ****         return NULL;
 1961              		.loc 1 486 10 is_stmt 0 view .LVU616
 1962 0024 2B69     		ldr	r3, [r5, #16]
 486:SynaptiX_FDK/services/cJSON/cJSON.c ****         return NULL;
 1963              		.loc 1 486 8 view .LVU617
 1964 0026 002B     		cmp	r3, #0
 1965 0028 3BD1     		bne	.L176
 491:SynaptiX_FDK/services/cJSON/cJSON.c ****     {
 1966              		.loc 1 491 5 is_stmt 1 view .LVU618
 491:SynaptiX_FDK/services/cJSON/cJSON.c ****     {
 1967              		.loc 1 491 8 is_stmt 0 view .LVU619
 1968 002a B1F1804F 		cmp	r1, #1073741824
 1969 002e 08D3     		bcc	.L168
 494:SynaptiX_FDK/services/cJSON/cJSON.c ****         {
 1970              		.loc 1 494 9 is_stmt 1 view .LVU620
 494:SynaptiX_FDK/services/cJSON/cJSON.c ****         {
 1971              		.loc 1 494 12 is_stmt 0 view .LVU621
 1972 0030 0029     		cmp	r1, #0
 1973 0032 04DB     		blt	.L180
 496:SynaptiX_FDK/services/cJSON/cJSON.c ****         }
 1974              		.loc 1 496 21 view .LVU622
 1975 0034 6FF00044 		mvn	r4, #-2147483648
 1976 0038 04E0     		b	.L169
 1977              	.L179:
 483:SynaptiX_FDK/services/cJSON/cJSON.c ****     }
 1978              		.loc 1 483 9 is_stmt 1 view .LVU623
ARM GAS  C:\Users\DELL\AppData\Local\Temp\ccXjhdgA.s 			page 91


 483:SynaptiX_FDK/services/cJSON/cJSON.c ****     }
 1979              		.loc 1 483 26 is_stmt 0 view .LVU624
 1980 003a 1644     		add	r6, r6, r2
 1981 003c 0DE0     		b	.L164
 1982              	.L180:
 500:SynaptiX_FDK/services/cJSON/cJSON.c ****         }
 1983              		.loc 1 500 20 view .LVU625
 1984 003e 0026     		movs	r6, #0
 1985 0040 0BE0     		b	.L164
 1986              	.L168:
 505:SynaptiX_FDK/services/cJSON/cJSON.c ****     }
 1987              		.loc 1 505 9 is_stmt 1 view .LVU626
 505:SynaptiX_FDK/services/cJSON/cJSON.c ****     }
 1988              		.loc 1 505 17 is_stmt 0 view .LVU627
 1989 0042 4C00     		lsls	r4, r1, #1
 1990              	.LVL185:
 1991              	.L169:
 508:SynaptiX_FDK/services/cJSON/cJSON.c ****     {
 1992              		.loc 1 508 5 is_stmt 1 view .LVU628
 508:SynaptiX_FDK/services/cJSON/cJSON.c ****     {
 1993              		.loc 1 508 17 is_stmt 0 view .LVU629
 1994 0044 2B6A     		ldr	r3, [r5, #32]
 508:SynaptiX_FDK/services/cJSON/cJSON.c ****     {
 1995              		.loc 1 508 8 view .LVU630
 1996 0046 8BB1     		cbz	r3, .L170
 511:SynaptiX_FDK/services/cJSON/cJSON.c ****         if (newbuffer == NULL)
 1997              		.loc 1 511 9 is_stmt 1 view .LVU631
 511:SynaptiX_FDK/services/cJSON/cJSON.c ****         if (newbuffer == NULL)
 1998              		.loc 1 511 37 is_stmt 0 view .LVU632
 1999 0048 2146     		mov	r1, r4
 2000              	.LVL186:
 511:SynaptiX_FDK/services/cJSON/cJSON.c ****         if (newbuffer == NULL)
 2001              		.loc 1 511 37 view .LVU633
 2002 004a 3046     		mov	r0, r6
 2003              	.LVL187:
 511:SynaptiX_FDK/services/cJSON/cJSON.c ****         if (newbuffer == NULL)
 2004              		.loc 1 511 37 view .LVU634
 2005 004c 9847     		blx	r3
 2006              	.LVL188:
 512:SynaptiX_FDK/services/cJSON/cJSON.c ****         {
 2007              		.loc 1 512 9 is_stmt 1 view .LVU635
 512:SynaptiX_FDK/services/cJSON/cJSON.c ****         {
 2008              		.loc 1 512 12 is_stmt 0 view .LVU636
 2009 004e 0646     		mov	r6, r0
 2010 0050 28B1     		cbz	r0, .L181
 2011              	.LVL189:
 2012              	.L171:
 537:SynaptiX_FDK/services/cJSON/cJSON.c ****     p->buffer = newbuffer;
 2013              		.loc 1 537 5 is_stmt 1 view .LVU637
 537:SynaptiX_FDK/services/cJSON/cJSON.c ****     p->buffer = newbuffer;
 2014              		.loc 1 537 15 is_stmt 0 view .LVU638
 2015 0052 6C60     		str	r4, [r5, #4]
 538:SynaptiX_FDK/services/cJSON/cJSON.c **** 
 2016              		.loc 1 538 5 is_stmt 1 view .LVU639
 538:SynaptiX_FDK/services/cJSON/cJSON.c **** 
 2017              		.loc 1 538 15 is_stmt 0 view .LVU640
 2018 0054 2E60     		str	r6, [r5]
ARM GAS  C:\Users\DELL\AppData\Local\Temp\ccXjhdgA.s 			page 92


 540:SynaptiX_FDK/services/cJSON/cJSON.c **** }
 2019              		.loc 1 540 5 is_stmt 1 view .LVU641
 540:SynaptiX_FDK/services/cJSON/cJSON.c **** }
 2020              		.loc 1 540 25 is_stmt 0 view .LVU642
 2021 0056 AB68     		ldr	r3, [r5, #8]
 540:SynaptiX_FDK/services/cJSON/cJSON.c **** }
 2022              		.loc 1 540 22 view .LVU643
 2023 0058 1E44     		add	r6, r6, r3
 2024              	.LVL190:
 2025              	.L164:
 541:SynaptiX_FDK/services/cJSON/cJSON.c **** 
 2026              		.loc 1 541 1 view .LVU644
 2027 005a 3046     		mov	r0, r6
 2028 005c 70BD     		pop	{r4, r5, r6, pc}
 2029              	.LVL191:
 2030              	.L181:
 514:SynaptiX_FDK/services/cJSON/cJSON.c ****             p->length = 0;
 2031              		.loc 1 514 13 is_stmt 1 view .LVU645
 514:SynaptiX_FDK/services/cJSON/cJSON.c ****             p->length = 0;
 2032              		.loc 1 514 21 is_stmt 0 view .LVU646
 2033 005e EB69     		ldr	r3, [r5, #28]
 514:SynaptiX_FDK/services/cJSON/cJSON.c ****             p->length = 0;
 2034              		.loc 1 514 13 view .LVU647
 2035 0060 2868     		ldr	r0, [r5]
 2036              	.LVL192:
 514:SynaptiX_FDK/services/cJSON/cJSON.c ****             p->length = 0;
 2037              		.loc 1 514 13 view .LVU648
 2038 0062 9847     		blx	r3
 2039              	.LVL193:
 515:SynaptiX_FDK/services/cJSON/cJSON.c ****             p->buffer = NULL;
 2040              		.loc 1 515 13 is_stmt 1 view .LVU649
 515:SynaptiX_FDK/services/cJSON/cJSON.c ****             p->buffer = NULL;
 2041              		.loc 1 515 23 is_stmt 0 view .LVU650
 2042 0064 0023     		movs	r3, #0
 2043 0066 6B60     		str	r3, [r5, #4]
 516:SynaptiX_FDK/services/cJSON/cJSON.c **** 
 2044              		.loc 1 516 13 is_stmt 1 view .LVU651
 516:SynaptiX_FDK/services/cJSON/cJSON.c **** 
 2045              		.loc 1 516 23 is_stmt 0 view .LVU652
 2046 0068 2B60     		str	r3, [r5]
 518:SynaptiX_FDK/services/cJSON/cJSON.c ****         }
 2047              		.loc 1 518 13 is_stmt 1 view .LVU653
 518:SynaptiX_FDK/services/cJSON/cJSON.c ****         }
 2048              		.loc 1 518 20 is_stmt 0 view .LVU654
 2049 006a F6E7     		b	.L164
 2050              	.LVL194:
 2051              	.L170:
 524:SynaptiX_FDK/services/cJSON/cJSON.c ****         if (!newbuffer)
 2052              		.loc 1 524 9 is_stmt 1 view .LVU655
 524:SynaptiX_FDK/services/cJSON/cJSON.c ****         if (!newbuffer)
 2053              		.loc 1 524 45 is_stmt 0 view .LVU656
 2054 006c AB69     		ldr	r3, [r5, #24]
 524:SynaptiX_FDK/services/cJSON/cJSON.c ****         if (!newbuffer)
 2055              		.loc 1 524 37 view .LVU657
 2056 006e 2046     		mov	r0, r4
 2057              	.LVL195:
 524:SynaptiX_FDK/services/cJSON/cJSON.c ****         if (!newbuffer)
ARM GAS  C:\Users\DELL\AppData\Local\Temp\ccXjhdgA.s 			page 93


 2058              		.loc 1 524 37 view .LVU658
 2059 0070 9847     		blx	r3
 2060              	.LVL196:
 525:SynaptiX_FDK/services/cJSON/cJSON.c ****         {
 2061              		.loc 1 525 9 is_stmt 1 view .LVU659
 525:SynaptiX_FDK/services/cJSON/cJSON.c ****         {
 2062              		.loc 1 525 12 is_stmt 0 view .LVU660
 2063 0072 0646     		mov	r6, r0
 2064 0074 40B1     		cbz	r0, .L182
 534:SynaptiX_FDK/services/cJSON/cJSON.c ****         p->hooks.deallocate(p->buffer);
 2065              		.loc 1 534 9 is_stmt 1 view .LVU661
 534:SynaptiX_FDK/services/cJSON/cJSON.c ****         p->hooks.deallocate(p->buffer);
 2066              		.loc 1 534 39 is_stmt 0 view .LVU662
 2067 0076 AA68     		ldr	r2, [r5, #8]
 534:SynaptiX_FDK/services/cJSON/cJSON.c ****         p->hooks.deallocate(p->buffer);
 2068              		.loc 1 534 9 view .LVU663
 2069 0078 0132     		adds	r2, r2, #1
 2070 007a 2968     		ldr	r1, [r5]
 2071 007c FFF7FEFF 		bl	memcpy
 2072              	.LVL197:
 535:SynaptiX_FDK/services/cJSON/cJSON.c ****     }
 2073              		.loc 1 535 9 is_stmt 1 view .LVU664
 535:SynaptiX_FDK/services/cJSON/cJSON.c ****     }
 2074              		.loc 1 535 17 is_stmt 0 view .LVU665
 2075 0080 EB69     		ldr	r3, [r5, #28]
 535:SynaptiX_FDK/services/cJSON/cJSON.c ****     }
 2076              		.loc 1 535 9 view .LVU666
 2077 0082 2868     		ldr	r0, [r5]
 2078 0084 9847     		blx	r3
 2079              	.LVL198:
 2080 0086 E4E7     		b	.L171
 2081              	.LVL199:
 2082              	.L182:
 527:SynaptiX_FDK/services/cJSON/cJSON.c ****             p->length = 0;
 2083              		.loc 1 527 13 is_stmt 1 view .LVU667
 527:SynaptiX_FDK/services/cJSON/cJSON.c ****             p->length = 0;
 2084              		.loc 1 527 21 is_stmt 0 view .LVU668
 2085 0088 EB69     		ldr	r3, [r5, #28]
 527:SynaptiX_FDK/services/cJSON/cJSON.c ****             p->length = 0;
 2086              		.loc 1 527 13 view .LVU669
 2087 008a 2868     		ldr	r0, [r5]
 2088              	.LVL200:
 527:SynaptiX_FDK/services/cJSON/cJSON.c ****             p->length = 0;
 2089              		.loc 1 527 13 view .LVU670
 2090 008c 9847     		blx	r3
 2091              	.LVL201:
 528:SynaptiX_FDK/services/cJSON/cJSON.c ****             p->buffer = NULL;
 2092              		.loc 1 528 13 is_stmt 1 view .LVU671
 528:SynaptiX_FDK/services/cJSON/cJSON.c ****             p->buffer = NULL;
 2093              		.loc 1 528 23 is_stmt 0 view .LVU672
 2094 008e 0023     		movs	r3, #0
 2095 0090 6B60     		str	r3, [r5, #4]
 529:SynaptiX_FDK/services/cJSON/cJSON.c **** 
 2096              		.loc 1 529 13 is_stmt 1 view .LVU673
 529:SynaptiX_FDK/services/cJSON/cJSON.c **** 
 2097              		.loc 1 529 23 is_stmt 0 view .LVU674
 2098 0092 2B60     		str	r3, [r5]
ARM GAS  C:\Users\DELL\AppData\Local\Temp\ccXjhdgA.s 			page 94


 531:SynaptiX_FDK/services/cJSON/cJSON.c ****         }
 2099              		.loc 1 531 13 is_stmt 1 view .LVU675
 531:SynaptiX_FDK/services/cJSON/cJSON.c ****         }
 2100              		.loc 1 531 20 is_stmt 0 view .LVU676
 2101 0094 E1E7     		b	.L164
 2102              	.LVL202:
 2103              	.L173:
 465:SynaptiX_FDK/services/cJSON/cJSON.c ****     }
 2104              		.loc 1 465 16 view .LVU677
 2105 0096 0646     		mov	r6, r0
 2106 0098 DFE7     		b	.L164
 2107              	.L174:
 471:SynaptiX_FDK/services/cJSON/cJSON.c ****     }
 2108              		.loc 1 471 16 view .LVU678
 2109 009a 0026     		movs	r6, #0
 2110 009c DDE7     		b	.L164
 2111              	.L175:
 477:SynaptiX_FDK/services/cJSON/cJSON.c ****     }
 2112              		.loc 1 477 16 view .LVU679
 2113 009e 0026     		movs	r6, #0
 2114 00a0 DBE7     		b	.L164
 2115              	.L176:
 487:SynaptiX_FDK/services/cJSON/cJSON.c ****     }
 2116              		.loc 1 487 16 view .LVU680
 2117 00a2 0026     		movs	r6, #0
 2118 00a4 D9E7     		b	.L164
 2119              		.cfi_endproc
 2120              	.LFE17:
 2122              		.section	.text.cJSON_New_Item,"ax",%progbits
 2123              		.align	1
 2124              		.syntax unified
 2125              		.thumb
 2126              		.thumb_func
 2128              	cJSON_New_Item:
 2129              	.LVL203:
 2130              	.LFB11:
 242:SynaptiX_FDK/services/cJSON/cJSON.c ****     cJSON* node = (cJSON*)hooks->allocate(sizeof(cJSON));
 2131              		.loc 1 242 1 is_stmt 1 view -0
 2132              		.cfi_startproc
 2133              		@ args = 0, pretend = 0, frame = 0
 2134              		@ frame_needed = 0, uses_anonymous_args = 0
 242:SynaptiX_FDK/services/cJSON/cJSON.c ****     cJSON* node = (cJSON*)hooks->allocate(sizeof(cJSON));
 2135              		.loc 1 242 1 is_stmt 0 view .LVU682
 2136 0000 10B5     		push	{r4, lr}
 2137              	.LCFI21:
 2138              		.cfi_def_cfa_offset 8
 2139              		.cfi_offset 4, -8
 2140              		.cfi_offset 14, -4
 243:SynaptiX_FDK/services/cJSON/cJSON.c ****     if (node)
 2141              		.loc 1 243 5 is_stmt 1 view .LVU683
 243:SynaptiX_FDK/services/cJSON/cJSON.c ****     if (node)
 2142              		.loc 1 243 32 is_stmt 0 view .LVU684
 2143 0002 0368     		ldr	r3, [r0]
 243:SynaptiX_FDK/services/cJSON/cJSON.c ****     if (node)
 2144              		.loc 1 243 27 view .LVU685
 2145 0004 2820     		movs	r0, #40
 2146              	.LVL204:
ARM GAS  C:\Users\DELL\AppData\Local\Temp\ccXjhdgA.s 			page 95


 243:SynaptiX_FDK/services/cJSON/cJSON.c ****     if (node)
 2147              		.loc 1 243 27 view .LVU686
 2148 0006 9847     		blx	r3
 2149              	.LVL205:
 244:SynaptiX_FDK/services/cJSON/cJSON.c ****     {
 2150              		.loc 1 244 5 is_stmt 1 view .LVU687
 244:SynaptiX_FDK/services/cJSON/cJSON.c ****     {
 2151              		.loc 1 244 8 is_stmt 0 view .LVU688
 2152 0008 0446     		mov	r4, r0
 2153 000a 18B1     		cbz	r0, .L183
 246:SynaptiX_FDK/services/cJSON/cJSON.c ****     }
 2154              		.loc 1 246 9 is_stmt 1 view .LVU689
 2155 000c 2822     		movs	r2, #40
 2156 000e 0021     		movs	r1, #0
 2157 0010 FFF7FEFF 		bl	memset
 2158              	.LVL206:
 249:SynaptiX_FDK/services/cJSON/cJSON.c **** }
 2159              		.loc 1 249 5 view .LVU690
 2160              	.L183:
 250:SynaptiX_FDK/services/cJSON/cJSON.c **** 
 2161              		.loc 1 250 1 is_stmt 0 view .LVU691
 2162 0014 2046     		mov	r0, r4
 2163 0016 10BD     		pop	{r4, pc}
 250:SynaptiX_FDK/services/cJSON/cJSON.c **** 
 2164              		.loc 1 250 1 view .LVU692
 2165              		.cfi_endproc
 2166              	.LFE11:
 2168              		.section	.text.create_reference,"ax",%progbits
 2169              		.align	1
 2170              		.syntax unified
 2171              		.thumb
 2172              		.thumb_func
 2174              	create_reference:
 2175              	.LVL207:
 2176              	.LFB51:
1965:SynaptiX_FDK/services/cJSON/cJSON.c ****     cJSON *reference = NULL;
 2177              		.loc 1 1965 1 is_stmt 1 view -0
 2178              		.cfi_startproc
 2179              		@ args = 0, pretend = 0, frame = 0
 2180              		@ frame_needed = 0, uses_anonymous_args = 0
1965:SynaptiX_FDK/services/cJSON/cJSON.c ****     cJSON *reference = NULL;
 2181              		.loc 1 1965 1 is_stmt 0 view .LVU694
 2182 0000 38B5     		push	{r3, r4, r5, lr}
 2183              	.LCFI22:
 2184              		.cfi_def_cfa_offset 16
 2185              		.cfi_offset 3, -16
 2186              		.cfi_offset 4, -12
 2187              		.cfi_offset 5, -8
 2188              		.cfi_offset 14, -4
1966:SynaptiX_FDK/services/cJSON/cJSON.c ****     if (item == NULL)
 2189              		.loc 1 1966 5 is_stmt 1 view .LVU695
 2190              	.LVL208:
1967:SynaptiX_FDK/services/cJSON/cJSON.c ****     {
 2191              		.loc 1 1967 5 view .LVU696
1967:SynaptiX_FDK/services/cJSON/cJSON.c ****     {
 2192              		.loc 1 1967 8 is_stmt 0 view .LVU697
 2193 0002 0446     		mov	r4, r0
ARM GAS  C:\Users\DELL\AppData\Local\Temp\ccXjhdgA.s 			page 96


 2194 0004 10B3     		cbz	r0, .L186
1972:SynaptiX_FDK/services/cJSON/cJSON.c ****     if (reference == NULL)
 2195              		.loc 1 1972 5 is_stmt 1 view .LVU698
1972:SynaptiX_FDK/services/cJSON/cJSON.c ****     if (reference == NULL)
 2196              		.loc 1 1972 17 is_stmt 0 view .LVU699
 2197 0006 0846     		mov	r0, r1
 2198              	.LVL209:
1972:SynaptiX_FDK/services/cJSON/cJSON.c ****     if (reference == NULL)
 2199              		.loc 1 1972 17 view .LVU700
 2200 0008 FFF7FEFF 		bl	cJSON_New_Item
 2201              	.LVL210:
1973:SynaptiX_FDK/services/cJSON/cJSON.c ****     {
 2202              		.loc 1 1973 5 is_stmt 1 view .LVU701
1973:SynaptiX_FDK/services/cJSON/cJSON.c ****     {
 2203              		.loc 1 1973 8 is_stmt 0 view .LVU702
 2204 000c F0B1     		cbz	r0, .L186
1978:SynaptiX_FDK/services/cJSON/cJSON.c ****     reference->string = NULL;
 2205              		.loc 1 1978 5 is_stmt 1 view .LVU703
 2206 000e 2346     		mov	r3, r4
 2207 0010 0246     		mov	r2, r0
 2208 0012 2034     		adds	r4, r4, #32
 2209              	.LVL211:
 2210              	.L188:
1978:SynaptiX_FDK/services/cJSON/cJSON.c ****     reference->string = NULL;
 2211              		.loc 1 1978 5 is_stmt 0 view .LVU704
 2212 0014 1D68     		ldr	r5, [r3]	@ unaligned
 2213 0016 D3F804E0 		ldr	lr, [r3, #4]	@ unaligned
 2214 001a D3F808C0 		ldr	ip, [r3, #8]	@ unaligned
 2215 001e D968     		ldr	r1, [r3, #12]	@ unaligned
 2216 0020 1560     		str	r5, [r2]	@ unaligned
 2217 0022 C2F804E0 		str	lr, [r2, #4]	@ unaligned
 2218 0026 C2F808C0 		str	ip, [r2, #8]	@ unaligned
 2219 002a D160     		str	r1, [r2, #12]	@ unaligned
 2220 002c 1033     		adds	r3, r3, #16
 2221 002e 1032     		adds	r2, r2, #16
 2222 0030 A342     		cmp	r3, r4
 2223 0032 EFD1     		bne	.L188
 2224 0034 1968     		ldr	r1, [r3]	@ unaligned
 2225 0036 5B68     		ldr	r3, [r3, #4]	@ unaligned
 2226 0038 1160     		str	r1, [r2]	@ unaligned
 2227 003a 5360     		str	r3, [r2, #4]	@ unaligned
1979:SynaptiX_FDK/services/cJSON/cJSON.c ****     reference->type |= cJSON_IsReference;
 2228              		.loc 1 1979 5 is_stmt 1 view .LVU705
1979:SynaptiX_FDK/services/cJSON/cJSON.c ****     reference->type |= cJSON_IsReference;
 2229              		.loc 1 1979 23 is_stmt 0 view .LVU706
 2230 003c 0023     		movs	r3, #0
 2231 003e 0362     		str	r3, [r0, #32]
1980:SynaptiX_FDK/services/cJSON/cJSON.c ****     reference->next = reference->prev = NULL;
 2232              		.loc 1 1980 5 is_stmt 1 view .LVU707
1980:SynaptiX_FDK/services/cJSON/cJSON.c ****     reference->next = reference->prev = NULL;
 2233              		.loc 1 1980 14 is_stmt 0 view .LVU708
 2234 0040 C268     		ldr	r2, [r0, #12]
1980:SynaptiX_FDK/services/cJSON/cJSON.c ****     reference->next = reference->prev = NULL;
 2235              		.loc 1 1980 21 view .LVU709
 2236 0042 42F48072 		orr	r2, r2, #256
 2237 0046 C260     		str	r2, [r0, #12]
1981:SynaptiX_FDK/services/cJSON/cJSON.c ****     return reference;
ARM GAS  C:\Users\DELL\AppData\Local\Temp\ccXjhdgA.s 			page 97


 2238              		.loc 1 1981 5 is_stmt 1 view .LVU710
1981:SynaptiX_FDK/services/cJSON/cJSON.c ****     return reference;
 2239              		.loc 1 1981 39 is_stmt 0 view .LVU711
 2240 0048 4360     		str	r3, [r0, #4]
1981:SynaptiX_FDK/services/cJSON/cJSON.c ****     return reference;
 2241              		.loc 1 1981 21 view .LVU712
 2242 004a 0360     		str	r3, [r0]
1982:SynaptiX_FDK/services/cJSON/cJSON.c **** }
 2243              		.loc 1 1982 5 is_stmt 1 view .LVU713
 2244              	.LVL212:
 2245              	.L186:
1983:SynaptiX_FDK/services/cJSON/cJSON.c **** 
 2246              		.loc 1 1983 1 is_stmt 0 view .LVU714
 2247 004c 38BD     		pop	{r3, r4, r5, pc}
 2248              		.cfi_endproc
 2249              	.LFE51:
 2251              		.section	.rodata.skip_utf8_bom.str1.4,"aMS",%progbits,1
 2252              		.align	2
 2253              	.LC0:
 2254 0000 EFBBBF00 		.ascii	"\357\273\277\000"
 2255              		.section	.text.skip_utf8_bom,"ax",%progbits
 2256              		.align	1
 2257              		.syntax unified
 2258              		.thumb
 2259              		.thumb_func
 2261              	skip_utf8_bom:
 2262              	.LVL213:
 2263              	.LFB27:
1085:SynaptiX_FDK/services/cJSON/cJSON.c ****     if ((buffer == NULL) || (buffer->content == NULL) || (buffer->offset != 0))
 2264              		.loc 1 1085 1 is_stmt 1 view -0
 2265              		.cfi_startproc
 2266              		@ args = 0, pretend = 0, frame = 0
 2267              		@ frame_needed = 0, uses_anonymous_args = 0
1085:SynaptiX_FDK/services/cJSON/cJSON.c ****     if ((buffer == NULL) || (buffer->content == NULL) || (buffer->offset != 0))
 2268              		.loc 1 1085 1 is_stmt 0 view .LVU716
 2269 0000 38B5     		push	{r3, r4, r5, lr}
 2270              	.LCFI23:
 2271              		.cfi_def_cfa_offset 16
 2272              		.cfi_offset 3, -16
 2273              		.cfi_offset 4, -12
 2274              		.cfi_offset 5, -8
 2275              		.cfi_offset 14, -4
1086:SynaptiX_FDK/services/cJSON/cJSON.c ****     {
 2276              		.loc 1 1086 5 is_stmt 1 view .LVU717
1086:SynaptiX_FDK/services/cJSON/cJSON.c ****     {
 2277              		.loc 1 1086 8 is_stmt 0 view .LVU718
 2278 0002 0446     		mov	r4, r0
 2279 0004 78B1     		cbz	r0, .L192
1086:SynaptiX_FDK/services/cJSON/cJSON.c ****     {
 2280              		.loc 1 1086 36 discriminator 1 view .LVU719
 2281 0006 0068     		ldr	r0, [r0]
 2282              	.LVL214:
1086:SynaptiX_FDK/services/cJSON/cJSON.c ****     {
 2283              		.loc 1 1086 26 discriminator 1 view .LVU720
 2284 0008 78B1     		cbz	r0, .L193
1086:SynaptiX_FDK/services/cJSON/cJSON.c ****     {
 2285              		.loc 1 1086 65 discriminator 2 view .LVU721
ARM GAS  C:\Users\DELL\AppData\Local\Temp\ccXjhdgA.s 			page 98


 2286 000a A568     		ldr	r5, [r4, #8]
1086:SynaptiX_FDK/services/cJSON/cJSON.c ****     {
 2287              		.loc 1 1086 55 discriminator 2 view .LVU722
 2288 000c 7DB9     		cbnz	r5, .L194
1091:SynaptiX_FDK/services/cJSON/cJSON.c ****     {
 2289              		.loc 1 1091 5 is_stmt 1 view .LVU723
1091:SynaptiX_FDK/services/cJSON/cJSON.c ****     {
 2290              		.loc 1 1091 9 is_stmt 0 discriminator 1 view .LVU724
 2291 000e 2B1D     		adds	r3, r5, #4
 2292 0010 6268     		ldr	r2, [r4, #4]
 2293 0012 9342     		cmp	r3, r2
 2294 0014 07D2     		bcs	.L192
1091:SynaptiX_FDK/services/cJSON/cJSON.c ****     {
 2295              		.loc 1 1091 44 discriminator 2 view .LVU725
 2296 0016 0322     		movs	r2, #3
 2297 0018 0649     		ldr	r1, .L196
 2298 001a 2844     		add	r0, r0, r5
 2299 001c FFF7FEFF 		bl	strncmp
 2300              	.LVL215:
1091:SynaptiX_FDK/services/cJSON/cJSON.c ****     {
 2301              		.loc 1 1091 40 discriminator 1 view .LVU726
 2302 0020 08B9     		cbnz	r0, .L192
1093:SynaptiX_FDK/services/cJSON/cJSON.c ****     }
 2303              		.loc 1 1093 9 is_stmt 1 view .LVU727
1093:SynaptiX_FDK/services/cJSON/cJSON.c ****     }
 2304              		.loc 1 1093 24 is_stmt 0 view .LVU728
 2305 0022 0335     		adds	r5, r5, #3
 2306 0024 A560     		str	r5, [r4, #8]
 2307              	.LVL216:
 2308              	.L192:
1097:SynaptiX_FDK/services/cJSON/cJSON.c **** 
 2309              		.loc 1 1097 1 view .LVU729
 2310 0026 2046     		mov	r0, r4
 2311 0028 38BD     		pop	{r3, r4, r5, pc}
 2312              	.LVL217:
 2313              	.L193:
1088:SynaptiX_FDK/services/cJSON/cJSON.c ****     }
 2314              		.loc 1 1088 16 view .LVU730
 2315 002a 0446     		mov	r4, r0
 2316              	.LVL218:
1088:SynaptiX_FDK/services/cJSON/cJSON.c ****     }
 2317              		.loc 1 1088 16 view .LVU731
 2318 002c FBE7     		b	.L192
 2319              	.LVL219:
 2320              	.L194:
1088:SynaptiX_FDK/services/cJSON/cJSON.c ****     }
 2321              		.loc 1 1088 16 view .LVU732
 2322 002e 0024     		movs	r4, #0
 2323              	.LVL220:
1088:SynaptiX_FDK/services/cJSON/cJSON.c ****     }
 2324              		.loc 1 1088 16 view .LVU733
 2325 0030 F9E7     		b	.L192
 2326              	.L197:
 2327 0032 00BF     		.align	2
 2328              	.L196:
 2329 0034 00000000 		.word	.LC0
 2330              		.cfi_endproc
ARM GAS  C:\Users\DELL\AppData\Local\Temp\ccXjhdgA.s 			page 99


 2331              	.LFE27:
 2333              		.section	.text.parse_number,"ax",%progbits
 2334              		.align	1
 2335              		.syntax unified
 2336              		.thumb
 2337              		.thumb_func
 2339              	parse_number:
 2340              	.LVL221:
 2341              	.LFB14:
 308:SynaptiX_FDK/services/cJSON/cJSON.c ****     double number = 0;
 2342              		.loc 1 308 1 is_stmt 1 view -0
 2343              		.cfi_startproc
 2344              		@ args = 0, pretend = 0, frame = 72
 2345              		@ frame_needed = 0, uses_anonymous_args = 0
 308:SynaptiX_FDK/services/cJSON/cJSON.c ****     double number = 0;
 2346              		.loc 1 308 1 is_stmt 0 view .LVU735
 2347 0000 2DE9F043 		push	{r4, r5, r6, r7, r8, r9, lr}
 2348              	.LCFI24:
 2349              		.cfi_def_cfa_offset 28
 2350              		.cfi_offset 4, -28
 2351              		.cfi_offset 5, -24
 2352              		.cfi_offset 6, -20
 2353              		.cfi_offset 7, -16
 2354              		.cfi_offset 8, -12
 2355              		.cfi_offset 9, -8
 2356              		.cfi_offset 14, -4
 2357 0004 93B0     		sub	sp, sp, #76
 2358              	.LCFI25:
 2359              		.cfi_def_cfa_offset 104
 2360 0006 0546     		mov	r5, r0
 2361 0008 0C46     		mov	r4, r1
 309:SynaptiX_FDK/services/cJSON/cJSON.c ****     unsigned char *after_end = NULL;
 2362              		.loc 1 309 5 is_stmt 1 view .LVU736
 2363              	.LVL222:
 310:SynaptiX_FDK/services/cJSON/cJSON.c ****     unsigned char number_c_string[64];
 2364              		.loc 1 310 5 view .LVU737
 310:SynaptiX_FDK/services/cJSON/cJSON.c ****     unsigned char number_c_string[64];
 2365              		.loc 1 310 20 is_stmt 0 view .LVU738
 2366 000a 0023     		movs	r3, #0
 2367 000c 1193     		str	r3, [sp, #68]
 311:SynaptiX_FDK/services/cJSON/cJSON.c ****     unsigned char decimal_point = get_decimal_point();
 2368              		.loc 1 311 5 is_stmt 1 view .LVU739
 312:SynaptiX_FDK/services/cJSON/cJSON.c ****     size_t i = 0;
 2369              		.loc 1 312 5 view .LVU740
 312:SynaptiX_FDK/services/cJSON/cJSON.c ****     size_t i = 0;
 2370              		.loc 1 312 35 is_stmt 0 view .LVU741
 2371 000e FFF7FEFF 		bl	get_decimal_point
 2372              	.LVL223:
 313:SynaptiX_FDK/services/cJSON/cJSON.c **** 
 2373              		.loc 1 313 5 is_stmt 1 view .LVU742
 315:SynaptiX_FDK/services/cJSON/cJSON.c ****     {
 2374              		.loc 1 315 5 view .LVU743
 315:SynaptiX_FDK/services/cJSON/cJSON.c ****     {
 2375              		.loc 1 315 8 is_stmt 0 view .LVU744
 2376 0012 002C     		cmp	r4, #0
 2377 0014 67D0     		beq	.L212
 315:SynaptiX_FDK/services/cJSON/cJSON.c ****     {
ARM GAS  C:\Users\DELL\AppData\Local\Temp\ccXjhdgA.s 			page 100


 2378              		.loc 1 315 48 discriminator 1 view .LVU745
 2379 0016 2368     		ldr	r3, [r4]
 315:SynaptiX_FDK/services/cJSON/cJSON.c ****     {
 2380              		.loc 1 315 32 discriminator 1 view .LVU746
 2381 0018 002B     		cmp	r3, #0
 2382 001a 66D0     		beq	.L213
 323:SynaptiX_FDK/services/cJSON/cJSON.c ****     {
 2383              		.loc 1 323 12 view .LVU747
 2384 001c 0023     		movs	r3, #0
 2385 001e 32E0     		b	.L200
 2386              	.LVL224:
 2387              	.L201:
 325:SynaptiX_FDK/services/cJSON/cJSON.c ****         {
 2388              		.loc 1 325 9 view .LVU748
 2389 0020 652A     		cmp	r2, #101
 2390 0022 2AD0     		beq	.L203
 2391              	.L202:
 353:SynaptiX_FDK/services/cJSON/cJSON.c **** 
 2392              		.loc 1 353 5 is_stmt 1 view .LVU749
 353:SynaptiX_FDK/services/cJSON/cJSON.c **** 
 2393              		.loc 1 353 24 is_stmt 0 view .LVU750
 2394 0024 4833     		adds	r3, r3, #72
 2395              	.LVL225:
 353:SynaptiX_FDK/services/cJSON/cJSON.c **** 
 2396              		.loc 1 353 24 view .LVU751
 2397 0026 6B44     		add	r3, sp, r3
 2398              	.LVL226:
 353:SynaptiX_FDK/services/cJSON/cJSON.c **** 
 2399              		.loc 1 353 24 view .LVU752
 2400 0028 0022     		movs	r2, #0
 2401 002a 03F8442C 		strb	r2, [r3, #-68]
 355:SynaptiX_FDK/services/cJSON/cJSON.c ****     if (number_c_string == after_end)
 2402              		.loc 1 355 5 is_stmt 1 view .LVU753
 355:SynaptiX_FDK/services/cJSON/cJSON.c ****     if (number_c_string == after_end)
 2403              		.loc 1 355 14 is_stmt 0 view .LVU754
 2404 002e 0DF10409 		add	r9, sp, #4
 2405 0032 11A9     		add	r1, sp, #68
 2406 0034 4846     		mov	r0, r9
 2407              	.LVL227:
 355:SynaptiX_FDK/services/cJSON/cJSON.c ****     if (number_c_string == after_end)
 2408              		.loc 1 355 14 view .LVU755
 2409 0036 FFF7FEFF 		bl	strtod
 2410              	.LVL228:
 2411 003a 57EC106B 		vmov	r6, r7, d0
 2412              	.LVL229:
 356:SynaptiX_FDK/services/cJSON/cJSON.c ****     {
 2413              		.loc 1 356 5 is_stmt 1 view .LVU756
 356:SynaptiX_FDK/services/cJSON/cJSON.c ****     {
 2414              		.loc 1 356 25 is_stmt 0 view .LVU757
 2415 003e DDF84480 		ldr	r8, [sp, #68]
 356:SynaptiX_FDK/services/cJSON/cJSON.c ****     {
 2416              		.loc 1 356 8 view .LVU758
 2417 0042 C845     		cmp	r8, r9
 2418 0044 53D0     		beq	.L214
 361:SynaptiX_FDK/services/cJSON/cJSON.c **** 
 2419              		.loc 1 361 5 is_stmt 1 view .LVU759
 361:SynaptiX_FDK/services/cJSON/cJSON.c **** 
ARM GAS  C:\Users\DELL\AppData\Local\Temp\ccXjhdgA.s 			page 101


 2420              		.loc 1 361 23 is_stmt 0 view .LVU760
 2421 0046 85ED060B 		vstr.64	d0, [r5, #24]
 364:SynaptiX_FDK/services/cJSON/cJSON.c ****     {
 2422              		.loc 1 364 5 is_stmt 1 view .LVU761
 364:SynaptiX_FDK/services/cJSON/cJSON.c ****     {
 2423              		.loc 1 364 8 is_stmt 0 view .LVU762
 2424 004a 2DA3     		adr	r3, .L220+8
 2425 004c D3E90023 		ldrd	r2, [r3]
 2426 0050 3046     		mov	r0, r6
 2427 0052 3946     		mov	r1, r7
 2428 0054 FFF7FEFF 		bl	__aeabi_dcmpge
 2429              	.LVL230:
 2430 0058 0028     		cmp	r0, #0
 2431 005a 33D0     		beq	.L217
 366:SynaptiX_FDK/services/cJSON/cJSON.c ****     }
 2432              		.loc 1 366 9 is_stmt 1 view .LVU763
 366:SynaptiX_FDK/services/cJSON/cJSON.c ****     }
 2433              		.loc 1 366 24 is_stmt 0 view .LVU764
 2434 005c 6FF00043 		mvn	r3, #-2147483648
 2435 0060 6B61     		str	r3, [r5, #20]
 2436              	.L209:
 377:SynaptiX_FDK/services/cJSON/cJSON.c **** 
 2437              		.loc 1 377 5 is_stmt 1 view .LVU765
 377:SynaptiX_FDK/services/cJSON/cJSON.c **** 
 2438              		.loc 1 377 16 is_stmt 0 view .LVU766
 2439 0062 0823     		movs	r3, #8
 2440 0064 EB60     		str	r3, [r5, #12]
 379:SynaptiX_FDK/services/cJSON/cJSON.c ****     return true;
 2441              		.loc 1 379 5 is_stmt 1 view .LVU767
 379:SynaptiX_FDK/services/cJSON/cJSON.c ****     return true;
 2442              		.loc 1 379 17 is_stmt 0 view .LVU768
 2443 0066 A368     		ldr	r3, [r4, #8]
 379:SynaptiX_FDK/services/cJSON/cJSON.c ****     return true;
 2444              		.loc 1 379 48 view .LVU769
 2445 0068 01AA     		add	r2, sp, #4
 2446 006a A8EB0208 		sub	r8, r8, r2
 379:SynaptiX_FDK/services/cJSON/cJSON.c ****     return true;
 2447              		.loc 1 379 26 view .LVU770
 2448 006e 4344     		add	r3, r3, r8
 2449 0070 A360     		str	r3, [r4, #8]
 380:SynaptiX_FDK/services/cJSON/cJSON.c **** }
 2450              		.loc 1 380 5 is_stmt 1 view .LVU771
 380:SynaptiX_FDK/services/cJSON/cJSON.c **** }
 2451              		.loc 1 380 12 is_stmt 0 view .LVU772
 2452 0072 0120     		movs	r0, #1
 2453              	.LVL231:
 2454              	.L198:
 381:SynaptiX_FDK/services/cJSON/cJSON.c **** 
 2455              		.loc 1 381 1 view .LVU773
 2456 0074 13B0     		add	sp, sp, #76
 2457              	.LCFI26:
 2458              		.cfi_remember_state
 2459              		.cfi_def_cfa_offset 28
 2460              		@ sp needed
 2461 0076 BDE8F083 		pop	{r4, r5, r6, r7, r8, r9, pc}
 2462              	.LVL232:
 2463              	.L203:
ARM GAS  C:\Users\DELL\AppData\Local\Temp\ccXjhdgA.s 			page 102


 2464              	.LCFI27:
 2465              		.cfi_restore_state
 341:SynaptiX_FDK/services/cJSON/cJSON.c ****                 break;
 2466              		.loc 1 341 17 is_stmt 1 view .LVU774
 341:SynaptiX_FDK/services/cJSON/cJSON.c ****                 break;
 2467              		.loc 1 341 36 is_stmt 0 view .LVU775
 2468 007a 03F14801 		add	r1, r3, #72
 2469 007e 6944     		add	r1, sp, r1
 2470 0080 01F8442C 		strb	r2, [r1, #-68]
 342:SynaptiX_FDK/services/cJSON/cJSON.c **** 
 2471              		.loc 1 342 17 is_stmt 1 view .LVU776
 2472              	.L205:
 323:SynaptiX_FDK/services/cJSON/cJSON.c ****     {
 2473              		.loc 1 323 95 discriminator 2 view .LVU777
 2474 0084 0133     		adds	r3, r3, #1
 2475              	.LVL233:
 2476              	.L200:
 323:SynaptiX_FDK/services/cJSON/cJSON.c ****     {
 2477              		.loc 1 323 53 discriminator 1 view .LVU778
 2478 0086 3E2B     		cmp	r3, #62
 2479 0088 CCD8     		bhi	.L202
 323:SynaptiX_FDK/services/cJSON/cJSON.c ****     {
 2480              		.loc 1 323 56 is_stmt 0 discriminator 4 view .LVU779
 2481 008a A268     		ldr	r2, [r4, #8]
 2482 008c 1A44     		add	r2, r2, r3
 2483 008e 6168     		ldr	r1, [r4, #4]
 2484 0090 8A42     		cmp	r2, r1
 2485 0092 C7D2     		bcs	.L202
 325:SynaptiX_FDK/services/cJSON/cJSON.c ****         {
 2486              		.loc 1 325 9 is_stmt 1 view .LVU780
 325:SynaptiX_FDK/services/cJSON/cJSON.c ****         {
 2487              		.loc 1 325 17 is_stmt 0 view .LVU781
 2488 0094 2168     		ldr	r1, [r4]
 325:SynaptiX_FDK/services/cJSON/cJSON.c ****         {
 2489              		.loc 1 325 47 view .LVU782
 2490 0096 8A5C     		ldrb	r2, [r1, r2]	@ zero_extendqisi2
 325:SynaptiX_FDK/services/cJSON/cJSON.c ****         {
 2491              		.loc 1 325 9 view .LVU783
 2492 0098 452A     		cmp	r2, #69
 2493 009a C1D8     		bhi	.L201
 2494 009c 2B2A     		cmp	r2, #43
 2495 009e C1D3     		bcc	.L202
 2496 00a0 A2F12B06 		sub	r6, r2, #43
 2497 00a4 F6B2     		uxtb	r6, r6
 2498 00a6 0121     		movs	r1, #1
 2499 00a8 B140     		lsls	r1, r1, r6
 2500 00aa 134E     		ldr	r6, .L220
 2501 00ac 0E40     		ands	r6, r6, r1
 2502 00ae 002E     		cmp	r6, #0
 2503 00b0 E3D1     		bne	.L203
 2504 00b2 11F0080F 		tst	r1, #8
 2505 00b6 B5D0     		beq	.L202
 345:SynaptiX_FDK/services/cJSON/cJSON.c ****                 break;
 2506              		.loc 1 345 17 is_stmt 1 view .LVU784
 345:SynaptiX_FDK/services/cJSON/cJSON.c ****                 break;
 2507              		.loc 1 345 36 is_stmt 0 view .LVU785
 2508 00b8 03F14802 		add	r2, r3, #72
ARM GAS  C:\Users\DELL\AppData\Local\Temp\ccXjhdgA.s 			page 103


 2509 00bc 6A44     		add	r2, sp, r2
 2510 00be 02F8440C 		strb	r0, [r2, #-68]
 346:SynaptiX_FDK/services/cJSON/cJSON.c **** 
 2511              		.loc 1 346 17 is_stmt 1 view .LVU786
 2512 00c2 DFE7     		b	.L205
 2513              	.LVL234:
 2514              	.L217:
 368:SynaptiX_FDK/services/cJSON/cJSON.c ****     {
 2515              		.loc 1 368 10 view .LVU787
 368:SynaptiX_FDK/services/cJSON/cJSON.c ****     {
 2516              		.loc 1 368 13 is_stmt 0 view .LVU788
 2517 00c4 0022     		movs	r2, #0
 2518 00c6 0D4B     		ldr	r3, .L220+4
 2519 00c8 3046     		mov	r0, r6
 2520 00ca 3946     		mov	r1, r7
 2521 00cc FFF7FEFF 		bl	__aeabi_dcmple
 2522              	.LVL235:
 2523 00d0 18B1     		cbz	r0, .L218
 370:SynaptiX_FDK/services/cJSON/cJSON.c ****     }
 2524              		.loc 1 370 9 is_stmt 1 view .LVU789
 370:SynaptiX_FDK/services/cJSON/cJSON.c ****     }
 2525              		.loc 1 370 24 is_stmt 0 view .LVU790
 2526 00d2 4FF00043 		mov	r3, #-2147483648
 2527 00d6 6B61     		str	r3, [r5, #20]
 2528 00d8 C3E7     		b	.L209
 2529              	.L218:
 374:SynaptiX_FDK/services/cJSON/cJSON.c ****     }
 2530              		.loc 1 374 9 is_stmt 1 view .LVU791
 374:SynaptiX_FDK/services/cJSON/cJSON.c ****     }
 2531              		.loc 1 374 26 is_stmt 0 view .LVU792
 2532 00da 3046     		mov	r0, r6
 2533 00dc 3946     		mov	r1, r7
 2534 00de FFF7FEFF 		bl	__aeabi_d2iz
 2535              	.LVL236:
 374:SynaptiX_FDK/services/cJSON/cJSON.c ****     }
 2536              		.loc 1 374 24 view .LVU793
 2537 00e2 6861     		str	r0, [r5, #20]
 2538 00e4 BDE7     		b	.L209
 2539              	.LVL237:
 2540              	.L212:
 317:SynaptiX_FDK/services/cJSON/cJSON.c ****     }
 2541              		.loc 1 317 16 view .LVU794
 2542 00e6 0020     		movs	r0, #0
 2543              	.LVL238:
 317:SynaptiX_FDK/services/cJSON/cJSON.c ****     }
 2544              		.loc 1 317 16 view .LVU795
 2545 00e8 C4E7     		b	.L198
 2546              	.LVL239:
 2547              	.L213:
 317:SynaptiX_FDK/services/cJSON/cJSON.c ****     }
 2548              		.loc 1 317 16 view .LVU796
 2549 00ea 0020     		movs	r0, #0
 2550              	.LVL240:
 317:SynaptiX_FDK/services/cJSON/cJSON.c ****     }
 2551              		.loc 1 317 16 view .LVU797
 2552 00ec C2E7     		b	.L198
 2553              	.LVL241:
ARM GAS  C:\Users\DELL\AppData\Local\Temp\ccXjhdgA.s 			page 104


 2554              	.L214:
 358:SynaptiX_FDK/services/cJSON/cJSON.c ****     }
 2555              		.loc 1 358 16 view .LVU798
 2556 00ee 0020     		movs	r0, #0
 2557 00f0 C0E7     		b	.L198
 2558              	.L221:
 2559 00f2 00BFAFF3 		.align	3
 2559      0080
 2560              	.L220:
 2561 00f8 E57F0004 		.word	67141605
 2562 00fc 0000E0C1 		.word	-1042284544
 2563 0100 0000C0FF 		.word	-4194304
 2564 0104 FFFFDF41 		.word	1105199103
 2565              		.cfi_endproc
 2566              	.LFE14:
 2568              		.section	.rodata.print_string_ptr.str1.4,"aMS",%progbits,1
 2569              		.align	2
 2570              	.LC1:
 2571 0000 222200   		.ascii	"\"\"\000"
 2572 0003 00       		.align	2
 2573              	.LC2:
 2574 0004 75253034 		.ascii	"u%04x\000"
 2574      7800
 2575              		.section	.text.print_string_ptr,"ax",%progbits
 2576              		.align	1
 2577              		.syntax unified
 2578              		.thumb
 2579              		.thumb_func
 2581              	print_string_ptr:
 2582              	.LVL242:
 2583              	.LFB24:
 923:SynaptiX_FDK/services/cJSON/cJSON.c ****     const unsigned char *input_pointer = NULL;
 2584              		.loc 1 923 1 is_stmt 1 view -0
 2585              		.cfi_startproc
 2586              		@ args = 0, pretend = 0, frame = 0
 2587              		@ frame_needed = 0, uses_anonymous_args = 0
 924:SynaptiX_FDK/services/cJSON/cJSON.c ****     unsigned char *output = NULL;
 2588              		.loc 1 924 5 view .LVU800
 925:SynaptiX_FDK/services/cJSON/cJSON.c ****     unsigned char *output_pointer = NULL;
 2589              		.loc 1 925 5 view .LVU801
 926:SynaptiX_FDK/services/cJSON/cJSON.c ****     size_t output_length = 0;
 2590              		.loc 1 926 5 view .LVU802
 927:SynaptiX_FDK/services/cJSON/cJSON.c ****     /* numbers of additional characters needed for escaping */
 2591              		.loc 1 927 5 view .LVU803
 929:SynaptiX_FDK/services/cJSON/cJSON.c **** 
 2592              		.loc 1 929 5 view .LVU804
 931:SynaptiX_FDK/services/cJSON/cJSON.c ****     {
 2593              		.loc 1 931 5 view .LVU805
 931:SynaptiX_FDK/services/cJSON/cJSON.c ****     {
 2594              		.loc 1 931 8 is_stmt 0 view .LVU806
 2595 0000 0029     		cmp	r1, #0
 2596 0002 00F09480 		beq	.L244
 923:SynaptiX_FDK/services/cJSON/cJSON.c ****     const unsigned char *input_pointer = NULL;
 2597              		.loc 1 923 1 view .LVU807
 2598 0006 F8B5     		push	{r3, r4, r5, r6, r7, lr}
 2599              	.LCFI28:
 2600              		.cfi_def_cfa_offset 24
ARM GAS  C:\Users\DELL\AppData\Local\Temp\ccXjhdgA.s 			page 105


 2601              		.cfi_offset 3, -24
 2602              		.cfi_offset 4, -20
 2603              		.cfi_offset 5, -16
 2604              		.cfi_offset 6, -12
 2605              		.cfi_offset 7, -8
 2606              		.cfi_offset 14, -4
 2607 0008 0546     		mov	r5, r0
 2608 000a 0846     		mov	r0, r1
 2609              	.LVL243:
 937:SynaptiX_FDK/services/cJSON/cJSON.c ****     {
 2610              		.loc 1 937 5 is_stmt 1 view .LVU808
 937:SynaptiX_FDK/services/cJSON/cJSON.c ****     {
 2611              		.loc 1 937 8 is_stmt 0 view .LVU809
 2612 000c 15B1     		cbz	r5, .L253
 950:SynaptiX_FDK/services/cJSON/cJSON.c ****     {
 2613              		.loc 1 950 24 view .LVU810
 2614 000e 2A46     		mov	r2, r5
 929:SynaptiX_FDK/services/cJSON/cJSON.c **** 
 2615              		.loc 1 929 12 view .LVU811
 2616 0010 0026     		movs	r6, #0
 2617 0012 14E0     		b	.L224
 2618              	.L253:
 939:SynaptiX_FDK/services/cJSON/cJSON.c ****         if (output == NULL)
 2619              		.loc 1 939 9 is_stmt 1 view .LVU812
 939:SynaptiX_FDK/services/cJSON/cJSON.c ****         if (output == NULL)
 2620              		.loc 1 939 18 is_stmt 0 view .LVU813
 2621 0014 0321     		movs	r1, #3
 2622              	.LVL244:
 939:SynaptiX_FDK/services/cJSON/cJSON.c ****         if (output == NULL)
 2623              		.loc 1 939 18 view .LVU814
 2624 0016 FFF7FEFF 		bl	ensure
 2625              	.LVL245:
 940:SynaptiX_FDK/services/cJSON/cJSON.c ****         {
 2626              		.loc 1 940 9 is_stmt 1 view .LVU815
 940:SynaptiX_FDK/services/cJSON/cJSON.c ****         {
 2627              		.loc 1 940 12 is_stmt 0 view .LVU816
 2628 001a 0028     		cmp	r0, #0
 2629 001c 00F08980 		beq	.L246
 944:SynaptiX_FDK/services/cJSON/cJSON.c **** 
 2630              		.loc 1 944 9 is_stmt 1 view .LVU817
 2631 0020 464A     		ldr	r2, .L257
 2632 0022 1188     		ldrh	r1, [r2]	@ unaligned
 2633 0024 9278     		ldrb	r2, [r2, #2]	@ zero_extendqisi2
 2634 0026 0180     		strh	r1, [r0]	@ unaligned
 2635 0028 8270     		strb	r2, [r0, #2]
 946:SynaptiX_FDK/services/cJSON/cJSON.c ****     }
 2636              		.loc 1 946 9 view .LVU818
 946:SynaptiX_FDK/services/cJSON/cJSON.c ****     }
 2637              		.loc 1 946 16 is_stmt 0 view .LVU819
 2638 002a 0120     		movs	r0, #1
 2639              	.LVL246:
 946:SynaptiX_FDK/services/cJSON/cJSON.c ****     }
 2640              		.loc 1 946 16 view .LVU820
 2641 002c 7EE0     		b	.L222
 2642              	.LVL247:
 2643              	.L225:
 952:SynaptiX_FDK/services/cJSON/cJSON.c ****         {
ARM GAS  C:\Users\DELL\AppData\Local\Temp\ccXjhdgA.s 			page 106


 2644              		.loc 1 952 9 view .LVU821
 2645 002e 5C2B     		cmp	r3, #92
 2646 0030 03D0     		beq	.L227
 2647              	.L226:
 965:SynaptiX_FDK/services/cJSON/cJSON.c ****                 {
 2648              		.loc 1 965 17 is_stmt 1 view .LVU822
 965:SynaptiX_FDK/services/cJSON/cJSON.c ****                 {
 2649              		.loc 1 965 20 is_stmt 0 view .LVU823
 2650 0032 1F2B     		cmp	r3, #31
 2651 0034 02D8     		bhi	.L228
 968:SynaptiX_FDK/services/cJSON/cJSON.c ****                 }
 2652              		.loc 1 968 21 is_stmt 1 view .LVU824
 968:SynaptiX_FDK/services/cJSON/cJSON.c ****                 }
 2653              		.loc 1 968 39 is_stmt 0 view .LVU825
 2654 0036 0536     		adds	r6, r6, #5
 2655              	.LVL248:
 968:SynaptiX_FDK/services/cJSON/cJSON.c ****                 }
 2656              		.loc 1 968 39 view .LVU826
 2657 0038 00E0     		b	.L228
 2658              	.LVL249:
 2659              	.L227:
 962:SynaptiX_FDK/services/cJSON/cJSON.c ****                 break;
 2660              		.loc 1 962 17 is_stmt 1 view .LVU827
 962:SynaptiX_FDK/services/cJSON/cJSON.c ****                 break;
 2661              		.loc 1 962 34 is_stmt 0 view .LVU828
 2662 003a 0136     		adds	r6, r6, #1
 2663              	.LVL250:
 963:SynaptiX_FDK/services/cJSON/cJSON.c ****             default:
 2664              		.loc 1 963 17 is_stmt 1 view .LVU829
 2665              	.L228:
 950:SynaptiX_FDK/services/cJSON/cJSON.c ****     {
 2666              		.loc 1 950 62 discriminator 2 view .LVU830
 2667 003c 0132     		adds	r2, r2, #1
 2668              	.LVL251:
 2669              	.L224:
 950:SynaptiX_FDK/services/cJSON/cJSON.c ****     {
 2670              		.loc 1 950 33 discriminator 1 view .LVU831
 2671 003e 1378     		ldrb	r3, [r2]	@ zero_extendqisi2
 2672 0040 63B1     		cbz	r3, .L254
 952:SynaptiX_FDK/services/cJSON/cJSON.c ****         {
 2673              		.loc 1 952 9 view .LVU832
 2674 0042 222B     		cmp	r3, #34
 2675 0044 F3D8     		bhi	.L225
 2676 0046 082B     		cmp	r3, #8
 2677 0048 F3D3     		bcc	.L226
 2678 004a A3F10804 		sub	r4, r3, #8
 2679 004e E4B2     		uxtb	r4, r4
 2680 0050 3B49     		ldr	r1, .L257+4
 2681 0052 E140     		lsrs	r1, r1, r4
 2682 0054 11F0010F 		tst	r1, #1
 2683 0058 EFD1     		bne	.L227
 2684 005a EAE7     		b	.L226
 2685              	.L254:
 973:SynaptiX_FDK/services/cJSON/cJSON.c **** 
 2686              		.loc 1 973 5 view .LVU833
 973:SynaptiX_FDK/services/cJSON/cJSON.c **** 
 2687              		.loc 1 973 44 is_stmt 0 view .LVU834
ARM GAS  C:\Users\DELL\AppData\Local\Temp\ccXjhdgA.s 			page 107


 2688 005c 521B     		subs	r2, r2, r5
 2689              	.LVL252:
 973:SynaptiX_FDK/services/cJSON/cJSON.c **** 
 2690              		.loc 1 973 19 view .LVU835
 2691 005e 9419     		adds	r4, r2, r6
 2692              	.LVL253:
 975:SynaptiX_FDK/services/cJSON/cJSON.c ****     if (output == NULL)
 2693              		.loc 1 975 5 is_stmt 1 view .LVU836
 975:SynaptiX_FDK/services/cJSON/cJSON.c ****     if (output == NULL)
 2694              		.loc 1 975 14 is_stmt 0 view .LVU837
 2695 0060 E11C     		adds	r1, r4, #3
 2696 0062 FFF7FEFF 		bl	ensure
 2697              	.LVL254:
 976:SynaptiX_FDK/services/cJSON/cJSON.c ****     {
 2698              		.loc 1 976 5 is_stmt 1 view .LVU838
 976:SynaptiX_FDK/services/cJSON/cJSON.c ****     {
 2699              		.loc 1 976 8 is_stmt 0 view .LVU839
 2700 0066 0746     		mov	r7, r0
 2701 0068 0028     		cmp	r0, #0
 2702 006a 64D0     		beq	.L247
 982:SynaptiX_FDK/services/cJSON/cJSON.c ****     {
 2703              		.loc 1 982 5 is_stmt 1 view .LVU840
 982:SynaptiX_FDK/services/cJSON/cJSON.c ****     {
 2704              		.loc 1 982 8 is_stmt 0 view .LVU841
 2705 006c 26B1     		cbz	r6, .L255
 992:SynaptiX_FDK/services/cJSON/cJSON.c ****     output_pointer = output + 1;
 2706              		.loc 1 992 5 is_stmt 1 view .LVU842
 992:SynaptiX_FDK/services/cJSON/cJSON.c ****     output_pointer = output + 1;
 2707              		.loc 1 992 15 is_stmt 0 view .LVU843
 2708 006e 0646     		mov	r6, r0
 2709              	.LVL255:
 992:SynaptiX_FDK/services/cJSON/cJSON.c ****     output_pointer = output + 1;
 2710              		.loc 1 992 15 view .LVU844
 2711 0070 2223     		movs	r3, #34
 2712 0072 06F8013B 		strb	r3, [r6], #1
 993:SynaptiX_FDK/services/cJSON/cJSON.c ****     /* copy the string */
 2713              		.loc 1 993 5 is_stmt 1 view .LVU845
 2714              	.LVL256:
 995:SynaptiX_FDK/services/cJSON/cJSON.c ****     {
 2715              		.loc 1 995 5 view .LVU846
 995:SynaptiX_FDK/services/cJSON/cJSON.c ****     {
 2716              		.loc 1 995 5 is_stmt 0 view .LVU847
 2717 0076 47E0     		b	.L231
 2718              	.LVL257:
 2719              	.L255:
 984:SynaptiX_FDK/services/cJSON/cJSON.c ****         memcpy(output + 1, input, output_length);
 2720              		.loc 1 984 9 is_stmt 1 view .LVU848
 984:SynaptiX_FDK/services/cJSON/cJSON.c ****         memcpy(output + 1, input, output_length);
 2721              		.loc 1 984 19 is_stmt 0 view .LVU849
 2722 0078 2226     		movs	r6, #34
 2723              	.LVL258:
 984:SynaptiX_FDK/services/cJSON/cJSON.c ****         memcpy(output + 1, input, output_length);
 2724              		.loc 1 984 19 view .LVU850
 2725 007a 00F8016B 		strb	r6, [r0], #1
 2726              	.LVL259:
 985:SynaptiX_FDK/services/cJSON/cJSON.c ****         output[output_length + 1] = '\"';
 2727              		.loc 1 985 9 is_stmt 1 view .LVU851
ARM GAS  C:\Users\DELL\AppData\Local\Temp\ccXjhdgA.s 			page 108


 2728 007e 2246     		mov	r2, r4
 2729 0080 2946     		mov	r1, r5
 2730 0082 FFF7FEFF 		bl	memcpy
 2731              	.LVL260:
 986:SynaptiX_FDK/services/cJSON/cJSON.c ****         output[output_length + 2] = '\0';
 2732              		.loc 1 986 9 view .LVU852
 986:SynaptiX_FDK/services/cJSON/cJSON.c ****         output[output_length + 2] = '\0';
 2733              		.loc 1 986 15 is_stmt 0 view .LVU853
 2734 0086 631C     		adds	r3, r4, #1
 986:SynaptiX_FDK/services/cJSON/cJSON.c ****         output[output_length + 2] = '\0';
 2735              		.loc 1 986 35 view .LVU854
 2736 0088 FE54     		strb	r6, [r7, r3]
 987:SynaptiX_FDK/services/cJSON/cJSON.c **** 
 2737              		.loc 1 987 9 is_stmt 1 view .LVU855
 987:SynaptiX_FDK/services/cJSON/cJSON.c **** 
 2738              		.loc 1 987 15 is_stmt 0 view .LVU856
 2739 008a 0234     		adds	r4, r4, #2
 2740              	.LVL261:
 987:SynaptiX_FDK/services/cJSON/cJSON.c **** 
 2741              		.loc 1 987 35 view .LVU857
 2742 008c 0023     		movs	r3, #0
 2743 008e 3B55     		strb	r3, [r7, r4]
 989:SynaptiX_FDK/services/cJSON/cJSON.c ****     }
 2744              		.loc 1 989 9 is_stmt 1 view .LVU858
 989:SynaptiX_FDK/services/cJSON/cJSON.c ****     }
 2745              		.loc 1 989 16 is_stmt 0 view .LVU859
 2746 0090 0120     		movs	r0, #1
 2747 0092 4BE0     		b	.L222
 2748              	.LVL262:
 2749              	.L232:
1005:SynaptiX_FDK/services/cJSON/cJSON.c ****             switch (*input_pointer)
 2750              		.loc 1 1005 13 is_stmt 1 view .LVU860
1005:SynaptiX_FDK/services/cJSON/cJSON.c ****             switch (*input_pointer)
 2751              		.loc 1 1005 28 is_stmt 0 view .LVU861
 2752 0094 3046     		mov	r0, r6
 2753              	.LVL263:
1005:SynaptiX_FDK/services/cJSON/cJSON.c ****             switch (*input_pointer)
 2754              		.loc 1 1005 31 view .LVU862
 2755 0096 5C23     		movs	r3, #92
 2756 0098 00F8013B 		strb	r3, [r0], #1
 2757              	.LVL264:
1006:SynaptiX_FDK/services/cJSON/cJSON.c ****             {
 2758              		.loc 1 1006 13 is_stmt 1 view .LVU863
1006:SynaptiX_FDK/services/cJSON/cJSON.c ****             {
 2759              		.loc 1 1006 21 is_stmt 0 view .LVU864
 2760 009c 2A78     		ldrb	r2, [r5]	@ zero_extendqisi2
1006:SynaptiX_FDK/services/cJSON/cJSON.c ****             {
 2761              		.loc 1 1006 13 view .LVU865
 2762 009e 222A     		cmp	r2, #34
 2763 00a0 15D8     		bhi	.L234
1006:SynaptiX_FDK/services/cJSON/cJSON.c ****             {
 2764              		.loc 1 1006 13 view .LVU866
 2765 00a2 082A     		cmp	r2, #8
 2766 00a4 2AD3     		bcc	.L235
 2767 00a6 A2F10803 		sub	r3, r2, #8
 2768 00aa 1A2B     		cmp	r3, #26
 2769 00ac 26D8     		bhi	.L235
ARM GAS  C:\Users\DELL\AppData\Local\Temp\ccXjhdgA.s 			page 109


 2770 00ae DFE803F0 		tbb	[pc, r3]
 2771              	.L237:
 2772 00b2 16       		.byte	(.L242-.L237)/2
 2773 00b3 22       		.byte	(.L241-.L237)/2
 2774 00b4 1C       		.byte	(.L240-.L237)/2
 2775 00b5 25       		.byte	(.L235-.L237)/2
 2776 00b6 19       		.byte	(.L239-.L237)/2
 2777 00b7 1F       		.byte	(.L238-.L237)/2
 2778 00b8 25       		.byte	(.L235-.L237)/2
 2779 00b9 25       		.byte	(.L235-.L237)/2
 2780 00ba 25       		.byte	(.L235-.L237)/2
 2781 00bb 25       		.byte	(.L235-.L237)/2
 2782 00bc 25       		.byte	(.L235-.L237)/2
 2783 00bd 25       		.byte	(.L235-.L237)/2
 2784 00be 25       		.byte	(.L235-.L237)/2
 2785 00bf 25       		.byte	(.L235-.L237)/2
 2786 00c0 25       		.byte	(.L235-.L237)/2
 2787 00c1 25       		.byte	(.L235-.L237)/2
 2788 00c2 25       		.byte	(.L235-.L237)/2
 2789 00c3 25       		.byte	(.L235-.L237)/2
 2790 00c4 25       		.byte	(.L235-.L237)/2
 2791 00c5 25       		.byte	(.L235-.L237)/2
 2792 00c6 25       		.byte	(.L235-.L237)/2
 2793 00c7 25       		.byte	(.L235-.L237)/2
 2794 00c8 25       		.byte	(.L235-.L237)/2
 2795 00c9 25       		.byte	(.L235-.L237)/2
 2796 00ca 25       		.byte	(.L235-.L237)/2
 2797 00cb 25       		.byte	(.L235-.L237)/2
 2798 00cc 13       		.byte	(.L236-.L237)/2
 2799 00cd 00       		.p2align 1
 2800              	.L234:
 2801 00ce 5C2A     		cmp	r2, #92
 2802 00d0 14D1     		bne	.L235
1009:SynaptiX_FDK/services/cJSON/cJSON.c ****                     break;
 2803              		.loc 1 1009 21 is_stmt 1 view .LVU867
1009:SynaptiX_FDK/services/cJSON/cJSON.c ****                     break;
 2804              		.loc 1 1009 37 is_stmt 0 view .LVU868
 2805 00d2 5C23     		movs	r3, #92
 2806 00d4 7370     		strb	r3, [r6, #1]
1010:SynaptiX_FDK/services/cJSON/cJSON.c ****                 case '\"':
 2807              		.loc 1 1010 21 is_stmt 1 view .LVU869
 2808 00d6 15E0     		b	.L233
 2809              	.L236:
1012:SynaptiX_FDK/services/cJSON/cJSON.c ****                     break;
 2810              		.loc 1 1012 21 view .LVU870
1012:SynaptiX_FDK/services/cJSON/cJSON.c ****                     break;
 2811              		.loc 1 1012 37 is_stmt 0 view .LVU871
 2812 00d8 2223     		movs	r3, #34
 2813 00da 7370     		strb	r3, [r6, #1]
1013:SynaptiX_FDK/services/cJSON/cJSON.c ****                 case '\b':
 2814              		.loc 1 1013 21 is_stmt 1 view .LVU872
 2815 00dc 12E0     		b	.L233
 2816              	.L242:
1015:SynaptiX_FDK/services/cJSON/cJSON.c ****                     break;
 2817              		.loc 1 1015 21 view .LVU873
1015:SynaptiX_FDK/services/cJSON/cJSON.c ****                     break;
 2818              		.loc 1 1015 37 is_stmt 0 view .LVU874
ARM GAS  C:\Users\DELL\AppData\Local\Temp\ccXjhdgA.s 			page 110


 2819 00de 6223     		movs	r3, #98
 2820 00e0 7370     		strb	r3, [r6, #1]
1016:SynaptiX_FDK/services/cJSON/cJSON.c ****                 case '\f':
 2821              		.loc 1 1016 21 is_stmt 1 view .LVU875
 2822 00e2 0FE0     		b	.L233
 2823              	.L239:
1018:SynaptiX_FDK/services/cJSON/cJSON.c ****                     break;
 2824              		.loc 1 1018 21 view .LVU876
1018:SynaptiX_FDK/services/cJSON/cJSON.c ****                     break;
 2825              		.loc 1 1018 37 is_stmt 0 view .LVU877
 2826 00e4 6623     		movs	r3, #102
 2827 00e6 7370     		strb	r3, [r6, #1]
1019:SynaptiX_FDK/services/cJSON/cJSON.c ****                 case '\n':
 2828              		.loc 1 1019 21 is_stmt 1 view .LVU878
 2829 00e8 0CE0     		b	.L233
 2830              	.L240:
1021:SynaptiX_FDK/services/cJSON/cJSON.c ****                     break;
 2831              		.loc 1 1021 21 view .LVU879
1021:SynaptiX_FDK/services/cJSON/cJSON.c ****                     break;
 2832              		.loc 1 1021 37 is_stmt 0 view .LVU880
 2833 00ea 6E23     		movs	r3, #110
 2834 00ec 7370     		strb	r3, [r6, #1]
1022:SynaptiX_FDK/services/cJSON/cJSON.c ****                 case '\r':
 2835              		.loc 1 1022 21 is_stmt 1 view .LVU881
 2836 00ee 09E0     		b	.L233
 2837              	.L238:
1024:SynaptiX_FDK/services/cJSON/cJSON.c ****                     break;
 2838              		.loc 1 1024 21 view .LVU882
1024:SynaptiX_FDK/services/cJSON/cJSON.c ****                     break;
 2839              		.loc 1 1024 37 is_stmt 0 view .LVU883
 2840 00f0 7223     		movs	r3, #114
 2841 00f2 7370     		strb	r3, [r6, #1]
1025:SynaptiX_FDK/services/cJSON/cJSON.c ****                 case '\t':
 2842              		.loc 1 1025 21 is_stmt 1 view .LVU884
 2843 00f4 06E0     		b	.L233
 2844              	.L241:
1027:SynaptiX_FDK/services/cJSON/cJSON.c ****                     break;
 2845              		.loc 1 1027 21 view .LVU885
1027:SynaptiX_FDK/services/cJSON/cJSON.c ****                     break;
 2846              		.loc 1 1027 37 is_stmt 0 view .LVU886
 2847 00f6 7423     		movs	r3, #116
 2848 00f8 7370     		strb	r3, [r6, #1]
1028:SynaptiX_FDK/services/cJSON/cJSON.c ****                 default:
 2849              		.loc 1 1028 21 is_stmt 1 view .LVU887
 2850 00fa 03E0     		b	.L233
 2851              	.L235:
1031:SynaptiX_FDK/services/cJSON/cJSON.c ****                     output_pointer += 4;
 2852              		.loc 1 1031 21 view .LVU888
 2853 00fc 1149     		ldr	r1, .L257+8
 2854 00fe FFF7FEFF 		bl	sprintf
 2855              	.LVL265:
1032:SynaptiX_FDK/services/cJSON/cJSON.c ****                     break;
 2856              		.loc 1 1032 21 view .LVU889
1032:SynaptiX_FDK/services/cJSON/cJSON.c ****                     break;
 2857              		.loc 1 1032 36 is_stmt 0 view .LVU890
 2858 0102 701D     		adds	r0, r6, #5
 2859              	.LVL266:
ARM GAS  C:\Users\DELL\AppData\Local\Temp\ccXjhdgA.s 			page 111


1033:SynaptiX_FDK/services/cJSON/cJSON.c ****             }
 2860              		.loc 1 1033 21 is_stmt 1 view .LVU891
 2861              	.L233:
 995:SynaptiX_FDK/services/cJSON/cJSON.c ****     {
 2862              		.loc 1 995 78 discriminator 2 view .LVU892
 995:SynaptiX_FDK/services/cJSON/cJSON.c ****     {
 2863              		.loc 1 995 57 is_stmt 0 discriminator 2 view .LVU893
 2864 0104 0135     		adds	r5, r5, #1
 2865              	.LVL267:
 995:SynaptiX_FDK/services/cJSON/cJSON.c ****     {
 2866              		.loc 1 995 94 discriminator 2 view .LVU894
 2867 0106 461C     		adds	r6, r0, #1
 2868              	.LVL268:
 2869              	.L231:
 995:SynaptiX_FDK/services/cJSON/cJSON.c ****     {
 2870              		.loc 1 995 48 is_stmt 1 discriminator 1 view .LVU895
 995:SynaptiX_FDK/services/cJSON/cJSON.c ****     {
 2871              		.loc 1 995 33 is_stmt 0 discriminator 1 view .LVU896
 2872 0108 2B78     		ldrb	r3, [r5]	@ zero_extendqisi2
 995:SynaptiX_FDK/services/cJSON/cJSON.c ****     {
 2873              		.loc 1 995 48 discriminator 1 view .LVU897
 2874 010a 43B1     		cbz	r3, .L256
 997:SynaptiX_FDK/services/cJSON/cJSON.c ****         {
 2875              		.loc 1 997 9 is_stmt 1 view .LVU898
 997:SynaptiX_FDK/services/cJSON/cJSON.c ****         {
 2876              		.loc 1 997 12 is_stmt 0 view .LVU899
 2877 010c 1F2B     		cmp	r3, #31
 2878 010e C1D9     		bls	.L232
 997:SynaptiX_FDK/services/cJSON/cJSON.c ****         {
 2879              		.loc 1 997 35 discriminator 1 view .LVU900
 2880 0110 222B     		cmp	r3, #34
 2881 0112 BFD0     		beq	.L232
 997:SynaptiX_FDK/services/cJSON/cJSON.c ****         {
 2882              		.loc 1 997 63 discriminator 2 view .LVU901
 2883 0114 5C2B     		cmp	r3, #92
 2884 0116 BDD0     		beq	.L232
1000:SynaptiX_FDK/services/cJSON/cJSON.c ****         }
 2885              		.loc 1 1000 13 is_stmt 1 view .LVU902
1000:SynaptiX_FDK/services/cJSON/cJSON.c ****         }
 2886              		.loc 1 1000 29 is_stmt 0 view .LVU903
 2887 0118 3370     		strb	r3, [r6]
 2888 011a 3046     		mov	r0, r6
 2889 011c F2E7     		b	.L233
 2890              	.L256:
1037:SynaptiX_FDK/services/cJSON/cJSON.c ****     output[output_length + 2] = '\0';
 2891              		.loc 1 1037 5 is_stmt 1 view .LVU904
1037:SynaptiX_FDK/services/cJSON/cJSON.c ****     output[output_length + 2] = '\0';
 2892              		.loc 1 1037 11 is_stmt 0 view .LVU905
 2893 011e 631C     		adds	r3, r4, #1
1037:SynaptiX_FDK/services/cJSON/cJSON.c ****     output[output_length + 2] = '\0';
 2894              		.loc 1 1037 31 view .LVU906
 2895 0120 2222     		movs	r2, #34
 2896 0122 FA54     		strb	r2, [r7, r3]
1038:SynaptiX_FDK/services/cJSON/cJSON.c **** 
 2897              		.loc 1 1038 5 is_stmt 1 view .LVU907
1038:SynaptiX_FDK/services/cJSON/cJSON.c **** 
 2898              		.loc 1 1038 11 is_stmt 0 view .LVU908
ARM GAS  C:\Users\DELL\AppData\Local\Temp\ccXjhdgA.s 			page 112


 2899 0124 0234     		adds	r4, r4, #2
 2900              	.LVL269:
1038:SynaptiX_FDK/services/cJSON/cJSON.c **** 
 2901              		.loc 1 1038 31 view .LVU909
 2902 0126 0023     		movs	r3, #0
 2903 0128 3B55     		strb	r3, [r7, r4]
1040:SynaptiX_FDK/services/cJSON/cJSON.c **** }
 2904              		.loc 1 1040 5 is_stmt 1 view .LVU910
1040:SynaptiX_FDK/services/cJSON/cJSON.c **** }
 2905              		.loc 1 1040 12 is_stmt 0 view .LVU911
 2906 012a 0120     		movs	r0, #1
 2907              	.LVL270:
 2908              	.L222:
1041:SynaptiX_FDK/services/cJSON/cJSON.c **** 
 2909              		.loc 1 1041 1 view .LVU912
 2910 012c F8BD     		pop	{r3, r4, r5, r6, r7, pc}
 2911              	.LVL271:
 2912              	.L244:
 2913              	.LCFI29:
 2914              		.cfi_def_cfa_offset 0
 2915              		.cfi_restore 3
 2916              		.cfi_restore 4
 2917              		.cfi_restore 5
 2918              		.cfi_restore 6
 2919              		.cfi_restore 7
 2920              		.cfi_restore 14
 933:SynaptiX_FDK/services/cJSON/cJSON.c ****     }
 2921              		.loc 1 933 16 view .LVU913
 2922 012e 0020     		movs	r0, #0
 2923              	.LVL272:
1041:SynaptiX_FDK/services/cJSON/cJSON.c **** 
 2924              		.loc 1 1041 1 view .LVU914
 2925 0130 7047     		bx	lr
 2926              	.LVL273:
 2927              	.L246:
 2928              	.LCFI30:
 2929              		.cfi_def_cfa_offset 24
 2930              		.cfi_offset 3, -24
 2931              		.cfi_offset 4, -20
 2932              		.cfi_offset 5, -16
 2933              		.cfi_offset 6, -12
 2934              		.cfi_offset 7, -8
 2935              		.cfi_offset 14, -4
 942:SynaptiX_FDK/services/cJSON/cJSON.c ****         }
 2936              		.loc 1 942 20 view .LVU915
 2937 0132 0020     		movs	r0, #0
 2938              	.LVL274:
 942:SynaptiX_FDK/services/cJSON/cJSON.c ****         }
 2939              		.loc 1 942 20 view .LVU916
 2940 0134 FAE7     		b	.L222
 2941              	.LVL275:
 2942              	.L247:
 978:SynaptiX_FDK/services/cJSON/cJSON.c ****     }
 2943              		.loc 1 978 16 view .LVU917
 2944 0136 0020     		movs	r0, #0
 2945              	.LVL276:
 978:SynaptiX_FDK/services/cJSON/cJSON.c ****     }
ARM GAS  C:\Users\DELL\AppData\Local\Temp\ccXjhdgA.s 			page 113


 2946              		.loc 1 978 16 view .LVU918
 2947 0138 F8E7     		b	.L222
 2948              	.L258:
 2949 013a 00BF     		.align	2
 2950              	.L257:
 2951 013c 00000000 		.word	.LC1
 2952 0140 37000004 		.word	67108919
 2953 0144 04000000 		.word	.LC2
 2954              		.cfi_endproc
 2955              	.LFE24:
 2957              		.section	.text.print_string,"ax",%progbits
 2958              		.align	1
 2959              		.syntax unified
 2960              		.thumb
 2961              		.thumb_func
 2963              	print_string:
 2964              	.LVL277:
 2965              	.LFB25:
1045:SynaptiX_FDK/services/cJSON/cJSON.c ****     return print_string_ptr((unsigned char*)item->valuestring, p);
 2966              		.loc 1 1045 1 is_stmt 1 view -0
 2967              		.cfi_startproc
 2968              		@ args = 0, pretend = 0, frame = 0
 2969              		@ frame_needed = 0, uses_anonymous_args = 0
1045:SynaptiX_FDK/services/cJSON/cJSON.c ****     return print_string_ptr((unsigned char*)item->valuestring, p);
 2970              		.loc 1 1045 1 is_stmt 0 view .LVU920
 2971 0000 08B5     		push	{r3, lr}
 2972              	.LCFI31:
 2973              		.cfi_def_cfa_offset 8
 2974              		.cfi_offset 3, -8
 2975              		.cfi_offset 14, -4
1046:SynaptiX_FDK/services/cJSON/cJSON.c **** }
 2976              		.loc 1 1046 5 is_stmt 1 view .LVU921
1046:SynaptiX_FDK/services/cJSON/cJSON.c **** }
 2977              		.loc 1 1046 12 is_stmt 0 view .LVU922
 2978 0002 0069     		ldr	r0, [r0, #16]
 2979              	.LVL278:
1046:SynaptiX_FDK/services/cJSON/cJSON.c **** }
 2980              		.loc 1 1046 12 view .LVU923
 2981 0004 FFF7FEFF 		bl	print_string_ptr
 2982              	.LVL279:
1047:SynaptiX_FDK/services/cJSON/cJSON.c **** 
 2983              		.loc 1 1047 1 view .LVU924
 2984 0008 08BD     		pop	{r3, pc}
 2985              		.cfi_endproc
 2986              	.LFE25:
 2988              		.section	.rodata.print_number.str1.4,"aMS",%progbits,1
 2989              		.align	2
 2990              	.LC3:
 2991 0000 6E756C6C 		.ascii	"null\000"
 2991      00
 2992 0005 000000   		.align	2
 2993              	.LC4:
 2994 0008 256400   		.ascii	"%d\000"
 2995 000b 00       		.align	2
 2996              	.LC5:
 2997 000c 252E3466 		.ascii	"%.4f\000"
 2997      00
ARM GAS  C:\Users\DELL\AppData\Local\Temp\ccXjhdgA.s 			page 114


 2998 0011 000000   		.align	2
 2999              	.LC6:
 3000 0014 256C6700 		.ascii	"%lg\000"
 3001              		.section	.text.print_number,"ax",%progbits
 3002              		.align	1
 3003              		.syntax unified
 3004              		.thumb
 3005              		.thumb_func
 3007              	print_number:
 3008              	.LVL280:
 3009              	.LFB20:
 565:SynaptiX_FDK/services/cJSON/cJSON.c ****     unsigned char *output_pointer = NULL;
 3010              		.loc 1 565 1 is_stmt 1 view -0
 3011              		.cfi_startproc
 3012              		@ args = 0, pretend = 0, frame = 40
 3013              		@ frame_needed = 0, uses_anonymous_args = 0
 565:SynaptiX_FDK/services/cJSON/cJSON.c ****     unsigned char *output_pointer = NULL;
 3014              		.loc 1 565 1 is_stmt 0 view .LVU926
 3015 0000 2DE9F047 		push	{r4, r5, r6, r7, r8, r9, r10, lr}
 3016              	.LCFI32:
 3017              		.cfi_def_cfa_offset 32
 3018              		.cfi_offset 4, -32
 3019              		.cfi_offset 5, -28
 3020              		.cfi_offset 6, -24
 3021              		.cfi_offset 7, -20
 3022              		.cfi_offset 8, -16
 3023              		.cfi_offset 9, -12
 3024              		.cfi_offset 10, -8
 3025              		.cfi_offset 14, -4
 3026 0004 8AB0     		sub	sp, sp, #40
 3027              	.LCFI33:
 3028              		.cfi_def_cfa_offset 72
 3029 0006 8246     		mov	r10, r0
 3030 0008 0C46     		mov	r4, r1
 566:SynaptiX_FDK/services/cJSON/cJSON.c ****     double d = item->valuedouble;
 3031              		.loc 1 566 5 is_stmt 1 view .LVU927
 3032              	.LVL281:
 567:SynaptiX_FDK/services/cJSON/cJSON.c ****     int length = 0;
 3033              		.loc 1 567 5 view .LVU928
 567:SynaptiX_FDK/services/cJSON/cJSON.c ****     int length = 0;
 3034              		.loc 1 567 12 is_stmt 0 view .LVU929
 3035 000a D0E90667 		ldrd	r6, [r0, #24]
 3036              	.LVL282:
 568:SynaptiX_FDK/services/cJSON/cJSON.c ****     size_t i = 0;
 3037              		.loc 1 568 5 is_stmt 1 view .LVU930
 569:SynaptiX_FDK/services/cJSON/cJSON.c ****     unsigned char number_buffer[26] = {0}; /* temporary buffer to print the number into */
 3038              		.loc 1 569 5 view .LVU931
 570:SynaptiX_FDK/services/cJSON/cJSON.c ****     unsigned char decimal_point = get_decimal_point();
 3039              		.loc 1 570 5 view .LVU932
 570:SynaptiX_FDK/services/cJSON/cJSON.c ****     unsigned char decimal_point = get_decimal_point();
 3040              		.loc 1 570 19 is_stmt 0 view .LVU933
 3041 000e 0023     		movs	r3, #0
 3042 0010 0393     		str	r3, [sp, #12]
 3043 0012 0493     		str	r3, [sp, #16]
 3044 0014 0593     		str	r3, [sp, #20]
 3045 0016 0693     		str	r3, [sp, #24]
 3046 0018 0793     		str	r3, [sp, #28]
ARM GAS  C:\Users\DELL\AppData\Local\Temp\ccXjhdgA.s 			page 115


 3047 001a 0893     		str	r3, [sp, #32]
 3048 001c ADF82430 		strh	r3, [sp, #36]	@ movhi
 571:SynaptiX_FDK/services/cJSON/cJSON.c ****     double test = 0.0;
 3049              		.loc 1 571 5 is_stmt 1 view .LVU934
 571:SynaptiX_FDK/services/cJSON/cJSON.c ****     double test = 0.0;
 3050              		.loc 1 571 35 is_stmt 0 view .LVU935
 3051 0020 FFF7FEFF 		bl	get_decimal_point
 3052              	.LVL283:
 572:SynaptiX_FDK/services/cJSON/cJSON.c **** 
 3053              		.loc 1 572 5 is_stmt 1 view .LVU936
 572:SynaptiX_FDK/services/cJSON/cJSON.c **** 
 3054              		.loc 1 572 12 is_stmt 0 view .LVU937
 3055 0024 0022     		movs	r2, #0
 3056 0026 0023     		movs	r3, #0
 3057 0028 CDE90023 		strd	r2, [sp]
 574:SynaptiX_FDK/services/cJSON/cJSON.c ****     {
 3058              		.loc 1 574 5 is_stmt 1 view .LVU938
 574:SynaptiX_FDK/services/cJSON/cJSON.c ****     {
 3059              		.loc 1 574 8 is_stmt 0 view .LVU939
 3060 002c 002C     		cmp	r4, #0
 3061 002e 78D0     		beq	.L273
 3062 0030 0546     		mov	r5, r0
 580:SynaptiX_FDK/services/cJSON/cJSON.c ****     {
 3063              		.loc 1 580 5 is_stmt 1 view .LVU940
 580:SynaptiX_FDK/services/cJSON/cJSON.c ****     {
 3064              		.loc 1 580 8 is_stmt 0 view .LVU941
 3065 0032 3246     		mov	r2, r6
 3066 0034 3B46     		mov	r3, r7
 3067 0036 3046     		mov	r0, r6
 3068              	.LVL284:
 580:SynaptiX_FDK/services/cJSON/cJSON.c ****     {
 3069              		.loc 1 580 8 view .LVU942
 3070 0038 3946     		mov	r1, r7
 3071 003a FFF7FEFF 		bl	__aeabi_dcmpun
 3072              	.LVL285:
 3073 003e 88B9     		cbnz	r0, .L263
 580:SynaptiX_FDK/services/cJSON/cJSON.c ****     {
 3074              		.loc 1 580 21 discriminator 1 view .LVU943
 3075 0040 27F00049 		bic	r9, r7, #-2147483648
 580:SynaptiX_FDK/services/cJSON/cJSON.c ****     {
 3076              		.loc 1 580 18 discriminator 1 view .LVU944
 3077 0044 4FF0FF32 		mov	r2, #-1
 3078 0048 384B     		ldr	r3, .L282
 3079 004a 3046     		mov	r0, r6
 3080 004c 4946     		mov	r1, r9
 3081 004e FFF7FEFF 		bl	__aeabi_dcmpun
 3082              	.LVL286:
 3083 0052 B8B9     		cbnz	r0, .L264
 3084 0054 4FF0FF32 		mov	r2, #-1
 3085 0058 344B     		ldr	r3, .L282
 3086 005a 3046     		mov	r0, r6
 3087 005c 4946     		mov	r1, r9
 3088 005e FFF7FEFF 		bl	__aeabi_dcmple
 3089              	.LVL287:
 3090 0062 78B9     		cbnz	r0, .L264
 3091              	.L263:
 582:SynaptiX_FDK/services/cJSON/cJSON.c ****     }
ARM GAS  C:\Users\DELL\AppData\Local\Temp\ccXjhdgA.s 			page 116


 3092              		.loc 1 582 9 is_stmt 1 view .LVU945
 582:SynaptiX_FDK/services/cJSON/cJSON.c ****     }
 3093              		.loc 1 582 18 is_stmt 0 view .LVU946
 3094 0064 324B     		ldr	r3, .L282+4
 3095 0066 93E80300 		ldm	r3, {r0, r1}
 3096 006a 0390     		str	r0, [sp, #12]
 3097 006c 8DF81010 		strb	r1, [sp, #16]
 3098              	.LVL288:
 582:SynaptiX_FDK/services/cJSON/cJSON.c ****     }
 3099              		.loc 1 582 18 view .LVU947
 3100 0070 4FF00408 		mov	r8, #4
 3101              	.LVL289:
 3102              	.L265:
 602:SynaptiX_FDK/services/cJSON/cJSON.c ****     {
 3103              		.loc 1 602 5 is_stmt 1 view .LVU948
 602:SynaptiX_FDK/services/cJSON/cJSON.c ****     {
 3104              		.loc 1 602 22 is_stmt 0 view .LVU949
 3105 0074 4646     		mov	r6, r8
 3106              	.LVL290:
 602:SynaptiX_FDK/services/cJSON/cJSON.c ****     {
 3107              		.loc 1 602 8 view .LVU950
 3108 0076 B8F1190F 		cmp	r8, #25
 3109 007a 34D9     		bls	.L279
 604:SynaptiX_FDK/services/cJSON/cJSON.c ****     }
 3110              		.loc 1 604 16 view .LVU951
 3111 007c 0020     		movs	r0, #0
 3112              	.LVL291:
 3113              	.L261:
 631:SynaptiX_FDK/services/cJSON/cJSON.c **** 
 3114              		.loc 1 631 1 view .LVU952
 3115 007e 0AB0     		add	sp, sp, #40
 3116              	.LCFI34:
 3117              		.cfi_remember_state
 3118              		.cfi_def_cfa_offset 32
 3119              		@ sp needed
 3120 0080 BDE8F087 		pop	{r4, r5, r6, r7, r8, r9, r10, pc}
 3121              	.LVL292:
 3122              	.L264:
 3123              	.LCFI35:
 3124              		.cfi_restore_state
 584:SynaptiX_FDK/services/cJSON/cJSON.c ****     {
 3125              		.loc 1 584 10 is_stmt 1 view .LVU953
 584:SynaptiX_FDK/services/cJSON/cJSON.c ****     {
 3126              		.loc 1 584 30 is_stmt 0 view .LVU954
 3127 0084 DAF81480 		ldr	r8, [r10, #20]
 584:SynaptiX_FDK/services/cJSON/cJSON.c ****     {
 3128              		.loc 1 584 18 view .LVU955
 3129 0088 4046     		mov	r0, r8
 3130 008a FFF7FEFF 		bl	__aeabi_i2d
 3131              	.LVL293:
 584:SynaptiX_FDK/services/cJSON/cJSON.c ****     {
 3132              		.loc 1 584 12 view .LVU956
 3133 008e 3246     		mov	r2, r6
 3134 0090 3B46     		mov	r3, r7
 3135 0092 FFF7FEFF 		bl	__aeabi_dcmpeq
 3136              	.LVL294:
 3137 0096 30B1     		cbz	r0, .L277
ARM GAS  C:\Users\DELL\AppData\Local\Temp\ccXjhdgA.s 			page 117


 586:SynaptiX_FDK/services/cJSON/cJSON.c ****     }
 3138              		.loc 1 586 9 is_stmt 1 view .LVU957
 586:SynaptiX_FDK/services/cJSON/cJSON.c ****     }
 3139              		.loc 1 586 18 is_stmt 0 view .LVU958
 3140 0098 4246     		mov	r2, r8
 3141 009a 2649     		ldr	r1, .L282+8
 3142 009c 03A8     		add	r0, sp, #12
 3143 009e FFF7FEFF 		bl	sprintf
 3144              	.LVL295:
 3145 00a2 8046     		mov	r8, r0
 3146              	.LVL296:
 586:SynaptiX_FDK/services/cJSON/cJSON.c ****     }
 3147              		.loc 1 586 18 view .LVU959
 3148 00a4 E6E7     		b	.L265
 3149              	.LVL297:
 3150              	.L277:
 591:SynaptiX_FDK/services/cJSON/cJSON.c **** 
 3151              		.loc 1 591 9 is_stmt 1 view .LVU960
 591:SynaptiX_FDK/services/cJSON/cJSON.c **** 
 3152              		.loc 1 591 18 is_stmt 0 view .LVU961
 3153 00a6 0DF10C09 		add	r9, sp, #12
 3154 00aa 3246     		mov	r2, r6
 3155 00ac 3B46     		mov	r3, r7
 3156 00ae 2249     		ldr	r1, .L282+12
 3157 00b0 4846     		mov	r0, r9
 3158 00b2 FFF7FEFF 		bl	sprintf
 3159              	.LVL298:
 3160 00b6 8046     		mov	r8, r0
 3161              	.LVL299:
 594:SynaptiX_FDK/services/cJSON/cJSON.c ****         {
 3162              		.loc 1 594 9 is_stmt 1 view .LVU962
 594:SynaptiX_FDK/services/cJSON/cJSON.c ****         {
 3163              		.loc 1 594 14 is_stmt 0 view .LVU963
 3164 00b8 6A46     		mov	r2, sp
 3165 00ba 2049     		ldr	r1, .L282+16
 3166 00bc 4846     		mov	r0, r9
 3167              	.LVL300:
 594:SynaptiX_FDK/services/cJSON/cJSON.c ****         {
 3168              		.loc 1 594 14 view .LVU964
 3169 00be FFF7FEFF 		bl	sscanf
 3170              	.LVL301:
 594:SynaptiX_FDK/services/cJSON/cJSON.c ****         {
 3171              		.loc 1 594 12 discriminator 1 view .LVU965
 3172 00c2 0128     		cmp	r0, #1
 3173 00c4 07D1     		bne	.L268
 594:SynaptiX_FDK/services/cJSON/cJSON.c ****         {
 3174              		.loc 1 594 67 discriminator 1 view .LVU966
 3175 00c6 47EC116B 		vmov	d1, r6, r7
 3176 00ca 9DED000B 		vldr.64	d0, [sp]
 3177 00ce FFF7FEFF 		bl	compare_double
 3178              	.LVL302:
 594:SynaptiX_FDK/services/cJSON/cJSON.c ****         {
 3179              		.loc 1 594 63 discriminator 1 view .LVU967
 3180 00d2 0028     		cmp	r0, #0
 3181 00d4 CED1     		bne	.L265
 3182              	.L268:
 597:SynaptiX_FDK/services/cJSON/cJSON.c ****         }
ARM GAS  C:\Users\DELL\AppData\Local\Temp\ccXjhdgA.s 			page 118


 3183              		.loc 1 597 13 is_stmt 1 view .LVU968
 597:SynaptiX_FDK/services/cJSON/cJSON.c ****         }
 3184              		.loc 1 597 22 is_stmt 0 view .LVU969
 3185 00d6 3246     		mov	r2, r6
 3186 00d8 3B46     		mov	r3, r7
 3187 00da 1749     		ldr	r1, .L282+12
 3188 00dc 03A8     		add	r0, sp, #12
 3189 00de FFF7FEFF 		bl	sprintf
 3190              	.LVL303:
 3191 00e2 8046     		mov	r8, r0
 3192              	.LVL304:
 597:SynaptiX_FDK/services/cJSON/cJSON.c ****         }
 3193              		.loc 1 597 22 view .LVU970
 3194 00e4 C6E7     		b	.L265
 3195              	.LVL305:
 3196              	.L279:
 608:SynaptiX_FDK/services/cJSON/cJSON.c ****     if (output_pointer == NULL)
 3197              		.loc 1 608 5 is_stmt 1 view .LVU971
 608:SynaptiX_FDK/services/cJSON/cJSON.c ****     if (output_pointer == NULL)
 3198              		.loc 1 608 22 is_stmt 0 view .LVU972
 3199 00e6 08F10101 		add	r1, r8, #1
 3200 00ea 2046     		mov	r0, r4
 3201 00ec FFF7FEFF 		bl	ensure
 3202              	.LVL306:
 609:SynaptiX_FDK/services/cJSON/cJSON.c ****     {
 3203              		.loc 1 609 5 is_stmt 1 view .LVU973
 609:SynaptiX_FDK/services/cJSON/cJSON.c ****     {
 3204              		.loc 1 609 8 is_stmt 0 view .LVU974
 3205 00f0 0146     		mov	r1, r0
 3206 00f2 C0B1     		cbz	r0, .L275
 616:SynaptiX_FDK/services/cJSON/cJSON.c ****     {
 3207              		.loc 1 616 12 view .LVU975
 3208 00f4 0023     		movs	r3, #0
 3209 00f6 02E0     		b	.L269
 3210              	.LVL307:
 3211              	.L281:
 620:SynaptiX_FDK/services/cJSON/cJSON.c ****             continue;
 3212              		.loc 1 620 13 is_stmt 1 view .LVU976
 620:SynaptiX_FDK/services/cJSON/cJSON.c ****             continue;
 3213              		.loc 1 620 31 is_stmt 0 view .LVU977
 3214 00f8 2E22     		movs	r2, #46
 3215 00fa CA54     		strb	r2, [r1, r3]
 621:SynaptiX_FDK/services/cJSON/cJSON.c ****         }
 3216              		.loc 1 621 13 is_stmt 1 view .LVU978
 3217              	.L271:
 616:SynaptiX_FDK/services/cJSON/cJSON.c ****     {
 3218              		.loc 1 616 40 discriminator 2 view .LVU979
 3219 00fc 0133     		adds	r3, r3, #1
 3220              	.LVL308:
 3221              	.L269:
 616:SynaptiX_FDK/services/cJSON/cJSON.c ****     {
 3222              		.loc 1 616 19 discriminator 1 view .LVU980
 3223 00fe 9E42     		cmp	r6, r3
 3224 0100 08D9     		bls	.L280
 618:SynaptiX_FDK/services/cJSON/cJSON.c ****         {
 3225              		.loc 1 618 9 view .LVU981
 618:SynaptiX_FDK/services/cJSON/cJSON.c ****         {
ARM GAS  C:\Users\DELL\AppData\Local\Temp\ccXjhdgA.s 			page 119


 3226              		.loc 1 618 26 is_stmt 0 view .LVU982
 3227 0102 03F12802 		add	r2, r3, #40
 3228 0106 6A44     		add	r2, sp, r2
 3229 0108 12F81C2C 		ldrb	r2, [r2, #-28]	@ zero_extendqisi2
 618:SynaptiX_FDK/services/cJSON/cJSON.c ****         {
 3230              		.loc 1 618 12 view .LVU983
 3231 010c AA42     		cmp	r2, r5
 3232 010e F3D0     		beq	.L281
 624:SynaptiX_FDK/services/cJSON/cJSON.c ****     }
 3233              		.loc 1 624 9 is_stmt 1 view .LVU984
 624:SynaptiX_FDK/services/cJSON/cJSON.c ****     }
 3234              		.loc 1 624 27 is_stmt 0 view .LVU985
 3235 0110 CA54     		strb	r2, [r1, r3]
 3236 0112 F3E7     		b	.L271
 3237              	.L280:
 626:SynaptiX_FDK/services/cJSON/cJSON.c **** 
 3238              		.loc 1 626 5 is_stmt 1 view .LVU986
 626:SynaptiX_FDK/services/cJSON/cJSON.c **** 
 3239              		.loc 1 626 23 is_stmt 0 view .LVU987
 3240 0114 0022     		movs	r2, #0
 3241 0116 CA54     		strb	r2, [r1, r3]
 628:SynaptiX_FDK/services/cJSON/cJSON.c **** 
 3242              		.loc 1 628 5 is_stmt 1 view .LVU988
 628:SynaptiX_FDK/services/cJSON/cJSON.c **** 
 3243              		.loc 1 628 18 is_stmt 0 view .LVU989
 3244 0118 A368     		ldr	r3, [r4, #8]
 3245              	.LVL309:
 628:SynaptiX_FDK/services/cJSON/cJSON.c **** 
 3246              		.loc 1 628 27 view .LVU990
 3247 011a 1E44     		add	r6, r6, r3
 3248              	.LVL310:
 628:SynaptiX_FDK/services/cJSON/cJSON.c **** 
 3249              		.loc 1 628 27 view .LVU991
 3250 011c A660     		str	r6, [r4, #8]
 630:SynaptiX_FDK/services/cJSON/cJSON.c **** }
 3251              		.loc 1 630 5 is_stmt 1 view .LVU992
 630:SynaptiX_FDK/services/cJSON/cJSON.c **** }
 3252              		.loc 1 630 12 is_stmt 0 view .LVU993
 3253 011e 0120     		movs	r0, #1
 3254              	.LVL311:
 630:SynaptiX_FDK/services/cJSON/cJSON.c **** }
 3255              		.loc 1 630 12 view .LVU994
 3256 0120 ADE7     		b	.L261
 3257              	.LVL312:
 3258              	.L273:
 576:SynaptiX_FDK/services/cJSON/cJSON.c ****     }
 3259              		.loc 1 576 16 view .LVU995
 3260 0122 0020     		movs	r0, #0
 3261              	.LVL313:
 576:SynaptiX_FDK/services/cJSON/cJSON.c ****     }
 3262              		.loc 1 576 16 view .LVU996
 3263 0124 ABE7     		b	.L261
 3264              	.LVL314:
 3265              	.L275:
 611:SynaptiX_FDK/services/cJSON/cJSON.c ****     }
 3266              		.loc 1 611 16 view .LVU997
 3267 0126 0020     		movs	r0, #0
ARM GAS  C:\Users\DELL\AppData\Local\Temp\ccXjhdgA.s 			page 120


 3268              	.LVL315:
 611:SynaptiX_FDK/services/cJSON/cJSON.c ****     }
 3269              		.loc 1 611 16 view .LVU998
 3270 0128 A9E7     		b	.L261
 3271              	.L283:
 3272 012a 00BF     		.align	2
 3273              	.L282:
 3274 012c FFFFEF7F 		.word	2146435071
 3275 0130 00000000 		.word	.LC3
 3276 0134 08000000 		.word	.LC4
 3277 0138 0C000000 		.word	.LC5
 3278 013c 14000000 		.word	.LC6
 3279              		.cfi_endproc
 3280              	.LFE20:
 3282              		.section	.rodata.print_value.str1.4,"aMS",%progbits,1
 3283              		.align	2
 3284              	.LC7:
 3285 0000 66616C73 		.ascii	"false\000"
 3285      6500
 3286 0006 0000     		.align	2
 3287              	.LC8:
 3288 0008 74727565 		.ascii	"true\000"
 3288      00
 3289              		.section	.text.print_value,"ax",%progbits
 3290              		.align	1
 3291              		.syntax unified
 3292              		.thumb
 3293              		.thumb_func
 3295              	print_value:
 3296              	.LVL316:
 3297              	.LFB38:
1392:SynaptiX_FDK/services/cJSON/cJSON.c ****     unsigned char *output = NULL;
 3298              		.loc 1 1392 1 is_stmt 1 view -0
 3299              		.cfi_startproc
 3300              		@ args = 0, pretend = 0, frame = 0
 3301              		@ frame_needed = 0, uses_anonymous_args = 0
1392:SynaptiX_FDK/services/cJSON/cJSON.c ****     unsigned char *output = NULL;
 3302              		.loc 1 1392 1 is_stmt 0 view .LVU1000
 3303 0000 70B5     		push	{r4, r5, r6, lr}
 3304              	.LCFI36:
 3305              		.cfi_def_cfa_offset 16
 3306              		.cfi_offset 4, -16
 3307              		.cfi_offset 5, -12
 3308              		.cfi_offset 6, -8
 3309              		.cfi_offset 14, -4
1393:SynaptiX_FDK/services/cJSON/cJSON.c **** 
 3310              		.loc 1 1393 5 is_stmt 1 view .LVU1001
 3311              	.LVL317:
1395:SynaptiX_FDK/services/cJSON/cJSON.c ****     {
 3312              		.loc 1 1395 5 view .LVU1002
1395:SynaptiX_FDK/services/cJSON/cJSON.c ****     {
 3313              		.loc 1 1395 8 is_stmt 0 view .LVU1003
 3314 0002 0028     		cmp	r0, #0
 3315 0004 6CD0     		beq	.L296
 3316 0006 0D46     		mov	r5, r1
 3317 0008 0646     		mov	r6, r0
1395:SynaptiX_FDK/services/cJSON/cJSON.c ****     {
ARM GAS  C:\Users\DELL\AppData\Local\Temp\ccXjhdgA.s 			page 121


 3318              		.loc 1 1395 24 discriminator 1 view .LVU1004
 3319 000a 0029     		cmp	r1, #0
 3320 000c 6AD0     		beq	.L297
1400:SynaptiX_FDK/services/cJSON/cJSON.c ****     {
 3321              		.loc 1 1400 5 is_stmt 1 view .LVU1005
1400:SynaptiX_FDK/services/cJSON/cJSON.c ****     {
 3322              		.loc 1 1400 26 is_stmt 0 view .LVU1006
 3323 000e 047B     		ldrb	r4, [r0, #12]	@ zero_extendqisi2
1400:SynaptiX_FDK/services/cJSON/cJSON.c ****     {
 3324              		.loc 1 1400 5 view .LVU1007
 3325 0010 202C     		cmp	r4, #32
 3326 0012 16DC     		bgt	.L286
 3327 0014 002C     		cmp	r4, #0
 3328 0016 67D0     		beq	.L298
 3329 0018 631E     		subs	r3, r4, #1
 3330 001a 1F2B     		cmp	r3, #31
 3331 001c 66D8     		bhi	.L299
 3332 001e DFE803F0 		tbb	[pc, r3]
 3333              	.L288:
 3334 0022 36       		.byte	(.L293-.L288)/2
 3335 0023 42       		.byte	(.L292-.L288)/2
 3336 0024 65       		.byte	(.L299-.L288)/2
 3337 0025 28       		.byte	(.L291-.L288)/2
 3338 0026 65       		.byte	(.L299-.L288)/2
 3339 0027 65       		.byte	(.L299-.L288)/2
 3340 0028 65       		.byte	(.L299-.L288)/2
 3341 0029 4F       		.byte	(.L290-.L288)/2
 3342 002a 65       		.byte	(.L299-.L288)/2
 3343 002b 65       		.byte	(.L299-.L288)/2
 3344 002c 65       		.byte	(.L299-.L288)/2
 3345 002d 65       		.byte	(.L299-.L288)/2
 3346 002e 65       		.byte	(.L299-.L288)/2
 3347 002f 65       		.byte	(.L299-.L288)/2
 3348 0030 65       		.byte	(.L299-.L288)/2
 3349 0031 53       		.byte	(.L289-.L288)/2
 3350 0032 65       		.byte	(.L299-.L288)/2
 3351 0033 65       		.byte	(.L299-.L288)/2
 3352 0034 65       		.byte	(.L299-.L288)/2
 3353 0035 65       		.byte	(.L299-.L288)/2
 3354 0036 65       		.byte	(.L299-.L288)/2
 3355 0037 65       		.byte	(.L299-.L288)/2
 3356 0038 65       		.byte	(.L299-.L288)/2
 3357 0039 65       		.byte	(.L299-.L288)/2
 3358 003a 65       		.byte	(.L299-.L288)/2
 3359 003b 65       		.byte	(.L299-.L288)/2
 3360 003c 65       		.byte	(.L299-.L288)/2
 3361 003d 65       		.byte	(.L299-.L288)/2
 3362 003e 65       		.byte	(.L299-.L288)/2
 3363 003f 65       		.byte	(.L299-.L288)/2
 3364 0040 65       		.byte	(.L299-.L288)/2
 3365 0041 57       		.byte	(.L287-.L288)/2
 3366              		.p2align 1
 3367              	.L286:
 3368 0042 402C     		cmp	r4, #64
 3369 0044 48D0     		beq	.L294
 3370 0046 802C     		cmp	r4, #128
 3371 0048 11D1     		bne	.L306
ARM GAS  C:\Users\DELL\AppData\Local\Temp\ccXjhdgA.s 			page 122


 3372              	.LBB10:
1434:SynaptiX_FDK/services/cJSON/cJSON.c ****             if (item->valuestring == NULL)
 3373              		.loc 1 1434 13 is_stmt 1 view .LVU1008
 3374              	.LVL318:
1435:SynaptiX_FDK/services/cJSON/cJSON.c ****             {
 3375              		.loc 1 1435 13 view .LVU1009
1435:SynaptiX_FDK/services/cJSON/cJSON.c ****             {
 3376              		.loc 1 1435 21 is_stmt 0 view .LVU1010
 3377 004a 0069     		ldr	r0, [r0, #16]
 3378              	.LVL319:
1435:SynaptiX_FDK/services/cJSON/cJSON.c ****             {
 3379              		.loc 1 1435 16 view .LVU1011
 3380 004c 0028     		cmp	r0, #0
 3381 004e 56D0     		beq	.L303
1440:SynaptiX_FDK/services/cJSON/cJSON.c ****             output = ensure(output_buffer, raw_length);
 3382              		.loc 1 1440 13 is_stmt 1 view .LVU1012
1440:SynaptiX_FDK/services/cJSON/cJSON.c ****             output = ensure(output_buffer, raw_length);
 3383              		.loc 1 1440 26 is_stmt 0 view .LVU1013
 3384 0050 FFF7FEFF 		bl	strlen
 3385              	.LVL320:
1440:SynaptiX_FDK/services/cJSON/cJSON.c ****             output = ensure(output_buffer, raw_length);
 3386              		.loc 1 1440 24 discriminator 1 view .LVU1014
 3387 0054 441C     		adds	r4, r0, #1
 3388              	.LVL321:
1441:SynaptiX_FDK/services/cJSON/cJSON.c ****             if (output == NULL)
 3389              		.loc 1 1441 13 is_stmt 1 view .LVU1015
1441:SynaptiX_FDK/services/cJSON/cJSON.c ****             if (output == NULL)
 3390              		.loc 1 1441 22 is_stmt 0 view .LVU1016
 3391 0056 2146     		mov	r1, r4
 3392 0058 2846     		mov	r0, r5
 3393 005a FFF7FEFF 		bl	ensure
 3394              	.LVL322:
1442:SynaptiX_FDK/services/cJSON/cJSON.c ****             {
 3395              		.loc 1 1442 13 is_stmt 1 view .LVU1017
1442:SynaptiX_FDK/services/cJSON/cJSON.c ****             {
 3396              		.loc 1 1442 16 is_stmt 0 view .LVU1018
 3397 005e 0028     		cmp	r0, #0
 3398 0060 4FD0     		beq	.L304
1446:SynaptiX_FDK/services/cJSON/cJSON.c ****             return true;
 3399              		.loc 1 1446 13 is_stmt 1 view .LVU1019
 3400 0062 2246     		mov	r2, r4
 3401 0064 3169     		ldr	r1, [r6, #16]
 3402 0066 FFF7FEFF 		bl	memcpy
 3403              	.LVL323:
1447:SynaptiX_FDK/services/cJSON/cJSON.c ****         }
 3404              		.loc 1 1447 13 view .LVU1020
1447:SynaptiX_FDK/services/cJSON/cJSON.c ****         }
 3405              		.loc 1 1447 20 is_stmt 0 view .LVU1021
 3406 006a 0124     		movs	r4, #1
 3407              	.LVL324:
1447:SynaptiX_FDK/services/cJSON/cJSON.c ****         }
 3408              		.loc 1 1447 20 view .LVU1022
 3409 006c 3FE0     		b	.L284
 3410              	.LVL325:
 3411              	.L306:
1447:SynaptiX_FDK/services/cJSON/cJSON.c ****         }
 3412              		.loc 1 1447 20 view .LVU1023
ARM GAS  C:\Users\DELL\AppData\Local\Temp\ccXjhdgA.s 			page 123


 3413              	.LBE10:
1400:SynaptiX_FDK/services/cJSON/cJSON.c ****     {
 3414              		.loc 1 1400 5 view .LVU1024
 3415 006e 0024     		movs	r4, #0
 3416 0070 3DE0     		b	.L284
 3417              	.L291:
1403:SynaptiX_FDK/services/cJSON/cJSON.c ****             if (output == NULL)
 3418              		.loc 1 1403 13 is_stmt 1 view .LVU1025
1403:SynaptiX_FDK/services/cJSON/cJSON.c ****             if (output == NULL)
 3419              		.loc 1 1403 22 is_stmt 0 view .LVU1026
 3420 0072 0521     		movs	r1, #5
 3421              	.LVL326:
1403:SynaptiX_FDK/services/cJSON/cJSON.c ****             if (output == NULL)
 3422              		.loc 1 1403 22 view .LVU1027
 3423 0074 2846     		mov	r0, r5
 3424              	.LVL327:
1403:SynaptiX_FDK/services/cJSON/cJSON.c ****             if (output == NULL)
 3425              		.loc 1 1403 22 view .LVU1028
 3426 0076 FFF7FEFF 		bl	ensure
 3427              	.LVL328:
1404:SynaptiX_FDK/services/cJSON/cJSON.c ****             {
 3428              		.loc 1 1404 13 is_stmt 1 view .LVU1029
1404:SynaptiX_FDK/services/cJSON/cJSON.c ****             {
 3429              		.loc 1 1404 16 is_stmt 0 view .LVU1030
 3430 007a 0346     		mov	r3, r0
 3431 007c 0028     		cmp	r0, #0
 3432 007e 38D0     		beq	.L300
1408:SynaptiX_FDK/services/cJSON/cJSON.c ****             return true;
 3433              		.loc 1 1408 13 is_stmt 1 view .LVU1031
 3434 0080 214A     		ldr	r2, .L307
 3435 0082 1068     		ldr	r0, [r2]
 3436              	.LVL329:
1408:SynaptiX_FDK/services/cJSON/cJSON.c ****             return true;
 3437              		.loc 1 1408 13 is_stmt 0 view .LVU1032
 3438 0084 1860     		str	r0, [r3]	@ unaligned
 3439 0086 1279     		ldrb	r2, [r2, #4]	@ zero_extendqisi2
 3440 0088 1A71     		strb	r2, [r3, #4]
1409:SynaptiX_FDK/services/cJSON/cJSON.c **** 
 3441              		.loc 1 1409 13 is_stmt 1 view .LVU1033
1409:SynaptiX_FDK/services/cJSON/cJSON.c **** 
 3442              		.loc 1 1409 20 is_stmt 0 view .LVU1034
 3443 008a 0124     		movs	r4, #1
 3444 008c 2FE0     		b	.L284
 3445              	.LVL330:
 3446              	.L293:
1412:SynaptiX_FDK/services/cJSON/cJSON.c ****             if (output == NULL)
 3447              		.loc 1 1412 13 is_stmt 1 view .LVU1035
1412:SynaptiX_FDK/services/cJSON/cJSON.c ****             if (output == NULL)
 3448              		.loc 1 1412 22 is_stmt 0 view .LVU1036
 3449 008e 0621     		movs	r1, #6
 3450              	.LVL331:
1412:SynaptiX_FDK/services/cJSON/cJSON.c ****             if (output == NULL)
 3451              		.loc 1 1412 22 view .LVU1037
 3452 0090 2846     		mov	r0, r5
 3453              	.LVL332:
1412:SynaptiX_FDK/services/cJSON/cJSON.c ****             if (output == NULL)
 3454              		.loc 1 1412 22 view .LVU1038
ARM GAS  C:\Users\DELL\AppData\Local\Temp\ccXjhdgA.s 			page 124


 3455 0092 FFF7FEFF 		bl	ensure
 3456              	.LVL333:
1413:SynaptiX_FDK/services/cJSON/cJSON.c ****             {
 3457              		.loc 1 1413 13 is_stmt 1 view .LVU1039
1413:SynaptiX_FDK/services/cJSON/cJSON.c ****             {
 3458              		.loc 1 1413 16 is_stmt 0 view .LVU1040
 3459 0096 0346     		mov	r3, r0
 3460 0098 68B3     		cbz	r0, .L301
1417:SynaptiX_FDK/services/cJSON/cJSON.c ****             return true;
 3461              		.loc 1 1417 13 is_stmt 1 view .LVU1041
 3462 009a 1C4A     		ldr	r2, .L307+4
 3463 009c 1068     		ldr	r0, [r2]
 3464              	.LVL334:
1417:SynaptiX_FDK/services/cJSON/cJSON.c ****             return true;
 3465              		.loc 1 1417 13 is_stmt 0 view .LVU1042
 3466 009e 1860     		str	r0, [r3]	@ unaligned
 3467 00a0 9288     		ldrh	r2, [r2, #4]	@ unaligned
 3468 00a2 9A80     		strh	r2, [r3, #4]	@ unaligned
1418:SynaptiX_FDK/services/cJSON/cJSON.c **** 
 3469              		.loc 1 1418 13 is_stmt 1 view .LVU1043
1418:SynaptiX_FDK/services/cJSON/cJSON.c **** 
 3470              		.loc 1 1418 20 is_stmt 0 view .LVU1044
 3471 00a4 23E0     		b	.L284
 3472              	.LVL335:
 3473              	.L292:
1421:SynaptiX_FDK/services/cJSON/cJSON.c ****             if (output == NULL)
 3474              		.loc 1 1421 13 is_stmt 1 view .LVU1045
1421:SynaptiX_FDK/services/cJSON/cJSON.c ****             if (output == NULL)
 3475              		.loc 1 1421 22 is_stmt 0 view .LVU1046
 3476 00a6 0521     		movs	r1, #5
 3477              	.LVL336:
1421:SynaptiX_FDK/services/cJSON/cJSON.c ****             if (output == NULL)
 3478              		.loc 1 1421 22 view .LVU1047
 3479 00a8 2846     		mov	r0, r5
 3480              	.LVL337:
1421:SynaptiX_FDK/services/cJSON/cJSON.c ****             if (output == NULL)
 3481              		.loc 1 1421 22 view .LVU1048
 3482 00aa FFF7FEFF 		bl	ensure
 3483              	.LVL338:
1422:SynaptiX_FDK/services/cJSON/cJSON.c ****             {
 3484              		.loc 1 1422 13 is_stmt 1 view .LVU1049
1422:SynaptiX_FDK/services/cJSON/cJSON.c ****             {
 3485              		.loc 1 1422 16 is_stmt 0 view .LVU1050
 3486 00ae 0346     		mov	r3, r0
 3487 00b0 18B3     		cbz	r0, .L302
1426:SynaptiX_FDK/services/cJSON/cJSON.c ****             return true;
 3488              		.loc 1 1426 13 is_stmt 1 view .LVU1051
 3489 00b2 174A     		ldr	r2, .L307+8
 3490 00b4 1068     		ldr	r0, [r2]
 3491              	.LVL339:
1426:SynaptiX_FDK/services/cJSON/cJSON.c ****             return true;
 3492              		.loc 1 1426 13 is_stmt 0 view .LVU1052
 3493 00b6 1860     		str	r0, [r3]	@ unaligned
 3494 00b8 1279     		ldrb	r2, [r2, #4]	@ zero_extendqisi2
 3495 00ba 1A71     		strb	r2, [r3, #4]
1427:SynaptiX_FDK/services/cJSON/cJSON.c **** 
 3496              		.loc 1 1427 13 is_stmt 1 view .LVU1053
ARM GAS  C:\Users\DELL\AppData\Local\Temp\ccXjhdgA.s 			page 125


1427:SynaptiX_FDK/services/cJSON/cJSON.c **** 
 3497              		.loc 1 1427 20 is_stmt 0 view .LVU1054
 3498 00bc 0124     		movs	r4, #1
 3499 00be 16E0     		b	.L284
 3500              	.LVL340:
 3501              	.L290:
1430:SynaptiX_FDK/services/cJSON/cJSON.c **** 
 3502              		.loc 1 1430 13 is_stmt 1 view .LVU1055
1430:SynaptiX_FDK/services/cJSON/cJSON.c **** 
 3503              		.loc 1 1430 20 is_stmt 0 view .LVU1056
 3504 00c0 FFF7FEFF 		bl	print_number
 3505              	.LVL341:
1430:SynaptiX_FDK/services/cJSON/cJSON.c **** 
 3506              		.loc 1 1430 20 view .LVU1057
 3507 00c4 0446     		mov	r4, r0
 3508 00c6 12E0     		b	.L284
 3509              	.LVL342:
 3510              	.L289:
1451:SynaptiX_FDK/services/cJSON/cJSON.c **** 
 3511              		.loc 1 1451 13 is_stmt 1 view .LVU1058
1451:SynaptiX_FDK/services/cJSON/cJSON.c **** 
 3512              		.loc 1 1451 20 is_stmt 0 view .LVU1059
 3513 00c8 FFF7FEFF 		bl	print_string
 3514              	.LVL343:
1451:SynaptiX_FDK/services/cJSON/cJSON.c **** 
 3515              		.loc 1 1451 20 view .LVU1060
 3516 00cc 0446     		mov	r4, r0
 3517 00ce 0EE0     		b	.L284
 3518              	.LVL344:
 3519              	.L287:
1454:SynaptiX_FDK/services/cJSON/cJSON.c **** 
 3520              		.loc 1 1454 13 is_stmt 1 view .LVU1061
1454:SynaptiX_FDK/services/cJSON/cJSON.c **** 
 3521              		.loc 1 1454 20 is_stmt 0 view .LVU1062
 3522 00d0 FFF7FEFF 		bl	print_array
 3523              	.LVL345:
1454:SynaptiX_FDK/services/cJSON/cJSON.c **** 
 3524              		.loc 1 1454 20 view .LVU1063
 3525 00d4 0446     		mov	r4, r0
 3526 00d6 0AE0     		b	.L284
 3527              	.LVL346:
 3528              	.L294:
1457:SynaptiX_FDK/services/cJSON/cJSON.c **** 
 3529              		.loc 1 1457 13 is_stmt 1 view .LVU1064
1457:SynaptiX_FDK/services/cJSON/cJSON.c **** 
 3530              		.loc 1 1457 20 is_stmt 0 view .LVU1065
 3531 00d8 FFF7FEFF 		bl	print_object
 3532              	.LVL347:
1457:SynaptiX_FDK/services/cJSON/cJSON.c **** 
 3533              		.loc 1 1457 20 view .LVU1066
 3534 00dc 0446     		mov	r4, r0
 3535 00de 06E0     		b	.L284
 3536              	.LVL348:
 3537              	.L296:
1397:SynaptiX_FDK/services/cJSON/cJSON.c ****     }
 3538              		.loc 1 1397 16 view .LVU1067
 3539 00e0 0024     		movs	r4, #0
ARM GAS  C:\Users\DELL\AppData\Local\Temp\ccXjhdgA.s 			page 126


 3540 00e2 04E0     		b	.L284
 3541              	.L297:
1397:SynaptiX_FDK/services/cJSON/cJSON.c ****     }
 3542              		.loc 1 1397 16 view .LVU1068
 3543 00e4 0024     		movs	r4, #0
 3544 00e6 02E0     		b	.L284
 3545              	.L298:
1400:SynaptiX_FDK/services/cJSON/cJSON.c ****     {
 3546              		.loc 1 1400 5 view .LVU1069
 3547 00e8 0024     		movs	r4, #0
 3548 00ea 00E0     		b	.L284
 3549              	.L299:
 3550 00ec 0024     		movs	r4, #0
 3551              	.LVL349:
 3552              	.L284:
1462:SynaptiX_FDK/services/cJSON/cJSON.c **** 
 3553              		.loc 1 1462 1 view .LVU1070
 3554 00ee 2046     		mov	r0, r4
 3555 00f0 70BD     		pop	{r4, r5, r6, pc}
 3556              	.LVL350:
 3557              	.L300:
1406:SynaptiX_FDK/services/cJSON/cJSON.c ****             }
 3558              		.loc 1 1406 24 view .LVU1071
 3559 00f2 0024     		movs	r4, #0
 3560 00f4 FBE7     		b	.L284
 3561              	.L301:
1415:SynaptiX_FDK/services/cJSON/cJSON.c ****             }
 3562              		.loc 1 1415 24 view .LVU1072
 3563 00f6 0024     		movs	r4, #0
 3564 00f8 F9E7     		b	.L284
 3565              	.L302:
1424:SynaptiX_FDK/services/cJSON/cJSON.c ****             }
 3566              		.loc 1 1424 24 view .LVU1073
 3567 00fa 0024     		movs	r4, #0
 3568 00fc F7E7     		b	.L284
 3569              	.LVL351:
 3570              	.L303:
 3571              	.LBB11:
1437:SynaptiX_FDK/services/cJSON/cJSON.c ****             }
 3572              		.loc 1 1437 24 view .LVU1074
 3573 00fe 0024     		movs	r4, #0
 3574 0100 F5E7     		b	.L284
 3575              	.LVL352:
 3576              	.L304:
1444:SynaptiX_FDK/services/cJSON/cJSON.c ****             }
 3577              		.loc 1 1444 24 view .LVU1075
 3578 0102 0024     		movs	r4, #0
 3579              	.LVL353:
1444:SynaptiX_FDK/services/cJSON/cJSON.c ****             }
 3580              		.loc 1 1444 24 view .LVU1076
 3581 0104 F3E7     		b	.L284
 3582              	.L308:
 3583 0106 00BF     		.align	2
 3584              	.L307:
 3585 0108 00000000 		.word	.LC3
 3586 010c 00000000 		.word	.LC7
 3587 0110 08000000 		.word	.LC8
ARM GAS  C:\Users\DELL\AppData\Local\Temp\ccXjhdgA.s 			page 127


 3588              	.LBE11:
 3589              		.cfi_endproc
 3590              	.LFE38:
 3592              		.section	.text.print,"ax",%progbits
 3593              		.align	1
 3594              		.syntax unified
 3595              		.thumb
 3596              		.thumb_func
 3598              	print:
 3599              	.LVL354:
 3600              	.LFB32:
1208:SynaptiX_FDK/services/cJSON/cJSON.c ****     static const size_t default_buffer_size = 256;
 3601              		.loc 1 1208 1 is_stmt 1 view -0
 3602              		.cfi_startproc
 3603              		@ args = 0, pretend = 0, frame = 40
 3604              		@ frame_needed = 0, uses_anonymous_args = 0
1208:SynaptiX_FDK/services/cJSON/cJSON.c ****     static const size_t default_buffer_size = 256;
 3605              		.loc 1 1208 1 is_stmt 0 view .LVU1078
 3606 0000 70B5     		push	{r4, r5, r6, lr}
 3607              	.LCFI37:
 3608              		.cfi_def_cfa_offset 16
 3609              		.cfi_offset 4, -16
 3610              		.cfi_offset 5, -12
 3611              		.cfi_offset 6, -8
 3612              		.cfi_offset 14, -4
 3613 0002 8AB0     		sub	sp, sp, #40
 3614              	.LCFI38:
 3615              		.cfi_def_cfa_offset 56
 3616 0004 0646     		mov	r6, r0
 3617 0006 0D46     		mov	r5, r1
 3618 0008 1446     		mov	r4, r2
1209:SynaptiX_FDK/services/cJSON/cJSON.c ****     printbuffer buffer[1];
 3619              		.loc 1 1209 5 is_stmt 1 view .LVU1079
1210:SynaptiX_FDK/services/cJSON/cJSON.c ****     unsigned char *printed = NULL;
 3620              		.loc 1 1210 5 view .LVU1080
1211:SynaptiX_FDK/services/cJSON/cJSON.c **** 
 3621              		.loc 1 1211 5 view .LVU1081
 3622              	.LVL355:
1213:SynaptiX_FDK/services/cJSON/cJSON.c **** 
 3623              		.loc 1 1213 5 view .LVU1082
 3624 000a 2422     		movs	r2, #36
 3625              	.LVL356:
1213:SynaptiX_FDK/services/cJSON/cJSON.c **** 
 3626              		.loc 1 1213 5 is_stmt 0 view .LVU1083
 3627 000c 0021     		movs	r1, #0
 3628              	.LVL357:
1213:SynaptiX_FDK/services/cJSON/cJSON.c **** 
 3629              		.loc 1 1213 5 view .LVU1084
 3630 000e 01A8     		add	r0, sp, #4
 3631              	.LVL358:
1213:SynaptiX_FDK/services/cJSON/cJSON.c **** 
 3632              		.loc 1 1213 5 view .LVU1085
 3633 0010 FFF7FEFF 		bl	memset
 3634              	.LVL359:
1216:SynaptiX_FDK/services/cJSON/cJSON.c ****     buffer->length = default_buffer_size;
 3635              		.loc 1 1216 5 is_stmt 1 view .LVU1086
1216:SynaptiX_FDK/services/cJSON/cJSON.c ****     buffer->length = default_buffer_size;
ARM GAS  C:\Users\DELL\AppData\Local\Temp\ccXjhdgA.s 			page 128


 3636              		.loc 1 1216 44 is_stmt 0 view .LVU1087
 3637 0014 2368     		ldr	r3, [r4]
1216:SynaptiX_FDK/services/cJSON/cJSON.c ****     buffer->length = default_buffer_size;
 3638              		.loc 1 1216 39 view .LVU1088
 3639 0016 4FF48070 		mov	r0, #256
 3640 001a 9847     		blx	r3
 3641              	.LVL360:
 3642 001c 0346     		mov	r3, r0
1216:SynaptiX_FDK/services/cJSON/cJSON.c ****     buffer->length = default_buffer_size;
 3643              		.loc 1 1216 20 discriminator 1 view .LVU1089
 3644 001e 0190     		str	r0, [sp, #4]
1217:SynaptiX_FDK/services/cJSON/cJSON.c ****     buffer->format = format;
 3645              		.loc 1 1217 5 is_stmt 1 view .LVU1090
1217:SynaptiX_FDK/services/cJSON/cJSON.c ****     buffer->format = format;
 3646              		.loc 1 1217 20 is_stmt 0 view .LVU1091
 3647 0020 4FF48072 		mov	r2, #256
 3648 0024 0292     		str	r2, [sp, #8]
1218:SynaptiX_FDK/services/cJSON/cJSON.c ****     buffer->hooks = *hooks;
 3649              		.loc 1 1218 5 is_stmt 1 view .LVU1092
1218:SynaptiX_FDK/services/cJSON/cJSON.c ****     buffer->hooks = *hooks;
 3650              		.loc 1 1218 20 is_stmt 0 view .LVU1093
 3651 0026 0695     		str	r5, [sp, #24]
1219:SynaptiX_FDK/services/cJSON/cJSON.c ****     if (buffer->buffer == NULL)
 3652              		.loc 1 1219 5 is_stmt 1 view .LVU1094
1219:SynaptiX_FDK/services/cJSON/cJSON.c ****     if (buffer->buffer == NULL)
 3653              		.loc 1 1219 19 is_stmt 0 view .LVU1095
 3654 0028 94E80700 		ldm	r4, {r0, r1, r2}
 3655 002c 0AAD     		add	r5, sp, #40
 3656              	.LVL361:
1219:SynaptiX_FDK/services/cJSON/cJSON.c ****     if (buffer->buffer == NULL)
 3657              		.loc 1 1219 19 view .LVU1096
 3658 002e 05E90700 		stmdb	r5, {r0, r1, r2}
1220:SynaptiX_FDK/services/cJSON/cJSON.c ****     {
 3659              		.loc 1 1220 5 is_stmt 1 view .LVU1097
1220:SynaptiX_FDK/services/cJSON/cJSON.c ****     {
 3660              		.loc 1 1220 8 is_stmt 0 view .LVU1098
 3661 0032 23B1     		cbz	r3, .L310
1226:SynaptiX_FDK/services/cJSON/cJSON.c ****     {
 3662              		.loc 1 1226 5 is_stmt 1 view .LVU1099
1226:SynaptiX_FDK/services/cJSON/cJSON.c ****     {
 3663              		.loc 1 1226 10 is_stmt 0 view .LVU1100
 3664 0034 01A9     		add	r1, sp, #4
 3665 0036 3046     		mov	r0, r6
 3666 0038 FFF7FEFF 		bl	print_value
 3667              	.LVL362:
1226:SynaptiX_FDK/services/cJSON/cJSON.c ****     {
 3668              		.loc 1 1226 8 discriminator 1 view .LVU1101
 3669 003c 48B9     		cbnz	r0, .L314
 3670              	.LVL363:
 3671              	.L310:
1259:SynaptiX_FDK/services/cJSON/cJSON.c ****     {
 3672              		.loc 1 1259 5 is_stmt 1 view .LVU1102
1259:SynaptiX_FDK/services/cJSON/cJSON.c ****     {
 3673              		.loc 1 1259 15 is_stmt 0 view .LVU1103
 3674 003e 019D     		ldr	r5, [sp, #4]
1259:SynaptiX_FDK/services/cJSON/cJSON.c ****     {
 3675              		.loc 1 1259 8 view .LVU1104
ARM GAS  C:\Users\DELL\AppData\Local\Temp\ccXjhdgA.s 			page 129


 3676 0040 25B1     		cbz	r5, .L309
1261:SynaptiX_FDK/services/cJSON/cJSON.c ****         buffer->buffer = NULL;
 3677              		.loc 1 1261 9 is_stmt 1 view .LVU1105
1261:SynaptiX_FDK/services/cJSON/cJSON.c ****         buffer->buffer = NULL;
 3678              		.loc 1 1261 14 is_stmt 0 view .LVU1106
 3679 0042 6368     		ldr	r3, [r4, #4]
1261:SynaptiX_FDK/services/cJSON/cJSON.c ****         buffer->buffer = NULL;
 3680              		.loc 1 1261 9 view .LVU1107
 3681 0044 2846     		mov	r0, r5
 3682 0046 9847     		blx	r3
 3683              	.LVL364:
1262:SynaptiX_FDK/services/cJSON/cJSON.c ****     }
 3684              		.loc 1 1262 9 is_stmt 1 view .LVU1108
1262:SynaptiX_FDK/services/cJSON/cJSON.c ****     }
 3685              		.loc 1 1262 24 is_stmt 0 view .LVU1109
 3686 0048 0025     		movs	r5, #0
 3687 004a 0195     		str	r5, [sp, #4]
 3688              	.LVL365:
 3689              	.L309:
1272:SynaptiX_FDK/services/cJSON/cJSON.c **** 
 3690              		.loc 1 1272 1 view .LVU1110
 3691 004c 2846     		mov	r0, r5
 3692 004e 0AB0     		add	sp, sp, #40
 3693              	.LCFI39:
 3694              		.cfi_remember_state
 3695              		.cfi_def_cfa_offset 16
 3696              		@ sp needed
 3697 0050 70BD     		pop	{r4, r5, r6, pc}
 3698              	.LVL366:
 3699              	.L314:
 3700              	.LCFI40:
 3701              		.cfi_restore_state
1230:SynaptiX_FDK/services/cJSON/cJSON.c **** 
 3702              		.loc 1 1230 5 is_stmt 1 view .LVU1111
 3703 0052 01A8     		add	r0, sp, #4
 3704 0054 FFF7FEFF 		bl	update_offset
 3705              	.LVL367:
1233:SynaptiX_FDK/services/cJSON/cJSON.c ****     {
 3706              		.loc 1 1233 5 view .LVU1112
1233:SynaptiX_FDK/services/cJSON/cJSON.c ****     {
 3707              		.loc 1 1233 14 is_stmt 0 view .LVU1113
 3708 0058 A368     		ldr	r3, [r4, #8]
1233:SynaptiX_FDK/services/cJSON/cJSON.c ****     {
 3709              		.loc 1 1233 8 view .LVU1114
 3710 005a 4BB1     		cbz	r3, .L311
1235:SynaptiX_FDK/services/cJSON/cJSON.c ****         if (printed == NULL) {
 3711              		.loc 1 1235 9 is_stmt 1 view .LVU1115
1235:SynaptiX_FDK/services/cJSON/cJSON.c ****         if (printed == NULL) {
 3712              		.loc 1 1235 36 is_stmt 0 view .LVU1116
 3713 005c 0399     		ldr	r1, [sp, #12]
 3714 005e 0131     		adds	r1, r1, #1
 3715 0060 0198     		ldr	r0, [sp, #4]
 3716 0062 9847     		blx	r3
 3717              	.LVL368:
1236:SynaptiX_FDK/services/cJSON/cJSON.c ****             goto fail;
 3718              		.loc 1 1236 9 is_stmt 1 view .LVU1117
1236:SynaptiX_FDK/services/cJSON/cJSON.c ****             goto fail;
ARM GAS  C:\Users\DELL\AppData\Local\Temp\ccXjhdgA.s 			page 130


 3719              		.loc 1 1236 12 is_stmt 0 view .LVU1118
 3720 0064 0546     		mov	r5, r0
 3721 0066 0028     		cmp	r0, #0
 3722 0068 E9D0     		beq	.L310
1239:SynaptiX_FDK/services/cJSON/cJSON.c ****     }
 3723              		.loc 1 1239 9 is_stmt 1 view .LVU1119
1239:SynaptiX_FDK/services/cJSON/cJSON.c ****     }
 3724              		.loc 1 1239 24 is_stmt 0 view .LVU1120
 3725 006a 0023     		movs	r3, #0
 3726 006c 0193     		str	r3, [sp, #4]
 3727 006e EDE7     		b	.L309
 3728              	.LVL369:
 3729              	.L311:
1243:SynaptiX_FDK/services/cJSON/cJSON.c ****         if (printed == NULL)
 3730              		.loc 1 1243 9 is_stmt 1 view .LVU1121
1243:SynaptiX_FDK/services/cJSON/cJSON.c ****         if (printed == NULL)
 3731              		.loc 1 1243 41 is_stmt 0 view .LVU1122
 3732 0070 2368     		ldr	r3, [r4]
1243:SynaptiX_FDK/services/cJSON/cJSON.c ****         if (printed == NULL)
 3733              		.loc 1 1243 36 view .LVU1123
 3734 0072 0398     		ldr	r0, [sp, #12]
 3735 0074 0130     		adds	r0, r0, #1
 3736 0076 9847     		blx	r3
 3737              	.LVL370:
1244:SynaptiX_FDK/services/cJSON/cJSON.c ****         {
 3738              		.loc 1 1244 9 is_stmt 1 view .LVU1124
1244:SynaptiX_FDK/services/cJSON/cJSON.c ****         {
 3739              		.loc 1 1244 12 is_stmt 0 view .LVU1125
 3740 0078 0546     		mov	r5, r0
 3741 007a 0028     		cmp	r0, #0
 3742 007c DFD0     		beq	.L310
1248:SynaptiX_FDK/services/cJSON/cJSON.c ****         printed[buffer->offset] = '\0'; /* just to be sure */
 3743              		.loc 1 1248 9 is_stmt 1 view .LVU1126
1248:SynaptiX_FDK/services/cJSON/cJSON.c ****         printed[buffer->offset] = '\0'; /* just to be sure */
 3744              		.loc 1 1248 41 is_stmt 0 view .LVU1127
 3745 007e 039A     		ldr	r2, [sp, #12]
 3746 0080 0132     		adds	r2, r2, #1
1248:SynaptiX_FDK/services/cJSON/cJSON.c ****         printed[buffer->offset] = '\0'; /* just to be sure */
 3747              		.loc 1 1248 9 view .LVU1128
 3748 0082 029B     		ldr	r3, [sp, #8]
 3749 0084 9A42     		cmp	r2, r3
 3750 0086 28BF     		it	cs
 3751 0088 1A46     		movcs	r2, r3
 3752 008a 0199     		ldr	r1, [sp, #4]
 3753 008c FFF7FEFF 		bl	memcpy
 3754              	.LVL371:
1249:SynaptiX_FDK/services/cJSON/cJSON.c **** 
 3755              		.loc 1 1249 9 is_stmt 1 view .LVU1129
1249:SynaptiX_FDK/services/cJSON/cJSON.c **** 
 3756              		.loc 1 1249 33 is_stmt 0 view .LVU1130
 3757 0090 0026     		movs	r6, #0
 3758              	.LVL372:
1249:SynaptiX_FDK/services/cJSON/cJSON.c **** 
 3759              		.loc 1 1249 33 view .LVU1131
 3760 0092 039B     		ldr	r3, [sp, #12]
 3761 0094 EE54     		strb	r6, [r5, r3]
1252:SynaptiX_FDK/services/cJSON/cJSON.c ****         buffer->buffer = NULL;
ARM GAS  C:\Users\DELL\AppData\Local\Temp\ccXjhdgA.s 			page 131


 3762              		.loc 1 1252 9 is_stmt 1 view .LVU1132
1252:SynaptiX_FDK/services/cJSON/cJSON.c ****         buffer->buffer = NULL;
 3763              		.loc 1 1252 14 is_stmt 0 view .LVU1133
 3764 0096 6368     		ldr	r3, [r4, #4]
1252:SynaptiX_FDK/services/cJSON/cJSON.c ****         buffer->buffer = NULL;
 3765              		.loc 1 1252 9 view .LVU1134
 3766 0098 0198     		ldr	r0, [sp, #4]
 3767 009a 9847     		blx	r3
 3768              	.LVL373:
1253:SynaptiX_FDK/services/cJSON/cJSON.c ****     }
 3769              		.loc 1 1253 9 is_stmt 1 view .LVU1135
1253:SynaptiX_FDK/services/cJSON/cJSON.c ****     }
 3770              		.loc 1 1253 24 is_stmt 0 view .LVU1136
 3771 009c 0196     		str	r6, [sp, #4]
 3772 009e D5E7     		b	.L309
 3773              		.cfi_endproc
 3774              	.LFE32:
 3776              		.section	.text.print_array,"ax",%progbits
 3777              		.align	1
 3778              		.syntax unified
 3779              		.thumb
 3780              		.thumb_func
 3782              	print_array:
 3783              	.LVL374:
 3784              	.LFB40:
1564:SynaptiX_FDK/services/cJSON/cJSON.c ****     unsigned char *output_pointer = NULL;
 3785              		.loc 1 1564 1 is_stmt 1 view -0
 3786              		.cfi_startproc
 3787              		@ args = 0, pretend = 0, frame = 0
 3788              		@ frame_needed = 0, uses_anonymous_args = 0
1564:SynaptiX_FDK/services/cJSON/cJSON.c ****     unsigned char *output_pointer = NULL;
 3789              		.loc 1 1564 1 is_stmt 0 view .LVU1138
 3790 0000 70B5     		push	{r4, r5, r6, lr}
 3791              	.LCFI41:
 3792              		.cfi_def_cfa_offset 16
 3793              		.cfi_offset 4, -16
 3794              		.cfi_offset 5, -12
 3795              		.cfi_offset 6, -8
 3796              		.cfi_offset 14, -4
1565:SynaptiX_FDK/services/cJSON/cJSON.c ****     size_t length = 0;
 3797              		.loc 1 1565 5 is_stmt 1 view .LVU1139
 3798              	.LVL375:
1566:SynaptiX_FDK/services/cJSON/cJSON.c ****     cJSON *current_element = item->child;
 3799              		.loc 1 1566 5 view .LVU1140
1567:SynaptiX_FDK/services/cJSON/cJSON.c **** 
 3800              		.loc 1 1567 5 view .LVU1141
1567:SynaptiX_FDK/services/cJSON/cJSON.c **** 
 3801              		.loc 1 1567 12 is_stmt 0 view .LVU1142
 3802 0002 8568     		ldr	r5, [r0, #8]
 3803              	.LVL376:
1569:SynaptiX_FDK/services/cJSON/cJSON.c ****     {
 3804              		.loc 1 1569 5 is_stmt 1 view .LVU1143
1569:SynaptiX_FDK/services/cJSON/cJSON.c ****     {
 3805              		.loc 1 1569 8 is_stmt 0 view .LVU1144
 3806 0004 0029     		cmp	r1, #0
 3807 0006 46D0     		beq	.L322
 3808 0008 0C46     		mov	r4, r1
ARM GAS  C:\Users\DELL\AppData\Local\Temp\ccXjhdgA.s 			page 132


1576:SynaptiX_FDK/services/cJSON/cJSON.c ****     if (output_pointer == NULL)
 3809              		.loc 1 1576 5 is_stmt 1 view .LVU1145
1576:SynaptiX_FDK/services/cJSON/cJSON.c ****     if (output_pointer == NULL)
 3810              		.loc 1 1576 22 is_stmt 0 view .LVU1146
 3811 000a 0121     		movs	r1, #1
 3812              	.LVL377:
1576:SynaptiX_FDK/services/cJSON/cJSON.c ****     if (output_pointer == NULL)
 3813              		.loc 1 1576 22 view .LVU1147
 3814 000c 2046     		mov	r0, r4
 3815              	.LVL378:
1576:SynaptiX_FDK/services/cJSON/cJSON.c ****     if (output_pointer == NULL)
 3816              		.loc 1 1576 22 view .LVU1148
 3817 000e FFF7FEFF 		bl	ensure
 3818              	.LVL379:
1577:SynaptiX_FDK/services/cJSON/cJSON.c ****     {
 3819              		.loc 1 1577 5 is_stmt 1 view .LVU1149
1577:SynaptiX_FDK/services/cJSON/cJSON.c ****     {
 3820              		.loc 1 1577 8 is_stmt 0 view .LVU1150
 3821 0012 0028     		cmp	r0, #0
 3822 0014 42D0     		beq	.L323
1582:SynaptiX_FDK/services/cJSON/cJSON.c ****     output_buffer->offset++;
 3823              		.loc 1 1582 5 is_stmt 1 view .LVU1151
1582:SynaptiX_FDK/services/cJSON/cJSON.c ****     output_buffer->offset++;
 3824              		.loc 1 1582 21 is_stmt 0 view .LVU1152
 3825 0016 5B22     		movs	r2, #91
 3826 0018 0270     		strb	r2, [r0]
1583:SynaptiX_FDK/services/cJSON/cJSON.c ****     output_buffer->depth++;
 3827              		.loc 1 1583 5 is_stmt 1 view .LVU1153
1583:SynaptiX_FDK/services/cJSON/cJSON.c ****     output_buffer->depth++;
 3828              		.loc 1 1583 18 is_stmt 0 view .LVU1154
 3829 001a A368     		ldr	r3, [r4, #8]
1583:SynaptiX_FDK/services/cJSON/cJSON.c ****     output_buffer->depth++;
 3830              		.loc 1 1583 26 view .LVU1155
 3831 001c 0133     		adds	r3, r3, #1
 3832 001e A360     		str	r3, [r4, #8]
1584:SynaptiX_FDK/services/cJSON/cJSON.c **** 
 3833              		.loc 1 1584 5 is_stmt 1 view .LVU1156
1584:SynaptiX_FDK/services/cJSON/cJSON.c **** 
 3834              		.loc 1 1584 18 is_stmt 0 view .LVU1157
 3835 0020 E368     		ldr	r3, [r4, #12]
1584:SynaptiX_FDK/services/cJSON/cJSON.c **** 
 3836              		.loc 1 1584 25 view .LVU1158
 3837 0022 0133     		adds	r3, r3, #1
 3838 0024 E360     		str	r3, [r4, #12]
1586:SynaptiX_FDK/services/cJSON/cJSON.c ****     {
 3839              		.loc 1 1586 5 is_stmt 1 view .LVU1159
1586:SynaptiX_FDK/services/cJSON/cJSON.c ****     {
 3840              		.loc 1 1586 11 is_stmt 0 view .LVU1160
 3841 0026 07E0     		b	.L317
 3842              	.LVL380:
 3843              	.L324:
1595:SynaptiX_FDK/services/cJSON/cJSON.c ****             output_pointer = ensure(output_buffer, length + 1);
 3844              		.loc 1 1595 22 discriminator 2 view .LVU1161
 3845 0028 0126     		movs	r6, #1
 3846 002a 16E0     		b	.L319
 3847              	.LVL381:
 3848              	.L320:
ARM GAS  C:\Users\DELL\AppData\Local\Temp\ccXjhdgA.s 			page 133


1606:SynaptiX_FDK/services/cJSON/cJSON.c ****             output_buffer->offset += length;
 3849              		.loc 1 1606 13 is_stmt 1 view .LVU1162
1606:SynaptiX_FDK/services/cJSON/cJSON.c ****             output_buffer->offset += length;
 3850              		.loc 1 1606 29 is_stmt 0 view .LVU1163
 3851 002c 0022     		movs	r2, #0
 3852 002e 1A70     		strb	r2, [r3]
1607:SynaptiX_FDK/services/cJSON/cJSON.c ****         }
 3853              		.loc 1 1607 13 is_stmt 1 view .LVU1164
1607:SynaptiX_FDK/services/cJSON/cJSON.c ****         }
 3854              		.loc 1 1607 26 is_stmt 0 view .LVU1165
 3855 0030 A368     		ldr	r3, [r4, #8]
 3856              	.LVL382:
1607:SynaptiX_FDK/services/cJSON/cJSON.c ****         }
 3857              		.loc 1 1607 35 view .LVU1166
 3858 0032 3344     		add	r3, r3, r6
 3859 0034 A360     		str	r3, [r4, #8]
 3860              	.LVL383:
 3861              	.L318:
1609:SynaptiX_FDK/services/cJSON/cJSON.c ****     }
 3862              		.loc 1 1609 9 is_stmt 1 view .LVU1167
1609:SynaptiX_FDK/services/cJSON/cJSON.c ****     }
 3863              		.loc 1 1609 25 is_stmt 0 view .LVU1168
 3864 0036 2D68     		ldr	r5, [r5]
 3865              	.LVL384:
 3866              	.L317:
1586:SynaptiX_FDK/services/cJSON/cJSON.c ****     {
 3867              		.loc 1 1586 28 is_stmt 1 view .LVU1169
 3868 0038 FDB1     		cbz	r5, .L328
1588:SynaptiX_FDK/services/cJSON/cJSON.c ****         {
 3869              		.loc 1 1588 9 view .LVU1170
1588:SynaptiX_FDK/services/cJSON/cJSON.c ****         {
 3870              		.loc 1 1588 14 is_stmt 0 view .LVU1171
 3871 003a 2146     		mov	r1, r4
 3872 003c 2846     		mov	r0, r5
 3873 003e FFF7FEFF 		bl	print_value
 3874              	.LVL385:
1588:SynaptiX_FDK/services/cJSON/cJSON.c ****         {
 3875              		.loc 1 1588 12 discriminator 1 view .LVU1172
 3876 0042 0346     		mov	r3, r0
 3877 0044 40B3     		cbz	r0, .L315
1592:SynaptiX_FDK/services/cJSON/cJSON.c ****         if (current_element->next)
 3878              		.loc 1 1592 9 is_stmt 1 view .LVU1173
 3879 0046 2046     		mov	r0, r4
 3880 0048 FFF7FEFF 		bl	update_offset
 3881              	.LVL386:
1593:SynaptiX_FDK/services/cJSON/cJSON.c ****         {
 3882              		.loc 1 1593 9 view .LVU1174
1593:SynaptiX_FDK/services/cJSON/cJSON.c ****         {
 3883              		.loc 1 1593 28 is_stmt 0 view .LVU1175
 3884 004c 2B68     		ldr	r3, [r5]
1593:SynaptiX_FDK/services/cJSON/cJSON.c ****         {
 3885              		.loc 1 1593 12 view .LVU1176
 3886 004e 002B     		cmp	r3, #0
 3887 0050 F1D0     		beq	.L318
1595:SynaptiX_FDK/services/cJSON/cJSON.c ****             output_pointer = ensure(output_buffer, length + 1);
 3888              		.loc 1 1595 13 is_stmt 1 view .LVU1177
1595:SynaptiX_FDK/services/cJSON/cJSON.c ****             output_pointer = ensure(output_buffer, length + 1);
ARM GAS  C:\Users\DELL\AppData\Local\Temp\ccXjhdgA.s 			page 134


 3889              		.loc 1 1595 45 is_stmt 0 view .LVU1178
 3890 0052 6369     		ldr	r3, [r4, #20]
1595:SynaptiX_FDK/services/cJSON/cJSON.c ****             output_pointer = ensure(output_buffer, length + 1);
 3891              		.loc 1 1595 22 view .LVU1179
 3892 0054 002B     		cmp	r3, #0
 3893 0056 E7D0     		beq	.L324
1595:SynaptiX_FDK/services/cJSON/cJSON.c ****             output_pointer = ensure(output_buffer, length + 1);
 3894              		.loc 1 1595 22 discriminator 1 view .LVU1180
 3895 0058 0226     		movs	r6, #2
 3896              	.L319:
 3897              	.LVL387:
1596:SynaptiX_FDK/services/cJSON/cJSON.c ****             if (output_pointer == NULL)
 3898              		.loc 1 1596 13 is_stmt 1 view .LVU1181
1596:SynaptiX_FDK/services/cJSON/cJSON.c ****             if (output_pointer == NULL)
 3899              		.loc 1 1596 30 is_stmt 0 view .LVU1182
 3900 005a 711C     		adds	r1, r6, #1
 3901 005c 2046     		mov	r0, r4
 3902 005e FFF7FEFF 		bl	ensure
 3903              	.LVL388:
1597:SynaptiX_FDK/services/cJSON/cJSON.c ****             {
 3904              		.loc 1 1597 13 is_stmt 1 view .LVU1183
1597:SynaptiX_FDK/services/cJSON/cJSON.c ****             {
 3905              		.loc 1 1597 16 is_stmt 0 view .LVU1184
 3906 0062 E8B1     		cbz	r0, .L325
1601:SynaptiX_FDK/services/cJSON/cJSON.c ****             if(output_buffer->format)
 3907              		.loc 1 1601 13 is_stmt 1 view .LVU1185
1601:SynaptiX_FDK/services/cJSON/cJSON.c ****             if(output_buffer->format)
 3908              		.loc 1 1601 28 is_stmt 0 view .LVU1186
 3909 0064 0346     		mov	r3, r0
 3910              	.LVL389:
1601:SynaptiX_FDK/services/cJSON/cJSON.c ****             if(output_buffer->format)
 3911              		.loc 1 1601 31 view .LVU1187
 3912 0066 2C21     		movs	r1, #44
 3913 0068 03F8011B 		strb	r1, [r3], #1
 3914              	.LVL390:
1602:SynaptiX_FDK/services/cJSON/cJSON.c ****             {
 3915              		.loc 1 1602 13 is_stmt 1 view .LVU1188
1602:SynaptiX_FDK/services/cJSON/cJSON.c ****             {
 3916              		.loc 1 1602 29 is_stmt 0 view .LVU1189
 3917 006c 6169     		ldr	r1, [r4, #20]
1602:SynaptiX_FDK/services/cJSON/cJSON.c ****             {
 3918              		.loc 1 1602 15 view .LVU1190
 3919 006e 0029     		cmp	r1, #0
 3920 0070 DCD0     		beq	.L320
1604:SynaptiX_FDK/services/cJSON/cJSON.c ****             }
 3921              		.loc 1 1604 17 is_stmt 1 view .LVU1191
1604:SynaptiX_FDK/services/cJSON/cJSON.c ****             }
 3922              		.loc 1 1604 32 is_stmt 0 view .LVU1192
 3923 0072 831C     		adds	r3, r0, #2
 3924              	.LVL391:
1604:SynaptiX_FDK/services/cJSON/cJSON.c ****             }
 3925              		.loc 1 1604 35 view .LVU1193
 3926 0074 2021     		movs	r1, #32
 3927 0076 4170     		strb	r1, [r0, #1]
 3928 0078 D8E7     		b	.L320
 3929              	.LVL392:
 3930              	.L328:
ARM GAS  C:\Users\DELL\AppData\Local\Temp\ccXjhdgA.s 			page 135


1612:SynaptiX_FDK/services/cJSON/cJSON.c ****     if (output_pointer == NULL)
 3931              		.loc 1 1612 5 is_stmt 1 view .LVU1194
1612:SynaptiX_FDK/services/cJSON/cJSON.c ****     if (output_pointer == NULL)
 3932              		.loc 1 1612 22 is_stmt 0 view .LVU1195
 3933 007a 0221     		movs	r1, #2
 3934 007c 2046     		mov	r0, r4
 3935 007e FFF7FEFF 		bl	ensure
 3936              	.LVL393:
1613:SynaptiX_FDK/services/cJSON/cJSON.c ****     {
 3937              		.loc 1 1613 5 is_stmt 1 view .LVU1196
1613:SynaptiX_FDK/services/cJSON/cJSON.c ****     {
 3938              		.loc 1 1613 8 is_stmt 0 view .LVU1197
 3939 0082 78B1     		cbz	r0, .L326
1617:SynaptiX_FDK/services/cJSON/cJSON.c ****     *output_pointer = '\0';
 3940              		.loc 1 1617 5 is_stmt 1 view .LVU1198
 3941              	.LVL394:
1617:SynaptiX_FDK/services/cJSON/cJSON.c ****     *output_pointer = '\0';
 3942              		.loc 1 1617 23 is_stmt 0 view .LVU1199
 3943 0084 5D22     		movs	r2, #93
 3944 0086 0270     		strb	r2, [r0]
1618:SynaptiX_FDK/services/cJSON/cJSON.c ****     output_buffer->depth--;
 3945              		.loc 1 1618 5 is_stmt 1 view .LVU1200
1618:SynaptiX_FDK/services/cJSON/cJSON.c ****     output_buffer->depth--;
 3946              		.loc 1 1618 21 is_stmt 0 view .LVU1201
 3947 0088 0022     		movs	r2, #0
 3948 008a 4270     		strb	r2, [r0, #1]
1619:SynaptiX_FDK/services/cJSON/cJSON.c **** 
 3949              		.loc 1 1619 5 is_stmt 1 view .LVU1202
1619:SynaptiX_FDK/services/cJSON/cJSON.c **** 
 3950              		.loc 1 1619 18 is_stmt 0 view .LVU1203
 3951 008c E368     		ldr	r3, [r4, #12]
1619:SynaptiX_FDK/services/cJSON/cJSON.c **** 
 3952              		.loc 1 1619 25 view .LVU1204
 3953 008e 013B     		subs	r3, r3, #1
 3954 0090 E360     		str	r3, [r4, #12]
1621:SynaptiX_FDK/services/cJSON/cJSON.c **** }
 3955              		.loc 1 1621 5 is_stmt 1 view .LVU1205
1621:SynaptiX_FDK/services/cJSON/cJSON.c **** }
 3956              		.loc 1 1621 12 is_stmt 0 view .LVU1206
 3957 0092 0123     		movs	r3, #1
 3958 0094 00E0     		b	.L315
 3959              	.LVL395:
 3960              	.L322:
1571:SynaptiX_FDK/services/cJSON/cJSON.c ****     }
 3961              		.loc 1 1571 16 view .LVU1207
 3962 0096 0023     		movs	r3, #0
 3963              	.LVL396:
 3964              	.L315:
1622:SynaptiX_FDK/services/cJSON/cJSON.c **** 
 3965              		.loc 1 1622 1 view .LVU1208
 3966 0098 1846     		mov	r0, r3
 3967 009a 70BD     		pop	{r4, r5, r6, pc}
 3968              	.LVL397:
 3969              	.L323:
1579:SynaptiX_FDK/services/cJSON/cJSON.c ****     }
 3970              		.loc 1 1579 16 view .LVU1209
 3971 009c 0023     		movs	r3, #0
ARM GAS  C:\Users\DELL\AppData\Local\Temp\ccXjhdgA.s 			page 136


 3972 009e FBE7     		b	.L315
 3973              	.LVL398:
 3974              	.L325:
1599:SynaptiX_FDK/services/cJSON/cJSON.c ****             }
 3975              		.loc 1 1599 24 view .LVU1210
 3976 00a0 0023     		movs	r3, #0
 3977 00a2 F9E7     		b	.L315
 3978              	.LVL399:
 3979              	.L326:
1615:SynaptiX_FDK/services/cJSON/cJSON.c ****     }
 3980              		.loc 1 1615 16 view .LVU1211
 3981 00a4 0023     		movs	r3, #0
 3982 00a6 F7E7     		b	.L315
 3983              		.cfi_endproc
 3984              	.LFE40:
 3986              		.section	.text.print_object,"ax",%progbits
 3987              		.align	1
 3988              		.syntax unified
 3989              		.thumb
 3990              		.thumb_func
 3992              	print_object:
 3993              	.LVL400:
 3994              	.LFB42:
1744:SynaptiX_FDK/services/cJSON/cJSON.c ****     unsigned char *output_pointer = NULL;
 3995              		.loc 1 1744 1 is_stmt 1 view -0
 3996              		.cfi_startproc
 3997              		@ args = 0, pretend = 0, frame = 0
 3998              		@ frame_needed = 0, uses_anonymous_args = 0
1744:SynaptiX_FDK/services/cJSON/cJSON.c ****     unsigned char *output_pointer = NULL;
 3999              		.loc 1 1744 1 is_stmt 0 view .LVU1213
 4000 0000 70B5     		push	{r4, r5, r6, lr}
 4001              	.LCFI42:
 4002              		.cfi_def_cfa_offset 16
 4003              		.cfi_offset 4, -16
 4004              		.cfi_offset 5, -12
 4005              		.cfi_offset 6, -8
 4006              		.cfi_offset 14, -4
1745:SynaptiX_FDK/services/cJSON/cJSON.c ****     size_t length = 0;
 4007              		.loc 1 1745 5 is_stmt 1 view .LVU1214
 4008              	.LVL401:
1746:SynaptiX_FDK/services/cJSON/cJSON.c ****     cJSON *current_item = item->child;
 4009              		.loc 1 1746 5 view .LVU1215
1747:SynaptiX_FDK/services/cJSON/cJSON.c **** 
 4010              		.loc 1 1747 5 view .LVU1216
1747:SynaptiX_FDK/services/cJSON/cJSON.c **** 
 4011              		.loc 1 1747 12 is_stmt 0 view .LVU1217
 4012 0002 8568     		ldr	r5, [r0, #8]
 4013              	.LVL402:
1749:SynaptiX_FDK/services/cJSON/cJSON.c ****     {
 4014              		.loc 1 1749 5 is_stmt 1 view .LVU1218
1749:SynaptiX_FDK/services/cJSON/cJSON.c ****     {
 4015              		.loc 1 1749 8 is_stmt 0 view .LVU1219
 4016 0004 0029     		cmp	r1, #0
 4017 0006 00F0A380 		beq	.L348
 4018 000a 0C46     		mov	r4, r1
1755:SynaptiX_FDK/services/cJSON/cJSON.c ****     output_pointer = ensure(output_buffer, length + 1);
 4019              		.loc 1 1755 5 is_stmt 1 view .LVU1220
ARM GAS  C:\Users\DELL\AppData\Local\Temp\ccXjhdgA.s 			page 137


1755:SynaptiX_FDK/services/cJSON/cJSON.c ****     output_pointer = ensure(output_buffer, length + 1);
 4020              		.loc 1 1755 37 is_stmt 0 view .LVU1221
 4021 000c 4B69     		ldr	r3, [r1, #20]
1755:SynaptiX_FDK/services/cJSON/cJSON.c ****     output_pointer = ensure(output_buffer, length + 1);
 4022              		.loc 1 1755 14 view .LVU1222
 4023 000e A3B1     		cbz	r3, .L349
1755:SynaptiX_FDK/services/cJSON/cJSON.c ****     output_pointer = ensure(output_buffer, length + 1);
 4024              		.loc 1 1755 14 discriminator 1 view .LVU1223
 4025 0010 0226     		movs	r6, #2
 4026              	.L331:
 4027              	.LVL403:
1756:SynaptiX_FDK/services/cJSON/cJSON.c ****     if (output_pointer == NULL)
 4028              		.loc 1 1756 5 is_stmt 1 view .LVU1224
1756:SynaptiX_FDK/services/cJSON/cJSON.c ****     if (output_pointer == NULL)
 4029              		.loc 1 1756 22 is_stmt 0 view .LVU1225
 4030 0012 711C     		adds	r1, r6, #1
 4031              	.LVL404:
1756:SynaptiX_FDK/services/cJSON/cJSON.c ****     if (output_pointer == NULL)
 4032              		.loc 1 1756 22 view .LVU1226
 4033 0014 2046     		mov	r0, r4
 4034              	.LVL405:
1756:SynaptiX_FDK/services/cJSON/cJSON.c ****     if (output_pointer == NULL)
 4035              		.loc 1 1756 22 view .LVU1227
 4036 0016 FFF7FEFF 		bl	ensure
 4037              	.LVL406:
1757:SynaptiX_FDK/services/cJSON/cJSON.c ****     {
 4038              		.loc 1 1757 5 is_stmt 1 view .LVU1228
1757:SynaptiX_FDK/services/cJSON/cJSON.c ****     {
 4039              		.loc 1 1757 8 is_stmt 0 view .LVU1229
 4040 001a 0028     		cmp	r0, #0
 4041 001c 00F09B80 		beq	.L350
1762:SynaptiX_FDK/services/cJSON/cJSON.c ****     output_buffer->depth++;
 4042              		.loc 1 1762 5 is_stmt 1 view .LVU1230
 4043              	.LVL407:
1762:SynaptiX_FDK/services/cJSON/cJSON.c ****     output_buffer->depth++;
 4044              		.loc 1 1762 23 is_stmt 0 view .LVU1231
 4045 0020 7B23     		movs	r3, #123
 4046 0022 0370     		strb	r3, [r0]
1763:SynaptiX_FDK/services/cJSON/cJSON.c ****     if (output_buffer->format)
 4047              		.loc 1 1763 5 is_stmt 1 view .LVU1232
1763:SynaptiX_FDK/services/cJSON/cJSON.c ****     if (output_buffer->format)
 4048              		.loc 1 1763 18 is_stmt 0 view .LVU1233
 4049 0024 E368     		ldr	r3, [r4, #12]
1763:SynaptiX_FDK/services/cJSON/cJSON.c ****     if (output_buffer->format)
 4050              		.loc 1 1763 25 view .LVU1234
 4051 0026 0133     		adds	r3, r3, #1
 4052 0028 E360     		str	r3, [r4, #12]
1764:SynaptiX_FDK/services/cJSON/cJSON.c ****     {
 4053              		.loc 1 1764 5 is_stmt 1 view .LVU1235
1764:SynaptiX_FDK/services/cJSON/cJSON.c ****     {
 4054              		.loc 1 1764 22 is_stmt 0 view .LVU1236
 4055 002a 6369     		ldr	r3, [r4, #20]
1764:SynaptiX_FDK/services/cJSON/cJSON.c ****     {
 4056              		.loc 1 1764 8 view .LVU1237
 4057 002c 0BB1     		cbz	r3, .L332
1766:SynaptiX_FDK/services/cJSON/cJSON.c ****     }
 4058              		.loc 1 1766 9 is_stmt 1 view .LVU1238
ARM GAS  C:\Users\DELL\AppData\Local\Temp\ccXjhdgA.s 			page 138


 4059              	.LVL408:
1766:SynaptiX_FDK/services/cJSON/cJSON.c ****     }
 4060              		.loc 1 1766 27 is_stmt 0 view .LVU1239
 4061 002e 0A23     		movs	r3, #10
 4062 0030 4370     		strb	r3, [r0, #1]
 4063              	.LVL409:
 4064              	.L332:
1768:SynaptiX_FDK/services/cJSON/cJSON.c **** 
 4065              		.loc 1 1768 5 is_stmt 1 view .LVU1240
1768:SynaptiX_FDK/services/cJSON/cJSON.c **** 
 4066              		.loc 1 1768 18 is_stmt 0 view .LVU1241
 4067 0032 A368     		ldr	r3, [r4, #8]
1768:SynaptiX_FDK/services/cJSON/cJSON.c **** 
 4068              		.loc 1 1768 27 view .LVU1242
 4069 0034 3344     		add	r3, r3, r6
 4070 0036 A360     		str	r3, [r4, #8]
1770:SynaptiX_FDK/services/cJSON/cJSON.c ****     {
 4071              		.loc 1 1770 5 is_stmt 1 view .LVU1243
1770:SynaptiX_FDK/services/cJSON/cJSON.c ****     {
 4072              		.loc 1 1770 11 is_stmt 0 view .LVU1244
 4073 0038 22E0     		b	.L333
 4074              	.LVL410:
 4075              	.L349:
1755:SynaptiX_FDK/services/cJSON/cJSON.c ****     output_pointer = ensure(output_buffer, length + 1);
 4076              		.loc 1 1755 14 discriminator 2 view .LVU1245
 4077 003a 0126     		movs	r6, #1
 4078 003c E9E7     		b	.L331
 4079              	.LVL411:
 4080              	.L363:
 4081              	.LBB12:
1774:SynaptiX_FDK/services/cJSON/cJSON.c ****             output_pointer = ensure(output_buffer, output_buffer->depth);
 4082              		.loc 1 1774 13 is_stmt 1 view .LVU1246
1775:SynaptiX_FDK/services/cJSON/cJSON.c ****             if (output_pointer == NULL)
 4083              		.loc 1 1775 13 view .LVU1247
1775:SynaptiX_FDK/services/cJSON/cJSON.c ****             if (output_pointer == NULL)
 4084              		.loc 1 1775 30 is_stmt 0 view .LVU1248
 4085 003e E168     		ldr	r1, [r4, #12]
 4086 0040 2046     		mov	r0, r4
 4087 0042 FFF7FEFF 		bl	ensure
 4088              	.LVL412:
1776:SynaptiX_FDK/services/cJSON/cJSON.c ****             {
 4089              		.loc 1 1776 13 is_stmt 1 view .LVU1249
1776:SynaptiX_FDK/services/cJSON/cJSON.c ****             {
 4090              		.loc 1 1776 16 is_stmt 0 view .LVU1250
 4091 0046 0346     		mov	r3, r0
 4092 0048 0028     		cmp	r0, #0
 4093 004a 00F08680 		beq	.L351
1780:SynaptiX_FDK/services/cJSON/cJSON.c ****             {
 4094              		.loc 1 1780 20 view .LVU1251
 4095 004e 0022     		movs	r2, #0
 4096 0050 03E0     		b	.L335
 4097              	.LVL413:
 4098              	.L336:
1782:SynaptiX_FDK/services/cJSON/cJSON.c ****             }
 4099              		.loc 1 1782 17 is_stmt 1 view .LVU1252
1782:SynaptiX_FDK/services/cJSON/cJSON.c ****             }
 4100              		.loc 1 1782 35 is_stmt 0 view .LVU1253
ARM GAS  C:\Users\DELL\AppData\Local\Temp\ccXjhdgA.s 			page 139


 4101 0052 0921     		movs	r1, #9
 4102 0054 03F8011B 		strb	r1, [r3], #1
 4103              	.LVL414:
1780:SynaptiX_FDK/services/cJSON/cJSON.c ****             {
 4104              		.loc 1 1780 52 is_stmt 1 discriminator 3 view .LVU1254
 4105 0058 0132     		adds	r2, r2, #1
 4106              	.LVL415:
 4107              	.L335:
1780:SynaptiX_FDK/services/cJSON/cJSON.c ****             {
 4108              		.loc 1 1780 27 discriminator 1 view .LVU1255
1780:SynaptiX_FDK/services/cJSON/cJSON.c ****             {
 4109              		.loc 1 1780 42 is_stmt 0 discriminator 1 view .LVU1256
 4110 005a E168     		ldr	r1, [r4, #12]
1780:SynaptiX_FDK/services/cJSON/cJSON.c ****             {
 4111              		.loc 1 1780 27 discriminator 1 view .LVU1257
 4112 005c 9142     		cmp	r1, r2
 4113 005e F8D8     		bhi	.L336
1784:SynaptiX_FDK/services/cJSON/cJSON.c ****         }
 4114              		.loc 1 1784 13 is_stmt 1 view .LVU1258
1784:SynaptiX_FDK/services/cJSON/cJSON.c ****         }
 4115              		.loc 1 1784 26 is_stmt 0 view .LVU1259
 4116 0060 A368     		ldr	r3, [r4, #8]
 4117              	.LVL416:
1784:SynaptiX_FDK/services/cJSON/cJSON.c ****         }
 4118              		.loc 1 1784 35 view .LVU1260
 4119 0062 1944     		add	r1, r1, r3
 4120 0064 A160     		str	r1, [r4, #8]
 4121 0066 10E0     		b	.L334
 4122              	.LVL417:
 4123              	.L352:
1784:SynaptiX_FDK/services/cJSON/cJSON.c ****         }
 4124              		.loc 1 1784 35 view .LVU1261
 4125              	.LBE12:
1794:SynaptiX_FDK/services/cJSON/cJSON.c ****         output_pointer = ensure(output_buffer, length);
 4126              		.loc 1 1794 18 discriminator 2 view .LVU1262
 4127 0068 0126     		movs	r6, #1
 4128              	.LVL418:
1794:SynaptiX_FDK/services/cJSON/cJSON.c ****         output_pointer = ensure(output_buffer, length);
 4129              		.loc 1 1794 18 discriminator 2 view .LVU1263
 4130 006a 1CE0     		b	.L337
 4131              	.LVL419:
 4132              	.L354:
1815:SynaptiX_FDK/services/cJSON/cJSON.c ****         output_pointer = ensure(output_buffer, length + 1);
 4133              		.loc 1 1815 19 discriminator 2 view .LVU1264
 4134 006c 0026     		movs	r6, #0
 4135              	.LVL420:
1815:SynaptiX_FDK/services/cJSON/cJSON.c ****         output_pointer = ensure(output_buffer, length + 1);
 4136              		.loc 1 1815 19 discriminator 2 view .LVU1265
 4137 006e 37E0     		b	.L339
 4138              	.L355:
1815:SynaptiX_FDK/services/cJSON/cJSON.c ****         output_pointer = ensure(output_buffer, length + 1);
 4139              		.loc 1 1815 61 discriminator 6 view .LVU1266
 4140 0070 0023     		movs	r3, #0
 4141 0072 39E0     		b	.L340
 4142              	.LVL421:
 4143              	.L342:
1830:SynaptiX_FDK/services/cJSON/cJSON.c ****         output_buffer->offset += length;
ARM GAS  C:\Users\DELL\AppData\Local\Temp\ccXjhdgA.s 			page 140


 4144              		.loc 1 1830 9 is_stmt 1 view .LVU1267
1830:SynaptiX_FDK/services/cJSON/cJSON.c ****         output_buffer->offset += length;
 4145              		.loc 1 1830 25 is_stmt 0 view .LVU1268
 4146 0074 0022     		movs	r2, #0
 4147 0076 1A70     		strb	r2, [r3]
1831:SynaptiX_FDK/services/cJSON/cJSON.c **** 
 4148              		.loc 1 1831 9 is_stmt 1 view .LVU1269
1831:SynaptiX_FDK/services/cJSON/cJSON.c **** 
 4149              		.loc 1 1831 22 is_stmt 0 view .LVU1270
 4150 0078 A368     		ldr	r3, [r4, #8]
 4151              	.LVL422:
1831:SynaptiX_FDK/services/cJSON/cJSON.c **** 
 4152              		.loc 1 1831 31 view .LVU1271
 4153 007a 3344     		add	r3, r3, r6
 4154 007c A360     		str	r3, [r4, #8]
1833:SynaptiX_FDK/services/cJSON/cJSON.c ****     }
 4155              		.loc 1 1833 9 is_stmt 1 view .LVU1272
1833:SynaptiX_FDK/services/cJSON/cJSON.c ****     }
 4156              		.loc 1 1833 22 is_stmt 0 view .LVU1273
 4157 007e 2D68     		ldr	r5, [r5]
 4158              	.LVL423:
 4159              	.L333:
1770:SynaptiX_FDK/services/cJSON/cJSON.c ****     {
 4160              		.loc 1 1770 12 is_stmt 1 view .LVU1274
 4161 0080 002D     		cmp	r5, #0
 4162 0082 44D0     		beq	.L362
1772:SynaptiX_FDK/services/cJSON/cJSON.c ****         {
 4163              		.loc 1 1772 9 view .LVU1275
1772:SynaptiX_FDK/services/cJSON/cJSON.c ****         {
 4164              		.loc 1 1772 26 is_stmt 0 view .LVU1276
 4165 0084 6369     		ldr	r3, [r4, #20]
1772:SynaptiX_FDK/services/cJSON/cJSON.c ****         {
 4166              		.loc 1 1772 12 view .LVU1277
 4167 0086 002B     		cmp	r3, #0
 4168 0088 D9D1     		bne	.L363
 4169              	.L334:
1788:SynaptiX_FDK/services/cJSON/cJSON.c ****         {
 4170              		.loc 1 1788 9 is_stmt 1 view .LVU1278
1788:SynaptiX_FDK/services/cJSON/cJSON.c ****         {
 4171              		.loc 1 1788 14 is_stmt 0 view .LVU1279
 4172 008a 2146     		mov	r1, r4
 4173 008c 286A     		ldr	r0, [r5, #32]
 4174 008e FFF7FEFF 		bl	print_string_ptr
 4175              	.LVL424:
1788:SynaptiX_FDK/services/cJSON/cJSON.c ****         {
 4176              		.loc 1 1788 12 discriminator 1 view .LVU1280
 4177 0092 0346     		mov	r3, r0
 4178 0094 0028     		cmp	r0, #0
 4179 0096 5CD0     		beq	.L329
1792:SynaptiX_FDK/services/cJSON/cJSON.c **** 
 4180              		.loc 1 1792 9 is_stmt 1 view .LVU1281
 4181 0098 2046     		mov	r0, r4
 4182 009a FFF7FEFF 		bl	update_offset
 4183              	.LVL425:
1794:SynaptiX_FDK/services/cJSON/cJSON.c ****         output_pointer = ensure(output_buffer, length);
 4184              		.loc 1 1794 9 view .LVU1282
1794:SynaptiX_FDK/services/cJSON/cJSON.c ****         output_pointer = ensure(output_buffer, length);
ARM GAS  C:\Users\DELL\AppData\Local\Temp\ccXjhdgA.s 			page 141


 4185              		.loc 1 1794 41 is_stmt 0 view .LVU1283
 4186 009e 6369     		ldr	r3, [r4, #20]
1794:SynaptiX_FDK/services/cJSON/cJSON.c ****         output_pointer = ensure(output_buffer, length);
 4187              		.loc 1 1794 18 view .LVU1284
 4188 00a0 002B     		cmp	r3, #0
 4189 00a2 E1D0     		beq	.L352
1794:SynaptiX_FDK/services/cJSON/cJSON.c ****         output_pointer = ensure(output_buffer, length);
 4190              		.loc 1 1794 18 discriminator 1 view .LVU1285
 4191 00a4 0226     		movs	r6, #2
 4192              	.LVL426:
 4193              	.L337:
1795:SynaptiX_FDK/services/cJSON/cJSON.c ****         if (output_pointer == NULL)
 4194              		.loc 1 1795 9 is_stmt 1 view .LVU1286
1795:SynaptiX_FDK/services/cJSON/cJSON.c ****         if (output_pointer == NULL)
 4195              		.loc 1 1795 26 is_stmt 0 view .LVU1287
 4196 00a6 3146     		mov	r1, r6
 4197 00a8 2046     		mov	r0, r4
 4198 00aa FFF7FEFF 		bl	ensure
 4199              	.LVL427:
1796:SynaptiX_FDK/services/cJSON/cJSON.c ****         {
 4200              		.loc 1 1796 9 is_stmt 1 view .LVU1288
1796:SynaptiX_FDK/services/cJSON/cJSON.c ****         {
 4201              		.loc 1 1796 12 is_stmt 0 view .LVU1289
 4202 00ae 0028     		cmp	r0, #0
 4203 00b0 55D0     		beq	.L353
1800:SynaptiX_FDK/services/cJSON/cJSON.c ****         if (output_buffer->format)
 4204              		.loc 1 1800 9 is_stmt 1 view .LVU1290
 4205              	.LVL428:
1800:SynaptiX_FDK/services/cJSON/cJSON.c ****         if (output_buffer->format)
 4206              		.loc 1 1800 27 is_stmt 0 view .LVU1291
 4207 00b2 3A22     		movs	r2, #58
 4208 00b4 0270     		strb	r2, [r0]
1801:SynaptiX_FDK/services/cJSON/cJSON.c ****         {
 4209              		.loc 1 1801 9 is_stmt 1 view .LVU1292
1801:SynaptiX_FDK/services/cJSON/cJSON.c ****         {
 4210              		.loc 1 1801 26 is_stmt 0 view .LVU1293
 4211 00b6 6269     		ldr	r2, [r4, #20]
1801:SynaptiX_FDK/services/cJSON/cJSON.c ****         {
 4212              		.loc 1 1801 12 view .LVU1294
 4213 00b8 0AB1     		cbz	r2, .L338
1803:SynaptiX_FDK/services/cJSON/cJSON.c ****         }
 4214              		.loc 1 1803 13 is_stmt 1 view .LVU1295
 4215              	.LVL429:
1803:SynaptiX_FDK/services/cJSON/cJSON.c ****         }
 4216              		.loc 1 1803 31 is_stmt 0 view .LVU1296
 4217 00ba 0922     		movs	r2, #9
 4218 00bc 4270     		strb	r2, [r0, #1]
 4219              	.LVL430:
 4220              	.L338:
1805:SynaptiX_FDK/services/cJSON/cJSON.c **** 
 4221              		.loc 1 1805 9 is_stmt 1 view .LVU1297
1805:SynaptiX_FDK/services/cJSON/cJSON.c **** 
 4222              		.loc 1 1805 22 is_stmt 0 view .LVU1298
 4223 00be A368     		ldr	r3, [r4, #8]
1805:SynaptiX_FDK/services/cJSON/cJSON.c **** 
 4224              		.loc 1 1805 31 view .LVU1299
 4225 00c0 3344     		add	r3, r3, r6
ARM GAS  C:\Users\DELL\AppData\Local\Temp\ccXjhdgA.s 			page 142


 4226 00c2 A360     		str	r3, [r4, #8]
1808:SynaptiX_FDK/services/cJSON/cJSON.c ****         {
 4227              		.loc 1 1808 9 is_stmt 1 view .LVU1300
1808:SynaptiX_FDK/services/cJSON/cJSON.c ****         {
 4228              		.loc 1 1808 14 is_stmt 0 view .LVU1301
 4229 00c4 2146     		mov	r1, r4
 4230 00c6 2846     		mov	r0, r5
 4231 00c8 FFF7FEFF 		bl	print_value
 4232              	.LVL431:
1808:SynaptiX_FDK/services/cJSON/cJSON.c ****         {
 4233              		.loc 1 1808 12 discriminator 1 view .LVU1302
 4234 00cc 0346     		mov	r3, r0
 4235 00ce 0028     		cmp	r0, #0
 4236 00d0 3FD0     		beq	.L329
1812:SynaptiX_FDK/services/cJSON/cJSON.c **** 
 4237              		.loc 1 1812 9 is_stmt 1 view .LVU1303
 4238 00d2 2046     		mov	r0, r4
 4239 00d4 FFF7FEFF 		bl	update_offset
 4240              	.LVL432:
1815:SynaptiX_FDK/services/cJSON/cJSON.c ****         output_pointer = ensure(output_buffer, length + 1);
 4241              		.loc 1 1815 9 view .LVU1304
1815:SynaptiX_FDK/services/cJSON/cJSON.c ****         output_pointer = ensure(output_buffer, length + 1);
 4242              		.loc 1 1815 41 is_stmt 0 view .LVU1305
 4243 00d8 6369     		ldr	r3, [r4, #20]
1815:SynaptiX_FDK/services/cJSON/cJSON.c ****         output_pointer = ensure(output_buffer, length + 1);
 4244              		.loc 1 1815 19 view .LVU1306
 4245 00da 002B     		cmp	r3, #0
 4246 00dc C6D0     		beq	.L354
1815:SynaptiX_FDK/services/cJSON/cJSON.c ****         output_pointer = ensure(output_buffer, length + 1);
 4247              		.loc 1 1815 19 discriminator 1 view .LVU1307
 4248 00de 0126     		movs	r6, #1
 4249              	.LVL433:
 4250              	.L339:
1815:SynaptiX_FDK/services/cJSON/cJSON.c ****         output_pointer = ensure(output_buffer, length + 1);
 4251              		.loc 1 1815 82 discriminator 4 view .LVU1308
 4252 00e0 2B68     		ldr	r3, [r5]
1815:SynaptiX_FDK/services/cJSON/cJSON.c ****         output_pointer = ensure(output_buffer, length + 1);
 4253              		.loc 1 1815 61 discriminator 4 view .LVU1309
 4254 00e2 002B     		cmp	r3, #0
 4255 00e4 C4D0     		beq	.L355
1815:SynaptiX_FDK/services/cJSON/cJSON.c ****         output_pointer = ensure(output_buffer, length + 1);
 4256              		.loc 1 1815 61 discriminator 5 view .LVU1310
 4257 00e6 0123     		movs	r3, #1
 4258              	.L340:
1815:SynaptiX_FDK/services/cJSON/cJSON.c ****         output_pointer = ensure(output_buffer, length + 1);
 4259              		.loc 1 1815 16 discriminator 8 view .LVU1311
 4260 00e8 1E44     		add	r6, r6, r3
 4261              	.LVL434:
1816:SynaptiX_FDK/services/cJSON/cJSON.c ****         if (output_pointer == NULL)
 4262              		.loc 1 1816 9 is_stmt 1 view .LVU1312
1816:SynaptiX_FDK/services/cJSON/cJSON.c ****         if (output_pointer == NULL)
 4263              		.loc 1 1816 26 is_stmt 0 view .LVU1313
 4264 00ea 711C     		adds	r1, r6, #1
 4265 00ec 2046     		mov	r0, r4
 4266 00ee FFF7FEFF 		bl	ensure
 4267              	.LVL435:
1817:SynaptiX_FDK/services/cJSON/cJSON.c ****         {
ARM GAS  C:\Users\DELL\AppData\Local\Temp\ccXjhdgA.s 			page 143


 4268              		.loc 1 1817 9 is_stmt 1 view .LVU1314
1817:SynaptiX_FDK/services/cJSON/cJSON.c ****         {
 4269              		.loc 1 1817 12 is_stmt 0 view .LVU1315
 4270 00f2 0346     		mov	r3, r0
 4271 00f4 A8B3     		cbz	r0, .L356
1821:SynaptiX_FDK/services/cJSON/cJSON.c ****         {
 4272              		.loc 1 1821 9 is_stmt 1 view .LVU1316
1821:SynaptiX_FDK/services/cJSON/cJSON.c ****         {
 4273              		.loc 1 1821 25 is_stmt 0 view .LVU1317
 4274 00f6 2A68     		ldr	r2, [r5]
1821:SynaptiX_FDK/services/cJSON/cJSON.c ****         {
 4275              		.loc 1 1821 12 view .LVU1318
 4276 00f8 12B1     		cbz	r2, .L341
1823:SynaptiX_FDK/services/cJSON/cJSON.c ****         }
 4277              		.loc 1 1823 13 is_stmt 1 view .LVU1319
 4278              	.LVL436:
1823:SynaptiX_FDK/services/cJSON/cJSON.c ****         }
 4279              		.loc 1 1823 31 is_stmt 0 view .LVU1320
 4280 00fa 2C22     		movs	r2, #44
 4281 00fc 03F8012B 		strb	r2, [r3], #1
 4282              	.LVL437:
 4283              	.L341:
1826:SynaptiX_FDK/services/cJSON/cJSON.c ****         {
 4284              		.loc 1 1826 9 is_stmt 1 view .LVU1321
1826:SynaptiX_FDK/services/cJSON/cJSON.c ****         {
 4285              		.loc 1 1826 26 is_stmt 0 view .LVU1322
 4286 0100 6269     		ldr	r2, [r4, #20]
1826:SynaptiX_FDK/services/cJSON/cJSON.c ****         {
 4287              		.loc 1 1826 12 view .LVU1323
 4288 0102 002A     		cmp	r2, #0
 4289 0104 B6D0     		beq	.L342
1828:SynaptiX_FDK/services/cJSON/cJSON.c ****         }
 4290              		.loc 1 1828 13 is_stmt 1 view .LVU1324
 4291              	.LVL438:
1828:SynaptiX_FDK/services/cJSON/cJSON.c ****         }
 4292              		.loc 1 1828 31 is_stmt 0 view .LVU1325
 4293 0106 0A22     		movs	r2, #10
 4294 0108 03F8012B 		strb	r2, [r3], #1
 4295              	.LVL439:
1828:SynaptiX_FDK/services/cJSON/cJSON.c ****         }
 4296              		.loc 1 1828 31 view .LVU1326
 4297 010c B2E7     		b	.L342
 4298              	.LVL440:
 4299              	.L362:
1836:SynaptiX_FDK/services/cJSON/cJSON.c ****     if (output_pointer == NULL)
 4300              		.loc 1 1836 5 is_stmt 1 view .LVU1327
1836:SynaptiX_FDK/services/cJSON/cJSON.c ****     if (output_pointer == NULL)
 4301              		.loc 1 1836 57 is_stmt 0 view .LVU1328
 4302 010e 6369     		ldr	r3, [r4, #20]
1836:SynaptiX_FDK/services/cJSON/cJSON.c ****     if (output_pointer == NULL)
 4303              		.loc 1 1836 22 view .LVU1329
 4304 0110 8BB1     		cbz	r3, .L358
1836:SynaptiX_FDK/services/cJSON/cJSON.c ****     if (output_pointer == NULL)
 4305              		.loc 1 1836 82 discriminator 1 view .LVU1330
 4306 0112 E168     		ldr	r1, [r4, #12]
1836:SynaptiX_FDK/services/cJSON/cJSON.c ****     if (output_pointer == NULL)
 4307              		.loc 1 1836 22 discriminator 1 view .LVU1331
ARM GAS  C:\Users\DELL\AppData\Local\Temp\ccXjhdgA.s 			page 144


 4308 0114 0131     		adds	r1, r1, #1
 4309              	.L344:
1836:SynaptiX_FDK/services/cJSON/cJSON.c ****     if (output_pointer == NULL)
 4310              		.loc 1 1836 22 discriminator 4 view .LVU1332
 4311 0116 2046     		mov	r0, r4
 4312 0118 FFF7FEFF 		bl	ensure
 4313              	.LVL441:
1837:SynaptiX_FDK/services/cJSON/cJSON.c ****     {
 4314              		.loc 1 1837 5 is_stmt 1 view .LVU1333
1837:SynaptiX_FDK/services/cJSON/cJSON.c ****     {
 4315              		.loc 1 1837 8 is_stmt 0 view .LVU1334
 4316 011c 0346     		mov	r3, r0
 4317 011e 10B3     		cbz	r0, .L359
1841:SynaptiX_FDK/services/cJSON/cJSON.c ****     {
 4318              		.loc 1 1841 5 is_stmt 1 view .LVU1335
1841:SynaptiX_FDK/services/cJSON/cJSON.c ****     {
 4319              		.loc 1 1841 22 is_stmt 0 view .LVU1336
 4320 0120 6269     		ldr	r2, [r4, #20]
1841:SynaptiX_FDK/services/cJSON/cJSON.c ****     {
 4321              		.loc 1 1841 8 view .LVU1337
 4322 0122 9AB9     		cbnz	r2, .L360
 4323              	.LVL442:
 4324              	.L346:
1849:SynaptiX_FDK/services/cJSON/cJSON.c ****     *output_pointer = '\0';
 4325              		.loc 1 1849 5 is_stmt 1 view .LVU1338
1849:SynaptiX_FDK/services/cJSON/cJSON.c ****     *output_pointer = '\0';
 4326              		.loc 1 1849 23 is_stmt 0 view .LVU1339
 4327 0124 7D22     		movs	r2, #125
 4328 0126 1A70     		strb	r2, [r3]
1850:SynaptiX_FDK/services/cJSON/cJSON.c ****     output_buffer->depth--;
 4329              		.loc 1 1850 5 is_stmt 1 view .LVU1340
1850:SynaptiX_FDK/services/cJSON/cJSON.c ****     output_buffer->depth--;
 4330              		.loc 1 1850 21 is_stmt 0 view .LVU1341
 4331 0128 0022     		movs	r2, #0
 4332 012a 5A70     		strb	r2, [r3, #1]
1851:SynaptiX_FDK/services/cJSON/cJSON.c **** 
 4333              		.loc 1 1851 5 is_stmt 1 view .LVU1342
1851:SynaptiX_FDK/services/cJSON/cJSON.c **** 
 4334              		.loc 1 1851 18 is_stmt 0 view .LVU1343
 4335 012c E368     		ldr	r3, [r4, #12]
 4336              	.LVL443:
1851:SynaptiX_FDK/services/cJSON/cJSON.c **** 
 4337              		.loc 1 1851 25 view .LVU1344
 4338 012e 013B     		subs	r3, r3, #1
 4339 0130 E360     		str	r3, [r4, #12]
1853:SynaptiX_FDK/services/cJSON/cJSON.c **** }
 4340              		.loc 1 1853 5 is_stmt 1 view .LVU1345
1853:SynaptiX_FDK/services/cJSON/cJSON.c **** }
 4341              		.loc 1 1853 12 is_stmt 0 view .LVU1346
 4342 0132 0123     		movs	r3, #1
 4343 0134 0DE0     		b	.L329
 4344              	.LVL444:
 4345              	.L358:
1836:SynaptiX_FDK/services/cJSON/cJSON.c ****     if (output_pointer == NULL)
 4346              		.loc 1 1836 22 discriminator 2 view .LVU1347
 4347 0136 0221     		movs	r1, #2
 4348 0138 EDE7     		b	.L344
ARM GAS  C:\Users\DELL\AppData\Local\Temp\ccXjhdgA.s 			page 145


 4349              	.LVL445:
 4350              	.L347:
 4351              	.LBB13:
1846:SynaptiX_FDK/services/cJSON/cJSON.c ****         }
 4352              		.loc 1 1846 13 is_stmt 1 view .LVU1348
1846:SynaptiX_FDK/services/cJSON/cJSON.c ****         }
 4353              		.loc 1 1846 31 is_stmt 0 view .LVU1349
 4354 013a 0922     		movs	r2, #9
 4355 013c 03F8012B 		strb	r2, [r3], #1
 4356              	.LVL446:
1844:SynaptiX_FDK/services/cJSON/cJSON.c ****         {
 4357              		.loc 1 1844 54 is_stmt 1 discriminator 3 view .LVU1350
 4358 0140 0131     		adds	r1, r1, #1
 4359              	.LVL447:
 4360              	.L345:
1844:SynaptiX_FDK/services/cJSON/cJSON.c ****         {
 4361              		.loc 1 1844 23 discriminator 1 view .LVU1351
1844:SynaptiX_FDK/services/cJSON/cJSON.c ****         {
 4362              		.loc 1 1844 39 is_stmt 0 discriminator 1 view .LVU1352
 4363 0142 E268     		ldr	r2, [r4, #12]
1844:SynaptiX_FDK/services/cJSON/cJSON.c ****         {
 4364              		.loc 1 1844 47 discriminator 1 view .LVU1353
 4365 0144 013A     		subs	r2, r2, #1
1844:SynaptiX_FDK/services/cJSON/cJSON.c ****         {
 4366              		.loc 1 1844 23 discriminator 1 view .LVU1354
 4367 0146 8A42     		cmp	r2, r1
 4368 0148 F7D8     		bhi	.L347
1844:SynaptiX_FDK/services/cJSON/cJSON.c ****         {
 4369              		.loc 1 1844 23 discriminator 1 view .LVU1355
 4370 014a EBE7     		b	.L346
 4371              	.LVL448:
 4372              	.L360:
1844:SynaptiX_FDK/services/cJSON/cJSON.c ****         {
 4373              		.loc 1 1844 16 view .LVU1356
 4374 014c 0021     		movs	r1, #0
 4375 014e F8E7     		b	.L345
 4376              	.LVL449:
 4377              	.L348:
1844:SynaptiX_FDK/services/cJSON/cJSON.c ****         {
 4378              		.loc 1 1844 16 view .LVU1357
 4379              	.LBE13:
1751:SynaptiX_FDK/services/cJSON/cJSON.c ****     }
 4380              		.loc 1 1751 16 view .LVU1358
 4381 0150 0023     		movs	r3, #0
 4382              	.LVL450:
 4383              	.L329:
1854:SynaptiX_FDK/services/cJSON/cJSON.c **** 
 4384              		.loc 1 1854 1 view .LVU1359
 4385 0152 1846     		mov	r0, r3
 4386 0154 70BD     		pop	{r4, r5, r6, pc}
 4387              	.LVL451:
 4388              	.L350:
1759:SynaptiX_FDK/services/cJSON/cJSON.c ****     }
 4389              		.loc 1 1759 16 view .LVU1360
 4390 0156 0023     		movs	r3, #0
 4391 0158 FBE7     		b	.L329
 4392              	.L351:
ARM GAS  C:\Users\DELL\AppData\Local\Temp\ccXjhdgA.s 			page 146


 4393              	.LBB14:
1778:SynaptiX_FDK/services/cJSON/cJSON.c ****             }
 4394              		.loc 1 1778 24 view .LVU1361
 4395 015a 0023     		movs	r3, #0
 4396 015c F9E7     		b	.L329
 4397              	.L353:
1778:SynaptiX_FDK/services/cJSON/cJSON.c ****             }
 4398              		.loc 1 1778 24 view .LVU1362
 4399              	.LBE14:
1798:SynaptiX_FDK/services/cJSON/cJSON.c ****         }
 4400              		.loc 1 1798 20 view .LVU1363
 4401 015e 0023     		movs	r3, #0
 4402 0160 F7E7     		b	.L329
 4403              	.L356:
1819:SynaptiX_FDK/services/cJSON/cJSON.c ****         }
 4404              		.loc 1 1819 20 view .LVU1364
 4405 0162 0023     		movs	r3, #0
 4406 0164 F5E7     		b	.L329
 4407              	.L359:
1839:SynaptiX_FDK/services/cJSON/cJSON.c ****     }
 4408              		.loc 1 1839 16 view .LVU1365
 4409 0166 0023     		movs	r3, #0
 4410 0168 F3E7     		b	.L329
 4411              		.cfi_endproc
 4412              	.LFE42:
 4414              		.section	.text.get_object_item,"ax",%progbits
 4415              		.align	1
 4416              		.syntax unified
 4417              		.thumb
 4418              		.thumb_func
 4420              	get_object_item:
 4421              	.LVL452:
 4422              	.LFB46:
1910:SynaptiX_FDK/services/cJSON/cJSON.c ****     cJSON *current_element = NULL;
 4423              		.loc 1 1910 1 is_stmt 1 view -0
 4424              		.cfi_startproc
 4425              		@ args = 0, pretend = 0, frame = 0
 4426              		@ frame_needed = 0, uses_anonymous_args = 0
1910:SynaptiX_FDK/services/cJSON/cJSON.c ****     cJSON *current_element = NULL;
 4427              		.loc 1 1910 1 is_stmt 0 view .LVU1367
 4428 0000 38B5     		push	{r3, r4, r5, lr}
 4429              	.LCFI43:
 4430              		.cfi_def_cfa_offset 16
 4431              		.cfi_offset 3, -16
 4432              		.cfi_offset 4, -12
 4433              		.cfi_offset 5, -8
 4434              		.cfi_offset 14, -4
1911:SynaptiX_FDK/services/cJSON/cJSON.c **** 
 4435              		.loc 1 1911 5 is_stmt 1 view .LVU1368
 4436              	.LVL453:
1913:SynaptiX_FDK/services/cJSON/cJSON.c ****     {
 4437              		.loc 1 1913 5 view .LVU1369
1913:SynaptiX_FDK/services/cJSON/cJSON.c ****     {
 4438              		.loc 1 1913 8 is_stmt 0 view .LVU1370
 4439 0002 0446     		mov	r4, r0
 4440 0004 B8B1     		cbz	r0, .L364
 4441 0006 0D46     		mov	r5, r1
ARM GAS  C:\Users\DELL\AppData\Local\Temp\ccXjhdgA.s 			page 147


1913:SynaptiX_FDK/services/cJSON/cJSON.c ****     {
 4442              		.loc 1 1913 26 discriminator 1 view .LVU1371
 4443 0008 B9B1     		cbz	r1, .L372
1918:SynaptiX_FDK/services/cJSON/cJSON.c ****     if (case_sensitive)
 4444              		.loc 1 1918 5 is_stmt 1 view .LVU1372
1918:SynaptiX_FDK/services/cJSON/cJSON.c ****     if (case_sensitive)
 4445              		.loc 1 1918 21 is_stmt 0 view .LVU1373
 4446 000a 8468     		ldr	r4, [r0, #8]
 4447              	.LVL454:
1919:SynaptiX_FDK/services/cJSON/cJSON.c ****     {
 4448              		.loc 1 1919 5 is_stmt 1 view .LVU1374
1919:SynaptiX_FDK/services/cJSON/cJSON.c ****     {
 4449              		.loc 1 1919 8 is_stmt 0 view .LVU1375
 4450 000c 42B9     		cbnz	r2, .L366
 4451              	.LVL455:
 4452              	.L367:
1928:SynaptiX_FDK/services/cJSON/cJSON.c ****         {
 4453              		.loc 1 1928 42 is_stmt 1 view .LVU1376
 4454 000e 7CB1     		cbz	r4, .L368
1928:SynaptiX_FDK/services/cJSON/cJSON.c ****         {
 4455              		.loc 1 1928 46 is_stmt 0 discriminator 1 view .LVU1377
 4456 0010 216A     		ldr	r1, [r4, #32]
 4457 0012 2846     		mov	r0, r5
 4458 0014 FFF7FEFF 		bl	case_insensitive_strcmp
 4459              	.LVL456:
1928:SynaptiX_FDK/services/cJSON/cJSON.c ****         {
 4460              		.loc 1 1928 42 discriminator 1 view .LVU1378
 4461 0018 50B1     		cbz	r0, .L368
1930:SynaptiX_FDK/services/cJSON/cJSON.c ****         }
 4462              		.loc 1 1930 13 is_stmt 1 view .LVU1379
1930:SynaptiX_FDK/services/cJSON/cJSON.c ****         }
 4463              		.loc 1 1930 29 is_stmt 0 view .LVU1380
 4464 001a 2468     		ldr	r4, [r4]
 4465              	.LVL457:
1930:SynaptiX_FDK/services/cJSON/cJSON.c ****         }
 4466              		.loc 1 1930 29 view .LVU1381
 4467 001c F7E7     		b	.L367
 4468              	.LVL458:
 4469              	.L369:
1923:SynaptiX_FDK/services/cJSON/cJSON.c ****         }
 4470              		.loc 1 1923 13 is_stmt 1 view .LVU1382
1923:SynaptiX_FDK/services/cJSON/cJSON.c ****         }
 4471              		.loc 1 1923 29 is_stmt 0 view .LVU1383
 4472 001e 2468     		ldr	r4, [r4]
 4473              	.LVL459:
 4474              	.L366:
1921:SynaptiX_FDK/services/cJSON/cJSON.c ****         {
 4475              		.loc 1 1921 79 is_stmt 1 view .LVU1384
 4476 0020 34B1     		cbz	r4, .L368
1921:SynaptiX_FDK/services/cJSON/cJSON.c ****         {
 4477              		.loc 1 1921 61 is_stmt 0 discriminator 1 view .LVU1385
 4478 0022 216A     		ldr	r1, [r4, #32]
1921:SynaptiX_FDK/services/cJSON/cJSON.c ****         {
 4479              		.loc 1 1921 42 discriminator 1 view .LVU1386
 4480 0024 21B1     		cbz	r1, .L368
1921:SynaptiX_FDK/services/cJSON/cJSON.c ****         {
 4481              		.loc 1 1921 83 discriminator 2 view .LVU1387
ARM GAS  C:\Users\DELL\AppData\Local\Temp\ccXjhdgA.s 			page 148


 4482 0026 2846     		mov	r0, r5
 4483 0028 FFF7FEFF 		bl	strcmp
 4484              	.LVL460:
1921:SynaptiX_FDK/services/cJSON/cJSON.c ****         {
 4485              		.loc 1 1921 79 discriminator 1 view .LVU1388
 4486 002c 0028     		cmp	r0, #0
 4487 002e F6D1     		bne	.L369
 4488              	.L368:
1934:SynaptiX_FDK/services/cJSON/cJSON.c ****         return NULL;
 4489              		.loc 1 1934 5 is_stmt 1 view .LVU1389
1934:SynaptiX_FDK/services/cJSON/cJSON.c ****         return NULL;
 4490              		.loc 1 1934 8 is_stmt 0 view .LVU1390
 4491 0030 2CB1     		cbz	r4, .L373
1934:SynaptiX_FDK/services/cJSON/cJSON.c ****         return NULL;
 4492              		.loc 1 1934 54 discriminator 1 view .LVU1391
 4493 0032 236A     		ldr	r3, [r4, #32]
1934:SynaptiX_FDK/services/cJSON/cJSON.c ****         return NULL;
 4494              		.loc 1 1934 35 discriminator 1 view .LVU1392
 4495 0034 2BB1     		cbz	r3, .L376
 4496              	.LVL461:
 4497              	.L364:
1939:SynaptiX_FDK/services/cJSON/cJSON.c **** 
 4498              		.loc 1 1939 1 view .LVU1393
 4499 0036 2046     		mov	r0, r4
 4500 0038 38BD     		pop	{r3, r4, r5, pc}
 4501              	.LVL462:
 4502              	.L372:
1915:SynaptiX_FDK/services/cJSON/cJSON.c ****     }
 4503              		.loc 1 1915 16 view .LVU1394
 4504 003a 0C46     		mov	r4, r1
 4505 003c FBE7     		b	.L364
 4506              	.LVL463:
 4507              	.L373:
1935:SynaptiX_FDK/services/cJSON/cJSON.c ****     }
 4508              		.loc 1 1935 16 view .LVU1395
 4509 003e 0024     		movs	r4, #0
 4510              	.LVL464:
1935:SynaptiX_FDK/services/cJSON/cJSON.c ****     }
 4511              		.loc 1 1935 16 view .LVU1396
 4512 0040 F9E7     		b	.L364
 4513              	.LVL465:
 4514              	.L376:
1935:SynaptiX_FDK/services/cJSON/cJSON.c ****     }
 4515              		.loc 1 1935 16 view .LVU1397
 4516 0042 0024     		movs	r4, #0
 4517              	.LVL466:
1935:SynaptiX_FDK/services/cJSON/cJSON.c ****     }
 4518              		.loc 1 1935 16 view .LVU1398
 4519 0044 F7E7     		b	.L364
 4520              		.cfi_endproc
 4521              	.LFE46:
 4523              		.section	.text.cJSON_GetErrorPtr,"ax",%progbits
 4524              		.align	1
 4525              		.global	cJSON_GetErrorPtr
 4526              		.syntax unified
 4527              		.thumb
 4528              		.thumb_func
ARM GAS  C:\Users\DELL\AppData\Local\Temp\ccXjhdgA.s 			page 149


 4530              	cJSON_GetErrorPtr:
 4531              	.LFB4:
  95:SynaptiX_FDK/services/cJSON/cJSON.c ****     return (const char*) (global_error.json + global_error.position);
 4532              		.loc 1 95 1 is_stmt 1 view -0
 4533              		.cfi_startproc
 4534              		@ args = 0, pretend = 0, frame = 0
 4535              		@ frame_needed = 0, uses_anonymous_args = 0
 4536              		@ link register save eliminated.
  96:SynaptiX_FDK/services/cJSON/cJSON.c **** }
 4537              		.loc 1 96 5 view .LVU1400
  96:SynaptiX_FDK/services/cJSON/cJSON.c **** }
 4538              		.loc 1 96 39 is_stmt 0 view .LVU1401
 4539 0000 024B     		ldr	r3, .L378
 4540 0002 1868     		ldr	r0, [r3]
  96:SynaptiX_FDK/services/cJSON/cJSON.c **** }
 4541              		.loc 1 96 59 view .LVU1402
 4542 0004 5B68     		ldr	r3, [r3, #4]
  97:SynaptiX_FDK/services/cJSON/cJSON.c **** 
 4543              		.loc 1 97 1 view .LVU1403
 4544 0006 1844     		add	r0, r0, r3
 4545 0008 7047     		bx	lr
 4546              	.L379:
 4547 000a 00BF     		.align	2
 4548              	.L378:
 4549 000c 00000000 		.word	global_error
 4550              		.cfi_endproc
 4551              	.LFE4:
 4553              		.section	.rodata.cJSON_Version.str1.4,"aMS",%progbits,1
 4554              		.align	2
 4555              	.LC9:
 4556 0000 25692E25 		.ascii	"%i.%i.%i\000"
 4556      692E2569 
 4556      00
 4557              		.section	.text.cJSON_Version,"ax",%progbits
 4558              		.align	1
 4559              		.global	cJSON_Version
 4560              		.syntax unified
 4561              		.thumb
 4562              		.thumb_func
 4564              	cJSON_Version:
 4565              	.LFB7:
 125:SynaptiX_FDK/services/cJSON/cJSON.c ****     static char version[15];
 4566              		.loc 1 125 1 is_stmt 1 view -0
 4567              		.cfi_startproc
 4568              		@ args = 0, pretend = 0, frame = 0
 4569              		@ frame_needed = 0, uses_anonymous_args = 0
 4570 0000 10B5     		push	{r4, lr}
 4571              	.LCFI44:
 4572              		.cfi_def_cfa_offset 8
 4573              		.cfi_offset 4, -8
 4574              		.cfi_offset 14, -4
 4575 0002 82B0     		sub	sp, sp, #8
 4576              	.LCFI45:
 4577              		.cfi_def_cfa_offset 16
 126:SynaptiX_FDK/services/cJSON/cJSON.c ****     sprintf(version, "%i.%i.%i", CJSON_VERSION_MAJOR, CJSON_VERSION_MINOR, CJSON_VERSION_PATCH);
 4578              		.loc 1 126 5 view .LVU1405
 127:SynaptiX_FDK/services/cJSON/cJSON.c **** 
ARM GAS  C:\Users\DELL\AppData\Local\Temp\ccXjhdgA.s 			page 150


 4579              		.loc 1 127 5 view .LVU1406
 4580 0004 054C     		ldr	r4, .L382
 4581 0006 1223     		movs	r3, #18
 4582 0008 0093     		str	r3, [sp]
 4583 000a 0723     		movs	r3, #7
 4584 000c 0122     		movs	r2, #1
 4585 000e 0449     		ldr	r1, .L382+4
 4586 0010 2046     		mov	r0, r4
 4587 0012 FFF7FEFF 		bl	sprintf
 4588              	.LVL467:
 129:SynaptiX_FDK/services/cJSON/cJSON.c **** }
 4589              		.loc 1 129 5 view .LVU1407
 130:SynaptiX_FDK/services/cJSON/cJSON.c **** 
 4590              		.loc 1 130 1 is_stmt 0 view .LVU1408
 4591 0016 2046     		mov	r0, r4
 4592 0018 02B0     		add	sp, sp, #8
 4593              	.LCFI46:
 4594              		.cfi_def_cfa_offset 8
 4595              		@ sp needed
 4596 001a 10BD     		pop	{r4, pc}
 4597              	.L383:
 4598              		.align	2
 4599              	.L382:
 4600 001c 00000000 		.word	version.0
 4601 0020 00000000 		.word	.LC9
 4602              		.cfi_endproc
 4603              	.LFE7:
 4605              		.section	.text.cJSON_InitHooks,"ax",%progbits
 4606              		.align	1
 4607              		.global	cJSON_InitHooks
 4608              		.syntax unified
 4609              		.thumb
 4610              		.thumb_func
 4612              	cJSON_InitHooks:
 4613              	.LVL468:
 4614              	.LFB10:
 210:SynaptiX_FDK/services/cJSON/cJSON.c ****     if (hooks == NULL)
 4615              		.loc 1 210 1 is_stmt 1 view -0
 4616              		.cfi_startproc
 4617              		@ args = 0, pretend = 0, frame = 0
 4618              		@ frame_needed = 0, uses_anonymous_args = 0
 4619              		@ link register save eliminated.
 211:SynaptiX_FDK/services/cJSON/cJSON.c ****     {
 4620              		.loc 1 211 5 view .LVU1410
 211:SynaptiX_FDK/services/cJSON/cJSON.c ****     {
 4621              		.loc 1 211 8 is_stmt 0 view .LVU1411
 4622 0000 0346     		mov	r3, r0
 4623 0002 A0B1     		cbz	r0, .L389
 220:SynaptiX_FDK/services/cJSON/cJSON.c ****     if (hooks->malloc_fn != NULL)
 4624              		.loc 1 220 5 is_stmt 1 view .LVU1412
 220:SynaptiX_FDK/services/cJSON/cJSON.c ****     if (hooks->malloc_fn != NULL)
 4625              		.loc 1 220 27 is_stmt 0 view .LVU1413
 4626 0004 124A     		ldr	r2, .L391
 4627 0006 1349     		ldr	r1, .L391+4
 4628 0008 1160     		str	r1, [r2]
 221:SynaptiX_FDK/services/cJSON/cJSON.c ****     {
 4629              		.loc 1 221 5 is_stmt 1 view .LVU1414
ARM GAS  C:\Users\DELL\AppData\Local\Temp\ccXjhdgA.s 			page 151


 221:SynaptiX_FDK/services/cJSON/cJSON.c ****     {
 4630              		.loc 1 221 14 is_stmt 0 view .LVU1415
 4631 000a 0268     		ldr	r2, [r0]
 221:SynaptiX_FDK/services/cJSON/cJSON.c ****     {
 4632              		.loc 1 221 8 view .LVU1416
 4633 000c 0AB1     		cbz	r2, .L387
 223:SynaptiX_FDK/services/cJSON/cJSON.c ****     }
 4634              		.loc 1 223 9 is_stmt 1 view .LVU1417
 223:SynaptiX_FDK/services/cJSON/cJSON.c ****     }
 4635              		.loc 1 223 31 is_stmt 0 view .LVU1418
 4636 000e 1049     		ldr	r1, .L391
 4637 0010 0A60     		str	r2, [r1]
 4638              	.L387:
 226:SynaptiX_FDK/services/cJSON/cJSON.c ****     if (hooks->free_fn != NULL)
 4639              		.loc 1 226 5 is_stmt 1 view .LVU1419
 226:SynaptiX_FDK/services/cJSON/cJSON.c ****     if (hooks->free_fn != NULL)
 4640              		.loc 1 226 29 is_stmt 0 view .LVU1420
 4641 0012 0F4A     		ldr	r2, .L391
 4642 0014 1049     		ldr	r1, .L391+8
 4643 0016 5160     		str	r1, [r2, #4]
 227:SynaptiX_FDK/services/cJSON/cJSON.c ****     {
 4644              		.loc 1 227 5 is_stmt 1 view .LVU1421
 227:SynaptiX_FDK/services/cJSON/cJSON.c ****     {
 4645              		.loc 1 227 14 is_stmt 0 view .LVU1422
 4646 0018 5B68     		ldr	r3, [r3, #4]
 227:SynaptiX_FDK/services/cJSON/cJSON.c ****     {
 4647              		.loc 1 227 8 view .LVU1423
 4648 001a 03B1     		cbz	r3, .L388
 229:SynaptiX_FDK/services/cJSON/cJSON.c ****     }
 4649              		.loc 1 229 9 is_stmt 1 view .LVU1424
 229:SynaptiX_FDK/services/cJSON/cJSON.c ****     }
 4650              		.loc 1 229 33 is_stmt 0 view .LVU1425
 4651 001c 5360     		str	r3, [r2, #4]
 4652              	.L388:
 233:SynaptiX_FDK/services/cJSON/cJSON.c ****     if ((global_hooks.allocate == malloc) && (global_hooks.deallocate == free))
 4653              		.loc 1 233 5 is_stmt 1 view .LVU1426
 233:SynaptiX_FDK/services/cJSON/cJSON.c ****     if ((global_hooks.allocate == malloc) && (global_hooks.deallocate == free))
 4654              		.loc 1 233 29 is_stmt 0 view .LVU1427
 4655 001e 0C4B     		ldr	r3, .L391
 4656 0020 0022     		movs	r2, #0
 4657 0022 9A60     		str	r2, [r3, #8]
 234:SynaptiX_FDK/services/cJSON/cJSON.c ****     {
 4658              		.loc 1 234 5 is_stmt 1 view .LVU1428
 234:SynaptiX_FDK/services/cJSON/cJSON.c ****     {
 4659              		.loc 1 234 22 is_stmt 0 view .LVU1429
 4660 0024 1A68     		ldr	r2, [r3]
 234:SynaptiX_FDK/services/cJSON/cJSON.c ****     {
 4661              		.loc 1 234 8 view .LVU1430
 4662 0026 0B4B     		ldr	r3, .L391+4
 4663 0028 9A42     		cmp	r2, r3
 4664 002a 08D0     		beq	.L390
 4665              	.L384:
 238:SynaptiX_FDK/services/cJSON/cJSON.c **** 
 4666              		.loc 1 238 1 view .LVU1431
 4667 002c 7047     		bx	lr
 4668              	.L389:
 214:SynaptiX_FDK/services/cJSON/cJSON.c ****         global_hooks.deallocate = free;
ARM GAS  C:\Users\DELL\AppData\Local\Temp\ccXjhdgA.s 			page 152


 4669              		.loc 1 214 9 is_stmt 1 view .LVU1432
 214:SynaptiX_FDK/services/cJSON/cJSON.c ****         global_hooks.deallocate = free;
 4670              		.loc 1 214 31 is_stmt 0 view .LVU1433
 4671 002e 084B     		ldr	r3, .L391
 4672 0030 084A     		ldr	r2, .L391+4
 4673 0032 1A60     		str	r2, [r3]
 215:SynaptiX_FDK/services/cJSON/cJSON.c ****         global_hooks.reallocate = realloc;
 4674              		.loc 1 215 9 is_stmt 1 view .LVU1434
 215:SynaptiX_FDK/services/cJSON/cJSON.c ****         global_hooks.reallocate = realloc;
 4675              		.loc 1 215 33 is_stmt 0 view .LVU1435
 4676 0034 084A     		ldr	r2, .L391+8
 4677 0036 5A60     		str	r2, [r3, #4]
 216:SynaptiX_FDK/services/cJSON/cJSON.c ****         return;
 4678              		.loc 1 216 9 is_stmt 1 view .LVU1436
 216:SynaptiX_FDK/services/cJSON/cJSON.c ****         return;
 4679              		.loc 1 216 33 is_stmt 0 view .LVU1437
 4680 0038 084A     		ldr	r2, .L391+12
 4681 003a 9A60     		str	r2, [r3, #8]
 217:SynaptiX_FDK/services/cJSON/cJSON.c ****     }
 4682              		.loc 1 217 9 is_stmt 1 view .LVU1438
 4683 003c 7047     		bx	lr
 4684              	.L390:
 234:SynaptiX_FDK/services/cJSON/cJSON.c ****     {
 4685              		.loc 1 234 59 is_stmt 0 discriminator 1 view .LVU1439
 4686 003e 044B     		ldr	r3, .L391
 4687 0040 5A68     		ldr	r2, [r3, #4]
 234:SynaptiX_FDK/services/cJSON/cJSON.c ****     {
 4688              		.loc 1 234 43 discriminator 1 view .LVU1440
 4689 0042 054B     		ldr	r3, .L391+8
 4690 0044 9A42     		cmp	r2, r3
 4691 0046 F1D1     		bne	.L384
 236:SynaptiX_FDK/services/cJSON/cJSON.c ****     }
 4692              		.loc 1 236 9 is_stmt 1 view .LVU1441
 236:SynaptiX_FDK/services/cJSON/cJSON.c ****     }
 4693              		.loc 1 236 33 is_stmt 0 view .LVU1442
 4694 0048 014B     		ldr	r3, .L391
 4695 004a 044A     		ldr	r2, .L391+12
 4696 004c 9A60     		str	r2, [r3, #8]
 4697 004e EDE7     		b	.L384
 4698              	.L392:
 4699              		.align	2
 4700              	.L391:
 4701 0050 00000000 		.word	global_hooks
 4702 0054 00000000 		.word	malloc
 4703 0058 00000000 		.word	free
 4704 005c 00000000 		.word	realloc
 4705              		.cfi_endproc
 4706              	.LFE10:
 4708              		.section	.text.cJSON_Delete,"ax",%progbits
 4709              		.align	1
 4710              		.global	cJSON_Delete
 4711              		.syntax unified
 4712              		.thumb
 4713              		.thumb_func
 4715              	cJSON_Delete:
 4716              	.LVL469:
 4717              	.LFB12:
ARM GAS  C:\Users\DELL\AppData\Local\Temp\ccXjhdgA.s 			page 153


 254:SynaptiX_FDK/services/cJSON/cJSON.c ****     cJSON *next = NULL;
 4718              		.loc 1 254 1 is_stmt 1 view -0
 4719              		.cfi_startproc
 4720              		@ args = 0, pretend = 0, frame = 0
 4721              		@ frame_needed = 0, uses_anonymous_args = 0
 254:SynaptiX_FDK/services/cJSON/cJSON.c ****     cJSON *next = NULL;
 4722              		.loc 1 254 1 is_stmt 0 view .LVU1444
 4723 0000 38B5     		push	{r3, r4, r5, lr}
 4724              	.LCFI47:
 4725              		.cfi_def_cfa_offset 16
 4726              		.cfi_offset 3, -16
 4727              		.cfi_offset 4, -12
 4728              		.cfi_offset 5, -8
 4729              		.cfi_offset 14, -4
 4730 0002 0446     		mov	r4, r0
 255:SynaptiX_FDK/services/cJSON/cJSON.c ****     while (item != NULL)
 4731              		.loc 1 255 5 is_stmt 1 view .LVU1445
 4732              	.LVL470:
 256:SynaptiX_FDK/services/cJSON/cJSON.c ****     {
 4733              		.loc 1 256 5 view .LVU1446
 256:SynaptiX_FDK/services/cJSON/cJSON.c ****     {
 4734              		.loc 1 256 11 is_stmt 0 view .LVU1447
 4735 0004 1AE0     		b	.L394
 4736              	.LVL471:
 4737              	.L395:
 263:SynaptiX_FDK/services/cJSON/cJSON.c ****         {
 4738              		.loc 1 263 9 is_stmt 1 view .LVU1448
 263:SynaptiX_FDK/services/cJSON/cJSON.c ****         {
 4739              		.loc 1 263 19 is_stmt 0 view .LVU1449
 4740 0006 E368     		ldr	r3, [r4, #12]
 263:SynaptiX_FDK/services/cJSON/cJSON.c ****         {
 4741              		.loc 1 263 12 view .LVU1450
 4742 0008 13F4807F 		tst	r3, #256
 4743 000c 06D1     		bne	.L396
 263:SynaptiX_FDK/services/cJSON/cJSON.c ****         {
 4744              		.loc 1 263 55 discriminator 1 view .LVU1451
 4745 000e 2069     		ldr	r0, [r4, #16]
 263:SynaptiX_FDK/services/cJSON/cJSON.c ****         {
 4746              		.loc 1 263 47 discriminator 1 view .LVU1452
 4747 0010 20B1     		cbz	r0, .L396
 265:SynaptiX_FDK/services/cJSON/cJSON.c ****             item->valuestring = NULL;
 4748              		.loc 1 265 13 is_stmt 1 view .LVU1453
 265:SynaptiX_FDK/services/cJSON/cJSON.c ****             item->valuestring = NULL;
 4749              		.loc 1 265 25 is_stmt 0 view .LVU1454
 4750 0012 114B     		ldr	r3, .L401
 4751 0014 5B68     		ldr	r3, [r3, #4]
 265:SynaptiX_FDK/services/cJSON/cJSON.c ****             item->valuestring = NULL;
 4752              		.loc 1 265 13 view .LVU1455
 4753 0016 9847     		blx	r3
 4754              	.LVL472:
 266:SynaptiX_FDK/services/cJSON/cJSON.c ****         }
 4755              		.loc 1 266 13 is_stmt 1 view .LVU1456
 266:SynaptiX_FDK/services/cJSON/cJSON.c ****         }
 4756              		.loc 1 266 31 is_stmt 0 view .LVU1457
 4757 0018 0023     		movs	r3, #0
 4758 001a 2361     		str	r3, [r4, #16]
 4759              	.L396:
ARM GAS  C:\Users\DELL\AppData\Local\Temp\ccXjhdgA.s 			page 154


 268:SynaptiX_FDK/services/cJSON/cJSON.c ****         {
 4760              		.loc 1 268 9 is_stmt 1 view .LVU1458
 268:SynaptiX_FDK/services/cJSON/cJSON.c ****         {
 4761              		.loc 1 268 19 is_stmt 0 view .LVU1459
 4762 001c E368     		ldr	r3, [r4, #12]
 268:SynaptiX_FDK/services/cJSON/cJSON.c ****         {
 4763              		.loc 1 268 12 view .LVU1460
 4764 001e 13F4007F 		tst	r3, #512
 4765 0022 06D1     		bne	.L397
 268:SynaptiX_FDK/services/cJSON/cJSON.c ****         {
 4766              		.loc 1 268 57 discriminator 1 view .LVU1461
 4767 0024 206A     		ldr	r0, [r4, #32]
 268:SynaptiX_FDK/services/cJSON/cJSON.c ****         {
 4768              		.loc 1 268 49 discriminator 1 view .LVU1462
 4769 0026 20B1     		cbz	r0, .L397
 270:SynaptiX_FDK/services/cJSON/cJSON.c ****             item->string = NULL;
 4770              		.loc 1 270 13 is_stmt 1 view .LVU1463
 270:SynaptiX_FDK/services/cJSON/cJSON.c ****             item->string = NULL;
 4771              		.loc 1 270 25 is_stmt 0 view .LVU1464
 4772 0028 0B4B     		ldr	r3, .L401
 4773 002a 5B68     		ldr	r3, [r3, #4]
 270:SynaptiX_FDK/services/cJSON/cJSON.c ****             item->string = NULL;
 4774              		.loc 1 270 13 view .LVU1465
 4775 002c 9847     		blx	r3
 4776              	.LVL473:
 271:SynaptiX_FDK/services/cJSON/cJSON.c ****         }
 4777              		.loc 1 271 13 is_stmt 1 view .LVU1466
 271:SynaptiX_FDK/services/cJSON/cJSON.c ****         }
 4778              		.loc 1 271 26 is_stmt 0 view .LVU1467
 4779 002e 0023     		movs	r3, #0
 4780 0030 2362     		str	r3, [r4, #32]
 4781              	.L397:
 273:SynaptiX_FDK/services/cJSON/cJSON.c ****         item = next;
 4782              		.loc 1 273 9 is_stmt 1 view .LVU1468
 273:SynaptiX_FDK/services/cJSON/cJSON.c ****         item = next;
 4783              		.loc 1 273 21 is_stmt 0 view .LVU1469
 4784 0032 094B     		ldr	r3, .L401
 4785 0034 5B68     		ldr	r3, [r3, #4]
 273:SynaptiX_FDK/services/cJSON/cJSON.c ****         item = next;
 4786              		.loc 1 273 9 view .LVU1470
 4787 0036 2046     		mov	r0, r4
 4788 0038 9847     		blx	r3
 4789              	.LVL474:
 274:SynaptiX_FDK/services/cJSON/cJSON.c ****     }
 4790              		.loc 1 274 9 is_stmt 1 view .LVU1471
 274:SynaptiX_FDK/services/cJSON/cJSON.c ****     }
 4791              		.loc 1 274 14 is_stmt 0 view .LVU1472
 4792 003a 2C46     		mov	r4, r5
 4793              	.LVL475:
 4794              	.L394:
 256:SynaptiX_FDK/services/cJSON/cJSON.c ****     {
 4795              		.loc 1 256 17 is_stmt 1 view .LVU1473
 4796 003c 54B1     		cbz	r4, .L400
 258:SynaptiX_FDK/services/cJSON/cJSON.c ****         if (!(item->type & cJSON_IsReference) && (item->child != NULL))
 4797              		.loc 1 258 9 view .LVU1474
 258:SynaptiX_FDK/services/cJSON/cJSON.c ****         if (!(item->type & cJSON_IsReference) && (item->child != NULL))
 4798              		.loc 1 258 14 is_stmt 0 view .LVU1475
ARM GAS  C:\Users\DELL\AppData\Local\Temp\ccXjhdgA.s 			page 155


 4799 003e 2568     		ldr	r5, [r4]
 4800              	.LVL476:
 259:SynaptiX_FDK/services/cJSON/cJSON.c ****         {
 4801              		.loc 1 259 9 is_stmt 1 view .LVU1476
 259:SynaptiX_FDK/services/cJSON/cJSON.c ****         {
 4802              		.loc 1 259 19 is_stmt 0 view .LVU1477
 4803 0040 E368     		ldr	r3, [r4, #12]
 259:SynaptiX_FDK/services/cJSON/cJSON.c ****         {
 4804              		.loc 1 259 12 view .LVU1478
 4805 0042 13F4807F 		tst	r3, #256
 4806 0046 DED1     		bne	.L395
 259:SynaptiX_FDK/services/cJSON/cJSON.c ****         {
 4807              		.loc 1 259 55 discriminator 1 view .LVU1479
 4808 0048 A068     		ldr	r0, [r4, #8]
 259:SynaptiX_FDK/services/cJSON/cJSON.c ****         {
 4809              		.loc 1 259 47 discriminator 1 view .LVU1480
 4810 004a 0028     		cmp	r0, #0
 4811 004c DBD0     		beq	.L395
 261:SynaptiX_FDK/services/cJSON/cJSON.c ****         }
 4812              		.loc 1 261 13 is_stmt 1 view .LVU1481
 4813 004e FFF7FEFF 		bl	cJSON_Delete
 4814              	.LVL477:
 4815 0052 D8E7     		b	.L395
 4816              	.LVL478:
 4817              	.L400:
 276:SynaptiX_FDK/services/cJSON/cJSON.c **** 
 4818              		.loc 1 276 1 is_stmt 0 view .LVU1482
 4819 0054 38BD     		pop	{r3, r4, r5, pc}
 4820              	.LVL479:
 4821              	.L402:
 276:SynaptiX_FDK/services/cJSON/cJSON.c **** 
 4822              		.loc 1 276 1 view .LVU1483
 4823 0056 00BF     		.align	2
 4824              	.L401:
 4825 0058 00000000 		.word	global_hooks
 4826              		.cfi_endproc
 4827              	.LFE12:
 4829              		.section	.text.parse_object,"ax",%progbits
 4830              		.align	1
 4831              		.syntax unified
 4832              		.thumb
 4833              		.thumb_func
 4835              	parse_object:
 4836              	.LVL480:
 4837              	.LFB41:
1626:SynaptiX_FDK/services/cJSON/cJSON.c ****     cJSON *head = NULL; /* linked list head */
 4838              		.loc 1 1626 1 is_stmt 1 view -0
 4839              		.cfi_startproc
 4840              		@ args = 0, pretend = 0, frame = 0
 4841              		@ frame_needed = 0, uses_anonymous_args = 0
1627:SynaptiX_FDK/services/cJSON/cJSON.c ****     cJSON *current_item = NULL;
 4842              		.loc 1 1627 5 view .LVU1485
1628:SynaptiX_FDK/services/cJSON/cJSON.c **** 
 4843              		.loc 1 1628 5 view .LVU1486
1630:SynaptiX_FDK/services/cJSON/cJSON.c ****     {
 4844              		.loc 1 1630 5 view .LVU1487
1630:SynaptiX_FDK/services/cJSON/cJSON.c ****     {
ARM GAS  C:\Users\DELL\AppData\Local\Temp\ccXjhdgA.s 			page 156


 4845              		.loc 1 1630 21 is_stmt 0 view .LVU1488
 4846 0000 CB68     		ldr	r3, [r1, #12]
1630:SynaptiX_FDK/services/cJSON/cJSON.c ****     {
 4847              		.loc 1 1630 8 view .LVU1489
 4848 0002 B3F57A7F 		cmp	r3, #1000
 4849 0006 80F08E80 		bcs	.L413
1626:SynaptiX_FDK/services/cJSON/cJSON.c ****     cJSON *head = NULL; /* linked list head */
 4850              		.loc 1 1626 1 view .LVU1490
 4851 000a 2DE9F041 		push	{r4, r5, r6, r7, r8, lr}
 4852              	.LCFI48:
 4853              		.cfi_def_cfa_offset 24
 4854              		.cfi_offset 4, -24
 4855              		.cfi_offset 5, -20
 4856              		.cfi_offset 6, -16
 4857              		.cfi_offset 7, -12
 4858              		.cfi_offset 8, -8
 4859              		.cfi_offset 14, -4
 4860 000e 0646     		mov	r6, r0
 4861 0010 0C46     		mov	r4, r1
1634:SynaptiX_FDK/services/cJSON/cJSON.c **** 
 4862              		.loc 1 1634 5 is_stmt 1 view .LVU1491
1634:SynaptiX_FDK/services/cJSON/cJSON.c **** 
 4863              		.loc 1 1634 24 is_stmt 0 view .LVU1492
 4864 0012 0133     		adds	r3, r3, #1
 4865 0014 CB60     		str	r3, [r1, #12]
1636:SynaptiX_FDK/services/cJSON/cJSON.c ****     {
 4866              		.loc 1 1636 5 is_stmt 1 view .LVU1493
1636:SynaptiX_FDK/services/cJSON/cJSON.c ****     {
 4867              		.loc 1 1636 8 is_stmt 0 view .LVU1494
 4868 0016 0029     		cmp	r1, #0
 4869 0018 00F08780 		beq	.L414
1636:SynaptiX_FDK/services/cJSON/cJSON.c ****     {
 4870              		.loc 1 1636 9 discriminator 1 view .LVU1495
 4871 001c 8B68     		ldr	r3, [r1, #8]
 4872 001e 4A68     		ldr	r2, [r1, #4]
 4873 0020 9342     		cmp	r3, r2
 4874 0022 80F08480 		bcs	.L415
1636:SynaptiX_FDK/services/cJSON/cJSON.c ****     {
 4875              		.loc 1 1636 53 discriminator 2 view .LVU1496
 4876 0026 0A68     		ldr	r2, [r1]
1636:SynaptiX_FDK/services/cJSON/cJSON.c ****     {
 4877              		.loc 1 1636 83 discriminator 2 view .LVU1497
 4878 0028 D25C     		ldrb	r2, [r2, r3]	@ zero_extendqisi2
1636:SynaptiX_FDK/services/cJSON/cJSON.c ****     {
 4879              		.loc 1 1636 49 discriminator 2 view .LVU1498
 4880 002a 7B2A     		cmp	r2, #123
 4881 002c 02D0     		beq	.L424
1739:SynaptiX_FDK/services/cJSON/cJSON.c **** }
 4882              		.loc 1 1739 12 view .LVU1499
 4883 002e 0020     		movs	r0, #0
 4884              	.LVL481:
 4885              	.L403:
1740:SynaptiX_FDK/services/cJSON/cJSON.c **** 
 4886              		.loc 1 1740 1 view .LVU1500
 4887 0030 BDE8F081 		pop	{r4, r5, r6, r7, r8, pc}
 4888              	.LVL482:
 4889              	.L424:
ARM GAS  C:\Users\DELL\AppData\Local\Temp\ccXjhdgA.s 			page 157


1641:SynaptiX_FDK/services/cJSON/cJSON.c ****     buffer_skip_whitespace(input_buffer);
 4890              		.loc 1 1641 5 is_stmt 1 view .LVU1501
1641:SynaptiX_FDK/services/cJSON/cJSON.c ****     buffer_skip_whitespace(input_buffer);
 4891              		.loc 1 1641 25 is_stmt 0 view .LVU1502
 4892 0034 0133     		adds	r3, r3, #1
 4893 0036 8B60     		str	r3, [r1, #8]
1642:SynaptiX_FDK/services/cJSON/cJSON.c ****     if (can_access_at_index(input_buffer, 0) && (buffer_at_offset(input_buffer)[0] == '}'))
 4894              		.loc 1 1642 5 is_stmt 1 view .LVU1503
 4895 0038 0846     		mov	r0, r1
 4896              	.LVL483:
1642:SynaptiX_FDK/services/cJSON/cJSON.c ****     if (can_access_at_index(input_buffer, 0) && (buffer_at_offset(input_buffer)[0] == '}'))
 4897              		.loc 1 1642 5 is_stmt 0 view .LVU1504
 4898 003a FFF7FEFF 		bl	buffer_skip_whitespace
 4899              	.LVL484:
1643:SynaptiX_FDK/services/cJSON/cJSON.c ****     {
 4900              		.loc 1 1643 5 is_stmt 1 view .LVU1505
1643:SynaptiX_FDK/services/cJSON/cJSON.c ****     {
 4901              		.loc 1 1643 9 is_stmt 0 discriminator 1 view .LVU1506
 4902 003e A368     		ldr	r3, [r4, #8]
 4903 0040 6268     		ldr	r2, [r4, #4]
 4904 0042 9342     		cmp	r3, r2
 4905 0044 03D2     		bcs	.L405
1643:SynaptiX_FDK/services/cJSON/cJSON.c ****     {
 4906              		.loc 1 1643 50 discriminator 2 view .LVU1507
 4907 0046 2268     		ldr	r2, [r4]
1643:SynaptiX_FDK/services/cJSON/cJSON.c ****     {
 4908              		.loc 1 1643 80 discriminator 2 view .LVU1508
 4909 0048 D35C     		ldrb	r3, [r2, r3]	@ zero_extendqisi2
1643:SynaptiX_FDK/services/cJSON/cJSON.c ****     {
 4910              		.loc 1 1643 46 discriminator 2 view .LVU1509
 4911 004a 7D2B     		cmp	r3, #125
 4912 004c 5CD0     		beq	.L417
 4913              	.L405:
1649:SynaptiX_FDK/services/cJSON/cJSON.c ****     {
 4914              		.loc 1 1649 9 discriminator 1 view .LVU1510
 4915 004e A368     		ldr	r3, [r4, #8]
 4916 0050 6268     		ldr	r2, [r4, #4]
 4917 0052 9342     		cmp	r3, r2
 4918 0054 04D2     		bcs	.L425
1656:SynaptiX_FDK/services/cJSON/cJSON.c ****     /* loop through the comma separated array elements */
 4919              		.loc 1 1656 5 is_stmt 1 view .LVU1511
1656:SynaptiX_FDK/services/cJSON/cJSON.c ****     /* loop through the comma separated array elements */
 4920              		.loc 1 1656 25 is_stmt 0 view .LVU1512
 4921 0056 013B     		subs	r3, r3, #1
 4922 0058 A360     		str	r3, [r4, #8]
1628:SynaptiX_FDK/services/cJSON/cJSON.c **** 
 4923              		.loc 1 1628 12 view .LVU1513
 4924 005a 0025     		movs	r5, #0
1627:SynaptiX_FDK/services/cJSON/cJSON.c ****     cJSON *current_item = NULL;
 4925              		.loc 1 1627 12 view .LVU1514
 4926 005c 2F46     		mov	r7, r5
 4927 005e 37E0     		b	.L411
 4928              	.L425:
1651:SynaptiX_FDK/services/cJSON/cJSON.c ****         goto fail;
 4929              		.loc 1 1651 9 is_stmt 1 view .LVU1515
1651:SynaptiX_FDK/services/cJSON/cJSON.c ****         goto fail;
 4930              		.loc 1 1651 29 is_stmt 0 view .LVU1516
ARM GAS  C:\Users\DELL\AppData\Local\Temp\ccXjhdgA.s 			page 158


 4931 0060 013B     		subs	r3, r3, #1
 4932 0062 A360     		str	r3, [r4, #8]
1652:SynaptiX_FDK/services/cJSON/cJSON.c ****     }
 4933              		.loc 1 1652 9 is_stmt 1 view .LVU1517
1734:SynaptiX_FDK/services/cJSON/cJSON.c ****     {
 4934              		.loc 1 1734 5 view .LVU1518
1739:SynaptiX_FDK/services/cJSON/cJSON.c **** }
 4935              		.loc 1 1739 12 is_stmt 0 view .LVU1519
 4936 0064 0020     		movs	r0, #0
 4937 0066 E3E7     		b	.L403
 4938              	.LVL485:
 4939              	.L418:
 4940              	.LBB15:
1671:SynaptiX_FDK/services/cJSON/cJSON.c ****         }
 4941              		.loc 1 1671 33 view .LVU1520
 4942 0068 0746     		mov	r7, r0
 4943              	.LVL486:
 4944              	.L409:
1681:SynaptiX_FDK/services/cJSON/cJSON.c ****         {
 4945              		.loc 1 1681 9 is_stmt 1 view .LVU1521
1681:SynaptiX_FDK/services/cJSON/cJSON.c ****         {
 4946              		.loc 1 1681 13 is_stmt 0 discriminator 1 view .LVU1522
 4947 006a A368     		ldr	r3, [r4, #8]
 4948 006c 0133     		adds	r3, r3, #1
 4949 006e 6268     		ldr	r2, [r4, #4]
 4950 0070 9342     		cmp	r3, r2
 4951 0072 43D2     		bcs	.L408
1687:SynaptiX_FDK/services/cJSON/cJSON.c ****         buffer_skip_whitespace(input_buffer);
 4952              		.loc 1 1687 9 is_stmt 1 view .LVU1523
1687:SynaptiX_FDK/services/cJSON/cJSON.c ****         buffer_skip_whitespace(input_buffer);
 4953              		.loc 1 1687 29 is_stmt 0 view .LVU1524
 4954 0074 A360     		str	r3, [r4, #8]
1688:SynaptiX_FDK/services/cJSON/cJSON.c ****         if (!parse_string(current_item, input_buffer))
 4955              		.loc 1 1688 9 is_stmt 1 view .LVU1525
 4956 0076 2046     		mov	r0, r4
 4957              	.LVL487:
1688:SynaptiX_FDK/services/cJSON/cJSON.c ****         if (!parse_string(current_item, input_buffer))
 4958              		.loc 1 1688 9 is_stmt 0 view .LVU1526
 4959 0078 FFF7FEFF 		bl	buffer_skip_whitespace
 4960              	.LVL488:
1689:SynaptiX_FDK/services/cJSON/cJSON.c ****         {
 4961              		.loc 1 1689 9 is_stmt 1 view .LVU1527
1689:SynaptiX_FDK/services/cJSON/cJSON.c ****         {
 4962              		.loc 1 1689 14 is_stmt 0 view .LVU1528
 4963 007c 2146     		mov	r1, r4
 4964 007e 2846     		mov	r0, r5
 4965 0080 FFF7FEFF 		bl	parse_string
 4966              	.LVL489:
1689:SynaptiX_FDK/services/cJSON/cJSON.c ****         {
 4967              		.loc 1 1689 12 discriminator 1 view .LVU1529
 4968 0084 0028     		cmp	r0, #0
 4969 0086 39D0     		beq	.L408
1693:SynaptiX_FDK/services/cJSON/cJSON.c **** 
 4970              		.loc 1 1693 9 is_stmt 1 view .LVU1530
 4971 0088 2046     		mov	r0, r4
 4972 008a FFF7FEFF 		bl	buffer_skip_whitespace
 4973              	.LVL490:
ARM GAS  C:\Users\DELL\AppData\Local\Temp\ccXjhdgA.s 			page 159


1696:SynaptiX_FDK/services/cJSON/cJSON.c ****         current_item->valuestring = NULL;
 4974              		.loc 1 1696 9 view .LVU1531
1696:SynaptiX_FDK/services/cJSON/cJSON.c ****         current_item->valuestring = NULL;
 4975              		.loc 1 1696 44 is_stmt 0 view .LVU1532
 4976 008e 2B69     		ldr	r3, [r5, #16]
1696:SynaptiX_FDK/services/cJSON/cJSON.c ****         current_item->valuestring = NULL;
 4977              		.loc 1 1696 30 view .LVU1533
 4978 0090 2B62     		str	r3, [r5, #32]
1697:SynaptiX_FDK/services/cJSON/cJSON.c **** 
 4979              		.loc 1 1697 9 is_stmt 1 view .LVU1534
1697:SynaptiX_FDK/services/cJSON/cJSON.c **** 
 4980              		.loc 1 1697 35 is_stmt 0 view .LVU1535
 4981 0092 0023     		movs	r3, #0
 4982 0094 2B61     		str	r3, [r5, #16]
1699:SynaptiX_FDK/services/cJSON/cJSON.c ****         {
 4983              		.loc 1 1699 9 is_stmt 1 view .LVU1536
1699:SynaptiX_FDK/services/cJSON/cJSON.c ****         {
 4984              		.loc 1 1699 13 is_stmt 0 discriminator 1 view .LVU1537
 4985 0096 A368     		ldr	r3, [r4, #8]
 4986 0098 6268     		ldr	r2, [r4, #4]
 4987 009a 9342     		cmp	r3, r2
 4988 009c 2ED2     		bcs	.L408
1699:SynaptiX_FDK/services/cJSON/cJSON.c ****         {
 4989              		.loc 1 1699 57 discriminator 2 view .LVU1538
 4990 009e 2268     		ldr	r2, [r4]
1699:SynaptiX_FDK/services/cJSON/cJSON.c ****         {
 4991              		.loc 1 1699 87 discriminator 2 view .LVU1539
 4992 00a0 D25C     		ldrb	r2, [r2, r3]	@ zero_extendqisi2
1699:SynaptiX_FDK/services/cJSON/cJSON.c ****         {
 4993              		.loc 1 1699 53 discriminator 2 view .LVU1540
 4994 00a2 3A2A     		cmp	r2, #58
 4995 00a4 2AD1     		bne	.L408
1705:SynaptiX_FDK/services/cJSON/cJSON.c ****         buffer_skip_whitespace(input_buffer);
 4996              		.loc 1 1705 9 is_stmt 1 view .LVU1541
1705:SynaptiX_FDK/services/cJSON/cJSON.c ****         buffer_skip_whitespace(input_buffer);
 4997              		.loc 1 1705 29 is_stmt 0 view .LVU1542
 4998 00a6 0133     		adds	r3, r3, #1
 4999 00a8 A360     		str	r3, [r4, #8]
1706:SynaptiX_FDK/services/cJSON/cJSON.c ****         if (!parse_value(current_item, input_buffer))
 5000              		.loc 1 1706 9 is_stmt 1 view .LVU1543
 5001 00aa 2046     		mov	r0, r4
 5002 00ac FFF7FEFF 		bl	buffer_skip_whitespace
 5003              	.LVL491:
1707:SynaptiX_FDK/services/cJSON/cJSON.c ****         {
 5004              		.loc 1 1707 9 view .LVU1544
1707:SynaptiX_FDK/services/cJSON/cJSON.c ****         {
 5005              		.loc 1 1707 14 is_stmt 0 view .LVU1545
 5006 00b0 2146     		mov	r1, r4
 5007 00b2 2846     		mov	r0, r5
 5008 00b4 FFF7FEFF 		bl	parse_value
 5009              	.LVL492:
1707:SynaptiX_FDK/services/cJSON/cJSON.c ****         {
 5010              		.loc 1 1707 12 discriminator 1 view .LVU1546
 5011 00b8 00B3     		cbz	r0, .L408
1711:SynaptiX_FDK/services/cJSON/cJSON.c ****     }
 5012              		.loc 1 1711 9 is_stmt 1 view .LVU1547
 5013 00ba 2046     		mov	r0, r4
ARM GAS  C:\Users\DELL\AppData\Local\Temp\ccXjhdgA.s 			page 160


 5014 00bc FFF7FEFF 		bl	buffer_skip_whitespace
 5015              	.LVL493:
 5016              	.LBE15:
1713:SynaptiX_FDK/services/cJSON/cJSON.c **** 
 5017              		.loc 1 1713 49 view .LVU1548
1713:SynaptiX_FDK/services/cJSON/cJSON.c **** 
 5018              		.loc 1 1713 12 is_stmt 0 discriminator 1 view .LVU1549
 5019 00c0 A368     		ldr	r3, [r4, #8]
 5020 00c2 6268     		ldr	r2, [r4, #4]
 5021 00c4 9342     		cmp	r3, r2
 5022 00c6 11D2     		bcs	.L410
1713:SynaptiX_FDK/services/cJSON/cJSON.c **** 
 5023              		.loc 1 1713 53 discriminator 2 view .LVU1550
 5024 00c8 2268     		ldr	r2, [r4]
1713:SynaptiX_FDK/services/cJSON/cJSON.c **** 
 5025              		.loc 1 1713 83 discriminator 2 view .LVU1551
 5026 00ca D35C     		ldrb	r3, [r2, r3]	@ zero_extendqisi2
1713:SynaptiX_FDK/services/cJSON/cJSON.c **** 
 5027              		.loc 1 1713 49 discriminator 2 view .LVU1552
 5028 00cc 2C2B     		cmp	r3, #44
 5029 00ce 0DD1     		bne	.L410
 5030              	.LVL494:
 5031              	.L411:
1658:SynaptiX_FDK/services/cJSON/cJSON.c ****     {
 5032              		.loc 1 1658 5 is_stmt 1 view .LVU1553
 5033              	.LBB16:
1661:SynaptiX_FDK/services/cJSON/cJSON.c ****         if (new_item == NULL)
 5034              		.loc 1 1661 9 view .LVU1554
 5035 00d0 A846     		mov	r8, r5
1661:SynaptiX_FDK/services/cJSON/cJSON.c ****         if (new_item == NULL)
 5036              		.loc 1 1661 27 is_stmt 0 view .LVU1555
 5037 00d2 04F11000 		add	r0, r4, #16
 5038 00d6 FFF7FEFF 		bl	cJSON_New_Item
 5039              	.LVL495:
1662:SynaptiX_FDK/services/cJSON/cJSON.c ****         {
 5040              		.loc 1 1662 9 is_stmt 1 view .LVU1556
1662:SynaptiX_FDK/services/cJSON/cJSON.c ****         {
 5041              		.loc 1 1662 12 is_stmt 0 view .LVU1557
 5042 00da 0546     		mov	r5, r0
 5043              	.LVL496:
1662:SynaptiX_FDK/services/cJSON/cJSON.c ****         {
 5044              		.loc 1 1662 12 view .LVU1558
 5045 00dc 70B1     		cbz	r0, .L408
1668:SynaptiX_FDK/services/cJSON/cJSON.c ****         {
 5046              		.loc 1 1668 9 is_stmt 1 view .LVU1559
1668:SynaptiX_FDK/services/cJSON/cJSON.c ****         {
 5047              		.loc 1 1668 12 is_stmt 0 view .LVU1560
 5048 00de 002F     		cmp	r7, #0
 5049 00e0 C2D0     		beq	.L418
1676:SynaptiX_FDK/services/cJSON/cJSON.c ****             new_item->prev = current_item;
 5050              		.loc 1 1676 13 is_stmt 1 view .LVU1561
1676:SynaptiX_FDK/services/cJSON/cJSON.c ****             new_item->prev = current_item;
 5051              		.loc 1 1676 32 is_stmt 0 view .LVU1562
 5052 00e2 C8F80000 		str	r0, [r8]
1677:SynaptiX_FDK/services/cJSON/cJSON.c ****             current_item = new_item;
 5053              		.loc 1 1677 13 is_stmt 1 view .LVU1563
1677:SynaptiX_FDK/services/cJSON/cJSON.c ****             current_item = new_item;
ARM GAS  C:\Users\DELL\AppData\Local\Temp\ccXjhdgA.s 			page 161


 5054              		.loc 1 1677 28 is_stmt 0 view .LVU1564
 5055 00e6 C0F80480 		str	r8, [r0, #4]
1678:SynaptiX_FDK/services/cJSON/cJSON.c ****         }
 5056              		.loc 1 1678 13 is_stmt 1 view .LVU1565
 5057              	.LVL497:
1678:SynaptiX_FDK/services/cJSON/cJSON.c ****         }
 5058              		.loc 1 1678 13 is_stmt 0 view .LVU1566
 5059 00ea BEE7     		b	.L409
 5060              	.LVL498:
 5061              	.L410:
1678:SynaptiX_FDK/services/cJSON/cJSON.c ****         }
 5062              		.loc 1 1678 13 view .LVU1567
 5063              	.LBE16:
1715:SynaptiX_FDK/services/cJSON/cJSON.c ****     {
 5064              		.loc 1 1715 5 is_stmt 1 view .LVU1568
1715:SynaptiX_FDK/services/cJSON/cJSON.c ****     {
 5065              		.loc 1 1715 9 is_stmt 0 discriminator 1 view .LVU1569
 5066 00ec A368     		ldr	r3, [r4, #8]
 5067 00ee 6268     		ldr	r2, [r4, #4]
 5068 00f0 9342     		cmp	r3, r2
 5069 00f2 03D2     		bcs	.L408
1715:SynaptiX_FDK/services/cJSON/cJSON.c ****     {
 5070              		.loc 1 1715 53 discriminator 2 view .LVU1570
 5071 00f4 2268     		ldr	r2, [r4]
1715:SynaptiX_FDK/services/cJSON/cJSON.c ****     {
 5072              		.loc 1 1715 83 discriminator 2 view .LVU1571
 5073 00f6 D35C     		ldrb	r3, [r2, r3]	@ zero_extendqisi2
1715:SynaptiX_FDK/services/cJSON/cJSON.c ****     {
 5074              		.loc 1 1715 49 discriminator 2 view .LVU1572
 5075 00f8 7D2B     		cmp	r3, #125
 5076 00fa 07D0     		beq	.L406
 5077              	.LVL499:
 5078              	.L408:
1734:SynaptiX_FDK/services/cJSON/cJSON.c ****     {
 5079              		.loc 1 1734 5 is_stmt 1 view .LVU1573
1734:SynaptiX_FDK/services/cJSON/cJSON.c ****     {
 5080              		.loc 1 1734 8 is_stmt 0 view .LVU1574
 5081 00fc CFB1     		cbz	r7, .L419
1736:SynaptiX_FDK/services/cJSON/cJSON.c ****     }
 5082              		.loc 1 1736 9 is_stmt 1 view .LVU1575
 5083 00fe 3846     		mov	r0, r7
 5084 0100 FFF7FEFF 		bl	cJSON_Delete
 5085              	.LVL500:
1739:SynaptiX_FDK/services/cJSON/cJSON.c **** }
 5086              		.loc 1 1739 12 is_stmt 0 view .LVU1576
 5087 0104 0020     		movs	r0, #0
 5088 0106 93E7     		b	.L403
 5089              	.LVL501:
 5090              	.L417:
1628:SynaptiX_FDK/services/cJSON/cJSON.c **** 
 5091              		.loc 1 1628 12 view .LVU1577
 5092 0108 0025     		movs	r5, #0
1627:SynaptiX_FDK/services/cJSON/cJSON.c ****     cJSON *current_item = NULL;
 5093              		.loc 1 1627 12 view .LVU1578
 5094 010a 2F46     		mov	r7, r5
 5095              	.LVL502:
 5096              	.L406:
ARM GAS  C:\Users\DELL\AppData\Local\Temp\ccXjhdgA.s 			page 162


1721:SynaptiX_FDK/services/cJSON/cJSON.c **** 
 5097              		.loc 1 1721 5 is_stmt 1 view .LVU1579
1721:SynaptiX_FDK/services/cJSON/cJSON.c **** 
 5098              		.loc 1 1721 17 is_stmt 0 view .LVU1580
 5099 010c E368     		ldr	r3, [r4, #12]
1721:SynaptiX_FDK/services/cJSON/cJSON.c **** 
 5100              		.loc 1 1721 24 view .LVU1581
 5101 010e 013B     		subs	r3, r3, #1
 5102 0110 E360     		str	r3, [r4, #12]
1723:SynaptiX_FDK/services/cJSON/cJSON.c ****         head->prev = current_item;
 5103              		.loc 1 1723 5 is_stmt 1 view .LVU1582
1723:SynaptiX_FDK/services/cJSON/cJSON.c ****         head->prev = current_item;
 5104              		.loc 1 1723 8 is_stmt 0 view .LVU1583
 5105 0112 07B1     		cbz	r7, .L412
1724:SynaptiX_FDK/services/cJSON/cJSON.c ****     }
 5106              		.loc 1 1724 9 is_stmt 1 view .LVU1584
1724:SynaptiX_FDK/services/cJSON/cJSON.c ****     }
 5107              		.loc 1 1724 20 is_stmt 0 view .LVU1585
 5108 0114 7D60     		str	r5, [r7, #4]
 5109              	.L412:
1727:SynaptiX_FDK/services/cJSON/cJSON.c ****     item->child = head;
 5110              		.loc 1 1727 5 is_stmt 1 view .LVU1586
1727:SynaptiX_FDK/services/cJSON/cJSON.c ****     item->child = head;
 5111              		.loc 1 1727 16 is_stmt 0 view .LVU1587
 5112 0116 4023     		movs	r3, #64
 5113 0118 F360     		str	r3, [r6, #12]
1728:SynaptiX_FDK/services/cJSON/cJSON.c **** 
 5114              		.loc 1 1728 5 is_stmt 1 view .LVU1588
1728:SynaptiX_FDK/services/cJSON/cJSON.c **** 
 5115              		.loc 1 1728 17 is_stmt 0 view .LVU1589
 5116 011a B760     		str	r7, [r6, #8]
1730:SynaptiX_FDK/services/cJSON/cJSON.c ****     return true;
 5117              		.loc 1 1730 5 is_stmt 1 view .LVU1590
1730:SynaptiX_FDK/services/cJSON/cJSON.c ****     return true;
 5118              		.loc 1 1730 17 is_stmt 0 view .LVU1591
 5119 011c A368     		ldr	r3, [r4, #8]
1730:SynaptiX_FDK/services/cJSON/cJSON.c ****     return true;
 5120              		.loc 1 1730 25 view .LVU1592
 5121 011e 0133     		adds	r3, r3, #1
 5122 0120 A360     		str	r3, [r4, #8]
1731:SynaptiX_FDK/services/cJSON/cJSON.c **** 
 5123              		.loc 1 1731 5 is_stmt 1 view .LVU1593
1731:SynaptiX_FDK/services/cJSON/cJSON.c **** 
 5124              		.loc 1 1731 12 is_stmt 0 view .LVU1594
 5125 0122 0120     		movs	r0, #1
 5126 0124 84E7     		b	.L403
 5127              	.LVL503:
 5128              	.L413:
 5129              	.LCFI49:
 5130              		.cfi_def_cfa_offset 0
 5131              		.cfi_restore 4
 5132              		.cfi_restore 5
 5133              		.cfi_restore 6
 5134              		.cfi_restore 7
 5135              		.cfi_restore 8
 5136              		.cfi_restore 14
1632:SynaptiX_FDK/services/cJSON/cJSON.c ****     }
ARM GAS  C:\Users\DELL\AppData\Local\Temp\ccXjhdgA.s 			page 163


 5137              		.loc 1 1632 16 view .LVU1595
 5138 0126 0020     		movs	r0, #0
 5139              	.LVL504:
1740:SynaptiX_FDK/services/cJSON/cJSON.c **** 
 5140              		.loc 1 1740 1 view .LVU1596
 5141 0128 7047     		bx	lr
 5142              	.LVL505:
 5143              	.L414:
 5144              	.LCFI50:
 5145              		.cfi_def_cfa_offset 24
 5146              		.cfi_offset 4, -24
 5147              		.cfi_offset 5, -20
 5148              		.cfi_offset 6, -16
 5149              		.cfi_offset 7, -12
 5150              		.cfi_offset 8, -8
 5151              		.cfi_offset 14, -4
1739:SynaptiX_FDK/services/cJSON/cJSON.c **** }
 5152              		.loc 1 1739 12 view .LVU1597
 5153 012a 0020     		movs	r0, #0
 5154              	.LVL506:
1739:SynaptiX_FDK/services/cJSON/cJSON.c **** }
 5155              		.loc 1 1739 12 view .LVU1598
 5156 012c 80E7     		b	.L403
 5157              	.LVL507:
 5158              	.L415:
1739:SynaptiX_FDK/services/cJSON/cJSON.c **** }
 5159              		.loc 1 1739 12 view .LVU1599
 5160 012e 0020     		movs	r0, #0
 5161              	.LVL508:
1739:SynaptiX_FDK/services/cJSON/cJSON.c **** }
 5162              		.loc 1 1739 12 view .LVU1600
 5163 0130 7EE7     		b	.L403
 5164              	.LVL509:
 5165              	.L419:
1739:SynaptiX_FDK/services/cJSON/cJSON.c **** }
 5166              		.loc 1 1739 12 view .LVU1601
 5167 0132 0020     		movs	r0, #0
 5168              	.LVL510:
1739:SynaptiX_FDK/services/cJSON/cJSON.c **** }
 5169              		.loc 1 1739 12 view .LVU1602
 5170 0134 7CE7     		b	.L403
 5171              		.cfi_endproc
 5172              	.LFE41:
 5174              		.section	.text.parse_value,"ax",%progbits
 5175              		.align	1
 5176              		.syntax unified
 5177              		.thumb
 5178              		.thumb_func
 5180              	parse_value:
 5181              	.LVL511:
 5182              	.LFB37:
1337:SynaptiX_FDK/services/cJSON/cJSON.c ****     if ((input_buffer == NULL) || (input_buffer->content == NULL))
 5183              		.loc 1 1337 1 is_stmt 1 view -0
 5184              		.cfi_startproc
 5185              		@ args = 0, pretend = 0, frame = 0
 5186              		@ frame_needed = 0, uses_anonymous_args = 0
1338:SynaptiX_FDK/services/cJSON/cJSON.c ****     {
ARM GAS  C:\Users\DELL\AppData\Local\Temp\ccXjhdgA.s 			page 164


 5187              		.loc 1 1338 5 view .LVU1604
1338:SynaptiX_FDK/services/cJSON/cJSON.c ****     {
 5188              		.loc 1 1338 8 is_stmt 0 view .LVU1605
 5189 0000 0029     		cmp	r1, #0
 5190 0002 6AD0     		beq	.L435
1337:SynaptiX_FDK/services/cJSON/cJSON.c ****     if ((input_buffer == NULL) || (input_buffer->content == NULL))
 5191              		.loc 1 1337 1 view .LVU1606
 5192 0004 2DE9F843 		push	{r3, r4, r5, r6, r7, r8, r9, lr}
 5193              	.LCFI51:
 5194              		.cfi_def_cfa_offset 32
 5195              		.cfi_offset 3, -32
 5196              		.cfi_offset 4, -28
 5197              		.cfi_offset 5, -24
 5198              		.cfi_offset 6, -20
 5199              		.cfi_offset 7, -16
 5200              		.cfi_offset 8, -12
 5201              		.cfi_offset 9, -8
 5202              		.cfi_offset 14, -4
 5203 0008 8046     		mov	r8, r0
 5204 000a 0D46     		mov	r5, r1
1338:SynaptiX_FDK/services/cJSON/cJSON.c ****     {
 5205              		.loc 1 1338 48 discriminator 1 view .LVU1607
 5206 000c 0F68     		ldr	r7, [r1]
1338:SynaptiX_FDK/services/cJSON/cJSON.c ****     {
 5207              		.loc 1 1338 32 discriminator 1 view .LVU1608
 5208 000e 002F     		cmp	r7, #0
 5209 0010 65D0     		beq	.L436
1345:SynaptiX_FDK/services/cJSON/cJSON.c ****     {
 5210              		.loc 1 1345 5 is_stmt 1 view .LVU1609
1345:SynaptiX_FDK/services/cJSON/cJSON.c ****     {
 5211              		.loc 1 1345 9 is_stmt 0 discriminator 1 view .LVU1610
 5212 0012 8C68     		ldr	r4, [r1, #8]
 5213 0014 04F10409 		add	r9, r4, #4
 5214 0018 4E68     		ldr	r6, [r1, #4]
 5215 001a B145     		cmp	r9, r6
 5216 001c 05D8     		bhi	.L428
1345:SynaptiX_FDK/services/cJSON/cJSON.c ****     {
 5217              		.loc 1 1345 39 discriminator 2 view .LVU1611
 5218 001e 0422     		movs	r2, #4
 5219 0020 3149     		ldr	r1, .L449
 5220              	.LVL512:
1345:SynaptiX_FDK/services/cJSON/cJSON.c ****     {
 5221              		.loc 1 1345 39 discriminator 2 view .LVU1612
 5222 0022 3819     		adds	r0, r7, r4
 5223              	.LVL513:
1345:SynaptiX_FDK/services/cJSON/cJSON.c ****     {
 5224              		.loc 1 1345 39 discriminator 2 view .LVU1613
 5225 0024 FFF7FEFF 		bl	strncmp
 5226              	.LVL514:
1345:SynaptiX_FDK/services/cJSON/cJSON.c ****     {
 5227              		.loc 1 1345 35 discriminator 1 view .LVU1614
 5228 0028 50B3     		cbz	r0, .L443
 5229              	.L428:
1352:SynaptiX_FDK/services/cJSON/cJSON.c ****     {
 5230              		.loc 1 1352 9 discriminator 1 view .LVU1615
 5231 002a 631D     		adds	r3, r4, #5
 5232 002c 9E42     		cmp	r6, r3
ARM GAS  C:\Users\DELL\AppData\Local\Temp\ccXjhdgA.s 			page 165


 5233 002e 05D3     		bcc	.L429
1352:SynaptiX_FDK/services/cJSON/cJSON.c ****     {
 5234              		.loc 1 1352 39 discriminator 2 view .LVU1616
 5235 0030 0522     		movs	r2, #5
 5236 0032 2E49     		ldr	r1, .L449+4
 5237 0034 3819     		adds	r0, r7, r4
 5238 0036 FFF7FEFF 		bl	strncmp
 5239              	.LVL515:
1352:SynaptiX_FDK/services/cJSON/cJSON.c ****     {
 5240              		.loc 1 1352 35 discriminator 1 view .LVU1617
 5241 003a 48B3     		cbz	r0, .L444
 5242              	.L429:
1359:SynaptiX_FDK/services/cJSON/cJSON.c ****     {
 5243              		.loc 1 1359 9 discriminator 1 view .LVU1618
 5244 003c B145     		cmp	r9, r6
 5245 003e 05D8     		bhi	.L430
1359:SynaptiX_FDK/services/cJSON/cJSON.c ****     {
 5246              		.loc 1 1359 39 discriminator 2 view .LVU1619
 5247 0040 0422     		movs	r2, #4
 5248 0042 2B49     		ldr	r1, .L449+8
 5249 0044 3819     		adds	r0, r7, r4
 5250 0046 FFF7FEFF 		bl	strncmp
 5251              	.LVL516:
1359:SynaptiX_FDK/services/cJSON/cJSON.c ****     {
 5252              		.loc 1 1359 35 discriminator 1 view .LVU1620
 5253 004a 40B3     		cbz	r0, .L445
 5254              	.L430:
1367:SynaptiX_FDK/services/cJSON/cJSON.c ****     {
 5255              		.loc 1 1367 9 discriminator 1 view .LVU1621
 5256 004c B442     		cmp	r4, r6
 5257 004e 02D2     		bcs	.L431
1367:SynaptiX_FDK/services/cJSON/cJSON.c ****     {
 5258              		.loc 1 1367 80 discriminator 2 view .LVU1622
 5259 0050 3B5D     		ldrb	r3, [r7, r4]	@ zero_extendqisi2
1367:SynaptiX_FDK/services/cJSON/cJSON.c ****     {
 5260              		.loc 1 1367 46 discriminator 2 view .LVU1623
 5261 0052 222B     		cmp	r3, #34
 5262 0054 2DD0     		beq	.L446
 5263              	.L431:
1372:SynaptiX_FDK/services/cJSON/cJSON.c ****     {
 5264              		.loc 1 1372 9 discriminator 1 view .LVU1624
 5265 0056 B442     		cmp	r4, r6
 5266 0058 06D2     		bcs	.L432
1372:SynaptiX_FDK/services/cJSON/cJSON.c ****     {
 5267              		.loc 1 1372 81 discriminator 2 view .LVU1625
 5268 005a 3B5D     		ldrb	r3, [r7, r4]	@ zero_extendqisi2
1372:SynaptiX_FDK/services/cJSON/cJSON.c ****     {
 5269              		.loc 1 1372 46 discriminator 2 view .LVU1626
 5270 005c 2D2B     		cmp	r3, #45
 5271 005e 2DD0     		beq	.L433
1372:SynaptiX_FDK/services/cJSON/cJSON.c ****     {
 5272              		.loc 1 1372 140 discriminator 3 view .LVU1627
 5273 0060 303B     		subs	r3, r3, #48
 5274 0062 DBB2     		uxtb	r3, r3
1372:SynaptiX_FDK/services/cJSON/cJSON.c ****     {
 5275              		.loc 1 1372 93 discriminator 3 view .LVU1628
 5276 0064 092B     		cmp	r3, #9
ARM GAS  C:\Users\DELL\AppData\Local\Temp\ccXjhdgA.s 			page 166


 5277 0066 29D9     		bls	.L433
 5278              	.L432:
1377:SynaptiX_FDK/services/cJSON/cJSON.c ****     {
 5279              		.loc 1 1377 9 discriminator 1 view .LVU1629
 5280 0068 B442     		cmp	r4, r6
 5281 006a 02D2     		bcs	.L434
1377:SynaptiX_FDK/services/cJSON/cJSON.c ****     {
 5282              		.loc 1 1377 80 discriminator 2 view .LVU1630
 5283 006c 3B5D     		ldrb	r3, [r7, r4]	@ zero_extendqisi2
1377:SynaptiX_FDK/services/cJSON/cJSON.c ****     {
 5284              		.loc 1 1377 46 discriminator 2 view .LVU1631
 5285 006e 5B2B     		cmp	r3, #91
 5286 0070 29D0     		beq	.L447
 5287              	.L434:
1382:SynaptiX_FDK/services/cJSON/cJSON.c ****     {
 5288              		.loc 1 1382 9 discriminator 1 view .LVU1632
 5289 0072 B442     		cmp	r4, r6
 5290 0074 36D2     		bcs	.L437
1382:SynaptiX_FDK/services/cJSON/cJSON.c ****     {
 5291              		.loc 1 1382 80 discriminator 2 view .LVU1633
 5292 0076 3B5D     		ldrb	r3, [r7, r4]	@ zero_extendqisi2
1382:SynaptiX_FDK/services/cJSON/cJSON.c ****     {
 5293              		.loc 1 1382 46 discriminator 2 view .LVU1634
 5294 0078 7B2B     		cmp	r3, #123
 5295 007a 29D0     		beq	.L448
1387:SynaptiX_FDK/services/cJSON/cJSON.c **** }
 5296              		.loc 1 1387 12 view .LVU1635
 5297 007c 0020     		movs	r0, #0
 5298 007e 2FE0     		b	.L426
 5299              	.L443:
1347:SynaptiX_FDK/services/cJSON/cJSON.c ****         input_buffer->offset += 4;
 5300              		.loc 1 1347 9 is_stmt 1 view .LVU1636
1347:SynaptiX_FDK/services/cJSON/cJSON.c ****         input_buffer->offset += 4;
 5301              		.loc 1 1347 20 is_stmt 0 view .LVU1637
 5302 0080 0423     		movs	r3, #4
 5303 0082 C8F80C30 		str	r3, [r8, #12]
1348:SynaptiX_FDK/services/cJSON/cJSON.c ****         return true;
 5304              		.loc 1 1348 9 is_stmt 1 view .LVU1638
1348:SynaptiX_FDK/services/cJSON/cJSON.c ****         return true;
 5305              		.loc 1 1348 21 is_stmt 0 view .LVU1639
 5306 0086 AB68     		ldr	r3, [r5, #8]
1348:SynaptiX_FDK/services/cJSON/cJSON.c ****         return true;
 5307              		.loc 1 1348 30 view .LVU1640
 5308 0088 0433     		adds	r3, r3, #4
 5309 008a AB60     		str	r3, [r5, #8]
1349:SynaptiX_FDK/services/cJSON/cJSON.c ****     }
 5310              		.loc 1 1349 9 is_stmt 1 view .LVU1641
1349:SynaptiX_FDK/services/cJSON/cJSON.c ****     }
 5311              		.loc 1 1349 16 is_stmt 0 view .LVU1642
 5312 008c 0120     		movs	r0, #1
 5313 008e 27E0     		b	.L426
 5314              	.L444:
1354:SynaptiX_FDK/services/cJSON/cJSON.c ****         input_buffer->offset += 5;
 5315              		.loc 1 1354 9 is_stmt 1 view .LVU1643
1354:SynaptiX_FDK/services/cJSON/cJSON.c ****         input_buffer->offset += 5;
 5316              		.loc 1 1354 20 is_stmt 0 view .LVU1644
 5317 0090 0120     		movs	r0, #1
ARM GAS  C:\Users\DELL\AppData\Local\Temp\ccXjhdgA.s 			page 167


 5318 0092 C8F80C00 		str	r0, [r8, #12]
1355:SynaptiX_FDK/services/cJSON/cJSON.c ****         return true;
 5319              		.loc 1 1355 9 is_stmt 1 view .LVU1645
1355:SynaptiX_FDK/services/cJSON/cJSON.c ****         return true;
 5320              		.loc 1 1355 21 is_stmt 0 view .LVU1646
 5321 0096 AA68     		ldr	r2, [r5, #8]
1355:SynaptiX_FDK/services/cJSON/cJSON.c ****         return true;
 5322              		.loc 1 1355 30 view .LVU1647
 5323 0098 0532     		adds	r2, r2, #5
 5324 009a AA60     		str	r2, [r5, #8]
1356:SynaptiX_FDK/services/cJSON/cJSON.c ****     }
 5325              		.loc 1 1356 9 is_stmt 1 view .LVU1648
1356:SynaptiX_FDK/services/cJSON/cJSON.c ****     }
 5326              		.loc 1 1356 16 is_stmt 0 view .LVU1649
 5327 009c 20E0     		b	.L426
 5328              	.L445:
1361:SynaptiX_FDK/services/cJSON/cJSON.c ****         item->valueint = 1;
 5329              		.loc 1 1361 9 is_stmt 1 view .LVU1650
1361:SynaptiX_FDK/services/cJSON/cJSON.c ****         item->valueint = 1;
 5330              		.loc 1 1361 20 is_stmt 0 view .LVU1651
 5331 009e 0223     		movs	r3, #2
 5332 00a0 C8F80C30 		str	r3, [r8, #12]
1362:SynaptiX_FDK/services/cJSON/cJSON.c ****         input_buffer->offset += 4;
 5333              		.loc 1 1362 9 is_stmt 1 view .LVU1652
1362:SynaptiX_FDK/services/cJSON/cJSON.c ****         input_buffer->offset += 4;
 5334              		.loc 1 1362 24 is_stmt 0 view .LVU1653
 5335 00a4 0120     		movs	r0, #1
 5336 00a6 C8F81400 		str	r0, [r8, #20]
1363:SynaptiX_FDK/services/cJSON/cJSON.c ****         return true;
 5337              		.loc 1 1363 9 is_stmt 1 view .LVU1654
1363:SynaptiX_FDK/services/cJSON/cJSON.c ****         return true;
 5338              		.loc 1 1363 21 is_stmt 0 view .LVU1655
 5339 00aa AA68     		ldr	r2, [r5, #8]
1363:SynaptiX_FDK/services/cJSON/cJSON.c ****         return true;
 5340              		.loc 1 1363 30 view .LVU1656
 5341 00ac 0432     		adds	r2, r2, #4
 5342 00ae AA60     		str	r2, [r5, #8]
1364:SynaptiX_FDK/services/cJSON/cJSON.c ****     }
 5343              		.loc 1 1364 9 is_stmt 1 view .LVU1657
1364:SynaptiX_FDK/services/cJSON/cJSON.c ****     }
 5344              		.loc 1 1364 16 is_stmt 0 view .LVU1658
 5345 00b0 16E0     		b	.L426
 5346              	.L446:
1369:SynaptiX_FDK/services/cJSON/cJSON.c ****     }
 5347              		.loc 1 1369 9 is_stmt 1 view .LVU1659
1369:SynaptiX_FDK/services/cJSON/cJSON.c ****     }
 5348              		.loc 1 1369 16 is_stmt 0 view .LVU1660
 5349 00b2 2946     		mov	r1, r5
 5350 00b4 4046     		mov	r0, r8
 5351 00b6 FFF7FEFF 		bl	parse_string
 5352              	.LVL517:
 5353 00ba 11E0     		b	.L426
 5354              	.L433:
1374:SynaptiX_FDK/services/cJSON/cJSON.c ****     }
 5355              		.loc 1 1374 9 is_stmt 1 view .LVU1661
1374:SynaptiX_FDK/services/cJSON/cJSON.c ****     }
 5356              		.loc 1 1374 16 is_stmt 0 view .LVU1662
ARM GAS  C:\Users\DELL\AppData\Local\Temp\ccXjhdgA.s 			page 168


 5357 00bc 2946     		mov	r1, r5
 5358 00be 4046     		mov	r0, r8
 5359 00c0 FFF7FEFF 		bl	parse_number
 5360              	.LVL518:
 5361 00c4 0CE0     		b	.L426
 5362              	.L447:
1379:SynaptiX_FDK/services/cJSON/cJSON.c ****     }
 5363              		.loc 1 1379 9 is_stmt 1 view .LVU1663
1379:SynaptiX_FDK/services/cJSON/cJSON.c ****     }
 5364              		.loc 1 1379 16 is_stmt 0 view .LVU1664
 5365 00c6 2946     		mov	r1, r5
 5366 00c8 4046     		mov	r0, r8
 5367 00ca FFF7FEFF 		bl	parse_array
 5368              	.LVL519:
 5369 00ce 07E0     		b	.L426
 5370              	.L448:
1384:SynaptiX_FDK/services/cJSON/cJSON.c ****     }
 5371              		.loc 1 1384 9 is_stmt 1 view .LVU1665
1384:SynaptiX_FDK/services/cJSON/cJSON.c ****     }
 5372              		.loc 1 1384 16 is_stmt 0 view .LVU1666
 5373 00d0 2946     		mov	r1, r5
 5374 00d2 4046     		mov	r0, r8
 5375 00d4 FFF7FEFF 		bl	parse_object
 5376              	.LVL520:
 5377 00d8 02E0     		b	.L426
 5378              	.LVL521:
 5379              	.L435:
 5380              	.LCFI52:
 5381              		.cfi_def_cfa_offset 0
 5382              		.cfi_restore 3
 5383              		.cfi_restore 4
 5384              		.cfi_restore 5
 5385              		.cfi_restore 6
 5386              		.cfi_restore 7
 5387              		.cfi_restore 8
 5388              		.cfi_restore 9
 5389              		.cfi_restore 14
1340:SynaptiX_FDK/services/cJSON/cJSON.c ****     }
 5390              		.loc 1 1340 16 view .LVU1667
 5391 00da 0020     		movs	r0, #0
 5392              	.LVL522:
1388:SynaptiX_FDK/services/cJSON/cJSON.c **** 
 5393              		.loc 1 1388 1 view .LVU1668
 5394 00dc 7047     		bx	lr
 5395              	.LVL523:
 5396              	.L436:
 5397              	.LCFI53:
 5398              		.cfi_def_cfa_offset 32
 5399              		.cfi_offset 3, -32
 5400              		.cfi_offset 4, -28
 5401              		.cfi_offset 5, -24
 5402              		.cfi_offset 6, -20
 5403              		.cfi_offset 7, -16
 5404              		.cfi_offset 8, -12
 5405              		.cfi_offset 9, -8
 5406              		.cfi_offset 14, -4
1340:SynaptiX_FDK/services/cJSON/cJSON.c ****     }
ARM GAS  C:\Users\DELL\AppData\Local\Temp\ccXjhdgA.s 			page 169


 5407              		.loc 1 1340 16 view .LVU1669
 5408 00de 0020     		movs	r0, #0
 5409              	.LVL524:
 5410              	.L426:
1388:SynaptiX_FDK/services/cJSON/cJSON.c **** 
 5411              		.loc 1 1388 1 view .LVU1670
 5412 00e0 BDE8F883 		pop	{r3, r4, r5, r6, r7, r8, r9, pc}
 5413              	.LVL525:
 5414              	.L437:
1387:SynaptiX_FDK/services/cJSON/cJSON.c **** }
 5415              		.loc 1 1387 12 view .LVU1671
 5416 00e4 0020     		movs	r0, #0
 5417 00e6 FBE7     		b	.L426
 5418              	.L450:
 5419              		.align	2
 5420              	.L449:
 5421 00e8 00000000 		.word	.LC3
 5422 00ec 00000000 		.word	.LC7
 5423 00f0 08000000 		.word	.LC8
 5424              		.cfi_endproc
 5425              	.LFE37:
 5427              		.section	.text.parse_array,"ax",%progbits
 5428              		.align	1
 5429              		.syntax unified
 5430              		.thumb
 5431              		.thumb_func
 5433              	parse_array:
 5434              	.LVL526:
 5435              	.LFB39:
1466:SynaptiX_FDK/services/cJSON/cJSON.c ****     cJSON *head = NULL; /* head of the linked list */
 5436              		.loc 1 1466 1 is_stmt 1 view -0
 5437              		.cfi_startproc
 5438              		@ args = 0, pretend = 0, frame = 0
 5439              		@ frame_needed = 0, uses_anonymous_args = 0
1467:SynaptiX_FDK/services/cJSON/cJSON.c ****     cJSON *current_item = NULL;
 5440              		.loc 1 1467 5 view .LVU1673
1468:SynaptiX_FDK/services/cJSON/cJSON.c **** 
 5441              		.loc 1 1468 5 view .LVU1674
1470:SynaptiX_FDK/services/cJSON/cJSON.c ****     {
 5442              		.loc 1 1470 5 view .LVU1675
1470:SynaptiX_FDK/services/cJSON/cJSON.c ****     {
 5443              		.loc 1 1470 21 is_stmt 0 view .LVU1676
 5444 0000 CB68     		ldr	r3, [r1, #12]
1470:SynaptiX_FDK/services/cJSON/cJSON.c ****     {
 5445              		.loc 1 1470 8 view .LVU1677
 5446 0002 B3F57A7F 		cmp	r3, #1000
 5447 0006 6DD2     		bcs	.L462
1466:SynaptiX_FDK/services/cJSON/cJSON.c ****     cJSON *head = NULL; /* head of the linked list */
 5448              		.loc 1 1466 1 view .LVU1678
 5449 0008 2DE9F041 		push	{r4, r5, r6, r7, r8, lr}
 5450              	.LCFI54:
 5451              		.cfi_def_cfa_offset 24
 5452              		.cfi_offset 4, -24
 5453              		.cfi_offset 5, -20
 5454              		.cfi_offset 6, -16
 5455              		.cfi_offset 7, -12
 5456              		.cfi_offset 8, -8
ARM GAS  C:\Users\DELL\AppData\Local\Temp\ccXjhdgA.s 			page 170


 5457              		.cfi_offset 14, -4
 5458 000c 0646     		mov	r6, r0
 5459 000e 0C46     		mov	r4, r1
1474:SynaptiX_FDK/services/cJSON/cJSON.c **** 
 5460              		.loc 1 1474 5 is_stmt 1 view .LVU1679
1474:SynaptiX_FDK/services/cJSON/cJSON.c **** 
 5461              		.loc 1 1474 24 is_stmt 0 view .LVU1680
 5462 0010 0133     		adds	r3, r3, #1
 5463 0012 CB60     		str	r3, [r1, #12]
1476:SynaptiX_FDK/services/cJSON/cJSON.c ****     {
 5464              		.loc 1 1476 5 is_stmt 1 view .LVU1681
1476:SynaptiX_FDK/services/cJSON/cJSON.c ****     {
 5465              		.loc 1 1476 9 is_stmt 0 view .LVU1682
 5466 0014 0A68     		ldr	r2, [r1]
 5467 0016 8B68     		ldr	r3, [r1, #8]
1476:SynaptiX_FDK/services/cJSON/cJSON.c ****     {
 5468              		.loc 1 1476 39 view .LVU1683
 5469 0018 D25C     		ldrb	r2, [r2, r3]	@ zero_extendqisi2
1476:SynaptiX_FDK/services/cJSON/cJSON.c ****     {
 5470              		.loc 1 1476 8 view .LVU1684
 5471 001a 5B2A     		cmp	r2, #91
 5472 001c 02D0     		beq	.L471
1559:SynaptiX_FDK/services/cJSON/cJSON.c **** }
 5473              		.loc 1 1559 12 view .LVU1685
 5474 001e 0020     		movs	r0, #0
 5475              	.LVL527:
 5476              	.L451:
1560:SynaptiX_FDK/services/cJSON/cJSON.c **** 
 5477              		.loc 1 1560 1 view .LVU1686
 5478 0020 BDE8F081 		pop	{r4, r5, r6, r7, r8, pc}
 5479              	.LVL528:
 5480              	.L471:
1482:SynaptiX_FDK/services/cJSON/cJSON.c ****     buffer_skip_whitespace(input_buffer);
 5481              		.loc 1 1482 5 is_stmt 1 view .LVU1687
1482:SynaptiX_FDK/services/cJSON/cJSON.c ****     buffer_skip_whitespace(input_buffer);
 5482              		.loc 1 1482 25 is_stmt 0 view .LVU1688
 5483 0024 0133     		adds	r3, r3, #1
 5484 0026 8B60     		str	r3, [r1, #8]
1483:SynaptiX_FDK/services/cJSON/cJSON.c ****     if (can_access_at_index(input_buffer, 0) && (buffer_at_offset(input_buffer)[0] == ']'))
 5485              		.loc 1 1483 5 is_stmt 1 view .LVU1689
 5486 0028 0846     		mov	r0, r1
 5487              	.LVL529:
1483:SynaptiX_FDK/services/cJSON/cJSON.c ****     if (can_access_at_index(input_buffer, 0) && (buffer_at_offset(input_buffer)[0] == ']'))
 5488              		.loc 1 1483 5 is_stmt 0 view .LVU1690
 5489 002a FFF7FEFF 		bl	buffer_skip_whitespace
 5490              	.LVL530:
1484:SynaptiX_FDK/services/cJSON/cJSON.c ****     {
 5491              		.loc 1 1484 5 is_stmt 1 view .LVU1691
1484:SynaptiX_FDK/services/cJSON/cJSON.c ****     {
 5492              		.loc 1 1484 8 is_stmt 0 view .LVU1692
 5493 002e 84B1     		cbz	r4, .L453
1484:SynaptiX_FDK/services/cJSON/cJSON.c ****     {
 5494              		.loc 1 1484 9 discriminator 1 view .LVU1693
 5495 0030 A368     		ldr	r3, [r4, #8]
 5496 0032 6268     		ldr	r2, [r4, #4]
 5497 0034 9342     		cmp	r3, r2
 5498 0036 03D2     		bcs	.L454
ARM GAS  C:\Users\DELL\AppData\Local\Temp\ccXjhdgA.s 			page 171


1484:SynaptiX_FDK/services/cJSON/cJSON.c ****     {
 5499              		.loc 1 1484 50 discriminator 2 view .LVU1694
 5500 0038 2268     		ldr	r2, [r4]
1484:SynaptiX_FDK/services/cJSON/cJSON.c ****     {
 5501              		.loc 1 1484 80 discriminator 2 view .LVU1695
 5502 003a D35C     		ldrb	r3, [r2, r3]	@ zero_extendqisi2
1484:SynaptiX_FDK/services/cJSON/cJSON.c ****     {
 5503              		.loc 1 1484 46 discriminator 2 view .LVU1696
 5504 003c 5D2B     		cmp	r3, #93
 5505 003e 42D0     		beq	.L464
 5506              	.L454:
1491:SynaptiX_FDK/services/cJSON/cJSON.c ****     {
 5507              		.loc 1 1491 9 discriminator 1 view .LVU1697
 5508 0040 A368     		ldr	r3, [r4, #8]
 5509 0042 6268     		ldr	r2, [r4, #4]
 5510 0044 9342     		cmp	r3, r2
 5511 0046 04D2     		bcs	.L453
1498:SynaptiX_FDK/services/cJSON/cJSON.c ****     /* loop through the comma separated array elements */
 5512              		.loc 1 1498 5 is_stmt 1 view .LVU1698
1498:SynaptiX_FDK/services/cJSON/cJSON.c ****     /* loop through the comma separated array elements */
 5513              		.loc 1 1498 25 is_stmt 0 view .LVU1699
 5514 0048 013B     		subs	r3, r3, #1
 5515 004a A360     		str	r3, [r4, #8]
1468:SynaptiX_FDK/services/cJSON/cJSON.c **** 
 5516              		.loc 1 1468 12 view .LVU1700
 5517 004c 0025     		movs	r5, #0
1467:SynaptiX_FDK/services/cJSON/cJSON.c ****     cJSON *current_item = NULL;
 5518              		.loc 1 1467 12 view .LVU1701
 5519 004e 2F46     		mov	r7, r5
 5520 0050 1CE0     		b	.L460
 5521              	.L453:
1493:SynaptiX_FDK/services/cJSON/cJSON.c ****         goto fail;
 5522              		.loc 1 1493 9 is_stmt 1 view .LVU1702
1493:SynaptiX_FDK/services/cJSON/cJSON.c ****         goto fail;
 5523              		.loc 1 1493 21 is_stmt 0 view .LVU1703
 5524 0052 A368     		ldr	r3, [r4, #8]
1493:SynaptiX_FDK/services/cJSON/cJSON.c ****         goto fail;
 5525              		.loc 1 1493 29 view .LVU1704
 5526 0054 013B     		subs	r3, r3, #1
 5527 0056 A360     		str	r3, [r4, #8]
1494:SynaptiX_FDK/services/cJSON/cJSON.c ****     }
 5528              		.loc 1 1494 9 is_stmt 1 view .LVU1705
1554:SynaptiX_FDK/services/cJSON/cJSON.c ****     {
 5529              		.loc 1 1554 5 view .LVU1706
1559:SynaptiX_FDK/services/cJSON/cJSON.c **** }
 5530              		.loc 1 1559 12 is_stmt 0 view .LVU1707
 5531 0058 0020     		movs	r0, #0
 5532 005a E1E7     		b	.L451
 5533              	.LVL531:
 5534              	.L465:
 5535              	.LBB17:
1513:SynaptiX_FDK/services/cJSON/cJSON.c ****         }
 5536              		.loc 1 1513 33 view .LVU1708
 5537 005c 0746     		mov	r7, r0
 5538              	.LVL532:
 5539              	.L458:
1524:SynaptiX_FDK/services/cJSON/cJSON.c ****         buffer_skip_whitespace(input_buffer);
ARM GAS  C:\Users\DELL\AppData\Local\Temp\ccXjhdgA.s 			page 172


 5540              		.loc 1 1524 9 is_stmt 1 view .LVU1709
1524:SynaptiX_FDK/services/cJSON/cJSON.c ****         buffer_skip_whitespace(input_buffer);
 5541              		.loc 1 1524 21 is_stmt 0 view .LVU1710
 5542 005e A368     		ldr	r3, [r4, #8]
1524:SynaptiX_FDK/services/cJSON/cJSON.c ****         buffer_skip_whitespace(input_buffer);
 5543              		.loc 1 1524 29 view .LVU1711
 5544 0060 0133     		adds	r3, r3, #1
 5545 0062 A360     		str	r3, [r4, #8]
1525:SynaptiX_FDK/services/cJSON/cJSON.c ****         if (!parse_value(current_item, input_buffer))
 5546              		.loc 1 1525 9 is_stmt 1 view .LVU1712
 5547 0064 2046     		mov	r0, r4
 5548              	.LVL533:
1525:SynaptiX_FDK/services/cJSON/cJSON.c ****         if (!parse_value(current_item, input_buffer))
 5549              		.loc 1 1525 9 is_stmt 0 view .LVU1713
 5550 0066 FFF7FEFF 		bl	buffer_skip_whitespace
 5551              	.LVL534:
1526:SynaptiX_FDK/services/cJSON/cJSON.c ****         {
 5552              		.loc 1 1526 9 is_stmt 1 view .LVU1714
1526:SynaptiX_FDK/services/cJSON/cJSON.c ****         {
 5553              		.loc 1 1526 14 is_stmt 0 view .LVU1715
 5554 006a 2146     		mov	r1, r4
 5555 006c 2846     		mov	r0, r5
 5556 006e FFF7FEFF 		bl	parse_value
 5557              	.LVL535:
1526:SynaptiX_FDK/services/cJSON/cJSON.c ****         {
 5558              		.loc 1 1526 12 discriminator 1 view .LVU1716
 5559 0072 10B3     		cbz	r0, .L457
1530:SynaptiX_FDK/services/cJSON/cJSON.c ****     }
 5560              		.loc 1 1530 9 is_stmt 1 view .LVU1717
 5561 0074 2046     		mov	r0, r4
 5562 0076 FFF7FEFF 		bl	buffer_skip_whitespace
 5563              	.LVL536:
 5564              	.LBE17:
1532:SynaptiX_FDK/services/cJSON/cJSON.c **** 
 5565              		.loc 1 1532 49 view .LVU1718
 5566 007a ACB1     		cbz	r4, .L459
1532:SynaptiX_FDK/services/cJSON/cJSON.c **** 
 5567              		.loc 1 1532 12 is_stmt 0 discriminator 1 view .LVU1719
 5568 007c A368     		ldr	r3, [r4, #8]
 5569 007e 6268     		ldr	r2, [r4, #4]
 5570 0080 9342     		cmp	r3, r2
 5571 0082 11D2     		bcs	.L459
1532:SynaptiX_FDK/services/cJSON/cJSON.c **** 
 5572              		.loc 1 1532 53 discriminator 2 view .LVU1720
 5573 0084 2268     		ldr	r2, [r4]
1532:SynaptiX_FDK/services/cJSON/cJSON.c **** 
 5574              		.loc 1 1532 83 discriminator 2 view .LVU1721
 5575 0086 D35C     		ldrb	r3, [r2, r3]	@ zero_extendqisi2
1532:SynaptiX_FDK/services/cJSON/cJSON.c **** 
 5576              		.loc 1 1532 49 discriminator 2 view .LVU1722
 5577 0088 2C2B     		cmp	r3, #44
 5578 008a 0DD1     		bne	.L459
 5579              	.LVL537:
 5580              	.L460:
1500:SynaptiX_FDK/services/cJSON/cJSON.c ****     {
 5581              		.loc 1 1500 5 is_stmt 1 view .LVU1723
 5582              	.LBB18:
ARM GAS  C:\Users\DELL\AppData\Local\Temp\ccXjhdgA.s 			page 173


1503:SynaptiX_FDK/services/cJSON/cJSON.c ****         if (new_item == NULL)
 5583              		.loc 1 1503 9 view .LVU1724
 5584 008c A846     		mov	r8, r5
1503:SynaptiX_FDK/services/cJSON/cJSON.c ****         if (new_item == NULL)
 5585              		.loc 1 1503 27 is_stmt 0 view .LVU1725
 5586 008e 04F11000 		add	r0, r4, #16
 5587 0092 FFF7FEFF 		bl	cJSON_New_Item
 5588              	.LVL538:
1504:SynaptiX_FDK/services/cJSON/cJSON.c ****         {
 5589              		.loc 1 1504 9 is_stmt 1 view .LVU1726
1504:SynaptiX_FDK/services/cJSON/cJSON.c ****         {
 5590              		.loc 1 1504 12 is_stmt 0 view .LVU1727
 5591 0096 0546     		mov	r5, r0
 5592              	.LVL539:
1504:SynaptiX_FDK/services/cJSON/cJSON.c ****         {
 5593              		.loc 1 1504 12 view .LVU1728
 5594 0098 78B1     		cbz	r0, .L457
1510:SynaptiX_FDK/services/cJSON/cJSON.c ****         {
 5595              		.loc 1 1510 9 is_stmt 1 view .LVU1729
1510:SynaptiX_FDK/services/cJSON/cJSON.c ****         {
 5596              		.loc 1 1510 12 is_stmt 0 view .LVU1730
 5597 009a 002F     		cmp	r7, #0
 5598 009c DED0     		beq	.L465
1518:SynaptiX_FDK/services/cJSON/cJSON.c ****             new_item->prev = current_item;
 5599              		.loc 1 1518 13 is_stmt 1 view .LVU1731
1518:SynaptiX_FDK/services/cJSON/cJSON.c ****             new_item->prev = current_item;
 5600              		.loc 1 1518 32 is_stmt 0 view .LVU1732
 5601 009e C8F80000 		str	r0, [r8]
1519:SynaptiX_FDK/services/cJSON/cJSON.c ****             current_item = new_item;
 5602              		.loc 1 1519 13 is_stmt 1 view .LVU1733
1519:SynaptiX_FDK/services/cJSON/cJSON.c ****             current_item = new_item;
 5603              		.loc 1 1519 28 is_stmt 0 view .LVU1734
 5604 00a2 C0F80480 		str	r8, [r0, #4]
1520:SynaptiX_FDK/services/cJSON/cJSON.c ****         }
 5605              		.loc 1 1520 13 is_stmt 1 view .LVU1735
 5606              	.LVL540:
1520:SynaptiX_FDK/services/cJSON/cJSON.c ****         }
 5607              		.loc 1 1520 13 is_stmt 0 view .LVU1736
 5608 00a6 DAE7     		b	.L458
 5609              	.LVL541:
 5610              	.L459:
1520:SynaptiX_FDK/services/cJSON/cJSON.c ****         }
 5611              		.loc 1 1520 13 view .LVU1737
 5612              	.LBE18:
1534:SynaptiX_FDK/services/cJSON/cJSON.c ****     {
 5613              		.loc 1 1534 5 is_stmt 1 view .LVU1738
1534:SynaptiX_FDK/services/cJSON/cJSON.c ****     {
 5614              		.loc 1 1534 8 is_stmt 0 view .LVU1739
 5615 00a8 3CB1     		cbz	r4, .L457
1534:SynaptiX_FDK/services/cJSON/cJSON.c ****     {
 5616              		.loc 1 1534 9 discriminator 1 view .LVU1740
 5617 00aa A368     		ldr	r3, [r4, #8]
 5618 00ac 6268     		ldr	r2, [r4, #4]
 5619 00ae 9342     		cmp	r3, r2
 5620 00b0 03D2     		bcs	.L457
1534:SynaptiX_FDK/services/cJSON/cJSON.c ****     {
 5621              		.loc 1 1534 52 discriminator 2 view .LVU1741
ARM GAS  C:\Users\DELL\AppData\Local\Temp\ccXjhdgA.s 			page 174


 5622 00b2 2268     		ldr	r2, [r4]
1534:SynaptiX_FDK/services/cJSON/cJSON.c ****     {
 5623              		.loc 1 1534 82 discriminator 2 view .LVU1742
 5624 00b4 D35C     		ldrb	r3, [r2, r3]	@ zero_extendqisi2
1534:SynaptiX_FDK/services/cJSON/cJSON.c ****     {
 5625              		.loc 1 1534 49 discriminator 2 view .LVU1743
 5626 00b6 5D2B     		cmp	r3, #93
 5627 00b8 07D0     		beq	.L455
 5628              	.LVL542:
 5629              	.L457:
1554:SynaptiX_FDK/services/cJSON/cJSON.c ****     {
 5630              		.loc 1 1554 5 is_stmt 1 view .LVU1744
1554:SynaptiX_FDK/services/cJSON/cJSON.c ****     {
 5631              		.loc 1 1554 8 is_stmt 0 view .LVU1745
 5632 00ba AFB1     		cbz	r7, .L466
1556:SynaptiX_FDK/services/cJSON/cJSON.c ****     }
 5633              		.loc 1 1556 9 is_stmt 1 view .LVU1746
 5634 00bc 3846     		mov	r0, r7
 5635 00be FFF7FEFF 		bl	cJSON_Delete
 5636              	.LVL543:
1559:SynaptiX_FDK/services/cJSON/cJSON.c **** }
 5637              		.loc 1 1559 12 is_stmt 0 view .LVU1747
 5638 00c2 0020     		movs	r0, #0
 5639 00c4 ACE7     		b	.L451
 5640              	.LVL544:
 5641              	.L464:
1468:SynaptiX_FDK/services/cJSON/cJSON.c **** 
 5642              		.loc 1 1468 12 view .LVU1748
 5643 00c6 0025     		movs	r5, #0
1467:SynaptiX_FDK/services/cJSON/cJSON.c ****     cJSON *current_item = NULL;
 5644              		.loc 1 1467 12 view .LVU1749
 5645 00c8 2F46     		mov	r7, r5
 5646              	.LVL545:
 5647              	.L455:
1540:SynaptiX_FDK/services/cJSON/cJSON.c **** 
 5648              		.loc 1 1540 5 is_stmt 1 view .LVU1750
1540:SynaptiX_FDK/services/cJSON/cJSON.c **** 
 5649              		.loc 1 1540 17 is_stmt 0 view .LVU1751
 5650 00ca E368     		ldr	r3, [r4, #12]
1540:SynaptiX_FDK/services/cJSON/cJSON.c **** 
 5651              		.loc 1 1540 24 view .LVU1752
 5652 00cc 013B     		subs	r3, r3, #1
 5653 00ce E360     		str	r3, [r4, #12]
1542:SynaptiX_FDK/services/cJSON/cJSON.c ****         head->prev = current_item;
 5654              		.loc 1 1542 5 is_stmt 1 view .LVU1753
1542:SynaptiX_FDK/services/cJSON/cJSON.c ****         head->prev = current_item;
 5655              		.loc 1 1542 8 is_stmt 0 view .LVU1754
 5656 00d0 07B1     		cbz	r7, .L461
1543:SynaptiX_FDK/services/cJSON/cJSON.c ****     }
 5657              		.loc 1 1543 9 is_stmt 1 view .LVU1755
1543:SynaptiX_FDK/services/cJSON/cJSON.c ****     }
 5658              		.loc 1 1543 20 is_stmt 0 view .LVU1756
 5659 00d2 7D60     		str	r5, [r7, #4]
 5660              	.L461:
1546:SynaptiX_FDK/services/cJSON/cJSON.c ****     item->child = head;
 5661              		.loc 1 1546 5 is_stmt 1 view .LVU1757
1546:SynaptiX_FDK/services/cJSON/cJSON.c ****     item->child = head;
ARM GAS  C:\Users\DELL\AppData\Local\Temp\ccXjhdgA.s 			page 175


 5662              		.loc 1 1546 16 is_stmt 0 view .LVU1758
 5663 00d4 2023     		movs	r3, #32
 5664 00d6 F360     		str	r3, [r6, #12]
1547:SynaptiX_FDK/services/cJSON/cJSON.c **** 
 5665              		.loc 1 1547 5 is_stmt 1 view .LVU1759
1547:SynaptiX_FDK/services/cJSON/cJSON.c **** 
 5666              		.loc 1 1547 17 is_stmt 0 view .LVU1760
 5667 00d8 B760     		str	r7, [r6, #8]
1549:SynaptiX_FDK/services/cJSON/cJSON.c **** 
 5668              		.loc 1 1549 5 is_stmt 1 view .LVU1761
1549:SynaptiX_FDK/services/cJSON/cJSON.c **** 
 5669              		.loc 1 1549 17 is_stmt 0 view .LVU1762
 5670 00da A368     		ldr	r3, [r4, #8]
1549:SynaptiX_FDK/services/cJSON/cJSON.c **** 
 5671              		.loc 1 1549 25 view .LVU1763
 5672 00dc 0133     		adds	r3, r3, #1
 5673 00de A360     		str	r3, [r4, #8]
1551:SynaptiX_FDK/services/cJSON/cJSON.c **** 
 5674              		.loc 1 1551 5 is_stmt 1 view .LVU1764
1551:SynaptiX_FDK/services/cJSON/cJSON.c **** 
 5675              		.loc 1 1551 12 is_stmt 0 view .LVU1765
 5676 00e0 0120     		movs	r0, #1
 5677 00e2 9DE7     		b	.L451
 5678              	.LVL546:
 5679              	.L462:
 5680              	.LCFI55:
 5681              		.cfi_def_cfa_offset 0
 5682              		.cfi_restore 4
 5683              		.cfi_restore 5
 5684              		.cfi_restore 6
 5685              		.cfi_restore 7
 5686              		.cfi_restore 8
 5687              		.cfi_restore 14
1472:SynaptiX_FDK/services/cJSON/cJSON.c ****     }
 5688              		.loc 1 1472 16 view .LVU1766
 5689 00e4 0020     		movs	r0, #0
 5690              	.LVL547:
1560:SynaptiX_FDK/services/cJSON/cJSON.c **** 
 5691              		.loc 1 1560 1 view .LVU1767
 5692 00e6 7047     		bx	lr
 5693              	.LVL548:
 5694              	.L466:
 5695              	.LCFI56:
 5696              		.cfi_def_cfa_offset 24
 5697              		.cfi_offset 4, -24
 5698              		.cfi_offset 5, -20
 5699              		.cfi_offset 6, -16
 5700              		.cfi_offset 7, -12
 5701              		.cfi_offset 8, -8
 5702              		.cfi_offset 14, -4
1559:SynaptiX_FDK/services/cJSON/cJSON.c **** }
 5703              		.loc 1 1559 12 view .LVU1768
 5704 00e8 0020     		movs	r0, #0
 5705              	.LVL549:
1559:SynaptiX_FDK/services/cJSON/cJSON.c **** }
 5706              		.loc 1 1559 12 view .LVU1769
 5707 00ea 99E7     		b	.L451
ARM GAS  C:\Users\DELL\AppData\Local\Temp\ccXjhdgA.s 			page 176


 5708              		.cfi_endproc
 5709              	.LFE39:
 5711              		.section	.text.cJSON_SetNumberHelper,"ax",%progbits
 5712              		.align	1
 5713              		.global	cJSON_SetNumberHelper
 5714              		.syntax unified
 5715              		.thumb
 5716              		.thumb_func
 5718              	cJSON_SetNumberHelper:
 5719              	.LVL550:
 5720              	.LFB15:
 385:SynaptiX_FDK/services/cJSON/cJSON.c ****     if (number >= INT_MAX)
 5721              		.loc 1 385 1 is_stmt 1 view -0
 5722              		.cfi_startproc
 5723              		@ args = 0, pretend = 0, frame = 0
 5724              		@ frame_needed = 0, uses_anonymous_args = 0
 385:SynaptiX_FDK/services/cJSON/cJSON.c ****     if (number >= INT_MAX)
 5725              		.loc 1 385 1 is_stmt 0 view .LVU1771
 5726 0000 70B5     		push	{r4, r5, r6, lr}
 5727              	.LCFI57:
 5728              		.cfi_def_cfa_offset 16
 5729              		.cfi_offset 4, -16
 5730              		.cfi_offset 5, -12
 5731              		.cfi_offset 6, -8
 5732              		.cfi_offset 14, -4
 5733 0002 0646     		mov	r6, r0
 5734 0004 55EC104B 		vmov	r4, r5, d0
 386:SynaptiX_FDK/services/cJSON/cJSON.c ****     {
 5735              		.loc 1 386 5 is_stmt 1 view .LVU1772
 386:SynaptiX_FDK/services/cJSON/cJSON.c ****     {
 5736              		.loc 1 386 8 is_stmt 0 view .LVU1773
 5737 0008 12A3     		adr	r3, .L483+4
 5738 000a D3E90023 		ldrd	r2, [r3]
 5739 000e 2046     		mov	r0, r4
 5740              	.LVL551:
 386:SynaptiX_FDK/services/cJSON/cJSON.c ****     {
 5741              		.loc 1 386 8 view .LVU1774
 5742 0010 2946     		mov	r1, r5
 5743 0012 FFF7FEFF 		bl	__aeabi_dcmpge
 5744              	.LVL552:
 386:SynaptiX_FDK/services/cJSON/cJSON.c ****     {
 5745              		.loc 1 386 8 view .LVU1775
 5746 0016 38B1     		cbz	r0, .L480
 388:SynaptiX_FDK/services/cJSON/cJSON.c ****     }
 5747              		.loc 1 388 9 is_stmt 1 view .LVU1776
 388:SynaptiX_FDK/services/cJSON/cJSON.c ****     }
 5748              		.loc 1 388 26 is_stmt 0 view .LVU1777
 5749 0018 6FF00043 		mvn	r3, #-2147483648
 5750 001c 7361     		str	r3, [r6, #20]
 5751              	.L475:
 399:SynaptiX_FDK/services/cJSON/cJSON.c **** }
 5752              		.loc 1 399 5 is_stmt 1 view .LVU1778
 399:SynaptiX_FDK/services/cJSON/cJSON.c **** }
 5753              		.loc 1 399 32 is_stmt 0 view .LVU1779
 5754 001e C6E90645 		strd	r4, [r6, #24]
 400:SynaptiX_FDK/services/cJSON/cJSON.c **** 
 5755              		.loc 1 400 1 view .LVU1780
ARM GAS  C:\Users\DELL\AppData\Local\Temp\ccXjhdgA.s 			page 177


 5756 0022 45EC104B 		vmov	d0, r4, r5
 5757 0026 70BD     		pop	{r4, r5, r6, pc}
 5758              	.LVL553:
 5759              	.L480:
 390:SynaptiX_FDK/services/cJSON/cJSON.c ****     {
 5760              		.loc 1 390 10 is_stmt 1 view .LVU1781
 390:SynaptiX_FDK/services/cJSON/cJSON.c ****     {
 5761              		.loc 1 390 13 is_stmt 0 view .LVU1782
 5762 0028 0022     		movs	r2, #0
 5763 002a 094B     		ldr	r3, .L483
 5764 002c 2046     		mov	r0, r4
 5765 002e 2946     		mov	r1, r5
 5766 0030 FFF7FEFF 		bl	__aeabi_dcmple
 5767              	.LVL554:
 5768 0034 18B1     		cbz	r0, .L481
 392:SynaptiX_FDK/services/cJSON/cJSON.c ****     }
 5769              		.loc 1 392 9 is_stmt 1 view .LVU1783
 392:SynaptiX_FDK/services/cJSON/cJSON.c ****     }
 5770              		.loc 1 392 26 is_stmt 0 view .LVU1784
 5771 0036 4FF00043 		mov	r3, #-2147483648
 5772 003a 7361     		str	r3, [r6, #20]
 5773 003c EFE7     		b	.L475
 5774              	.L481:
 396:SynaptiX_FDK/services/cJSON/cJSON.c ****     }
 5775              		.loc 1 396 9 is_stmt 1 view .LVU1785
 396:SynaptiX_FDK/services/cJSON/cJSON.c ****     }
 5776              		.loc 1 396 28 is_stmt 0 view .LVU1786
 5777 003e 2046     		mov	r0, r4
 5778 0040 2946     		mov	r1, r5
 5779 0042 FFF7FEFF 		bl	__aeabi_d2iz
 5780              	.LVL555:
 396:SynaptiX_FDK/services/cJSON/cJSON.c ****     }
 5781              		.loc 1 396 26 view .LVU1787
 5782 0046 7061     		str	r0, [r6, #20]
 5783 0048 E9E7     		b	.L475
 5784              	.L484:
 5785 004a 00BFAFF3 		.align	3
 5785      0080
 5786              	.L483:
 5787 0050 0000E0C1 		.word	-1042284544
 5788 0054 0000C0FF 		.word	-4194304
 5789 0058 FFFFDF41 		.word	1105199103
 5790              		.cfi_endproc
 5791              	.LFE15:
 5793              		.section	.text.cJSON_ParseWithLengthOpts,"ax",%progbits
 5794              		.align	1
 5795              		.global	cJSON_ParseWithLengthOpts
 5796              		.syntax unified
 5797              		.thumb
 5798              		.thumb_func
 5800              	cJSON_ParseWithLengthOpts:
 5801              	.LVL556:
 5802              	.LFB29:
1116:SynaptiX_FDK/services/cJSON/cJSON.c ****     parse_buffer buffer = { 0, 0, 0, 0, { 0, 0, 0 } };
 5803              		.loc 1 1116 1 is_stmt 1 view -0
 5804              		.cfi_startproc
 5805              		@ args = 0, pretend = 0, frame = 40
ARM GAS  C:\Users\DELL\AppData\Local\Temp\ccXjhdgA.s 			page 178


 5806              		@ frame_needed = 0, uses_anonymous_args = 0
1116:SynaptiX_FDK/services/cJSON/cJSON.c ****     parse_buffer buffer = { 0, 0, 0, 0, { 0, 0, 0 } };
 5807              		.loc 1 1116 1 is_stmt 0 view .LVU1789
 5808 0000 F0B5     		push	{r4, r5, r6, r7, lr}
 5809              	.LCFI58:
 5810              		.cfi_def_cfa_offset 20
 5811              		.cfi_offset 4, -20
 5812              		.cfi_offset 5, -16
 5813              		.cfi_offset 6, -12
 5814              		.cfi_offset 7, -8
 5815              		.cfi_offset 14, -4
 5816 0002 8BB0     		sub	sp, sp, #44
 5817              	.LCFI59:
 5818              		.cfi_def_cfa_offset 64
 5819 0004 1546     		mov	r5, r2
 5820 0006 1E46     		mov	r6, r3
1117:SynaptiX_FDK/services/cJSON/cJSON.c ****     cJSON *item = NULL;
 5821              		.loc 1 1117 5 is_stmt 1 view .LVU1790
1117:SynaptiX_FDK/services/cJSON/cJSON.c ****     cJSON *item = NULL;
 5822              		.loc 1 1117 18 is_stmt 0 view .LVU1791
 5823 0008 0024     		movs	r4, #0
 5824 000a 0394     		str	r4, [sp, #12]
 5825 000c 0494     		str	r4, [sp, #16]
 5826 000e 0594     		str	r4, [sp, #20]
 5827 0010 0694     		str	r4, [sp, #24]
 5828 0012 0794     		str	r4, [sp, #28]
 5829 0014 0894     		str	r4, [sp, #32]
 5830 0016 0994     		str	r4, [sp, #36]
1118:SynaptiX_FDK/services/cJSON/cJSON.c **** 
 5831              		.loc 1 1118 5 is_stmt 1 view .LVU1792
 5832              	.LVL557:
1121:SynaptiX_FDK/services/cJSON/cJSON.c ****     global_error.position = 0;
 5833              		.loc 1 1121 5 view .LVU1793
1121:SynaptiX_FDK/services/cJSON/cJSON.c ****     global_error.position = 0;
 5834              		.loc 1 1121 23 is_stmt 0 view .LVU1794
 5835 0018 294B     		ldr	r3, .L497
 5836              	.LVL558:
1121:SynaptiX_FDK/services/cJSON/cJSON.c ****     global_error.position = 0;
 5837              		.loc 1 1121 23 view .LVU1795
 5838 001a 1C60     		str	r4, [r3]
1122:SynaptiX_FDK/services/cJSON/cJSON.c **** 
 5839              		.loc 1 1122 5 is_stmt 1 view .LVU1796
1122:SynaptiX_FDK/services/cJSON/cJSON.c **** 
 5840              		.loc 1 1122 27 is_stmt 0 view .LVU1797
 5841 001c 5C60     		str	r4, [r3, #4]
1124:SynaptiX_FDK/services/cJSON/cJSON.c ****     {
 5842              		.loc 1 1124 5 is_stmt 1 view .LVU1798
1124:SynaptiX_FDK/services/cJSON/cJSON.c ****     {
 5843              		.loc 1 1124 8 is_stmt 0 view .LVU1799
 5844 001e 0446     		mov	r4, r0
 5845 0020 00B1     		cbz	r0, .L486
1124:SynaptiX_FDK/services/cJSON/cJSON.c ****     {
 5846              		.loc 1 1124 23 discriminator 1 view .LVU1800
 5847 0022 B9B9     		cbnz	r1, .L495
 5848              	.LVL559:
 5849              	.L486:
1168:SynaptiX_FDK/services/cJSON/cJSON.c ****     {
ARM GAS  C:\Users\DELL\AppData\Local\Temp\ccXjhdgA.s 			page 179


 5850              		.loc 1 1168 5 is_stmt 1 view .LVU1801
1168:SynaptiX_FDK/services/cJSON/cJSON.c ****     {
 5851              		.loc 1 1168 8 is_stmt 0 view .LVU1802
 5852 0024 002C     		cmp	r4, #0
 5853 0026 49D0     		beq	.L493
 5854              	.LBB19:
1170:SynaptiX_FDK/services/cJSON/cJSON.c ****         local_error.json = (const unsigned char*)value;
 5855              		.loc 1 1170 9 is_stmt 1 view .LVU1803
1171:SynaptiX_FDK/services/cJSON/cJSON.c ****         local_error.position = 0;
 5856              		.loc 1 1171 9 view .LVU1804
1171:SynaptiX_FDK/services/cJSON/cJSON.c ****         local_error.position = 0;
 5857              		.loc 1 1171 26 is_stmt 0 view .LVU1805
 5858 0028 0194     		str	r4, [sp, #4]
1172:SynaptiX_FDK/services/cJSON/cJSON.c **** 
 5859              		.loc 1 1172 9 is_stmt 1 view .LVU1806
1172:SynaptiX_FDK/services/cJSON/cJSON.c **** 
 5860              		.loc 1 1172 30 is_stmt 0 view .LVU1807
 5861 002a 0023     		movs	r3, #0
 5862 002c 0293     		str	r3, [sp, #8]
1174:SynaptiX_FDK/services/cJSON/cJSON.c ****         {
 5863              		.loc 1 1174 9 is_stmt 1 view .LVU1808
1174:SynaptiX_FDK/services/cJSON/cJSON.c ****         {
 5864              		.loc 1 1174 19 is_stmt 0 view .LVU1809
 5865 002e 059A     		ldr	r2, [sp, #20]
1174:SynaptiX_FDK/services/cJSON/cJSON.c ****         {
 5866              		.loc 1 1174 35 view .LVU1810
 5867 0030 049B     		ldr	r3, [sp, #16]
1174:SynaptiX_FDK/services/cJSON/cJSON.c ****         {
 5868              		.loc 1 1174 12 view .LVU1811
 5869 0032 9A42     		cmp	r2, r3
 5870 0034 3DD2     		bcs	.L490
1176:SynaptiX_FDK/services/cJSON/cJSON.c ****         }
 5871              		.loc 1 1176 13 is_stmt 1 view .LVU1812
1176:SynaptiX_FDK/services/cJSON/cJSON.c ****         }
 5872              		.loc 1 1176 34 is_stmt 0 view .LVU1813
 5873 0036 0292     		str	r2, [sp, #8]
 5874              	.L491:
1183:SynaptiX_FDK/services/cJSON/cJSON.c ****         {
 5875              		.loc 1 1183 9 is_stmt 1 view .LVU1814
1183:SynaptiX_FDK/services/cJSON/cJSON.c ****         {
 5876              		.loc 1 1183 12 is_stmt 0 view .LVU1815
 5877 0038 15B1     		cbz	r5, .L492
1185:SynaptiX_FDK/services/cJSON/cJSON.c ****         }
 5878              		.loc 1 1185 13 is_stmt 1 view .LVU1816
1185:SynaptiX_FDK/services/cJSON/cJSON.c ****         }
 5879              		.loc 1 1185 76 is_stmt 0 view .LVU1817
 5880 003a 029B     		ldr	r3, [sp, #8]
1185:SynaptiX_FDK/services/cJSON/cJSON.c ****         }
 5881              		.loc 1 1185 63 view .LVU1818
 5882 003c 2344     		add	r3, r3, r4
1185:SynaptiX_FDK/services/cJSON/cJSON.c ****         }
 5883              		.loc 1 1185 31 view .LVU1819
 5884 003e 2B60     		str	r3, [r5]
 5885              	.L492:
1188:SynaptiX_FDK/services/cJSON/cJSON.c ****     }
 5886              		.loc 1 1188 9 is_stmt 1 view .LVU1820
1188:SynaptiX_FDK/services/cJSON/cJSON.c ****     }
ARM GAS  C:\Users\DELL\AppData\Local\Temp\ccXjhdgA.s 			page 180


 5887              		.loc 1 1188 22 is_stmt 0 view .LVU1821
 5888 0040 1F4B     		ldr	r3, .L497
 5889 0042 01AA     		add	r2, sp, #4
 5890 0044 92E80300 		ldm	r2, {r0, r1}
 5891 0048 83E80300 		stm	r3, {r0, r1}
 5892              	.LBE19:
1191:SynaptiX_FDK/services/cJSON/cJSON.c **** }
 5893              		.loc 1 1191 12 view .LVU1822
 5894 004c 0027     		movs	r7, #0
 5895              	.L485:
1192:SynaptiX_FDK/services/cJSON/cJSON.c **** 
 5896              		.loc 1 1192 1 view .LVU1823
 5897 004e 3846     		mov	r0, r7
 5898 0050 0BB0     		add	sp, sp, #44
 5899              	.LCFI60:
 5900              		.cfi_remember_state
 5901              		.cfi_def_cfa_offset 20
 5902              		@ sp needed
 5903 0052 F0BD     		pop	{r4, r5, r6, r7, pc}
 5904              	.LVL560:
 5905              	.L495:
 5906              	.LCFI61:
 5907              		.cfi_restore_state
1129:SynaptiX_FDK/services/cJSON/cJSON.c ****     buffer.length = buffer_length;
 5908              		.loc 1 1129 5 is_stmt 1 view .LVU1824
1129:SynaptiX_FDK/services/cJSON/cJSON.c ****     buffer.length = buffer_length;
 5909              		.loc 1 1129 20 is_stmt 0 view .LVU1825
 5910 0054 0390     		str	r0, [sp, #12]
1130:SynaptiX_FDK/services/cJSON/cJSON.c ****     buffer.offset = 0;
 5911              		.loc 1 1130 5 is_stmt 1 view .LVU1826
1130:SynaptiX_FDK/services/cJSON/cJSON.c ****     buffer.offset = 0;
 5912              		.loc 1 1130 19 is_stmt 0 view .LVU1827
 5913 0056 0491     		str	r1, [sp, #16]
1131:SynaptiX_FDK/services/cJSON/cJSON.c ****     buffer.hooks = global_hooks;
 5914              		.loc 1 1131 5 is_stmt 1 view .LVU1828
1132:SynaptiX_FDK/services/cJSON/cJSON.c **** 
 5915              		.loc 1 1132 5 view .LVU1829
1132:SynaptiX_FDK/services/cJSON/cJSON.c **** 
 5916              		.loc 1 1132 18 is_stmt 0 view .LVU1830
 5917 0058 1A4B     		ldr	r3, .L497+4
 5918 005a 93E80700 		ldm	r3, {r0, r1, r2}
 5919              	.LVL561:
1132:SynaptiX_FDK/services/cJSON/cJSON.c **** 
 5920              		.loc 1 1132 18 view .LVU1831
 5921 005e 0AAF     		add	r7, sp, #40
 5922 0060 07E90700 		stmdb	r7, {r0, r1, r2}
1134:SynaptiX_FDK/services/cJSON/cJSON.c ****     if (item == NULL) /* memory fail */
 5923              		.loc 1 1134 5 is_stmt 1 view .LVU1832
1134:SynaptiX_FDK/services/cJSON/cJSON.c ****     if (item == NULL) /* memory fail */
 5924              		.loc 1 1134 12 is_stmt 0 view .LVU1833
 5925 0064 1846     		mov	r0, r3
 5926 0066 FFF7FEFF 		bl	cJSON_New_Item
 5927              	.LVL562:
1135:SynaptiX_FDK/services/cJSON/cJSON.c ****     {
 5928              		.loc 1 1135 5 is_stmt 1 view .LVU1834
1135:SynaptiX_FDK/services/cJSON/cJSON.c ****     {
 5929              		.loc 1 1135 8 is_stmt 0 view .LVU1835
ARM GAS  C:\Users\DELL\AppData\Local\Temp\ccXjhdgA.s 			page 181


 5930 006a 0746     		mov	r7, r0
 5931 006c 0028     		cmp	r0, #0
 5932 006e D9D0     		beq	.L486
1140:SynaptiX_FDK/services/cJSON/cJSON.c ****     {
 5933              		.loc 1 1140 5 is_stmt 1 view .LVU1836
1140:SynaptiX_FDK/services/cJSON/cJSON.c ****     {
 5934              		.loc 1 1140 51 is_stmt 0 view .LVU1837
 5935 0070 03A8     		add	r0, sp, #12
 5936              	.LVL563:
1140:SynaptiX_FDK/services/cJSON/cJSON.c ****     {
 5937              		.loc 1 1140 51 view .LVU1838
 5938 0072 FFF7FEFF 		bl	skip_utf8_bom
 5939              	.LVL564:
1140:SynaptiX_FDK/services/cJSON/cJSON.c ****     {
 5940              		.loc 1 1140 28 discriminator 1 view .LVU1839
 5941 0076 FFF7FEFF 		bl	buffer_skip_whitespace
 5942              	.LVL565:
 5943 007a 0146     		mov	r1, r0
1140:SynaptiX_FDK/services/cJSON/cJSON.c ****     {
 5944              		.loc 1 1140 10 discriminator 2 view .LVU1840
 5945 007c 3846     		mov	r0, r7
 5946 007e FFF7FEFF 		bl	parse_value
 5947              	.LVL566:
1140:SynaptiX_FDK/services/cJSON/cJSON.c ****     {
 5948              		.loc 1 1140 8 discriminator 3 view .LVU1841
 5949 0082 90B1     		cbz	r0, .L487
1147:SynaptiX_FDK/services/cJSON/cJSON.c ****     {
 5950              		.loc 1 1147 5 is_stmt 1 view .LVU1842
1147:SynaptiX_FDK/services/cJSON/cJSON.c ****     {
 5951              		.loc 1 1147 8 is_stmt 0 view .LVU1843
 5952 0084 36B9     		cbnz	r6, .L496
 5953              	.L488:
1155:SynaptiX_FDK/services/cJSON/cJSON.c ****     {
 5954              		.loc 1 1155 5 is_stmt 1 view .LVU1844
1155:SynaptiX_FDK/services/cJSON/cJSON.c ****     {
 5955              		.loc 1 1155 8 is_stmt 0 view .LVU1845
 5956 0086 002D     		cmp	r5, #0
 5957 0088 E1D0     		beq	.L485
1157:SynaptiX_FDK/services/cJSON/cJSON.c ****     }
 5958              		.loc 1 1157 9 is_stmt 1 view .LVU1846
1157:SynaptiX_FDK/services/cJSON/cJSON.c ****     }
 5959              		.loc 1 1157 42 is_stmt 0 view .LVU1847
 5960 008a 039B     		ldr	r3, [sp, #12]
 5961 008c 059A     		ldr	r2, [sp, #20]
 5962 008e 1344     		add	r3, r3, r2
1157:SynaptiX_FDK/services/cJSON/cJSON.c ****     }
 5963              		.loc 1 1157 27 view .LVU1848
 5964 0090 2B60     		str	r3, [r5]
 5965 0092 DCE7     		b	.L485
 5966              	.L496:
1149:SynaptiX_FDK/services/cJSON/cJSON.c ****         if ((buffer.offset >= buffer.length) || buffer_at_offset(&buffer)[0] != '\0')
 5967              		.loc 1 1149 9 is_stmt 1 view .LVU1849
 5968 0094 03A8     		add	r0, sp, #12
 5969 0096 FFF7FEFF 		bl	buffer_skip_whitespace
 5970              	.LVL567:
1150:SynaptiX_FDK/services/cJSON/cJSON.c ****         {
 5971              		.loc 1 1150 9 view .LVU1850
ARM GAS  C:\Users\DELL\AppData\Local\Temp\ccXjhdgA.s 			page 182


1150:SynaptiX_FDK/services/cJSON/cJSON.c ****         {
 5972              		.loc 1 1150 20 is_stmt 0 view .LVU1851
 5973 009a 059B     		ldr	r3, [sp, #20]
1150:SynaptiX_FDK/services/cJSON/cJSON.c ****         {
 5974              		.loc 1 1150 37 view .LVU1852
 5975 009c 049A     		ldr	r2, [sp, #16]
1150:SynaptiX_FDK/services/cJSON/cJSON.c ****         {
 5976              		.loc 1 1150 12 view .LVU1853
 5977 009e 9342     		cmp	r3, r2
 5978 00a0 03D2     		bcs	.L487
1150:SynaptiX_FDK/services/cJSON/cJSON.c ****         {
 5979              		.loc 1 1150 49 discriminator 1 view .LVU1854
 5980 00a2 039A     		ldr	r2, [sp, #12]
1150:SynaptiX_FDK/services/cJSON/cJSON.c ****         {
 5981              		.loc 1 1150 74 discriminator 1 view .LVU1855
 5982 00a4 D35C     		ldrb	r3, [r2, r3]	@ zero_extendqisi2
1150:SynaptiX_FDK/services/cJSON/cJSON.c ****         {
 5983              		.loc 1 1150 46 discriminator 1 view .LVU1856
 5984 00a6 002B     		cmp	r3, #0
 5985 00a8 EDD0     		beq	.L488
 5986              	.L487:
1163:SynaptiX_FDK/services/cJSON/cJSON.c ****     {
 5987              		.loc 1 1163 5 is_stmt 1 view .LVU1857
1165:SynaptiX_FDK/services/cJSON/cJSON.c ****     }
 5988              		.loc 1 1165 9 view .LVU1858
 5989 00aa 3846     		mov	r0, r7
 5990 00ac FFF7FEFF 		bl	cJSON_Delete
 5991              	.LVL568:
 5992 00b0 B8E7     		b	.L486
 5993              	.LVL569:
 5994              	.L490:
 5995              	.LBB20:
1178:SynaptiX_FDK/services/cJSON/cJSON.c ****         {
 5996              		.loc 1 1178 14 view .LVU1859
1178:SynaptiX_FDK/services/cJSON/cJSON.c ****         {
 5997              		.loc 1 1178 17 is_stmt 0 view .LVU1860
 5998 00b2 002B     		cmp	r3, #0
 5999 00b4 C0D0     		beq	.L491
1180:SynaptiX_FDK/services/cJSON/cJSON.c ****         }
 6000              		.loc 1 1180 13 is_stmt 1 view .LVU1861
1180:SynaptiX_FDK/services/cJSON/cJSON.c ****         }
 6001              		.loc 1 1180 50 is_stmt 0 view .LVU1862
 6002 00b6 013B     		subs	r3, r3, #1
1180:SynaptiX_FDK/services/cJSON/cJSON.c ****         }
 6003              		.loc 1 1180 34 view .LVU1863
 6004 00b8 0293     		str	r3, [sp, #8]
 6005 00ba BDE7     		b	.L491
 6006              	.L493:
1180:SynaptiX_FDK/services/cJSON/cJSON.c ****         }
 6007              		.loc 1 1180 34 view .LVU1864
 6008              	.LBE20:
1191:SynaptiX_FDK/services/cJSON/cJSON.c **** }
 6009              		.loc 1 1191 12 view .LVU1865
 6010 00bc 2746     		mov	r7, r4
 6011 00be C6E7     		b	.L485
 6012              	.L498:
 6013              		.align	2
ARM GAS  C:\Users\DELL\AppData\Local\Temp\ccXjhdgA.s 			page 183


 6014              	.L497:
 6015 00c0 00000000 		.word	global_error
 6016 00c4 00000000 		.word	global_hooks
 6017              		.cfi_endproc
 6018              	.LFE29:
 6020              		.section	.text.cJSON_ParseWithOpts,"ax",%progbits
 6021              		.align	1
 6022              		.global	cJSON_ParseWithOpts
 6023              		.syntax unified
 6024              		.thumb
 6025              		.thumb_func
 6027              	cJSON_ParseWithOpts:
 6028              	.LVL570:
 6029              	.LFB28:
1100:SynaptiX_FDK/services/cJSON/cJSON.c ****     size_t buffer_length;
 6030              		.loc 1 1100 1 is_stmt 1 view -0
 6031              		.cfi_startproc
 6032              		@ args = 0, pretend = 0, frame = 0
 6033              		@ frame_needed = 0, uses_anonymous_args = 0
1100:SynaptiX_FDK/services/cJSON/cJSON.c ****     size_t buffer_length;
 6034              		.loc 1 1100 1 is_stmt 0 view .LVU1867
 6035 0000 70B5     		push	{r4, r5, r6, lr}
 6036              	.LCFI62:
 6037              		.cfi_def_cfa_offset 16
 6038              		.cfi_offset 4, -16
 6039              		.cfi_offset 5, -12
 6040              		.cfi_offset 6, -8
 6041              		.cfi_offset 14, -4
1101:SynaptiX_FDK/services/cJSON/cJSON.c **** 
 6042              		.loc 1 1101 5 is_stmt 1 view .LVU1868
1103:SynaptiX_FDK/services/cJSON/cJSON.c ****     {
 6043              		.loc 1 1103 5 view .LVU1869
1103:SynaptiX_FDK/services/cJSON/cJSON.c ****     {
 6044              		.loc 1 1103 8 is_stmt 0 view .LVU1870
 6045 0002 0446     		mov	r4, r0
 6046 0004 48B1     		cbz	r0, .L499
 6047 0006 0D46     		mov	r5, r1
 6048 0008 1646     		mov	r6, r2
1109:SynaptiX_FDK/services/cJSON/cJSON.c **** 
 6049              		.loc 1 1109 5 is_stmt 1 view .LVU1871
1109:SynaptiX_FDK/services/cJSON/cJSON.c **** 
 6050              		.loc 1 1109 21 is_stmt 0 view .LVU1872
 6051 000a FFF7FEFF 		bl	strlen
 6052              	.LVL571:
1111:SynaptiX_FDK/services/cJSON/cJSON.c **** }
 6053              		.loc 1 1111 5 is_stmt 1 view .LVU1873
1111:SynaptiX_FDK/services/cJSON/cJSON.c **** }
 6054              		.loc 1 1111 12 is_stmt 0 view .LVU1874
 6055 000e 3346     		mov	r3, r6
 6056 0010 2A46     		mov	r2, r5
 6057 0012 411C     		adds	r1, r0, #1
 6058              	.LVL572:
1111:SynaptiX_FDK/services/cJSON/cJSON.c **** }
 6059              		.loc 1 1111 12 view .LVU1875
 6060 0014 2046     		mov	r0, r4
 6061 0016 FFF7FEFF 		bl	cJSON_ParseWithLengthOpts
 6062              	.LVL573:
ARM GAS  C:\Users\DELL\AppData\Local\Temp\ccXjhdgA.s 			page 184


 6063              	.L499:
1112:SynaptiX_FDK/services/cJSON/cJSON.c **** 
 6064              		.loc 1 1112 1 view .LVU1876
 6065 001a 70BD     		pop	{r4, r5, r6, pc}
1112:SynaptiX_FDK/services/cJSON/cJSON.c **** 
 6066              		.loc 1 1112 1 view .LVU1877
 6067              		.cfi_endproc
 6068              	.LFE28:
 6070              		.section	.text.cJSON_Parse,"ax",%progbits
 6071              		.align	1
 6072              		.global	cJSON_Parse
 6073              		.syntax unified
 6074              		.thumb
 6075              		.thumb_func
 6077              	cJSON_Parse:
 6078              	.LVL574:
 6079              	.LFB30:
1196:SynaptiX_FDK/services/cJSON/cJSON.c ****     return cJSON_ParseWithOpts(value, 0, 0);
 6080              		.loc 1 1196 1 is_stmt 1 view -0
 6081              		.cfi_startproc
 6082              		@ args = 0, pretend = 0, frame = 0
 6083              		@ frame_needed = 0, uses_anonymous_args = 0
1196:SynaptiX_FDK/services/cJSON/cJSON.c ****     return cJSON_ParseWithOpts(value, 0, 0);
 6084              		.loc 1 1196 1 is_stmt 0 view .LVU1879
 6085 0000 08B5     		push	{r3, lr}
 6086              	.LCFI63:
 6087              		.cfi_def_cfa_offset 8
 6088              		.cfi_offset 3, -8
 6089              		.cfi_offset 14, -4
1197:SynaptiX_FDK/services/cJSON/cJSON.c **** }
 6090              		.loc 1 1197 5 is_stmt 1 view .LVU1880
1197:SynaptiX_FDK/services/cJSON/cJSON.c **** }
 6091              		.loc 1 1197 12 is_stmt 0 view .LVU1881
 6092 0002 0022     		movs	r2, #0
 6093 0004 1146     		mov	r1, r2
 6094 0006 FFF7FEFF 		bl	cJSON_ParseWithOpts
 6095              	.LVL575:
1198:SynaptiX_FDK/services/cJSON/cJSON.c **** 
 6096              		.loc 1 1198 1 view .LVU1882
 6097 000a 08BD     		pop	{r3, pc}
 6098              		.cfi_endproc
 6099              	.LFE30:
 6101              		.section	.text.cJSON_ParseWithLength,"ax",%progbits
 6102              		.align	1
 6103              		.global	cJSON_ParseWithLength
 6104              		.syntax unified
 6105              		.thumb
 6106              		.thumb_func
 6108              	cJSON_ParseWithLength:
 6109              	.LVL576:
 6110              	.LFB31:
1201:SynaptiX_FDK/services/cJSON/cJSON.c ****     return cJSON_ParseWithLengthOpts(value, buffer_length, 0, 0);
 6111              		.loc 1 1201 1 is_stmt 1 view -0
 6112              		.cfi_startproc
 6113              		@ args = 0, pretend = 0, frame = 0
 6114              		@ frame_needed = 0, uses_anonymous_args = 0
1201:SynaptiX_FDK/services/cJSON/cJSON.c ****     return cJSON_ParseWithLengthOpts(value, buffer_length, 0, 0);
ARM GAS  C:\Users\DELL\AppData\Local\Temp\ccXjhdgA.s 			page 185


 6115              		.loc 1 1201 1 is_stmt 0 view .LVU1884
 6116 0000 08B5     		push	{r3, lr}
 6117              	.LCFI64:
 6118              		.cfi_def_cfa_offset 8
 6119              		.cfi_offset 3, -8
 6120              		.cfi_offset 14, -4
1202:SynaptiX_FDK/services/cJSON/cJSON.c **** }
 6121              		.loc 1 1202 5 is_stmt 1 view .LVU1885
1202:SynaptiX_FDK/services/cJSON/cJSON.c **** }
 6122              		.loc 1 1202 12 is_stmt 0 view .LVU1886
 6123 0002 0023     		movs	r3, #0
 6124 0004 1A46     		mov	r2, r3
 6125 0006 FFF7FEFF 		bl	cJSON_ParseWithLengthOpts
 6126              	.LVL577:
1203:SynaptiX_FDK/services/cJSON/cJSON.c **** 
 6127              		.loc 1 1203 1 view .LVU1887
 6128 000a 08BD     		pop	{r3, pc}
 6129              		.cfi_endproc
 6130              	.LFE31:
 6132              		.section	.text.cJSON_Print,"ax",%progbits
 6133              		.align	1
 6134              		.global	cJSON_Print
 6135              		.syntax unified
 6136              		.thumb
 6137              		.thumb_func
 6139              	cJSON_Print:
 6140              	.LVL578:
 6141              	.LFB33:
1276:SynaptiX_FDK/services/cJSON/cJSON.c ****     return (char*)print(item, true, &global_hooks);
 6142              		.loc 1 1276 1 is_stmt 1 view -0
 6143              		.cfi_startproc
 6144              		@ args = 0, pretend = 0, frame = 0
 6145              		@ frame_needed = 0, uses_anonymous_args = 0
1276:SynaptiX_FDK/services/cJSON/cJSON.c ****     return (char*)print(item, true, &global_hooks);
 6146              		.loc 1 1276 1 is_stmt 0 view .LVU1889
 6147 0000 08B5     		push	{r3, lr}
 6148              	.LCFI65:
 6149              		.cfi_def_cfa_offset 8
 6150              		.cfi_offset 3, -8
 6151              		.cfi_offset 14, -4
1277:SynaptiX_FDK/services/cJSON/cJSON.c **** }
 6152              		.loc 1 1277 5 is_stmt 1 view .LVU1890
1277:SynaptiX_FDK/services/cJSON/cJSON.c **** }
 6153              		.loc 1 1277 19 is_stmt 0 view .LVU1891
 6154 0002 024A     		ldr	r2, .L509
 6155 0004 0121     		movs	r1, #1
 6156 0006 FFF7FEFF 		bl	print
 6157              	.LVL579:
1278:SynaptiX_FDK/services/cJSON/cJSON.c **** 
 6158              		.loc 1 1278 1 view .LVU1892
 6159 000a 08BD     		pop	{r3, pc}
 6160              	.L510:
 6161              		.align	2
 6162              	.L509:
 6163 000c 00000000 		.word	global_hooks
 6164              		.cfi_endproc
 6165              	.LFE33:
ARM GAS  C:\Users\DELL\AppData\Local\Temp\ccXjhdgA.s 			page 186


 6167              		.section	.text.cJSON_PrintUnformatted,"ax",%progbits
 6168              		.align	1
 6169              		.global	cJSON_PrintUnformatted
 6170              		.syntax unified
 6171              		.thumb
 6172              		.thumb_func
 6174              	cJSON_PrintUnformatted:
 6175              	.LVL580:
 6176              	.LFB34:
1281:SynaptiX_FDK/services/cJSON/cJSON.c ****     return (char*)print(item, false, &global_hooks);
 6177              		.loc 1 1281 1 is_stmt 1 view -0
 6178              		.cfi_startproc
 6179              		@ args = 0, pretend = 0, frame = 0
 6180              		@ frame_needed = 0, uses_anonymous_args = 0
1281:SynaptiX_FDK/services/cJSON/cJSON.c ****     return (char*)print(item, false, &global_hooks);
 6181              		.loc 1 1281 1 is_stmt 0 view .LVU1894
 6182 0000 08B5     		push	{r3, lr}
 6183              	.LCFI66:
 6184              		.cfi_def_cfa_offset 8
 6185              		.cfi_offset 3, -8
 6186              		.cfi_offset 14, -4
1282:SynaptiX_FDK/services/cJSON/cJSON.c **** }
 6187              		.loc 1 1282 5 is_stmt 1 view .LVU1895
1282:SynaptiX_FDK/services/cJSON/cJSON.c **** }
 6188              		.loc 1 1282 19 is_stmt 0 view .LVU1896
 6189 0002 024A     		ldr	r2, .L513
 6190 0004 0021     		movs	r1, #0
 6191 0006 FFF7FEFF 		bl	print
 6192              	.LVL581:
1283:SynaptiX_FDK/services/cJSON/cJSON.c **** 
 6193              		.loc 1 1283 1 view .LVU1897
 6194 000a 08BD     		pop	{r3, pc}
 6195              	.L514:
 6196              		.align	2
 6197              	.L513:
 6198 000c 00000000 		.word	global_hooks
 6199              		.cfi_endproc
 6200              	.LFE34:
 6202              		.section	.text.cJSON_PrintBuffered,"ax",%progbits
 6203              		.align	1
 6204              		.global	cJSON_PrintBuffered
 6205              		.syntax unified
 6206              		.thumb
 6207              		.thumb_func
 6209              	cJSON_PrintBuffered:
 6210              	.LVL582:
 6211              	.LFB35:
1286:SynaptiX_FDK/services/cJSON/cJSON.c ****     printbuffer p = { 0, 0, 0, 0, 0, 0, { 0, 0, 0 } };
 6212              		.loc 1 1286 1 is_stmt 1 view -0
 6213              		.cfi_startproc
 6214              		@ args = 0, pretend = 0, frame = 40
 6215              		@ frame_needed = 0, uses_anonymous_args = 0
1286:SynaptiX_FDK/services/cJSON/cJSON.c ****     printbuffer p = { 0, 0, 0, 0, 0, 0, { 0, 0, 0 } };
 6216              		.loc 1 1286 1 is_stmt 0 view .LVU1899
 6217 0000 70B5     		push	{r4, r5, r6, lr}
 6218              	.LCFI67:
 6219              		.cfi_def_cfa_offset 16
ARM GAS  C:\Users\DELL\AppData\Local\Temp\ccXjhdgA.s 			page 187


 6220              		.cfi_offset 4, -16
 6221              		.cfi_offset 5, -12
 6222              		.cfi_offset 6, -8
 6223              		.cfi_offset 14, -4
 6224 0002 8AB0     		sub	sp, sp, #40
 6225              	.LCFI68:
 6226              		.cfi_def_cfa_offset 56
 6227 0004 0546     		mov	r5, r0
 6228 0006 0C46     		mov	r4, r1
 6229 0008 1646     		mov	r6, r2
1287:SynaptiX_FDK/services/cJSON/cJSON.c **** 
 6230              		.loc 1 1287 5 is_stmt 1 view .LVU1900
1287:SynaptiX_FDK/services/cJSON/cJSON.c **** 
 6231              		.loc 1 1287 17 is_stmt 0 view .LVU1901
 6232 000a 2422     		movs	r2, #36
 6233              	.LVL583:
1287:SynaptiX_FDK/services/cJSON/cJSON.c **** 
 6234              		.loc 1 1287 17 view .LVU1902
 6235 000c 0021     		movs	r1, #0
 6236              	.LVL584:
1287:SynaptiX_FDK/services/cJSON/cJSON.c **** 
 6237              		.loc 1 1287 17 view .LVU1903
 6238 000e 01A8     		add	r0, sp, #4
 6239              	.LVL585:
1287:SynaptiX_FDK/services/cJSON/cJSON.c **** 
 6240              		.loc 1 1287 17 view .LVU1904
 6241 0010 FFF7FEFF 		bl	memset
 6242              	.LVL586:
1289:SynaptiX_FDK/services/cJSON/cJSON.c ****     {
 6243              		.loc 1 1289 5 is_stmt 1 view .LVU1905
1289:SynaptiX_FDK/services/cJSON/cJSON.c ****     {
 6244              		.loc 1 1289 8 is_stmt 0 view .LVU1906
 6245 0014 002C     		cmp	r4, #0
 6246 0016 1FDB     		blt	.L518
1294:SynaptiX_FDK/services/cJSON/cJSON.c ****     if (!p.buffer)
 6247              		.loc 1 1294 5 is_stmt 1 view .LVU1907
1294:SynaptiX_FDK/services/cJSON/cJSON.c ****     if (!p.buffer)
 6248              		.loc 1 1294 44 is_stmt 0 view .LVU1908
 6249 0018 104B     		ldr	r3, .L521
 6250 001a 1B68     		ldr	r3, [r3]
1294:SynaptiX_FDK/services/cJSON/cJSON.c ****     if (!p.buffer)
 6251              		.loc 1 1294 32 view .LVU1909
 6252 001c 2046     		mov	r0, r4
 6253 001e 9847     		blx	r3
 6254              	.LVL587:
1294:SynaptiX_FDK/services/cJSON/cJSON.c ****     if (!p.buffer)
 6255              		.loc 1 1294 14 discriminator 1 view .LVU1910
 6256 0020 0190     		str	r0, [sp, #4]
1295:SynaptiX_FDK/services/cJSON/cJSON.c ****     {
 6257              		.loc 1 1295 5 is_stmt 1 view .LVU1911
1295:SynaptiX_FDK/services/cJSON/cJSON.c ****     {
 6258              		.loc 1 1295 8 is_stmt 0 view .LVU1912
 6259 0022 80B1     		cbz	r0, .L515
1300:SynaptiX_FDK/services/cJSON/cJSON.c ****     p.offset = 0;
 6260              		.loc 1 1300 5 is_stmt 1 view .LVU1913
1300:SynaptiX_FDK/services/cJSON/cJSON.c ****     p.offset = 0;
 6261              		.loc 1 1300 14 is_stmt 0 view .LVU1914
ARM GAS  C:\Users\DELL\AppData\Local\Temp\ccXjhdgA.s 			page 188


 6262 0024 0294     		str	r4, [sp, #8]
1301:SynaptiX_FDK/services/cJSON/cJSON.c ****     p.noalloc = false;
 6263              		.loc 1 1301 5 is_stmt 1 view .LVU1915
1301:SynaptiX_FDK/services/cJSON/cJSON.c ****     p.noalloc = false;
 6264              		.loc 1 1301 14 is_stmt 0 view .LVU1916
 6265 0026 0023     		movs	r3, #0
 6266 0028 0393     		str	r3, [sp, #12]
1302:SynaptiX_FDK/services/cJSON/cJSON.c ****     p.format = fmt;
 6267              		.loc 1 1302 5 is_stmt 1 view .LVU1917
1302:SynaptiX_FDK/services/cJSON/cJSON.c ****     p.format = fmt;
 6268              		.loc 1 1302 15 is_stmt 0 view .LVU1918
 6269 002a 0593     		str	r3, [sp, #20]
1303:SynaptiX_FDK/services/cJSON/cJSON.c ****     p.hooks = global_hooks;
 6270              		.loc 1 1303 5 is_stmt 1 view .LVU1919
1303:SynaptiX_FDK/services/cJSON/cJSON.c ****     p.hooks = global_hooks;
 6271              		.loc 1 1303 14 is_stmt 0 view .LVU1920
 6272 002c 0696     		str	r6, [sp, #24]
1304:SynaptiX_FDK/services/cJSON/cJSON.c **** 
 6273              		.loc 1 1304 5 is_stmt 1 view .LVU1921
1304:SynaptiX_FDK/services/cJSON/cJSON.c **** 
 6274              		.loc 1 1304 13 is_stmt 0 view .LVU1922
 6275 002e 0B4B     		ldr	r3, .L521
 6276 0030 93E80700 		ldm	r3, {r0, r1, r2}
 6277 0034 0AAB     		add	r3, sp, #40
 6278 0036 03E90700 		stmdb	r3, {r0, r1, r2}
1306:SynaptiX_FDK/services/cJSON/cJSON.c ****     {
 6279              		.loc 1 1306 5 is_stmt 1 view .LVU1923
1306:SynaptiX_FDK/services/cJSON/cJSON.c ****     {
 6280              		.loc 1 1306 10 is_stmt 0 view .LVU1924
 6281 003a 01A9     		add	r1, sp, #4
 6282 003c 2846     		mov	r0, r5
 6283 003e FFF7FEFF 		bl	print_value
 6284              	.LVL588:
1306:SynaptiX_FDK/services/cJSON/cJSON.c ****     {
 6285              		.loc 1 1306 8 discriminator 1 view .LVU1925
 6286 0042 10B1     		cbz	r0, .L520
1313:SynaptiX_FDK/services/cJSON/cJSON.c **** }
 6287              		.loc 1 1313 5 is_stmt 1 view .LVU1926
1313:SynaptiX_FDK/services/cJSON/cJSON.c **** }
 6288              		.loc 1 1313 12 is_stmt 0 view .LVU1927
 6289 0044 0198     		ldr	r0, [sp, #4]
 6290              	.L515:
1314:SynaptiX_FDK/services/cJSON/cJSON.c **** 
 6291              		.loc 1 1314 1 view .LVU1928
 6292 0046 0AB0     		add	sp, sp, #40
 6293              	.LCFI69:
 6294              		.cfi_remember_state
 6295              		.cfi_def_cfa_offset 16
 6296              		@ sp needed
 6297 0048 70BD     		pop	{r4, r5, r6, pc}
 6298              	.LVL589:
 6299              	.L520:
 6300              	.LCFI70:
 6301              		.cfi_restore_state
1308:SynaptiX_FDK/services/cJSON/cJSON.c ****         p.buffer = NULL;
 6302              		.loc 1 1308 9 is_stmt 1 view .LVU1929
1308:SynaptiX_FDK/services/cJSON/cJSON.c ****         p.buffer = NULL;
ARM GAS  C:\Users\DELL\AppData\Local\Temp\ccXjhdgA.s 			page 189


 6303              		.loc 1 1308 21 is_stmt 0 view .LVU1930
 6304 004a 044B     		ldr	r3, .L521
 6305 004c 5B68     		ldr	r3, [r3, #4]
1308:SynaptiX_FDK/services/cJSON/cJSON.c ****         p.buffer = NULL;
 6306              		.loc 1 1308 9 view .LVU1931
 6307 004e 0198     		ldr	r0, [sp, #4]
 6308 0050 9847     		blx	r3
 6309              	.LVL590:
1309:SynaptiX_FDK/services/cJSON/cJSON.c ****         return NULL;
 6310              		.loc 1 1309 9 is_stmt 1 view .LVU1932
1309:SynaptiX_FDK/services/cJSON/cJSON.c ****         return NULL;
 6311              		.loc 1 1309 18 is_stmt 0 view .LVU1933
 6312 0052 0020     		movs	r0, #0
 6313 0054 0190     		str	r0, [sp, #4]
1310:SynaptiX_FDK/services/cJSON/cJSON.c ****     }
 6314              		.loc 1 1310 9 is_stmt 1 view .LVU1934
1310:SynaptiX_FDK/services/cJSON/cJSON.c ****     }
 6315              		.loc 1 1310 16 is_stmt 0 view .LVU1935
 6316 0056 F6E7     		b	.L515
 6317              	.L518:
1291:SynaptiX_FDK/services/cJSON/cJSON.c ****     }
 6318              		.loc 1 1291 16 view .LVU1936
 6319 0058 0020     		movs	r0, #0
 6320 005a F4E7     		b	.L515
 6321              	.L522:
 6322              		.align	2
 6323              	.L521:
 6324 005c 00000000 		.word	global_hooks
 6325              		.cfi_endproc
 6326              	.LFE35:
 6328              		.section	.text.cJSON_PrintPreallocated,"ax",%progbits
 6329              		.align	1
 6330              		.global	cJSON_PrintPreallocated
 6331              		.syntax unified
 6332              		.thumb
 6333              		.thumb_func
 6335              	cJSON_PrintPreallocated:
 6336              	.LVL591:
 6337              	.LFB36:
1317:SynaptiX_FDK/services/cJSON/cJSON.c ****     printbuffer p = { 0, 0, 0, 0, 0, 0, { 0, 0, 0 } };
 6338              		.loc 1 1317 1 is_stmt 1 view -0
 6339              		.cfi_startproc
 6340              		@ args = 0, pretend = 0, frame = 40
 6341              		@ frame_needed = 0, uses_anonymous_args = 0
1317:SynaptiX_FDK/services/cJSON/cJSON.c ****     printbuffer p = { 0, 0, 0, 0, 0, 0, { 0, 0, 0 } };
 6342              		.loc 1 1317 1 is_stmt 0 view .LVU1938
 6343 0000 F0B5     		push	{r4, r5, r6, r7, lr}
 6344              	.LCFI71:
 6345              		.cfi_def_cfa_offset 20
 6346              		.cfi_offset 4, -20
 6347              		.cfi_offset 5, -16
 6348              		.cfi_offset 6, -12
 6349              		.cfi_offset 7, -8
 6350              		.cfi_offset 14, -4
 6351 0002 8BB0     		sub	sp, sp, #44
 6352              	.LCFI72:
 6353              		.cfi_def_cfa_offset 64
ARM GAS  C:\Users\DELL\AppData\Local\Temp\ccXjhdgA.s 			page 190


 6354 0004 0746     		mov	r7, r0
 6355 0006 0D46     		mov	r5, r1
 6356 0008 1446     		mov	r4, r2
 6357 000a 1E46     		mov	r6, r3
1318:SynaptiX_FDK/services/cJSON/cJSON.c **** 
 6358              		.loc 1 1318 5 is_stmt 1 view .LVU1939
1318:SynaptiX_FDK/services/cJSON/cJSON.c **** 
 6359              		.loc 1 1318 17 is_stmt 0 view .LVU1940
 6360 000c 2422     		movs	r2, #36
 6361              	.LVL592:
1318:SynaptiX_FDK/services/cJSON/cJSON.c **** 
 6362              		.loc 1 1318 17 view .LVU1941
 6363 000e 0021     		movs	r1, #0
 6364              	.LVL593:
1318:SynaptiX_FDK/services/cJSON/cJSON.c **** 
 6365              		.loc 1 1318 17 view .LVU1942
 6366 0010 01A8     		add	r0, sp, #4
 6367              	.LVL594:
1318:SynaptiX_FDK/services/cJSON/cJSON.c **** 
 6368              		.loc 1 1318 17 view .LVU1943
 6369 0012 FFF7FEFF 		bl	memset
 6370              	.LVL595:
1320:SynaptiX_FDK/services/cJSON/cJSON.c ****     {
 6371              		.loc 1 1320 5 is_stmt 1 view .LVU1944
1320:SynaptiX_FDK/services/cJSON/cJSON.c ****     {
 6372              		.loc 1 1320 8 is_stmt 0 view .LVU1945
 6373 0016 002C     		cmp	r4, #0
 6374 0018 11DB     		blt	.L525
1320:SynaptiX_FDK/services/cJSON/cJSON.c ****     {
 6375              		.loc 1 1320 22 discriminator 1 view .LVU1946
 6376 001a 95B1     		cbz	r5, .L526
1325:SynaptiX_FDK/services/cJSON/cJSON.c ****     p.length = (size_t)length;
 6377              		.loc 1 1325 5 is_stmt 1 view .LVU1947
1325:SynaptiX_FDK/services/cJSON/cJSON.c ****     p.length = (size_t)length;
 6378              		.loc 1 1325 14 is_stmt 0 view .LVU1948
 6379 001c 0195     		str	r5, [sp, #4]
1326:SynaptiX_FDK/services/cJSON/cJSON.c ****     p.offset = 0;
 6380              		.loc 1 1326 5 is_stmt 1 view .LVU1949
1326:SynaptiX_FDK/services/cJSON/cJSON.c ****     p.offset = 0;
 6381              		.loc 1 1326 14 is_stmt 0 view .LVU1950
 6382 001e 0294     		str	r4, [sp, #8]
1327:SynaptiX_FDK/services/cJSON/cJSON.c ****     p.noalloc = true;
 6383              		.loc 1 1327 5 is_stmt 1 view .LVU1951
1328:SynaptiX_FDK/services/cJSON/cJSON.c ****     p.format = format;
 6384              		.loc 1 1328 5 view .LVU1952
1328:SynaptiX_FDK/services/cJSON/cJSON.c ****     p.format = format;
 6385              		.loc 1 1328 15 is_stmt 0 view .LVU1953
 6386 0020 0123     		movs	r3, #1
 6387 0022 0593     		str	r3, [sp, #20]
1329:SynaptiX_FDK/services/cJSON/cJSON.c ****     p.hooks = global_hooks;
 6388              		.loc 1 1329 5 is_stmt 1 view .LVU1954
1329:SynaptiX_FDK/services/cJSON/cJSON.c ****     p.hooks = global_hooks;
 6389              		.loc 1 1329 14 is_stmt 0 view .LVU1955
 6390 0024 0696     		str	r6, [sp, #24]
1330:SynaptiX_FDK/services/cJSON/cJSON.c **** 
 6391              		.loc 1 1330 5 is_stmt 1 view .LVU1956
1330:SynaptiX_FDK/services/cJSON/cJSON.c **** 
ARM GAS  C:\Users\DELL\AppData\Local\Temp\ccXjhdgA.s 			page 191


 6392              		.loc 1 1330 13 is_stmt 0 view .LVU1957
 6393 0026 084B     		ldr	r3, .L528
 6394 0028 93E80700 		ldm	r3, {r0, r1, r2}
 6395 002c 0AAB     		add	r3, sp, #40
 6396 002e 03E90700 		stmdb	r3, {r0, r1, r2}
1332:SynaptiX_FDK/services/cJSON/cJSON.c **** }
 6397              		.loc 1 1332 5 is_stmt 1 view .LVU1958
1332:SynaptiX_FDK/services/cJSON/cJSON.c **** }
 6398              		.loc 1 1332 12 is_stmt 0 view .LVU1959
 6399 0032 01A9     		add	r1, sp, #4
 6400 0034 3846     		mov	r0, r7
 6401 0036 FFF7FEFF 		bl	print_value
 6402              	.LVL596:
 6403              	.L523:
1333:SynaptiX_FDK/services/cJSON/cJSON.c **** 
 6404              		.loc 1 1333 1 view .LVU1960
 6405 003a 0BB0     		add	sp, sp, #44
 6406              	.LCFI73:
 6407              		.cfi_remember_state
 6408              		.cfi_def_cfa_offset 20
 6409              		@ sp needed
 6410 003c F0BD     		pop	{r4, r5, r6, r7, pc}
 6411              	.LVL597:
 6412              	.L525:
 6413              	.LCFI74:
 6414              		.cfi_restore_state
1322:SynaptiX_FDK/services/cJSON/cJSON.c ****     }
 6415              		.loc 1 1322 16 view .LVU1961
 6416 003e 0020     		movs	r0, #0
 6417 0040 FBE7     		b	.L523
 6418              	.L526:
 6419 0042 0020     		movs	r0, #0
 6420 0044 F9E7     		b	.L523
 6421              	.L529:
 6422 0046 00BF     		.align	2
 6423              	.L528:
 6424 0048 00000000 		.word	global_hooks
 6425              		.cfi_endproc
 6426              	.LFE36:
 6428              		.section	.text.cJSON_GetArraySize,"ax",%progbits
 6429              		.align	1
 6430              		.global	cJSON_GetArraySize
 6431              		.syntax unified
 6432              		.thumb
 6433              		.thumb_func
 6435              	cJSON_GetArraySize:
 6436              	.LVL598:
 6437              	.LFB43:
1858:SynaptiX_FDK/services/cJSON/cJSON.c ****     cJSON *child = NULL;
 6438              		.loc 1 1858 1 is_stmt 1 view -0
 6439              		.cfi_startproc
 6440              		@ args = 0, pretend = 0, frame = 0
 6441              		@ frame_needed = 0, uses_anonymous_args = 0
 6442              		@ link register save eliminated.
1859:SynaptiX_FDK/services/cJSON/cJSON.c ****     size_t size = 0;
 6443              		.loc 1 1859 5 view .LVU1963
1860:SynaptiX_FDK/services/cJSON/cJSON.c **** 
ARM GAS  C:\Users\DELL\AppData\Local\Temp\ccXjhdgA.s 			page 192


 6444              		.loc 1 1860 5 view .LVU1964
1862:SynaptiX_FDK/services/cJSON/cJSON.c ****     {
 6445              		.loc 1 1862 5 view .LVU1965
1862:SynaptiX_FDK/services/cJSON/cJSON.c ****     {
 6446              		.loc 1 1862 8 is_stmt 0 view .LVU1966
 6447 0000 38B1     		cbz	r0, .L534
1867:SynaptiX_FDK/services/cJSON/cJSON.c **** 
 6448              		.loc 1 1867 5 is_stmt 1 view .LVU1967
1867:SynaptiX_FDK/services/cJSON/cJSON.c **** 
 6449              		.loc 1 1867 11 is_stmt 0 view .LVU1968
 6450 0002 8368     		ldr	r3, [r0, #8]
 6451              	.LVL599:
1869:SynaptiX_FDK/services/cJSON/cJSON.c ****     {
 6452              		.loc 1 1869 5 is_stmt 1 view .LVU1969
1860:SynaptiX_FDK/services/cJSON/cJSON.c **** 
 6453              		.loc 1 1860 12 is_stmt 0 view .LVU1970
 6454 0004 0020     		movs	r0, #0
 6455              	.LVL600:
1869:SynaptiX_FDK/services/cJSON/cJSON.c ****     {
 6456              		.loc 1 1869 10 view .LVU1971
 6457 0006 01E0     		b	.L532
 6458              	.LVL601:
 6459              	.L533:
1871:SynaptiX_FDK/services/cJSON/cJSON.c ****         child = child->next;
 6460              		.loc 1 1871 9 is_stmt 1 view .LVU1972
1871:SynaptiX_FDK/services/cJSON/cJSON.c ****         child = child->next;
 6461              		.loc 1 1871 13 is_stmt 0 view .LVU1973
 6462 0008 0130     		adds	r0, r0, #1
 6463              	.LVL602:
1872:SynaptiX_FDK/services/cJSON/cJSON.c ****     }
 6464              		.loc 1 1872 9 is_stmt 1 view .LVU1974
1872:SynaptiX_FDK/services/cJSON/cJSON.c ****     }
 6465              		.loc 1 1872 15 is_stmt 0 view .LVU1975
 6466 000a 1B68     		ldr	r3, [r3]
 6467              	.LVL603:
 6468              	.L532:
1869:SynaptiX_FDK/services/cJSON/cJSON.c ****     {
 6469              		.loc 1 1869 17 is_stmt 1 view .LVU1976
 6470 000c 002B     		cmp	r3, #0
 6471 000e FBD1     		bne	.L533
1877:SynaptiX_FDK/services/cJSON/cJSON.c **** }
 6472              		.loc 1 1877 5 view .LVU1977
1877:SynaptiX_FDK/services/cJSON/cJSON.c **** }
 6473              		.loc 1 1877 12 is_stmt 0 view .LVU1978
 6474 0010 7047     		bx	lr
 6475              	.LVL604:
 6476              	.L534:
1864:SynaptiX_FDK/services/cJSON/cJSON.c ****     }
 6477              		.loc 1 1864 16 view .LVU1979
 6478 0012 0020     		movs	r0, #0
 6479              	.LVL605:
1878:SynaptiX_FDK/services/cJSON/cJSON.c **** 
 6480              		.loc 1 1878 1 view .LVU1980
 6481 0014 7047     		bx	lr
 6482              		.cfi_endproc
 6483              	.LFE43:
 6485              		.section	.text.cJSON_GetArrayItem,"ax",%progbits
ARM GAS  C:\Users\DELL\AppData\Local\Temp\ccXjhdgA.s 			page 193


 6486              		.align	1
 6487              		.global	cJSON_GetArrayItem
 6488              		.syntax unified
 6489              		.thumb
 6490              		.thumb_func
 6492              	cJSON_GetArrayItem:
 6493              	.LVL606:
 6494              	.LFB45:
1900:SynaptiX_FDK/services/cJSON/cJSON.c ****     if (index < 0)
 6495              		.loc 1 1900 1 is_stmt 1 view -0
 6496              		.cfi_startproc
 6497              		@ args = 0, pretend = 0, frame = 0
 6498              		@ frame_needed = 0, uses_anonymous_args = 0
1901:SynaptiX_FDK/services/cJSON/cJSON.c ****     {
 6499              		.loc 1 1901 5 view .LVU1982
1901:SynaptiX_FDK/services/cJSON/cJSON.c ****     {
 6500              		.loc 1 1901 8 is_stmt 0 view .LVU1983
 6501 0000 0029     		cmp	r1, #0
1901:SynaptiX_FDK/services/cJSON/cJSON.c ****     {
 6502              		.loc 1 1901 8 view .LVU1984
 6503 0002 03DB     		blt	.L537
1900:SynaptiX_FDK/services/cJSON/cJSON.c ****     if (index < 0)
 6504              		.loc 1 1900 1 view .LVU1985
 6505 0004 08B5     		push	{r3, lr}
 6506              	.LCFI75:
 6507              		.cfi_def_cfa_offset 8
 6508              		.cfi_offset 3, -8
 6509              		.cfi_offset 14, -4
1906:SynaptiX_FDK/services/cJSON/cJSON.c **** }
 6510              		.loc 1 1906 5 is_stmt 1 view .LVU1986
1906:SynaptiX_FDK/services/cJSON/cJSON.c **** }
 6511              		.loc 1 1906 12 is_stmt 0 view .LVU1987
 6512 0006 FFF7FEFF 		bl	get_array_item
 6513              	.LVL607:
1907:SynaptiX_FDK/services/cJSON/cJSON.c **** 
 6514              		.loc 1 1907 1 view .LVU1988
 6515 000a 08BD     		pop	{r3, pc}
 6516              	.LVL608:
 6517              	.L537:
 6518              	.LCFI76:
 6519              		.cfi_def_cfa_offset 0
 6520              		.cfi_restore 3
 6521              		.cfi_restore 14
1903:SynaptiX_FDK/services/cJSON/cJSON.c ****     }
 6522              		.loc 1 1903 16 view .LVU1989
 6523 000c 0020     		movs	r0, #0
 6524              	.LVL609:
1907:SynaptiX_FDK/services/cJSON/cJSON.c **** 
 6525              		.loc 1 1907 1 view .LVU1990
 6526 000e 7047     		bx	lr
 6527              		.cfi_endproc
 6528              	.LFE45:
 6530              		.section	.text.cJSON_GetObjectItem,"ax",%progbits
 6531              		.align	1
 6532              		.global	cJSON_GetObjectItem
 6533              		.syntax unified
 6534              		.thumb
ARM GAS  C:\Users\DELL\AppData\Local\Temp\ccXjhdgA.s 			page 194


 6535              		.thumb_func
 6537              	cJSON_GetObjectItem:
 6538              	.LVL610:
 6539              	.LFB47:
1942:SynaptiX_FDK/services/cJSON/cJSON.c ****     return get_object_item(object, string, false);
 6540              		.loc 1 1942 1 is_stmt 1 view -0
 6541              		.cfi_startproc
 6542              		@ args = 0, pretend = 0, frame = 0
 6543              		@ frame_needed = 0, uses_anonymous_args = 0
1942:SynaptiX_FDK/services/cJSON/cJSON.c ****     return get_object_item(object, string, false);
 6544              		.loc 1 1942 1 is_stmt 0 view .LVU1992
 6545 0000 08B5     		push	{r3, lr}
 6546              	.LCFI77:
 6547              		.cfi_def_cfa_offset 8
 6548              		.cfi_offset 3, -8
 6549              		.cfi_offset 14, -4
1943:SynaptiX_FDK/services/cJSON/cJSON.c **** }
 6550              		.loc 1 1943 5 is_stmt 1 view .LVU1993
1943:SynaptiX_FDK/services/cJSON/cJSON.c **** }
 6551              		.loc 1 1943 12 is_stmt 0 view .LVU1994
 6552 0002 0022     		movs	r2, #0
 6553 0004 FFF7FEFF 		bl	get_object_item
 6554              	.LVL611:
1944:SynaptiX_FDK/services/cJSON/cJSON.c **** 
 6555              		.loc 1 1944 1 view .LVU1995
 6556 0008 08BD     		pop	{r3, pc}
 6557              		.cfi_endproc
 6558              	.LFE47:
 6560              		.section	.text.cJSON_GetObjectItemCaseSensitive,"ax",%progbits
 6561              		.align	1
 6562              		.global	cJSON_GetObjectItemCaseSensitive
 6563              		.syntax unified
 6564              		.thumb
 6565              		.thumb_func
 6567              	cJSON_GetObjectItemCaseSensitive:
 6568              	.LVL612:
 6569              	.LFB48:
1947:SynaptiX_FDK/services/cJSON/cJSON.c ****     return get_object_item(object, string, true);
 6570              		.loc 1 1947 1 is_stmt 1 view -0
 6571              		.cfi_startproc
 6572              		@ args = 0, pretend = 0, frame = 0
 6573              		@ frame_needed = 0, uses_anonymous_args = 0
1947:SynaptiX_FDK/services/cJSON/cJSON.c ****     return get_object_item(object, string, true);
 6574              		.loc 1 1947 1 is_stmt 0 view .LVU1997
 6575 0000 08B5     		push	{r3, lr}
 6576              	.LCFI78:
 6577              		.cfi_def_cfa_offset 8
 6578              		.cfi_offset 3, -8
 6579              		.cfi_offset 14, -4
1948:SynaptiX_FDK/services/cJSON/cJSON.c **** }
 6580              		.loc 1 1948 5 is_stmt 1 view .LVU1998
1948:SynaptiX_FDK/services/cJSON/cJSON.c **** }
 6581              		.loc 1 1948 12 is_stmt 0 view .LVU1999
 6582 0002 0122     		movs	r2, #1
 6583 0004 FFF7FEFF 		bl	get_object_item
 6584              	.LVL613:
1949:SynaptiX_FDK/services/cJSON/cJSON.c **** 
ARM GAS  C:\Users\DELL\AppData\Local\Temp\ccXjhdgA.s 			page 195


 6585              		.loc 1 1949 1 view .LVU2000
 6586 0008 08BD     		pop	{r3, pc}
 6587              		.cfi_endproc
 6588              	.LFE48:
 6590              		.section	.text.cJSON_HasObjectItem,"ax",%progbits
 6591              		.align	1
 6592              		.global	cJSON_HasObjectItem
 6593              		.syntax unified
 6594              		.thumb
 6595              		.thumb_func
 6597              	cJSON_HasObjectItem:
 6598              	.LVL614:
 6599              	.LFB49:
1952:SynaptiX_FDK/services/cJSON/cJSON.c ****     return cJSON_GetObjectItem(object, string) ? 1 : 0;
 6600              		.loc 1 1952 1 is_stmt 1 view -0
 6601              		.cfi_startproc
 6602              		@ args = 0, pretend = 0, frame = 0
 6603              		@ frame_needed = 0, uses_anonymous_args = 0
1952:SynaptiX_FDK/services/cJSON/cJSON.c ****     return cJSON_GetObjectItem(object, string) ? 1 : 0;
 6604              		.loc 1 1952 1 is_stmt 0 view .LVU2002
 6605 0000 08B5     		push	{r3, lr}
 6606              	.LCFI79:
 6607              		.cfi_def_cfa_offset 8
 6608              		.cfi_offset 3, -8
 6609              		.cfi_offset 14, -4
1953:SynaptiX_FDK/services/cJSON/cJSON.c **** }
 6610              		.loc 1 1953 5 is_stmt 1 view .LVU2003
1953:SynaptiX_FDK/services/cJSON/cJSON.c **** }
 6611              		.loc 1 1953 12 is_stmt 0 view .LVU2004
 6612 0002 FFF7FEFF 		bl	cJSON_GetObjectItem
 6613              	.LVL615:
1954:SynaptiX_FDK/services/cJSON/cJSON.c **** 
 6614              		.loc 1 1954 1 view .LVU2005
 6615 0006 0038     		subs	r0, r0, #0
 6616 0008 18BF     		it	ne
 6617 000a 0120     		movne	r0, #1
 6618 000c 08BD     		pop	{r3, pc}
 6619              		.cfi_endproc
 6620              	.LFE49:
 6622              		.section	.text.cJSON_AddItemToArray,"ax",%progbits
 6623              		.align	1
 6624              		.global	cJSON_AddItemToArray
 6625              		.syntax unified
 6626              		.thumb
 6627              		.thumb_func
 6629              	cJSON_AddItemToArray:
 6630              	.LVL616:
 6631              	.LFB53:
2020:SynaptiX_FDK/services/cJSON/cJSON.c ****     return add_item_to_array(array, item);
 6632              		.loc 1 2020 1 is_stmt 1 view -0
 6633              		.cfi_startproc
 6634              		@ args = 0, pretend = 0, frame = 0
 6635              		@ frame_needed = 0, uses_anonymous_args = 0
2020:SynaptiX_FDK/services/cJSON/cJSON.c ****     return add_item_to_array(array, item);
 6636              		.loc 1 2020 1 is_stmt 0 view .LVU2007
 6637 0000 08B5     		push	{r3, lr}
 6638              	.LCFI80:
ARM GAS  C:\Users\DELL\AppData\Local\Temp\ccXjhdgA.s 			page 196


 6639              		.cfi_def_cfa_offset 8
 6640              		.cfi_offset 3, -8
 6641              		.cfi_offset 14, -4
2021:SynaptiX_FDK/services/cJSON/cJSON.c **** }
 6642              		.loc 1 2021 5 is_stmt 1 view .LVU2008
2021:SynaptiX_FDK/services/cJSON/cJSON.c **** }
 6643              		.loc 1 2021 12 is_stmt 0 view .LVU2009
 6644 0002 FFF7FEFF 		bl	add_item_to_array
 6645              	.LVL617:
2022:SynaptiX_FDK/services/cJSON/cJSON.c **** 
 6646              		.loc 1 2022 1 view .LVU2010
 6647 0006 08BD     		pop	{r3, pc}
 6648              		.cfi_endproc
 6649              	.LFE53:
 6651              		.section	.text.cJSON_AddItemToObject,"ax",%progbits
 6652              		.align	1
 6653              		.global	cJSON_AddItemToObject
 6654              		.syntax unified
 6655              		.thumb
 6656              		.thumb_func
 6658              	cJSON_AddItemToObject:
 6659              	.LVL618:
 6660              	.LFB56:
2078:SynaptiX_FDK/services/cJSON/cJSON.c ****     return add_item_to_object(object, string, item, &global_hooks, false);
 6661              		.loc 1 2078 1 is_stmt 1 view -0
 6662              		.cfi_startproc
 6663              		@ args = 0, pretend = 0, frame = 0
 6664              		@ frame_needed = 0, uses_anonymous_args = 0
2078:SynaptiX_FDK/services/cJSON/cJSON.c ****     return add_item_to_object(object, string, item, &global_hooks, false);
 6665              		.loc 1 2078 1 is_stmt 0 view .LVU2012
 6666 0000 00B5     		push	{lr}
 6667              	.LCFI81:
 6668              		.cfi_def_cfa_offset 4
 6669              		.cfi_offset 14, -4
 6670 0002 83B0     		sub	sp, sp, #12
 6671              	.LCFI82:
 6672              		.cfi_def_cfa_offset 16
2079:SynaptiX_FDK/services/cJSON/cJSON.c **** }
 6673              		.loc 1 2079 5 is_stmt 1 view .LVU2013
2079:SynaptiX_FDK/services/cJSON/cJSON.c **** }
 6674              		.loc 1 2079 12 is_stmt 0 view .LVU2014
 6675 0004 0023     		movs	r3, #0
 6676 0006 0093     		str	r3, [sp]
 6677 0008 024B     		ldr	r3, .L552
 6678 000a FFF7FEFF 		bl	add_item_to_object
 6679              	.LVL619:
2080:SynaptiX_FDK/services/cJSON/cJSON.c **** 
 6680              		.loc 1 2080 1 view .LVU2015
 6681 000e 03B0     		add	sp, sp, #12
 6682              	.LCFI83:
 6683              		.cfi_def_cfa_offset 4
 6684              		@ sp needed
 6685 0010 00BD     		pop	{pc}
 6686              	.L553:
 6687 0012 00BF     		.align	2
 6688              	.L552:
 6689 0014 00000000 		.word	global_hooks
ARM GAS  C:\Users\DELL\AppData\Local\Temp\ccXjhdgA.s 			page 197


 6690              		.cfi_endproc
 6691              	.LFE56:
 6693              		.section	.text.cJSON_AddItemToObjectCS,"ax",%progbits
 6694              		.align	1
 6695              		.global	cJSON_AddItemToObjectCS
 6696              		.syntax unified
 6697              		.thumb
 6698              		.thumb_func
 6700              	cJSON_AddItemToObjectCS:
 6701              	.LVL620:
 6702              	.LFB57:
2084:SynaptiX_FDK/services/cJSON/cJSON.c ****     return add_item_to_object(object, string, item, &global_hooks, true);
 6703              		.loc 1 2084 1 is_stmt 1 view -0
 6704              		.cfi_startproc
 6705              		@ args = 0, pretend = 0, frame = 0
 6706              		@ frame_needed = 0, uses_anonymous_args = 0
2084:SynaptiX_FDK/services/cJSON/cJSON.c ****     return add_item_to_object(object, string, item, &global_hooks, true);
 6707              		.loc 1 2084 1 is_stmt 0 view .LVU2017
 6708 0000 00B5     		push	{lr}
 6709              	.LCFI84:
 6710              		.cfi_def_cfa_offset 4
 6711              		.cfi_offset 14, -4
 6712 0002 83B0     		sub	sp, sp, #12
 6713              	.LCFI85:
 6714              		.cfi_def_cfa_offset 16
2085:SynaptiX_FDK/services/cJSON/cJSON.c **** }
 6715              		.loc 1 2085 5 is_stmt 1 view .LVU2018
2085:SynaptiX_FDK/services/cJSON/cJSON.c **** }
 6716              		.loc 1 2085 12 is_stmt 0 view .LVU2019
 6717 0004 0123     		movs	r3, #1
 6718 0006 0093     		str	r3, [sp]
 6719 0008 024B     		ldr	r3, .L556
 6720 000a FFF7FEFF 		bl	add_item_to_object
 6721              	.LVL621:
2086:SynaptiX_FDK/services/cJSON/cJSON.c **** 
 6722              		.loc 1 2086 1 view .LVU2020
 6723 000e 03B0     		add	sp, sp, #12
 6724              	.LCFI86:
 6725              		.cfi_def_cfa_offset 4
 6726              		@ sp needed
 6727 0010 00BD     		pop	{pc}
 6728              	.L557:
 6729 0012 00BF     		.align	2
 6730              	.L556:
 6731 0014 00000000 		.word	global_hooks
 6732              		.cfi_endproc
 6733              	.LFE57:
 6735              		.section	.text.cJSON_AddItemReferenceToArray,"ax",%progbits
 6736              		.align	1
 6737              		.global	cJSON_AddItemReferenceToArray
 6738              		.syntax unified
 6739              		.thumb
 6740              		.thumb_func
 6742              	cJSON_AddItemReferenceToArray:
 6743              	.LVL622:
 6744              	.LFB58:
2089:SynaptiX_FDK/services/cJSON/cJSON.c ****     if (array == NULL)
ARM GAS  C:\Users\DELL\AppData\Local\Temp\ccXjhdgA.s 			page 198


 6745              		.loc 1 2089 1 is_stmt 1 view -0
 6746              		.cfi_startproc
 6747              		@ args = 0, pretend = 0, frame = 0
 6748              		@ frame_needed = 0, uses_anonymous_args = 0
2090:SynaptiX_FDK/services/cJSON/cJSON.c ****     {
 6749              		.loc 1 2090 5 view .LVU2022
2090:SynaptiX_FDK/services/cJSON/cJSON.c ****     {
 6750              		.loc 1 2090 8 is_stmt 0 view .LVU2023
 6751 0000 58B1     		cbz	r0, .L560
2089:SynaptiX_FDK/services/cJSON/cJSON.c ****     if (array == NULL)
 6752              		.loc 1 2089 1 view .LVU2024
 6753 0002 10B5     		push	{r4, lr}
 6754              	.LCFI87:
 6755              		.cfi_def_cfa_offset 8
 6756              		.cfi_offset 4, -8
 6757              		.cfi_offset 14, -4
 6758 0004 0B46     		mov	r3, r1
 6759 0006 0446     		mov	r4, r0
2095:SynaptiX_FDK/services/cJSON/cJSON.c **** }
 6760              		.loc 1 2095 5 is_stmt 1 view .LVU2025
2095:SynaptiX_FDK/services/cJSON/cJSON.c **** }
 6761              		.loc 1 2095 12 is_stmt 0 view .LVU2026
 6762 0008 0549     		ldr	r1, .L565
 6763              	.LVL623:
2095:SynaptiX_FDK/services/cJSON/cJSON.c **** }
 6764              		.loc 1 2095 12 view .LVU2027
 6765 000a 1846     		mov	r0, r3
 6766              	.LVL624:
2095:SynaptiX_FDK/services/cJSON/cJSON.c **** }
 6767              		.loc 1 2095 12 view .LVU2028
 6768 000c FFF7FEFF 		bl	create_reference
 6769              	.LVL625:
2095:SynaptiX_FDK/services/cJSON/cJSON.c **** }
 6770              		.loc 1 2095 12 view .LVU2029
 6771 0010 0146     		mov	r1, r0
2095:SynaptiX_FDK/services/cJSON/cJSON.c **** }
 6772              		.loc 1 2095 12 discriminator 1 view .LVU2030
 6773 0012 2046     		mov	r0, r4
 6774 0014 FFF7FEFF 		bl	add_item_to_array
 6775              	.LVL626:
2096:SynaptiX_FDK/services/cJSON/cJSON.c **** 
 6776              		.loc 1 2096 1 view .LVU2031
 6777 0018 10BD     		pop	{r4, pc}
 6778              	.LVL627:
 6779              	.L560:
 6780              	.LCFI88:
 6781              		.cfi_def_cfa_offset 0
 6782              		.cfi_restore 4
 6783              		.cfi_restore 14
2092:SynaptiX_FDK/services/cJSON/cJSON.c ****     }
 6784              		.loc 1 2092 16 view .LVU2032
 6785 001a 0020     		movs	r0, #0
 6786              	.LVL628:
2096:SynaptiX_FDK/services/cJSON/cJSON.c **** 
 6787              		.loc 1 2096 1 view .LVU2033
 6788 001c 7047     		bx	lr
 6789              	.L566:
ARM GAS  C:\Users\DELL\AppData\Local\Temp\ccXjhdgA.s 			page 199


 6790 001e 00BF     		.align	2
 6791              	.L565:
 6792 0020 00000000 		.word	global_hooks
 6793              		.cfi_endproc
 6794              	.LFE58:
 6796              		.section	.text.cJSON_AddItemReferenceToObject,"ax",%progbits
 6797              		.align	1
 6798              		.global	cJSON_AddItemReferenceToObject
 6799              		.syntax unified
 6800              		.thumb
 6801              		.thumb_func
 6803              	cJSON_AddItemReferenceToObject:
 6804              	.LVL629:
 6805              	.LFB59:
2099:SynaptiX_FDK/services/cJSON/cJSON.c ****     if ((object == NULL) || (string == NULL))
 6806              		.loc 1 2099 1 is_stmt 1 view -0
 6807              		.cfi_startproc
 6808              		@ args = 0, pretend = 0, frame = 0
 6809              		@ frame_needed = 0, uses_anonymous_args = 0
2100:SynaptiX_FDK/services/cJSON/cJSON.c ****     {
 6810              		.loc 1 2100 5 view .LVU2035
2100:SynaptiX_FDK/services/cJSON/cJSON.c ****     {
 6811              		.loc 1 2100 8 is_stmt 0 view .LVU2036
 6812 0000 98B1     		cbz	r0, .L569
2099:SynaptiX_FDK/services/cJSON/cJSON.c ****     if ((object == NULL) || (string == NULL))
 6813              		.loc 1 2099 1 view .LVU2037
 6814 0002 70B5     		push	{r4, r5, r6, lr}
 6815              	.LCFI89:
 6816              		.cfi_def_cfa_offset 16
 6817              		.cfi_offset 4, -16
 6818              		.cfi_offset 5, -12
 6819              		.cfi_offset 6, -8
 6820              		.cfi_offset 14, -4
 6821 0004 82B0     		sub	sp, sp, #8
 6822              	.LCFI90:
 6823              		.cfi_def_cfa_offset 24
 6824 0006 0C46     		mov	r4, r1
 6825 0008 0646     		mov	r6, r0
2100:SynaptiX_FDK/services/cJSON/cJSON.c ****     {
 6826              		.loc 1 2100 26 discriminator 1 view .LVU2038
 6827 000a 81B1     		cbz	r1, .L570
2105:SynaptiX_FDK/services/cJSON/cJSON.c **** }
 6828              		.loc 1 2105 5 is_stmt 1 view .LVU2039
2105:SynaptiX_FDK/services/cJSON/cJSON.c **** }
 6829              		.loc 1 2105 47 is_stmt 0 view .LVU2040
 6830 000c 094D     		ldr	r5, .L575
 6831 000e 2946     		mov	r1, r5
 6832              	.LVL630:
2105:SynaptiX_FDK/services/cJSON/cJSON.c **** }
 6833              		.loc 1 2105 47 view .LVU2041
 6834 0010 1046     		mov	r0, r2
 6835              	.LVL631:
2105:SynaptiX_FDK/services/cJSON/cJSON.c **** }
 6836              		.loc 1 2105 47 view .LVU2042
 6837 0012 FFF7FEFF 		bl	create_reference
 6838              	.LVL632:
2105:SynaptiX_FDK/services/cJSON/cJSON.c **** }
ARM GAS  C:\Users\DELL\AppData\Local\Temp\ccXjhdgA.s 			page 200


 6839              		.loc 1 2105 47 view .LVU2043
 6840 0016 0246     		mov	r2, r0
2105:SynaptiX_FDK/services/cJSON/cJSON.c **** }
 6841              		.loc 1 2105 12 discriminator 1 view .LVU2044
 6842 0018 0023     		movs	r3, #0
 6843 001a 0093     		str	r3, [sp]
 6844 001c 2B46     		mov	r3, r5
 6845 001e 2146     		mov	r1, r4
 6846 0020 3046     		mov	r0, r6
 6847 0022 FFF7FEFF 		bl	add_item_to_object
 6848              	.LVL633:
 6849              	.L567:
2106:SynaptiX_FDK/services/cJSON/cJSON.c **** 
 6850              		.loc 1 2106 1 view .LVU2045
 6851 0026 02B0     		add	sp, sp, #8
 6852              	.LCFI91:
 6853              		.cfi_def_cfa_offset 16
 6854              		@ sp needed
 6855 0028 70BD     		pop	{r4, r5, r6, pc}
 6856              	.LVL634:
 6857              	.L569:
 6858              	.LCFI92:
 6859              		.cfi_def_cfa_offset 0
 6860              		.cfi_restore 4
 6861              		.cfi_restore 5
 6862              		.cfi_restore 6
 6863              		.cfi_restore 14
2102:SynaptiX_FDK/services/cJSON/cJSON.c ****     }
 6864              		.loc 1 2102 16 view .LVU2046
 6865 002a 0020     		movs	r0, #0
 6866              	.LVL635:
2106:SynaptiX_FDK/services/cJSON/cJSON.c **** 
 6867              		.loc 1 2106 1 view .LVU2047
 6868 002c 7047     		bx	lr
 6869              	.LVL636:
 6870              	.L570:
 6871              	.LCFI93:
 6872              		.cfi_def_cfa_offset 24
 6873              		.cfi_offset 4, -16
 6874              		.cfi_offset 5, -12
 6875              		.cfi_offset 6, -8
 6876              		.cfi_offset 14, -4
2102:SynaptiX_FDK/services/cJSON/cJSON.c ****     }
 6877              		.loc 1 2102 16 view .LVU2048
 6878 002e 0020     		movs	r0, #0
 6879              	.LVL637:
2102:SynaptiX_FDK/services/cJSON/cJSON.c ****     }
 6880              		.loc 1 2102 16 view .LVU2049
 6881 0030 F9E7     		b	.L567
 6882              	.L576:
 6883 0032 00BF     		.align	2
 6884              	.L575:
 6885 0034 00000000 		.word	global_hooks
 6886              		.cfi_endproc
 6887              	.LFE59:
 6889              		.section	.text.cJSON_DetachItemViaPointer,"ax",%progbits
 6890              		.align	1
ARM GAS  C:\Users\DELL\AppData\Local\Temp\ccXjhdgA.s 			page 201


 6891              		.global	cJSON_DetachItemViaPointer
 6892              		.syntax unified
 6893              		.thumb
 6894              		.thumb_func
 6896              	cJSON_DetachItemViaPointer:
 6897              	.LVL638:
 6898              	.LFB69:
2217:SynaptiX_FDK/services/cJSON/cJSON.c ****     if ((parent == NULL) || (item == NULL) || (item != parent->child && item->prev == NULL))
 6899              		.loc 1 2217 1 is_stmt 1 view -0
 6900              		.cfi_startproc
 6901              		@ args = 0, pretend = 0, frame = 0
 6902              		@ frame_needed = 0, uses_anonymous_args = 0
 6903              		@ link register save eliminated.
2218:SynaptiX_FDK/services/cJSON/cJSON.c ****     {
 6904              		.loc 1 2218 5 view .LVU2051
2218:SynaptiX_FDK/services/cJSON/cJSON.c ****     {
 6905              		.loc 1 2218 8 is_stmt 0 view .LVU2052
 6906 0000 0346     		mov	r3, r0
 6907 0002 F0B1     		cbz	r0, .L584
2218:SynaptiX_FDK/services/cJSON/cJSON.c ****     {
 6908              		.loc 1 2218 26 discriminator 1 view .LVU2053
 6909 0004 F1B1     		cbz	r1, .L585
2218:SynaptiX_FDK/services/cJSON/cJSON.c ****     {
 6910              		.loc 1 2218 62 discriminator 2 view .LVU2054
 6911 0006 8268     		ldr	r2, [r0, #8]
2218:SynaptiX_FDK/services/cJSON/cJSON.c ****     {
 6912              		.loc 1 2218 44 discriminator 2 view .LVU2055
 6913 0008 8A42     		cmp	r2, r1
 6914 000a 01D0     		beq	.L579
2218:SynaptiX_FDK/services/cJSON/cJSON.c ****     {
 6915              		.loc 1 2218 77 discriminator 3 view .LVU2056
 6916 000c 4868     		ldr	r0, [r1, #4]
 6917              	.LVL639:
2218:SynaptiX_FDK/services/cJSON/cJSON.c ****     {
 6918              		.loc 1 2218 70 discriminator 3 view .LVU2057
 6919 000e D0B1     		cbz	r0, .L577
 6920              	.L579:
2223:SynaptiX_FDK/services/cJSON/cJSON.c ****     {
 6921              		.loc 1 2223 5 is_stmt 1 view .LVU2058
2223:SynaptiX_FDK/services/cJSON/cJSON.c ****     {
 6922              		.loc 1 2223 8 is_stmt 0 view .LVU2059
 6923 0010 8A42     		cmp	r2, r1
 6924 0012 02D0     		beq	.L580
2226:SynaptiX_FDK/services/cJSON/cJSON.c ****     }
 6925              		.loc 1 2226 9 is_stmt 1 view .LVU2060
2226:SynaptiX_FDK/services/cJSON/cJSON.c ****     }
 6926              		.loc 1 2226 13 is_stmt 0 view .LVU2061
 6927 0014 4A68     		ldr	r2, [r1, #4]
2226:SynaptiX_FDK/services/cJSON/cJSON.c ****     }
 6928              		.loc 1 2226 32 view .LVU2062
 6929 0016 0868     		ldr	r0, [r1]
2226:SynaptiX_FDK/services/cJSON/cJSON.c ****     }
 6930              		.loc 1 2226 26 view .LVU2063
 6931 0018 1060     		str	r0, [r2]
 6932              	.L580:
2228:SynaptiX_FDK/services/cJSON/cJSON.c ****     {
 6933              		.loc 1 2228 5 is_stmt 1 view .LVU2064
ARM GAS  C:\Users\DELL\AppData\Local\Temp\ccXjhdgA.s 			page 202


2228:SynaptiX_FDK/services/cJSON/cJSON.c ****     {
 6934              		.loc 1 2228 13 is_stmt 0 view .LVU2065
 6935 001a 0A68     		ldr	r2, [r1]
2228:SynaptiX_FDK/services/cJSON/cJSON.c ****     {
 6936              		.loc 1 2228 8 view .LVU2066
 6937 001c 0AB1     		cbz	r2, .L581
2231:SynaptiX_FDK/services/cJSON/cJSON.c ****     }
 6938              		.loc 1 2231 9 is_stmt 1 view .LVU2067
2231:SynaptiX_FDK/services/cJSON/cJSON.c ****     }
 6939              		.loc 1 2231 32 is_stmt 0 view .LVU2068
 6940 001e 4868     		ldr	r0, [r1, #4]
2231:SynaptiX_FDK/services/cJSON/cJSON.c ****     }
 6941              		.loc 1 2231 26 view .LVU2069
 6942 0020 5060     		str	r0, [r2, #4]
 6943              	.L581:
2234:SynaptiX_FDK/services/cJSON/cJSON.c ****     {
 6944              		.loc 1 2234 5 is_stmt 1 view .LVU2070
2234:SynaptiX_FDK/services/cJSON/cJSON.c ****     {
 6945              		.loc 1 2234 23 is_stmt 0 view .LVU2071
 6946 0022 9A68     		ldr	r2, [r3, #8]
2234:SynaptiX_FDK/services/cJSON/cJSON.c ****     {
 6947              		.loc 1 2234 8 view .LVU2072
 6948 0024 8A42     		cmp	r2, r1
 6949 0026 06D0     		beq	.L586
2239:SynaptiX_FDK/services/cJSON/cJSON.c ****     {
 6950              		.loc 1 2239 10 is_stmt 1 view .LVU2073
2239:SynaptiX_FDK/services/cJSON/cJSON.c ****     {
 6951              		.loc 1 2239 18 is_stmt 0 view .LVU2074
 6952 0028 0B68     		ldr	r3, [r1]
 6953              	.LVL640:
2239:SynaptiX_FDK/services/cJSON/cJSON.c ****     {
 6954              		.loc 1 2239 13 view .LVU2075
 6955 002a 3BB1     		cbz	r3, .L587
 6956              	.L583:
2246:SynaptiX_FDK/services/cJSON/cJSON.c ****     item->next = NULL;
 6957              		.loc 1 2246 5 is_stmt 1 view .LVU2076
2246:SynaptiX_FDK/services/cJSON/cJSON.c ****     item->next = NULL;
 6958              		.loc 1 2246 16 is_stmt 0 view .LVU2077
 6959 002c 0023     		movs	r3, #0
 6960 002e 4B60     		str	r3, [r1, #4]
2247:SynaptiX_FDK/services/cJSON/cJSON.c **** 
 6961              		.loc 1 2247 5 is_stmt 1 view .LVU2078
2247:SynaptiX_FDK/services/cJSON/cJSON.c **** 
 6962              		.loc 1 2247 16 is_stmt 0 view .LVU2079
 6963 0030 0B60     		str	r3, [r1]
2249:SynaptiX_FDK/services/cJSON/cJSON.c **** }
 6964              		.loc 1 2249 5 is_stmt 1 view .LVU2080
2249:SynaptiX_FDK/services/cJSON/cJSON.c **** }
 6965              		.loc 1 2249 12 is_stmt 0 view .LVU2081
 6966 0032 0846     		mov	r0, r1
 6967 0034 7047     		bx	lr
 6968              	.LVL641:
 6969              	.L586:
2237:SynaptiX_FDK/services/cJSON/cJSON.c ****     }
 6970              		.loc 1 2237 9 is_stmt 1 view .LVU2082
2237:SynaptiX_FDK/services/cJSON/cJSON.c ****     }
 6971              		.loc 1 2237 29 is_stmt 0 view .LVU2083
ARM GAS  C:\Users\DELL\AppData\Local\Temp\ccXjhdgA.s 			page 203


 6972 0036 0A68     		ldr	r2, [r1]
2237:SynaptiX_FDK/services/cJSON/cJSON.c ****     }
 6973              		.loc 1 2237 23 view .LVU2084
 6974 0038 9A60     		str	r2, [r3, #8]
 6975 003a F7E7     		b	.L583
 6976              	.LVL642:
 6977              	.L587:
2242:SynaptiX_FDK/services/cJSON/cJSON.c ****     }
 6978              		.loc 1 2242 9 is_stmt 1 view .LVU2085
2242:SynaptiX_FDK/services/cJSON/cJSON.c ****     }
 6979              		.loc 1 2242 35 is_stmt 0 view .LVU2086
 6980 003c 4B68     		ldr	r3, [r1, #4]
2242:SynaptiX_FDK/services/cJSON/cJSON.c ****     }
 6981              		.loc 1 2242 29 view .LVU2087
 6982 003e 5360     		str	r3, [r2, #4]
 6983 0040 F4E7     		b	.L583
 6984              	.LVL643:
 6985              	.L584:
2242:SynaptiX_FDK/services/cJSON/cJSON.c ****     }
 6986              		.loc 1 2242 29 view .LVU2088
 6987 0042 7047     		bx	lr
 6988              	.L585:
2220:SynaptiX_FDK/services/cJSON/cJSON.c ****     }
 6989              		.loc 1 2220 16 view .LVU2089
 6990 0044 0846     		mov	r0, r1
 6991              	.LVL644:
 6992              	.L577:
2250:SynaptiX_FDK/services/cJSON/cJSON.c **** 
 6993              		.loc 1 2250 1 view .LVU2090
 6994 0046 7047     		bx	lr
 6995              		.cfi_endproc
 6996              	.LFE69:
 6998              		.section	.text.cJSON_DetachItemFromArray,"ax",%progbits
 6999              		.align	1
 7000              		.global	cJSON_DetachItemFromArray
 7001              		.syntax unified
 7002              		.thumb
 7003              		.thumb_func
 7005              	cJSON_DetachItemFromArray:
 7006              	.LVL645:
 7007              	.LFB70:
2253:SynaptiX_FDK/services/cJSON/cJSON.c ****     if (which < 0)
 7008              		.loc 1 2253 1 is_stmt 1 view -0
 7009              		.cfi_startproc
 7010              		@ args = 0, pretend = 0, frame = 0
 7011              		@ frame_needed = 0, uses_anonymous_args = 0
2254:SynaptiX_FDK/services/cJSON/cJSON.c ****     {
 7012              		.loc 1 2254 5 view .LVU2092
2254:SynaptiX_FDK/services/cJSON/cJSON.c ****     {
 7013              		.loc 1 2254 8 is_stmt 0 view .LVU2093
 7014 0000 0029     		cmp	r1, #0
2254:SynaptiX_FDK/services/cJSON/cJSON.c ****     {
 7015              		.loc 1 2254 8 view .LVU2094
 7016 0002 08DB     		blt	.L590
2253:SynaptiX_FDK/services/cJSON/cJSON.c ****     if (which < 0)
 7017              		.loc 1 2253 1 view .LVU2095
 7018 0004 10B5     		push	{r4, lr}
ARM GAS  C:\Users\DELL\AppData\Local\Temp\ccXjhdgA.s 			page 204


 7019              	.LCFI94:
 7020              		.cfi_def_cfa_offset 8
 7021              		.cfi_offset 4, -8
 7022              		.cfi_offset 14, -4
 7023 0006 0446     		mov	r4, r0
2259:SynaptiX_FDK/services/cJSON/cJSON.c **** }
 7024              		.loc 1 2259 5 is_stmt 1 view .LVU2096
2259:SynaptiX_FDK/services/cJSON/cJSON.c **** }
 7025              		.loc 1 2259 46 is_stmt 0 view .LVU2097
 7026 0008 FFF7FEFF 		bl	get_array_item
 7027              	.LVL646:
2259:SynaptiX_FDK/services/cJSON/cJSON.c **** }
 7028              		.loc 1 2259 46 view .LVU2098
 7029 000c 0146     		mov	r1, r0
2259:SynaptiX_FDK/services/cJSON/cJSON.c **** }
 7030              		.loc 1 2259 12 discriminator 1 view .LVU2099
 7031 000e 2046     		mov	r0, r4
 7032 0010 FFF7FEFF 		bl	cJSON_DetachItemViaPointer
 7033              	.LVL647:
2260:SynaptiX_FDK/services/cJSON/cJSON.c **** 
 7034              		.loc 1 2260 1 view .LVU2100
 7035 0014 10BD     		pop	{r4, pc}
 7036              	.LVL648:
 7037              	.L590:
 7038              	.LCFI95:
 7039              		.cfi_def_cfa_offset 0
 7040              		.cfi_restore 4
 7041              		.cfi_restore 14
2256:SynaptiX_FDK/services/cJSON/cJSON.c ****     }
 7042              		.loc 1 2256 16 view .LVU2101
 7043 0016 0020     		movs	r0, #0
 7044              	.LVL649:
2260:SynaptiX_FDK/services/cJSON/cJSON.c **** 
 7045              		.loc 1 2260 1 view .LVU2102
 7046 0018 7047     		bx	lr
 7047              		.cfi_endproc
 7048              	.LFE70:
 7050              		.section	.text.cJSON_DeleteItemFromArray,"ax",%progbits
 7051              		.align	1
 7052              		.global	cJSON_DeleteItemFromArray
 7053              		.syntax unified
 7054              		.thumb
 7055              		.thumb_func
 7057              	cJSON_DeleteItemFromArray:
 7058              	.LVL650:
 7059              	.LFB71:
2263:SynaptiX_FDK/services/cJSON/cJSON.c ****     cJSON_Delete(cJSON_DetachItemFromArray(array, which));
 7060              		.loc 1 2263 1 is_stmt 1 view -0
 7061              		.cfi_startproc
 7062              		@ args = 0, pretend = 0, frame = 0
 7063              		@ frame_needed = 0, uses_anonymous_args = 0
2263:SynaptiX_FDK/services/cJSON/cJSON.c ****     cJSON_Delete(cJSON_DetachItemFromArray(array, which));
 7064              		.loc 1 2263 1 is_stmt 0 view .LVU2104
 7065 0000 08B5     		push	{r3, lr}
 7066              	.LCFI96:
 7067              		.cfi_def_cfa_offset 8
 7068              		.cfi_offset 3, -8
ARM GAS  C:\Users\DELL\AppData\Local\Temp\ccXjhdgA.s 			page 205


 7069              		.cfi_offset 14, -4
2264:SynaptiX_FDK/services/cJSON/cJSON.c **** }
 7070              		.loc 1 2264 5 is_stmt 1 view .LVU2105
 7071 0002 FFF7FEFF 		bl	cJSON_DetachItemFromArray
 7072              	.LVL651:
2264:SynaptiX_FDK/services/cJSON/cJSON.c **** }
 7073              		.loc 1 2264 5 is_stmt 0 discriminator 1 view .LVU2106
 7074 0006 FFF7FEFF 		bl	cJSON_Delete
 7075              	.LVL652:
2265:SynaptiX_FDK/services/cJSON/cJSON.c **** 
 7076              		.loc 1 2265 1 view .LVU2107
 7077 000a 08BD     		pop	{r3, pc}
 7078              		.cfi_endproc
 7079              	.LFE71:
 7081              		.section	.text.cJSON_DetachItemFromObject,"ax",%progbits
 7082              		.align	1
 7083              		.global	cJSON_DetachItemFromObject
 7084              		.syntax unified
 7085              		.thumb
 7086              		.thumb_func
 7088              	cJSON_DetachItemFromObject:
 7089              	.LVL653:
 7090              	.LFB72:
2268:SynaptiX_FDK/services/cJSON/cJSON.c ****     cJSON *to_detach = cJSON_GetObjectItem(object, string);
 7091              		.loc 1 2268 1 is_stmt 1 view -0
 7092              		.cfi_startproc
 7093              		@ args = 0, pretend = 0, frame = 0
 7094              		@ frame_needed = 0, uses_anonymous_args = 0
2268:SynaptiX_FDK/services/cJSON/cJSON.c ****     cJSON *to_detach = cJSON_GetObjectItem(object, string);
 7095              		.loc 1 2268 1 is_stmt 0 view .LVU2109
 7096 0000 10B5     		push	{r4, lr}
 7097              	.LCFI97:
 7098              		.cfi_def_cfa_offset 8
 7099              		.cfi_offset 4, -8
 7100              		.cfi_offset 14, -4
 7101 0002 0446     		mov	r4, r0
2269:SynaptiX_FDK/services/cJSON/cJSON.c **** 
 7102              		.loc 1 2269 5 is_stmt 1 view .LVU2110
2269:SynaptiX_FDK/services/cJSON/cJSON.c **** 
 7103              		.loc 1 2269 24 is_stmt 0 view .LVU2111
 7104 0004 FFF7FEFF 		bl	cJSON_GetObjectItem
 7105              	.LVL654:
2269:SynaptiX_FDK/services/cJSON/cJSON.c **** 
 7106              		.loc 1 2269 24 view .LVU2112
 7107 0008 0146     		mov	r1, r0
 7108              	.LVL655:
2271:SynaptiX_FDK/services/cJSON/cJSON.c **** }
 7109              		.loc 1 2271 5 is_stmt 1 view .LVU2113
2271:SynaptiX_FDK/services/cJSON/cJSON.c **** }
 7110              		.loc 1 2271 12 is_stmt 0 view .LVU2114
 7111 000a 2046     		mov	r0, r4
 7112              	.LVL656:
2271:SynaptiX_FDK/services/cJSON/cJSON.c **** }
 7113              		.loc 1 2271 12 view .LVU2115
 7114 000c FFF7FEFF 		bl	cJSON_DetachItemViaPointer
 7115              	.LVL657:
2272:SynaptiX_FDK/services/cJSON/cJSON.c **** 
ARM GAS  C:\Users\DELL\AppData\Local\Temp\ccXjhdgA.s 			page 206


 7116              		.loc 1 2272 1 view .LVU2116
 7117 0010 10BD     		pop	{r4, pc}
2272:SynaptiX_FDK/services/cJSON/cJSON.c **** 
 7118              		.loc 1 2272 1 view .LVU2117
 7119              		.cfi_endproc
 7120              	.LFE72:
 7122              		.section	.text.cJSON_DetachItemFromObjectCaseSensitive,"ax",%progbits
 7123              		.align	1
 7124              		.global	cJSON_DetachItemFromObjectCaseSensitive
 7125              		.syntax unified
 7126              		.thumb
 7127              		.thumb_func
 7129              	cJSON_DetachItemFromObjectCaseSensitive:
 7130              	.LVL658:
 7131              	.LFB73:
2275:SynaptiX_FDK/services/cJSON/cJSON.c ****     cJSON *to_detach = cJSON_GetObjectItemCaseSensitive(object, string);
 7132              		.loc 1 2275 1 is_stmt 1 view -0
 7133              		.cfi_startproc
 7134              		@ args = 0, pretend = 0, frame = 0
 7135              		@ frame_needed = 0, uses_anonymous_args = 0
2275:SynaptiX_FDK/services/cJSON/cJSON.c ****     cJSON *to_detach = cJSON_GetObjectItemCaseSensitive(object, string);
 7136              		.loc 1 2275 1 is_stmt 0 view .LVU2119
 7137 0000 10B5     		push	{r4, lr}
 7138              	.LCFI98:
 7139              		.cfi_def_cfa_offset 8
 7140              		.cfi_offset 4, -8
 7141              		.cfi_offset 14, -4
 7142 0002 0446     		mov	r4, r0
2276:SynaptiX_FDK/services/cJSON/cJSON.c **** 
 7143              		.loc 1 2276 5 is_stmt 1 view .LVU2120
2276:SynaptiX_FDK/services/cJSON/cJSON.c **** 
 7144              		.loc 1 2276 24 is_stmt 0 view .LVU2121
 7145 0004 FFF7FEFF 		bl	cJSON_GetObjectItemCaseSensitive
 7146              	.LVL659:
2276:SynaptiX_FDK/services/cJSON/cJSON.c **** 
 7147              		.loc 1 2276 24 view .LVU2122
 7148 0008 0146     		mov	r1, r0
 7149              	.LVL660:
2278:SynaptiX_FDK/services/cJSON/cJSON.c **** }
 7150              		.loc 1 2278 5 is_stmt 1 view .LVU2123
2278:SynaptiX_FDK/services/cJSON/cJSON.c **** }
 7151              		.loc 1 2278 12 is_stmt 0 view .LVU2124
 7152 000a 2046     		mov	r0, r4
 7153              	.LVL661:
2278:SynaptiX_FDK/services/cJSON/cJSON.c **** }
 7154              		.loc 1 2278 12 view .LVU2125
 7155 000c FFF7FEFF 		bl	cJSON_DetachItemViaPointer
 7156              	.LVL662:
2279:SynaptiX_FDK/services/cJSON/cJSON.c **** 
 7157              		.loc 1 2279 1 view .LVU2126
 7158 0010 10BD     		pop	{r4, pc}
2279:SynaptiX_FDK/services/cJSON/cJSON.c **** 
 7159              		.loc 1 2279 1 view .LVU2127
 7160              		.cfi_endproc
 7161              	.LFE73:
 7163              		.section	.text.cJSON_DeleteItemFromObject,"ax",%progbits
 7164              		.align	1
ARM GAS  C:\Users\DELL\AppData\Local\Temp\ccXjhdgA.s 			page 207


 7165              		.global	cJSON_DeleteItemFromObject
 7166              		.syntax unified
 7167              		.thumb
 7168              		.thumb_func
 7170              	cJSON_DeleteItemFromObject:
 7171              	.LVL663:
 7172              	.LFB74:
2282:SynaptiX_FDK/services/cJSON/cJSON.c ****     cJSON_Delete(cJSON_DetachItemFromObject(object, string));
 7173              		.loc 1 2282 1 is_stmt 1 view -0
 7174              		.cfi_startproc
 7175              		@ args = 0, pretend = 0, frame = 0
 7176              		@ frame_needed = 0, uses_anonymous_args = 0
2282:SynaptiX_FDK/services/cJSON/cJSON.c ****     cJSON_Delete(cJSON_DetachItemFromObject(object, string));
 7177              		.loc 1 2282 1 is_stmt 0 view .LVU2129
 7178 0000 08B5     		push	{r3, lr}
 7179              	.LCFI99:
 7180              		.cfi_def_cfa_offset 8
 7181              		.cfi_offset 3, -8
 7182              		.cfi_offset 14, -4
2283:SynaptiX_FDK/services/cJSON/cJSON.c **** }
 7183              		.loc 1 2283 5 is_stmt 1 view .LVU2130
 7184 0002 FFF7FEFF 		bl	cJSON_DetachItemFromObject
 7185              	.LVL664:
2283:SynaptiX_FDK/services/cJSON/cJSON.c **** }
 7186              		.loc 1 2283 5 is_stmt 0 discriminator 1 view .LVU2131
 7187 0006 FFF7FEFF 		bl	cJSON_Delete
 7188              	.LVL665:
2284:SynaptiX_FDK/services/cJSON/cJSON.c **** 
 7189              		.loc 1 2284 1 view .LVU2132
 7190 000a 08BD     		pop	{r3, pc}
 7191              		.cfi_endproc
 7192              	.LFE74:
 7194              		.section	.text.cJSON_DeleteItemFromObjectCaseSensitive,"ax",%progbits
 7195              		.align	1
 7196              		.global	cJSON_DeleteItemFromObjectCaseSensitive
 7197              		.syntax unified
 7198              		.thumb
 7199              		.thumb_func
 7201              	cJSON_DeleteItemFromObjectCaseSensitive:
 7202              	.LVL666:
 7203              	.LFB75:
2287:SynaptiX_FDK/services/cJSON/cJSON.c ****     cJSON_Delete(cJSON_DetachItemFromObjectCaseSensitive(object, string));
 7204              		.loc 1 2287 1 is_stmt 1 view -0
 7205              		.cfi_startproc
 7206              		@ args = 0, pretend = 0, frame = 0
 7207              		@ frame_needed = 0, uses_anonymous_args = 0
2287:SynaptiX_FDK/services/cJSON/cJSON.c ****     cJSON_Delete(cJSON_DetachItemFromObjectCaseSensitive(object, string));
 7208              		.loc 1 2287 1 is_stmt 0 view .LVU2134
 7209 0000 08B5     		push	{r3, lr}
 7210              	.LCFI100:
 7211              		.cfi_def_cfa_offset 8
 7212              		.cfi_offset 3, -8
 7213              		.cfi_offset 14, -4
2288:SynaptiX_FDK/services/cJSON/cJSON.c **** }
 7214              		.loc 1 2288 5 is_stmt 1 view .LVU2135
 7215 0002 FFF7FEFF 		bl	cJSON_DetachItemFromObjectCaseSensitive
 7216              	.LVL667:
ARM GAS  C:\Users\DELL\AppData\Local\Temp\ccXjhdgA.s 			page 208


2288:SynaptiX_FDK/services/cJSON/cJSON.c **** }
 7217              		.loc 1 2288 5 is_stmt 0 discriminator 1 view .LVU2136
 7218 0006 FFF7FEFF 		bl	cJSON_Delete
 7219              	.LVL668:
2289:SynaptiX_FDK/services/cJSON/cJSON.c **** 
 7220              		.loc 1 2289 1 view .LVU2137
 7221 000a 08BD     		pop	{r3, pc}
 7222              		.cfi_endproc
 7223              	.LFE75:
 7225              		.section	.text.cJSON_InsertItemInArray,"ax",%progbits
 7226              		.align	1
 7227              		.global	cJSON_InsertItemInArray
 7228              		.syntax unified
 7229              		.thumb
 7230              		.thumb_func
 7232              	cJSON_InsertItemInArray:
 7233              	.LVL669:
 7234              	.LFB76:
2293:SynaptiX_FDK/services/cJSON/cJSON.c ****     cJSON *after_inserted = NULL;
 7235              		.loc 1 2293 1 is_stmt 1 view -0
 7236              		.cfi_startproc
 7237              		@ args = 0, pretend = 0, frame = 0
 7238              		@ frame_needed = 0, uses_anonymous_args = 0
2294:SynaptiX_FDK/services/cJSON/cJSON.c **** 
 7239              		.loc 1 2294 5 view .LVU2139
2296:SynaptiX_FDK/services/cJSON/cJSON.c ****     {
 7240              		.loc 1 2296 5 view .LVU2140
2296:SynaptiX_FDK/services/cJSON/cJSON.c ****     {
 7241              		.loc 1 2296 8 is_stmt 0 view .LVU2141
 7242 0000 0029     		cmp	r1, #0
2296:SynaptiX_FDK/services/cJSON/cJSON.c ****     {
 7243              		.loc 1 2296 8 view .LVU2142
 7244 0002 1FDB     		blt	.L610
2293:SynaptiX_FDK/services/cJSON/cJSON.c ****     cJSON *after_inserted = NULL;
 7245              		.loc 1 2293 1 view .LVU2143
 7246 0004 38B5     		push	{r3, r4, r5, lr}
 7247              	.LCFI101:
 7248              		.cfi_def_cfa_offset 16
 7249              		.cfi_offset 3, -16
 7250              		.cfi_offset 4, -12
 7251              		.cfi_offset 5, -8
 7252              		.cfi_offset 14, -4
 7253 0006 0546     		mov	r5, r0
 7254 0008 1446     		mov	r4, r2
2296:SynaptiX_FDK/services/cJSON/cJSON.c ****     {
 7255              		.loc 1 2296 19 discriminator 1 view .LVU2144
 7256 000a EAB1     		cbz	r2, .L611
2301:SynaptiX_FDK/services/cJSON/cJSON.c ****     if (after_inserted == NULL)
 7257              		.loc 1 2301 5 is_stmt 1 view .LVU2145
2301:SynaptiX_FDK/services/cJSON/cJSON.c ****     if (after_inserted == NULL)
 7258              		.loc 1 2301 22 is_stmt 0 view .LVU2146
 7259 000c FFF7FEFF 		bl	get_array_item
 7260              	.LVL670:
2302:SynaptiX_FDK/services/cJSON/cJSON.c ****     {
 7261              		.loc 1 2302 5 is_stmt 1 view .LVU2147
2302:SynaptiX_FDK/services/cJSON/cJSON.c ****     {
 7262              		.loc 1 2302 8 is_stmt 0 view .LVU2148
ARM GAS  C:\Users\DELL\AppData\Local\Temp\ccXjhdgA.s 			page 209


 7263 0010 0346     		mov	r3, r0
 7264 0012 78B1     		cbz	r0, .L617
2307:SynaptiX_FDK/services/cJSON/cJSON.c ****         /* return false if after_inserted is a corrupted array item */
 7265              		.loc 1 2307 5 is_stmt 1 view .LVU2149
2307:SynaptiX_FDK/services/cJSON/cJSON.c ****         /* return false if after_inserted is a corrupted array item */
 7266              		.loc 1 2307 32 is_stmt 0 view .LVU2150
 7267 0014 AA68     		ldr	r2, [r5, #8]
2307:SynaptiX_FDK/services/cJSON/cJSON.c ****         /* return false if after_inserted is a corrupted array item */
 7268              		.loc 1 2307 8 view .LVU2151
 7269 0016 8242     		cmp	r2, r0
 7270 0018 01D0     		beq	.L608
2307:SynaptiX_FDK/services/cJSON/cJSON.c ****         /* return false if after_inserted is a corrupted array item */
 7271              		.loc 1 2307 57 discriminator 1 view .LVU2152
 7272 001a 4268     		ldr	r2, [r0, #4]
2307:SynaptiX_FDK/services/cJSON/cJSON.c ****         /* return false if after_inserted is a corrupted array item */
 7273              		.loc 1 2307 40 discriminator 1 view .LVU2153
 7274 001c B2B1     		cbz	r2, .L612
 7275              	.L608:
2312:SynaptiX_FDK/services/cJSON/cJSON.c ****     newitem->prev = after_inserted->prev;
 7276              		.loc 1 2312 5 is_stmt 1 view .LVU2154
2312:SynaptiX_FDK/services/cJSON/cJSON.c ****     newitem->prev = after_inserted->prev;
 7277              		.loc 1 2312 19 is_stmt 0 view .LVU2155
 7278 001e 2360     		str	r3, [r4]
2313:SynaptiX_FDK/services/cJSON/cJSON.c ****     after_inserted->prev = newitem;
 7279              		.loc 1 2313 5 is_stmt 1 view .LVU2156
2313:SynaptiX_FDK/services/cJSON/cJSON.c ****     after_inserted->prev = newitem;
 7280              		.loc 1 2313 35 is_stmt 0 view .LVU2157
 7281 0020 5A68     		ldr	r2, [r3, #4]
2313:SynaptiX_FDK/services/cJSON/cJSON.c ****     after_inserted->prev = newitem;
 7282              		.loc 1 2313 19 view .LVU2158
 7283 0022 6260     		str	r2, [r4, #4]
2314:SynaptiX_FDK/services/cJSON/cJSON.c ****     if (after_inserted == array->child)
 7284              		.loc 1 2314 5 is_stmt 1 view .LVU2159
2314:SynaptiX_FDK/services/cJSON/cJSON.c ****     if (after_inserted == array->child)
 7285              		.loc 1 2314 26 is_stmt 0 view .LVU2160
 7286 0024 5C60     		str	r4, [r3, #4]
2315:SynaptiX_FDK/services/cJSON/cJSON.c ****     {
 7287              		.loc 1 2315 5 is_stmt 1 view .LVU2161
2315:SynaptiX_FDK/services/cJSON/cJSON.c ****     {
 7288              		.loc 1 2315 32 is_stmt 0 view .LVU2162
 7289 0026 AA68     		ldr	r2, [r5, #8]
2315:SynaptiX_FDK/services/cJSON/cJSON.c ****     {
 7290              		.loc 1 2315 8 view .LVU2163
 7291 0028 9A42     		cmp	r2, r3
 7292 002a 08D0     		beq	.L618
2321:SynaptiX_FDK/services/cJSON/cJSON.c ****     }
 7293              		.loc 1 2321 9 is_stmt 1 view .LVU2164
2321:SynaptiX_FDK/services/cJSON/cJSON.c ****     }
 7294              		.loc 1 2321 16 is_stmt 0 view .LVU2165
 7295 002c 6368     		ldr	r3, [r4, #4]
2321:SynaptiX_FDK/services/cJSON/cJSON.c ****     }
 7296              		.loc 1 2321 29 view .LVU2166
 7297 002e 1C60     		str	r4, [r3]
2323:SynaptiX_FDK/services/cJSON/cJSON.c **** }
 7298              		.loc 1 2323 12 view .LVU2167
 7299 0030 0120     		movs	r0, #1
 7300              	.LVL671:
ARM GAS  C:\Users\DELL\AppData\Local\Temp\ccXjhdgA.s 			page 210


 7301              	.L605:
2324:SynaptiX_FDK/services/cJSON/cJSON.c **** 
 7302              		.loc 1 2324 1 view .LVU2168
 7303 0032 38BD     		pop	{r3, r4, r5, pc}
 7304              	.LVL672:
 7305              	.L617:
2304:SynaptiX_FDK/services/cJSON/cJSON.c ****     }
 7306              		.loc 1 2304 9 is_stmt 1 view .LVU2169
2304:SynaptiX_FDK/services/cJSON/cJSON.c ****     }
 7307              		.loc 1 2304 16 is_stmt 0 view .LVU2170
 7308 0034 2146     		mov	r1, r4
 7309 0036 2846     		mov	r0, r5
 7310              	.LVL673:
2304:SynaptiX_FDK/services/cJSON/cJSON.c ****     }
 7311              		.loc 1 2304 16 view .LVU2171
 7312 0038 FFF7FEFF 		bl	add_item_to_array
 7313              	.LVL674:
2304:SynaptiX_FDK/services/cJSON/cJSON.c ****     }
 7314              		.loc 1 2304 16 view .LVU2172
 7315 003c F9E7     		b	.L605
 7316              	.LVL675:
 7317              	.L618:
2317:SynaptiX_FDK/services/cJSON/cJSON.c ****     }
 7318              		.loc 1 2317 9 is_stmt 1 view .LVU2173
2317:SynaptiX_FDK/services/cJSON/cJSON.c ****     }
 7319              		.loc 1 2317 22 is_stmt 0 view .LVU2174
 7320 003e AC60     		str	r4, [r5, #8]
2323:SynaptiX_FDK/services/cJSON/cJSON.c **** }
 7321              		.loc 1 2323 12 view .LVU2175
 7322 0040 0120     		movs	r0, #1
 7323              	.LVL676:
2323:SynaptiX_FDK/services/cJSON/cJSON.c **** }
 7324              		.loc 1 2323 12 view .LVU2176
 7325 0042 F6E7     		b	.L605
 7326              	.LVL677:
 7327              	.L610:
 7328              	.LCFI102:
 7329              		.cfi_def_cfa_offset 0
 7330              		.cfi_restore 3
 7331              		.cfi_restore 4
 7332              		.cfi_restore 5
 7333              		.cfi_restore 14
2298:SynaptiX_FDK/services/cJSON/cJSON.c ****     }
 7334              		.loc 1 2298 16 view .LVU2177
 7335 0044 0020     		movs	r0, #0
 7336              	.LVL678:
2324:SynaptiX_FDK/services/cJSON/cJSON.c **** 
 7337              		.loc 1 2324 1 view .LVU2178
 7338 0046 7047     		bx	lr
 7339              	.LVL679:
 7340              	.L611:
 7341              	.LCFI103:
 7342              		.cfi_def_cfa_offset 16
 7343              		.cfi_offset 3, -16
 7344              		.cfi_offset 4, -12
 7345              		.cfi_offset 5, -8
 7346              		.cfi_offset 14, -4
ARM GAS  C:\Users\DELL\AppData\Local\Temp\ccXjhdgA.s 			page 211


2298:SynaptiX_FDK/services/cJSON/cJSON.c ****     }
 7347              		.loc 1 2298 16 view .LVU2179
 7348 0048 0020     		movs	r0, #0
 7349              	.LVL680:
2298:SynaptiX_FDK/services/cJSON/cJSON.c ****     }
 7350              		.loc 1 2298 16 view .LVU2180
 7351 004a F2E7     		b	.L605
 7352              	.LVL681:
 7353              	.L612:
2309:SynaptiX_FDK/services/cJSON/cJSON.c ****     }
 7354              		.loc 1 2309 16 view .LVU2181
 7355 004c 0020     		movs	r0, #0
 7356              	.LVL682:
2309:SynaptiX_FDK/services/cJSON/cJSON.c ****     }
 7357              		.loc 1 2309 16 view .LVU2182
 7358 004e F0E7     		b	.L605
 7359              		.cfi_endproc
 7360              	.LFE76:
 7362              		.section	.text.cJSON_ReplaceItemViaPointer,"ax",%progbits
 7363              		.align	1
 7364              		.global	cJSON_ReplaceItemViaPointer
 7365              		.syntax unified
 7366              		.thumb
 7367              		.thumb_func
 7369              	cJSON_ReplaceItemViaPointer:
 7370              	.LVL683:
 7371              	.LFB77:
2327:SynaptiX_FDK/services/cJSON/cJSON.c ****     if ((parent == NULL) || (parent->child == NULL) || (replacement == NULL) || (item == NULL))
 7372              		.loc 1 2327 1 is_stmt 1 view -0
 7373              		.cfi_startproc
 7374              		@ args = 0, pretend = 0, frame = 0
 7375              		@ frame_needed = 0, uses_anonymous_args = 0
2328:SynaptiX_FDK/services/cJSON/cJSON.c ****     {
 7376              		.loc 1 2328 5 view .LVU2184
2328:SynaptiX_FDK/services/cJSON/cJSON.c ****     {
 7377              		.loc 1 2328 8 is_stmt 0 view .LVU2185
 7378 0000 38B3     		cbz	r0, .L626
 7379 0002 0346     		mov	r3, r0
2328:SynaptiX_FDK/services/cJSON/cJSON.c ****     {
 7380              		.loc 1 2328 36 discriminator 1 view .LVU2186
 7381 0004 8068     		ldr	r0, [r0, #8]
 7382              	.LVL684:
2328:SynaptiX_FDK/services/cJSON/cJSON.c ****     {
 7383              		.loc 1 2328 26 discriminator 1 view .LVU2187
 7384 0006 30B3     		cbz	r0, .L627
2328:SynaptiX_FDK/services/cJSON/cJSON.c ****     {
 7385              		.loc 1 2328 53 discriminator 2 view .LVU2188
 7386 0008 3AB3     		cbz	r2, .L628
2328:SynaptiX_FDK/services/cJSON/cJSON.c ****     {
 7387              		.loc 1 2328 78 discriminator 3 view .LVU2189
 7388 000a 41B3     		cbz	r1, .L629
2333:SynaptiX_FDK/services/cJSON/cJSON.c ****     {
 7389              		.loc 1 2333 5 is_stmt 1 view .LVU2190
2333:SynaptiX_FDK/services/cJSON/cJSON.c ****     {
 7390              		.loc 1 2333 8 is_stmt 0 view .LVU2191
 7391 000c 8A42     		cmp	r2, r1
 7392 000e 28D0     		beq	.L630
ARM GAS  C:\Users\DELL\AppData\Local\Temp\ccXjhdgA.s 			page 212


2327:SynaptiX_FDK/services/cJSON/cJSON.c ****     if ((parent == NULL) || (parent->child == NULL) || (replacement == NULL) || (item == NULL))
 7393              		.loc 1 2327 1 view .LVU2192
 7394 0010 10B5     		push	{r4, lr}
 7395              	.LCFI104:
 7396              		.cfi_def_cfa_offset 8
 7397              		.cfi_offset 4, -8
 7398              		.cfi_offset 14, -4
2338:SynaptiX_FDK/services/cJSON/cJSON.c ****     replacement->prev = item->prev;
 7399              		.loc 1 2338 5 is_stmt 1 view .LVU2193
2338:SynaptiX_FDK/services/cJSON/cJSON.c ****     replacement->prev = item->prev;
 7400              		.loc 1 2338 29 is_stmt 0 view .LVU2194
 7401 0012 0868     		ldr	r0, [r1]
2338:SynaptiX_FDK/services/cJSON/cJSON.c ****     replacement->prev = item->prev;
 7402              		.loc 1 2338 23 view .LVU2195
 7403 0014 1060     		str	r0, [r2]
2339:SynaptiX_FDK/services/cJSON/cJSON.c **** 
 7404              		.loc 1 2339 5 is_stmt 1 view .LVU2196
2339:SynaptiX_FDK/services/cJSON/cJSON.c **** 
 7405              		.loc 1 2339 23 is_stmt 0 view .LVU2197
 7406 0016 4C68     		ldr	r4, [r1, #4]
 7407 0018 5460     		str	r4, [r2, #4]
2341:SynaptiX_FDK/services/cJSON/cJSON.c ****     {
 7408              		.loc 1 2341 5 is_stmt 1 view .LVU2198
2341:SynaptiX_FDK/services/cJSON/cJSON.c ****     {
 7409              		.loc 1 2341 8 is_stmt 0 view .LVU2199
 7410 001a 00B1     		cbz	r0, .L621
2343:SynaptiX_FDK/services/cJSON/cJSON.c ****     }
 7411              		.loc 1 2343 9 is_stmt 1 view .LVU2200
2343:SynaptiX_FDK/services/cJSON/cJSON.c ****     }
 7412              		.loc 1 2343 33 is_stmt 0 view .LVU2201
 7413 001c 4260     		str	r2, [r0, #4]
 7414              	.L621:
2345:SynaptiX_FDK/services/cJSON/cJSON.c ****     {
 7415              		.loc 1 2345 5 is_stmt 1 view .LVU2202
2345:SynaptiX_FDK/services/cJSON/cJSON.c ****     {
 7416              		.loc 1 2345 15 is_stmt 0 view .LVU2203
 7417 001e 9868     		ldr	r0, [r3, #8]
2345:SynaptiX_FDK/services/cJSON/cJSON.c ****     {
 7418              		.loc 1 2345 8 view .LVU2204
 7419 0020 8842     		cmp	r0, r1
 7420 0022 0CD0     		beq	.L635
2358:SynaptiX_FDK/services/cJSON/cJSON.c ****         {
 7421              		.loc 1 2358 9 is_stmt 1 view .LVU2205
2358:SynaptiX_FDK/services/cJSON/cJSON.c ****         {
 7422              		.loc 1 2358 24 is_stmt 0 view .LVU2206
 7423 0024 5068     		ldr	r0, [r2, #4]
2358:SynaptiX_FDK/services/cJSON/cJSON.c ****         {
 7424              		.loc 1 2358 12 view .LVU2207
 7425 0026 00B1     		cbz	r0, .L625
2360:SynaptiX_FDK/services/cJSON/cJSON.c ****         }
 7426              		.loc 1 2360 13 is_stmt 1 view .LVU2208
2360:SynaptiX_FDK/services/cJSON/cJSON.c ****         }
 7427              		.loc 1 2360 37 is_stmt 0 view .LVU2209
 7428 0028 0260     		str	r2, [r0]
 7429              	.L625:
2362:SynaptiX_FDK/services/cJSON/cJSON.c ****         {
 7430              		.loc 1 2362 9 is_stmt 1 view .LVU2210
ARM GAS  C:\Users\DELL\AppData\Local\Temp\ccXjhdgA.s 			page 213


2362:SynaptiX_FDK/services/cJSON/cJSON.c ****         {
 7431              		.loc 1 2362 24 is_stmt 0 view .LVU2211
 7432 002a 1068     		ldr	r0, [r2]
2362:SynaptiX_FDK/services/cJSON/cJSON.c ****         {
 7433              		.loc 1 2362 12 view .LVU2212
 7434 002c 70B1     		cbz	r0, .L636
 7435              	.LVL685:
 7436              	.L624:
2368:SynaptiX_FDK/services/cJSON/cJSON.c ****     item->prev = NULL;
 7437              		.loc 1 2368 5 is_stmt 1 view .LVU2213
2368:SynaptiX_FDK/services/cJSON/cJSON.c ****     item->prev = NULL;
 7438              		.loc 1 2368 16 is_stmt 0 view .LVU2214
 7439 002e 0023     		movs	r3, #0
 7440 0030 0B60     		str	r3, [r1]
2369:SynaptiX_FDK/services/cJSON/cJSON.c ****     cJSON_Delete(item);
 7441              		.loc 1 2369 5 is_stmt 1 view .LVU2215
2369:SynaptiX_FDK/services/cJSON/cJSON.c ****     cJSON_Delete(item);
 7442              		.loc 1 2369 16 is_stmt 0 view .LVU2216
 7443 0032 4B60     		str	r3, [r1, #4]
2370:SynaptiX_FDK/services/cJSON/cJSON.c **** 
 7444              		.loc 1 2370 5 is_stmt 1 view .LVU2217
 7445 0034 0846     		mov	r0, r1
 7446 0036 FFF7FEFF 		bl	cJSON_Delete
 7447              	.LVL686:
2372:SynaptiX_FDK/services/cJSON/cJSON.c **** }
 7448              		.loc 1 2372 5 view .LVU2218
2372:SynaptiX_FDK/services/cJSON/cJSON.c **** }
 7449              		.loc 1 2372 12 is_stmt 0 view .LVU2219
 7450 003a 0120     		movs	r0, #1
2373:SynaptiX_FDK/services/cJSON/cJSON.c **** 
 7451              		.loc 1 2373 1 view .LVU2220
 7452 003c 10BD     		pop	{r4, pc}
 7453              	.LVL687:
 7454              	.L635:
2347:SynaptiX_FDK/services/cJSON/cJSON.c ****         {
 7455              		.loc 1 2347 9 is_stmt 1 view .LVU2221
2347:SynaptiX_FDK/services/cJSON/cJSON.c ****         {
 7456              		.loc 1 2347 12 is_stmt 0 view .LVU2222
 7457 003e 4468     		ldr	r4, [r0, #4]
 7458 0040 A042     		cmp	r0, r4
 7459 0042 01D0     		beq	.L637
 7460              	.L623:
2351:SynaptiX_FDK/services/cJSON/cJSON.c ****     }
 7461              		.loc 1 2351 9 is_stmt 1 view .LVU2223
2351:SynaptiX_FDK/services/cJSON/cJSON.c ****     }
 7462              		.loc 1 2351 23 is_stmt 0 view .LVU2224
 7463 0044 9A60     		str	r2, [r3, #8]
 7464 0046 F2E7     		b	.L624
 7465              	.L637:
2349:SynaptiX_FDK/services/cJSON/cJSON.c ****         }
 7466              		.loc 1 2349 13 is_stmt 1 view .LVU2225
2349:SynaptiX_FDK/services/cJSON/cJSON.c ****         }
 7467              		.loc 1 2349 31 is_stmt 0 view .LVU2226
 7468 0048 5260     		str	r2, [r2, #4]
 7469 004a FBE7     		b	.L623
 7470              	.L636:
2364:SynaptiX_FDK/services/cJSON/cJSON.c ****         }
ARM GAS  C:\Users\DELL\AppData\Local\Temp\ccXjhdgA.s 			page 214


 7471              		.loc 1 2364 13 is_stmt 1 view .LVU2227
2364:SynaptiX_FDK/services/cJSON/cJSON.c ****         }
 7472              		.loc 1 2364 19 is_stmt 0 view .LVU2228
 7473 004c 9B68     		ldr	r3, [r3, #8]
 7474              	.LVL688:
2364:SynaptiX_FDK/services/cJSON/cJSON.c ****         }
 7475              		.loc 1 2364 33 view .LVU2229
 7476 004e 5A60     		str	r2, [r3, #4]
 7477 0050 EDE7     		b	.L624
 7478              	.LVL689:
 7479              	.L626:
 7480              	.LCFI105:
 7481              		.cfi_def_cfa_offset 0
 7482              		.cfi_restore 4
 7483              		.cfi_restore 14
2330:SynaptiX_FDK/services/cJSON/cJSON.c ****     }
 7484              		.loc 1 2330 16 view .LVU2230
 7485 0052 0020     		movs	r0, #0
 7486              	.LVL690:
2330:SynaptiX_FDK/services/cJSON/cJSON.c ****     }
 7487              		.loc 1 2330 16 view .LVU2231
 7488 0054 7047     		bx	lr
 7489              	.LVL691:
 7490              	.L627:
2330:SynaptiX_FDK/services/cJSON/cJSON.c ****     }
 7491              		.loc 1 2330 16 view .LVU2232
 7492 0056 0020     		movs	r0, #0
 7493 0058 7047     		bx	lr
 7494              	.L628:
 7495 005a 0020     		movs	r0, #0
 7496 005c 7047     		bx	lr
 7497              	.L629:
 7498 005e 0020     		movs	r0, #0
 7499 0060 7047     		bx	lr
 7500              	.L630:
2335:SynaptiX_FDK/services/cJSON/cJSON.c ****     }
 7501              		.loc 1 2335 16 view .LVU2233
 7502 0062 0120     		movs	r0, #1
2373:SynaptiX_FDK/services/cJSON/cJSON.c **** 
 7503              		.loc 1 2373 1 view .LVU2234
 7504 0064 7047     		bx	lr
 7505              		.cfi_endproc
 7506              	.LFE77:
 7508              		.section	.text.cJSON_ReplaceItemInArray,"ax",%progbits
 7509              		.align	1
 7510              		.global	cJSON_ReplaceItemInArray
 7511              		.syntax unified
 7512              		.thumb
 7513              		.thumb_func
 7515              	cJSON_ReplaceItemInArray:
 7516              	.LVL692:
 7517              	.LFB78:
2376:SynaptiX_FDK/services/cJSON/cJSON.c ****     if (which < 0)
 7518              		.loc 1 2376 1 is_stmt 1 view -0
 7519              		.cfi_startproc
 7520              		@ args = 0, pretend = 0, frame = 0
 7521              		@ frame_needed = 0, uses_anonymous_args = 0
ARM GAS  C:\Users\DELL\AppData\Local\Temp\ccXjhdgA.s 			page 215


2377:SynaptiX_FDK/services/cJSON/cJSON.c ****     {
 7522              		.loc 1 2377 5 view .LVU2236
2377:SynaptiX_FDK/services/cJSON/cJSON.c ****     {
 7523              		.loc 1 2377 8 is_stmt 0 view .LVU2237
 7524 0000 0029     		cmp	r1, #0
2377:SynaptiX_FDK/services/cJSON/cJSON.c ****     {
 7525              		.loc 1 2377 8 view .LVU2238
 7526 0002 0ADB     		blt	.L640
2376:SynaptiX_FDK/services/cJSON/cJSON.c ****     if (which < 0)
 7527              		.loc 1 2376 1 view .LVU2239
 7528 0004 38B5     		push	{r3, r4, r5, lr}
 7529              	.LCFI106:
 7530              		.cfi_def_cfa_offset 16
 7531              		.cfi_offset 3, -16
 7532              		.cfi_offset 4, -12
 7533              		.cfi_offset 5, -8
 7534              		.cfi_offset 14, -4
 7535 0006 0446     		mov	r4, r0
 7536 0008 1546     		mov	r5, r2
2382:SynaptiX_FDK/services/cJSON/cJSON.c **** }
 7537              		.loc 1 2382 5 is_stmt 1 view .LVU2240
2382:SynaptiX_FDK/services/cJSON/cJSON.c **** }
 7538              		.loc 1 2382 47 is_stmt 0 view .LVU2241
 7539 000a FFF7FEFF 		bl	get_array_item
 7540              	.LVL693:
2382:SynaptiX_FDK/services/cJSON/cJSON.c **** }
 7541              		.loc 1 2382 47 view .LVU2242
 7542 000e 0146     		mov	r1, r0
2382:SynaptiX_FDK/services/cJSON/cJSON.c **** }
 7543              		.loc 1 2382 12 discriminator 1 view .LVU2243
 7544 0010 2A46     		mov	r2, r5
 7545 0012 2046     		mov	r0, r4
 7546 0014 FFF7FEFF 		bl	cJSON_ReplaceItemViaPointer
 7547              	.LVL694:
2383:SynaptiX_FDK/services/cJSON/cJSON.c **** 
 7548              		.loc 1 2383 1 view .LVU2244
 7549 0018 38BD     		pop	{r3, r4, r5, pc}
 7550              	.LVL695:
 7551              	.L640:
 7552              	.LCFI107:
 7553              		.cfi_def_cfa_offset 0
 7554              		.cfi_restore 3
 7555              		.cfi_restore 4
 7556              		.cfi_restore 5
 7557              		.cfi_restore 14
2379:SynaptiX_FDK/services/cJSON/cJSON.c ****     }
 7558              		.loc 1 2379 16 view .LVU2245
 7559 001a 0020     		movs	r0, #0
 7560              	.LVL696:
2383:SynaptiX_FDK/services/cJSON/cJSON.c **** 
 7561              		.loc 1 2383 1 view .LVU2246
 7562 001c 7047     		bx	lr
 7563              		.cfi_endproc
 7564              	.LFE78:
 7566              		.section	.text.cJSON_CreateNull,"ax",%progbits
 7567              		.align	1
 7568              		.global	cJSON_CreateNull
ARM GAS  C:\Users\DELL\AppData\Local\Temp\ccXjhdgA.s 			page 216


 7569              		.syntax unified
 7570              		.thumb
 7571              		.thumb_func
 7573              	cJSON_CreateNull:
 7574              	.LFB82:
2420:SynaptiX_FDK/services/cJSON/cJSON.c ****     cJSON *item = cJSON_New_Item(&global_hooks);
 7575              		.loc 1 2420 1 is_stmt 1 view -0
 7576              		.cfi_startproc
 7577              		@ args = 0, pretend = 0, frame = 0
 7578              		@ frame_needed = 0, uses_anonymous_args = 0
 7579 0000 08B5     		push	{r3, lr}
 7580              	.LCFI108:
 7581              		.cfi_def_cfa_offset 8
 7582              		.cfi_offset 3, -8
 7583              		.cfi_offset 14, -4
2421:SynaptiX_FDK/services/cJSON/cJSON.c ****     if(item)
 7584              		.loc 1 2421 5 view .LVU2248
2421:SynaptiX_FDK/services/cJSON/cJSON.c ****     if(item)
 7585              		.loc 1 2421 19 is_stmt 0 view .LVU2249
 7586 0002 0348     		ldr	r0, .L648
 7587 0004 FFF7FEFF 		bl	cJSON_New_Item
 7588              	.LVL697:
2422:SynaptiX_FDK/services/cJSON/cJSON.c ****     {
 7589              		.loc 1 2422 5 is_stmt 1 view .LVU2250
2422:SynaptiX_FDK/services/cJSON/cJSON.c ****     {
 7590              		.loc 1 2422 7 is_stmt 0 view .LVU2251
 7591 0008 08B1     		cbz	r0, .L645
2424:SynaptiX_FDK/services/cJSON/cJSON.c ****     }
 7592              		.loc 1 2424 9 is_stmt 1 view .LVU2252
2424:SynaptiX_FDK/services/cJSON/cJSON.c ****     }
 7593              		.loc 1 2424 20 is_stmt 0 view .LVU2253
 7594 000a 0423     		movs	r3, #4
 7595 000c C360     		str	r3, [r0, #12]
2427:SynaptiX_FDK/services/cJSON/cJSON.c **** }
 7596              		.loc 1 2427 5 is_stmt 1 view .LVU2254
 7597              	.L645:
2428:SynaptiX_FDK/services/cJSON/cJSON.c **** 
 7598              		.loc 1 2428 1 is_stmt 0 view .LVU2255
 7599 000e 08BD     		pop	{r3, pc}
 7600              	.L649:
 7601              		.align	2
 7602              	.L648:
 7603 0010 00000000 		.word	global_hooks
 7604              		.cfi_endproc
 7605              	.LFE82:
 7607              		.section	.text.cJSON_AddNullToObject,"ax",%progbits
 7608              		.align	1
 7609              		.global	cJSON_AddNullToObject
 7610              		.syntax unified
 7611              		.thumb
 7612              		.thumb_func
 7614              	cJSON_AddNullToObject:
 7615              	.LVL698:
 7616              	.LFB60:
2109:SynaptiX_FDK/services/cJSON/cJSON.c ****     cJSON *null = cJSON_CreateNull();
 7617              		.loc 1 2109 1 is_stmt 1 view -0
 7618              		.cfi_startproc
ARM GAS  C:\Users\DELL\AppData\Local\Temp\ccXjhdgA.s 			page 217


 7619              		@ args = 0, pretend = 0, frame = 0
 7620              		@ frame_needed = 0, uses_anonymous_args = 0
2109:SynaptiX_FDK/services/cJSON/cJSON.c ****     cJSON *null = cJSON_CreateNull();
 7621              		.loc 1 2109 1 is_stmt 0 view .LVU2257
 7622 0000 70B5     		push	{r4, r5, r6, lr}
 7623              	.LCFI109:
 7624              		.cfi_def_cfa_offset 16
 7625              		.cfi_offset 4, -16
 7626              		.cfi_offset 5, -12
 7627              		.cfi_offset 6, -8
 7628              		.cfi_offset 14, -4
 7629 0002 82B0     		sub	sp, sp, #8
 7630              	.LCFI110:
 7631              		.cfi_def_cfa_offset 24
 7632 0004 0546     		mov	r5, r0
 7633 0006 0E46     		mov	r6, r1
2110:SynaptiX_FDK/services/cJSON/cJSON.c ****     if (add_item_to_object(object, name, null, &global_hooks, false))
 7634              		.loc 1 2110 5 is_stmt 1 view .LVU2258
2110:SynaptiX_FDK/services/cJSON/cJSON.c ****     if (add_item_to_object(object, name, null, &global_hooks, false))
 7635              		.loc 1 2110 19 is_stmt 0 view .LVU2259
 7636 0008 FFF7FEFF 		bl	cJSON_CreateNull
 7637              	.LVL699:
2110:SynaptiX_FDK/services/cJSON/cJSON.c ****     if (add_item_to_object(object, name, null, &global_hooks, false))
 7638              		.loc 1 2110 19 view .LVU2260
 7639 000c 0446     		mov	r4, r0
 7640              	.LVL700:
2111:SynaptiX_FDK/services/cJSON/cJSON.c ****     {
 7641              		.loc 1 2111 5 is_stmt 1 view .LVU2261
2111:SynaptiX_FDK/services/cJSON/cJSON.c ****     {
 7642              		.loc 1 2111 9 is_stmt 0 view .LVU2262
 7643 000e 0023     		movs	r3, #0
 7644 0010 0093     		str	r3, [sp]
 7645 0012 074B     		ldr	r3, .L654
 7646 0014 0246     		mov	r2, r0
 7647 0016 3146     		mov	r1, r6
 7648 0018 2846     		mov	r0, r5
 7649              	.LVL701:
2111:SynaptiX_FDK/services/cJSON/cJSON.c ****     {
 7650              		.loc 1 2111 9 view .LVU2263
 7651 001a FFF7FEFF 		bl	add_item_to_object
 7652              	.LVL702:
2111:SynaptiX_FDK/services/cJSON/cJSON.c ****     {
 7653              		.loc 1 2111 8 discriminator 1 view .LVU2264
 7654 001e 10B1     		cbz	r0, .L653
 7655              	.LVL703:
 7656              	.L650:
2118:SynaptiX_FDK/services/cJSON/cJSON.c **** 
 7657              		.loc 1 2118 1 view .LVU2265
 7658 0020 2046     		mov	r0, r4
 7659 0022 02B0     		add	sp, sp, #8
 7660              	.LCFI111:
 7661              		.cfi_remember_state
 7662              		.cfi_def_cfa_offset 16
 7663              		@ sp needed
 7664 0024 70BD     		pop	{r4, r5, r6, pc}
 7665              	.LVL704:
 7666              	.L653:
ARM GAS  C:\Users\DELL\AppData\Local\Temp\ccXjhdgA.s 			page 218


 7667              	.LCFI112:
 7668              		.cfi_restore_state
2116:SynaptiX_FDK/services/cJSON/cJSON.c ****     return NULL;
 7669              		.loc 1 2116 5 is_stmt 1 view .LVU2266
 7670 0026 2046     		mov	r0, r4
 7671 0028 FFF7FEFF 		bl	cJSON_Delete
 7672              	.LVL705:
2117:SynaptiX_FDK/services/cJSON/cJSON.c **** }
 7673              		.loc 1 2117 5 view .LVU2267
2117:SynaptiX_FDK/services/cJSON/cJSON.c **** }
 7674              		.loc 1 2117 12 is_stmt 0 view .LVU2268
 7675 002c 0024     		movs	r4, #0
 7676              	.LVL706:
2117:SynaptiX_FDK/services/cJSON/cJSON.c **** }
 7677              		.loc 1 2117 12 view .LVU2269
 7678 002e F7E7     		b	.L650
 7679              	.L655:
 7680              		.align	2
 7681              	.L654:
 7682 0030 00000000 		.word	global_hooks
 7683              		.cfi_endproc
 7684              	.LFE60:
 7686              		.section	.text.cJSON_CreateTrue,"ax",%progbits
 7687              		.align	1
 7688              		.global	cJSON_CreateTrue
 7689              		.syntax unified
 7690              		.thumb
 7691              		.thumb_func
 7693              	cJSON_CreateTrue:
 7694              	.LFB83:
2431:SynaptiX_FDK/services/cJSON/cJSON.c ****     cJSON *item = cJSON_New_Item(&global_hooks);
 7695              		.loc 1 2431 1 is_stmt 1 view -0
 7696              		.cfi_startproc
 7697              		@ args = 0, pretend = 0, frame = 0
 7698              		@ frame_needed = 0, uses_anonymous_args = 0
 7699 0000 08B5     		push	{r3, lr}
 7700              	.LCFI113:
 7701              		.cfi_def_cfa_offset 8
 7702              		.cfi_offset 3, -8
 7703              		.cfi_offset 14, -4
2432:SynaptiX_FDK/services/cJSON/cJSON.c ****     if(item)
 7704              		.loc 1 2432 5 view .LVU2271
2432:SynaptiX_FDK/services/cJSON/cJSON.c ****     if(item)
 7705              		.loc 1 2432 19 is_stmt 0 view .LVU2272
 7706 0002 0348     		ldr	r0, .L659
 7707 0004 FFF7FEFF 		bl	cJSON_New_Item
 7708              	.LVL707:
2433:SynaptiX_FDK/services/cJSON/cJSON.c ****     {
 7709              		.loc 1 2433 5 is_stmt 1 view .LVU2273
2433:SynaptiX_FDK/services/cJSON/cJSON.c ****     {
 7710              		.loc 1 2433 7 is_stmt 0 view .LVU2274
 7711 0008 08B1     		cbz	r0, .L656
2435:SynaptiX_FDK/services/cJSON/cJSON.c ****     }
 7712              		.loc 1 2435 9 is_stmt 1 view .LVU2275
2435:SynaptiX_FDK/services/cJSON/cJSON.c ****     }
 7713              		.loc 1 2435 20 is_stmt 0 view .LVU2276
 7714 000a 0223     		movs	r3, #2
ARM GAS  C:\Users\DELL\AppData\Local\Temp\ccXjhdgA.s 			page 219


 7715 000c C360     		str	r3, [r0, #12]
2438:SynaptiX_FDK/services/cJSON/cJSON.c **** }
 7716              		.loc 1 2438 5 is_stmt 1 view .LVU2277
 7717              	.L656:
2439:SynaptiX_FDK/services/cJSON/cJSON.c **** 
 7718              		.loc 1 2439 1 is_stmt 0 view .LVU2278
 7719 000e 08BD     		pop	{r3, pc}
 7720              	.L660:
 7721              		.align	2
 7722              	.L659:
 7723 0010 00000000 		.word	global_hooks
 7724              		.cfi_endproc
 7725              	.LFE83:
 7727              		.section	.text.cJSON_AddTrueToObject,"ax",%progbits
 7728              		.align	1
 7729              		.global	cJSON_AddTrueToObject
 7730              		.syntax unified
 7731              		.thumb
 7732              		.thumb_func
 7734              	cJSON_AddTrueToObject:
 7735              	.LVL708:
 7736              	.LFB61:
2121:SynaptiX_FDK/services/cJSON/cJSON.c ****     cJSON *true_item = cJSON_CreateTrue();
 7737              		.loc 1 2121 1 is_stmt 1 view -0
 7738              		.cfi_startproc
 7739              		@ args = 0, pretend = 0, frame = 0
 7740              		@ frame_needed = 0, uses_anonymous_args = 0
2121:SynaptiX_FDK/services/cJSON/cJSON.c ****     cJSON *true_item = cJSON_CreateTrue();
 7741              		.loc 1 2121 1 is_stmt 0 view .LVU2280
 7742 0000 70B5     		push	{r4, r5, r6, lr}
 7743              	.LCFI114:
 7744              		.cfi_def_cfa_offset 16
 7745              		.cfi_offset 4, -16
 7746              		.cfi_offset 5, -12
 7747              		.cfi_offset 6, -8
 7748              		.cfi_offset 14, -4
 7749 0002 82B0     		sub	sp, sp, #8
 7750              	.LCFI115:
 7751              		.cfi_def_cfa_offset 24
 7752 0004 0546     		mov	r5, r0
 7753 0006 0E46     		mov	r6, r1
2122:SynaptiX_FDK/services/cJSON/cJSON.c ****     if (add_item_to_object(object, name, true_item, &global_hooks, false))
 7754              		.loc 1 2122 5 is_stmt 1 view .LVU2281
2122:SynaptiX_FDK/services/cJSON/cJSON.c ****     if (add_item_to_object(object, name, true_item, &global_hooks, false))
 7755              		.loc 1 2122 24 is_stmt 0 view .LVU2282
 7756 0008 FFF7FEFF 		bl	cJSON_CreateTrue
 7757              	.LVL709:
2122:SynaptiX_FDK/services/cJSON/cJSON.c ****     if (add_item_to_object(object, name, true_item, &global_hooks, false))
 7758              		.loc 1 2122 24 view .LVU2283
 7759 000c 0446     		mov	r4, r0
 7760              	.LVL710:
2123:SynaptiX_FDK/services/cJSON/cJSON.c ****     {
 7761              		.loc 1 2123 5 is_stmt 1 view .LVU2284
2123:SynaptiX_FDK/services/cJSON/cJSON.c ****     {
 7762              		.loc 1 2123 9 is_stmt 0 view .LVU2285
 7763 000e 0023     		movs	r3, #0
 7764 0010 0093     		str	r3, [sp]
ARM GAS  C:\Users\DELL\AppData\Local\Temp\ccXjhdgA.s 			page 220


 7765 0012 074B     		ldr	r3, .L665
 7766 0014 0246     		mov	r2, r0
 7767 0016 3146     		mov	r1, r6
 7768 0018 2846     		mov	r0, r5
 7769              	.LVL711:
2123:SynaptiX_FDK/services/cJSON/cJSON.c ****     {
 7770              		.loc 1 2123 9 view .LVU2286
 7771 001a FFF7FEFF 		bl	add_item_to_object
 7772              	.LVL712:
2123:SynaptiX_FDK/services/cJSON/cJSON.c ****     {
 7773              		.loc 1 2123 8 discriminator 1 view .LVU2287
 7774 001e 10B1     		cbz	r0, .L664
 7775              	.LVL713:
 7776              	.L661:
2130:SynaptiX_FDK/services/cJSON/cJSON.c **** 
 7777              		.loc 1 2130 1 view .LVU2288
 7778 0020 2046     		mov	r0, r4
 7779 0022 02B0     		add	sp, sp, #8
 7780              	.LCFI116:
 7781              		.cfi_remember_state
 7782              		.cfi_def_cfa_offset 16
 7783              		@ sp needed
 7784 0024 70BD     		pop	{r4, r5, r6, pc}
 7785              	.LVL714:
 7786              	.L664:
 7787              	.LCFI117:
 7788              		.cfi_restore_state
2128:SynaptiX_FDK/services/cJSON/cJSON.c ****     return NULL;
 7789              		.loc 1 2128 5 is_stmt 1 view .LVU2289
 7790 0026 2046     		mov	r0, r4
 7791 0028 FFF7FEFF 		bl	cJSON_Delete
 7792              	.LVL715:
2129:SynaptiX_FDK/services/cJSON/cJSON.c **** }
 7793              		.loc 1 2129 5 view .LVU2290
2129:SynaptiX_FDK/services/cJSON/cJSON.c **** }
 7794              		.loc 1 2129 12 is_stmt 0 view .LVU2291
 7795 002c 0024     		movs	r4, #0
 7796              	.LVL716:
2129:SynaptiX_FDK/services/cJSON/cJSON.c **** }
 7797              		.loc 1 2129 12 view .LVU2292
 7798 002e F7E7     		b	.L661
 7799              	.L666:
 7800              		.align	2
 7801              	.L665:
 7802 0030 00000000 		.word	global_hooks
 7803              		.cfi_endproc
 7804              	.LFE61:
 7806              		.section	.text.cJSON_CreateFalse,"ax",%progbits
 7807              		.align	1
 7808              		.global	cJSON_CreateFalse
 7809              		.syntax unified
 7810              		.thumb
 7811              		.thumb_func
 7813              	cJSON_CreateFalse:
 7814              	.LFB84:
2442:SynaptiX_FDK/services/cJSON/cJSON.c ****     cJSON *item = cJSON_New_Item(&global_hooks);
 7815              		.loc 1 2442 1 is_stmt 1 view -0
ARM GAS  C:\Users\DELL\AppData\Local\Temp\ccXjhdgA.s 			page 221


 7816              		.cfi_startproc
 7817              		@ args = 0, pretend = 0, frame = 0
 7818              		@ frame_needed = 0, uses_anonymous_args = 0
 7819 0000 08B5     		push	{r3, lr}
 7820              	.LCFI118:
 7821              		.cfi_def_cfa_offset 8
 7822              		.cfi_offset 3, -8
 7823              		.cfi_offset 14, -4
2443:SynaptiX_FDK/services/cJSON/cJSON.c ****     if(item)
 7824              		.loc 1 2443 5 view .LVU2294
2443:SynaptiX_FDK/services/cJSON/cJSON.c ****     if(item)
 7825              		.loc 1 2443 19 is_stmt 0 view .LVU2295
 7826 0002 0348     		ldr	r0, .L670
 7827 0004 FFF7FEFF 		bl	cJSON_New_Item
 7828              	.LVL717:
2444:SynaptiX_FDK/services/cJSON/cJSON.c ****     {
 7829              		.loc 1 2444 5 is_stmt 1 view .LVU2296
2444:SynaptiX_FDK/services/cJSON/cJSON.c ****     {
 7830              		.loc 1 2444 7 is_stmt 0 view .LVU2297
 7831 0008 08B1     		cbz	r0, .L667
2446:SynaptiX_FDK/services/cJSON/cJSON.c ****     }
 7832              		.loc 1 2446 9 is_stmt 1 view .LVU2298
2446:SynaptiX_FDK/services/cJSON/cJSON.c ****     }
 7833              		.loc 1 2446 20 is_stmt 0 view .LVU2299
 7834 000a 0123     		movs	r3, #1
 7835 000c C360     		str	r3, [r0, #12]
2449:SynaptiX_FDK/services/cJSON/cJSON.c **** }
 7836              		.loc 1 2449 5 is_stmt 1 view .LVU2300
 7837              	.L667:
2450:SynaptiX_FDK/services/cJSON/cJSON.c **** 
 7838              		.loc 1 2450 1 is_stmt 0 view .LVU2301
 7839 000e 08BD     		pop	{r3, pc}
 7840              	.L671:
 7841              		.align	2
 7842              	.L670:
 7843 0010 00000000 		.word	global_hooks
 7844              		.cfi_endproc
 7845              	.LFE84:
 7847              		.section	.text.cJSON_AddFalseToObject,"ax",%progbits
 7848              		.align	1
 7849              		.global	cJSON_AddFalseToObject
 7850              		.syntax unified
 7851              		.thumb
 7852              		.thumb_func
 7854              	cJSON_AddFalseToObject:
 7855              	.LVL718:
 7856              	.LFB62:
2133:SynaptiX_FDK/services/cJSON/cJSON.c ****     cJSON *false_item = cJSON_CreateFalse();
 7857              		.loc 1 2133 1 is_stmt 1 view -0
 7858              		.cfi_startproc
 7859              		@ args = 0, pretend = 0, frame = 0
 7860              		@ frame_needed = 0, uses_anonymous_args = 0
2133:SynaptiX_FDK/services/cJSON/cJSON.c ****     cJSON *false_item = cJSON_CreateFalse();
 7861              		.loc 1 2133 1 is_stmt 0 view .LVU2303
 7862 0000 70B5     		push	{r4, r5, r6, lr}
 7863              	.LCFI119:
 7864              		.cfi_def_cfa_offset 16
ARM GAS  C:\Users\DELL\AppData\Local\Temp\ccXjhdgA.s 			page 222


 7865              		.cfi_offset 4, -16
 7866              		.cfi_offset 5, -12
 7867              		.cfi_offset 6, -8
 7868              		.cfi_offset 14, -4
 7869 0002 82B0     		sub	sp, sp, #8
 7870              	.LCFI120:
 7871              		.cfi_def_cfa_offset 24
 7872 0004 0546     		mov	r5, r0
 7873 0006 0E46     		mov	r6, r1
2134:SynaptiX_FDK/services/cJSON/cJSON.c ****     if (add_item_to_object(object, name, false_item, &global_hooks, false))
 7874              		.loc 1 2134 5 is_stmt 1 view .LVU2304
2134:SynaptiX_FDK/services/cJSON/cJSON.c ****     if (add_item_to_object(object, name, false_item, &global_hooks, false))
 7875              		.loc 1 2134 25 is_stmt 0 view .LVU2305
 7876 0008 FFF7FEFF 		bl	cJSON_CreateFalse
 7877              	.LVL719:
2134:SynaptiX_FDK/services/cJSON/cJSON.c ****     if (add_item_to_object(object, name, false_item, &global_hooks, false))
 7878              		.loc 1 2134 25 view .LVU2306
 7879 000c 0446     		mov	r4, r0
 7880              	.LVL720:
2135:SynaptiX_FDK/services/cJSON/cJSON.c ****     {
 7881              		.loc 1 2135 5 is_stmt 1 view .LVU2307
2135:SynaptiX_FDK/services/cJSON/cJSON.c ****     {
 7882              		.loc 1 2135 9 is_stmt 0 view .LVU2308
 7883 000e 0023     		movs	r3, #0
 7884 0010 0093     		str	r3, [sp]
 7885 0012 074B     		ldr	r3, .L676
 7886 0014 0246     		mov	r2, r0
 7887 0016 3146     		mov	r1, r6
 7888 0018 2846     		mov	r0, r5
 7889              	.LVL721:
2135:SynaptiX_FDK/services/cJSON/cJSON.c ****     {
 7890              		.loc 1 2135 9 view .LVU2309
 7891 001a FFF7FEFF 		bl	add_item_to_object
 7892              	.LVL722:
2135:SynaptiX_FDK/services/cJSON/cJSON.c ****     {
 7893              		.loc 1 2135 8 discriminator 1 view .LVU2310
 7894 001e 10B1     		cbz	r0, .L675
 7895              	.LVL723:
 7896              	.L672:
2142:SynaptiX_FDK/services/cJSON/cJSON.c **** 
 7897              		.loc 1 2142 1 view .LVU2311
 7898 0020 2046     		mov	r0, r4
 7899 0022 02B0     		add	sp, sp, #8
 7900              	.LCFI121:
 7901              		.cfi_remember_state
 7902              		.cfi_def_cfa_offset 16
 7903              		@ sp needed
 7904 0024 70BD     		pop	{r4, r5, r6, pc}
 7905              	.LVL724:
 7906              	.L675:
 7907              	.LCFI122:
 7908              		.cfi_restore_state
2140:SynaptiX_FDK/services/cJSON/cJSON.c ****     return NULL;
 7909              		.loc 1 2140 5 is_stmt 1 view .LVU2312
 7910 0026 2046     		mov	r0, r4
 7911 0028 FFF7FEFF 		bl	cJSON_Delete
 7912              	.LVL725:
ARM GAS  C:\Users\DELL\AppData\Local\Temp\ccXjhdgA.s 			page 223


2141:SynaptiX_FDK/services/cJSON/cJSON.c **** }
 7913              		.loc 1 2141 5 view .LVU2313
2141:SynaptiX_FDK/services/cJSON/cJSON.c **** }
 7914              		.loc 1 2141 12 is_stmt 0 view .LVU2314
 7915 002c 0024     		movs	r4, #0
 7916              	.LVL726:
2141:SynaptiX_FDK/services/cJSON/cJSON.c **** }
 7917              		.loc 1 2141 12 view .LVU2315
 7918 002e F7E7     		b	.L672
 7919              	.L677:
 7920              		.align	2
 7921              	.L676:
 7922 0030 00000000 		.word	global_hooks
 7923              		.cfi_endproc
 7924              	.LFE62:
 7926              		.section	.text.cJSON_CreateBool,"ax",%progbits
 7927              		.align	1
 7928              		.global	cJSON_CreateBool
 7929              		.syntax unified
 7930              		.thumb
 7931              		.thumb_func
 7933              	cJSON_CreateBool:
 7934              	.LVL727:
 7935              	.LFB85:
2453:SynaptiX_FDK/services/cJSON/cJSON.c ****     cJSON *item = cJSON_New_Item(&global_hooks);
 7936              		.loc 1 2453 1 is_stmt 1 view -0
 7937              		.cfi_startproc
 7938              		@ args = 0, pretend = 0, frame = 0
 7939              		@ frame_needed = 0, uses_anonymous_args = 0
2453:SynaptiX_FDK/services/cJSON/cJSON.c ****     cJSON *item = cJSON_New_Item(&global_hooks);
 7940              		.loc 1 2453 1 is_stmt 0 view .LVU2317
 7941 0000 10B5     		push	{r4, lr}
 7942              	.LCFI123:
 7943              		.cfi_def_cfa_offset 8
 7944              		.cfi_offset 4, -8
 7945              		.cfi_offset 14, -4
 7946 0002 0446     		mov	r4, r0
2454:SynaptiX_FDK/services/cJSON/cJSON.c ****     if(item)
 7947              		.loc 1 2454 5 is_stmt 1 view .LVU2318
2454:SynaptiX_FDK/services/cJSON/cJSON.c ****     if(item)
 7948              		.loc 1 2454 19 is_stmt 0 view .LVU2319
 7949 0004 0448     		ldr	r0, .L683
 7950              	.LVL728:
2454:SynaptiX_FDK/services/cJSON/cJSON.c ****     if(item)
 7951              		.loc 1 2454 19 view .LVU2320
 7952 0006 FFF7FEFF 		bl	cJSON_New_Item
 7953              	.LVL729:
2455:SynaptiX_FDK/services/cJSON/cJSON.c ****     {
 7954              		.loc 1 2455 5 is_stmt 1 view .LVU2321
2455:SynaptiX_FDK/services/cJSON/cJSON.c ****     {
 7955              		.loc 1 2455 7 is_stmt 0 view .LVU2322
 7956 000a 10B1     		cbz	r0, .L678
2457:SynaptiX_FDK/services/cJSON/cJSON.c ****     }
 7957              		.loc 1 2457 9 is_stmt 1 view .LVU2323
2457:SynaptiX_FDK/services/cJSON/cJSON.c ****     }
 7958              		.loc 1 2457 43 is_stmt 0 view .LVU2324
 7959 000c 14B1     		cbz	r4, .L681
ARM GAS  C:\Users\DELL\AppData\Local\Temp\ccXjhdgA.s 			page 224


2457:SynaptiX_FDK/services/cJSON/cJSON.c ****     }
 7960              		.loc 1 2457 43 discriminator 1 view .LVU2325
 7961 000e 0223     		movs	r3, #2
 7962              	.L680:
2457:SynaptiX_FDK/services/cJSON/cJSON.c ****     }
 7963              		.loc 1 2457 20 discriminator 4 view .LVU2326
 7964 0010 C360     		str	r3, [r0, #12]
2460:SynaptiX_FDK/services/cJSON/cJSON.c **** }
 7965              		.loc 1 2460 5 is_stmt 1 view .LVU2327
 7966              	.L678:
2461:SynaptiX_FDK/services/cJSON/cJSON.c **** 
 7967              		.loc 1 2461 1 is_stmt 0 view .LVU2328
 7968 0012 10BD     		pop	{r4, pc}
 7969              	.LVL730:
 7970              	.L681:
2457:SynaptiX_FDK/services/cJSON/cJSON.c ****     }
 7971              		.loc 1 2457 43 discriminator 2 view .LVU2329
 7972 0014 0123     		movs	r3, #1
 7973 0016 FBE7     		b	.L680
 7974              	.L684:
 7975              		.align	2
 7976              	.L683:
 7977 0018 00000000 		.word	global_hooks
 7978              		.cfi_endproc
 7979              	.LFE85:
 7981              		.section	.text.cJSON_AddBoolToObject,"ax",%progbits
 7982              		.align	1
 7983              		.global	cJSON_AddBoolToObject
 7984              		.syntax unified
 7985              		.thumb
 7986              		.thumb_func
 7988              	cJSON_AddBoolToObject:
 7989              	.LVL731:
 7990              	.LFB63:
2145:SynaptiX_FDK/services/cJSON/cJSON.c ****     cJSON *bool_item = cJSON_CreateBool(boolean);
 7991              		.loc 1 2145 1 is_stmt 1 view -0
 7992              		.cfi_startproc
 7993              		@ args = 0, pretend = 0, frame = 0
 7994              		@ frame_needed = 0, uses_anonymous_args = 0
2145:SynaptiX_FDK/services/cJSON/cJSON.c ****     cJSON *bool_item = cJSON_CreateBool(boolean);
 7995              		.loc 1 2145 1 is_stmt 0 view .LVU2331
 7996 0000 70B5     		push	{r4, r5, r6, lr}
 7997              	.LCFI124:
 7998              		.cfi_def_cfa_offset 16
 7999              		.cfi_offset 4, -16
 8000              		.cfi_offset 5, -12
 8001              		.cfi_offset 6, -8
 8002              		.cfi_offset 14, -4
 8003 0002 82B0     		sub	sp, sp, #8
 8004              	.LCFI125:
 8005              		.cfi_def_cfa_offset 24
 8006 0004 0546     		mov	r5, r0
 8007 0006 0E46     		mov	r6, r1
2146:SynaptiX_FDK/services/cJSON/cJSON.c ****     if (add_item_to_object(object, name, bool_item, &global_hooks, false))
 8008              		.loc 1 2146 5 is_stmt 1 view .LVU2332
2146:SynaptiX_FDK/services/cJSON/cJSON.c ****     if (add_item_to_object(object, name, bool_item, &global_hooks, false))
 8009              		.loc 1 2146 24 is_stmt 0 view .LVU2333
ARM GAS  C:\Users\DELL\AppData\Local\Temp\ccXjhdgA.s 			page 225


 8010 0008 1046     		mov	r0, r2
 8011              	.LVL732:
2146:SynaptiX_FDK/services/cJSON/cJSON.c ****     if (add_item_to_object(object, name, bool_item, &global_hooks, false))
 8012              		.loc 1 2146 24 view .LVU2334
 8013 000a FFF7FEFF 		bl	cJSON_CreateBool
 8014              	.LVL733:
2146:SynaptiX_FDK/services/cJSON/cJSON.c ****     if (add_item_to_object(object, name, bool_item, &global_hooks, false))
 8015              		.loc 1 2146 24 view .LVU2335
 8016 000e 0446     		mov	r4, r0
 8017              	.LVL734:
2147:SynaptiX_FDK/services/cJSON/cJSON.c ****     {
 8018              		.loc 1 2147 5 is_stmt 1 view .LVU2336
2147:SynaptiX_FDK/services/cJSON/cJSON.c ****     {
 8019              		.loc 1 2147 9 is_stmt 0 view .LVU2337
 8020 0010 0023     		movs	r3, #0
 8021 0012 0093     		str	r3, [sp]
 8022 0014 074B     		ldr	r3, .L689
 8023 0016 0246     		mov	r2, r0
 8024 0018 3146     		mov	r1, r6
 8025 001a 2846     		mov	r0, r5
 8026              	.LVL735:
2147:SynaptiX_FDK/services/cJSON/cJSON.c ****     {
 8027              		.loc 1 2147 9 view .LVU2338
 8028 001c FFF7FEFF 		bl	add_item_to_object
 8029              	.LVL736:
2147:SynaptiX_FDK/services/cJSON/cJSON.c ****     {
 8030              		.loc 1 2147 8 discriminator 1 view .LVU2339
 8031 0020 10B1     		cbz	r0, .L688
 8032              	.LVL737:
 8033              	.L685:
2154:SynaptiX_FDK/services/cJSON/cJSON.c **** 
 8034              		.loc 1 2154 1 view .LVU2340
 8035 0022 2046     		mov	r0, r4
 8036 0024 02B0     		add	sp, sp, #8
 8037              	.LCFI126:
 8038              		.cfi_remember_state
 8039              		.cfi_def_cfa_offset 16
 8040              		@ sp needed
 8041 0026 70BD     		pop	{r4, r5, r6, pc}
 8042              	.LVL738:
 8043              	.L688:
 8044              	.LCFI127:
 8045              		.cfi_restore_state
2152:SynaptiX_FDK/services/cJSON/cJSON.c ****     return NULL;
 8046              		.loc 1 2152 5 is_stmt 1 view .LVU2341
 8047 0028 2046     		mov	r0, r4
 8048 002a FFF7FEFF 		bl	cJSON_Delete
 8049              	.LVL739:
2153:SynaptiX_FDK/services/cJSON/cJSON.c **** }
 8050              		.loc 1 2153 5 view .LVU2342
2153:SynaptiX_FDK/services/cJSON/cJSON.c **** }
 8051              		.loc 1 2153 12 is_stmt 0 view .LVU2343
 8052 002e 0024     		movs	r4, #0
 8053              	.LVL740:
2153:SynaptiX_FDK/services/cJSON/cJSON.c **** }
 8054              		.loc 1 2153 12 view .LVU2344
 8055 0030 F7E7     		b	.L685
ARM GAS  C:\Users\DELL\AppData\Local\Temp\ccXjhdgA.s 			page 226


 8056              	.L690:
 8057 0032 00BF     		.align	2
 8058              	.L689:
 8059 0034 00000000 		.word	global_hooks
 8060              		.cfi_endproc
 8061              	.LFE63:
 8063              		.section	.text.cJSON_CreateNumber,"ax",%progbits
 8064              		.align	1
 8065              		.global	cJSON_CreateNumber
 8066              		.syntax unified
 8067              		.thumb
 8068              		.thumb_func
 8070              	cJSON_CreateNumber:
 8071              	.LVL741:
 8072              	.LFB86:
2464:SynaptiX_FDK/services/cJSON/cJSON.c ****     cJSON *item = cJSON_New_Item(&global_hooks);
 8073              		.loc 1 2464 1 is_stmt 1 view -0
 8074              		.cfi_startproc
 8075              		@ args = 0, pretend = 0, frame = 0
 8076              		@ frame_needed = 0, uses_anonymous_args = 0
2464:SynaptiX_FDK/services/cJSON/cJSON.c ****     cJSON *item = cJSON_New_Item(&global_hooks);
 8077              		.loc 1 2464 1 is_stmt 0 view .LVU2346
 8078 0000 70B5     		push	{r4, r5, r6, lr}
 8079              	.LCFI128:
 8080              		.cfi_def_cfa_offset 16
 8081              		.cfi_offset 4, -16
 8082              		.cfi_offset 5, -12
 8083              		.cfi_offset 6, -8
 8084              		.cfi_offset 14, -4
 8085 0002 55EC104B 		vmov	r4, r5, d0
2465:SynaptiX_FDK/services/cJSON/cJSON.c ****     if(item)
 8086              		.loc 1 2465 5 is_stmt 1 view .LVU2347
2465:SynaptiX_FDK/services/cJSON/cJSON.c ****     if(item)
 8087              		.loc 1 2465 19 is_stmt 0 view .LVU2348
 8088 0006 1648     		ldr	r0, .L702+8
 8089 0008 FFF7FEFF 		bl	cJSON_New_Item
 8090              	.LVL742:
2466:SynaptiX_FDK/services/cJSON/cJSON.c ****     {
 8091              		.loc 1 2466 5 is_stmt 1 view .LVU2349
2466:SynaptiX_FDK/services/cJSON/cJSON.c ****     {
 8092              		.loc 1 2466 7 is_stmt 0 view .LVU2350
 8093 000c 0646     		mov	r6, r0
 8094 000e 70B1     		cbz	r0, .L691
2468:SynaptiX_FDK/services/cJSON/cJSON.c ****         item->valuedouble = num;
 8095              		.loc 1 2468 9 is_stmt 1 view .LVU2351
2468:SynaptiX_FDK/services/cJSON/cJSON.c ****         item->valuedouble = num;
 8096              		.loc 1 2468 20 is_stmt 0 view .LVU2352
 8097 0010 0823     		movs	r3, #8
 8098 0012 C360     		str	r3, [r0, #12]
2469:SynaptiX_FDK/services/cJSON/cJSON.c **** 
 8099              		.loc 1 2469 9 is_stmt 1 view .LVU2353
2469:SynaptiX_FDK/services/cJSON/cJSON.c **** 
 8100              		.loc 1 2469 27 is_stmt 0 view .LVU2354
 8101 0014 C0E90645 		strd	r4, [r0, #24]
2472:SynaptiX_FDK/services/cJSON/cJSON.c ****         {
 8102              		.loc 1 2472 9 is_stmt 1 view .LVU2355
2472:SynaptiX_FDK/services/cJSON/cJSON.c ****         {
ARM GAS  C:\Users\DELL\AppData\Local\Temp\ccXjhdgA.s 			page 227


 8103              		.loc 1 2472 12 is_stmt 0 view .LVU2356
 8104 0018 0FA3     		adr	r3, .L702
 8105 001a D3E90023 		ldrd	r2, [r3]
 8106 001e 2046     		mov	r0, r4
 8107              	.LVL743:
2472:SynaptiX_FDK/services/cJSON/cJSON.c ****         {
 8108              		.loc 1 2472 12 view .LVU2357
 8109 0020 2946     		mov	r1, r5
 8110 0022 FFF7FEFF 		bl	__aeabi_dcmpge
 8111              	.LVL744:
 8112 0026 20B1     		cbz	r0, .L699
2474:SynaptiX_FDK/services/cJSON/cJSON.c ****         }
 8113              		.loc 1 2474 13 is_stmt 1 view .LVU2358
2474:SynaptiX_FDK/services/cJSON/cJSON.c ****         }
 8114              		.loc 1 2474 28 is_stmt 0 view .LVU2359
 8115 0028 6FF00043 		mvn	r3, #-2147483648
 8116 002c 7361     		str	r3, [r6, #20]
 8117              	.L691:
2487:SynaptiX_FDK/services/cJSON/cJSON.c **** 
 8118              		.loc 1 2487 1 view .LVU2360
 8119 002e 3046     		mov	r0, r6
 8120 0030 70BD     		pop	{r4, r5, r6, pc}
 8121              	.LVL745:
 8122              	.L699:
2476:SynaptiX_FDK/services/cJSON/cJSON.c ****         {
 8123              		.loc 1 2476 14 is_stmt 1 view .LVU2361
2476:SynaptiX_FDK/services/cJSON/cJSON.c ****         {
 8124              		.loc 1 2476 17 is_stmt 0 view .LVU2362
 8125 0032 0022     		movs	r2, #0
 8126 0034 0B4B     		ldr	r3, .L702+12
 8127 0036 2046     		mov	r0, r4
 8128 0038 2946     		mov	r1, r5
 8129 003a FFF7FEFF 		bl	__aeabi_dcmple
 8130              	.LVL746:
 8131 003e 18B1     		cbz	r0, .L700
2478:SynaptiX_FDK/services/cJSON/cJSON.c ****         }
 8132              		.loc 1 2478 13 is_stmt 1 view .LVU2363
2478:SynaptiX_FDK/services/cJSON/cJSON.c ****         }
 8133              		.loc 1 2478 28 is_stmt 0 view .LVU2364
 8134 0040 4FF00043 		mov	r3, #-2147483648
 8135 0044 7361     		str	r3, [r6, #20]
 8136 0046 F2E7     		b	.L691
 8137              	.L700:
2482:SynaptiX_FDK/services/cJSON/cJSON.c ****         }
 8138              		.loc 1 2482 13 is_stmt 1 view .LVU2365
2482:SynaptiX_FDK/services/cJSON/cJSON.c ****         }
 8139              		.loc 1 2482 30 is_stmt 0 view .LVU2366
 8140 0048 2046     		mov	r0, r4
 8141 004a 2946     		mov	r1, r5
 8142 004c FFF7FEFF 		bl	__aeabi_d2iz
 8143              	.LVL747:
2482:SynaptiX_FDK/services/cJSON/cJSON.c ****         }
 8144              		.loc 1 2482 28 view .LVU2367
 8145 0050 7061     		str	r0, [r6, #20]
2486:SynaptiX_FDK/services/cJSON/cJSON.c **** }
 8146              		.loc 1 2486 5 is_stmt 1 view .LVU2368
2486:SynaptiX_FDK/services/cJSON/cJSON.c **** }
ARM GAS  C:\Users\DELL\AppData\Local\Temp\ccXjhdgA.s 			page 228


 8147              		.loc 1 2486 12 is_stmt 0 view .LVU2369
 8148 0052 ECE7     		b	.L691
 8149              	.L703:
 8150 0054 AFF30080 		.align	3
 8151              	.L702:
 8152 0058 0000C0FF 		.word	-4194304
 8153 005c FFFFDF41 		.word	1105199103
 8154 0060 00000000 		.word	global_hooks
 8155 0064 0000E0C1 		.word	-1042284544
 8156              		.cfi_endproc
 8157              	.LFE86:
 8159              		.section	.text.cJSON_AddNumberToObject,"ax",%progbits
 8160              		.align	1
 8161              		.global	cJSON_AddNumberToObject
 8162              		.syntax unified
 8163              		.thumb
 8164              		.thumb_func
 8166              	cJSON_AddNumberToObject:
 8167              	.LVL748:
 8168              	.LFB64:
2157:SynaptiX_FDK/services/cJSON/cJSON.c ****     cJSON *number_item = cJSON_CreateNumber(number);
 8169              		.loc 1 2157 1 is_stmt 1 view -0
 8170              		.cfi_startproc
 8171              		@ args = 0, pretend = 0, frame = 0
 8172              		@ frame_needed = 0, uses_anonymous_args = 0
2157:SynaptiX_FDK/services/cJSON/cJSON.c ****     cJSON *number_item = cJSON_CreateNumber(number);
 8173              		.loc 1 2157 1 is_stmt 0 view .LVU2371
 8174 0000 70B5     		push	{r4, r5, r6, lr}
 8175              	.LCFI129:
 8176              		.cfi_def_cfa_offset 16
 8177              		.cfi_offset 4, -16
 8178              		.cfi_offset 5, -12
 8179              		.cfi_offset 6, -8
 8180              		.cfi_offset 14, -4
 8181 0002 82B0     		sub	sp, sp, #8
 8182              	.LCFI130:
 8183              		.cfi_def_cfa_offset 24
 8184 0004 0546     		mov	r5, r0
 8185 0006 0E46     		mov	r6, r1
2158:SynaptiX_FDK/services/cJSON/cJSON.c ****     if (add_item_to_object(object, name, number_item, &global_hooks, false))
 8186              		.loc 1 2158 5 is_stmt 1 view .LVU2372
2158:SynaptiX_FDK/services/cJSON/cJSON.c ****     if (add_item_to_object(object, name, number_item, &global_hooks, false))
 8187              		.loc 1 2158 26 is_stmt 0 view .LVU2373
 8188 0008 FFF7FEFF 		bl	cJSON_CreateNumber
 8189              	.LVL749:
2158:SynaptiX_FDK/services/cJSON/cJSON.c ****     if (add_item_to_object(object, name, number_item, &global_hooks, false))
 8190              		.loc 1 2158 26 view .LVU2374
 8191 000c 0446     		mov	r4, r0
 8192              	.LVL750:
2159:SynaptiX_FDK/services/cJSON/cJSON.c ****     {
 8193              		.loc 1 2159 5 is_stmt 1 view .LVU2375
2159:SynaptiX_FDK/services/cJSON/cJSON.c ****     {
 8194              		.loc 1 2159 9 is_stmt 0 view .LVU2376
 8195 000e 0023     		movs	r3, #0
 8196 0010 0093     		str	r3, [sp]
 8197 0012 074B     		ldr	r3, .L708
 8198 0014 0246     		mov	r2, r0
ARM GAS  C:\Users\DELL\AppData\Local\Temp\ccXjhdgA.s 			page 229


 8199 0016 3146     		mov	r1, r6
 8200 0018 2846     		mov	r0, r5
 8201              	.LVL751:
2159:SynaptiX_FDK/services/cJSON/cJSON.c ****     {
 8202              		.loc 1 2159 9 view .LVU2377
 8203 001a FFF7FEFF 		bl	add_item_to_object
 8204              	.LVL752:
2159:SynaptiX_FDK/services/cJSON/cJSON.c ****     {
 8205              		.loc 1 2159 8 discriminator 1 view .LVU2378
 8206 001e 10B1     		cbz	r0, .L707
 8207              	.LVL753:
 8208              	.L704:
2166:SynaptiX_FDK/services/cJSON/cJSON.c **** 
 8209              		.loc 1 2166 1 view .LVU2379
 8210 0020 2046     		mov	r0, r4
 8211 0022 02B0     		add	sp, sp, #8
 8212              	.LCFI131:
 8213              		.cfi_remember_state
 8214              		.cfi_def_cfa_offset 16
 8215              		@ sp needed
 8216 0024 70BD     		pop	{r4, r5, r6, pc}
 8217              	.LVL754:
 8218              	.L707:
 8219              	.LCFI132:
 8220              		.cfi_restore_state
2164:SynaptiX_FDK/services/cJSON/cJSON.c ****     return NULL;
 8221              		.loc 1 2164 5 is_stmt 1 view .LVU2380
 8222 0026 2046     		mov	r0, r4
 8223 0028 FFF7FEFF 		bl	cJSON_Delete
 8224              	.LVL755:
2165:SynaptiX_FDK/services/cJSON/cJSON.c **** }
 8225              		.loc 1 2165 5 view .LVU2381
2165:SynaptiX_FDK/services/cJSON/cJSON.c **** }
 8226              		.loc 1 2165 12 is_stmt 0 view .LVU2382
 8227 002c 0024     		movs	r4, #0
 8228              	.LVL756:
2165:SynaptiX_FDK/services/cJSON/cJSON.c **** }
 8229              		.loc 1 2165 12 view .LVU2383
 8230 002e F7E7     		b	.L704
 8231              	.L709:
 8232              		.align	2
 8233              	.L708:
 8234 0030 00000000 		.word	global_hooks
 8235              		.cfi_endproc
 8236              	.LFE64:
 8238              		.section	.text.cJSON_CreateString,"ax",%progbits
 8239              		.align	1
 8240              		.global	cJSON_CreateString
 8241              		.syntax unified
 8242              		.thumb
 8243              		.thumb_func
 8245              	cJSON_CreateString:
 8246              	.LVL757:
 8247              	.LFB87:
2490:SynaptiX_FDK/services/cJSON/cJSON.c ****     cJSON *item = cJSON_New_Item(&global_hooks);
 8248              		.loc 1 2490 1 is_stmt 1 view -0
 8249              		.cfi_startproc
ARM GAS  C:\Users\DELL\AppData\Local\Temp\ccXjhdgA.s 			page 230


 8250              		@ args = 0, pretend = 0, frame = 0
 8251              		@ frame_needed = 0, uses_anonymous_args = 0
2490:SynaptiX_FDK/services/cJSON/cJSON.c ****     cJSON *item = cJSON_New_Item(&global_hooks);
 8252              		.loc 1 2490 1 is_stmt 0 view .LVU2385
 8253 0000 38B5     		push	{r3, r4, r5, lr}
 8254              	.LCFI133:
 8255              		.cfi_def_cfa_offset 16
 8256              		.cfi_offset 3, -16
 8257              		.cfi_offset 4, -12
 8258              		.cfi_offset 5, -8
 8259              		.cfi_offset 14, -4
 8260 0002 0446     		mov	r4, r0
2491:SynaptiX_FDK/services/cJSON/cJSON.c ****     if(item)
 8261              		.loc 1 2491 5 is_stmt 1 view .LVU2386
2491:SynaptiX_FDK/services/cJSON/cJSON.c ****     if(item)
 8262              		.loc 1 2491 19 is_stmt 0 view .LVU2387
 8263 0004 0A48     		ldr	r0, .L714
 8264              	.LVL758:
2491:SynaptiX_FDK/services/cJSON/cJSON.c ****     if(item)
 8265              		.loc 1 2491 19 view .LVU2388
 8266 0006 FFF7FEFF 		bl	cJSON_New_Item
 8267              	.LVL759:
2492:SynaptiX_FDK/services/cJSON/cJSON.c ****     {
 8268              		.loc 1 2492 5 is_stmt 1 view .LVU2389
2492:SynaptiX_FDK/services/cJSON/cJSON.c ****     {
 8269              		.loc 1 2492 7 is_stmt 0 view .LVU2390
 8270 000a 0546     		mov	r5, r0
 8271 000c 40B1     		cbz	r0, .L710
2494:SynaptiX_FDK/services/cJSON/cJSON.c ****         item->valuestring = (char*)cJSON_strdup((const unsigned char*)string, &global_hooks);
 8272              		.loc 1 2494 9 is_stmt 1 view .LVU2391
2494:SynaptiX_FDK/services/cJSON/cJSON.c ****         item->valuestring = (char*)cJSON_strdup((const unsigned char*)string, &global_hooks);
 8273              		.loc 1 2494 20 is_stmt 0 view .LVU2392
 8274 000e 1023     		movs	r3, #16
 8275 0010 C360     		str	r3, [r0, #12]
2495:SynaptiX_FDK/services/cJSON/cJSON.c ****         if(!item->valuestring)
 8276              		.loc 1 2495 9 is_stmt 1 view .LVU2393
2495:SynaptiX_FDK/services/cJSON/cJSON.c ****         if(!item->valuestring)
 8277              		.loc 1 2495 36 is_stmt 0 view .LVU2394
 8278 0012 0749     		ldr	r1, .L714
 8279 0014 2046     		mov	r0, r4
 8280              	.LVL760:
2495:SynaptiX_FDK/services/cJSON/cJSON.c ****         if(!item->valuestring)
 8281              		.loc 1 2495 36 view .LVU2395
 8282 0016 FFF7FEFF 		bl	cJSON_strdup
 8283              	.LVL761:
 8284 001a 0446     		mov	r4, r0
 8285              	.LVL762:
2495:SynaptiX_FDK/services/cJSON/cJSON.c ****         if(!item->valuestring)
 8286              		.loc 1 2495 27 discriminator 1 view .LVU2396
 8287 001c 2861     		str	r0, [r5, #16]
2496:SynaptiX_FDK/services/cJSON/cJSON.c ****         {
 8288              		.loc 1 2496 9 is_stmt 1 view .LVU2397
2496:SynaptiX_FDK/services/cJSON/cJSON.c ****         {
 8289              		.loc 1 2496 11 is_stmt 0 view .LVU2398
 8290 001e 08B1     		cbz	r0, .L713
 8291              	.LVL763:
 8292              	.L710:
ARM GAS  C:\Users\DELL\AppData\Local\Temp\ccXjhdgA.s 			page 231


2504:SynaptiX_FDK/services/cJSON/cJSON.c **** 
 8293              		.loc 1 2504 1 view .LVU2399
 8294 0020 2846     		mov	r0, r5
 8295 0022 38BD     		pop	{r3, r4, r5, pc}
 8296              	.LVL764:
 8297              	.L713:
2498:SynaptiX_FDK/services/cJSON/cJSON.c ****             return NULL;
 8298              		.loc 1 2498 13 is_stmt 1 view .LVU2400
 8299 0024 2846     		mov	r0, r5
 8300 0026 FFF7FEFF 		bl	cJSON_Delete
 8301              	.LVL765:
2499:SynaptiX_FDK/services/cJSON/cJSON.c ****         }
 8302              		.loc 1 2499 13 view .LVU2401
2499:SynaptiX_FDK/services/cJSON/cJSON.c ****         }
 8303              		.loc 1 2499 20 is_stmt 0 view .LVU2402
 8304 002a 2546     		mov	r5, r4
 8305              	.LVL766:
2499:SynaptiX_FDK/services/cJSON/cJSON.c ****         }
 8306              		.loc 1 2499 20 view .LVU2403
 8307 002c F8E7     		b	.L710
 8308              	.L715:
 8309 002e 00BF     		.align	2
 8310              	.L714:
 8311 0030 00000000 		.word	global_hooks
 8312              		.cfi_endproc
 8313              	.LFE87:
 8315              		.section	.text.cJSON_AddStringToObject,"ax",%progbits
 8316              		.align	1
 8317              		.global	cJSON_AddStringToObject
 8318              		.syntax unified
 8319              		.thumb
 8320              		.thumb_func
 8322              	cJSON_AddStringToObject:
 8323              	.LVL767:
 8324              	.LFB65:
2169:SynaptiX_FDK/services/cJSON/cJSON.c ****     cJSON *string_item = cJSON_CreateString(string);
 8325              		.loc 1 2169 1 is_stmt 1 view -0
 8326              		.cfi_startproc
 8327              		@ args = 0, pretend = 0, frame = 0
 8328              		@ frame_needed = 0, uses_anonymous_args = 0
2169:SynaptiX_FDK/services/cJSON/cJSON.c ****     cJSON *string_item = cJSON_CreateString(string);
 8329              		.loc 1 2169 1 is_stmt 0 view .LVU2405
 8330 0000 70B5     		push	{r4, r5, r6, lr}
 8331              	.LCFI134:
 8332              		.cfi_def_cfa_offset 16
 8333              		.cfi_offset 4, -16
 8334              		.cfi_offset 5, -12
 8335              		.cfi_offset 6, -8
 8336              		.cfi_offset 14, -4
 8337 0002 82B0     		sub	sp, sp, #8
 8338              	.LCFI135:
 8339              		.cfi_def_cfa_offset 24
 8340 0004 0546     		mov	r5, r0
 8341 0006 0E46     		mov	r6, r1
2170:SynaptiX_FDK/services/cJSON/cJSON.c ****     if (add_item_to_object(object, name, string_item, &global_hooks, false))
 8342              		.loc 1 2170 5 is_stmt 1 view .LVU2406
2170:SynaptiX_FDK/services/cJSON/cJSON.c ****     if (add_item_to_object(object, name, string_item, &global_hooks, false))
ARM GAS  C:\Users\DELL\AppData\Local\Temp\ccXjhdgA.s 			page 232


 8343              		.loc 1 2170 26 is_stmt 0 view .LVU2407
 8344 0008 1046     		mov	r0, r2
 8345              	.LVL768:
2170:SynaptiX_FDK/services/cJSON/cJSON.c ****     if (add_item_to_object(object, name, string_item, &global_hooks, false))
 8346              		.loc 1 2170 26 view .LVU2408
 8347 000a FFF7FEFF 		bl	cJSON_CreateString
 8348              	.LVL769:
2170:SynaptiX_FDK/services/cJSON/cJSON.c ****     if (add_item_to_object(object, name, string_item, &global_hooks, false))
 8349              		.loc 1 2170 26 view .LVU2409
 8350 000e 0446     		mov	r4, r0
 8351              	.LVL770:
2171:SynaptiX_FDK/services/cJSON/cJSON.c ****     {
 8352              		.loc 1 2171 5 is_stmt 1 view .LVU2410
2171:SynaptiX_FDK/services/cJSON/cJSON.c ****     {
 8353              		.loc 1 2171 9 is_stmt 0 view .LVU2411
 8354 0010 0023     		movs	r3, #0
 8355 0012 0093     		str	r3, [sp]
 8356 0014 074B     		ldr	r3, .L720
 8357 0016 0246     		mov	r2, r0
 8358 0018 3146     		mov	r1, r6
 8359 001a 2846     		mov	r0, r5
 8360              	.LVL771:
2171:SynaptiX_FDK/services/cJSON/cJSON.c ****     {
 8361              		.loc 1 2171 9 view .LVU2412
 8362 001c FFF7FEFF 		bl	add_item_to_object
 8363              	.LVL772:
2171:SynaptiX_FDK/services/cJSON/cJSON.c ****     {
 8364              		.loc 1 2171 8 discriminator 1 view .LVU2413
 8365 0020 10B1     		cbz	r0, .L719
 8366              	.LVL773:
 8367              	.L716:
2178:SynaptiX_FDK/services/cJSON/cJSON.c **** 
 8368              		.loc 1 2178 1 view .LVU2414
 8369 0022 2046     		mov	r0, r4
 8370 0024 02B0     		add	sp, sp, #8
 8371              	.LCFI136:
 8372              		.cfi_remember_state
 8373              		.cfi_def_cfa_offset 16
 8374              		@ sp needed
 8375 0026 70BD     		pop	{r4, r5, r6, pc}
 8376              	.LVL774:
 8377              	.L719:
 8378              	.LCFI137:
 8379              		.cfi_restore_state
2176:SynaptiX_FDK/services/cJSON/cJSON.c ****     return NULL;
 8380              		.loc 1 2176 5 is_stmt 1 view .LVU2415
 8381 0028 2046     		mov	r0, r4
 8382 002a FFF7FEFF 		bl	cJSON_Delete
 8383              	.LVL775:
2177:SynaptiX_FDK/services/cJSON/cJSON.c **** }
 8384              		.loc 1 2177 5 view .LVU2416
2177:SynaptiX_FDK/services/cJSON/cJSON.c **** }
 8385              		.loc 1 2177 12 is_stmt 0 view .LVU2417
 8386 002e 0024     		movs	r4, #0
 8387              	.LVL776:
2177:SynaptiX_FDK/services/cJSON/cJSON.c **** }
 8388              		.loc 1 2177 12 view .LVU2418
ARM GAS  C:\Users\DELL\AppData\Local\Temp\ccXjhdgA.s 			page 233


 8389 0030 F7E7     		b	.L716
 8390              	.L721:
 8391 0032 00BF     		.align	2
 8392              	.L720:
 8393 0034 00000000 		.word	global_hooks
 8394              		.cfi_endproc
 8395              	.LFE65:
 8397              		.section	.text.cJSON_CreateStringReference,"ax",%progbits
 8398              		.align	1
 8399              		.global	cJSON_CreateStringReference
 8400              		.syntax unified
 8401              		.thumb
 8402              		.thumb_func
 8404              	cJSON_CreateStringReference:
 8405              	.LVL777:
 8406              	.LFB88:
2507:SynaptiX_FDK/services/cJSON/cJSON.c ****     cJSON *item = cJSON_New_Item(&global_hooks);
 8407              		.loc 1 2507 1 is_stmt 1 view -0
 8408              		.cfi_startproc
 8409              		@ args = 0, pretend = 0, frame = 0
 8410              		@ frame_needed = 0, uses_anonymous_args = 0
2507:SynaptiX_FDK/services/cJSON/cJSON.c ****     cJSON *item = cJSON_New_Item(&global_hooks);
 8411              		.loc 1 2507 1 is_stmt 0 view .LVU2420
 8412 0000 38B5     		push	{r3, r4, r5, lr}
 8413              	.LCFI138:
 8414              		.cfi_def_cfa_offset 16
 8415              		.cfi_offset 3, -16
 8416              		.cfi_offset 4, -12
 8417              		.cfi_offset 5, -8
 8418              		.cfi_offset 14, -4
 8419 0002 0446     		mov	r4, r0
2508:SynaptiX_FDK/services/cJSON/cJSON.c ****     if (item != NULL)
 8420              		.loc 1 2508 5 is_stmt 1 view .LVU2421
2508:SynaptiX_FDK/services/cJSON/cJSON.c ****     if (item != NULL)
 8421              		.loc 1 2508 19 is_stmt 0 view .LVU2422
 8422 0004 0648     		ldr	r0, .L725
 8423              	.LVL778:
2508:SynaptiX_FDK/services/cJSON/cJSON.c ****     if (item != NULL)
 8424              		.loc 1 2508 19 view .LVU2423
 8425 0006 FFF7FEFF 		bl	cJSON_New_Item
 8426              	.LVL779:
2509:SynaptiX_FDK/services/cJSON/cJSON.c ****     {
 8427              		.loc 1 2509 5 is_stmt 1 view .LVU2424
2509:SynaptiX_FDK/services/cJSON/cJSON.c ****     {
 8428              		.loc 1 2509 8 is_stmt 0 view .LVU2425
 8429 000a 0546     		mov	r5, r0
 8430 000c 30B1     		cbz	r0, .L722
2511:SynaptiX_FDK/services/cJSON/cJSON.c ****         item->valuestring = (char*)cast_away_const(string);
 8431              		.loc 1 2511 9 is_stmt 1 view .LVU2426
2511:SynaptiX_FDK/services/cJSON/cJSON.c ****         item->valuestring = (char*)cast_away_const(string);
 8432              		.loc 1 2511 20 is_stmt 0 view .LVU2427
 8433 000e 4FF48873 		mov	r3, #272
 8434 0012 C360     		str	r3, [r0, #12]
2512:SynaptiX_FDK/services/cJSON/cJSON.c ****     }
 8435              		.loc 1 2512 9 is_stmt 1 view .LVU2428
2512:SynaptiX_FDK/services/cJSON/cJSON.c ****     }
 8436              		.loc 1 2512 36 is_stmt 0 view .LVU2429
ARM GAS  C:\Users\DELL\AppData\Local\Temp\ccXjhdgA.s 			page 234


 8437 0014 2046     		mov	r0, r4
 8438              	.LVL780:
2512:SynaptiX_FDK/services/cJSON/cJSON.c ****     }
 8439              		.loc 1 2512 36 view .LVU2430
 8440 0016 FFF7FEFF 		bl	cast_away_const
 8441              	.LVL781:
2512:SynaptiX_FDK/services/cJSON/cJSON.c ****     }
 8442              		.loc 1 2512 27 discriminator 1 view .LVU2431
 8443 001a 2861     		str	r0, [r5, #16]
2515:SynaptiX_FDK/services/cJSON/cJSON.c **** }
 8444              		.loc 1 2515 5 is_stmt 1 view .LVU2432
 8445              	.L722:
2516:SynaptiX_FDK/services/cJSON/cJSON.c **** 
 8446              		.loc 1 2516 1 is_stmt 0 view .LVU2433
 8447 001c 2846     		mov	r0, r5
 8448 001e 38BD     		pop	{r3, r4, r5, pc}
 8449              	.LVL782:
 8450              	.L726:
2516:SynaptiX_FDK/services/cJSON/cJSON.c **** 
 8451              		.loc 1 2516 1 view .LVU2434
 8452              		.align	2
 8453              	.L725:
 8454 0020 00000000 		.word	global_hooks
 8455              		.cfi_endproc
 8456              	.LFE88:
 8458              		.section	.text.cJSON_CreateObjectReference,"ax",%progbits
 8459              		.align	1
 8460              		.global	cJSON_CreateObjectReference
 8461              		.syntax unified
 8462              		.thumb
 8463              		.thumb_func
 8465              	cJSON_CreateObjectReference:
 8466              	.LVL783:
 8467              	.LFB89:
2519:SynaptiX_FDK/services/cJSON/cJSON.c ****     cJSON *item = cJSON_New_Item(&global_hooks);
 8468              		.loc 1 2519 1 is_stmt 1 view -0
 8469              		.cfi_startproc
 8470              		@ args = 0, pretend = 0, frame = 0
 8471              		@ frame_needed = 0, uses_anonymous_args = 0
2519:SynaptiX_FDK/services/cJSON/cJSON.c ****     cJSON *item = cJSON_New_Item(&global_hooks);
 8472              		.loc 1 2519 1 is_stmt 0 view .LVU2436
 8473 0000 38B5     		push	{r3, r4, r5, lr}
 8474              	.LCFI139:
 8475              		.cfi_def_cfa_offset 16
 8476              		.cfi_offset 3, -16
 8477              		.cfi_offset 4, -12
 8478              		.cfi_offset 5, -8
 8479              		.cfi_offset 14, -4
 8480 0002 0446     		mov	r4, r0
2520:SynaptiX_FDK/services/cJSON/cJSON.c ****     if (item != NULL) {
 8481              		.loc 1 2520 5 is_stmt 1 view .LVU2437
2520:SynaptiX_FDK/services/cJSON/cJSON.c ****     if (item != NULL) {
 8482              		.loc 1 2520 19 is_stmt 0 view .LVU2438
 8483 0004 0648     		ldr	r0, .L730
 8484              	.LVL784:
2520:SynaptiX_FDK/services/cJSON/cJSON.c ****     if (item != NULL) {
 8485              		.loc 1 2520 19 view .LVU2439
ARM GAS  C:\Users\DELL\AppData\Local\Temp\ccXjhdgA.s 			page 235


 8486 0006 FFF7FEFF 		bl	cJSON_New_Item
 8487              	.LVL785:
2521:SynaptiX_FDK/services/cJSON/cJSON.c ****         item->type = cJSON_Object | cJSON_IsReference;
 8488              		.loc 1 2521 5 is_stmt 1 view .LVU2440
2521:SynaptiX_FDK/services/cJSON/cJSON.c ****         item->type = cJSON_Object | cJSON_IsReference;
 8489              		.loc 1 2521 8 is_stmt 0 view .LVU2441
 8490 000a 0546     		mov	r5, r0
 8491 000c 30B1     		cbz	r0, .L727
2522:SynaptiX_FDK/services/cJSON/cJSON.c ****         item->child = (cJSON*)cast_away_const(child);
 8492              		.loc 1 2522 9 is_stmt 1 view .LVU2442
2522:SynaptiX_FDK/services/cJSON/cJSON.c ****         item->child = (cJSON*)cast_away_const(child);
 8493              		.loc 1 2522 20 is_stmt 0 view .LVU2443
 8494 000e 4FF4A073 		mov	r3, #320
 8495 0012 C360     		str	r3, [r0, #12]
2523:SynaptiX_FDK/services/cJSON/cJSON.c ****     }
 8496              		.loc 1 2523 9 is_stmt 1 view .LVU2444
2523:SynaptiX_FDK/services/cJSON/cJSON.c ****     }
 8497              		.loc 1 2523 31 is_stmt 0 view .LVU2445
 8498 0014 2046     		mov	r0, r4
 8499              	.LVL786:
2523:SynaptiX_FDK/services/cJSON/cJSON.c ****     }
 8500              		.loc 1 2523 31 view .LVU2446
 8501 0016 FFF7FEFF 		bl	cast_away_const
 8502              	.LVL787:
2523:SynaptiX_FDK/services/cJSON/cJSON.c ****     }
 8503              		.loc 1 2523 21 discriminator 1 view .LVU2447
 8504 001a A860     		str	r0, [r5, #8]
2526:SynaptiX_FDK/services/cJSON/cJSON.c **** }
 8505              		.loc 1 2526 5 is_stmt 1 view .LVU2448
 8506              	.L727:
2527:SynaptiX_FDK/services/cJSON/cJSON.c **** 
 8507              		.loc 1 2527 1 is_stmt 0 view .LVU2449
 8508 001c 2846     		mov	r0, r5
 8509 001e 38BD     		pop	{r3, r4, r5, pc}
 8510              	.LVL788:
 8511              	.L731:
2527:SynaptiX_FDK/services/cJSON/cJSON.c **** 
 8512              		.loc 1 2527 1 view .LVU2450
 8513              		.align	2
 8514              	.L730:
 8515 0020 00000000 		.word	global_hooks
 8516              		.cfi_endproc
 8517              	.LFE89:
 8519              		.section	.text.cJSON_CreateArrayReference,"ax",%progbits
 8520              		.align	1
 8521              		.global	cJSON_CreateArrayReference
 8522              		.syntax unified
 8523              		.thumb
 8524              		.thumb_func
 8526              	cJSON_CreateArrayReference:
 8527              	.LVL789:
 8528              	.LFB90:
2529:SynaptiX_FDK/services/cJSON/cJSON.c ****     cJSON *item = cJSON_New_Item(&global_hooks);
 8529              		.loc 1 2529 70 is_stmt 1 view -0
 8530              		.cfi_startproc
 8531              		@ args = 0, pretend = 0, frame = 0
 8532              		@ frame_needed = 0, uses_anonymous_args = 0
ARM GAS  C:\Users\DELL\AppData\Local\Temp\ccXjhdgA.s 			page 236


2529:SynaptiX_FDK/services/cJSON/cJSON.c ****     cJSON *item = cJSON_New_Item(&global_hooks);
 8533              		.loc 1 2529 70 is_stmt 0 view .LVU2452
 8534 0000 38B5     		push	{r3, r4, r5, lr}
 8535              	.LCFI140:
 8536              		.cfi_def_cfa_offset 16
 8537              		.cfi_offset 3, -16
 8538              		.cfi_offset 4, -12
 8539              		.cfi_offset 5, -8
 8540              		.cfi_offset 14, -4
 8541 0002 0446     		mov	r4, r0
2530:SynaptiX_FDK/services/cJSON/cJSON.c ****     if (item != NULL) {
 8542              		.loc 1 2530 5 is_stmt 1 view .LVU2453
2530:SynaptiX_FDK/services/cJSON/cJSON.c ****     if (item != NULL) {
 8543              		.loc 1 2530 19 is_stmt 0 view .LVU2454
 8544 0004 0648     		ldr	r0, .L735
 8545              	.LVL790:
2530:SynaptiX_FDK/services/cJSON/cJSON.c ****     if (item != NULL) {
 8546              		.loc 1 2530 19 view .LVU2455
 8547 0006 FFF7FEFF 		bl	cJSON_New_Item
 8548              	.LVL791:
2531:SynaptiX_FDK/services/cJSON/cJSON.c ****         item->type = cJSON_Array | cJSON_IsReference;
 8549              		.loc 1 2531 5 is_stmt 1 view .LVU2456
2531:SynaptiX_FDK/services/cJSON/cJSON.c ****         item->type = cJSON_Array | cJSON_IsReference;
 8550              		.loc 1 2531 8 is_stmt 0 view .LVU2457
 8551 000a 0546     		mov	r5, r0
 8552 000c 30B1     		cbz	r0, .L732
2532:SynaptiX_FDK/services/cJSON/cJSON.c ****         item->child = (cJSON*)cast_away_const(child);
 8553              		.loc 1 2532 9 is_stmt 1 view .LVU2458
2532:SynaptiX_FDK/services/cJSON/cJSON.c ****         item->child = (cJSON*)cast_away_const(child);
 8554              		.loc 1 2532 20 is_stmt 0 view .LVU2459
 8555 000e 4FF49073 		mov	r3, #288
 8556 0012 C360     		str	r3, [r0, #12]
2533:SynaptiX_FDK/services/cJSON/cJSON.c ****     }
 8557              		.loc 1 2533 9 is_stmt 1 view .LVU2460
2533:SynaptiX_FDK/services/cJSON/cJSON.c ****     }
 8558              		.loc 1 2533 31 is_stmt 0 view .LVU2461
 8559 0014 2046     		mov	r0, r4
 8560              	.LVL792:
2533:SynaptiX_FDK/services/cJSON/cJSON.c ****     }
 8561              		.loc 1 2533 31 view .LVU2462
 8562 0016 FFF7FEFF 		bl	cast_away_const
 8563              	.LVL793:
2533:SynaptiX_FDK/services/cJSON/cJSON.c ****     }
 8564              		.loc 1 2533 21 discriminator 1 view .LVU2463
 8565 001a A860     		str	r0, [r5, #8]
2536:SynaptiX_FDK/services/cJSON/cJSON.c **** }
 8566              		.loc 1 2536 5 is_stmt 1 view .LVU2464
 8567              	.L732:
2537:SynaptiX_FDK/services/cJSON/cJSON.c **** 
 8568              		.loc 1 2537 1 is_stmt 0 view .LVU2465
 8569 001c 2846     		mov	r0, r5
 8570 001e 38BD     		pop	{r3, r4, r5, pc}
 8571              	.LVL794:
 8572              	.L736:
2537:SynaptiX_FDK/services/cJSON/cJSON.c **** 
 8573              		.loc 1 2537 1 view .LVU2466
 8574              		.align	2
ARM GAS  C:\Users\DELL\AppData\Local\Temp\ccXjhdgA.s 			page 237


 8575              	.L735:
 8576 0020 00000000 		.word	global_hooks
 8577              		.cfi_endproc
 8578              	.LFE90:
 8580              		.section	.text.cJSON_CreateRaw,"ax",%progbits
 8581              		.align	1
 8582              		.global	cJSON_CreateRaw
 8583              		.syntax unified
 8584              		.thumb
 8585              		.thumb_func
 8587              	cJSON_CreateRaw:
 8588              	.LVL795:
 8589              	.LFB91:
2540:SynaptiX_FDK/services/cJSON/cJSON.c ****     cJSON *item = cJSON_New_Item(&global_hooks);
 8590              		.loc 1 2540 1 is_stmt 1 view -0
 8591              		.cfi_startproc
 8592              		@ args = 0, pretend = 0, frame = 0
 8593              		@ frame_needed = 0, uses_anonymous_args = 0
2540:SynaptiX_FDK/services/cJSON/cJSON.c ****     cJSON *item = cJSON_New_Item(&global_hooks);
 8594              		.loc 1 2540 1 is_stmt 0 view .LVU2468
 8595 0000 38B5     		push	{r3, r4, r5, lr}
 8596              	.LCFI141:
 8597              		.cfi_def_cfa_offset 16
 8598              		.cfi_offset 3, -16
 8599              		.cfi_offset 4, -12
 8600              		.cfi_offset 5, -8
 8601              		.cfi_offset 14, -4
 8602 0002 0446     		mov	r4, r0
2541:SynaptiX_FDK/services/cJSON/cJSON.c ****     if(item)
 8603              		.loc 1 2541 5 is_stmt 1 view .LVU2469
2541:SynaptiX_FDK/services/cJSON/cJSON.c ****     if(item)
 8604              		.loc 1 2541 19 is_stmt 0 view .LVU2470
 8605 0004 0A48     		ldr	r0, .L741
 8606              	.LVL796:
2541:SynaptiX_FDK/services/cJSON/cJSON.c ****     if(item)
 8607              		.loc 1 2541 19 view .LVU2471
 8608 0006 FFF7FEFF 		bl	cJSON_New_Item
 8609              	.LVL797:
2542:SynaptiX_FDK/services/cJSON/cJSON.c ****     {
 8610              		.loc 1 2542 5 is_stmt 1 view .LVU2472
2542:SynaptiX_FDK/services/cJSON/cJSON.c ****     {
 8611              		.loc 1 2542 7 is_stmt 0 view .LVU2473
 8612 000a 0546     		mov	r5, r0
 8613 000c 40B1     		cbz	r0, .L737
2544:SynaptiX_FDK/services/cJSON/cJSON.c ****         item->valuestring = (char*)cJSON_strdup((const unsigned char*)raw, &global_hooks);
 8614              		.loc 1 2544 9 is_stmt 1 view .LVU2474
2544:SynaptiX_FDK/services/cJSON/cJSON.c ****         item->valuestring = (char*)cJSON_strdup((const unsigned char*)raw, &global_hooks);
 8615              		.loc 1 2544 20 is_stmt 0 view .LVU2475
 8616 000e 8023     		movs	r3, #128
 8617 0010 C360     		str	r3, [r0, #12]
2545:SynaptiX_FDK/services/cJSON/cJSON.c ****         if(!item->valuestring)
 8618              		.loc 1 2545 9 is_stmt 1 view .LVU2476
2545:SynaptiX_FDK/services/cJSON/cJSON.c ****         if(!item->valuestring)
 8619              		.loc 1 2545 36 is_stmt 0 view .LVU2477
 8620 0012 0749     		ldr	r1, .L741
 8621 0014 2046     		mov	r0, r4
 8622              	.LVL798:
ARM GAS  C:\Users\DELL\AppData\Local\Temp\ccXjhdgA.s 			page 238


2545:SynaptiX_FDK/services/cJSON/cJSON.c ****         if(!item->valuestring)
 8623              		.loc 1 2545 36 view .LVU2478
 8624 0016 FFF7FEFF 		bl	cJSON_strdup
 8625              	.LVL799:
 8626 001a 0446     		mov	r4, r0
 8627              	.LVL800:
2545:SynaptiX_FDK/services/cJSON/cJSON.c ****         if(!item->valuestring)
 8628              		.loc 1 2545 27 discriminator 1 view .LVU2479
 8629 001c 2861     		str	r0, [r5, #16]
2546:SynaptiX_FDK/services/cJSON/cJSON.c ****         {
 8630              		.loc 1 2546 9 is_stmt 1 view .LVU2480
2546:SynaptiX_FDK/services/cJSON/cJSON.c ****         {
 8631              		.loc 1 2546 11 is_stmt 0 view .LVU2481
 8632 001e 08B1     		cbz	r0, .L740
 8633              	.LVL801:
 8634              	.L737:
2554:SynaptiX_FDK/services/cJSON/cJSON.c **** 
 8635              		.loc 1 2554 1 view .LVU2482
 8636 0020 2846     		mov	r0, r5
 8637 0022 38BD     		pop	{r3, r4, r5, pc}
 8638              	.LVL802:
 8639              	.L740:
2548:SynaptiX_FDK/services/cJSON/cJSON.c ****             return NULL;
 8640              		.loc 1 2548 13 is_stmt 1 view .LVU2483
 8641 0024 2846     		mov	r0, r5
 8642 0026 FFF7FEFF 		bl	cJSON_Delete
 8643              	.LVL803:
2549:SynaptiX_FDK/services/cJSON/cJSON.c ****         }
 8644              		.loc 1 2549 13 view .LVU2484
2549:SynaptiX_FDK/services/cJSON/cJSON.c ****         }
 8645              		.loc 1 2549 20 is_stmt 0 view .LVU2485
 8646 002a 2546     		mov	r5, r4
 8647              	.LVL804:
2549:SynaptiX_FDK/services/cJSON/cJSON.c ****         }
 8648              		.loc 1 2549 20 view .LVU2486
 8649 002c F8E7     		b	.L737
 8650              	.L742:
 8651 002e 00BF     		.align	2
 8652              	.L741:
 8653 0030 00000000 		.word	global_hooks
 8654              		.cfi_endproc
 8655              	.LFE91:
 8657              		.section	.text.cJSON_AddRawToObject,"ax",%progbits
 8658              		.align	1
 8659              		.global	cJSON_AddRawToObject
 8660              		.syntax unified
 8661              		.thumb
 8662              		.thumb_func
 8664              	cJSON_AddRawToObject:
 8665              	.LVL805:
 8666              	.LFB66:
2181:SynaptiX_FDK/services/cJSON/cJSON.c ****     cJSON *raw_item = cJSON_CreateRaw(raw);
 8667              		.loc 1 2181 1 is_stmt 1 view -0
 8668              		.cfi_startproc
 8669              		@ args = 0, pretend = 0, frame = 0
 8670              		@ frame_needed = 0, uses_anonymous_args = 0
2181:SynaptiX_FDK/services/cJSON/cJSON.c ****     cJSON *raw_item = cJSON_CreateRaw(raw);
ARM GAS  C:\Users\DELL\AppData\Local\Temp\ccXjhdgA.s 			page 239


 8671              		.loc 1 2181 1 is_stmt 0 view .LVU2488
 8672 0000 70B5     		push	{r4, r5, r6, lr}
 8673              	.LCFI142:
 8674              		.cfi_def_cfa_offset 16
 8675              		.cfi_offset 4, -16
 8676              		.cfi_offset 5, -12
 8677              		.cfi_offset 6, -8
 8678              		.cfi_offset 14, -4
 8679 0002 82B0     		sub	sp, sp, #8
 8680              	.LCFI143:
 8681              		.cfi_def_cfa_offset 24
 8682 0004 0546     		mov	r5, r0
 8683 0006 0E46     		mov	r6, r1
2182:SynaptiX_FDK/services/cJSON/cJSON.c ****     if (add_item_to_object(object, name, raw_item, &global_hooks, false))
 8684              		.loc 1 2182 5 is_stmt 1 view .LVU2489
2182:SynaptiX_FDK/services/cJSON/cJSON.c ****     if (add_item_to_object(object, name, raw_item, &global_hooks, false))
 8685              		.loc 1 2182 23 is_stmt 0 view .LVU2490
 8686 0008 1046     		mov	r0, r2
 8687              	.LVL806:
2182:SynaptiX_FDK/services/cJSON/cJSON.c ****     if (add_item_to_object(object, name, raw_item, &global_hooks, false))
 8688              		.loc 1 2182 23 view .LVU2491
 8689 000a FFF7FEFF 		bl	cJSON_CreateRaw
 8690              	.LVL807:
2182:SynaptiX_FDK/services/cJSON/cJSON.c ****     if (add_item_to_object(object, name, raw_item, &global_hooks, false))
 8691              		.loc 1 2182 23 view .LVU2492
 8692 000e 0446     		mov	r4, r0
 8693              	.LVL808:
2183:SynaptiX_FDK/services/cJSON/cJSON.c ****     {
 8694              		.loc 1 2183 5 is_stmt 1 view .LVU2493
2183:SynaptiX_FDK/services/cJSON/cJSON.c ****     {
 8695              		.loc 1 2183 9 is_stmt 0 view .LVU2494
 8696 0010 0023     		movs	r3, #0
 8697 0012 0093     		str	r3, [sp]
 8698 0014 074B     		ldr	r3, .L747
 8699 0016 0246     		mov	r2, r0
 8700 0018 3146     		mov	r1, r6
 8701 001a 2846     		mov	r0, r5
 8702              	.LVL809:
2183:SynaptiX_FDK/services/cJSON/cJSON.c ****     {
 8703              		.loc 1 2183 9 view .LVU2495
 8704 001c FFF7FEFF 		bl	add_item_to_object
 8705              	.LVL810:
2183:SynaptiX_FDK/services/cJSON/cJSON.c ****     {
 8706              		.loc 1 2183 8 discriminator 1 view .LVU2496
 8707 0020 10B1     		cbz	r0, .L746
 8708              	.LVL811:
 8709              	.L743:
2190:SynaptiX_FDK/services/cJSON/cJSON.c **** 
 8710              		.loc 1 2190 1 view .LVU2497
 8711 0022 2046     		mov	r0, r4
 8712 0024 02B0     		add	sp, sp, #8
 8713              	.LCFI144:
 8714              		.cfi_remember_state
 8715              		.cfi_def_cfa_offset 16
 8716              		@ sp needed
 8717 0026 70BD     		pop	{r4, r5, r6, pc}
 8718              	.LVL812:
ARM GAS  C:\Users\DELL\AppData\Local\Temp\ccXjhdgA.s 			page 240


 8719              	.L746:
 8720              	.LCFI145:
 8721              		.cfi_restore_state
2188:SynaptiX_FDK/services/cJSON/cJSON.c ****     return NULL;
 8722              		.loc 1 2188 5 is_stmt 1 view .LVU2498
 8723 0028 2046     		mov	r0, r4
 8724 002a FFF7FEFF 		bl	cJSON_Delete
 8725              	.LVL813:
2189:SynaptiX_FDK/services/cJSON/cJSON.c **** }
 8726              		.loc 1 2189 5 view .LVU2499
2189:SynaptiX_FDK/services/cJSON/cJSON.c **** }
 8727              		.loc 1 2189 12 is_stmt 0 view .LVU2500
 8728 002e 0024     		movs	r4, #0
 8729              	.LVL814:
2189:SynaptiX_FDK/services/cJSON/cJSON.c **** }
 8730              		.loc 1 2189 12 view .LVU2501
 8731 0030 F7E7     		b	.L743
 8732              	.L748:
 8733 0032 00BF     		.align	2
 8734              	.L747:
 8735 0034 00000000 		.word	global_hooks
 8736              		.cfi_endproc
 8737              	.LFE66:
 8739              		.section	.text.cJSON_CreateArray,"ax",%progbits
 8740              		.align	1
 8741              		.global	cJSON_CreateArray
 8742              		.syntax unified
 8743              		.thumb
 8744              		.thumb_func
 8746              	cJSON_CreateArray:
 8747              	.LFB92:
2557:SynaptiX_FDK/services/cJSON/cJSON.c ****     cJSON *item = cJSON_New_Item(&global_hooks);
 8748              		.loc 1 2557 1 is_stmt 1 view -0
 8749              		.cfi_startproc
 8750              		@ args = 0, pretend = 0, frame = 0
 8751              		@ frame_needed = 0, uses_anonymous_args = 0
 8752 0000 08B5     		push	{r3, lr}
 8753              	.LCFI146:
 8754              		.cfi_def_cfa_offset 8
 8755              		.cfi_offset 3, -8
 8756              		.cfi_offset 14, -4
2558:SynaptiX_FDK/services/cJSON/cJSON.c ****     if(item)
 8757              		.loc 1 2558 5 view .LVU2503
2558:SynaptiX_FDK/services/cJSON/cJSON.c ****     if(item)
 8758              		.loc 1 2558 19 is_stmt 0 view .LVU2504
 8759 0002 0348     		ldr	r0, .L752
 8760 0004 FFF7FEFF 		bl	cJSON_New_Item
 8761              	.LVL815:
2559:SynaptiX_FDK/services/cJSON/cJSON.c ****     {
 8762              		.loc 1 2559 5 is_stmt 1 view .LVU2505
2559:SynaptiX_FDK/services/cJSON/cJSON.c ****     {
 8763              		.loc 1 2559 7 is_stmt 0 view .LVU2506
 8764 0008 08B1     		cbz	r0, .L749
2561:SynaptiX_FDK/services/cJSON/cJSON.c ****     }
 8765              		.loc 1 2561 9 is_stmt 1 view .LVU2507
2561:SynaptiX_FDK/services/cJSON/cJSON.c ****     }
 8766              		.loc 1 2561 19 is_stmt 0 view .LVU2508
ARM GAS  C:\Users\DELL\AppData\Local\Temp\ccXjhdgA.s 			page 241


 8767 000a 2023     		movs	r3, #32
 8768 000c C360     		str	r3, [r0, #12]
2564:SynaptiX_FDK/services/cJSON/cJSON.c **** }
 8769              		.loc 1 2564 5 is_stmt 1 view .LVU2509
 8770              	.L749:
2565:SynaptiX_FDK/services/cJSON/cJSON.c **** 
 8771              		.loc 1 2565 1 is_stmt 0 view .LVU2510
 8772 000e 08BD     		pop	{r3, pc}
 8773              	.L753:
 8774              		.align	2
 8775              	.L752:
 8776 0010 00000000 		.word	global_hooks
 8777              		.cfi_endproc
 8778              	.LFE92:
 8780              		.section	.text.cJSON_AddArrayToObject,"ax",%progbits
 8781              		.align	1
 8782              		.global	cJSON_AddArrayToObject
 8783              		.syntax unified
 8784              		.thumb
 8785              		.thumb_func
 8787              	cJSON_AddArrayToObject:
 8788              	.LVL816:
 8789              	.LFB68:
2205:SynaptiX_FDK/services/cJSON/cJSON.c ****     cJSON *array = cJSON_CreateArray();
 8790              		.loc 1 2205 1 is_stmt 1 view -0
 8791              		.cfi_startproc
 8792              		@ args = 0, pretend = 0, frame = 0
 8793              		@ frame_needed = 0, uses_anonymous_args = 0
2205:SynaptiX_FDK/services/cJSON/cJSON.c ****     cJSON *array = cJSON_CreateArray();
 8794              		.loc 1 2205 1 is_stmt 0 view .LVU2512
 8795 0000 70B5     		push	{r4, r5, r6, lr}
 8796              	.LCFI147:
 8797              		.cfi_def_cfa_offset 16
 8798              		.cfi_offset 4, -16
 8799              		.cfi_offset 5, -12
 8800              		.cfi_offset 6, -8
 8801              		.cfi_offset 14, -4
 8802 0002 82B0     		sub	sp, sp, #8
 8803              	.LCFI148:
 8804              		.cfi_def_cfa_offset 24
 8805 0004 0546     		mov	r5, r0
 8806 0006 0E46     		mov	r6, r1
2206:SynaptiX_FDK/services/cJSON/cJSON.c ****     if (add_item_to_object(object, name, array, &global_hooks, false))
 8807              		.loc 1 2206 5 is_stmt 1 view .LVU2513
2206:SynaptiX_FDK/services/cJSON/cJSON.c ****     if (add_item_to_object(object, name, array, &global_hooks, false))
 8808              		.loc 1 2206 20 is_stmt 0 view .LVU2514
 8809 0008 FFF7FEFF 		bl	cJSON_CreateArray
 8810              	.LVL817:
2206:SynaptiX_FDK/services/cJSON/cJSON.c ****     if (add_item_to_object(object, name, array, &global_hooks, false))
 8811              		.loc 1 2206 20 view .LVU2515
 8812 000c 0446     		mov	r4, r0
 8813              	.LVL818:
2207:SynaptiX_FDK/services/cJSON/cJSON.c ****     {
 8814              		.loc 1 2207 5 is_stmt 1 view .LVU2516
2207:SynaptiX_FDK/services/cJSON/cJSON.c ****     {
 8815              		.loc 1 2207 9 is_stmt 0 view .LVU2517
 8816 000e 0023     		movs	r3, #0
ARM GAS  C:\Users\DELL\AppData\Local\Temp\ccXjhdgA.s 			page 242


 8817 0010 0093     		str	r3, [sp]
 8818 0012 074B     		ldr	r3, .L758
 8819 0014 0246     		mov	r2, r0
 8820 0016 3146     		mov	r1, r6
 8821 0018 2846     		mov	r0, r5
 8822              	.LVL819:
2207:SynaptiX_FDK/services/cJSON/cJSON.c ****     {
 8823              		.loc 1 2207 9 view .LVU2518
 8824 001a FFF7FEFF 		bl	add_item_to_object
 8825              	.LVL820:
2207:SynaptiX_FDK/services/cJSON/cJSON.c ****     {
 8826              		.loc 1 2207 8 discriminator 1 view .LVU2519
 8827 001e 10B1     		cbz	r0, .L757
 8828              	.LVL821:
 8829              	.L754:
2214:SynaptiX_FDK/services/cJSON/cJSON.c **** 
 8830              		.loc 1 2214 1 view .LVU2520
 8831 0020 2046     		mov	r0, r4
 8832 0022 02B0     		add	sp, sp, #8
 8833              	.LCFI149:
 8834              		.cfi_remember_state
 8835              		.cfi_def_cfa_offset 16
 8836              		@ sp needed
 8837 0024 70BD     		pop	{r4, r5, r6, pc}
 8838              	.LVL822:
 8839              	.L757:
 8840              	.LCFI150:
 8841              		.cfi_restore_state
2212:SynaptiX_FDK/services/cJSON/cJSON.c ****     return NULL;
 8842              		.loc 1 2212 5 is_stmt 1 view .LVU2521
 8843 0026 2046     		mov	r0, r4
 8844 0028 FFF7FEFF 		bl	cJSON_Delete
 8845              	.LVL823:
2213:SynaptiX_FDK/services/cJSON/cJSON.c **** }
 8846              		.loc 1 2213 5 view .LVU2522
2213:SynaptiX_FDK/services/cJSON/cJSON.c **** }
 8847              		.loc 1 2213 12 is_stmt 0 view .LVU2523
 8848 002c 0024     		movs	r4, #0
 8849              	.LVL824:
2213:SynaptiX_FDK/services/cJSON/cJSON.c **** }
 8850              		.loc 1 2213 12 view .LVU2524
 8851 002e F7E7     		b	.L754
 8852              	.L759:
 8853              		.align	2
 8854              	.L758:
 8855 0030 00000000 		.word	global_hooks
 8856              		.cfi_endproc
 8857              	.LFE68:
 8859              		.section	.text.cJSON_CreateObject,"ax",%progbits
 8860              		.align	1
 8861              		.global	cJSON_CreateObject
 8862              		.syntax unified
 8863              		.thumb
 8864              		.thumb_func
 8866              	cJSON_CreateObject:
 8867              	.LFB93:
2568:SynaptiX_FDK/services/cJSON/cJSON.c ****     cJSON *item = cJSON_New_Item(&global_hooks);
ARM GAS  C:\Users\DELL\AppData\Local\Temp\ccXjhdgA.s 			page 243


 8868              		.loc 1 2568 1 is_stmt 1 view -0
 8869              		.cfi_startproc
 8870              		@ args = 0, pretend = 0, frame = 0
 8871              		@ frame_needed = 0, uses_anonymous_args = 0
 8872 0000 08B5     		push	{r3, lr}
 8873              	.LCFI151:
 8874              		.cfi_def_cfa_offset 8
 8875              		.cfi_offset 3, -8
 8876              		.cfi_offset 14, -4
2569:SynaptiX_FDK/services/cJSON/cJSON.c ****     if (item)
 8877              		.loc 1 2569 5 view .LVU2526
2569:SynaptiX_FDK/services/cJSON/cJSON.c ****     if (item)
 8878              		.loc 1 2569 19 is_stmt 0 view .LVU2527
 8879 0002 0348     		ldr	r0, .L763
 8880 0004 FFF7FEFF 		bl	cJSON_New_Item
 8881              	.LVL825:
2570:SynaptiX_FDK/services/cJSON/cJSON.c ****     {
 8882              		.loc 1 2570 5 is_stmt 1 view .LVU2528
2570:SynaptiX_FDK/services/cJSON/cJSON.c ****     {
 8883              		.loc 1 2570 8 is_stmt 0 view .LVU2529
 8884 0008 08B1     		cbz	r0, .L760
2572:SynaptiX_FDK/services/cJSON/cJSON.c ****     }
 8885              		.loc 1 2572 9 is_stmt 1 view .LVU2530
2572:SynaptiX_FDK/services/cJSON/cJSON.c ****     }
 8886              		.loc 1 2572 20 is_stmt 0 view .LVU2531
 8887 000a 4023     		movs	r3, #64
 8888 000c C360     		str	r3, [r0, #12]
2575:SynaptiX_FDK/services/cJSON/cJSON.c **** }
 8889              		.loc 1 2575 5 is_stmt 1 view .LVU2532
 8890              	.L760:
2576:SynaptiX_FDK/services/cJSON/cJSON.c **** 
 8891              		.loc 1 2576 1 is_stmt 0 view .LVU2533
 8892 000e 08BD     		pop	{r3, pc}
 8893              	.L764:
 8894              		.align	2
 8895              	.L763:
 8896 0010 00000000 		.word	global_hooks
 8897              		.cfi_endproc
 8898              	.LFE93:
 8900              		.section	.text.cJSON_AddObjectToObject,"ax",%progbits
 8901              		.align	1
 8902              		.global	cJSON_AddObjectToObject
 8903              		.syntax unified
 8904              		.thumb
 8905              		.thumb_func
 8907              	cJSON_AddObjectToObject:
 8908              	.LVL826:
 8909              	.LFB67:
2193:SynaptiX_FDK/services/cJSON/cJSON.c ****     cJSON *object_item = cJSON_CreateObject();
 8910              		.loc 1 2193 1 is_stmt 1 view -0
 8911              		.cfi_startproc
 8912              		@ args = 0, pretend = 0, frame = 0
 8913              		@ frame_needed = 0, uses_anonymous_args = 0
2193:SynaptiX_FDK/services/cJSON/cJSON.c ****     cJSON *object_item = cJSON_CreateObject();
 8914              		.loc 1 2193 1 is_stmt 0 view .LVU2535
 8915 0000 70B5     		push	{r4, r5, r6, lr}
 8916              	.LCFI152:
ARM GAS  C:\Users\DELL\AppData\Local\Temp\ccXjhdgA.s 			page 244


 8917              		.cfi_def_cfa_offset 16
 8918              		.cfi_offset 4, -16
 8919              		.cfi_offset 5, -12
 8920              		.cfi_offset 6, -8
 8921              		.cfi_offset 14, -4
 8922 0002 82B0     		sub	sp, sp, #8
 8923              	.LCFI153:
 8924              		.cfi_def_cfa_offset 24
 8925 0004 0546     		mov	r5, r0
 8926 0006 0E46     		mov	r6, r1
2194:SynaptiX_FDK/services/cJSON/cJSON.c ****     if (add_item_to_object(object, name, object_item, &global_hooks, false))
 8927              		.loc 1 2194 5 is_stmt 1 view .LVU2536
2194:SynaptiX_FDK/services/cJSON/cJSON.c ****     if (add_item_to_object(object, name, object_item, &global_hooks, false))
 8928              		.loc 1 2194 26 is_stmt 0 view .LVU2537
 8929 0008 FFF7FEFF 		bl	cJSON_CreateObject
 8930              	.LVL827:
2194:SynaptiX_FDK/services/cJSON/cJSON.c ****     if (add_item_to_object(object, name, object_item, &global_hooks, false))
 8931              		.loc 1 2194 26 view .LVU2538
 8932 000c 0446     		mov	r4, r0
 8933              	.LVL828:
2195:SynaptiX_FDK/services/cJSON/cJSON.c ****     {
 8934              		.loc 1 2195 5 is_stmt 1 view .LVU2539
2195:SynaptiX_FDK/services/cJSON/cJSON.c ****     {
 8935              		.loc 1 2195 9 is_stmt 0 view .LVU2540
 8936 000e 0023     		movs	r3, #0
 8937 0010 0093     		str	r3, [sp]
 8938 0012 074B     		ldr	r3, .L769
 8939 0014 0246     		mov	r2, r0
 8940 0016 3146     		mov	r1, r6
 8941 0018 2846     		mov	r0, r5
 8942              	.LVL829:
2195:SynaptiX_FDK/services/cJSON/cJSON.c ****     {
 8943              		.loc 1 2195 9 view .LVU2541
 8944 001a FFF7FEFF 		bl	add_item_to_object
 8945              	.LVL830:
2195:SynaptiX_FDK/services/cJSON/cJSON.c ****     {
 8946              		.loc 1 2195 8 discriminator 1 view .LVU2542
 8947 001e 10B1     		cbz	r0, .L768
 8948              	.LVL831:
 8949              	.L765:
2202:SynaptiX_FDK/services/cJSON/cJSON.c **** 
 8950              		.loc 1 2202 1 view .LVU2543
 8951 0020 2046     		mov	r0, r4
 8952 0022 02B0     		add	sp, sp, #8
 8953              	.LCFI154:
 8954              		.cfi_remember_state
 8955              		.cfi_def_cfa_offset 16
 8956              		@ sp needed
 8957 0024 70BD     		pop	{r4, r5, r6, pc}
 8958              	.LVL832:
 8959              	.L768:
 8960              	.LCFI155:
 8961              		.cfi_restore_state
2200:SynaptiX_FDK/services/cJSON/cJSON.c ****     return NULL;
 8962              		.loc 1 2200 5 is_stmt 1 view .LVU2544
 8963 0026 2046     		mov	r0, r4
 8964 0028 FFF7FEFF 		bl	cJSON_Delete
ARM GAS  C:\Users\DELL\AppData\Local\Temp\ccXjhdgA.s 			page 245


 8965              	.LVL833:
2201:SynaptiX_FDK/services/cJSON/cJSON.c **** }
 8966              		.loc 1 2201 5 view .LVU2545
2201:SynaptiX_FDK/services/cJSON/cJSON.c **** }
 8967              		.loc 1 2201 12 is_stmt 0 view .LVU2546
 8968 002c 0024     		movs	r4, #0
 8969              	.LVL834:
2201:SynaptiX_FDK/services/cJSON/cJSON.c **** }
 8970              		.loc 1 2201 12 view .LVU2547
 8971 002e F7E7     		b	.L765
 8972              	.L770:
 8973              		.align	2
 8974              	.L769:
 8975 0030 00000000 		.word	global_hooks
 8976              		.cfi_endproc
 8977              	.LFE67:
 8979              		.section	.text.cJSON_CreateIntArray,"ax",%progbits
 8980              		.align	1
 8981              		.global	cJSON_CreateIntArray
 8982              		.syntax unified
 8983              		.thumb
 8984              		.thumb_func
 8986              	cJSON_CreateIntArray:
 8987              	.LVL835:
 8988              	.LFB94:
2580:SynaptiX_FDK/services/cJSON/cJSON.c ****     size_t i = 0;
 8989              		.loc 1 2580 1 is_stmt 1 view -0
 8990              		.cfi_startproc
 8991              		@ args = 0, pretend = 0, frame = 0
 8992              		@ frame_needed = 0, uses_anonymous_args = 0
2580:SynaptiX_FDK/services/cJSON/cJSON.c ****     size_t i = 0;
 8993              		.loc 1 2580 1 is_stmt 0 view .LVU2549
 8994 0000 2DE9F843 		push	{r3, r4, r5, r6, r7, r8, r9, lr}
 8995              	.LCFI156:
 8996              		.cfi_def_cfa_offset 32
 8997              		.cfi_offset 3, -32
 8998              		.cfi_offset 4, -28
 8999              		.cfi_offset 5, -24
 9000              		.cfi_offset 6, -20
 9001              		.cfi_offset 7, -16
 9002              		.cfi_offset 8, -12
 9003              		.cfi_offset 9, -8
 9004              		.cfi_offset 14, -4
2581:SynaptiX_FDK/services/cJSON/cJSON.c ****     cJSON *n = NULL;
 9005              		.loc 1 2581 5 is_stmt 1 view .LVU2550
 9006              	.LVL836:
2582:SynaptiX_FDK/services/cJSON/cJSON.c ****     cJSON *p = NULL;
 9007              		.loc 1 2582 5 view .LVU2551
2583:SynaptiX_FDK/services/cJSON/cJSON.c ****     cJSON *a = NULL;
 9008              		.loc 1 2583 5 view .LVU2552
2584:SynaptiX_FDK/services/cJSON/cJSON.c **** 
 9009              		.loc 1 2584 5 view .LVU2553
2586:SynaptiX_FDK/services/cJSON/cJSON.c ****     {
 9010              		.loc 1 2586 5 view .LVU2554
2586:SynaptiX_FDK/services/cJSON/cJSON.c ****     {
 9011              		.loc 1 2586 8 is_stmt 0 view .LVU2555
 9012 0004 0F1E     		subs	r7, r1, #0
ARM GAS  C:\Users\DELL\AppData\Local\Temp\ccXjhdgA.s 			page 246


 9013 0006 2DDB     		blt	.L779
 9014 0008 8046     		mov	r8, r0
2586:SynaptiX_FDK/services/cJSON/cJSON.c ****     {
 9015              		.loc 1 2586 21 discriminator 1 view .LVU2556
 9016 000a 68B3     		cbz	r0, .L780
2591:SynaptiX_FDK/services/cJSON/cJSON.c **** 
 9017              		.loc 1 2591 5 is_stmt 1 view .LVU2557
2591:SynaptiX_FDK/services/cJSON/cJSON.c **** 
 9018              		.loc 1 2591 9 is_stmt 0 view .LVU2558
 9019 000c FFF7FEFF 		bl	cJSON_CreateArray
 9020              	.LVL837:
2591:SynaptiX_FDK/services/cJSON/cJSON.c **** 
 9021              		.loc 1 2591 9 view .LVU2559
 9022 0010 0646     		mov	r6, r0
 9023              	.LVL838:
2593:SynaptiX_FDK/services/cJSON/cJSON.c ****     {
 9024              		.loc 1 2593 5 is_stmt 1 view .LVU2560
2582:SynaptiX_FDK/services/cJSON/cJSON.c ****     cJSON *p = NULL;
 9025              		.loc 1 2582 12 is_stmt 0 view .LVU2561
 9026 0012 4FF00009 		mov	r9, #0
2593:SynaptiX_FDK/services/cJSON/cJSON.c ****     {
 9027              		.loc 1 2593 11 view .LVU2562
 9028 0016 4C46     		mov	r4, r9
2593:SynaptiX_FDK/services/cJSON/cJSON.c ****     {
 9029              		.loc 1 2593 5 view .LVU2563
 9030 0018 0AE0     		b	.L773
 9031              	.LVL839:
 9032              	.L782:
2598:SynaptiX_FDK/services/cJSON/cJSON.c ****             return NULL;
 9033              		.loc 1 2598 13 is_stmt 1 view .LVU2564
 9034 001a 3046     		mov	r0, r6
 9035              	.LVL840:
2598:SynaptiX_FDK/services/cJSON/cJSON.c ****             return NULL;
 9036              		.loc 1 2598 13 is_stmt 0 view .LVU2565
 9037 001c FFF7FEFF 		bl	cJSON_Delete
 9038              	.LVL841:
2599:SynaptiX_FDK/services/cJSON/cJSON.c ****         }
 9039              		.loc 1 2599 13 is_stmt 1 view .LVU2566
2599:SynaptiX_FDK/services/cJSON/cJSON.c ****         }
 9040              		.loc 1 2599 20 is_stmt 0 view .LVU2567
 9041 0020 2E46     		mov	r6, r5
 9042              	.LVL842:
2599:SynaptiX_FDK/services/cJSON/cJSON.c ****         }
 9043              		.loc 1 2599 20 view .LVU2568
 9044 0022 1CE0     		b	.L771
 9045              	.LVL843:
 9046              	.L775:
2607:SynaptiX_FDK/services/cJSON/cJSON.c ****         }
 9047              		.loc 1 2607 13 is_stmt 1 view .LVU2569
 9048 0024 0146     		mov	r1, r0
 9049 0026 4846     		mov	r0, r9
 9050              	.LVL844:
2607:SynaptiX_FDK/services/cJSON/cJSON.c ****         }
 9051              		.loc 1 2607 13 is_stmt 0 view .LVU2570
 9052 0028 FFF7FEFF 		bl	suffix_object
 9053              	.LVL845:
 9054              	.L776:
ARM GAS  C:\Users\DELL\AppData\Local\Temp\ccXjhdgA.s 			page 247


2609:SynaptiX_FDK/services/cJSON/cJSON.c ****     }
 9055              		.loc 1 2609 9 is_stmt 1 view .LVU2571
2593:SynaptiX_FDK/services/cJSON/cJSON.c ****     {
 9056              		.loc 1 2593 43 discriminator 2 view .LVU2572
 9057 002c 0134     		adds	r4, r4, #1
 9058              	.LVL846:
2595:SynaptiX_FDK/services/cJSON/cJSON.c ****         if (!n)
 9059              		.loc 1 2595 13 is_stmt 0 view .LVU2573
 9060 002e A946     		mov	r9, r5
 9061              	.LVL847:
 9062              	.L773:
2593:SynaptiX_FDK/services/cJSON/cJSON.c ****     {
 9063              		.loc 1 2593 18 is_stmt 1 discriminator 1 view .LVU2574
 9064 0030 86B1     		cbz	r6, .L777
2593:SynaptiX_FDK/services/cJSON/cJSON.c ****     {
 9065              		.loc 1 2593 18 is_stmt 0 discriminator 3 view .LVU2575
 9066 0032 A742     		cmp	r7, r4
 9067 0034 0ED9     		bls	.L777
2595:SynaptiX_FDK/services/cJSON/cJSON.c ****         if (!n)
 9068              		.loc 1 2595 9 is_stmt 1 view .LVU2576
2595:SynaptiX_FDK/services/cJSON/cJSON.c ****         if (!n)
 9069              		.loc 1 2595 13 is_stmt 0 view .LVU2577
 9070 0036 58F82400 		ldr	r0, [r8, r4, lsl #2]
 9071 003a FFF7FEFF 		bl	__aeabi_i2d
 9072              	.LVL848:
 9073 003e 41EC100B 		vmov	d0, r0, r1
 9074 0042 FFF7FEFF 		bl	cJSON_CreateNumber
 9075              	.LVL849:
2596:SynaptiX_FDK/services/cJSON/cJSON.c ****         {
 9076              		.loc 1 2596 9 is_stmt 1 view .LVU2578
2596:SynaptiX_FDK/services/cJSON/cJSON.c ****         {
 9077              		.loc 1 2596 12 is_stmt 0 view .LVU2579
 9078 0046 0546     		mov	r5, r0
 9079 0048 0028     		cmp	r0, #0
 9080 004a E6D0     		beq	.L782
2601:SynaptiX_FDK/services/cJSON/cJSON.c ****         {
 9081              		.loc 1 2601 9 is_stmt 1 view .LVU2580
2601:SynaptiX_FDK/services/cJSON/cJSON.c ****         {
 9082              		.loc 1 2601 11 is_stmt 0 view .LVU2581
 9083 004c 002C     		cmp	r4, #0
 9084 004e E9D1     		bne	.L775
2603:SynaptiX_FDK/services/cJSON/cJSON.c ****         }
 9085              		.loc 1 2603 13 is_stmt 1 view .LVU2582
2603:SynaptiX_FDK/services/cJSON/cJSON.c ****         }
 9086              		.loc 1 2603 22 is_stmt 0 view .LVU2583
 9087 0050 B060     		str	r0, [r6, #8]
 9088 0052 EBE7     		b	.L776
 9089              	.LVL850:
 9090              	.L777:
2612:SynaptiX_FDK/services/cJSON/cJSON.c ****         a->child->prev = n;
 9091              		.loc 1 2612 5 is_stmt 1 view .LVU2584
2612:SynaptiX_FDK/services/cJSON/cJSON.c ****         a->child->prev = n;
 9092              		.loc 1 2612 8 is_stmt 0 view .LVU2585
 9093 0054 1EB1     		cbz	r6, .L771
2612:SynaptiX_FDK/services/cJSON/cJSON.c ****         a->child->prev = n;
 9094              		.loc 1 2612 15 discriminator 1 view .LVU2586
 9095 0056 B368     		ldr	r3, [r6, #8]
ARM GAS  C:\Users\DELL\AppData\Local\Temp\ccXjhdgA.s 			page 248


2612:SynaptiX_FDK/services/cJSON/cJSON.c ****         a->child->prev = n;
 9096              		.loc 1 2612 11 discriminator 1 view .LVU2587
 9097 0058 0BB1     		cbz	r3, .L771
2613:SynaptiX_FDK/services/cJSON/cJSON.c ****     }
 9098              		.loc 1 2613 9 is_stmt 1 view .LVU2588
2613:SynaptiX_FDK/services/cJSON/cJSON.c ****     }
 9099              		.loc 1 2613 24 is_stmt 0 view .LVU2589
 9100 005a C3F80490 		str	r9, [r3, #4]
 9101              	.LVL851:
 9102              	.L771:
2617:SynaptiX_FDK/services/cJSON/cJSON.c **** 
 9103              		.loc 1 2617 1 view .LVU2590
 9104 005e 3046     		mov	r0, r6
 9105 0060 BDE8F883 		pop	{r3, r4, r5, r6, r7, r8, r9, pc}
 9106              	.LVL852:
 9107              	.L779:
2588:SynaptiX_FDK/services/cJSON/cJSON.c ****     }
 9108              		.loc 1 2588 16 view .LVU2591
 9109 0064 0026     		movs	r6, #0
 9110 0066 FAE7     		b	.L771
 9111              	.L780:
2588:SynaptiX_FDK/services/cJSON/cJSON.c ****     }
 9112              		.loc 1 2588 16 view .LVU2592
 9113 0068 0646     		mov	r6, r0
 9114 006a F8E7     		b	.L771
 9115              		.cfi_endproc
 9116              	.LFE94:
 9118              		.section	.text.cJSON_CreateFloatArray,"ax",%progbits
 9119              		.align	1
 9120              		.global	cJSON_CreateFloatArray
 9121              		.syntax unified
 9122              		.thumb
 9123              		.thumb_func
 9125              	cJSON_CreateFloatArray:
 9126              	.LVL853:
 9127              	.LFB95:
2620:SynaptiX_FDK/services/cJSON/cJSON.c ****     size_t i = 0;
 9128              		.loc 1 2620 1 is_stmt 1 view -0
 9129              		.cfi_startproc
 9130              		@ args = 0, pretend = 0, frame = 0
 9131              		@ frame_needed = 0, uses_anonymous_args = 0
2620:SynaptiX_FDK/services/cJSON/cJSON.c ****     size_t i = 0;
 9132              		.loc 1 2620 1 is_stmt 0 view .LVU2594
 9133 0000 2DE9F843 		push	{r3, r4, r5, r6, r7, r8, r9, lr}
 9134              	.LCFI157:
 9135              		.cfi_def_cfa_offset 32
 9136              		.cfi_offset 3, -32
 9137              		.cfi_offset 4, -28
 9138              		.cfi_offset 5, -24
 9139              		.cfi_offset 6, -20
 9140              		.cfi_offset 7, -16
 9141              		.cfi_offset 8, -12
 9142              		.cfi_offset 9, -8
 9143              		.cfi_offset 14, -4
2621:SynaptiX_FDK/services/cJSON/cJSON.c ****     cJSON *n = NULL;
 9144              		.loc 1 2621 5 is_stmt 1 view .LVU2595
 9145              	.LVL854:
ARM GAS  C:\Users\DELL\AppData\Local\Temp\ccXjhdgA.s 			page 249


2622:SynaptiX_FDK/services/cJSON/cJSON.c ****     cJSON *p = NULL;
 9146              		.loc 1 2622 5 view .LVU2596
2623:SynaptiX_FDK/services/cJSON/cJSON.c ****     cJSON *a = NULL;
 9147              		.loc 1 2623 5 view .LVU2597
2624:SynaptiX_FDK/services/cJSON/cJSON.c **** 
 9148              		.loc 1 2624 5 view .LVU2598
2626:SynaptiX_FDK/services/cJSON/cJSON.c ****     {
 9149              		.loc 1 2626 5 view .LVU2599
2626:SynaptiX_FDK/services/cJSON/cJSON.c ****     {
 9150              		.loc 1 2626 8 is_stmt 0 view .LVU2600
 9151 0004 0F1E     		subs	r7, r1, #0
 9152 0006 2EDB     		blt	.L791
 9153 0008 8046     		mov	r8, r0
2626:SynaptiX_FDK/services/cJSON/cJSON.c ****     {
 9154              		.loc 1 2626 21 discriminator 1 view .LVU2601
 9155 000a 70B3     		cbz	r0, .L792
2631:SynaptiX_FDK/services/cJSON/cJSON.c **** 
 9156              		.loc 1 2631 5 is_stmt 1 view .LVU2602
2631:SynaptiX_FDK/services/cJSON/cJSON.c **** 
 9157              		.loc 1 2631 9 is_stmt 0 view .LVU2603
 9158 000c FFF7FEFF 		bl	cJSON_CreateArray
 9159              	.LVL855:
2631:SynaptiX_FDK/services/cJSON/cJSON.c **** 
 9160              		.loc 1 2631 9 view .LVU2604
 9161 0010 0646     		mov	r6, r0
 9162              	.LVL856:
2633:SynaptiX_FDK/services/cJSON/cJSON.c ****     {
 9163              		.loc 1 2633 5 is_stmt 1 view .LVU2605
2622:SynaptiX_FDK/services/cJSON/cJSON.c ****     cJSON *p = NULL;
 9164              		.loc 1 2622 12 is_stmt 0 view .LVU2606
 9165 0012 4FF00009 		mov	r9, #0
2633:SynaptiX_FDK/services/cJSON/cJSON.c ****     {
 9166              		.loc 1 2633 11 view .LVU2607
 9167 0016 4C46     		mov	r4, r9
2633:SynaptiX_FDK/services/cJSON/cJSON.c ****     {
 9168              		.loc 1 2633 5 view .LVU2608
 9169 0018 0AE0     		b	.L785
 9170              	.LVL857:
 9171              	.L794:
2638:SynaptiX_FDK/services/cJSON/cJSON.c ****             return NULL;
 9172              		.loc 1 2638 13 is_stmt 1 view .LVU2609
 9173 001a 3046     		mov	r0, r6
 9174              	.LVL858:
2638:SynaptiX_FDK/services/cJSON/cJSON.c ****             return NULL;
 9175              		.loc 1 2638 13 is_stmt 0 view .LVU2610
 9176 001c FFF7FEFF 		bl	cJSON_Delete
 9177              	.LVL859:
2639:SynaptiX_FDK/services/cJSON/cJSON.c ****         }
 9178              		.loc 1 2639 13 is_stmt 1 view .LVU2611
2639:SynaptiX_FDK/services/cJSON/cJSON.c ****         }
 9179              		.loc 1 2639 20 is_stmt 0 view .LVU2612
 9180 0020 2E46     		mov	r6, r5
 9181              	.LVL860:
2639:SynaptiX_FDK/services/cJSON/cJSON.c ****         }
 9182              		.loc 1 2639 20 view .LVU2613
 9183 0022 1DE0     		b	.L783
 9184              	.LVL861:
ARM GAS  C:\Users\DELL\AppData\Local\Temp\ccXjhdgA.s 			page 250


 9185              	.L787:
2647:SynaptiX_FDK/services/cJSON/cJSON.c ****         }
 9186              		.loc 1 2647 13 is_stmt 1 view .LVU2614
 9187 0024 0146     		mov	r1, r0
 9188 0026 4846     		mov	r0, r9
 9189              	.LVL862:
2647:SynaptiX_FDK/services/cJSON/cJSON.c ****         }
 9190              		.loc 1 2647 13 is_stmt 0 view .LVU2615
 9191 0028 FFF7FEFF 		bl	suffix_object
 9192              	.LVL863:
 9193              	.L788:
2649:SynaptiX_FDK/services/cJSON/cJSON.c ****     }
 9194              		.loc 1 2649 9 is_stmt 1 view .LVU2616
2633:SynaptiX_FDK/services/cJSON/cJSON.c ****     {
 9195              		.loc 1 2633 43 discriminator 2 view .LVU2617
 9196 002c 0134     		adds	r4, r4, #1
 9197              	.LVL864:
2635:SynaptiX_FDK/services/cJSON/cJSON.c ****         if(!n)
 9198              		.loc 1 2635 13 is_stmt 0 view .LVU2618
 9199 002e A946     		mov	r9, r5
 9200              	.LVL865:
 9201              	.L785:
2633:SynaptiX_FDK/services/cJSON/cJSON.c ****     {
 9202              		.loc 1 2633 18 is_stmt 1 discriminator 1 view .LVU2619
 9203 0030 8EB1     		cbz	r6, .L789
2633:SynaptiX_FDK/services/cJSON/cJSON.c ****     {
 9204              		.loc 1 2633 18 is_stmt 0 discriminator 3 view .LVU2620
 9205 0032 A742     		cmp	r7, r4
 9206 0034 0FD9     		bls	.L789
2635:SynaptiX_FDK/services/cJSON/cJSON.c ****         if(!n)
 9207              		.loc 1 2635 9 is_stmt 1 view .LVU2621
2635:SynaptiX_FDK/services/cJSON/cJSON.c ****         if(!n)
 9208              		.loc 1 2635 47 is_stmt 0 view .LVU2622
 9209 0036 08EB8403 		add	r3, r8, r4, lsl #2
2635:SynaptiX_FDK/services/cJSON/cJSON.c ****         if(!n)
 9210              		.loc 1 2635 13 view .LVU2623
 9211 003a 1868     		ldr	r0, [r3]	@ float
 9212 003c FFF7FEFF 		bl	__aeabi_f2d
 9213              	.LVL866:
 9214 0040 41EC100B 		vmov	d0, r0, r1
 9215 0044 FFF7FEFF 		bl	cJSON_CreateNumber
 9216              	.LVL867:
2636:SynaptiX_FDK/services/cJSON/cJSON.c ****         {
 9217              		.loc 1 2636 9 is_stmt 1 view .LVU2624
2636:SynaptiX_FDK/services/cJSON/cJSON.c ****         {
 9218              		.loc 1 2636 11 is_stmt 0 view .LVU2625
 9219 0048 0546     		mov	r5, r0
 9220 004a 0028     		cmp	r0, #0
 9221 004c E5D0     		beq	.L794
2641:SynaptiX_FDK/services/cJSON/cJSON.c ****         {
 9222              		.loc 1 2641 9 is_stmt 1 view .LVU2626
2641:SynaptiX_FDK/services/cJSON/cJSON.c ****         {
 9223              		.loc 1 2641 11 is_stmt 0 view .LVU2627
 9224 004e 002C     		cmp	r4, #0
 9225 0050 E8D1     		bne	.L787
2643:SynaptiX_FDK/services/cJSON/cJSON.c ****         }
 9226              		.loc 1 2643 13 is_stmt 1 view .LVU2628
ARM GAS  C:\Users\DELL\AppData\Local\Temp\ccXjhdgA.s 			page 251


2643:SynaptiX_FDK/services/cJSON/cJSON.c ****         }
 9227              		.loc 1 2643 22 is_stmt 0 view .LVU2629
 9228 0052 B060     		str	r0, [r6, #8]
 9229 0054 EAE7     		b	.L788
 9230              	.LVL868:
 9231              	.L789:
2652:SynaptiX_FDK/services/cJSON/cJSON.c ****         a->child->prev = n;
 9232              		.loc 1 2652 5 is_stmt 1 view .LVU2630
2652:SynaptiX_FDK/services/cJSON/cJSON.c ****         a->child->prev = n;
 9233              		.loc 1 2652 8 is_stmt 0 view .LVU2631
 9234 0056 1EB1     		cbz	r6, .L783
2652:SynaptiX_FDK/services/cJSON/cJSON.c ****         a->child->prev = n;
 9235              		.loc 1 2652 15 discriminator 1 view .LVU2632
 9236 0058 B368     		ldr	r3, [r6, #8]
2652:SynaptiX_FDK/services/cJSON/cJSON.c ****         a->child->prev = n;
 9237              		.loc 1 2652 11 discriminator 1 view .LVU2633
 9238 005a 0BB1     		cbz	r3, .L783
2653:SynaptiX_FDK/services/cJSON/cJSON.c ****     }
 9239              		.loc 1 2653 9 is_stmt 1 view .LVU2634
2653:SynaptiX_FDK/services/cJSON/cJSON.c ****     }
 9240              		.loc 1 2653 24 is_stmt 0 view .LVU2635
 9241 005c C3F80490 		str	r9, [r3, #4]
 9242              	.LVL869:
 9243              	.L783:
2657:SynaptiX_FDK/services/cJSON/cJSON.c **** 
 9244              		.loc 1 2657 1 view .LVU2636
 9245 0060 3046     		mov	r0, r6
 9246 0062 BDE8F883 		pop	{r3, r4, r5, r6, r7, r8, r9, pc}
 9247              	.LVL870:
 9248              	.L791:
2628:SynaptiX_FDK/services/cJSON/cJSON.c ****     }
 9249              		.loc 1 2628 16 view .LVU2637
 9250 0066 0026     		movs	r6, #0
 9251 0068 FAE7     		b	.L783
 9252              	.L792:
2628:SynaptiX_FDK/services/cJSON/cJSON.c ****     }
 9253              		.loc 1 2628 16 view .LVU2638
 9254 006a 0646     		mov	r6, r0
 9255 006c F8E7     		b	.L783
 9256              		.cfi_endproc
 9257              	.LFE95:
 9259              		.section	.text.cJSON_CreateDoubleArray,"ax",%progbits
 9260              		.align	1
 9261              		.global	cJSON_CreateDoubleArray
 9262              		.syntax unified
 9263              		.thumb
 9264              		.thumb_func
 9266              	cJSON_CreateDoubleArray:
 9267              	.LVL871:
 9268              	.LFB96:
2660:SynaptiX_FDK/services/cJSON/cJSON.c ****     size_t i = 0;
 9269              		.loc 1 2660 1 is_stmt 1 view -0
 9270              		.cfi_startproc
 9271              		@ args = 0, pretend = 0, frame = 0
 9272              		@ frame_needed = 0, uses_anonymous_args = 0
2660:SynaptiX_FDK/services/cJSON/cJSON.c ****     size_t i = 0;
 9273              		.loc 1 2660 1 is_stmt 0 view .LVU2640
ARM GAS  C:\Users\DELL\AppData\Local\Temp\ccXjhdgA.s 			page 252


 9274 0000 2DE9F843 		push	{r3, r4, r5, r6, r7, r8, r9, lr}
 9275              	.LCFI158:
 9276              		.cfi_def_cfa_offset 32
 9277              		.cfi_offset 3, -32
 9278              		.cfi_offset 4, -28
 9279              		.cfi_offset 5, -24
 9280              		.cfi_offset 6, -20
 9281              		.cfi_offset 7, -16
 9282              		.cfi_offset 8, -12
 9283              		.cfi_offset 9, -8
 9284              		.cfi_offset 14, -4
2661:SynaptiX_FDK/services/cJSON/cJSON.c ****     cJSON *n = NULL;
 9285              		.loc 1 2661 5 is_stmt 1 view .LVU2641
 9286              	.LVL872:
2662:SynaptiX_FDK/services/cJSON/cJSON.c ****     cJSON *p = NULL;
 9287              		.loc 1 2662 5 view .LVU2642
2663:SynaptiX_FDK/services/cJSON/cJSON.c ****     cJSON *a = NULL;
 9288              		.loc 1 2663 5 view .LVU2643
2664:SynaptiX_FDK/services/cJSON/cJSON.c **** 
 9289              		.loc 1 2664 5 view .LVU2644
2666:SynaptiX_FDK/services/cJSON/cJSON.c ****     {
 9290              		.loc 1 2666 5 view .LVU2645
2666:SynaptiX_FDK/services/cJSON/cJSON.c ****     {
 9291              		.loc 1 2666 8 is_stmt 0 view .LVU2646
 9292 0004 B1F10008 		subs	r8, r1, #0
 9293 0008 2BDB     		blt	.L803
 9294 000a 0746     		mov	r7, r0
2666:SynaptiX_FDK/services/cJSON/cJSON.c ****     {
 9295              		.loc 1 2666 21 discriminator 1 view .LVU2647
 9296 000c 58B3     		cbz	r0, .L804
2671:SynaptiX_FDK/services/cJSON/cJSON.c **** 
 9297              		.loc 1 2671 5 is_stmt 1 view .LVU2648
2671:SynaptiX_FDK/services/cJSON/cJSON.c **** 
 9298              		.loc 1 2671 9 is_stmt 0 view .LVU2649
 9299 000e FFF7FEFF 		bl	cJSON_CreateArray
 9300              	.LVL873:
2671:SynaptiX_FDK/services/cJSON/cJSON.c **** 
 9301              		.loc 1 2671 9 view .LVU2650
 9302 0012 0646     		mov	r6, r0
 9303              	.LVL874:
2673:SynaptiX_FDK/services/cJSON/cJSON.c ****     {
 9304              		.loc 1 2673 5 is_stmt 1 view .LVU2651
2662:SynaptiX_FDK/services/cJSON/cJSON.c ****     cJSON *p = NULL;
 9305              		.loc 1 2662 12 is_stmt 0 view .LVU2652
 9306 0014 4FF00009 		mov	r9, #0
2673:SynaptiX_FDK/services/cJSON/cJSON.c ****     {
 9307              		.loc 1 2673 11 view .LVU2653
 9308 0018 4C46     		mov	r4, r9
2673:SynaptiX_FDK/services/cJSON/cJSON.c ****     {
 9309              		.loc 1 2673 5 view .LVU2654
 9310 001a 0AE0     		b	.L797
 9311              	.LVL875:
 9312              	.L806:
2678:SynaptiX_FDK/services/cJSON/cJSON.c ****             return NULL;
 9313              		.loc 1 2678 13 is_stmt 1 view .LVU2655
 9314 001c 3046     		mov	r0, r6
 9315              	.LVL876:
ARM GAS  C:\Users\DELL\AppData\Local\Temp\ccXjhdgA.s 			page 253


2678:SynaptiX_FDK/services/cJSON/cJSON.c ****             return NULL;
 9316              		.loc 1 2678 13 is_stmt 0 view .LVU2656
 9317 001e FFF7FEFF 		bl	cJSON_Delete
 9318              	.LVL877:
2679:SynaptiX_FDK/services/cJSON/cJSON.c ****         }
 9319              		.loc 1 2679 13 is_stmt 1 view .LVU2657
2679:SynaptiX_FDK/services/cJSON/cJSON.c ****         }
 9320              		.loc 1 2679 20 is_stmt 0 view .LVU2658
 9321 0022 2E46     		mov	r6, r5
 9322              	.LVL878:
2679:SynaptiX_FDK/services/cJSON/cJSON.c ****         }
 9323              		.loc 1 2679 20 view .LVU2659
 9324 0024 1AE0     		b	.L795
 9325              	.LVL879:
 9326              	.L799:
2687:SynaptiX_FDK/services/cJSON/cJSON.c ****         }
 9327              		.loc 1 2687 13 is_stmt 1 view .LVU2660
 9328 0026 0146     		mov	r1, r0
 9329 0028 4846     		mov	r0, r9
 9330              	.LVL880:
2687:SynaptiX_FDK/services/cJSON/cJSON.c ****         }
 9331              		.loc 1 2687 13 is_stmt 0 view .LVU2661
 9332 002a FFF7FEFF 		bl	suffix_object
 9333              	.LVL881:
 9334              	.L800:
2689:SynaptiX_FDK/services/cJSON/cJSON.c ****     }
 9335              		.loc 1 2689 9 is_stmt 1 view .LVU2662
2673:SynaptiX_FDK/services/cJSON/cJSON.c ****     {
 9336              		.loc 1 2673 43 discriminator 2 view .LVU2663
 9337 002e 0134     		adds	r4, r4, #1
 9338              	.LVL882:
2675:SynaptiX_FDK/services/cJSON/cJSON.c ****         if(!n)
 9339              		.loc 1 2675 13 is_stmt 0 view .LVU2664
 9340 0030 A946     		mov	r9, r5
 9341              	.LVL883:
 9342              	.L797:
2673:SynaptiX_FDK/services/cJSON/cJSON.c ****     {
 9343              		.loc 1 2673 18 is_stmt 1 discriminator 1 view .LVU2665
 9344 0032 76B1     		cbz	r6, .L801
2673:SynaptiX_FDK/services/cJSON/cJSON.c ****     {
 9345              		.loc 1 2673 18 is_stmt 0 discriminator 3 view .LVU2666
 9346 0034 A045     		cmp	r8, r4
 9347 0036 0CD9     		bls	.L801
2675:SynaptiX_FDK/services/cJSON/cJSON.c ****         if(!n)
 9348              		.loc 1 2675 9 is_stmt 1 view .LVU2667
2675:SynaptiX_FDK/services/cJSON/cJSON.c ****         if(!n)
 9349              		.loc 1 2675 39 is_stmt 0 view .LVU2668
 9350 0038 07EBC403 		add	r3, r7, r4, lsl #3
2675:SynaptiX_FDK/services/cJSON/cJSON.c ****         if(!n)
 9351              		.loc 1 2675 13 view .LVU2669
 9352 003c 93ED000B 		vldr.64	d0, [r3]
 9353 0040 FFF7FEFF 		bl	cJSON_CreateNumber
 9354              	.LVL884:
2676:SynaptiX_FDK/services/cJSON/cJSON.c ****         {
 9355              		.loc 1 2676 9 is_stmt 1 view .LVU2670
2676:SynaptiX_FDK/services/cJSON/cJSON.c ****         {
 9356              		.loc 1 2676 11 is_stmt 0 view .LVU2671
ARM GAS  C:\Users\DELL\AppData\Local\Temp\ccXjhdgA.s 			page 254


 9357 0044 0546     		mov	r5, r0
 9358 0046 0028     		cmp	r0, #0
 9359 0048 E8D0     		beq	.L806
2681:SynaptiX_FDK/services/cJSON/cJSON.c ****         {
 9360              		.loc 1 2681 9 is_stmt 1 view .LVU2672
2681:SynaptiX_FDK/services/cJSON/cJSON.c ****         {
 9361              		.loc 1 2681 11 is_stmt 0 view .LVU2673
 9362 004a 002C     		cmp	r4, #0
 9363 004c EBD1     		bne	.L799
2683:SynaptiX_FDK/services/cJSON/cJSON.c ****         }
 9364              		.loc 1 2683 13 is_stmt 1 view .LVU2674
2683:SynaptiX_FDK/services/cJSON/cJSON.c ****         }
 9365              		.loc 1 2683 22 is_stmt 0 view .LVU2675
 9366 004e B060     		str	r0, [r6, #8]
 9367 0050 EDE7     		b	.L800
 9368              	.LVL885:
 9369              	.L801:
2692:SynaptiX_FDK/services/cJSON/cJSON.c ****         a->child->prev = n;
 9370              		.loc 1 2692 5 is_stmt 1 view .LVU2676
2692:SynaptiX_FDK/services/cJSON/cJSON.c ****         a->child->prev = n;
 9371              		.loc 1 2692 8 is_stmt 0 view .LVU2677
 9372 0052 1EB1     		cbz	r6, .L795
2692:SynaptiX_FDK/services/cJSON/cJSON.c ****         a->child->prev = n;
 9373              		.loc 1 2692 15 discriminator 1 view .LVU2678
 9374 0054 B368     		ldr	r3, [r6, #8]
2692:SynaptiX_FDK/services/cJSON/cJSON.c ****         a->child->prev = n;
 9375              		.loc 1 2692 11 discriminator 1 view .LVU2679
 9376 0056 0BB1     		cbz	r3, .L795
2693:SynaptiX_FDK/services/cJSON/cJSON.c ****     }
 9377              		.loc 1 2693 9 is_stmt 1 view .LVU2680
2693:SynaptiX_FDK/services/cJSON/cJSON.c ****     }
 9378              		.loc 1 2693 24 is_stmt 0 view .LVU2681
 9379 0058 C3F80490 		str	r9, [r3, #4]
 9380              	.LVL886:
 9381              	.L795:
2697:SynaptiX_FDK/services/cJSON/cJSON.c **** 
 9382              		.loc 1 2697 1 view .LVU2682
 9383 005c 3046     		mov	r0, r6
 9384 005e BDE8F883 		pop	{r3, r4, r5, r6, r7, r8, r9, pc}
 9385              	.LVL887:
 9386              	.L803:
2668:SynaptiX_FDK/services/cJSON/cJSON.c ****     }
 9387              		.loc 1 2668 16 view .LVU2683
 9388 0062 0026     		movs	r6, #0
 9389 0064 FAE7     		b	.L795
 9390              	.L804:
2668:SynaptiX_FDK/services/cJSON/cJSON.c ****     }
 9391              		.loc 1 2668 16 view .LVU2684
 9392 0066 0646     		mov	r6, r0
 9393 0068 F8E7     		b	.L795
 9394              		.cfi_endproc
 9395              	.LFE96:
 9397              		.section	.text.cJSON_CreateStringArray,"ax",%progbits
 9398              		.align	1
 9399              		.global	cJSON_CreateStringArray
 9400              		.syntax unified
 9401              		.thumb
ARM GAS  C:\Users\DELL\AppData\Local\Temp\ccXjhdgA.s 			page 255


 9402              		.thumb_func
 9404              	cJSON_CreateStringArray:
 9405              	.LVL888:
 9406              	.LFB97:
2700:SynaptiX_FDK/services/cJSON/cJSON.c ****     size_t i = 0;
 9407              		.loc 1 2700 1 is_stmt 1 view -0
 9408              		.cfi_startproc
 9409              		@ args = 0, pretend = 0, frame = 0
 9410              		@ frame_needed = 0, uses_anonymous_args = 0
2700:SynaptiX_FDK/services/cJSON/cJSON.c ****     size_t i = 0;
 9411              		.loc 1 2700 1 is_stmt 0 view .LVU2686
 9412 0000 2DE9F843 		push	{r3, r4, r5, r6, r7, r8, r9, lr}
 9413              	.LCFI159:
 9414              		.cfi_def_cfa_offset 32
 9415              		.cfi_offset 3, -32
 9416              		.cfi_offset 4, -28
 9417              		.cfi_offset 5, -24
 9418              		.cfi_offset 6, -20
 9419              		.cfi_offset 7, -16
 9420              		.cfi_offset 8, -12
 9421              		.cfi_offset 9, -8
 9422              		.cfi_offset 14, -4
2701:SynaptiX_FDK/services/cJSON/cJSON.c ****     cJSON *n = NULL;
 9423              		.loc 1 2701 5 is_stmt 1 view .LVU2687
 9424              	.LVL889:
2702:SynaptiX_FDK/services/cJSON/cJSON.c ****     cJSON *p = NULL;
 9425              		.loc 1 2702 5 view .LVU2688
2703:SynaptiX_FDK/services/cJSON/cJSON.c ****     cJSON *a = NULL;
 9426              		.loc 1 2703 5 view .LVU2689
2704:SynaptiX_FDK/services/cJSON/cJSON.c **** 
 9427              		.loc 1 2704 5 view .LVU2690
2706:SynaptiX_FDK/services/cJSON/cJSON.c ****     {
 9428              		.loc 1 2706 5 view .LVU2691
2706:SynaptiX_FDK/services/cJSON/cJSON.c ****     {
 9429              		.loc 1 2706 8 is_stmt 0 view .LVU2692
 9430 0004 0F1E     		subs	r7, r1, #0
 9431 0006 29DB     		blt	.L815
 9432 0008 8046     		mov	r8, r0
2706:SynaptiX_FDK/services/cJSON/cJSON.c ****     {
 9433              		.loc 1 2706 21 discriminator 1 view .LVU2693
 9434 000a 48B3     		cbz	r0, .L816
2711:SynaptiX_FDK/services/cJSON/cJSON.c **** 
 9435              		.loc 1 2711 5 is_stmt 1 view .LVU2694
2711:SynaptiX_FDK/services/cJSON/cJSON.c **** 
 9436              		.loc 1 2711 9 is_stmt 0 view .LVU2695
 9437 000c FFF7FEFF 		bl	cJSON_CreateArray
 9438              	.LVL890:
2711:SynaptiX_FDK/services/cJSON/cJSON.c **** 
 9439              		.loc 1 2711 9 view .LVU2696
 9440 0010 0646     		mov	r6, r0
 9441              	.LVL891:
2713:SynaptiX_FDK/services/cJSON/cJSON.c ****     {
 9442              		.loc 1 2713 5 is_stmt 1 view .LVU2697
2702:SynaptiX_FDK/services/cJSON/cJSON.c ****     cJSON *p = NULL;
 9443              		.loc 1 2702 12 is_stmt 0 view .LVU2698
 9444 0012 4FF00009 		mov	r9, #0
2713:SynaptiX_FDK/services/cJSON/cJSON.c ****     {
ARM GAS  C:\Users\DELL\AppData\Local\Temp\ccXjhdgA.s 			page 256


 9445              		.loc 1 2713 12 view .LVU2699
 9446 0016 4C46     		mov	r4, r9
2713:SynaptiX_FDK/services/cJSON/cJSON.c ****     {
 9447              		.loc 1 2713 5 view .LVU2700
 9448 0018 0AE0     		b	.L809
 9449              	.LVL892:
 9450              	.L818:
2718:SynaptiX_FDK/services/cJSON/cJSON.c ****             return NULL;
 9451              		.loc 1 2718 13 is_stmt 1 view .LVU2701
 9452 001a 3046     		mov	r0, r6
 9453              	.LVL893:
2718:SynaptiX_FDK/services/cJSON/cJSON.c ****             return NULL;
 9454              		.loc 1 2718 13 is_stmt 0 view .LVU2702
 9455 001c FFF7FEFF 		bl	cJSON_Delete
 9456              	.LVL894:
2719:SynaptiX_FDK/services/cJSON/cJSON.c ****         }
 9457              		.loc 1 2719 13 is_stmt 1 view .LVU2703
2719:SynaptiX_FDK/services/cJSON/cJSON.c ****         }
 9458              		.loc 1 2719 20 is_stmt 0 view .LVU2704
 9459 0020 2E46     		mov	r6, r5
 9460              	.LVL895:
2719:SynaptiX_FDK/services/cJSON/cJSON.c ****         }
 9461              		.loc 1 2719 20 view .LVU2705
 9462 0022 18E0     		b	.L807
 9463              	.LVL896:
 9464              	.L811:
2727:SynaptiX_FDK/services/cJSON/cJSON.c ****         }
 9465              		.loc 1 2727 13 is_stmt 1 view .LVU2706
 9466 0024 0146     		mov	r1, r0
 9467 0026 4846     		mov	r0, r9
 9468              	.LVL897:
2727:SynaptiX_FDK/services/cJSON/cJSON.c ****         }
 9469              		.loc 1 2727 13 is_stmt 0 view .LVU2707
 9470 0028 FFF7FEFF 		bl	suffix_object
 9471              	.LVL898:
 9472              	.L812:
2729:SynaptiX_FDK/services/cJSON/cJSON.c ****     }
 9473              		.loc 1 2729 9 is_stmt 1 view .LVU2708
2713:SynaptiX_FDK/services/cJSON/cJSON.c ****     {
 9474              		.loc 1 2713 44 discriminator 2 view .LVU2709
 9475 002c 0134     		adds	r4, r4, #1
 9476              	.LVL899:
2715:SynaptiX_FDK/services/cJSON/cJSON.c ****         if(!n)
 9477              		.loc 1 2715 13 is_stmt 0 view .LVU2710
 9478 002e A946     		mov	r9, r5
 9479              	.LVL900:
 9480              	.L809:
2713:SynaptiX_FDK/services/cJSON/cJSON.c ****     {
 9481              		.loc 1 2713 19 is_stmt 1 discriminator 1 view .LVU2711
 9482 0030 66B1     		cbz	r6, .L813
2713:SynaptiX_FDK/services/cJSON/cJSON.c ****     {
 9483              		.loc 1 2713 19 is_stmt 0 discriminator 3 view .LVU2712
 9484 0032 A742     		cmp	r7, r4
 9485 0034 0AD9     		bls	.L813
2715:SynaptiX_FDK/services/cJSON/cJSON.c ****         if(!n)
 9486              		.loc 1 2715 9 is_stmt 1 view .LVU2713
2715:SynaptiX_FDK/services/cJSON/cJSON.c ****         if(!n)
ARM GAS  C:\Users\DELL\AppData\Local\Temp\ccXjhdgA.s 			page 257


 9487              		.loc 1 2715 13 is_stmt 0 view .LVU2714
 9488 0036 58F82400 		ldr	r0, [r8, r4, lsl #2]
 9489 003a FFF7FEFF 		bl	cJSON_CreateString
 9490              	.LVL901:
2716:SynaptiX_FDK/services/cJSON/cJSON.c ****         {
 9491              		.loc 1 2716 9 is_stmt 1 view .LVU2715
2716:SynaptiX_FDK/services/cJSON/cJSON.c ****         {
 9492              		.loc 1 2716 11 is_stmt 0 view .LVU2716
 9493 003e 0546     		mov	r5, r0
 9494 0040 0028     		cmp	r0, #0
 9495 0042 EAD0     		beq	.L818
2721:SynaptiX_FDK/services/cJSON/cJSON.c ****         {
 9496              		.loc 1 2721 9 is_stmt 1 view .LVU2717
2721:SynaptiX_FDK/services/cJSON/cJSON.c ****         {
 9497              		.loc 1 2721 11 is_stmt 0 view .LVU2718
 9498 0044 002C     		cmp	r4, #0
 9499 0046 EDD1     		bne	.L811
2723:SynaptiX_FDK/services/cJSON/cJSON.c ****         }
 9500              		.loc 1 2723 13 is_stmt 1 view .LVU2719
2723:SynaptiX_FDK/services/cJSON/cJSON.c ****         }
 9501              		.loc 1 2723 22 is_stmt 0 view .LVU2720
 9502 0048 B060     		str	r0, [r6, #8]
 9503 004a EFE7     		b	.L812
 9504              	.LVL902:
 9505              	.L813:
2732:SynaptiX_FDK/services/cJSON/cJSON.c ****         a->child->prev = n;
 9506              		.loc 1 2732 5 is_stmt 1 view .LVU2721
2732:SynaptiX_FDK/services/cJSON/cJSON.c ****         a->child->prev = n;
 9507              		.loc 1 2732 8 is_stmt 0 view .LVU2722
 9508 004c 1EB1     		cbz	r6, .L807
2732:SynaptiX_FDK/services/cJSON/cJSON.c ****         a->child->prev = n;
 9509              		.loc 1 2732 15 discriminator 1 view .LVU2723
 9510 004e B368     		ldr	r3, [r6, #8]
2732:SynaptiX_FDK/services/cJSON/cJSON.c ****         a->child->prev = n;
 9511              		.loc 1 2732 11 discriminator 1 view .LVU2724
 9512 0050 0BB1     		cbz	r3, .L807
2733:SynaptiX_FDK/services/cJSON/cJSON.c ****     }
 9513              		.loc 1 2733 9 is_stmt 1 view .LVU2725
2733:SynaptiX_FDK/services/cJSON/cJSON.c ****     }
 9514              		.loc 1 2733 24 is_stmt 0 view .LVU2726
 9515 0052 C3F80490 		str	r9, [r3, #4]
 9516              	.LVL903:
 9517              	.L807:
2737:SynaptiX_FDK/services/cJSON/cJSON.c **** 
 9518              		.loc 1 2737 1 view .LVU2727
 9519 0056 3046     		mov	r0, r6
 9520 0058 BDE8F883 		pop	{r3, r4, r5, r6, r7, r8, r9, pc}
 9521              	.LVL904:
 9522              	.L815:
2708:SynaptiX_FDK/services/cJSON/cJSON.c ****     }
 9523              		.loc 1 2708 16 view .LVU2728
 9524 005c 0026     		movs	r6, #0
 9525 005e FAE7     		b	.L807
 9526              	.L816:
2708:SynaptiX_FDK/services/cJSON/cJSON.c ****     }
 9527              		.loc 1 2708 16 view .LVU2729
 9528 0060 0646     		mov	r6, r0
ARM GAS  C:\Users\DELL\AppData\Local\Temp\ccXjhdgA.s 			page 258


 9529 0062 F8E7     		b	.L807
 9530              		.cfi_endproc
 9531              	.LFE97:
 9533              		.section	.text.cJSON_Duplicate_rec,"ax",%progbits
 9534              		.align	1
 9535              		.global	cJSON_Duplicate_rec
 9536              		.syntax unified
 9537              		.thumb
 9538              		.thumb_func
 9540              	cJSON_Duplicate_rec:
 9541              	.LVL905:
 9542              	.LFB99:
2748:SynaptiX_FDK/services/cJSON/cJSON.c ****     cJSON *newitem = NULL;
 9543              		.loc 1 2748 1 is_stmt 1 view -0
 9544              		.cfi_startproc
 9545              		@ args = 0, pretend = 0, frame = 0
 9546              		@ frame_needed = 0, uses_anonymous_args = 0
2748:SynaptiX_FDK/services/cJSON/cJSON.c ****     cJSON *newitem = NULL;
 9547              		.loc 1 2748 1 is_stmt 0 view .LVU2731
 9548 0000 F8B5     		push	{r3, r4, r5, r6, r7, lr}
 9549              	.LCFI160:
 9550              		.cfi_def_cfa_offset 24
 9551              		.cfi_offset 3, -24
 9552              		.cfi_offset 4, -20
 9553              		.cfi_offset 5, -16
 9554              		.cfi_offset 6, -12
 9555              		.cfi_offset 7, -8
 9556              		.cfi_offset 14, -4
2749:SynaptiX_FDK/services/cJSON/cJSON.c ****     cJSON *child = NULL;
 9557              		.loc 1 2749 5 is_stmt 1 view .LVU2732
 9558              	.LVL906:
2750:SynaptiX_FDK/services/cJSON/cJSON.c ****     cJSON *next = NULL;
 9559              		.loc 1 2750 5 view .LVU2733
2751:SynaptiX_FDK/services/cJSON/cJSON.c ****     cJSON *newchild = NULL;
 9560              		.loc 1 2751 5 view .LVU2734
2752:SynaptiX_FDK/services/cJSON/cJSON.c **** 
 9561              		.loc 1 2752 5 view .LVU2735
2755:SynaptiX_FDK/services/cJSON/cJSON.c ****     {
 9562              		.loc 1 2755 5 view .LVU2736
2755:SynaptiX_FDK/services/cJSON/cJSON.c ****     {
 9563              		.loc 1 2755 8 is_stmt 0 view .LVU2737
 9564 0002 0446     		mov	r4, r0
 9565 0004 0028     		cmp	r0, #0
 9566 0006 47D0     		beq	.L829
 9567 0008 0F46     		mov	r7, r1
 9568 000a 1646     		mov	r6, r2
2760:SynaptiX_FDK/services/cJSON/cJSON.c ****     if (!newitem)
 9569              		.loc 1 2760 5 is_stmt 1 view .LVU2738
2760:SynaptiX_FDK/services/cJSON/cJSON.c ****     if (!newitem)
 9570              		.loc 1 2760 15 is_stmt 0 view .LVU2739
 9571 000c 2348     		ldr	r0, .L834
 9572              	.LVL907:
2760:SynaptiX_FDK/services/cJSON/cJSON.c ****     if (!newitem)
 9573              		.loc 1 2760 15 view .LVU2740
 9574 000e FFF7FEFF 		bl	cJSON_New_Item
 9575              	.LVL908:
2761:SynaptiX_FDK/services/cJSON/cJSON.c ****     {
ARM GAS  C:\Users\DELL\AppData\Local\Temp\ccXjhdgA.s 			page 259


 9576              		.loc 1 2761 5 is_stmt 1 view .LVU2741
2761:SynaptiX_FDK/services/cJSON/cJSON.c ****     {
 9577              		.loc 1 2761 8 is_stmt 0 view .LVU2742
 9578 0012 0546     		mov	r5, r0
 9579 0014 0028     		cmp	r0, #0
 9580 0016 36D0     		beq	.L819
2766:SynaptiX_FDK/services/cJSON/cJSON.c ****     newitem->valueint = item->valueint;
 9581              		.loc 1 2766 5 is_stmt 1 view .LVU2743
2766:SynaptiX_FDK/services/cJSON/cJSON.c ****     newitem->valueint = item->valueint;
 9582              		.loc 1 2766 25 is_stmt 0 view .LVU2744
 9583 0018 E368     		ldr	r3, [r4, #12]
2766:SynaptiX_FDK/services/cJSON/cJSON.c ****     newitem->valueint = item->valueint;
 9584              		.loc 1 2766 32 view .LVU2745
 9585 001a 23F48073 		bic	r3, r3, #256
2766:SynaptiX_FDK/services/cJSON/cJSON.c ****     newitem->valueint = item->valueint;
 9586              		.loc 1 2766 19 view .LVU2746
 9587 001e C360     		str	r3, [r0, #12]
2767:SynaptiX_FDK/services/cJSON/cJSON.c ****     newitem->valuedouble = item->valuedouble;
 9588              		.loc 1 2767 5 is_stmt 1 view .LVU2747
2767:SynaptiX_FDK/services/cJSON/cJSON.c ****     newitem->valuedouble = item->valuedouble;
 9589              		.loc 1 2767 29 is_stmt 0 view .LVU2748
 9590 0020 6369     		ldr	r3, [r4, #20]
2767:SynaptiX_FDK/services/cJSON/cJSON.c ****     newitem->valuedouble = item->valuedouble;
 9591              		.loc 1 2767 23 view .LVU2749
 9592 0022 4361     		str	r3, [r0, #20]
2768:SynaptiX_FDK/services/cJSON/cJSON.c ****     if (item->valuestring)
 9593              		.loc 1 2768 5 is_stmt 1 view .LVU2750
2768:SynaptiX_FDK/services/cJSON/cJSON.c ****     if (item->valuestring)
 9594              		.loc 1 2768 32 is_stmt 0 view .LVU2751
 9595 0024 D4E90623 		ldrd	r2, [r4, #24]
2768:SynaptiX_FDK/services/cJSON/cJSON.c ****     if (item->valuestring)
 9596              		.loc 1 2768 26 view .LVU2752
 9597 0028 C0E90623 		strd	r2, [r0, #24]
2769:SynaptiX_FDK/services/cJSON/cJSON.c ****     {
 9598              		.loc 1 2769 5 is_stmt 1 view .LVU2753
2769:SynaptiX_FDK/services/cJSON/cJSON.c ****     {
 9599              		.loc 1 2769 13 is_stmt 0 view .LVU2754
 9600 002c 2069     		ldr	r0, [r4, #16]
 9601              	.LVL909:
2769:SynaptiX_FDK/services/cJSON/cJSON.c ****     {
 9602              		.loc 1 2769 8 view .LVU2755
 9603 002e 20B1     		cbz	r0, .L821
2771:SynaptiX_FDK/services/cJSON/cJSON.c ****         if (!newitem->valuestring)
 9604              		.loc 1 2771 9 is_stmt 1 view .LVU2756
2771:SynaptiX_FDK/services/cJSON/cJSON.c ****         if (!newitem->valuestring)
 9605              		.loc 1 2771 39 is_stmt 0 view .LVU2757
 9606 0030 1A49     		ldr	r1, .L834
 9607 0032 FFF7FEFF 		bl	cJSON_strdup
 9608              	.LVL910:
2771:SynaptiX_FDK/services/cJSON/cJSON.c ****         if (!newitem->valuestring)
 9609              		.loc 1 2771 30 discriminator 1 view .LVU2758
 9610 0036 2861     		str	r0, [r5, #16]
2772:SynaptiX_FDK/services/cJSON/cJSON.c ****         {
 9611              		.loc 1 2772 9 is_stmt 1 view .LVU2759
2772:SynaptiX_FDK/services/cJSON/cJSON.c ****         {
 9612              		.loc 1 2772 12 is_stmt 0 view .LVU2760
 9613 0038 08B3     		cbz	r0, .L822
ARM GAS  C:\Users\DELL\AppData\Local\Temp\ccXjhdgA.s 			page 260


 9614              	.L821:
2777:SynaptiX_FDK/services/cJSON/cJSON.c ****     {
 9615              		.loc 1 2777 5 is_stmt 1 view .LVU2761
2777:SynaptiX_FDK/services/cJSON/cJSON.c ****     {
 9616              		.loc 1 2777 13 is_stmt 0 view .LVU2762
 9617 003a 206A     		ldr	r0, [r4, #32]
2777:SynaptiX_FDK/services/cJSON/cJSON.c ****     {
 9618              		.loc 1 2777 8 view .LVU2763
 9619 003c 28B1     		cbz	r0, .L823
2779:SynaptiX_FDK/services/cJSON/cJSON.c ****         if (!newitem->string)
 9620              		.loc 1 2779 9 is_stmt 1 view .LVU2764
2779:SynaptiX_FDK/services/cJSON/cJSON.c ****         if (!newitem->string)
 9621              		.loc 1 2779 32 is_stmt 0 view .LVU2765
 9622 003e E368     		ldr	r3, [r4, #12]
2779:SynaptiX_FDK/services/cJSON/cJSON.c ****         if (!newitem->string)
 9623              		.loc 1 2779 75 view .LVU2766
 9624 0040 13F4007F 		tst	r3, #512
 9625 0044 05D0     		beq	.L831
 9626              	.L824:
2779:SynaptiX_FDK/services/cJSON/cJSON.c ****         if (!newitem->string)
 9627              		.loc 1 2779 25 discriminator 4 view .LVU2767
 9628 0046 2862     		str	r0, [r5, #32]
2780:SynaptiX_FDK/services/cJSON/cJSON.c ****         {
 9629              		.loc 1 2780 9 is_stmt 1 view .LVU2768
2780:SynaptiX_FDK/services/cJSON/cJSON.c ****         {
 9630              		.loc 1 2780 12 is_stmt 0 view .LVU2769
 9631 0048 C8B1     		cbz	r0, .L822
 9632              	.L823:
2786:SynaptiX_FDK/services/cJSON/cJSON.c ****     {
 9633              		.loc 1 2786 5 is_stmt 1 view .LVU2770
2786:SynaptiX_FDK/services/cJSON/cJSON.c ****     {
 9634              		.loc 1 2786 8 is_stmt 0 view .LVU2771
 9635 004a E6B1     		cbz	r6, .L819
2791:SynaptiX_FDK/services/cJSON/cJSON.c ****     while (child != NULL)
 9636              		.loc 1 2791 5 is_stmt 1 view .LVU2772
2791:SynaptiX_FDK/services/cJSON/cJSON.c ****     while (child != NULL)
 9637              		.loc 1 2791 11 is_stmt 0 view .LVU2773
 9638 004c A468     		ldr	r4, [r4, #8]
 9639              	.LVL911:
2792:SynaptiX_FDK/services/cJSON/cJSON.c ****     {
 9640              		.loc 1 2792 5 is_stmt 1 view .LVU2774
2751:SynaptiX_FDK/services/cJSON/cJSON.c ****     cJSON *newchild = NULL;
 9641              		.loc 1 2751 12 is_stmt 0 view .LVU2775
 9642 004e 0026     		movs	r6, #0
 9643              	.LVL912:
2792:SynaptiX_FDK/services/cJSON/cJSON.c ****     {
 9644              		.loc 1 2792 11 view .LVU2776
 9645 0050 08E0     		b	.L825
 9646              	.LVL913:
 9647              	.L831:
2779:SynaptiX_FDK/services/cJSON/cJSON.c ****         if (!newitem->string)
 9648              		.loc 1 2779 84 discriminator 2 view .LVU2777
 9649 0052 1249     		ldr	r1, .L834
 9650 0054 FFF7FEFF 		bl	cJSON_strdup
 9651              	.LVL914:
 9652 0058 F5E7     		b	.L824
 9653              	.LVL915:
ARM GAS  C:\Users\DELL\AppData\Local\Temp\ccXjhdgA.s 			page 261


 9654              	.L833:
2802:SynaptiX_FDK/services/cJSON/cJSON.c ****         {
 9655              		.loc 1 2802 9 is_stmt 1 view .LVU2778
2802:SynaptiX_FDK/services/cJSON/cJSON.c ****         {
 9656              		.loc 1 2802 12 is_stmt 0 view .LVU2779
 9657 005a B6B1     		cbz	r6, .L826
2805:SynaptiX_FDK/services/cJSON/cJSON.c ****             newchild->prev = next;
 9658              		.loc 1 2805 13 is_stmt 1 view .LVU2780
2805:SynaptiX_FDK/services/cJSON/cJSON.c ****             newchild->prev = next;
 9659              		.loc 1 2805 24 is_stmt 0 view .LVU2781
 9660 005c 3060     		str	r0, [r6]
2806:SynaptiX_FDK/services/cJSON/cJSON.c ****             next = newchild;
 9661              		.loc 1 2806 13 is_stmt 1 view .LVU2782
2806:SynaptiX_FDK/services/cJSON/cJSON.c ****             next = newchild;
 9662              		.loc 1 2806 28 is_stmt 0 view .LVU2783
 9663 005e 4660     		str	r6, [r0, #4]
2807:SynaptiX_FDK/services/cJSON/cJSON.c ****         }
 9664              		.loc 1 2807 13 is_stmt 1 view .LVU2784
 9665              	.LVL916:
 9666              	.L827:
2815:SynaptiX_FDK/services/cJSON/cJSON.c ****     }
 9667              		.loc 1 2815 9 view .LVU2785
2815:SynaptiX_FDK/services/cJSON/cJSON.c ****     }
 9668              		.loc 1 2815 15 is_stmt 0 view .LVU2786
 9669 0060 2468     		ldr	r4, [r4]
 9670              	.LVL917:
2815:SynaptiX_FDK/services/cJSON/cJSON.c ****     }
 9671              		.loc 1 2815 15 view .LVU2787
 9672 0062 1E46     		mov	r6, r3
 9673              	.LVL918:
 9674              	.L825:
2792:SynaptiX_FDK/services/cJSON/cJSON.c ****     {
 9675              		.loc 1 2792 18 is_stmt 1 view .LVU2788
 9676 0064 9CB1     		cbz	r4, .L832
2794:SynaptiX_FDK/services/cJSON/cJSON.c ****             goto fail;
 9677              		.loc 1 2794 9 view .LVU2789
2794:SynaptiX_FDK/services/cJSON/cJSON.c ****             goto fail;
 9678              		.loc 1 2794 11 is_stmt 0 view .LVU2790
 9679 0066 42F20F73 		movw	r3, #9999
 9680 006a 9F42     		cmp	r7, r3
 9681 006c 07D8     		bhi	.L822
2797:SynaptiX_FDK/services/cJSON/cJSON.c ****         if (!newchild)
 9682              		.loc 1 2797 9 is_stmt 1 view .LVU2791
2797:SynaptiX_FDK/services/cJSON/cJSON.c ****         if (!newchild)
 9683              		.loc 1 2797 20 is_stmt 0 view .LVU2792
 9684 006e 0122     		movs	r2, #1
 9685 0070 B918     		adds	r1, r7, r2
 9686 0072 2046     		mov	r0, r4
 9687 0074 FFF7FEFF 		bl	cJSON_Duplicate_rec
 9688              	.LVL919:
2798:SynaptiX_FDK/services/cJSON/cJSON.c ****         {
 9689              		.loc 1 2798 9 is_stmt 1 view .LVU2793
2798:SynaptiX_FDK/services/cJSON/cJSON.c ****         {
 9690              		.loc 1 2798 12 is_stmt 0 view .LVU2794
 9691 0078 0346     		mov	r3, r0
 9692 007a 0028     		cmp	r0, #0
 9693 007c EDD1     		bne	.L833
ARM GAS  C:\Users\DELL\AppData\Local\Temp\ccXjhdgA.s 			page 262


 9694              	.LVL920:
 9695              	.L822:
2827:SynaptiX_FDK/services/cJSON/cJSON.c ****     }
 9696              		.loc 1 2827 9 is_stmt 1 view .LVU2795
 9697 007e 2846     		mov	r0, r5
 9698 0080 FFF7FEFF 		bl	cJSON_Delete
 9699              	.LVL921:
2830:SynaptiX_FDK/services/cJSON/cJSON.c **** }
 9700              		.loc 1 2830 12 is_stmt 0 view .LVU2796
 9701 0084 0025     		movs	r5, #0
 9702              	.LVL922:
 9703              	.L819:
2831:SynaptiX_FDK/services/cJSON/cJSON.c **** 
 9704              		.loc 1 2831 1 view .LVU2797
 9705 0086 2846     		mov	r0, r5
 9706 0088 F8BD     		pop	{r3, r4, r5, r6, r7, pc}
 9707              	.LVL923:
 9708              	.L826:
2812:SynaptiX_FDK/services/cJSON/cJSON.c ****             next = newchild;
 9709              		.loc 1 2812 13 is_stmt 1 view .LVU2798
2812:SynaptiX_FDK/services/cJSON/cJSON.c ****             next = newchild;
 9710              		.loc 1 2812 28 is_stmt 0 view .LVU2799
 9711 008a A860     		str	r0, [r5, #8]
2813:SynaptiX_FDK/services/cJSON/cJSON.c ****         }
 9712              		.loc 1 2813 13 is_stmt 1 view .LVU2800
 9713 008c E8E7     		b	.L827
 9714              	.LVL924:
 9715              	.L832:
2817:SynaptiX_FDK/services/cJSON/cJSON.c ****     {
 9716              		.loc 1 2817 5 view .LVU2801
2817:SynaptiX_FDK/services/cJSON/cJSON.c ****     {
 9717              		.loc 1 2817 27 is_stmt 0 discriminator 1 view .LVU2802
 9718 008e AB68     		ldr	r3, [r5, #8]
2817:SynaptiX_FDK/services/cJSON/cJSON.c ****     {
 9719              		.loc 1 2817 17 discriminator 1 view .LVU2803
 9720 0090 002B     		cmp	r3, #0
 9721 0092 F8D0     		beq	.L819
2819:SynaptiX_FDK/services/cJSON/cJSON.c ****     }
 9722              		.loc 1 2819 9 is_stmt 1 view .LVU2804
2819:SynaptiX_FDK/services/cJSON/cJSON.c ****     }
 9723              		.loc 1 2819 30 is_stmt 0 view .LVU2805
 9724 0094 5E60     		str	r6, [r3, #4]
 9725 0096 F6E7     		b	.L819
 9726              	.LVL925:
 9727              	.L829:
2830:SynaptiX_FDK/services/cJSON/cJSON.c **** }
 9728              		.loc 1 2830 12 view .LVU2806
 9729 0098 0546     		mov	r5, r0
 9730              	.LVL926:
2830:SynaptiX_FDK/services/cJSON/cJSON.c **** }
 9731              		.loc 1 2830 12 view .LVU2807
 9732 009a F4E7     		b	.L819
 9733              	.L835:
 9734              		.align	2
 9735              	.L834:
 9736 009c 00000000 		.word	global_hooks
 9737              		.cfi_endproc
ARM GAS  C:\Users\DELL\AppData\Local\Temp\ccXjhdgA.s 			page 263


 9738              	.LFE99:
 9740              		.section	.text.cJSON_Duplicate,"ax",%progbits
 9741              		.align	1
 9742              		.global	cJSON_Duplicate
 9743              		.syntax unified
 9744              		.thumb
 9745              		.thumb_func
 9747              	cJSON_Duplicate:
 9748              	.LVL927:
 9749              	.LFB98:
2743:SynaptiX_FDK/services/cJSON/cJSON.c ****     return cJSON_Duplicate_rec(item, 0, recurse );
 9750              		.loc 1 2743 1 is_stmt 1 view -0
 9751              		.cfi_startproc
 9752              		@ args = 0, pretend = 0, frame = 0
 9753              		@ frame_needed = 0, uses_anonymous_args = 0
2743:SynaptiX_FDK/services/cJSON/cJSON.c ****     return cJSON_Duplicate_rec(item, 0, recurse );
 9754              		.loc 1 2743 1 is_stmt 0 view .LVU2809
 9755 0000 08B5     		push	{r3, lr}
 9756              	.LCFI161:
 9757              		.cfi_def_cfa_offset 8
 9758              		.cfi_offset 3, -8
 9759              		.cfi_offset 14, -4
 9760 0002 0A46     		mov	r2, r1
2744:SynaptiX_FDK/services/cJSON/cJSON.c **** }
 9761              		.loc 1 2744 5 is_stmt 1 view .LVU2810
2744:SynaptiX_FDK/services/cJSON/cJSON.c **** }
 9762              		.loc 1 2744 12 is_stmt 0 view .LVU2811
 9763 0004 0021     		movs	r1, #0
 9764              	.LVL928:
2744:SynaptiX_FDK/services/cJSON/cJSON.c **** }
 9765              		.loc 1 2744 12 view .LVU2812
 9766 0006 FFF7FEFF 		bl	cJSON_Duplicate_rec
 9767              	.LVL929:
2745:SynaptiX_FDK/services/cJSON/cJSON.c **** 
 9768              		.loc 1 2745 1 view .LVU2813
 9769 000a 08BD     		pop	{r3, pc}
 9770              		.cfi_endproc
 9771              	.LFE98:
 9773              		.section	.text.cJSON_Minify,"ax",%progbits
 9774              		.align	1
 9775              		.global	cJSON_Minify
 9776              		.syntax unified
 9777              		.thumb
 9778              		.thumb_func
 9780              	cJSON_Minify:
 9781              	.LVL930:
 9782              	.LFB103:
2881:SynaptiX_FDK/services/cJSON/cJSON.c **** 
2882:SynaptiX_FDK/services/cJSON/cJSON.c **** CJSON_PUBLIC(void) cJSON_Minify(char *json)
2883:SynaptiX_FDK/services/cJSON/cJSON.c **** {
 9783              		.loc 1 2883 1 is_stmt 1 view -0
 9784              		.cfi_startproc
 9785              		@ args = 0, pretend = 0, frame = 16
 9786              		@ frame_needed = 0, uses_anonymous_args = 0
 9787              		.loc 1 2883 1 is_stmt 0 view .LVU2815
 9788 0000 00B5     		push	{lr}
 9789              	.LCFI162:
ARM GAS  C:\Users\DELL\AppData\Local\Temp\ccXjhdgA.s 			page 264


 9790              		.cfi_def_cfa_offset 4
 9791              		.cfi_offset 14, -4
 9792 0002 85B0     		sub	sp, sp, #20
 9793              	.LCFI163:
 9794              		.cfi_def_cfa_offset 24
 9795 0004 0190     		str	r0, [sp, #4]
2884:SynaptiX_FDK/services/cJSON/cJSON.c ****     char *into = json;
 9796              		.loc 1 2884 5 is_stmt 1 view .LVU2816
 9797              		.loc 1 2884 11 is_stmt 0 view .LVU2817
 9798 0006 0390     		str	r0, [sp, #12]
2885:SynaptiX_FDK/services/cJSON/cJSON.c **** 
2886:SynaptiX_FDK/services/cJSON/cJSON.c ****     if (json == NULL)
 9799              		.loc 1 2886 5 is_stmt 1 view .LVU2818
 9800              		.loc 1 2886 8 is_stmt 0 view .LVU2819
 9801 0008 00BB     		cbnz	r0, .L839
 9802 000a 7CE0     		b	.L838
 9803              	.LVL931:
 9804              	.L845:
2887:SynaptiX_FDK/services/cJSON/cJSON.c ****     {
2888:SynaptiX_FDK/services/cJSON/cJSON.c ****         return;
2889:SynaptiX_FDK/services/cJSON/cJSON.c ****     }
2890:SynaptiX_FDK/services/cJSON/cJSON.c **** 
2891:SynaptiX_FDK/services/cJSON/cJSON.c ****     while (json[0] != '\0')
2892:SynaptiX_FDK/services/cJSON/cJSON.c ****     {
2893:SynaptiX_FDK/services/cJSON/cJSON.c ****         switch (json[0])
2894:SynaptiX_FDK/services/cJSON/cJSON.c ****         {
2895:SynaptiX_FDK/services/cJSON/cJSON.c ****             case ' ':
2896:SynaptiX_FDK/services/cJSON/cJSON.c ****             case '\t':
2897:SynaptiX_FDK/services/cJSON/cJSON.c ****             case '\r':
2898:SynaptiX_FDK/services/cJSON/cJSON.c ****             case '\n':
2899:SynaptiX_FDK/services/cJSON/cJSON.c ****                 json++;
 9805              		.loc 1 2899 17 is_stmt 1 view .LVU2820
 9806              		.loc 1 2899 21 is_stmt 0 view .LVU2821
 9807 000c 0131     		adds	r1, r1, #1
 9808 000e 0191     		str	r1, [sp, #4]
2900:SynaptiX_FDK/services/cJSON/cJSON.c ****                 break;
 9809              		.loc 1 2900 17 is_stmt 1 view .LVU2822
 9810 0010 1CE0     		b	.L839
 9811              	.L842:
2901:SynaptiX_FDK/services/cJSON/cJSON.c **** 
2902:SynaptiX_FDK/services/cJSON/cJSON.c ****             case '/':
2903:SynaptiX_FDK/services/cJSON/cJSON.c ****                 if (json[1] == '/')
 9812              		.loc 1 2903 17 view .LVU2823
 9813              		.loc 1 2903 25 is_stmt 0 view .LVU2824
 9814 0012 4B78     		ldrb	r3, [r1, #1]	@ zero_extendqisi2
 9815              		.loc 1 2903 20 view .LVU2825
 9816 0014 2F2B     		cmp	r3, #47
 9817 0016 04D0     		beq	.L851
2904:SynaptiX_FDK/services/cJSON/cJSON.c ****                 {
2905:SynaptiX_FDK/services/cJSON/cJSON.c ****                     skip_oneline_comment(&json);
2906:SynaptiX_FDK/services/cJSON/cJSON.c ****                 }
2907:SynaptiX_FDK/services/cJSON/cJSON.c ****                 else if (json[1] == '*')
 9818              		.loc 1 2907 22 is_stmt 1 view .LVU2826
 9819              		.loc 1 2907 25 is_stmt 0 view .LVU2827
 9820 0018 2A2B     		cmp	r3, #42
 9821 001a 06D0     		beq	.L852
2908:SynaptiX_FDK/services/cJSON/cJSON.c ****                 {
ARM GAS  C:\Users\DELL\AppData\Local\Temp\ccXjhdgA.s 			page 265


2909:SynaptiX_FDK/services/cJSON/cJSON.c ****                     skip_multiline_comment(&json);
2910:SynaptiX_FDK/services/cJSON/cJSON.c ****                 } else {
2911:SynaptiX_FDK/services/cJSON/cJSON.c ****                     json++;
 9822              		.loc 1 2911 21 is_stmt 1 view .LVU2828
 9823              		.loc 1 2911 25 is_stmt 0 view .LVU2829
 9824 001c 0131     		adds	r1, r1, #1
 9825 001e 0191     		str	r1, [sp, #4]
 9826 0020 14E0     		b	.L839
 9827              	.L851:
2905:SynaptiX_FDK/services/cJSON/cJSON.c ****                 }
 9828              		.loc 1 2905 21 is_stmt 1 view .LVU2830
 9829 0022 01A8     		add	r0, sp, #4
 9830 0024 FFF7FEFF 		bl	skip_oneline_comment
 9831              	.LVL932:
 9832 0028 10E0     		b	.L839
 9833              	.L852:
2909:SynaptiX_FDK/services/cJSON/cJSON.c ****                 } else {
 9834              		.loc 1 2909 21 view .LVU2831
 9835 002a 01A8     		add	r0, sp, #4
 9836 002c FFF7FEFF 		bl	skip_multiline_comment
 9837              	.LVL933:
 9838 0030 0CE0     		b	.L839
 9839              	.L844:
2912:SynaptiX_FDK/services/cJSON/cJSON.c ****                 }
2913:SynaptiX_FDK/services/cJSON/cJSON.c ****                 break;
2914:SynaptiX_FDK/services/cJSON/cJSON.c **** 
2915:SynaptiX_FDK/services/cJSON/cJSON.c ****             case '\"':
2916:SynaptiX_FDK/services/cJSON/cJSON.c ****                 minify_string(&json, (char**)&into);
 9840              		.loc 1 2916 17 view .LVU2832
 9841 0032 03A9     		add	r1, sp, #12
 9842 0034 01A8     		add	r0, sp, #4
 9843 0036 FFF7FEFF 		bl	minify_string
 9844              	.LVL934:
2917:SynaptiX_FDK/services/cJSON/cJSON.c ****                 break;
 9845              		.loc 1 2917 17 view .LVU2833
 9846 003a 07E0     		b	.L839
 9847              	.L841:
2918:SynaptiX_FDK/services/cJSON/cJSON.c **** 
2919:SynaptiX_FDK/services/cJSON/cJSON.c ****             default:
2920:SynaptiX_FDK/services/cJSON/cJSON.c ****                 into[0] = json[0];
 9848              		.loc 1 2920 17 view .LVU2834
 9849              		.loc 1 2920 21 is_stmt 0 view .LVU2835
 9850 003c 039A     		ldr	r2, [sp, #12]
 9851              		.loc 1 2920 25 view .LVU2836
 9852 003e 1370     		strb	r3, [r2]
2921:SynaptiX_FDK/services/cJSON/cJSON.c ****                 json++;
 9853              		.loc 1 2921 17 is_stmt 1 view .LVU2837
 9854              		.loc 1 2921 21 is_stmt 0 view .LVU2838
 9855 0040 019B     		ldr	r3, [sp, #4]
 9856 0042 0133     		adds	r3, r3, #1
 9857 0044 0193     		str	r3, [sp, #4]
2922:SynaptiX_FDK/services/cJSON/cJSON.c ****                 into++;
 9858              		.loc 1 2922 17 is_stmt 1 view .LVU2839
 9859              		.loc 1 2922 21 is_stmt 0 view .LVU2840
 9860 0046 039B     		ldr	r3, [sp, #12]
 9861 0048 0133     		adds	r3, r3, #1
 9862 004a 0393     		str	r3, [sp, #12]
ARM GAS  C:\Users\DELL\AppData\Local\Temp\ccXjhdgA.s 			page 266


 9863              	.L839:
2891:SynaptiX_FDK/services/cJSON/cJSON.c ****     {
 9864              		.loc 1 2891 20 is_stmt 1 view .LVU2841
2891:SynaptiX_FDK/services/cJSON/cJSON.c ****     {
 9865              		.loc 1 2891 16 is_stmt 0 view .LVU2842
 9866 004c 0199     		ldr	r1, [sp, #4]
 9867 004e 0B78     		ldrb	r3, [r1]	@ zero_extendqisi2
2891:SynaptiX_FDK/services/cJSON/cJSON.c ****     {
 9868              		.loc 1 2891 20 view .LVU2843
 9869 0050 002B     		cmp	r3, #0
 9870 0052 55D0     		beq	.L853
2893:SynaptiX_FDK/services/cJSON/cJSON.c ****         {
 9871              		.loc 1 2893 9 is_stmt 1 view .LVU2844
 9872 0054 A3F10902 		sub	r2, r3, #9
 9873 0058 262A     		cmp	r2, #38
 9874 005a EFD8     		bhi	.L841
 9875 005c 01A0     		adr	r0, .L843
 9876 005e 50F822F0 		ldr	pc, [r0, r2, lsl #2]
 9877 0062 00BF     		.p2align 2
 9878              	.L843:
 9879 0064 0D000000 		.word	.L845+1
 9880 0068 0D000000 		.word	.L845+1
 9881 006c 3D000000 		.word	.L841+1
 9882 0070 3D000000 		.word	.L841+1
 9883 0074 0D000000 		.word	.L845+1
 9884 0078 3D000000 		.word	.L841+1
 9885 007c 3D000000 		.word	.L841+1
 9886 0080 3D000000 		.word	.L841+1
 9887 0084 3D000000 		.word	.L841+1
 9888 0088 3D000000 		.word	.L841+1
 9889 008c 3D000000 		.word	.L841+1
 9890 0090 3D000000 		.word	.L841+1
 9891 0094 3D000000 		.word	.L841+1
 9892 0098 3D000000 		.word	.L841+1
 9893 009c 3D000000 		.word	.L841+1
 9894 00a0 3D000000 		.word	.L841+1
 9895 00a4 3D000000 		.word	.L841+1
 9896 00a8 3D000000 		.word	.L841+1
 9897 00ac 3D000000 		.word	.L841+1
 9898 00b0 3D000000 		.word	.L841+1
 9899 00b4 3D000000 		.word	.L841+1
 9900 00b8 3D000000 		.word	.L841+1
 9901 00bc 3D000000 		.word	.L841+1
 9902 00c0 0D000000 		.word	.L845+1
 9903 00c4 3D000000 		.word	.L841+1
 9904 00c8 33000000 		.word	.L844+1
 9905 00cc 3D000000 		.word	.L841+1
 9906 00d0 3D000000 		.word	.L841+1
 9907 00d4 3D000000 		.word	.L841+1
 9908 00d8 3D000000 		.word	.L841+1
 9909 00dc 3D000000 		.word	.L841+1
 9910 00e0 3D000000 		.word	.L841+1
 9911 00e4 3D000000 		.word	.L841+1
 9912 00e8 3D000000 		.word	.L841+1
 9913 00ec 3D000000 		.word	.L841+1
 9914 00f0 3D000000 		.word	.L841+1
 9915 00f4 3D000000 		.word	.L841+1
ARM GAS  C:\Users\DELL\AppData\Local\Temp\ccXjhdgA.s 			page 267


 9916 00f8 3D000000 		.word	.L841+1
 9917 00fc 13000000 		.word	.L842+1
 9918              		.p2align 1
 9919              	.L853:
2923:SynaptiX_FDK/services/cJSON/cJSON.c ****         }
2924:SynaptiX_FDK/services/cJSON/cJSON.c ****     }
2925:SynaptiX_FDK/services/cJSON/cJSON.c **** 
2926:SynaptiX_FDK/services/cJSON/cJSON.c ****     /* and null-terminate. */
2927:SynaptiX_FDK/services/cJSON/cJSON.c ****     *into = '\0';
 9920              		.loc 1 2927 5 view .LVU2845
 9921              		.loc 1 2927 11 is_stmt 0 view .LVU2846
 9922 0100 039B     		ldr	r3, [sp, #12]
 9923 0102 0022     		movs	r2, #0
 9924 0104 1A70     		strb	r2, [r3]
 9925              	.L838:
2928:SynaptiX_FDK/services/cJSON/cJSON.c **** }
 9926              		.loc 1 2928 1 view .LVU2847
 9927 0106 05B0     		add	sp, sp, #20
 9928              	.LCFI164:
 9929              		.cfi_def_cfa_offset 4
 9930              		@ sp needed
 9931 0108 00BD     		pop	{pc}
 9932              		.cfi_endproc
 9933              	.LFE103:
 9935 010a 00BF     		.section	.text.cJSON_IsInvalid,"ax",%progbits
 9936              		.align	1
 9937              		.global	cJSON_IsInvalid
 9938              		.syntax unified
 9939              		.thumb
 9940              		.thumb_func
 9942              	cJSON_IsInvalid:
 9943              	.LVL935:
 9944              	.LFB104:
2929:SynaptiX_FDK/services/cJSON/cJSON.c **** 
2930:SynaptiX_FDK/services/cJSON/cJSON.c **** CJSON_PUBLIC(cJSON_bool) cJSON_IsInvalid(const cJSON * const item)
2931:SynaptiX_FDK/services/cJSON/cJSON.c **** {
 9945              		.loc 1 2931 1 is_stmt 1 view -0
 9946              		.cfi_startproc
 9947              		@ args = 0, pretend = 0, frame = 0
 9948              		@ frame_needed = 0, uses_anonymous_args = 0
 9949              		@ link register save eliminated.
2932:SynaptiX_FDK/services/cJSON/cJSON.c ****     if (item == NULL)
 9950              		.loc 1 2932 5 view .LVU2849
 9951              		.loc 1 2932 8 is_stmt 0 view .LVU2850
 9952 0000 20B1     		cbz	r0, .L856
2933:SynaptiX_FDK/services/cJSON/cJSON.c ****     {
2934:SynaptiX_FDK/services/cJSON/cJSON.c ****         return false;
2935:SynaptiX_FDK/services/cJSON/cJSON.c ****     }
2936:SynaptiX_FDK/services/cJSON/cJSON.c **** 
2937:SynaptiX_FDK/services/cJSON/cJSON.c ****     return (item->type & 0xFF) == cJSON_Invalid;
 9953              		.loc 1 2937 5 is_stmt 1 view .LVU2851
 9954              		.loc 1 2937 24 is_stmt 0 view .LVU2852
 9955 0002 007B     		ldrb	r0, [r0, #12]	@ zero_extendqisi2
 9956              	.LVL936:
 9957              		.loc 1 2937 32 view .LVU2853
 9958 0004 B0FA80F0 		clz	r0, r0
 9959 0008 4009     		lsrs	r0, r0, #5
ARM GAS  C:\Users\DELL\AppData\Local\Temp\ccXjhdgA.s 			page 268


 9960 000a 7047     		bx	lr
 9961              	.LVL937:
 9962              	.L856:
2934:SynaptiX_FDK/services/cJSON/cJSON.c ****     }
 9963              		.loc 1 2934 16 view .LVU2854
 9964 000c 0020     		movs	r0, #0
 9965              	.LVL938:
2938:SynaptiX_FDK/services/cJSON/cJSON.c **** }
 9966              		.loc 1 2938 1 view .LVU2855
 9967 000e 7047     		bx	lr
 9968              		.cfi_endproc
 9969              	.LFE104:
 9971              		.section	.text.cJSON_IsFalse,"ax",%progbits
 9972              		.align	1
 9973              		.global	cJSON_IsFalse
 9974              		.syntax unified
 9975              		.thumb
 9976              		.thumb_func
 9978              	cJSON_IsFalse:
 9979              	.LVL939:
 9980              	.LFB105:
2939:SynaptiX_FDK/services/cJSON/cJSON.c **** 
2940:SynaptiX_FDK/services/cJSON/cJSON.c **** CJSON_PUBLIC(cJSON_bool) cJSON_IsFalse(const cJSON * const item)
2941:SynaptiX_FDK/services/cJSON/cJSON.c **** {
 9981              		.loc 1 2941 1 is_stmt 1 view -0
 9982              		.cfi_startproc
 9983              		@ args = 0, pretend = 0, frame = 0
 9984              		@ frame_needed = 0, uses_anonymous_args = 0
 9985              		@ link register save eliminated.
2942:SynaptiX_FDK/services/cJSON/cJSON.c ****     if (item == NULL)
 9986              		.loc 1 2942 5 view .LVU2857
 9987              		.loc 1 2942 8 is_stmt 0 view .LVU2858
 9988 0000 28B1     		cbz	r0, .L859
2943:SynaptiX_FDK/services/cJSON/cJSON.c ****     {
2944:SynaptiX_FDK/services/cJSON/cJSON.c ****         return false;
2945:SynaptiX_FDK/services/cJSON/cJSON.c ****     }
2946:SynaptiX_FDK/services/cJSON/cJSON.c **** 
2947:SynaptiX_FDK/services/cJSON/cJSON.c ****     return (item->type & 0xFF) == cJSON_False;
 9989              		.loc 1 2947 5 is_stmt 1 view .LVU2859
 9990              		.loc 1 2947 24 is_stmt 0 view .LVU2860
 9991 0002 007B     		ldrb	r0, [r0, #12]	@ zero_extendqisi2
 9992              	.LVL940:
 9993              		.loc 1 2947 32 view .LVU2861
 9994 0004 0128     		cmp	r0, #1
 9995 0006 14BF     		ite	ne
 9996 0008 0020     		movne	r0, #0
 9997 000a 0120     		moveq	r0, #1
 9998 000c 7047     		bx	lr
 9999              	.LVL941:
 10000              	.L859:
2944:SynaptiX_FDK/services/cJSON/cJSON.c ****     }
 10001              		.loc 1 2944 16 view .LVU2862
 10002 000e 0020     		movs	r0, #0
 10003              	.LVL942:
2948:SynaptiX_FDK/services/cJSON/cJSON.c **** }
 10004              		.loc 1 2948 1 view .LVU2863
 10005 0010 7047     		bx	lr
ARM GAS  C:\Users\DELL\AppData\Local\Temp\ccXjhdgA.s 			page 269


 10006              		.cfi_endproc
 10007              	.LFE105:
 10009              		.section	.text.cJSON_IsTrue,"ax",%progbits
 10010              		.align	1
 10011              		.global	cJSON_IsTrue
 10012              		.syntax unified
 10013              		.thumb
 10014              		.thumb_func
 10016              	cJSON_IsTrue:
 10017              	.LVL943:
 10018              	.LFB106:
2949:SynaptiX_FDK/services/cJSON/cJSON.c **** 
2950:SynaptiX_FDK/services/cJSON/cJSON.c **** CJSON_PUBLIC(cJSON_bool) cJSON_IsTrue(const cJSON * const item)
2951:SynaptiX_FDK/services/cJSON/cJSON.c **** {
 10019              		.loc 1 2951 1 is_stmt 1 view -0
 10020              		.cfi_startproc
 10021              		@ args = 0, pretend = 0, frame = 0
 10022              		@ frame_needed = 0, uses_anonymous_args = 0
 10023              		@ link register save eliminated.
2952:SynaptiX_FDK/services/cJSON/cJSON.c ****     if (item == NULL)
 10024              		.loc 1 2952 5 view .LVU2865
 10025              		.loc 1 2952 8 is_stmt 0 view .LVU2866
 10026 0000 28B1     		cbz	r0, .L862
2953:SynaptiX_FDK/services/cJSON/cJSON.c ****     {
2954:SynaptiX_FDK/services/cJSON/cJSON.c ****         return false;
2955:SynaptiX_FDK/services/cJSON/cJSON.c ****     }
2956:SynaptiX_FDK/services/cJSON/cJSON.c **** 
2957:SynaptiX_FDK/services/cJSON/cJSON.c ****     return (item->type & 0xff) == cJSON_True;
 10027              		.loc 1 2957 5 is_stmt 1 view .LVU2867
 10028              		.loc 1 2957 24 is_stmt 0 view .LVU2868
 10029 0002 007B     		ldrb	r0, [r0, #12]	@ zero_extendqisi2
 10030              	.LVL944:
 10031              		.loc 1 2957 32 view .LVU2869
 10032 0004 0228     		cmp	r0, #2
 10033 0006 14BF     		ite	ne
 10034 0008 0020     		movne	r0, #0
 10035 000a 0120     		moveq	r0, #1
 10036 000c 7047     		bx	lr
 10037              	.LVL945:
 10038              	.L862:
2954:SynaptiX_FDK/services/cJSON/cJSON.c ****     }
 10039              		.loc 1 2954 16 view .LVU2870
 10040 000e 0020     		movs	r0, #0
 10041              	.LVL946:
2958:SynaptiX_FDK/services/cJSON/cJSON.c **** }
 10042              		.loc 1 2958 1 view .LVU2871
 10043 0010 7047     		bx	lr
 10044              		.cfi_endproc
 10045              	.LFE106:
 10047              		.section	.text.cJSON_IsBool,"ax",%progbits
 10048              		.align	1
 10049              		.global	cJSON_IsBool
 10050              		.syntax unified
 10051              		.thumb
 10052              		.thumb_func
 10054              	cJSON_IsBool:
 10055              	.LVL947:
ARM GAS  C:\Users\DELL\AppData\Local\Temp\ccXjhdgA.s 			page 270


 10056              	.LFB107:
2959:SynaptiX_FDK/services/cJSON/cJSON.c **** 
2960:SynaptiX_FDK/services/cJSON/cJSON.c **** 
2961:SynaptiX_FDK/services/cJSON/cJSON.c **** CJSON_PUBLIC(cJSON_bool) cJSON_IsBool(const cJSON * const item)
2962:SynaptiX_FDK/services/cJSON/cJSON.c **** {
 10057              		.loc 1 2962 1 is_stmt 1 view -0
 10058              		.cfi_startproc
 10059              		@ args = 0, pretend = 0, frame = 0
 10060              		@ frame_needed = 0, uses_anonymous_args = 0
 10061              		@ link register save eliminated.
2963:SynaptiX_FDK/services/cJSON/cJSON.c ****     if (item == NULL)
 10062              		.loc 1 2963 5 view .LVU2873
 10063              		.loc 1 2963 8 is_stmt 0 view .LVU2874
 10064 0000 28B1     		cbz	r0, .L865
2964:SynaptiX_FDK/services/cJSON/cJSON.c ****     {
2965:SynaptiX_FDK/services/cJSON/cJSON.c ****         return false;
2966:SynaptiX_FDK/services/cJSON/cJSON.c ****     }
2967:SynaptiX_FDK/services/cJSON/cJSON.c **** 
2968:SynaptiX_FDK/services/cJSON/cJSON.c ****     return (item->type & (cJSON_True | cJSON_False)) != 0;
 10065              		.loc 1 2968 5 is_stmt 1 view .LVU2875
 10066              		.loc 1 2968 17 is_stmt 0 view .LVU2876
 10067 0002 C068     		ldr	r0, [r0, #12]
 10068              	.LVL948:
 10069              		.loc 1 2968 54 view .LVU2877
 10070 0004 10F00300 		ands	r0, r0, #3
 10071 0008 18BF     		it	ne
 10072 000a 0120     		movne	r0, #1
 10073 000c 7047     		bx	lr
 10074              	.LVL949:
 10075              	.L865:
2965:SynaptiX_FDK/services/cJSON/cJSON.c ****     }
 10076              		.loc 1 2965 16 view .LVU2878
 10077 000e 0020     		movs	r0, #0
 10078              	.LVL950:
2969:SynaptiX_FDK/services/cJSON/cJSON.c **** }
 10079              		.loc 1 2969 1 view .LVU2879
 10080 0010 7047     		bx	lr
 10081              		.cfi_endproc
 10082              	.LFE107:
 10084              		.section	.text.cJSON_IsNull,"ax",%progbits
 10085              		.align	1
 10086              		.global	cJSON_IsNull
 10087              		.syntax unified
 10088              		.thumb
 10089              		.thumb_func
 10091              	cJSON_IsNull:
 10092              	.LVL951:
 10093              	.LFB108:
2970:SynaptiX_FDK/services/cJSON/cJSON.c **** CJSON_PUBLIC(cJSON_bool) cJSON_IsNull(const cJSON * const item)
2971:SynaptiX_FDK/services/cJSON/cJSON.c **** {
 10094              		.loc 1 2971 1 is_stmt 1 view -0
 10095              		.cfi_startproc
 10096              		@ args = 0, pretend = 0, frame = 0
 10097              		@ frame_needed = 0, uses_anonymous_args = 0
 10098              		@ link register save eliminated.
2972:SynaptiX_FDK/services/cJSON/cJSON.c ****     if (item == NULL)
 10099              		.loc 1 2972 5 view .LVU2881
ARM GAS  C:\Users\DELL\AppData\Local\Temp\ccXjhdgA.s 			page 271


 10100              		.loc 1 2972 8 is_stmt 0 view .LVU2882
 10101 0000 28B1     		cbz	r0, .L868
2973:SynaptiX_FDK/services/cJSON/cJSON.c ****     {
2974:SynaptiX_FDK/services/cJSON/cJSON.c ****         return false;
2975:SynaptiX_FDK/services/cJSON/cJSON.c ****     }
2976:SynaptiX_FDK/services/cJSON/cJSON.c **** 
2977:SynaptiX_FDK/services/cJSON/cJSON.c ****     return (item->type & 0xFF) == cJSON_NULL;
 10102              		.loc 1 2977 5 is_stmt 1 view .LVU2883
 10103              		.loc 1 2977 24 is_stmt 0 view .LVU2884
 10104 0002 007B     		ldrb	r0, [r0, #12]	@ zero_extendqisi2
 10105              	.LVL952:
 10106              		.loc 1 2977 32 view .LVU2885
 10107 0004 0428     		cmp	r0, #4
 10108 0006 14BF     		ite	ne
 10109 0008 0020     		movne	r0, #0
 10110 000a 0120     		moveq	r0, #1
 10111 000c 7047     		bx	lr
 10112              	.LVL953:
 10113              	.L868:
2974:SynaptiX_FDK/services/cJSON/cJSON.c ****     }
 10114              		.loc 1 2974 16 view .LVU2886
 10115 000e 0020     		movs	r0, #0
 10116              	.LVL954:
2978:SynaptiX_FDK/services/cJSON/cJSON.c **** }
 10117              		.loc 1 2978 1 view .LVU2887
 10118 0010 7047     		bx	lr
 10119              		.cfi_endproc
 10120              	.LFE108:
 10122              		.section	.text.cJSON_IsNumber,"ax",%progbits
 10123              		.align	1
 10124              		.global	cJSON_IsNumber
 10125              		.syntax unified
 10126              		.thumb
 10127              		.thumb_func
 10129              	cJSON_IsNumber:
 10130              	.LVL955:
 10131              	.LFB109:
2979:SynaptiX_FDK/services/cJSON/cJSON.c **** 
2980:SynaptiX_FDK/services/cJSON/cJSON.c **** CJSON_PUBLIC(cJSON_bool) cJSON_IsNumber(const cJSON * const item)
2981:SynaptiX_FDK/services/cJSON/cJSON.c **** {
 10132              		.loc 1 2981 1 is_stmt 1 view -0
 10133              		.cfi_startproc
 10134              		@ args = 0, pretend = 0, frame = 0
 10135              		@ frame_needed = 0, uses_anonymous_args = 0
 10136              		@ link register save eliminated.
2982:SynaptiX_FDK/services/cJSON/cJSON.c ****     if (item == NULL)
 10137              		.loc 1 2982 5 view .LVU2889
 10138              		.loc 1 2982 8 is_stmt 0 view .LVU2890
 10139 0000 28B1     		cbz	r0, .L871
2983:SynaptiX_FDK/services/cJSON/cJSON.c ****     {
2984:SynaptiX_FDK/services/cJSON/cJSON.c ****         return false;
2985:SynaptiX_FDK/services/cJSON/cJSON.c ****     }
2986:SynaptiX_FDK/services/cJSON/cJSON.c **** 
2987:SynaptiX_FDK/services/cJSON/cJSON.c ****     return (item->type & 0xFF) == cJSON_Number;
 10140              		.loc 1 2987 5 is_stmt 1 view .LVU2891
 10141              		.loc 1 2987 24 is_stmt 0 view .LVU2892
 10142 0002 007B     		ldrb	r0, [r0, #12]	@ zero_extendqisi2
ARM GAS  C:\Users\DELL\AppData\Local\Temp\ccXjhdgA.s 			page 272


 10143              	.LVL956:
 10144              		.loc 1 2987 32 view .LVU2893
 10145 0004 0828     		cmp	r0, #8
 10146 0006 14BF     		ite	ne
 10147 0008 0020     		movne	r0, #0
 10148 000a 0120     		moveq	r0, #1
 10149 000c 7047     		bx	lr
 10150              	.LVL957:
 10151              	.L871:
2984:SynaptiX_FDK/services/cJSON/cJSON.c ****     }
 10152              		.loc 1 2984 16 view .LVU2894
 10153 000e 0020     		movs	r0, #0
 10154              	.LVL958:
2988:SynaptiX_FDK/services/cJSON/cJSON.c **** }
 10155              		.loc 1 2988 1 view .LVU2895
 10156 0010 7047     		bx	lr
 10157              		.cfi_endproc
 10158              	.LFE109:
 10160              		.section	.text.cJSON_GetNumberValue,"ax",%progbits
 10161              		.align	1
 10162              		.global	cJSON_GetNumberValue
 10163              		.syntax unified
 10164              		.thumb
 10165              		.thumb_func
 10167              	cJSON_GetNumberValue:
 10168              	.LVL959:
 10169              	.LFB6:
 110:SynaptiX_FDK/services/cJSON/cJSON.c ****     if (!cJSON_IsNumber(item))
 10170              		.loc 1 110 1 is_stmt 1 view -0
 10171              		.cfi_startproc
 10172              		@ args = 0, pretend = 0, frame = 0
 10173              		@ frame_needed = 0, uses_anonymous_args = 0
 110:SynaptiX_FDK/services/cJSON/cJSON.c ****     if (!cJSON_IsNumber(item))
 10174              		.loc 1 110 1 is_stmt 0 view .LVU2897
 10175 0000 10B5     		push	{r4, lr}
 10176              	.LCFI165:
 10177              		.cfi_def_cfa_offset 8
 10178              		.cfi_offset 4, -8
 10179              		.cfi_offset 14, -4
 10180 0002 0446     		mov	r4, r0
 111:SynaptiX_FDK/services/cJSON/cJSON.c ****     {
 10181              		.loc 1 111 5 is_stmt 1 view .LVU2898
 111:SynaptiX_FDK/services/cJSON/cJSON.c ****     {
 10182              		.loc 1 111 10 is_stmt 0 view .LVU2899
 10183 0004 FFF7FEFF 		bl	cJSON_IsNumber
 10184              	.LVL960:
 111:SynaptiX_FDK/services/cJSON/cJSON.c ****     {
 10185              		.loc 1 111 8 discriminator 1 view .LVU2900
 10186 0008 10B1     		cbz	r0, .L874
 116:SynaptiX_FDK/services/cJSON/cJSON.c **** }
 10187              		.loc 1 116 5 is_stmt 1 view .LVU2901
 116:SynaptiX_FDK/services/cJSON/cJSON.c **** }
 10188              		.loc 1 116 16 is_stmt 0 view .LVU2902
 10189 000a 94ED060B 		vldr.64	d0, [r4, #24]
 10190              	.L872:
 117:SynaptiX_FDK/services/cJSON/cJSON.c **** 
 10191              		.loc 1 117 1 view .LVU2903
ARM GAS  C:\Users\DELL\AppData\Local\Temp\ccXjhdgA.s 			page 273


 10192 000e 10BD     		pop	{r4, pc}
 10193              	.LVL961:
 10194              	.L874:
 113:SynaptiX_FDK/services/cJSON/cJSON.c ****     }
 10195              		.loc 1 113 16 view .LVU2904
 10196 0010 9FED010B 		vldr.64	d0, .L876
 10197 0014 FBE7     		b	.L872
 10198              	.L877:
 10199 0016 00BF     		.align	3
 10200              	.L876:
 10201 0018 00000000 		.word	0
 10202 001c 0000F87F 		.word	2146959360
 10203              		.cfi_endproc
 10204              	.LFE6:
 10206              		.section	.text.cJSON_IsString,"ax",%progbits
 10207              		.align	1
 10208              		.global	cJSON_IsString
 10209              		.syntax unified
 10210              		.thumb
 10211              		.thumb_func
 10213              	cJSON_IsString:
 10214              	.LVL962:
 10215              	.LFB110:
2989:SynaptiX_FDK/services/cJSON/cJSON.c **** 
2990:SynaptiX_FDK/services/cJSON/cJSON.c **** CJSON_PUBLIC(cJSON_bool) cJSON_IsString(const cJSON * const item)
2991:SynaptiX_FDK/services/cJSON/cJSON.c **** {
 10216              		.loc 1 2991 1 is_stmt 1 view -0
 10217              		.cfi_startproc
 10218              		@ args = 0, pretend = 0, frame = 0
 10219              		@ frame_needed = 0, uses_anonymous_args = 0
 10220              		@ link register save eliminated.
2992:SynaptiX_FDK/services/cJSON/cJSON.c ****     if (item == NULL)
 10221              		.loc 1 2992 5 view .LVU2906
 10222              		.loc 1 2992 8 is_stmt 0 view .LVU2907
 10223 0000 28B1     		cbz	r0, .L880
2993:SynaptiX_FDK/services/cJSON/cJSON.c ****     {
2994:SynaptiX_FDK/services/cJSON/cJSON.c ****         return false;
2995:SynaptiX_FDK/services/cJSON/cJSON.c ****     }
2996:SynaptiX_FDK/services/cJSON/cJSON.c **** 
2997:SynaptiX_FDK/services/cJSON/cJSON.c ****     return (item->type & 0xFF) == cJSON_String;
 10224              		.loc 1 2997 5 is_stmt 1 view .LVU2908
 10225              		.loc 1 2997 24 is_stmt 0 view .LVU2909
 10226 0002 007B     		ldrb	r0, [r0, #12]	@ zero_extendqisi2
 10227              	.LVL963:
 10228              		.loc 1 2997 32 view .LVU2910
 10229 0004 1028     		cmp	r0, #16
 10230 0006 14BF     		ite	ne
 10231 0008 0020     		movne	r0, #0
 10232 000a 0120     		moveq	r0, #1
 10233 000c 7047     		bx	lr
 10234              	.LVL964:
 10235              	.L880:
2994:SynaptiX_FDK/services/cJSON/cJSON.c ****     }
 10236              		.loc 1 2994 16 view .LVU2911
 10237 000e 0020     		movs	r0, #0
 10238              	.LVL965:
2998:SynaptiX_FDK/services/cJSON/cJSON.c **** }
ARM GAS  C:\Users\DELL\AppData\Local\Temp\ccXjhdgA.s 			page 274


 10239              		.loc 1 2998 1 view .LVU2912
 10240 0010 7047     		bx	lr
 10241              		.cfi_endproc
 10242              	.LFE110:
 10244              		.section	.text.cJSON_GetStringValue,"ax",%progbits
 10245              		.align	1
 10246              		.global	cJSON_GetStringValue
 10247              		.syntax unified
 10248              		.thumb
 10249              		.thumb_func
 10251              	cJSON_GetStringValue:
 10252              	.LVL966:
 10253              	.LFB5:
 100:SynaptiX_FDK/services/cJSON/cJSON.c ****     if (!cJSON_IsString(item))
 10254              		.loc 1 100 1 is_stmt 1 view -0
 10255              		.cfi_startproc
 10256              		@ args = 0, pretend = 0, frame = 0
 10257              		@ frame_needed = 0, uses_anonymous_args = 0
 100:SynaptiX_FDK/services/cJSON/cJSON.c ****     if (!cJSON_IsString(item))
 10258              		.loc 1 100 1 is_stmt 0 view .LVU2914
 10259 0000 10B5     		push	{r4, lr}
 10260              	.LCFI166:
 10261              		.cfi_def_cfa_offset 8
 10262              		.cfi_offset 4, -8
 10263              		.cfi_offset 14, -4
 10264 0002 0446     		mov	r4, r0
 101:SynaptiX_FDK/services/cJSON/cJSON.c ****     {
 10265              		.loc 1 101 5 is_stmt 1 view .LVU2915
 101:SynaptiX_FDK/services/cJSON/cJSON.c ****     {
 10266              		.loc 1 101 10 is_stmt 0 view .LVU2916
 10267 0004 FFF7FEFF 		bl	cJSON_IsString
 10268              	.LVL967:
 101:SynaptiX_FDK/services/cJSON/cJSON.c ****     {
 10269              		.loc 1 101 8 discriminator 1 view .LVU2917
 10270 0008 08B1     		cbz	r0, .L883
 106:SynaptiX_FDK/services/cJSON/cJSON.c **** }
 10271              		.loc 1 106 5 is_stmt 1 view .LVU2918
 106:SynaptiX_FDK/services/cJSON/cJSON.c **** }
 10272              		.loc 1 106 16 is_stmt 0 view .LVU2919
 10273 000a 2069     		ldr	r0, [r4, #16]
 10274              	.L881:
 107:SynaptiX_FDK/services/cJSON/cJSON.c **** 
 10275              		.loc 1 107 1 view .LVU2920
 10276 000c 10BD     		pop	{r4, pc}
 10277              	.LVL968:
 10278              	.L883:
 103:SynaptiX_FDK/services/cJSON/cJSON.c ****     }
 10279              		.loc 1 103 16 view .LVU2921
 10280 000e 0020     		movs	r0, #0
 10281 0010 FCE7     		b	.L881
 10282              		.cfi_endproc
 10283              	.LFE5:
 10285              		.section	.text.cJSON_IsArray,"ax",%progbits
 10286              		.align	1
 10287              		.global	cJSON_IsArray
 10288              		.syntax unified
 10289              		.thumb
ARM GAS  C:\Users\DELL\AppData\Local\Temp\ccXjhdgA.s 			page 275


 10290              		.thumb_func
 10292              	cJSON_IsArray:
 10293              	.LVL969:
 10294              	.LFB111:
2999:SynaptiX_FDK/services/cJSON/cJSON.c **** 
3000:SynaptiX_FDK/services/cJSON/cJSON.c **** CJSON_PUBLIC(cJSON_bool) cJSON_IsArray(const cJSON * const item)
3001:SynaptiX_FDK/services/cJSON/cJSON.c **** {
 10295              		.loc 1 3001 1 is_stmt 1 view -0
 10296              		.cfi_startproc
 10297              		@ args = 0, pretend = 0, frame = 0
 10298              		@ frame_needed = 0, uses_anonymous_args = 0
 10299              		@ link register save eliminated.
3002:SynaptiX_FDK/services/cJSON/cJSON.c ****     if (item == NULL)
 10300              		.loc 1 3002 5 view .LVU2923
 10301              		.loc 1 3002 8 is_stmt 0 view .LVU2924
 10302 0000 28B1     		cbz	r0, .L887
3003:SynaptiX_FDK/services/cJSON/cJSON.c ****     {
3004:SynaptiX_FDK/services/cJSON/cJSON.c ****         return false;
3005:SynaptiX_FDK/services/cJSON/cJSON.c ****     }
3006:SynaptiX_FDK/services/cJSON/cJSON.c **** 
3007:SynaptiX_FDK/services/cJSON/cJSON.c ****     return (item->type & 0xFF) == cJSON_Array;
 10303              		.loc 1 3007 5 is_stmt 1 view .LVU2925
 10304              		.loc 1 3007 24 is_stmt 0 view .LVU2926
 10305 0002 007B     		ldrb	r0, [r0, #12]	@ zero_extendqisi2
 10306              	.LVL970:
 10307              		.loc 1 3007 32 view .LVU2927
 10308 0004 2028     		cmp	r0, #32
 10309 0006 14BF     		ite	ne
 10310 0008 0020     		movne	r0, #0
 10311 000a 0120     		moveq	r0, #1
 10312 000c 7047     		bx	lr
 10313              	.LVL971:
 10314              	.L887:
3004:SynaptiX_FDK/services/cJSON/cJSON.c ****     }
 10315              		.loc 1 3004 16 view .LVU2928
 10316 000e 0020     		movs	r0, #0
 10317              	.LVL972:
3008:SynaptiX_FDK/services/cJSON/cJSON.c **** }
 10318              		.loc 1 3008 1 view .LVU2929
 10319 0010 7047     		bx	lr
 10320              		.cfi_endproc
 10321              	.LFE111:
 10323              		.section	.text.cJSON_IsObject,"ax",%progbits
 10324              		.align	1
 10325              		.global	cJSON_IsObject
 10326              		.syntax unified
 10327              		.thumb
 10328              		.thumb_func
 10330              	cJSON_IsObject:
 10331              	.LVL973:
 10332              	.LFB112:
3009:SynaptiX_FDK/services/cJSON/cJSON.c **** 
3010:SynaptiX_FDK/services/cJSON/cJSON.c **** CJSON_PUBLIC(cJSON_bool) cJSON_IsObject(const cJSON * const item)
3011:SynaptiX_FDK/services/cJSON/cJSON.c **** {
 10333              		.loc 1 3011 1 is_stmt 1 view -0
 10334              		.cfi_startproc
 10335              		@ args = 0, pretend = 0, frame = 0
ARM GAS  C:\Users\DELL\AppData\Local\Temp\ccXjhdgA.s 			page 276


 10336              		@ frame_needed = 0, uses_anonymous_args = 0
 10337              		@ link register save eliminated.
3012:SynaptiX_FDK/services/cJSON/cJSON.c ****     if (item == NULL)
 10338              		.loc 1 3012 5 view .LVU2931
 10339              		.loc 1 3012 8 is_stmt 0 view .LVU2932
 10340 0000 28B1     		cbz	r0, .L890
3013:SynaptiX_FDK/services/cJSON/cJSON.c ****     {
3014:SynaptiX_FDK/services/cJSON/cJSON.c ****         return false;
3015:SynaptiX_FDK/services/cJSON/cJSON.c ****     }
3016:SynaptiX_FDK/services/cJSON/cJSON.c **** 
3017:SynaptiX_FDK/services/cJSON/cJSON.c ****     return (item->type & 0xFF) == cJSON_Object;
 10341              		.loc 1 3017 5 is_stmt 1 view .LVU2933
 10342              		.loc 1 3017 24 is_stmt 0 view .LVU2934
 10343 0002 007B     		ldrb	r0, [r0, #12]	@ zero_extendqisi2
 10344              	.LVL974:
 10345              		.loc 1 3017 32 view .LVU2935
 10346 0004 4028     		cmp	r0, #64
 10347 0006 14BF     		ite	ne
 10348 0008 0020     		movne	r0, #0
 10349 000a 0120     		moveq	r0, #1
 10350 000c 7047     		bx	lr
 10351              	.LVL975:
 10352              	.L890:
3014:SynaptiX_FDK/services/cJSON/cJSON.c ****     }
 10353              		.loc 1 3014 16 view .LVU2936
 10354 000e 0020     		movs	r0, #0
 10355              	.LVL976:
3018:SynaptiX_FDK/services/cJSON/cJSON.c **** }
 10356              		.loc 1 3018 1 view .LVU2937
 10357 0010 7047     		bx	lr
 10358              		.cfi_endproc
 10359              	.LFE112:
 10361              		.section	.text.cJSON_IsRaw,"ax",%progbits
 10362              		.align	1
 10363              		.global	cJSON_IsRaw
 10364              		.syntax unified
 10365              		.thumb
 10366              		.thumb_func
 10368              	cJSON_IsRaw:
 10369              	.LVL977:
 10370              	.LFB113:
3019:SynaptiX_FDK/services/cJSON/cJSON.c **** 
3020:SynaptiX_FDK/services/cJSON/cJSON.c **** CJSON_PUBLIC(cJSON_bool) cJSON_IsRaw(const cJSON * const item)
3021:SynaptiX_FDK/services/cJSON/cJSON.c **** {
 10371              		.loc 1 3021 1 is_stmt 1 view -0
 10372              		.cfi_startproc
 10373              		@ args = 0, pretend = 0, frame = 0
 10374              		@ frame_needed = 0, uses_anonymous_args = 0
 10375              		@ link register save eliminated.
3022:SynaptiX_FDK/services/cJSON/cJSON.c ****     if (item == NULL)
 10376              		.loc 1 3022 5 view .LVU2939
 10377              		.loc 1 3022 8 is_stmt 0 view .LVU2940
 10378 0000 28B1     		cbz	r0, .L893
3023:SynaptiX_FDK/services/cJSON/cJSON.c ****     {
3024:SynaptiX_FDK/services/cJSON/cJSON.c ****         return false;
3025:SynaptiX_FDK/services/cJSON/cJSON.c ****     }
3026:SynaptiX_FDK/services/cJSON/cJSON.c **** 
ARM GAS  C:\Users\DELL\AppData\Local\Temp\ccXjhdgA.s 			page 277


3027:SynaptiX_FDK/services/cJSON/cJSON.c ****     return (item->type & 0xFF) == cJSON_Raw;
 10379              		.loc 1 3027 5 is_stmt 1 view .LVU2941
 10380              		.loc 1 3027 24 is_stmt 0 view .LVU2942
 10381 0002 007B     		ldrb	r0, [r0, #12]	@ zero_extendqisi2
 10382              	.LVL978:
 10383              		.loc 1 3027 32 view .LVU2943
 10384 0004 8028     		cmp	r0, #128
 10385 0006 14BF     		ite	ne
 10386 0008 0020     		movne	r0, #0
 10387 000a 0120     		moveq	r0, #1
 10388 000c 7047     		bx	lr
 10389              	.LVL979:
 10390              	.L893:
3024:SynaptiX_FDK/services/cJSON/cJSON.c ****     }
 10391              		.loc 1 3024 16 view .LVU2944
 10392 000e 0020     		movs	r0, #0
 10393              	.LVL980:
3028:SynaptiX_FDK/services/cJSON/cJSON.c **** }
 10394              		.loc 1 3028 1 view .LVU2945
 10395 0010 7047     		bx	lr
 10396              		.cfi_endproc
 10397              	.LFE113:
 10399              		.section	.text.cJSON_Compare,"ax",%progbits
 10400              		.align	1
 10401              		.global	cJSON_Compare
 10402              		.syntax unified
 10403              		.thumb
 10404              		.thumb_func
 10406              	cJSON_Compare:
 10407              	.LVL981:
 10408              	.LFB114:
3029:SynaptiX_FDK/services/cJSON/cJSON.c **** 
3030:SynaptiX_FDK/services/cJSON/cJSON.c **** CJSON_PUBLIC(cJSON_bool) cJSON_Compare(const cJSON * const a, const cJSON * const b, const cJSON_bo
3031:SynaptiX_FDK/services/cJSON/cJSON.c **** {
 10409              		.loc 1 3031 1 is_stmt 1 view -0
 10410              		.cfi_startproc
 10411              		@ args = 0, pretend = 0, frame = 0
 10412              		@ frame_needed = 0, uses_anonymous_args = 0
 10413              		.loc 1 3031 1 is_stmt 0 view .LVU2947
 10414 0000 2DE9F041 		push	{r4, r5, r6, r7, r8, lr}
 10415              	.LCFI167:
 10416              		.cfi_def_cfa_offset 24
 10417              		.cfi_offset 4, -24
 10418              		.cfi_offset 5, -20
 10419              		.cfi_offset 6, -16
 10420              		.cfi_offset 7, -12
 10421              		.cfi_offset 8, -8
 10422              		.cfi_offset 14, -4
3032:SynaptiX_FDK/services/cJSON/cJSON.c ****     if ((a == NULL) || (b == NULL) || ((a->type & 0xFF) != (b->type & 0xFF)))
 10423              		.loc 1 3032 5 is_stmt 1 view .LVU2948
 10424              		.loc 1 3032 8 is_stmt 0 view .LVU2949
 10425 0004 0028     		cmp	r0, #0
 10426 0006 00F09180 		beq	.L913
 10427 000a 0D46     		mov	r5, r1
 10428 000c 1646     		mov	r6, r2
 10429 000e 0746     		mov	r7, r0
 10430              		.loc 1 3032 21 discriminator 1 view .LVU2950
ARM GAS  C:\Users\DELL\AppData\Local\Temp\ccXjhdgA.s 			page 278


 10431 0010 0029     		cmp	r1, #0
 10432 0012 00F08D80 		beq	.L914
 10433              		.loc 1 3032 42 discriminator 2 view .LVU2951
 10434 0016 C368     		ldr	r3, [r0, #12]
 10435              		.loc 1 3032 62 discriminator 2 view .LVU2952
 10436 0018 CC68     		ldr	r4, [r1, #12]
 10437              		.loc 1 3032 57 discriminator 2 view .LVU2953
 10438 001a 5C40     		eors	r4, r4, r3
 10439              		.loc 1 3032 36 discriminator 2 view .LVU2954
 10440 001c 14F0FF04 		ands	r4, r4, #255
 10441 0020 40F08880 		bne	.L915
3033:SynaptiX_FDK/services/cJSON/cJSON.c ****     {
3034:SynaptiX_FDK/services/cJSON/cJSON.c ****         return false;
3035:SynaptiX_FDK/services/cJSON/cJSON.c ****     }
3036:SynaptiX_FDK/services/cJSON/cJSON.c **** 
3037:SynaptiX_FDK/services/cJSON/cJSON.c ****     /* check if type is valid */
3038:SynaptiX_FDK/services/cJSON/cJSON.c ****     switch (a->type & 0xFF)
 10442              		.loc 1 3038 5 is_stmt 1 view .LVU2955
 10443              		.loc 1 3038 21 is_stmt 0 view .LVU2956
 10444 0024 DBB2     		uxtb	r3, r3
 10445              		.loc 1 3038 5 view .LVU2957
 10446 0026 202B     		cmp	r3, #32
 10447 0028 26DC     		bgt	.L896
 10448 002a 042B     		cmp	r3, #4
 10449 002c 20DB     		blt	.L925
 10450 002e 191F     		subs	r1, r3, #4
 10451              	.LVL982:
 10452              		.loc 1 3038 5 view .LVU2958
 10453 0030 464A     		ldr	r2, .L928
 10454              	.LVL983:
 10455              		.loc 1 3038 5 view .LVU2959
 10456 0032 CA40     		lsrs	r2, r2, r1
 10457 0034 12F0010F 		tst	r2, #1
 10458 0038 7DD0     		beq	.L894
 10459              	.L898:
3039:SynaptiX_FDK/services/cJSON/cJSON.c ****     {
3040:SynaptiX_FDK/services/cJSON/cJSON.c ****         case cJSON_False:
3041:SynaptiX_FDK/services/cJSON/cJSON.c ****         case cJSON_True:
3042:SynaptiX_FDK/services/cJSON/cJSON.c ****         case cJSON_NULL:
3043:SynaptiX_FDK/services/cJSON/cJSON.c ****         case cJSON_Number:
3044:SynaptiX_FDK/services/cJSON/cJSON.c ****         case cJSON_String:
3045:SynaptiX_FDK/services/cJSON/cJSON.c ****         case cJSON_Raw:
3046:SynaptiX_FDK/services/cJSON/cJSON.c ****         case cJSON_Array:
3047:SynaptiX_FDK/services/cJSON/cJSON.c ****         case cJSON_Object:
3048:SynaptiX_FDK/services/cJSON/cJSON.c ****             break;
 10460              		.loc 1 3048 13 is_stmt 1 view .LVU2960
3049:SynaptiX_FDK/services/cJSON/cJSON.c **** 
3050:SynaptiX_FDK/services/cJSON/cJSON.c ****         default:
3051:SynaptiX_FDK/services/cJSON/cJSON.c ****             return false;
3052:SynaptiX_FDK/services/cJSON/cJSON.c ****     }
3053:SynaptiX_FDK/services/cJSON/cJSON.c **** 
3054:SynaptiX_FDK/services/cJSON/cJSON.c ****     /* identical objects are equal */
3055:SynaptiX_FDK/services/cJSON/cJSON.c ****     if (a == b)
 10461              		.loc 1 3055 5 view .LVU2961
 10462              		.loc 1 3055 8 is_stmt 0 view .LVU2962
 10463 003a AF42     		cmp	r7, r5
 10464 003c 7ED0     		beq	.L916
ARM GAS  C:\Users\DELL\AppData\Local\Temp\ccXjhdgA.s 			page 279


3056:SynaptiX_FDK/services/cJSON/cJSON.c ****     {
3057:SynaptiX_FDK/services/cJSON/cJSON.c ****         return true;
3058:SynaptiX_FDK/services/cJSON/cJSON.c ****     }
3059:SynaptiX_FDK/services/cJSON/cJSON.c **** 
3060:SynaptiX_FDK/services/cJSON/cJSON.c ****     switch (a->type & 0xFF)
 10465              		.loc 1 3060 5 is_stmt 1 view .LVU2963
 10466 003e 202B     		cmp	r3, #32
 10467 0040 21DC     		bgt	.L899
 10468 0042 002B     		cmp	r3, #0
 10469 0044 77D0     		beq	.L894
 10470 0046 013B     		subs	r3, r3, #1
 10471 0048 1F2B     		cmp	r3, #31
 10472 004a 74D8     		bhi	.L894
 10473 004c DFE803F0 		tbb	[pc, r3]
 10474              	.L901:
 10475 0050 19       		.byte	(.L904-.L901)/2
 10476 0051 19       		.byte	(.L904-.L901)/2
 10477 0052 73       		.byte	(.L894-.L901)/2
 10478 0053 19       		.byte	(.L904-.L901)/2
 10479 0054 73       		.byte	(.L894-.L901)/2
 10480 0055 73       		.byte	(.L894-.L901)/2
 10481 0056 73       		.byte	(.L894-.L901)/2
 10482 0057 2B       		.byte	(.L903-.L901)/2
 10483 0058 73       		.byte	(.L894-.L901)/2
 10484 0059 73       		.byte	(.L894-.L901)/2
 10485 005a 73       		.byte	(.L894-.L901)/2
 10486 005b 73       		.byte	(.L894-.L901)/2
 10487 005c 73       		.byte	(.L894-.L901)/2
 10488 005d 73       		.byte	(.L894-.L901)/2
 10489 005e 73       		.byte	(.L894-.L901)/2
 10490 005f 1F       		.byte	(.L902-.L901)/2
 10491 0060 73       		.byte	(.L894-.L901)/2
 10492 0061 73       		.byte	(.L894-.L901)/2
 10493 0062 73       		.byte	(.L894-.L901)/2
 10494 0063 73       		.byte	(.L894-.L901)/2
 10495 0064 73       		.byte	(.L894-.L901)/2
 10496 0065 73       		.byte	(.L894-.L901)/2
 10497 0066 73       		.byte	(.L894-.L901)/2
 10498 0067 73       		.byte	(.L894-.L901)/2
 10499 0068 73       		.byte	(.L894-.L901)/2
 10500 0069 73       		.byte	(.L894-.L901)/2
 10501 006a 73       		.byte	(.L894-.L901)/2
 10502 006b 73       		.byte	(.L894-.L901)/2
 10503 006c 73       		.byte	(.L894-.L901)/2
 10504 006d 73       		.byte	(.L894-.L901)/2
 10505 006e 73       		.byte	(.L894-.L901)/2
 10506 006f 36       		.byte	(.L900-.L901)/2
 10507              	.LVL984:
 10508              		.p2align 1
 10509              	.L925:
3038:SynaptiX_FDK/services/cJSON/cJSON.c ****     {
 10510              		.loc 1 3038 5 is_stmt 0 view .LVU2964
 10511 0070 5A1E     		subs	r2, r3, #1
 10512              	.LVL985:
3038:SynaptiX_FDK/services/cJSON/cJSON.c ****     {
 10513              		.loc 1 3038 5 view .LVU2965
 10514 0072 012A     		cmp	r2, #1
ARM GAS  C:\Users\DELL\AppData\Local\Temp\ccXjhdgA.s 			page 280


 10515 0074 5FD8     		bhi	.L894
 10516 0076 E0E7     		b	.L898
 10517              	.LVL986:
 10518              	.L896:
3038:SynaptiX_FDK/services/cJSON/cJSON.c ****     {
 10519              		.loc 1 3038 5 view .LVU2966
 10520 0078 402B     		cmp	r3, #64
 10521 007a DED0     		beq	.L898
 10522 007c 802B     		cmp	r3, #128
 10523 007e 5AD1     		bne	.L894
 10524 0080 DBE7     		b	.L898
 10525              	.LVL987:
 10526              	.L904:
 10527              		.loc 1 3060 5 view .LVU2967
 10528 0082 0124     		movs	r4, #1
 10529 0084 57E0     		b	.L894
 10530              	.L899:
 10531 0086 402B     		cmp	r3, #64
 10532 0088 29D0     		beq	.L905
 10533 008a 802B     		cmp	r3, #128
 10534 008c 53D1     		bne	.L894
 10535              	.L902:
3061:SynaptiX_FDK/services/cJSON/cJSON.c ****     {
3062:SynaptiX_FDK/services/cJSON/cJSON.c ****         /* in these cases and equal type is enough */
3063:SynaptiX_FDK/services/cJSON/cJSON.c ****         case cJSON_False:
3064:SynaptiX_FDK/services/cJSON/cJSON.c ****         case cJSON_True:
3065:SynaptiX_FDK/services/cJSON/cJSON.c ****         case cJSON_NULL:
3066:SynaptiX_FDK/services/cJSON/cJSON.c ****             return true;
3067:SynaptiX_FDK/services/cJSON/cJSON.c **** 
3068:SynaptiX_FDK/services/cJSON/cJSON.c ****         case cJSON_Number:
3069:SynaptiX_FDK/services/cJSON/cJSON.c ****             if (compare_double(a->valuedouble, b->valuedouble))
3070:SynaptiX_FDK/services/cJSON/cJSON.c ****             {
3071:SynaptiX_FDK/services/cJSON/cJSON.c ****                 return true;
3072:SynaptiX_FDK/services/cJSON/cJSON.c ****             }
3073:SynaptiX_FDK/services/cJSON/cJSON.c ****             return false;
3074:SynaptiX_FDK/services/cJSON/cJSON.c **** 
3075:SynaptiX_FDK/services/cJSON/cJSON.c ****         case cJSON_String:
3076:SynaptiX_FDK/services/cJSON/cJSON.c ****         case cJSON_Raw:
3077:SynaptiX_FDK/services/cJSON/cJSON.c ****             if ((a->valuestring == NULL) || (b->valuestring == NULL))
 10536              		.loc 1 3077 13 is_stmt 1 view .LVU2968
 10537              		.loc 1 3077 19 is_stmt 0 view .LVU2969
 10538 008e 3869     		ldr	r0, [r7, #16]
 10539              	.LVL988:
 10540              		.loc 1 3077 16 view .LVU2970
 10541 0090 0028     		cmp	r0, #0
 10542 0092 50D0     		beq	.L894
 10543              		.loc 1 3077 47 discriminator 1 view .LVU2971
 10544 0094 2969     		ldr	r1, [r5, #16]
 10545              		.loc 1 3077 42 discriminator 1 view .LVU2972
 10546 0096 0029     		cmp	r1, #0
 10547 0098 4DD0     		beq	.L894
3078:SynaptiX_FDK/services/cJSON/cJSON.c ****             {
3079:SynaptiX_FDK/services/cJSON/cJSON.c ****                 return false;
3080:SynaptiX_FDK/services/cJSON/cJSON.c ****             }
3081:SynaptiX_FDK/services/cJSON/cJSON.c ****             if (strcmp(a->valuestring, b->valuestring) == 0)
 10548              		.loc 1 3081 13 is_stmt 1 view .LVU2973
 10549              		.loc 1 3081 17 is_stmt 0 view .LVU2974
ARM GAS  C:\Users\DELL\AppData\Local\Temp\ccXjhdgA.s 			page 281


 10550 009a FFF7FEFF 		bl	strcmp
 10551              	.LVL989:
 10552              		.loc 1 3081 16 discriminator 1 view .LVU2975
 10553 009e 0028     		cmp	r0, #0
 10554 00a0 49D1     		bne	.L894
3082:SynaptiX_FDK/services/cJSON/cJSON.c ****             {
3083:SynaptiX_FDK/services/cJSON/cJSON.c ****                 return true;
 10555              		.loc 1 3083 24 view .LVU2976
 10556 00a2 0124     		movs	r4, #1
 10557 00a4 47E0     		b	.L894
 10558              	.LVL990:
 10559              	.L903:
3069:SynaptiX_FDK/services/cJSON/cJSON.c ****             {
 10560              		.loc 1 3069 13 is_stmt 1 view .LVU2977
3069:SynaptiX_FDK/services/cJSON/cJSON.c ****             {
 10561              		.loc 1 3069 17 is_stmt 0 view .LVU2978
 10562 00a6 95ED061B 		vldr.64	d1, [r5, #24]
 10563 00aa 97ED060B 		vldr.64	d0, [r7, #24]
 10564 00ae FFF7FEFF 		bl	compare_double
 10565              	.LVL991:
3069:SynaptiX_FDK/services/cJSON/cJSON.c ****             {
 10566              		.loc 1 3069 16 discriminator 1 view .LVU2979
 10567 00b2 0446     		mov	r4, r0
 10568 00b4 0028     		cmp	r0, #0
 10569 00b6 3ED0     		beq	.L894
3071:SynaptiX_FDK/services/cJSON/cJSON.c ****             }
 10570              		.loc 1 3071 24 view .LVU2980
 10571 00b8 0124     		movs	r4, #1
 10572 00ba 3CE0     		b	.L894
 10573              	.LVL992:
 10574              	.L900:
 10575              	.LBB21:
3084:SynaptiX_FDK/services/cJSON/cJSON.c ****             }
3085:SynaptiX_FDK/services/cJSON/cJSON.c **** 
3086:SynaptiX_FDK/services/cJSON/cJSON.c ****             return false;
3087:SynaptiX_FDK/services/cJSON/cJSON.c **** 
3088:SynaptiX_FDK/services/cJSON/cJSON.c ****         case cJSON_Array:
3089:SynaptiX_FDK/services/cJSON/cJSON.c ****         {
3090:SynaptiX_FDK/services/cJSON/cJSON.c ****             cJSON *a_element = a->child;
 10576              		.loc 1 3090 13 is_stmt 1 view .LVU2981
 10577              		.loc 1 3090 20 is_stmt 0 view .LVU2982
 10578 00bc BF68     		ldr	r7, [r7, #8]
 10579              	.LVL993:
3091:SynaptiX_FDK/services/cJSON/cJSON.c ****             cJSON *b_element = b->child;
 10580              		.loc 1 3091 13 is_stmt 1 view .LVU2983
 10581              		.loc 1 3091 20 is_stmt 0 view .LVU2984
 10582 00be AD68     		ldr	r5, [r5, #8]
 10583              	.LVL994:
3092:SynaptiX_FDK/services/cJSON/cJSON.c **** 
3093:SynaptiX_FDK/services/cJSON/cJSON.c ****             for (; (a_element != NULL) && (b_element != NULL);)
 10584              		.loc 1 3093 13 is_stmt 1 view .LVU2985
 10585              	.L906:
 10586              		.loc 1 3093 40 view .LVU2986
 10587 00c0 4FB1     		cbz	r7, .L907
 10588              		.loc 1 3093 40 is_stmt 0 discriminator 1 view .LVU2987
 10589 00c2 45B1     		cbz	r5, .L907
3094:SynaptiX_FDK/services/cJSON/cJSON.c ****             {
ARM GAS  C:\Users\DELL\AppData\Local\Temp\ccXjhdgA.s 			page 282


3095:SynaptiX_FDK/services/cJSON/cJSON.c ****                 if (!cJSON_Compare(a_element, b_element, case_sensitive))
 10590              		.loc 1 3095 17 is_stmt 1 view .LVU2988
 10591              		.loc 1 3095 22 is_stmt 0 view .LVU2989
 10592 00c4 3246     		mov	r2, r6
 10593 00c6 2946     		mov	r1, r5
 10594 00c8 3846     		mov	r0, r7
 10595 00ca FFF7FEFF 		bl	cJSON_Compare
 10596              	.LVL995:
 10597              		.loc 1 3095 20 discriminator 1 view .LVU2990
 10598 00ce B8B3     		cbz	r0, .L919
3096:SynaptiX_FDK/services/cJSON/cJSON.c ****                 {
3097:SynaptiX_FDK/services/cJSON/cJSON.c ****                     return false;
3098:SynaptiX_FDK/services/cJSON/cJSON.c ****                 }
3099:SynaptiX_FDK/services/cJSON/cJSON.c **** 
3100:SynaptiX_FDK/services/cJSON/cJSON.c ****                 a_element = a_element->next;
 10599              		.loc 1 3100 17 is_stmt 1 view .LVU2991
 10600              		.loc 1 3100 27 is_stmt 0 view .LVU2992
 10601 00d0 3F68     		ldr	r7, [r7]
 10602              	.LVL996:
3101:SynaptiX_FDK/services/cJSON/cJSON.c ****                 b_element = b_element->next;
 10603              		.loc 1 3101 17 is_stmt 1 view .LVU2993
 10604              		.loc 1 3101 27 is_stmt 0 view .LVU2994
 10605 00d2 2D68     		ldr	r5, [r5]
 10606              	.LVL997:
 10607              		.loc 1 3101 27 view .LVU2995
 10608 00d4 F4E7     		b	.L906
 10609              	.LVL998:
 10610              	.L907:
3102:SynaptiX_FDK/services/cJSON/cJSON.c ****             }
3103:SynaptiX_FDK/services/cJSON/cJSON.c **** 
3104:SynaptiX_FDK/services/cJSON/cJSON.c ****             /* one of the arrays is longer than the other */
3105:SynaptiX_FDK/services/cJSON/cJSON.c ****             if (a_element != b_element) {
 10611              		.loc 1 3105 13 is_stmt 1 view .LVU2996
 10612              		.loc 1 3105 16 is_stmt 0 view .LVU2997
 10613 00d6 AF42     		cmp	r7, r5
 10614 00d8 2DD1     		bne	.L894
3106:SynaptiX_FDK/services/cJSON/cJSON.c ****                 return false;
3107:SynaptiX_FDK/services/cJSON/cJSON.c ****             }
3108:SynaptiX_FDK/services/cJSON/cJSON.c **** 
3109:SynaptiX_FDK/services/cJSON/cJSON.c ****             return true;
 10615              		.loc 1 3109 20 view .LVU2998
 10616 00da 0124     		movs	r4, #1
 10617 00dc 2BE0     		b	.L894
 10618              	.LVL999:
 10619              	.L905:
 10620              		.loc 1 3109 20 view .LVU2999
 10621              	.LBE21:
 10622              	.LBB22:
3110:SynaptiX_FDK/services/cJSON/cJSON.c ****         }
3111:SynaptiX_FDK/services/cJSON/cJSON.c **** 
3112:SynaptiX_FDK/services/cJSON/cJSON.c ****         case cJSON_Object:
3113:SynaptiX_FDK/services/cJSON/cJSON.c ****         {
3114:SynaptiX_FDK/services/cJSON/cJSON.c ****             cJSON *a_element = NULL;
 10623              		.loc 1 3114 13 is_stmt 1 view .LVU3000
3115:SynaptiX_FDK/services/cJSON/cJSON.c ****             cJSON *b_element = NULL;
 10624              		.loc 1 3115 13 view .LVU3001
3116:SynaptiX_FDK/services/cJSON/cJSON.c ****             cJSON_ArrayForEach(a_element, a)
ARM GAS  C:\Users\DELL\AppData\Local\Temp\ccXjhdgA.s 			page 283


 10625              		.loc 1 3116 13 view .LVU3002
 10626              		.loc 1 3116 13 is_stmt 0 discriminator 1 view .LVU3003
 10627 00de D7F80880 		ldr	r8, [r7, #8]
 10628              	.LVL1000:
 10629              	.L909:
 10630              		.loc 1 3116 13 is_stmt 1 discriminator 5 view .LVU3004
 10631 00e2 B8F1000F 		cmp	r8, #0
 10632 00e6 0FD0     		beq	.L926
3117:SynaptiX_FDK/services/cJSON/cJSON.c ****             {
3118:SynaptiX_FDK/services/cJSON/cJSON.c ****                 /* TODO This has O(n^2) runtime, which is horrible! */
3119:SynaptiX_FDK/services/cJSON/cJSON.c ****                 b_element = get_object_item(b, a_element->string, case_sensitive);
 10633              		.loc 1 3119 17 view .LVU3005
 10634              		.loc 1 3119 29 is_stmt 0 view .LVU3006
 10635 00e8 3246     		mov	r2, r6
 10636 00ea D8F82010 		ldr	r1, [r8, #32]
 10637 00ee 2846     		mov	r0, r5
 10638 00f0 FFF7FEFF 		bl	get_object_item
 10639              	.LVL1001:
3120:SynaptiX_FDK/services/cJSON/cJSON.c ****                 if (b_element == NULL)
 10640              		.loc 1 3120 17 is_stmt 1 view .LVU3007
 10641              		.loc 1 3120 20 is_stmt 0 view .LVU3008
 10642 00f4 0146     		mov	r1, r0
 10643 00f6 F0B1     		cbz	r0, .L894
3121:SynaptiX_FDK/services/cJSON/cJSON.c ****                 {
3122:SynaptiX_FDK/services/cJSON/cJSON.c ****                     return false;
3123:SynaptiX_FDK/services/cJSON/cJSON.c ****                 }
3124:SynaptiX_FDK/services/cJSON/cJSON.c **** 
3125:SynaptiX_FDK/services/cJSON/cJSON.c ****                 if (!cJSON_Compare(a_element, b_element, case_sensitive))
 10644              		.loc 1 3125 17 is_stmt 1 view .LVU3009
 10645              		.loc 1 3125 22 is_stmt 0 view .LVU3010
 10646 00f8 3246     		mov	r2, r6
 10647 00fa 4046     		mov	r0, r8
 10648              	.LVL1002:
 10649              		.loc 1 3125 22 view .LVU3011
 10650 00fc FFF7FEFF 		bl	cJSON_Compare
 10651              	.LVL1003:
 10652              		.loc 1 3125 20 discriminator 1 view .LVU3012
 10653 0100 00B3     		cbz	r0, .L920
3116:SynaptiX_FDK/services/cJSON/cJSON.c ****             {
 10654              		.loc 1 3116 13 is_stmt 1 discriminator 6 view .LVU3013
 10655 0102 D8F80080 		ldr	r8, [r8]
 10656              	.LVL1004:
3116:SynaptiX_FDK/services/cJSON/cJSON.c ****             {
 10657              		.loc 1 3116 13 is_stmt 0 discriminator 6 view .LVU3014
 10658 0106 ECE7     		b	.L909
 10659              	.LVL1005:
 10660              	.L926:
3126:SynaptiX_FDK/services/cJSON/cJSON.c ****                 {
3127:SynaptiX_FDK/services/cJSON/cJSON.c ****                     return false;
3128:SynaptiX_FDK/services/cJSON/cJSON.c ****                 }
3129:SynaptiX_FDK/services/cJSON/cJSON.c ****             }
3130:SynaptiX_FDK/services/cJSON/cJSON.c **** 
3131:SynaptiX_FDK/services/cJSON/cJSON.c ****             /* doing this twice, once on a and b to prevent true comparison if a subset of b
3132:SynaptiX_FDK/services/cJSON/cJSON.c ****              * TODO: Do this the proper way, this is just a fix for now */
3133:SynaptiX_FDK/services/cJSON/cJSON.c ****             cJSON_ArrayForEach(b_element, b)
 10661              		.loc 1 3133 13 is_stmt 1 view .LVU3015
 10662              		.loc 1 3133 13 is_stmt 0 discriminator 1 view .LVU3016
ARM GAS  C:\Users\DELL\AppData\Local\Temp\ccXjhdgA.s 			page 284


 10663 0108 AD68     		ldr	r5, [r5, #8]
 10664              	.LVL1006:
 10665              	.L911:
 10666              		.loc 1 3133 13 is_stmt 1 discriminator 5 view .LVU3017
 10667 010a 6DB1     		cbz	r5, .L927
3134:SynaptiX_FDK/services/cJSON/cJSON.c ****             {
3135:SynaptiX_FDK/services/cJSON/cJSON.c ****                 a_element = get_object_item(a, b_element->string, case_sensitive);
 10668              		.loc 1 3135 17 view .LVU3018
 10669              		.loc 1 3135 29 is_stmt 0 view .LVU3019
 10670 010c 3246     		mov	r2, r6
 10671 010e 296A     		ldr	r1, [r5, #32]
 10672 0110 3846     		mov	r0, r7
 10673 0112 FFF7FEFF 		bl	get_object_item
 10674              	.LVL1007:
3136:SynaptiX_FDK/services/cJSON/cJSON.c ****                 if (a_element == NULL)
 10675              		.loc 1 3136 17 is_stmt 1 view .LVU3020
 10676              		.loc 1 3136 20 is_stmt 0 view .LVU3021
 10677 0116 0146     		mov	r1, r0
 10678 0118 68B1     		cbz	r0, .L894
3137:SynaptiX_FDK/services/cJSON/cJSON.c ****                 {
3138:SynaptiX_FDK/services/cJSON/cJSON.c ****                     return false;
3139:SynaptiX_FDK/services/cJSON/cJSON.c ****                 }
3140:SynaptiX_FDK/services/cJSON/cJSON.c **** 
3141:SynaptiX_FDK/services/cJSON/cJSON.c ****                 if (!cJSON_Compare(b_element, a_element, case_sensitive))
 10679              		.loc 1 3141 17 is_stmt 1 view .LVU3022
 10680              		.loc 1 3141 22 is_stmt 0 view .LVU3023
 10681 011a 3246     		mov	r2, r6
 10682 011c 2846     		mov	r0, r5
 10683              	.LVL1008:
 10684              		.loc 1 3141 22 view .LVU3024
 10685 011e FFF7FEFF 		bl	cJSON_Compare
 10686              	.LVL1009:
 10687              		.loc 1 3141 20 discriminator 1 view .LVU3025
 10688 0122 88B1     		cbz	r0, .L921
3133:SynaptiX_FDK/services/cJSON/cJSON.c ****             {
 10689              		.loc 1 3133 13 is_stmt 1 discriminator 6 view .LVU3026
 10690 0124 2D68     		ldr	r5, [r5]
 10691              	.LVL1010:
3133:SynaptiX_FDK/services/cJSON/cJSON.c ****             {
 10692              		.loc 1 3133 13 is_stmt 0 discriminator 6 view .LVU3027
 10693 0126 F0E7     		b	.L911
 10694              	.LVL1011:
 10695              	.L927:
3142:SynaptiX_FDK/services/cJSON/cJSON.c ****                 {
3143:SynaptiX_FDK/services/cJSON/cJSON.c ****                     return false;
3144:SynaptiX_FDK/services/cJSON/cJSON.c ****                 }
3145:SynaptiX_FDK/services/cJSON/cJSON.c ****             }
3146:SynaptiX_FDK/services/cJSON/cJSON.c **** 
3147:SynaptiX_FDK/services/cJSON/cJSON.c ****             return true;
 10696              		.loc 1 3147 20 view .LVU3028
 10697 0128 0124     		movs	r4, #1
 10698 012a 04E0     		b	.L894
 10699              	.LVL1012:
 10700              	.L913:
 10701              		.loc 1 3147 20 view .LVU3029
 10702              	.LBE22:
3034:SynaptiX_FDK/services/cJSON/cJSON.c ****     }
ARM GAS  C:\Users\DELL\AppData\Local\Temp\ccXjhdgA.s 			page 285


 10703              		.loc 1 3034 16 view .LVU3030
 10704 012c 0024     		movs	r4, #0
 10705 012e 02E0     		b	.L894
 10706              	.L914:
3034:SynaptiX_FDK/services/cJSON/cJSON.c ****     }
 10707              		.loc 1 3034 16 view .LVU3031
 10708 0130 0024     		movs	r4, #0
 10709 0132 00E0     		b	.L894
 10710              	.L915:
 10711 0134 0024     		movs	r4, #0
 10712              	.LVL1013:
 10713              	.L894:
3148:SynaptiX_FDK/services/cJSON/cJSON.c ****         }
3149:SynaptiX_FDK/services/cJSON/cJSON.c **** 
3150:SynaptiX_FDK/services/cJSON/cJSON.c ****         default:
3151:SynaptiX_FDK/services/cJSON/cJSON.c ****             return false;
3152:SynaptiX_FDK/services/cJSON/cJSON.c ****     }
3153:SynaptiX_FDK/services/cJSON/cJSON.c **** }
 10714              		.loc 1 3153 1 view .LVU3032
 10715 0136 2046     		mov	r0, r4
 10716 0138 BDE8F081 		pop	{r4, r5, r6, r7, r8, pc}
 10717              	.LVL1014:
 10718              	.L916:
3057:SynaptiX_FDK/services/cJSON/cJSON.c ****     }
 10719              		.loc 1 3057 16 view .LVU3033
 10720 013c 0124     		movs	r4, #1
 10721 013e FAE7     		b	.L894
 10722              	.LVL1015:
 10723              	.L919:
 10724              	.LBB23:
3097:SynaptiX_FDK/services/cJSON/cJSON.c ****                 }
 10725              		.loc 1 3097 28 view .LVU3034
 10726 0140 0446     		mov	r4, r0
 10727 0142 F8E7     		b	.L894
 10728              	.LVL1016:
 10729              	.L920:
3097:SynaptiX_FDK/services/cJSON/cJSON.c ****                 }
 10730              		.loc 1 3097 28 view .LVU3035
 10731              	.LBE23:
 10732              	.LBB24:
3127:SynaptiX_FDK/services/cJSON/cJSON.c ****                 }
 10733              		.loc 1 3127 28 view .LVU3036
 10734 0144 0446     		mov	r4, r0
 10735 0146 F6E7     		b	.L894
 10736              	.LVL1017:
 10737              	.L921:
3143:SynaptiX_FDK/services/cJSON/cJSON.c ****                 }
 10738              		.loc 1 3143 28 view .LVU3037
 10739 0148 0446     		mov	r4, r0
 10740 014a F4E7     		b	.L894
 10741              	.L929:
 10742              		.align	2
 10743              	.L928:
 10744 014c 11100010 		.word	268439569
 10745              	.LBE24:
 10746              		.cfi_endproc
 10747              	.LFE114:
ARM GAS  C:\Users\DELL\AppData\Local\Temp\ccXjhdgA.s 			page 286


 10749              		.section	.text.cJSON_malloc,"ax",%progbits
 10750              		.align	1
 10751              		.global	cJSON_malloc
 10752              		.syntax unified
 10753              		.thumb
 10754              		.thumb_func
 10756              	cJSON_malloc:
 10757              	.LVL1018:
 10758              	.LFB115:
3154:SynaptiX_FDK/services/cJSON/cJSON.c **** 
3155:SynaptiX_FDK/services/cJSON/cJSON.c **** CJSON_PUBLIC(void *) cJSON_malloc(size_t size)
3156:SynaptiX_FDK/services/cJSON/cJSON.c **** {
 10759              		.loc 1 3156 1 is_stmt 1 view -0
 10760              		.cfi_startproc
 10761              		@ args = 0, pretend = 0, frame = 0
 10762              		@ frame_needed = 0, uses_anonymous_args = 0
 10763              		.loc 1 3156 1 is_stmt 0 view .LVU3039
 10764 0000 08B5     		push	{r3, lr}
 10765              	.LCFI168:
 10766              		.cfi_def_cfa_offset 8
 10767              		.cfi_offset 3, -8
 10768              		.cfi_offset 14, -4
3157:SynaptiX_FDK/services/cJSON/cJSON.c ****     return global_hooks.allocate(size);
 10769              		.loc 1 3157 5 is_stmt 1 view .LVU3040
 10770              		.loc 1 3157 24 is_stmt 0 view .LVU3041
 10771 0002 024B     		ldr	r3, .L932
 10772 0004 1B68     		ldr	r3, [r3]
 10773              		.loc 1 3157 12 view .LVU3042
 10774 0006 9847     		blx	r3
 10775              	.LVL1019:
3158:SynaptiX_FDK/services/cJSON/cJSON.c **** }
 10776              		.loc 1 3158 1 view .LVU3043
 10777 0008 08BD     		pop	{r3, pc}
 10778              	.L933:
 10779 000a 00BF     		.align	2
 10780              	.L932:
 10781 000c 00000000 		.word	global_hooks
 10782              		.cfi_endproc
 10783              	.LFE115:
 10785              		.section	.text.cJSON_free,"ax",%progbits
 10786              		.align	1
 10787              		.global	cJSON_free
 10788              		.syntax unified
 10789              		.thumb
 10790              		.thumb_func
 10792              	cJSON_free:
 10793              	.LVL1020:
 10794              	.LFB116:
3159:SynaptiX_FDK/services/cJSON/cJSON.c **** 
3160:SynaptiX_FDK/services/cJSON/cJSON.c **** CJSON_PUBLIC(void) cJSON_free(void *object)
3161:SynaptiX_FDK/services/cJSON/cJSON.c **** {
 10795              		.loc 1 3161 1 is_stmt 1 view -0
 10796              		.cfi_startproc
 10797              		@ args = 0, pretend = 0, frame = 0
 10798              		@ frame_needed = 0, uses_anonymous_args = 0
 10799              		.loc 1 3161 1 is_stmt 0 view .LVU3045
 10800 0000 08B5     		push	{r3, lr}
ARM GAS  C:\Users\DELL\AppData\Local\Temp\ccXjhdgA.s 			page 287


 10801              	.LCFI169:
 10802              		.cfi_def_cfa_offset 8
 10803              		.cfi_offset 3, -8
 10804              		.cfi_offset 14, -4
3162:SynaptiX_FDK/services/cJSON/cJSON.c ****     global_hooks.deallocate(object);
 10805              		.loc 1 3162 5 is_stmt 1 view .LVU3046
 10806              		.loc 1 3162 17 is_stmt 0 view .LVU3047
 10807 0002 024B     		ldr	r3, .L936
 10808 0004 5B68     		ldr	r3, [r3, #4]
 10809              		.loc 1 3162 5 view .LVU3048
 10810 0006 9847     		blx	r3
 10811              	.LVL1021:
3163:SynaptiX_FDK/services/cJSON/cJSON.c ****     object = NULL;
 10812              		.loc 1 3163 5 is_stmt 1 view .LVU3049
3164:SynaptiX_FDK/services/cJSON/cJSON.c **** }
 10813              		.loc 1 3164 1 is_stmt 0 view .LVU3050
 10814 0008 08BD     		pop	{r3, pc}
 10815              	.L937:
 10816 000a 00BF     		.align	2
 10817              	.L936:
 10818 000c 00000000 		.word	global_hooks
 10819              		.cfi_endproc
 10820              	.LFE116:
 10822              		.section	.text.cJSON_SetValuestring,"ax",%progbits
 10823              		.align	1
 10824              		.global	cJSON_SetValuestring
 10825              		.syntax unified
 10826              		.thumb
 10827              		.thumb_func
 10829              	cJSON_SetValuestring:
 10830              	.LVL1022:
 10831              	.LFB16:
 404:SynaptiX_FDK/services/cJSON/cJSON.c ****     char *copy = NULL;
 10832              		.loc 1 404 1 is_stmt 1 view -0
 10833              		.cfi_startproc
 10834              		@ args = 0, pretend = 0, frame = 0
 10835              		@ frame_needed = 0, uses_anonymous_args = 0
 404:SynaptiX_FDK/services/cJSON/cJSON.c ****     char *copy = NULL;
 10836              		.loc 1 404 1 is_stmt 0 view .LVU3052
 10837 0000 F8B5     		push	{r3, r4, r5, r6, r7, lr}
 10838              	.LCFI170:
 10839              		.cfi_def_cfa_offset 24
 10840              		.cfi_offset 3, -24
 10841              		.cfi_offset 4, -20
 10842              		.cfi_offset 5, -16
 10843              		.cfi_offset 6, -12
 10844              		.cfi_offset 7, -8
 10845              		.cfi_offset 14, -4
 405:SynaptiX_FDK/services/cJSON/cJSON.c ****     size_t v1_len;
 10846              		.loc 1 405 5 is_stmt 1 view .LVU3053
 10847              	.LVL1023:
 406:SynaptiX_FDK/services/cJSON/cJSON.c ****     size_t v2_len;
 10848              		.loc 1 406 5 view .LVU3054
 407:SynaptiX_FDK/services/cJSON/cJSON.c ****     /* if object's type is not cJSON_String or is cJSON_IsReference, it should not set valuestring 
 10849              		.loc 1 407 5 view .LVU3055
 409:SynaptiX_FDK/services/cJSON/cJSON.c ****     {
 10850              		.loc 1 409 5 view .LVU3056
ARM GAS  C:\Users\DELL\AppData\Local\Temp\ccXjhdgA.s 			page 288


 409:SynaptiX_FDK/services/cJSON/cJSON.c ****     {
 10851              		.loc 1 409 8 is_stmt 0 view .LVU3057
 10852 0002 0746     		mov	r7, r0
 10853 0004 58B3     		cbz	r0, .L943
 10854 0006 0C46     		mov	r4, r1
 409:SynaptiX_FDK/services/cJSON/cJSON.c ****     {
 10855              		.loc 1 409 60 discriminator 1 view .LVU3058
 10856 0008 C368     		ldr	r3, [r0, #12]
 10857 000a 03F48873 		and	r3, r3, #272
 10858 000e 102B     		cmp	r3, #16
 10859 0010 27D1     		bne	.L944
 414:SynaptiX_FDK/services/cJSON/cJSON.c ****     {
 10860              		.loc 1 414 5 is_stmt 1 view .LVU3059
 414:SynaptiX_FDK/services/cJSON/cJSON.c ****     {
 10861              		.loc 1 414 15 is_stmt 0 view .LVU3060
 10862 0012 0569     		ldr	r5, [r0, #16]
 414:SynaptiX_FDK/services/cJSON/cJSON.c ****     {
 10863              		.loc 1 414 8 view .LVU3061
 10864 0014 A5B1     		cbz	r5, .L938
 414:SynaptiX_FDK/services/cJSON/cJSON.c ****     {
 10865              		.loc 1 414 37 discriminator 1 view .LVU3062
 10866 0016 31B3     		cbz	r1, .L945
 419:SynaptiX_FDK/services/cJSON/cJSON.c ****     v2_len = strlen(object->valuestring);
 10867              		.loc 1 419 5 is_stmt 1 view .LVU3063
 419:SynaptiX_FDK/services/cJSON/cJSON.c ****     v2_len = strlen(object->valuestring);
 10868              		.loc 1 419 14 is_stmt 0 view .LVU3064
 10869 0018 0846     		mov	r0, r1
 10870              	.LVL1024:
 419:SynaptiX_FDK/services/cJSON/cJSON.c ****     v2_len = strlen(object->valuestring);
 10871              		.loc 1 419 14 view .LVU3065
 10872 001a FFF7FEFF 		bl	strlen
 10873              	.LVL1025:
 419:SynaptiX_FDK/services/cJSON/cJSON.c ****     v2_len = strlen(object->valuestring);
 10874              		.loc 1 419 14 view .LVU3066
 10875 001e 0646     		mov	r6, r0
 10876              	.LVL1026:
 420:SynaptiX_FDK/services/cJSON/cJSON.c **** 
 10877              		.loc 1 420 5 is_stmt 1 view .LVU3067
 420:SynaptiX_FDK/services/cJSON/cJSON.c **** 
 10878              		.loc 1 420 14 is_stmt 0 view .LVU3068
 10879 0020 2846     		mov	r0, r5
 10880              	.LVL1027:
 420:SynaptiX_FDK/services/cJSON/cJSON.c **** 
 10881              		.loc 1 420 14 view .LVU3069
 10882 0022 FFF7FEFF 		bl	strlen
 10883              	.LVL1028:
 422:SynaptiX_FDK/services/cJSON/cJSON.c ****     {
 10884              		.loc 1 422 5 is_stmt 1 view .LVU3070
 422:SynaptiX_FDK/services/cJSON/cJSON.c ****     {
 10885              		.loc 1 422 8 is_stmt 0 view .LVU3071
 10886 0026 8642     		cmp	r6, r0
 10887 0028 0CD8     		bhi	.L940
 425:SynaptiX_FDK/services/cJSON/cJSON.c ****         {
 10888              		.loc 1 425 9 is_stmt 1 view .LVU3072
 425:SynaptiX_FDK/services/cJSON/cJSON.c ****         {
 10889              		.loc 1 425 28 is_stmt 0 view .LVU3073
 10890 002a 2644     		add	r6, r6, r4
ARM GAS  C:\Users\DELL\AppData\Local\Temp\ccXjhdgA.s 			page 289


 10891              	.LVL1029:
 425:SynaptiX_FDK/services/cJSON/cJSON.c ****         {
 10892              		.loc 1 425 12 view .LVU3074
 10893 002c B542     		cmp	r5, r6
 10894 002e 02D8     		bhi	.L941
 425:SynaptiX_FDK/services/cJSON/cJSON.c ****         {
 10895              		.loc 1 425 82 discriminator 1 view .LVU3075
 10896 0030 2844     		add	r0, r0, r5
 10897              	.LVL1030:
 425:SynaptiX_FDK/services/cJSON/cJSON.c ****         {
 10898              		.loc 1 425 13 discriminator 1 view .LVU3076
 10899 0032 A042     		cmp	r0, r4
 10900 0034 19D2     		bcs	.L946
 10901              	.L941:
 429:SynaptiX_FDK/services/cJSON/cJSON.c ****         return object->valuestring;
 10902              		.loc 1 429 9 is_stmt 1 view .LVU3077
 10903 0036 2146     		mov	r1, r4
 10904 0038 2846     		mov	r0, r5
 10905 003a FFF7FEFF 		bl	strcpy
 10906              	.LVL1031:
 430:SynaptiX_FDK/services/cJSON/cJSON.c ****     }
 10907              		.loc 1 430 9 view .LVU3078
 430:SynaptiX_FDK/services/cJSON/cJSON.c ****     }
 10908              		.loc 1 430 22 is_stmt 0 view .LVU3079
 10909 003e 3D69     		ldr	r5, [r7, #16]
 10910              	.LVL1032:
 10911              	.L938:
 444:SynaptiX_FDK/services/cJSON/cJSON.c **** 
 10912              		.loc 1 444 1 view .LVU3080
 10913 0040 2846     		mov	r0, r5
 10914 0042 F8BD     		pop	{r3, r4, r5, r6, r7, pc}
 10915              	.LVL1033:
 10916              	.L940:
 432:SynaptiX_FDK/services/cJSON/cJSON.c ****     if (copy == NULL)
 10917              		.loc 1 432 5 is_stmt 1 view .LVU3081
 432:SynaptiX_FDK/services/cJSON/cJSON.c ****     if (copy == NULL)
 10918              		.loc 1 432 20 is_stmt 0 view .LVU3082
 10919 0044 0A49     		ldr	r1, .L948
 10920 0046 2046     		mov	r0, r4
 10921              	.LVL1034:
 432:SynaptiX_FDK/services/cJSON/cJSON.c ****     if (copy == NULL)
 10922              		.loc 1 432 20 view .LVU3083
 10923 0048 FFF7FEFF 		bl	cJSON_strdup
 10924              	.LVL1035:
 433:SynaptiX_FDK/services/cJSON/cJSON.c ****     {
 10925              		.loc 1 433 5 is_stmt 1 view .LVU3084
 433:SynaptiX_FDK/services/cJSON/cJSON.c ****     {
 10926              		.loc 1 433 8 is_stmt 0 view .LVU3085
 10927 004c 0546     		mov	r5, r0
 10928 004e 0028     		cmp	r0, #0
 10929 0050 F6D0     		beq	.L938
 437:SynaptiX_FDK/services/cJSON/cJSON.c ****     {
 10930              		.loc 1 437 5 is_stmt 1 view .LVU3086
 437:SynaptiX_FDK/services/cJSON/cJSON.c ****     {
 10931              		.loc 1 437 15 is_stmt 0 view .LVU3087
 10932 0052 3869     		ldr	r0, [r7, #16]
 10933              	.LVL1036:
ARM GAS  C:\Users\DELL\AppData\Local\Temp\ccXjhdgA.s 			page 290


 437:SynaptiX_FDK/services/cJSON/cJSON.c ****     {
 10934              		.loc 1 437 8 view .LVU3088
 10935 0054 08B1     		cbz	r0, .L942
 439:SynaptiX_FDK/services/cJSON/cJSON.c ****     }
 10936              		.loc 1 439 9 is_stmt 1 view .LVU3089
 10937 0056 FFF7FEFF 		bl	cJSON_free
 10938              	.LVL1037:
 10939              	.L942:
 441:SynaptiX_FDK/services/cJSON/cJSON.c **** 
 10940              		.loc 1 441 5 view .LVU3090
 441:SynaptiX_FDK/services/cJSON/cJSON.c **** 
 10941              		.loc 1 441 25 is_stmt 0 view .LVU3091
 10942 005a 3D61     		str	r5, [r7, #16]
 443:SynaptiX_FDK/services/cJSON/cJSON.c **** }
 10943              		.loc 1 443 5 is_stmt 1 view .LVU3092
 443:SynaptiX_FDK/services/cJSON/cJSON.c **** }
 10944              		.loc 1 443 12 is_stmt 0 view .LVU3093
 10945 005c F0E7     		b	.L938
 10946              	.LVL1038:
 10947              	.L943:
 411:SynaptiX_FDK/services/cJSON/cJSON.c ****     }
 10948              		.loc 1 411 16 view .LVU3094
 10949 005e 0546     		mov	r5, r0
 10950 0060 EEE7     		b	.L938
 10951              	.L944:
 411:SynaptiX_FDK/services/cJSON/cJSON.c ****     }
 10952              		.loc 1 411 16 view .LVU3095
 10953 0062 0025     		movs	r5, #0
 10954 0064 ECE7     		b	.L938
 10955              	.L945:
 416:SynaptiX_FDK/services/cJSON/cJSON.c ****     }
 10956              		.loc 1 416 16 view .LVU3096
 10957 0066 0D46     		mov	r5, r1
 10958 0068 EAE7     		b	.L938
 10959              	.LVL1039:
 10960              	.L946:
 427:SynaptiX_FDK/services/cJSON/cJSON.c ****         }
 10961              		.loc 1 427 20 view .LVU3097
 10962 006a 0025     		movs	r5, #0
 10963 006c E8E7     		b	.L938
 10964              	.L949:
 10965 006e 00BF     		.align	2
 10966              	.L948:
 10967 0070 00000000 		.word	global_hooks
 10968              		.cfi_endproc
 10969              	.LFE16:
 10971              		.section	.text.replace_item_in_object,"ax",%progbits
 10972              		.align	1
 10973              		.syntax unified
 10974              		.thumb
 10975              		.thumb_func
 10977              	replace_item_in_object:
 10978              	.LVL1040:
 10979              	.LFB79:
2386:SynaptiX_FDK/services/cJSON/cJSON.c ****     if ((replacement == NULL) || (string == NULL))
 10980              		.loc 1 2386 1 is_stmt 1 view -0
 10981              		.cfi_startproc
ARM GAS  C:\Users\DELL\AppData\Local\Temp\ccXjhdgA.s 			page 291


 10982              		@ args = 0, pretend = 0, frame = 0
 10983              		@ frame_needed = 0, uses_anonymous_args = 0
2387:SynaptiX_FDK/services/cJSON/cJSON.c ****     {
 10984              		.loc 1 2387 5 view .LVU3099
2387:SynaptiX_FDK/services/cJSON/cJSON.c ****     {
 10985              		.loc 1 2387 8 is_stmt 0 view .LVU3100
 10986 0000 12B3     		cbz	r2, .L953
2386:SynaptiX_FDK/services/cJSON/cJSON.c ****     if ((replacement == NULL) || (string == NULL))
 10987              		.loc 1 2386 1 view .LVU3101
 10988 0002 F8B5     		push	{r3, r4, r5, r6, r7, lr}
 10989              	.LCFI171:
 10990              		.cfi_def_cfa_offset 24
 10991              		.cfi_offset 3, -24
 10992              		.cfi_offset 4, -20
 10993              		.cfi_offset 5, -16
 10994              		.cfi_offset 6, -12
 10995              		.cfi_offset 7, -8
 10996              		.cfi_offset 14, -4
 10997 0004 0646     		mov	r6, r0
 10998 0006 0C46     		mov	r4, r1
 10999 0008 1F46     		mov	r7, r3
 11000 000a 1546     		mov	r5, r2
2387:SynaptiX_FDK/services/cJSON/cJSON.c ****     {
 11001              		.loc 1 2387 31 discriminator 1 view .LVU3102
 11002 000c F1B1     		cbz	r1, .L954
2393:SynaptiX_FDK/services/cJSON/cJSON.c ****     {
 11003              		.loc 1 2393 5 is_stmt 1 view .LVU3103
2393:SynaptiX_FDK/services/cJSON/cJSON.c ****     {
 11004              		.loc 1 2393 22 is_stmt 0 view .LVU3104
 11005 000e D368     		ldr	r3, [r2, #12]
 11006              	.LVL1041:
2393:SynaptiX_FDK/services/cJSON/cJSON.c ****     {
 11007              		.loc 1 2393 8 view .LVU3105
 11008 0010 13F4007F 		tst	r3, #512
 11009 0014 03D1     		bne	.L952
2393:SynaptiX_FDK/services/cJSON/cJSON.c ****     {
 11010              		.loc 1 2393 67 discriminator 1 view .LVU3106
 11011 0016 106A     		ldr	r0, [r2, #32]
 11012              	.LVL1042:
2393:SynaptiX_FDK/services/cJSON/cJSON.c ****     {
 11013              		.loc 1 2393 52 discriminator 1 view .LVU3107
 11014 0018 08B1     		cbz	r0, .L952
2395:SynaptiX_FDK/services/cJSON/cJSON.c ****     }
 11015              		.loc 1 2395 9 is_stmt 1 view .LVU3108
 11016 001a FFF7FEFF 		bl	cJSON_free
 11017              	.LVL1043:
 11018              	.L952:
2397:SynaptiX_FDK/services/cJSON/cJSON.c ****     if (replacement->string == NULL)
 11019              		.loc 1 2397 5 view .LVU3109
2397:SynaptiX_FDK/services/cJSON/cJSON.c ****     if (replacement->string == NULL)
 11020              		.loc 1 2397 34 is_stmt 0 view .LVU3110
 11021 001e 0D49     		ldr	r1, .L960
 11022 0020 2046     		mov	r0, r4
 11023 0022 FFF7FEFF 		bl	cJSON_strdup
 11024              	.LVL1044:
2397:SynaptiX_FDK/services/cJSON/cJSON.c ****     if (replacement->string == NULL)
 11025              		.loc 1 2397 25 discriminator 1 view .LVU3111
ARM GAS  C:\Users\DELL\AppData\Local\Temp\ccXjhdgA.s 			page 292


 11026 0026 2862     		str	r0, [r5, #32]
2398:SynaptiX_FDK/services/cJSON/cJSON.c ****     {
 11027              		.loc 1 2398 5 is_stmt 1 view .LVU3112
2398:SynaptiX_FDK/services/cJSON/cJSON.c ****     {
 11028              		.loc 1 2398 8 is_stmt 0 view .LVU3113
 11029 0028 90B1     		cbz	r0, .L955
2403:SynaptiX_FDK/services/cJSON/cJSON.c **** 
 11030              		.loc 1 2403 5 is_stmt 1 view .LVU3114
2403:SynaptiX_FDK/services/cJSON/cJSON.c **** 
 11031              		.loc 1 2403 16 is_stmt 0 view .LVU3115
 11032 002a EB68     		ldr	r3, [r5, #12]
2403:SynaptiX_FDK/services/cJSON/cJSON.c **** 
 11033              		.loc 1 2403 23 view .LVU3116
 11034 002c 23F40073 		bic	r3, r3, #512
 11035 0030 EB60     		str	r3, [r5, #12]
2405:SynaptiX_FDK/services/cJSON/cJSON.c **** }
 11036              		.loc 1 2405 5 is_stmt 1 view .LVU3117
2405:SynaptiX_FDK/services/cJSON/cJSON.c **** }
 11037              		.loc 1 2405 48 is_stmt 0 view .LVU3118
 11038 0032 3A46     		mov	r2, r7
 11039 0034 2146     		mov	r1, r4
 11040 0036 3046     		mov	r0, r6
 11041 0038 FFF7FEFF 		bl	get_object_item
 11042              	.LVL1045:
 11043 003c 0146     		mov	r1, r0
2405:SynaptiX_FDK/services/cJSON/cJSON.c **** }
 11044              		.loc 1 2405 12 discriminator 1 view .LVU3119
 11045 003e 2A46     		mov	r2, r5
 11046 0040 3046     		mov	r0, r6
 11047 0042 FFF7FEFF 		bl	cJSON_ReplaceItemViaPointer
 11048              	.LVL1046:
 11049              	.L950:
2406:SynaptiX_FDK/services/cJSON/cJSON.c **** 
 11050              		.loc 1 2406 1 view .LVU3120
 11051 0046 F8BD     		pop	{r3, r4, r5, r6, r7, pc}
 11052              	.LVL1047:
 11053              	.L953:
 11054              	.LCFI172:
 11055              		.cfi_def_cfa_offset 0
 11056              		.cfi_restore 3
 11057              		.cfi_restore 4
 11058              		.cfi_restore 5
 11059              		.cfi_restore 6
 11060              		.cfi_restore 7
 11061              		.cfi_restore 14
2389:SynaptiX_FDK/services/cJSON/cJSON.c ****     }
 11062              		.loc 1 2389 16 view .LVU3121
 11063 0048 0020     		movs	r0, #0
 11064              	.LVL1048:
2406:SynaptiX_FDK/services/cJSON/cJSON.c **** 
 11065              		.loc 1 2406 1 view .LVU3122
 11066 004a 7047     		bx	lr
 11067              	.LVL1049:
 11068              	.L954:
 11069              	.LCFI173:
 11070              		.cfi_def_cfa_offset 24
 11071              		.cfi_offset 3, -24
ARM GAS  C:\Users\DELL\AppData\Local\Temp\ccXjhdgA.s 			page 293


 11072              		.cfi_offset 4, -20
 11073              		.cfi_offset 5, -16
 11074              		.cfi_offset 6, -12
 11075              		.cfi_offset 7, -8
 11076              		.cfi_offset 14, -4
2389:SynaptiX_FDK/services/cJSON/cJSON.c ****     }
 11077              		.loc 1 2389 16 view .LVU3123
 11078 004c 0020     		movs	r0, #0
 11079              	.LVL1050:
2389:SynaptiX_FDK/services/cJSON/cJSON.c ****     }
 11080              		.loc 1 2389 16 view .LVU3124
 11081 004e FAE7     		b	.L950
 11082              	.LVL1051:
 11083              	.L955:
2400:SynaptiX_FDK/services/cJSON/cJSON.c ****     }
 11084              		.loc 1 2400 16 view .LVU3125
 11085 0050 0020     		movs	r0, #0
 11086 0052 F8E7     		b	.L950
 11087              	.L961:
 11088              		.align	2
 11089              	.L960:
 11090 0054 00000000 		.word	global_hooks
 11091              		.cfi_endproc
 11092              	.LFE79:
 11094              		.section	.text.cJSON_ReplaceItemInObject,"ax",%progbits
 11095              		.align	1
 11096              		.global	cJSON_ReplaceItemInObject
 11097              		.syntax unified
 11098              		.thumb
 11099              		.thumb_func
 11101              	cJSON_ReplaceItemInObject:
 11102              	.LVL1052:
 11103              	.LFB80:
2409:SynaptiX_FDK/services/cJSON/cJSON.c ****     return replace_item_in_object(object, string, newitem, false);
 11104              		.loc 1 2409 1 is_stmt 1 view -0
 11105              		.cfi_startproc
 11106              		@ args = 0, pretend = 0, frame = 0
 11107              		@ frame_needed = 0, uses_anonymous_args = 0
2409:SynaptiX_FDK/services/cJSON/cJSON.c ****     return replace_item_in_object(object, string, newitem, false);
 11108              		.loc 1 2409 1 is_stmt 0 view .LVU3127
 11109 0000 08B5     		push	{r3, lr}
 11110              	.LCFI174:
 11111              		.cfi_def_cfa_offset 8
 11112              		.cfi_offset 3, -8
 11113              		.cfi_offset 14, -4
2410:SynaptiX_FDK/services/cJSON/cJSON.c **** }
 11114              		.loc 1 2410 5 is_stmt 1 view .LVU3128
2410:SynaptiX_FDK/services/cJSON/cJSON.c **** }
 11115              		.loc 1 2410 12 is_stmt 0 view .LVU3129
 11116 0002 0023     		movs	r3, #0
 11117 0004 FFF7FEFF 		bl	replace_item_in_object
 11118              	.LVL1053:
2411:SynaptiX_FDK/services/cJSON/cJSON.c **** 
 11119              		.loc 1 2411 1 view .LVU3130
 11120 0008 08BD     		pop	{r3, pc}
 11121              		.cfi_endproc
 11122              	.LFE80:
ARM GAS  C:\Users\DELL\AppData\Local\Temp\ccXjhdgA.s 			page 294


 11124              		.section	.text.cJSON_ReplaceItemInObjectCaseSensitive,"ax",%progbits
 11125              		.align	1
 11126              		.global	cJSON_ReplaceItemInObjectCaseSensitive
 11127              		.syntax unified
 11128              		.thumb
 11129              		.thumb_func
 11131              	cJSON_ReplaceItemInObjectCaseSensitive:
 11132              	.LVL1054:
 11133              	.LFB81:
2414:SynaptiX_FDK/services/cJSON/cJSON.c ****     return replace_item_in_object(object, string, newitem, true);
 11134              		.loc 1 2414 1 is_stmt 1 view -0
 11135              		.cfi_startproc
 11136              		@ args = 0, pretend = 0, frame = 0
 11137              		@ frame_needed = 0, uses_anonymous_args = 0
2414:SynaptiX_FDK/services/cJSON/cJSON.c ****     return replace_item_in_object(object, string, newitem, true);
 11138              		.loc 1 2414 1 is_stmt 0 view .LVU3132
 11139 0000 08B5     		push	{r3, lr}
 11140              	.LCFI175:
 11141              		.cfi_def_cfa_offset 8
 11142              		.cfi_offset 3, -8
 11143              		.cfi_offset 14, -4
2415:SynaptiX_FDK/services/cJSON/cJSON.c **** }
 11144              		.loc 1 2415 5 is_stmt 1 view .LVU3133
2415:SynaptiX_FDK/services/cJSON/cJSON.c **** }
 11145              		.loc 1 2415 12 is_stmt 0 view .LVU3134
 11146 0002 0123     		movs	r3, #1
 11147 0004 FFF7FEFF 		bl	replace_item_in_object
 11148              	.LVL1055:
2416:SynaptiX_FDK/services/cJSON/cJSON.c **** 
 11149              		.loc 1 2416 1 view .LVU3135
 11150 0008 08BD     		pop	{r3, pc}
 11151              		.cfi_endproc
 11152              	.LFE81:
 11154              		.section	.bss.version.0,"aw",%nobits
 11155              		.align	2
 11158              	version.0:
 11159 0000 00000000 		.space	15
 11159      00000000 
 11159      00000000 
 11159      000000
 11160              		.section	.data.global_hooks,"aw"
 11161              		.align	2
 11164              	global_hooks:
 11165 0000 00000000 		.word	malloc
 11166 0004 00000000 		.word	free
 11167 0008 00000000 		.word	realloc
 11168              		.section	.bss.global_error,"aw",%nobits
 11169              		.align	2
 11172              	global_error:
 11173 0000 00000000 		.space	8
 11173      00000000 
 11174              		.text
 11175              	.Letext0:
 11176              		.file 2 "SynaptiX_FDK/services/cJSON/cJSON.h"
 11177              		.file 3 "D:\\stm32cubeclt\\STM32CubeCLT_1.21.0\\GNU-tools-for-STM32\\bin\\../lib/gcc/arm-none-eabi
 11178              		.file 4 "D:\\stm32cubeclt\\STM32CubeCLT_1.21.0\\GNU-tools-for-STM32\\bin\\../lib/gcc/arm-none-eabi
 11179              		.file 5 "D:\\stm32cubeclt\\STM32CubeCLT_1.21.0\\GNU-tools-for-STM32\\bin\\../lib/gcc/arm-none-eabi
ARM GAS  C:\Users\DELL\AppData\Local\Temp\ccXjhdgA.s 			page 295


 11180              		.file 6 "D:\\stm32cubeclt\\STM32CubeCLT_1.21.0\\GNU-tools-for-STM32\\bin\\../lib/gcc/arm-none-eabi
 11181              		.file 7 "D:\\stm32cubeclt\\STM32CubeCLT_1.21.0\\GNU-tools-for-STM32\\bin\\../lib/gcc/arm-none-eabi
 11182              		.file 8 "<built-in>"
ARM GAS  C:\Users\DELL\AppData\Local\Temp\ccXjhdgA.s 			page 296


DEFINED SYMBOLS
                            *ABS*:00000000 cJSON.c
C:\Users\DELL\AppData\Local\Temp\ccXjhdgA.s:22     .text.case_insensitive_strcmp:00000000 $t
C:\Users\DELL\AppData\Local\Temp\ccXjhdgA.s:27     .text.case_insensitive_strcmp:00000000 case_insensitive_strcmp
C:\Users\DELL\AppData\Local\Temp\ccXjhdgA.s:160    .text.case_insensitive_strcmp:0000005c $d
C:\Users\DELL\AppData\Local\Temp\ccXjhdgA.s:165    .text.get_decimal_point:00000000 $t
C:\Users\DELL\AppData\Local\Temp\ccXjhdgA.s:170    .text.get_decimal_point:00000000 get_decimal_point
C:\Users\DELL\AppData\Local\Temp\ccXjhdgA.s:185    .text.compare_double:00000000 $t
C:\Users\DELL\AppData\Local\Temp\ccXjhdgA.s:190    .text.compare_double:00000000 compare_double
C:\Users\DELL\AppData\Local\Temp\ccXjhdgA.s:274    .text.compare_double:00000060 $d
C:\Users\DELL\AppData\Local\Temp\ccXjhdgA.s:279    .text.parse_hex4:00000000 $t
C:\Users\DELL\AppData\Local\Temp\ccXjhdgA.s:284    .text.parse_hex4:00000000 parse_hex4
C:\Users\DELL\AppData\Local\Temp\ccXjhdgA.s:383    .text.utf16_literal_to_utf8:00000000 $t
C:\Users\DELL\AppData\Local\Temp\ccXjhdgA.s:388    .text.utf16_literal_to_utf8:00000000 utf16_literal_to_utf8
C:\Users\DELL\AppData\Local\Temp\ccXjhdgA.s:680    .text.utf16_literal_to_utf8:000000e8 $d
C:\Users\DELL\AppData\Local\Temp\ccXjhdgA.s:685    .text.parse_string:00000000 $t
C:\Users\DELL\AppData\Local\Temp\ccXjhdgA.s:690    .text.parse_string:00000000 parse_string
C:\Users\DELL\AppData\Local\Temp\ccXjhdgA.s:864    .text.parse_string:00000094 $d
C:\Users\DELL\AppData\Local\Temp\ccXjhdgA.s:890    .text.parse_string:000000ae $t
C:\Users\DELL\AppData\Local\Temp\ccXjhdgA.s:1082   .text.buffer_skip_whitespace:00000000 $t
C:\Users\DELL\AppData\Local\Temp\ccXjhdgA.s:1087   .text.buffer_skip_whitespace:00000000 buffer_skip_whitespace
C:\Users\DELL\AppData\Local\Temp\ccXjhdgA.s:1168   .text.get_array_item:00000000 $t
C:\Users\DELL\AppData\Local\Temp\ccXjhdgA.s:1173   .text.get_array_item:00000000 get_array_item
C:\Users\DELL\AppData\Local\Temp\ccXjhdgA.s:1216   .text.suffix_object:00000000 $t
C:\Users\DELL\AppData\Local\Temp\ccXjhdgA.s:1221   .text.suffix_object:00000000 suffix_object
C:\Users\DELL\AppData\Local\Temp\ccXjhdgA.s:1241   .text.add_item_to_array:00000000 $t
C:\Users\DELL\AppData\Local\Temp\ccXjhdgA.s:1246   .text.add_item_to_array:00000000 add_item_to_array
C:\Users\DELL\AppData\Local\Temp\ccXjhdgA.s:1357   .text.cast_away_const:00000000 $t
C:\Users\DELL\AppData\Local\Temp\ccXjhdgA.s:1362   .text.cast_away_const:00000000 cast_away_const
C:\Users\DELL\AppData\Local\Temp\ccXjhdgA.s:1377   .text.skip_oneline_comment:00000000 $t
C:\Users\DELL\AppData\Local\Temp\ccXjhdgA.s:1382   .text.skip_oneline_comment:00000000 skip_oneline_comment
C:\Users\DELL\AppData\Local\Temp\ccXjhdgA.s:1426   .text.skip_multiline_comment:00000000 $t
C:\Users\DELL\AppData\Local\Temp\ccXjhdgA.s:1431   .text.skip_multiline_comment:00000000 skip_multiline_comment
C:\Users\DELL\AppData\Local\Temp\ccXjhdgA.s:1480   .text.minify_string:00000000 $t
C:\Users\DELL\AppData\Local\Temp\ccXjhdgA.s:1485   .text.minify_string:00000000 minify_string
C:\Users\DELL\AppData\Local\Temp\ccXjhdgA.s:1598   .text.update_offset:00000000 $t
C:\Users\DELL\AppData\Local\Temp\ccXjhdgA.s:1603   .text.update_offset:00000000 update_offset
C:\Users\DELL\AppData\Local\Temp\ccXjhdgA.s:1660   .text.cJSON_strdup:00000000 $t
C:\Users\DELL\AppData\Local\Temp\ccXjhdgA.s:1665   .text.cJSON_strdup:00000000 cJSON_strdup
C:\Users\DELL\AppData\Local\Temp\ccXjhdgA.s:1727   .text.add_item_to_object:00000000 $t
C:\Users\DELL\AppData\Local\Temp\ccXjhdgA.s:1732   .text.add_item_to_object:00000000 add_item_to_object
C:\Users\DELL\AppData\Local\Temp\ccXjhdgA.s:1900   .text.ensure:00000000 $t
C:\Users\DELL\AppData\Local\Temp\ccXjhdgA.s:1905   .text.ensure:00000000 ensure
C:\Users\DELL\AppData\Local\Temp\ccXjhdgA.s:2123   .text.cJSON_New_Item:00000000 $t
C:\Users\DELL\AppData\Local\Temp\ccXjhdgA.s:2128   .text.cJSON_New_Item:00000000 cJSON_New_Item
C:\Users\DELL\AppData\Local\Temp\ccXjhdgA.s:2169   .text.create_reference:00000000 $t
C:\Users\DELL\AppData\Local\Temp\ccXjhdgA.s:2174   .text.create_reference:00000000 create_reference
C:\Users\DELL\AppData\Local\Temp\ccXjhdgA.s:2252   .rodata.skip_utf8_bom.str1.4:00000000 $d
C:\Users\DELL\AppData\Local\Temp\ccXjhdgA.s:2256   .text.skip_utf8_bom:00000000 $t
C:\Users\DELL\AppData\Local\Temp\ccXjhdgA.s:2261   .text.skip_utf8_bom:00000000 skip_utf8_bom
C:\Users\DELL\AppData\Local\Temp\ccXjhdgA.s:2329   .text.skip_utf8_bom:00000034 $d
C:\Users\DELL\AppData\Local\Temp\ccXjhdgA.s:2334   .text.parse_number:00000000 $t
C:\Users\DELL\AppData\Local\Temp\ccXjhdgA.s:2339   .text.parse_number:00000000 parse_number
C:\Users\DELL\AppData\Local\Temp\ccXjhdgA.s:2561   .text.parse_number:000000f8 $d
C:\Users\DELL\AppData\Local\Temp\ccXjhdgA.s:2569   .rodata.print_string_ptr.str1.4:00000000 $d
C:\Users\DELL\AppData\Local\Temp\ccXjhdgA.s:2576   .text.print_string_ptr:00000000 $t
C:\Users\DELL\AppData\Local\Temp\ccXjhdgA.s:2581   .text.print_string_ptr:00000000 print_string_ptr
ARM GAS  C:\Users\DELL\AppData\Local\Temp\ccXjhdgA.s 			page 297


C:\Users\DELL\AppData\Local\Temp\ccXjhdgA.s:2772   .text.print_string_ptr:000000b2 $d
C:\Users\DELL\AppData\Local\Temp\ccXjhdgA.s:2951   .text.print_string_ptr:0000013c $d
C:\Users\DELL\AppData\Local\Temp\ccXjhdgA.s:2958   .text.print_string:00000000 $t
C:\Users\DELL\AppData\Local\Temp\ccXjhdgA.s:2963   .text.print_string:00000000 print_string
C:\Users\DELL\AppData\Local\Temp\ccXjhdgA.s:2989   .rodata.print_number.str1.4:00000000 $d
C:\Users\DELL\AppData\Local\Temp\ccXjhdgA.s:3002   .text.print_number:00000000 $t
C:\Users\DELL\AppData\Local\Temp\ccXjhdgA.s:3007   .text.print_number:00000000 print_number
C:\Users\DELL\AppData\Local\Temp\ccXjhdgA.s:3274   .text.print_number:0000012c $d
C:\Users\DELL\AppData\Local\Temp\ccXjhdgA.s:3283   .rodata.print_value.str1.4:00000000 $d
C:\Users\DELL\AppData\Local\Temp\ccXjhdgA.s:3290   .text.print_value:00000000 $t
C:\Users\DELL\AppData\Local\Temp\ccXjhdgA.s:3295   .text.print_value:00000000 print_value
C:\Users\DELL\AppData\Local\Temp\ccXjhdgA.s:3334   .text.print_value:00000022 $d
C:\Users\DELL\AppData\Local\Temp\ccXjhdgA.s:3366   .text.print_value:00000042 $t
C:\Users\DELL\AppData\Local\Temp\ccXjhdgA.s:3782   .text.print_array:00000000 print_array
C:\Users\DELL\AppData\Local\Temp\ccXjhdgA.s:3992   .text.print_object:00000000 print_object
C:\Users\DELL\AppData\Local\Temp\ccXjhdgA.s:3585   .text.print_value:00000108 $d
C:\Users\DELL\AppData\Local\Temp\ccXjhdgA.s:3593   .text.print:00000000 $t
C:\Users\DELL\AppData\Local\Temp\ccXjhdgA.s:3598   .text.print:00000000 print
C:\Users\DELL\AppData\Local\Temp\ccXjhdgA.s:3777   .text.print_array:00000000 $t
C:\Users\DELL\AppData\Local\Temp\ccXjhdgA.s:3987   .text.print_object:00000000 $t
C:\Users\DELL\AppData\Local\Temp\ccXjhdgA.s:4415   .text.get_object_item:00000000 $t
C:\Users\DELL\AppData\Local\Temp\ccXjhdgA.s:4420   .text.get_object_item:00000000 get_object_item
C:\Users\DELL\AppData\Local\Temp\ccXjhdgA.s:4524   .text.cJSON_GetErrorPtr:00000000 $t
C:\Users\DELL\AppData\Local\Temp\ccXjhdgA.s:4530   .text.cJSON_GetErrorPtr:00000000 cJSON_GetErrorPtr
C:\Users\DELL\AppData\Local\Temp\ccXjhdgA.s:4549   .text.cJSON_GetErrorPtr:0000000c $d
C:\Users\DELL\AppData\Local\Temp\ccXjhdgA.s:11172  .bss.global_error:00000000 global_error
C:\Users\DELL\AppData\Local\Temp\ccXjhdgA.s:4554   .rodata.cJSON_Version.str1.4:00000000 $d
C:\Users\DELL\AppData\Local\Temp\ccXjhdgA.s:4558   .text.cJSON_Version:00000000 $t
C:\Users\DELL\AppData\Local\Temp\ccXjhdgA.s:4564   .text.cJSON_Version:00000000 cJSON_Version
C:\Users\DELL\AppData\Local\Temp\ccXjhdgA.s:4600   .text.cJSON_Version:0000001c $d
C:\Users\DELL\AppData\Local\Temp\ccXjhdgA.s:11158  .bss.version.0:00000000 version.0
C:\Users\DELL\AppData\Local\Temp\ccXjhdgA.s:4606   .text.cJSON_InitHooks:00000000 $t
C:\Users\DELL\AppData\Local\Temp\ccXjhdgA.s:4612   .text.cJSON_InitHooks:00000000 cJSON_InitHooks
C:\Users\DELL\AppData\Local\Temp\ccXjhdgA.s:4701   .text.cJSON_InitHooks:00000050 $d
C:\Users\DELL\AppData\Local\Temp\ccXjhdgA.s:11164  .data.global_hooks:00000000 global_hooks
C:\Users\DELL\AppData\Local\Temp\ccXjhdgA.s:4709   .text.cJSON_Delete:00000000 $t
C:\Users\DELL\AppData\Local\Temp\ccXjhdgA.s:4715   .text.cJSON_Delete:00000000 cJSON_Delete
C:\Users\DELL\AppData\Local\Temp\ccXjhdgA.s:4825   .text.cJSON_Delete:00000058 $d
C:\Users\DELL\AppData\Local\Temp\ccXjhdgA.s:4830   .text.parse_object:00000000 $t
C:\Users\DELL\AppData\Local\Temp\ccXjhdgA.s:4835   .text.parse_object:00000000 parse_object
C:\Users\DELL\AppData\Local\Temp\ccXjhdgA.s:5180   .text.parse_value:00000000 parse_value
C:\Users\DELL\AppData\Local\Temp\ccXjhdgA.s:5175   .text.parse_value:00000000 $t
C:\Users\DELL\AppData\Local\Temp\ccXjhdgA.s:5433   .text.parse_array:00000000 parse_array
C:\Users\DELL\AppData\Local\Temp\ccXjhdgA.s:5421   .text.parse_value:000000e8 $d
C:\Users\DELL\AppData\Local\Temp\ccXjhdgA.s:5428   .text.parse_array:00000000 $t
C:\Users\DELL\AppData\Local\Temp\ccXjhdgA.s:5712   .text.cJSON_SetNumberHelper:00000000 $t
C:\Users\DELL\AppData\Local\Temp\ccXjhdgA.s:5718   .text.cJSON_SetNumberHelper:00000000 cJSON_SetNumberHelper
C:\Users\DELL\AppData\Local\Temp\ccXjhdgA.s:5787   .text.cJSON_SetNumberHelper:00000050 $d
C:\Users\DELL\AppData\Local\Temp\ccXjhdgA.s:5794   .text.cJSON_ParseWithLengthOpts:00000000 $t
C:\Users\DELL\AppData\Local\Temp\ccXjhdgA.s:5800   .text.cJSON_ParseWithLengthOpts:00000000 cJSON_ParseWithLengthOpts
C:\Users\DELL\AppData\Local\Temp\ccXjhdgA.s:6015   .text.cJSON_ParseWithLengthOpts:000000c0 $d
C:\Users\DELL\AppData\Local\Temp\ccXjhdgA.s:6021   .text.cJSON_ParseWithOpts:00000000 $t
C:\Users\DELL\AppData\Local\Temp\ccXjhdgA.s:6027   .text.cJSON_ParseWithOpts:00000000 cJSON_ParseWithOpts
C:\Users\DELL\AppData\Local\Temp\ccXjhdgA.s:6071   .text.cJSON_Parse:00000000 $t
C:\Users\DELL\AppData\Local\Temp\ccXjhdgA.s:6077   .text.cJSON_Parse:00000000 cJSON_Parse
C:\Users\DELL\AppData\Local\Temp\ccXjhdgA.s:6102   .text.cJSON_ParseWithLength:00000000 $t
C:\Users\DELL\AppData\Local\Temp\ccXjhdgA.s:6108   .text.cJSON_ParseWithLength:00000000 cJSON_ParseWithLength
ARM GAS  C:\Users\DELL\AppData\Local\Temp\ccXjhdgA.s 			page 298


C:\Users\DELL\AppData\Local\Temp\ccXjhdgA.s:6133   .text.cJSON_Print:00000000 $t
C:\Users\DELL\AppData\Local\Temp\ccXjhdgA.s:6139   .text.cJSON_Print:00000000 cJSON_Print
C:\Users\DELL\AppData\Local\Temp\ccXjhdgA.s:6163   .text.cJSON_Print:0000000c $d
C:\Users\DELL\AppData\Local\Temp\ccXjhdgA.s:6168   .text.cJSON_PrintUnformatted:00000000 $t
C:\Users\DELL\AppData\Local\Temp\ccXjhdgA.s:6174   .text.cJSON_PrintUnformatted:00000000 cJSON_PrintUnformatted
C:\Users\DELL\AppData\Local\Temp\ccXjhdgA.s:6198   .text.cJSON_PrintUnformatted:0000000c $d
C:\Users\DELL\AppData\Local\Temp\ccXjhdgA.s:6203   .text.cJSON_PrintBuffered:00000000 $t
C:\Users\DELL\AppData\Local\Temp\ccXjhdgA.s:6209   .text.cJSON_PrintBuffered:00000000 cJSON_PrintBuffered
C:\Users\DELL\AppData\Local\Temp\ccXjhdgA.s:6324   .text.cJSON_PrintBuffered:0000005c $d
C:\Users\DELL\AppData\Local\Temp\ccXjhdgA.s:6329   .text.cJSON_PrintPreallocated:00000000 $t
C:\Users\DELL\AppData\Local\Temp\ccXjhdgA.s:6335   .text.cJSON_PrintPreallocated:00000000 cJSON_PrintPreallocated
C:\Users\DELL\AppData\Local\Temp\ccXjhdgA.s:6424   .text.cJSON_PrintPreallocated:00000048 $d
C:\Users\DELL\AppData\Local\Temp\ccXjhdgA.s:6429   .text.cJSON_GetArraySize:00000000 $t
C:\Users\DELL\AppData\Local\Temp\ccXjhdgA.s:6435   .text.cJSON_GetArraySize:00000000 cJSON_GetArraySize
C:\Users\DELL\AppData\Local\Temp\ccXjhdgA.s:6486   .text.cJSON_GetArrayItem:00000000 $t
C:\Users\DELL\AppData\Local\Temp\ccXjhdgA.s:6492   .text.cJSON_GetArrayItem:00000000 cJSON_GetArrayItem
C:\Users\DELL\AppData\Local\Temp\ccXjhdgA.s:6531   .text.cJSON_GetObjectItem:00000000 $t
C:\Users\DELL\AppData\Local\Temp\ccXjhdgA.s:6537   .text.cJSON_GetObjectItem:00000000 cJSON_GetObjectItem
C:\Users\DELL\AppData\Local\Temp\ccXjhdgA.s:6561   .text.cJSON_GetObjectItemCaseSensitive:00000000 $t
C:\Users\DELL\AppData\Local\Temp\ccXjhdgA.s:6567   .text.cJSON_GetObjectItemCaseSensitive:00000000 cJSON_GetObjectItemCaseSensitive
C:\Users\DELL\AppData\Local\Temp\ccXjhdgA.s:6591   .text.cJSON_HasObjectItem:00000000 $t
C:\Users\DELL\AppData\Local\Temp\ccXjhdgA.s:6597   .text.cJSON_HasObjectItem:00000000 cJSON_HasObjectItem
C:\Users\DELL\AppData\Local\Temp\ccXjhdgA.s:6623   .text.cJSON_AddItemToArray:00000000 $t
C:\Users\DELL\AppData\Local\Temp\ccXjhdgA.s:6629   .text.cJSON_AddItemToArray:00000000 cJSON_AddItemToArray
C:\Users\DELL\AppData\Local\Temp\ccXjhdgA.s:6652   .text.cJSON_AddItemToObject:00000000 $t
C:\Users\DELL\AppData\Local\Temp\ccXjhdgA.s:6658   .text.cJSON_AddItemToObject:00000000 cJSON_AddItemToObject
C:\Users\DELL\AppData\Local\Temp\ccXjhdgA.s:6689   .text.cJSON_AddItemToObject:00000014 $d
C:\Users\DELL\AppData\Local\Temp\ccXjhdgA.s:6694   .text.cJSON_AddItemToObjectCS:00000000 $t
C:\Users\DELL\AppData\Local\Temp\ccXjhdgA.s:6700   .text.cJSON_AddItemToObjectCS:00000000 cJSON_AddItemToObjectCS
C:\Users\DELL\AppData\Local\Temp\ccXjhdgA.s:6731   .text.cJSON_AddItemToObjectCS:00000014 $d
C:\Users\DELL\AppData\Local\Temp\ccXjhdgA.s:6736   .text.cJSON_AddItemReferenceToArray:00000000 $t
C:\Users\DELL\AppData\Local\Temp\ccXjhdgA.s:6742   .text.cJSON_AddItemReferenceToArray:00000000 cJSON_AddItemReferenceToArray
C:\Users\DELL\AppData\Local\Temp\ccXjhdgA.s:6792   .text.cJSON_AddItemReferenceToArray:00000020 $d
C:\Users\DELL\AppData\Local\Temp\ccXjhdgA.s:6797   .text.cJSON_AddItemReferenceToObject:00000000 $t
C:\Users\DELL\AppData\Local\Temp\ccXjhdgA.s:6803   .text.cJSON_AddItemReferenceToObject:00000000 cJSON_AddItemReferenceToObject
C:\Users\DELL\AppData\Local\Temp\ccXjhdgA.s:6885   .text.cJSON_AddItemReferenceToObject:00000034 $d
C:\Users\DELL\AppData\Local\Temp\ccXjhdgA.s:6890   .text.cJSON_DetachItemViaPointer:00000000 $t
C:\Users\DELL\AppData\Local\Temp\ccXjhdgA.s:6896   .text.cJSON_DetachItemViaPointer:00000000 cJSON_DetachItemViaPointer
C:\Users\DELL\AppData\Local\Temp\ccXjhdgA.s:6999   .text.cJSON_DetachItemFromArray:00000000 $t
C:\Users\DELL\AppData\Local\Temp\ccXjhdgA.s:7005   .text.cJSON_DetachItemFromArray:00000000 cJSON_DetachItemFromArray
C:\Users\DELL\AppData\Local\Temp\ccXjhdgA.s:7051   .text.cJSON_DeleteItemFromArray:00000000 $t
C:\Users\DELL\AppData\Local\Temp\ccXjhdgA.s:7057   .text.cJSON_DeleteItemFromArray:00000000 cJSON_DeleteItemFromArray
C:\Users\DELL\AppData\Local\Temp\ccXjhdgA.s:7082   .text.cJSON_DetachItemFromObject:00000000 $t
C:\Users\DELL\AppData\Local\Temp\ccXjhdgA.s:7088   .text.cJSON_DetachItemFromObject:00000000 cJSON_DetachItemFromObject
C:\Users\DELL\AppData\Local\Temp\ccXjhdgA.s:7123   .text.cJSON_DetachItemFromObjectCaseSensitive:00000000 $t
C:\Users\DELL\AppData\Local\Temp\ccXjhdgA.s:7129   .text.cJSON_DetachItemFromObjectCaseSensitive:00000000 cJSON_DetachItemFromObjectCaseSensitive
C:\Users\DELL\AppData\Local\Temp\ccXjhdgA.s:7164   .text.cJSON_DeleteItemFromObject:00000000 $t
C:\Users\DELL\AppData\Local\Temp\ccXjhdgA.s:7170   .text.cJSON_DeleteItemFromObject:00000000 cJSON_DeleteItemFromObject
C:\Users\DELL\AppData\Local\Temp\ccXjhdgA.s:7195   .text.cJSON_DeleteItemFromObjectCaseSensitive:00000000 $t
C:\Users\DELL\AppData\Local\Temp\ccXjhdgA.s:7201   .text.cJSON_DeleteItemFromObjectCaseSensitive:00000000 cJSON_DeleteItemFromObjectCaseSensitive
C:\Users\DELL\AppData\Local\Temp\ccXjhdgA.s:7226   .text.cJSON_InsertItemInArray:00000000 $t
C:\Users\DELL\AppData\Local\Temp\ccXjhdgA.s:7232   .text.cJSON_InsertItemInArray:00000000 cJSON_InsertItemInArray
C:\Users\DELL\AppData\Local\Temp\ccXjhdgA.s:7363   .text.cJSON_ReplaceItemViaPointer:00000000 $t
C:\Users\DELL\AppData\Local\Temp\ccXjhdgA.s:7369   .text.cJSON_ReplaceItemViaPointer:00000000 cJSON_ReplaceItemViaPointer
C:\Users\DELL\AppData\Local\Temp\ccXjhdgA.s:7509   .text.cJSON_ReplaceItemInArray:00000000 $t
C:\Users\DELL\AppData\Local\Temp\ccXjhdgA.s:7515   .text.cJSON_ReplaceItemInArray:00000000 cJSON_ReplaceItemInArray
C:\Users\DELL\AppData\Local\Temp\ccXjhdgA.s:7567   .text.cJSON_CreateNull:00000000 $t
ARM GAS  C:\Users\DELL\AppData\Local\Temp\ccXjhdgA.s 			page 299


C:\Users\DELL\AppData\Local\Temp\ccXjhdgA.s:7573   .text.cJSON_CreateNull:00000000 cJSON_CreateNull
C:\Users\DELL\AppData\Local\Temp\ccXjhdgA.s:7603   .text.cJSON_CreateNull:00000010 $d
C:\Users\DELL\AppData\Local\Temp\ccXjhdgA.s:7608   .text.cJSON_AddNullToObject:00000000 $t
C:\Users\DELL\AppData\Local\Temp\ccXjhdgA.s:7614   .text.cJSON_AddNullToObject:00000000 cJSON_AddNullToObject
C:\Users\DELL\AppData\Local\Temp\ccXjhdgA.s:7682   .text.cJSON_AddNullToObject:00000030 $d
C:\Users\DELL\AppData\Local\Temp\ccXjhdgA.s:7687   .text.cJSON_CreateTrue:00000000 $t
C:\Users\DELL\AppData\Local\Temp\ccXjhdgA.s:7693   .text.cJSON_CreateTrue:00000000 cJSON_CreateTrue
C:\Users\DELL\AppData\Local\Temp\ccXjhdgA.s:7723   .text.cJSON_CreateTrue:00000010 $d
C:\Users\DELL\AppData\Local\Temp\ccXjhdgA.s:7728   .text.cJSON_AddTrueToObject:00000000 $t
C:\Users\DELL\AppData\Local\Temp\ccXjhdgA.s:7734   .text.cJSON_AddTrueToObject:00000000 cJSON_AddTrueToObject
C:\Users\DELL\AppData\Local\Temp\ccXjhdgA.s:7802   .text.cJSON_AddTrueToObject:00000030 $d
C:\Users\DELL\AppData\Local\Temp\ccXjhdgA.s:7807   .text.cJSON_CreateFalse:00000000 $t
C:\Users\DELL\AppData\Local\Temp\ccXjhdgA.s:7813   .text.cJSON_CreateFalse:00000000 cJSON_CreateFalse
C:\Users\DELL\AppData\Local\Temp\ccXjhdgA.s:7843   .text.cJSON_CreateFalse:00000010 $d
C:\Users\DELL\AppData\Local\Temp\ccXjhdgA.s:7848   .text.cJSON_AddFalseToObject:00000000 $t
C:\Users\DELL\AppData\Local\Temp\ccXjhdgA.s:7854   .text.cJSON_AddFalseToObject:00000000 cJSON_AddFalseToObject
C:\Users\DELL\AppData\Local\Temp\ccXjhdgA.s:7922   .text.cJSON_AddFalseToObject:00000030 $d
C:\Users\DELL\AppData\Local\Temp\ccXjhdgA.s:7927   .text.cJSON_CreateBool:00000000 $t
C:\Users\DELL\AppData\Local\Temp\ccXjhdgA.s:7933   .text.cJSON_CreateBool:00000000 cJSON_CreateBool
C:\Users\DELL\AppData\Local\Temp\ccXjhdgA.s:7977   .text.cJSON_CreateBool:00000018 $d
C:\Users\DELL\AppData\Local\Temp\ccXjhdgA.s:7982   .text.cJSON_AddBoolToObject:00000000 $t
C:\Users\DELL\AppData\Local\Temp\ccXjhdgA.s:7988   .text.cJSON_AddBoolToObject:00000000 cJSON_AddBoolToObject
C:\Users\DELL\AppData\Local\Temp\ccXjhdgA.s:8059   .text.cJSON_AddBoolToObject:00000034 $d
C:\Users\DELL\AppData\Local\Temp\ccXjhdgA.s:8064   .text.cJSON_CreateNumber:00000000 $t
C:\Users\DELL\AppData\Local\Temp\ccXjhdgA.s:8070   .text.cJSON_CreateNumber:00000000 cJSON_CreateNumber
C:\Users\DELL\AppData\Local\Temp\ccXjhdgA.s:8152   .text.cJSON_CreateNumber:00000058 $d
C:\Users\DELL\AppData\Local\Temp\ccXjhdgA.s:8160   .text.cJSON_AddNumberToObject:00000000 $t
C:\Users\DELL\AppData\Local\Temp\ccXjhdgA.s:8166   .text.cJSON_AddNumberToObject:00000000 cJSON_AddNumberToObject
C:\Users\DELL\AppData\Local\Temp\ccXjhdgA.s:8234   .text.cJSON_AddNumberToObject:00000030 $d
C:\Users\DELL\AppData\Local\Temp\ccXjhdgA.s:8239   .text.cJSON_CreateString:00000000 $t
C:\Users\DELL\AppData\Local\Temp\ccXjhdgA.s:8245   .text.cJSON_CreateString:00000000 cJSON_CreateString
C:\Users\DELL\AppData\Local\Temp\ccXjhdgA.s:8311   .text.cJSON_CreateString:00000030 $d
C:\Users\DELL\AppData\Local\Temp\ccXjhdgA.s:8316   .text.cJSON_AddStringToObject:00000000 $t
C:\Users\DELL\AppData\Local\Temp\ccXjhdgA.s:8322   .text.cJSON_AddStringToObject:00000000 cJSON_AddStringToObject
C:\Users\DELL\AppData\Local\Temp\ccXjhdgA.s:8393   .text.cJSON_AddStringToObject:00000034 $d
C:\Users\DELL\AppData\Local\Temp\ccXjhdgA.s:8398   .text.cJSON_CreateStringReference:00000000 $t
C:\Users\DELL\AppData\Local\Temp\ccXjhdgA.s:8404   .text.cJSON_CreateStringReference:00000000 cJSON_CreateStringReference
C:\Users\DELL\AppData\Local\Temp\ccXjhdgA.s:8454   .text.cJSON_CreateStringReference:00000020 $d
C:\Users\DELL\AppData\Local\Temp\ccXjhdgA.s:8459   .text.cJSON_CreateObjectReference:00000000 $t
C:\Users\DELL\AppData\Local\Temp\ccXjhdgA.s:8465   .text.cJSON_CreateObjectReference:00000000 cJSON_CreateObjectReference
C:\Users\DELL\AppData\Local\Temp\ccXjhdgA.s:8515   .text.cJSON_CreateObjectReference:00000020 $d
C:\Users\DELL\AppData\Local\Temp\ccXjhdgA.s:8520   .text.cJSON_CreateArrayReference:00000000 $t
C:\Users\DELL\AppData\Local\Temp\ccXjhdgA.s:8526   .text.cJSON_CreateArrayReference:00000000 cJSON_CreateArrayReference
C:\Users\DELL\AppData\Local\Temp\ccXjhdgA.s:8576   .text.cJSON_CreateArrayReference:00000020 $d
C:\Users\DELL\AppData\Local\Temp\ccXjhdgA.s:8581   .text.cJSON_CreateRaw:00000000 $t
C:\Users\DELL\AppData\Local\Temp\ccXjhdgA.s:8587   .text.cJSON_CreateRaw:00000000 cJSON_CreateRaw
C:\Users\DELL\AppData\Local\Temp\ccXjhdgA.s:8653   .text.cJSON_CreateRaw:00000030 $d
C:\Users\DELL\AppData\Local\Temp\ccXjhdgA.s:8658   .text.cJSON_AddRawToObject:00000000 $t
C:\Users\DELL\AppData\Local\Temp\ccXjhdgA.s:8664   .text.cJSON_AddRawToObject:00000000 cJSON_AddRawToObject
C:\Users\DELL\AppData\Local\Temp\ccXjhdgA.s:8735   .text.cJSON_AddRawToObject:00000034 $d
C:\Users\DELL\AppData\Local\Temp\ccXjhdgA.s:8740   .text.cJSON_CreateArray:00000000 $t
C:\Users\DELL\AppData\Local\Temp\ccXjhdgA.s:8746   .text.cJSON_CreateArray:00000000 cJSON_CreateArray
C:\Users\DELL\AppData\Local\Temp\ccXjhdgA.s:8776   .text.cJSON_CreateArray:00000010 $d
C:\Users\DELL\AppData\Local\Temp\ccXjhdgA.s:8781   .text.cJSON_AddArrayToObject:00000000 $t
C:\Users\DELL\AppData\Local\Temp\ccXjhdgA.s:8787   .text.cJSON_AddArrayToObject:00000000 cJSON_AddArrayToObject
C:\Users\DELL\AppData\Local\Temp\ccXjhdgA.s:8855   .text.cJSON_AddArrayToObject:00000030 $d
C:\Users\DELL\AppData\Local\Temp\ccXjhdgA.s:8860   .text.cJSON_CreateObject:00000000 $t
ARM GAS  C:\Users\DELL\AppData\Local\Temp\ccXjhdgA.s 			page 300


C:\Users\DELL\AppData\Local\Temp\ccXjhdgA.s:8866   .text.cJSON_CreateObject:00000000 cJSON_CreateObject
C:\Users\DELL\AppData\Local\Temp\ccXjhdgA.s:8896   .text.cJSON_CreateObject:00000010 $d
C:\Users\DELL\AppData\Local\Temp\ccXjhdgA.s:8901   .text.cJSON_AddObjectToObject:00000000 $t
C:\Users\DELL\AppData\Local\Temp\ccXjhdgA.s:8907   .text.cJSON_AddObjectToObject:00000000 cJSON_AddObjectToObject
C:\Users\DELL\AppData\Local\Temp\ccXjhdgA.s:8975   .text.cJSON_AddObjectToObject:00000030 $d
C:\Users\DELL\AppData\Local\Temp\ccXjhdgA.s:8980   .text.cJSON_CreateIntArray:00000000 $t
C:\Users\DELL\AppData\Local\Temp\ccXjhdgA.s:8986   .text.cJSON_CreateIntArray:00000000 cJSON_CreateIntArray
C:\Users\DELL\AppData\Local\Temp\ccXjhdgA.s:9119   .text.cJSON_CreateFloatArray:00000000 $t
C:\Users\DELL\AppData\Local\Temp\ccXjhdgA.s:9125   .text.cJSON_CreateFloatArray:00000000 cJSON_CreateFloatArray
C:\Users\DELL\AppData\Local\Temp\ccXjhdgA.s:9260   .text.cJSON_CreateDoubleArray:00000000 $t
C:\Users\DELL\AppData\Local\Temp\ccXjhdgA.s:9266   .text.cJSON_CreateDoubleArray:00000000 cJSON_CreateDoubleArray
C:\Users\DELL\AppData\Local\Temp\ccXjhdgA.s:9398   .text.cJSON_CreateStringArray:00000000 $t
C:\Users\DELL\AppData\Local\Temp\ccXjhdgA.s:9404   .text.cJSON_CreateStringArray:00000000 cJSON_CreateStringArray
C:\Users\DELL\AppData\Local\Temp\ccXjhdgA.s:9534   .text.cJSON_Duplicate_rec:00000000 $t
C:\Users\DELL\AppData\Local\Temp\ccXjhdgA.s:9540   .text.cJSON_Duplicate_rec:00000000 cJSON_Duplicate_rec
C:\Users\DELL\AppData\Local\Temp\ccXjhdgA.s:9736   .text.cJSON_Duplicate_rec:0000009c $d
C:\Users\DELL\AppData\Local\Temp\ccXjhdgA.s:9741   .text.cJSON_Duplicate:00000000 $t
C:\Users\DELL\AppData\Local\Temp\ccXjhdgA.s:9747   .text.cJSON_Duplicate:00000000 cJSON_Duplicate
C:\Users\DELL\AppData\Local\Temp\ccXjhdgA.s:9774   .text.cJSON_Minify:00000000 $t
C:\Users\DELL\AppData\Local\Temp\ccXjhdgA.s:9780   .text.cJSON_Minify:00000000 cJSON_Minify
C:\Users\DELL\AppData\Local\Temp\ccXjhdgA.s:9879   .text.cJSON_Minify:00000064 $d
C:\Users\DELL\AppData\Local\Temp\ccXjhdgA.s:9918   .text.cJSON_Minify:00000100 $t
C:\Users\DELL\AppData\Local\Temp\ccXjhdgA.s:9936   .text.cJSON_IsInvalid:00000000 $t
C:\Users\DELL\AppData\Local\Temp\ccXjhdgA.s:9942   .text.cJSON_IsInvalid:00000000 cJSON_IsInvalid
C:\Users\DELL\AppData\Local\Temp\ccXjhdgA.s:9972   .text.cJSON_IsFalse:00000000 $t
C:\Users\DELL\AppData\Local\Temp\ccXjhdgA.s:9978   .text.cJSON_IsFalse:00000000 cJSON_IsFalse
C:\Users\DELL\AppData\Local\Temp\ccXjhdgA.s:10010  .text.cJSON_IsTrue:00000000 $t
C:\Users\DELL\AppData\Local\Temp\ccXjhdgA.s:10016  .text.cJSON_IsTrue:00000000 cJSON_IsTrue
C:\Users\DELL\AppData\Local\Temp\ccXjhdgA.s:10048  .text.cJSON_IsBool:00000000 $t
C:\Users\DELL\AppData\Local\Temp\ccXjhdgA.s:10054  .text.cJSON_IsBool:00000000 cJSON_IsBool
C:\Users\DELL\AppData\Local\Temp\ccXjhdgA.s:10085  .text.cJSON_IsNull:00000000 $t
C:\Users\DELL\AppData\Local\Temp\ccXjhdgA.s:10091  .text.cJSON_IsNull:00000000 cJSON_IsNull
C:\Users\DELL\AppData\Local\Temp\ccXjhdgA.s:10123  .text.cJSON_IsNumber:00000000 $t
C:\Users\DELL\AppData\Local\Temp\ccXjhdgA.s:10129  .text.cJSON_IsNumber:00000000 cJSON_IsNumber
C:\Users\DELL\AppData\Local\Temp\ccXjhdgA.s:10161  .text.cJSON_GetNumberValue:00000000 $t
C:\Users\DELL\AppData\Local\Temp\ccXjhdgA.s:10167  .text.cJSON_GetNumberValue:00000000 cJSON_GetNumberValue
C:\Users\DELL\AppData\Local\Temp\ccXjhdgA.s:10201  .text.cJSON_GetNumberValue:00000018 $d
C:\Users\DELL\AppData\Local\Temp\ccXjhdgA.s:10207  .text.cJSON_IsString:00000000 $t
C:\Users\DELL\AppData\Local\Temp\ccXjhdgA.s:10213  .text.cJSON_IsString:00000000 cJSON_IsString
C:\Users\DELL\AppData\Local\Temp\ccXjhdgA.s:10245  .text.cJSON_GetStringValue:00000000 $t
C:\Users\DELL\AppData\Local\Temp\ccXjhdgA.s:10251  .text.cJSON_GetStringValue:00000000 cJSON_GetStringValue
C:\Users\DELL\AppData\Local\Temp\ccXjhdgA.s:10286  .text.cJSON_IsArray:00000000 $t
C:\Users\DELL\AppData\Local\Temp\ccXjhdgA.s:10292  .text.cJSON_IsArray:00000000 cJSON_IsArray
C:\Users\DELL\AppData\Local\Temp\ccXjhdgA.s:10324  .text.cJSON_IsObject:00000000 $t
C:\Users\DELL\AppData\Local\Temp\ccXjhdgA.s:10330  .text.cJSON_IsObject:00000000 cJSON_IsObject
C:\Users\DELL\AppData\Local\Temp\ccXjhdgA.s:10362  .text.cJSON_IsRaw:00000000 $t
C:\Users\DELL\AppData\Local\Temp\ccXjhdgA.s:10368  .text.cJSON_IsRaw:00000000 cJSON_IsRaw
C:\Users\DELL\AppData\Local\Temp\ccXjhdgA.s:10400  .text.cJSON_Compare:00000000 $t
C:\Users\DELL\AppData\Local\Temp\ccXjhdgA.s:10406  .text.cJSON_Compare:00000000 cJSON_Compare
C:\Users\DELL\AppData\Local\Temp\ccXjhdgA.s:10475  .text.cJSON_Compare:00000050 $d
C:\Users\DELL\AppData\Local\Temp\ccXjhdgA.s:10508  .text.cJSON_Compare:00000070 $t
C:\Users\DELL\AppData\Local\Temp\ccXjhdgA.s:10744  .text.cJSON_Compare:0000014c $d
C:\Users\DELL\AppData\Local\Temp\ccXjhdgA.s:10750  .text.cJSON_malloc:00000000 $t
C:\Users\DELL\AppData\Local\Temp\ccXjhdgA.s:10756  .text.cJSON_malloc:00000000 cJSON_malloc
C:\Users\DELL\AppData\Local\Temp\ccXjhdgA.s:10781  .text.cJSON_malloc:0000000c $d
C:\Users\DELL\AppData\Local\Temp\ccXjhdgA.s:10786  .text.cJSON_free:00000000 $t
C:\Users\DELL\AppData\Local\Temp\ccXjhdgA.s:10792  .text.cJSON_free:00000000 cJSON_free
ARM GAS  C:\Users\DELL\AppData\Local\Temp\ccXjhdgA.s 			page 301


C:\Users\DELL\AppData\Local\Temp\ccXjhdgA.s:10818  .text.cJSON_free:0000000c $d
C:\Users\DELL\AppData\Local\Temp\ccXjhdgA.s:10823  .text.cJSON_SetValuestring:00000000 $t
C:\Users\DELL\AppData\Local\Temp\ccXjhdgA.s:10829  .text.cJSON_SetValuestring:00000000 cJSON_SetValuestring
C:\Users\DELL\AppData\Local\Temp\ccXjhdgA.s:10967  .text.cJSON_SetValuestring:00000070 $d
C:\Users\DELL\AppData\Local\Temp\ccXjhdgA.s:10972  .text.replace_item_in_object:00000000 $t
C:\Users\DELL\AppData\Local\Temp\ccXjhdgA.s:10977  .text.replace_item_in_object:00000000 replace_item_in_object
C:\Users\DELL\AppData\Local\Temp\ccXjhdgA.s:11090  .text.replace_item_in_object:00000054 $d
C:\Users\DELL\AppData\Local\Temp\ccXjhdgA.s:11095  .text.cJSON_ReplaceItemInObject:00000000 $t
C:\Users\DELL\AppData\Local\Temp\ccXjhdgA.s:11101  .text.cJSON_ReplaceItemInObject:00000000 cJSON_ReplaceItemInObject
C:\Users\DELL\AppData\Local\Temp\ccXjhdgA.s:11125  .text.cJSON_ReplaceItemInObjectCaseSensitive:00000000 $t
C:\Users\DELL\AppData\Local\Temp\ccXjhdgA.s:11131  .text.cJSON_ReplaceItemInObjectCaseSensitive:00000000 cJSON_ReplaceItemInObjectCaseSensitive
C:\Users\DELL\AppData\Local\Temp\ccXjhdgA.s:11155  .bss.version.0:00000000 $d
C:\Users\DELL\AppData\Local\Temp\ccXjhdgA.s:11161  .data.global_hooks:00000000 $d
C:\Users\DELL\AppData\Local\Temp\ccXjhdgA.s:11169  .bss.global_error:00000000 $d
C:\Users\DELL\AppData\Local\Temp\ccXjhdgA.s:2799   .text.print_string_ptr:000000cd $d
C:\Users\DELL\AppData\Local\Temp\ccXjhdgA.s:2799   .text.print_string_ptr:000000ce $t

UNDEFINED SYMBOLS
_ctype_
__aeabi_dcmpgt
__aeabi_dsub
__aeabi_dmul
__aeabi_dcmple
strlen
memcpy
memset
strncmp
strtod
__aeabi_dcmpge
__aeabi_d2iz
sprintf
__aeabi_dcmpun
__aeabi_i2d
__aeabi_dcmpeq
sscanf
strcmp
malloc
free
realloc
__aeabi_f2d
strcpy
