ARM GAS  C:\Users\DELL\AppData\Local\Temp\ccXjhdgA.s 			page 1


   1              		.cpu cortex-m33
   2              		.arch armv8-m.main
   3              		.fpu fpv5-sp-d16
   4              		.arch_extension dsp
   5              		.eabi_attribute 27, 1
   6              		.eabi_attribute 28, 1
   7              		.eabi_attribute 20, 1
   8              		.eabi_attribute 21, 1
   9              		.eabi_attribute 23, 3
  10              		.eabi_attribute 24, 1
  11              		.eabi_attribute 25, 1
  12              		.eabi_attribute 26, 1
  13              		.eabi_attribute 30, 1
  14              		.eabi_attribute 34, 1
  15              		.eabi_attribute 18, 4
  16              		.file	"cJSON.c"
  17              		.text
  18              	.Ltext0:
  19              		.cfi_sections	.debug_frame
  20              		.file 1 "SynaptiX_FDK/services/cJSON/cJSON.c"
  21              		.section	.text.case_insensitive_strcmp,"ax",%progbits
  22              		.align	1
  23              		.syntax unified
  24              		.thumb
  25              		.thumb_func
  27              	case_insensitive_strcmp:
  28              	.LVL0:
  29              	.LFB8:
   1:SynaptiX_FDK/services/cJSON/cJSON.c **** /*
   2:SynaptiX_FDK/services/cJSON/cJSON.c ****   Copyright (c) 2009-2017 Dave Gamble and cJSON contributors
   3:SynaptiX_FDK/services/cJSON/cJSON.c **** 
   4:SynaptiX_FDK/services/cJSON/cJSON.c ****   Permission is hereby granted, free of charge, to any person obtaining a copy
   5:SynaptiX_FDK/services/cJSON/cJSON.c ****   of this software and associated documentation files (the "Software"), to deal
   6:SynaptiX_FDK/services/cJSON/cJSON.c ****   in the Software without restriction, including without limitation the rights
   7:SynaptiX_FDK/services/cJSON/cJSON.c ****   to use, copy, modify, merge, publish, distribute, sublicense, and/or sell
   8:SynaptiX_FDK/services/cJSON/cJSON.c ****   copies of the Software, and to permit persons to whom the Software is
   9:SynaptiX_FDK/services/cJSON/cJSON.c ****   furnished to do so, subject to the following conditions:
  10:SynaptiX_FDK/services/cJSON/cJSON.c **** 
  11:SynaptiX_FDK/services/cJSON/cJSON.c ****   The above copyright notice and this permission notice shall be included in
  12:SynaptiX_FDK/services/cJSON/cJSON.c ****   all copies or substantial portions of the Software.
  13:SynaptiX_FDK/services/cJSON/cJSON.c **** 
  14:SynaptiX_FDK/services/cJSON/cJSON.c ****   THE SOFTWARE IS PROVIDED "AS IS", WITHOUT WARRANTY OF ANY KIND, EXPRESS OR
  15:SynaptiX_FDK/services/cJSON/cJSON.c ****   IMPLIED, INCLUDING BUT NOT LIMITED TO THE WARRANTIES OF MERCHANTABILITY,
  16:SynaptiX_FDK/services/cJSON/cJSON.c ****   FITNESS FOR A PARTICULAR PURPOSE AND NONINFRINGEMENT. IN NO EVENT SHALL THE
  17:SynaptiX_FDK/services/cJSON/cJSON.c ****   AUTHORS OR COPYRIGHT HOLDERS BE LIABLE FOR ANY CLAIM, DAMAGES OR OTHER
  18:SynaptiX_FDK/services/cJSON/cJSON.c ****   LIABILITY, WHETHER IN AN ACTION OF CONTRACT, TORT OR OTHERWISE, ARISING FROM,
  19:SynaptiX_FDK/services/cJSON/cJSON.c ****   OUT OF OR IN CONNECTION WITH THE SOFTWARE OR THE USE OR OTHER DEALINGS IN
  20:SynaptiX_FDK/services/cJSON/cJSON.c ****   THE SOFTWARE.
  21:SynaptiX_FDK/services/cJSON/cJSON.c **** */
  22:SynaptiX_FDK/services/cJSON/cJSON.c **** 
  23:SynaptiX_FDK/services/cJSON/cJSON.c **** /* cJSON */
  24:SynaptiX_FDK/services/cJSON/cJSON.c **** /* JSON parser in C. */
  25:SynaptiX_FDK/services/cJSON/cJSON.c **** 
  26:SynaptiX_FDK/services/cJSON/cJSON.c **** /* disable warnings about old C89 functions in MSVC */
  27:SynaptiX_FDK/services/cJSON/cJSON.c **** #if !defined(_CRT_SECURE_NO_DEPRECATE) && defined(_MSC_VER)
  28:SynaptiX_FDK/services/cJSON/cJSON.c **** #define _CRT_SECURE_NO_DEPRECATE
  29:SynaptiX_FDK/services/cJSON/cJSON.c **** #endif
ARM GAS  C:\Users\DELL\AppData\Local\Temp\ccXjhdgA.s 			page 2


  30:SynaptiX_FDK/services/cJSON/cJSON.c **** 
  31:SynaptiX_FDK/services/cJSON/cJSON.c **** #ifdef __GNUC__
  32:SynaptiX_FDK/services/cJSON/cJSON.c **** #pragma GCC visibility push(default)
  33:SynaptiX_FDK/services/cJSON/cJSON.c **** #endif
  34:SynaptiX_FDK/services/cJSON/cJSON.c **** #if defined(_MSC_VER)
  35:SynaptiX_FDK/services/cJSON/cJSON.c **** #pragma warning (push)
  36:SynaptiX_FDK/services/cJSON/cJSON.c **** /* disable warning about single line comments in system headers */
  37:SynaptiX_FDK/services/cJSON/cJSON.c **** #pragma warning (disable : 4001)
  38:SynaptiX_FDK/services/cJSON/cJSON.c **** #endif
  39:SynaptiX_FDK/services/cJSON/cJSON.c **** 
  40:SynaptiX_FDK/services/cJSON/cJSON.c **** #include <string.h>
  41:SynaptiX_FDK/services/cJSON/cJSON.c **** #include <stdio.h>
  42:SynaptiX_FDK/services/cJSON/cJSON.c **** #include <math.h>
  43:SynaptiX_FDK/services/cJSON/cJSON.c **** #include <stdlib.h>
  44:SynaptiX_FDK/services/cJSON/cJSON.c **** #include <limits.h>
  45:SynaptiX_FDK/services/cJSON/cJSON.c **** #include <ctype.h>
  46:SynaptiX_FDK/services/cJSON/cJSON.c **** #include <float.h>
  47:SynaptiX_FDK/services/cJSON/cJSON.c **** 
  48:SynaptiX_FDK/services/cJSON/cJSON.c **** #ifdef ENABLE_LOCALES
  49:SynaptiX_FDK/services/cJSON/cJSON.c **** #include <locale.h>
  50:SynaptiX_FDK/services/cJSON/cJSON.c **** #endif
  51:SynaptiX_FDK/services/cJSON/cJSON.c **** 
  52:SynaptiX_FDK/services/cJSON/cJSON.c **** #if defined(_MSC_VER)
  53:SynaptiX_FDK/services/cJSON/cJSON.c **** #pragma warning (pop)
  54:SynaptiX_FDK/services/cJSON/cJSON.c **** #endif
  55:SynaptiX_FDK/services/cJSON/cJSON.c **** #ifdef __GNUC__
  56:SynaptiX_FDK/services/cJSON/cJSON.c **** #pragma GCC visibility pop
  57:SynaptiX_FDK/services/cJSON/cJSON.c **** #endif
  58:SynaptiX_FDK/services/cJSON/cJSON.c **** 
  59:SynaptiX_FDK/services/cJSON/cJSON.c **** #include "cJSON.h"
  60:SynaptiX_FDK/services/cJSON/cJSON.c **** 
  61:SynaptiX_FDK/services/cJSON/cJSON.c **** /* define our own boolean type */
  62:SynaptiX_FDK/services/cJSON/cJSON.c **** #ifdef true
  63:SynaptiX_FDK/services/cJSON/cJSON.c **** #undef true
  64:SynaptiX_FDK/services/cJSON/cJSON.c **** #endif
  65:SynaptiX_FDK/services/cJSON/cJSON.c **** #define true ((cJSON_bool)1)
  66:SynaptiX_FDK/services/cJSON/cJSON.c **** 
  67:SynaptiX_FDK/services/cJSON/cJSON.c **** #ifdef false
  68:SynaptiX_FDK/services/cJSON/cJSON.c **** #undef false
  69:SynaptiX_FDK/services/cJSON/cJSON.c **** #endif
  70:SynaptiX_FDK/services/cJSON/cJSON.c **** #define false ((cJSON_bool)0)
  71:SynaptiX_FDK/services/cJSON/cJSON.c **** 
  72:SynaptiX_FDK/services/cJSON/cJSON.c **** /* define isnan and isinf for ANSI C, if in C99 or above, isnan and isinf has been defined in math.
  73:SynaptiX_FDK/services/cJSON/cJSON.c **** #ifndef isinf
  74:SynaptiX_FDK/services/cJSON/cJSON.c **** #define isinf(d) (isnan((d - d)) && !isnan(d))
  75:SynaptiX_FDK/services/cJSON/cJSON.c **** #endif
  76:SynaptiX_FDK/services/cJSON/cJSON.c **** #ifndef isnan
  77:SynaptiX_FDK/services/cJSON/cJSON.c **** #define isnan(d) (d != d)
  78:SynaptiX_FDK/services/cJSON/cJSON.c **** #endif
  79:SynaptiX_FDK/services/cJSON/cJSON.c **** 
  80:SynaptiX_FDK/services/cJSON/cJSON.c **** #ifndef NAN
  81:SynaptiX_FDK/services/cJSON/cJSON.c **** #ifdef _WIN32
  82:SynaptiX_FDK/services/cJSON/cJSON.c **** #define NAN sqrt(-1.0)
  83:SynaptiX_FDK/services/cJSON/cJSON.c **** #else
  84:SynaptiX_FDK/services/cJSON/cJSON.c **** #define NAN 0.0/0.0
  85:SynaptiX_FDK/services/cJSON/cJSON.c **** #endif
  86:SynaptiX_FDK/services/cJSON/cJSON.c **** #endif
ARM GAS  C:\Users\DELL\AppData\Local\Temp\ccXjhdgA.s 			page 3


  87:SynaptiX_FDK/services/cJSON/cJSON.c **** 
  88:SynaptiX_FDK/services/cJSON/cJSON.c **** typedef struct {
  89:SynaptiX_FDK/services/cJSON/cJSON.c ****     const unsigned char *json;
  90:SynaptiX_FDK/services/cJSON/cJSON.c ****     size_t position;
  91:SynaptiX_FDK/services/cJSON/cJSON.c **** } error;
  92:SynaptiX_FDK/services/cJSON/cJSON.c **** static error global_error = { NULL, 0 };
  93:SynaptiX_FDK/services/cJSON/cJSON.c **** 
  94:SynaptiX_FDK/services/cJSON/cJSON.c **** CJSON_PUBLIC(const char *) cJSON_GetErrorPtr(void)
  95:SynaptiX_FDK/services/cJSON/cJSON.c **** {
  96:SynaptiX_FDK/services/cJSON/cJSON.c ****     return (const char*) (global_error.json + global_error.position);
  97:SynaptiX_FDK/services/cJSON/cJSON.c **** }
  98:SynaptiX_FDK/services/cJSON/cJSON.c **** 
  99:SynaptiX_FDK/services/cJSON/cJSON.c **** CJSON_PUBLIC(char *) cJSON_GetStringValue(const cJSON * const item)
 100:SynaptiX_FDK/services/cJSON/cJSON.c **** {
 101:SynaptiX_FDK/services/cJSON/cJSON.c ****     if (!cJSON_IsString(item))
 102:SynaptiX_FDK/services/cJSON/cJSON.c ****     {
 103:SynaptiX_FDK/services/cJSON/cJSON.c ****         return NULL;
 104:SynaptiX_FDK/services/cJSON/cJSON.c ****     }
 105:SynaptiX_FDK/services/cJSON/cJSON.c **** 
 106:SynaptiX_FDK/services/cJSON/cJSON.c ****     return item->valuestring;
 107:SynaptiX_FDK/services/cJSON/cJSON.c **** }
 108:SynaptiX_FDK/services/cJSON/cJSON.c **** 
 109:SynaptiX_FDK/services/cJSON/cJSON.c **** CJSON_PUBLIC(double) cJSON_GetNumberValue(const cJSON * const item)
 110:SynaptiX_FDK/services/cJSON/cJSON.c **** {
 111:SynaptiX_FDK/services/cJSON/cJSON.c ****     if (!cJSON_IsNumber(item))
 112:SynaptiX_FDK/services/cJSON/cJSON.c ****     {
 113:SynaptiX_FDK/services/cJSON/cJSON.c ****         return (double) NAN;
 114:SynaptiX_FDK/services/cJSON/cJSON.c ****     }
 115:SynaptiX_FDK/services/cJSON/cJSON.c **** 
 116:SynaptiX_FDK/services/cJSON/cJSON.c ****     return item->valuedouble;
 117:SynaptiX_FDK/services/cJSON/cJSON.c **** }
 118:SynaptiX_FDK/services/cJSON/cJSON.c **** 
 119:SynaptiX_FDK/services/cJSON/cJSON.c **** /* This is a safeguard to prevent copy-pasters from using incompatible C and header files */
 120:SynaptiX_FDK/services/cJSON/cJSON.c **** #if (CJSON_VERSION_MAJOR != 1) || (CJSON_VERSION_MINOR != 7) || (CJSON_VERSION_PATCH != 18)
 121:SynaptiX_FDK/services/cJSON/cJSON.c ****     #error cJSON.h and cJSON.c have different versions. Make sure that both have the same.
 122:SynaptiX_FDK/services/cJSON/cJSON.c **** #endif
 123:SynaptiX_FDK/services/cJSON/cJSON.c **** 
 124:SynaptiX_FDK/services/cJSON/cJSON.c **** CJSON_PUBLIC(const char*) cJSON_Version(void)
 125:SynaptiX_FDK/services/cJSON/cJSON.c **** {
 126:SynaptiX_FDK/services/cJSON/cJSON.c ****     static char version[15];
 127:SynaptiX_FDK/services/cJSON/cJSON.c ****     sprintf(version, "%i.%i.%i", CJSON_VERSION_MAJOR, CJSON_VERSION_MINOR, CJSON_VERSION_PATCH);
 128:SynaptiX_FDK/services/cJSON/cJSON.c **** 
 129:SynaptiX_FDK/services/cJSON/cJSON.c ****     return version;
 130:SynaptiX_FDK/services/cJSON/cJSON.c **** }
 131:SynaptiX_FDK/services/cJSON/cJSON.c **** 
 132:SynaptiX_FDK/services/cJSON/cJSON.c **** /* Case insensitive string comparison, doesn't consider two NULL pointers equal though */
 133:SynaptiX_FDK/services/cJSON/cJSON.c **** static int case_insensitive_strcmp(const unsigned char *string1, const unsigned char *string2)
 134:SynaptiX_FDK/services/cJSON/cJSON.c **** {
  30              		.loc 1 134 1 view -0
  31              		.cfi_startproc
  32              		@ args = 0, pretend = 0, frame = 0
  33              		@ frame_needed = 0, uses_anonymous_args = 0
 135:SynaptiX_FDK/services/cJSON/cJSON.c ****     if ((string1 == NULL) || (string2 == NULL))
  34              		.loc 1 135 5 view .LVU1
  35              		.loc 1 135 8 is_stmt 0 view .LVU2
  36 0000 18B3     		cbz	r0, .L9
  37 0002 8446     		mov	ip, r0
ARM GAS  C:\Users\DELL\AppData\Local\Temp\ccXjhdgA.s 			page 4


  38              		.loc 1 135 27 discriminator 1 view .LVU3
  39 0004 19B3     		cbz	r1, .L10
 136:SynaptiX_FDK/services/cJSON/cJSON.c ****     {
 137:SynaptiX_FDK/services/cJSON/cJSON.c ****         return 1;
 138:SynaptiX_FDK/services/cJSON/cJSON.c ****     }
 139:SynaptiX_FDK/services/cJSON/cJSON.c **** 
 140:SynaptiX_FDK/services/cJSON/cJSON.c ****     if (string1 == string2)
  40              		.loc 1 140 5 is_stmt 1 view .LVU4
  41              		.loc 1 140 8 is_stmt 0 view .LVU5
  42 0006 8842     		cmp	r0, r1
  43 0008 23D0     		beq	.L16
 134:SynaptiX_FDK/services/cJSON/cJSON.c ****     if ((string1 == NULL) || (string2 == NULL))
  44              		.loc 1 134 1 view .LVU6
  45 000a 00B5     		push	{lr}
  46              	.LCFI0:
  47              		.cfi_def_cfa_offset 4
  48              		.cfi_offset 14, -4
  49 000c 08E0     		b	.L3
  50              	.LVL1:
  51              	.L18:
  52              	.LBB2:
 141:SynaptiX_FDK/services/cJSON/cJSON.c ****     {
 142:SynaptiX_FDK/services/cJSON/cJSON.c ****         return 0;
 143:SynaptiX_FDK/services/cJSON/cJSON.c ****     }
 144:SynaptiX_FDK/services/cJSON/cJSON.c **** 
 145:SynaptiX_FDK/services/cJSON/cJSON.c ****     for(; tolower(*string1) == tolower(*string2); (void)string1++, string2++)
  53              		.loc 1 145 11 discriminator 2 view .LVU7
  54 000e 00F1200E 		add	lr, r0, #32
  55 0012 0EE0     		b	.L5
  56              	.LVL2:
  57              	.L7:
  58              		.loc 1 145 11 discriminator 2 view .LVU8
  59              	.LBE2:
  60              		.loc 1 145 29 discriminator 9 view .LVU9
  61 0014 9E45     		cmp	lr, r3
  62 0016 15D1     		bne	.L17
 146:SynaptiX_FDK/services/cJSON/cJSON.c ****     {
 147:SynaptiX_FDK/services/cJSON/cJSON.c ****         if (*string1 == '\0')
  63              		.loc 1 147 9 is_stmt 1 view .LVU10
  64              		.loc 1 147 12 is_stmt 0 view .LVU11
  65 0018 E8B1     		cbz	r0, .L12
 145:SynaptiX_FDK/services/cJSON/cJSON.c ****     {
  66              		.loc 1 145 66 is_stmt 1 view .LVU12
 145:SynaptiX_FDK/services/cJSON/cJSON.c ****     {
  67              		.loc 1 145 51 is_stmt 0 view .LVU13
  68 001a 0CF1010C 		add	ip, ip, #1
  69              	.LVL3:
 145:SynaptiX_FDK/services/cJSON/cJSON.c ****     {
  70              		.loc 1 145 75 view .LVU14
  71 001e 0131     		adds	r1, r1, #1
  72              	.LVL4:
  73              	.L3:
 145:SynaptiX_FDK/services/cJSON/cJSON.c ****     {
  74              		.loc 1 145 29 is_stmt 1 discriminator 1 view .LVU15
  75              	.LBB3:
 145:SynaptiX_FDK/services/cJSON/cJSON.c ****     {
  76              		.loc 1 145 11 discriminator 1 view .LVU16
ARM GAS  C:\Users\DELL\AppData\Local\Temp\ccXjhdgA.s 			page 5


  77 0020 9CF80000 		ldrb	r0, [ip]	@ zero_extendqisi2
  78              	.LVL5:
 145:SynaptiX_FDK/services/cJSON/cJSON.c ****     {
  79              		.loc 1 145 11 view .LVU17
 145:SynaptiX_FDK/services/cJSON/cJSON.c ****     {
  80              		.loc 1 145 11 is_stmt 0 discriminator 1 view .LVU18
  81 0024 0D4B     		ldr	r3, .L19
  82 0026 1B5C     		ldrb	r3, [r3, r0]	@ zero_extendqisi2
  83 0028 03F00303 		and	r3, r3, #3
  84 002c 012B     		cmp	r3, #1
  85 002e EED0     		beq	.L18
 145:SynaptiX_FDK/services/cJSON/cJSON.c ****     {
  86              		.loc 1 145 11 discriminator 3 view .LVU19
  87 0030 8646     		mov	lr, r0
  88              	.L5:
 145:SynaptiX_FDK/services/cJSON/cJSON.c ****     {
  89              		.loc 1 145 11 discriminator 3 view .LVU20
  90              	.LBE3:
  91              	.LBB4:
 145:SynaptiX_FDK/services/cJSON/cJSON.c ****     {
  92              		.loc 1 145 32 is_stmt 1 view .LVU21
 145:SynaptiX_FDK/services/cJSON/cJSON.c ****     {
  93              		.loc 1 145 32 is_stmt 0 discriminator 5 view .LVU22
  94 0032 0B78     		ldrb	r3, [r1]	@ zero_extendqisi2
  95              	.LVL6:
 145:SynaptiX_FDK/services/cJSON/cJSON.c ****     {
  96              		.loc 1 145 32 is_stmt 1 view .LVU23
 145:SynaptiX_FDK/services/cJSON/cJSON.c ****     {
  97              		.loc 1 145 32 is_stmt 0 discriminator 5 view .LVU24
  98 0034 094A     		ldr	r2, .L19
  99 0036 D25C     		ldrb	r2, [r2, r3]	@ zero_extendqisi2
 100 0038 02F00302 		and	r2, r2, #3
 101 003c 012A     		cmp	r2, #1
 102 003e E9D1     		bne	.L7
 145:SynaptiX_FDK/services/cJSON/cJSON.c ****     {
 103              		.loc 1 145 32 discriminator 6 view .LVU25
 104 0040 2033     		adds	r3, r3, #32
 105              	.LVL7:
 145:SynaptiX_FDK/services/cJSON/cJSON.c ****     {
 106              		.loc 1 145 32 discriminator 6 view .LVU26
 107 0042 E7E7     		b	.L7
 108              	.LVL8:
 109              	.L17:
 145:SynaptiX_FDK/services/cJSON/cJSON.c ****     {
 110              		.loc 1 145 32 discriminator 6 view .LVU27
 111              	.LBE4:
 148:SynaptiX_FDK/services/cJSON/cJSON.c ****         {
 149:SynaptiX_FDK/services/cJSON/cJSON.c ****             return 0;
 150:SynaptiX_FDK/services/cJSON/cJSON.c ****         }
 151:SynaptiX_FDK/services/cJSON/cJSON.c ****     }
 152:SynaptiX_FDK/services/cJSON/cJSON.c **** 
 153:SynaptiX_FDK/services/cJSON/cJSON.c ****     return tolower(*string1) - tolower(*string2);
 112              		.loc 1 153 5 is_stmt 1 view .LVU28
 113              		.loc 1 153 12 view .LVU29
 114              		.loc 1 153 12 view .LVU30
 115              		.loc 1 153 32 view .LVU31
 116              		.loc 1 153 32 view .LVU32
ARM GAS  C:\Users\DELL\AppData\Local\Temp\ccXjhdgA.s 			page 6


 117              		.loc 1 153 30 is_stmt 0 discriminator 8 view .LVU33
 118 0044 AEEB0300 		sub	r0, lr, r3
 119              	.LVL9:
 120              	.L1:
 154:SynaptiX_FDK/services/cJSON/cJSON.c **** }
 121              		.loc 1 154 1 view .LVU34
 122 0048 00BD     		pop	{pc}
 123              	.LVL10:
 124              	.L9:
 125              	.LCFI1:
 126              		.cfi_def_cfa_offset 0
 127              		.cfi_restore 14
 137:SynaptiX_FDK/services/cJSON/cJSON.c ****     }
 128              		.loc 1 137 16 view .LVU35
 129 004a 0120     		movs	r0, #1
 130              	.LVL11:
 137:SynaptiX_FDK/services/cJSON/cJSON.c ****     }
 131              		.loc 1 137 16 view .LVU36
 132 004c 7047     		bx	lr
 133              	.LVL12:
 134              	.L10:
 137:SynaptiX_FDK/services/cJSON/cJSON.c ****     }
 135              		.loc 1 137 16 view .LVU37
 136 004e 0120     		movs	r0, #1
 137              	.LVL13:
 137:SynaptiX_FDK/services/cJSON/cJSON.c ****     }
 138              		.loc 1 137 16 view .LVU38
 139 0050 7047     		bx	lr
 140              	.LVL14:
 141              	.L16:
 142:SynaptiX_FDK/services/cJSON/cJSON.c ****     }
 142              		.loc 1 142 16 view .LVU39
 143 0052 0020     		movs	r0, #0
 144              	.LVL15:
 145              		.loc 1 154 1 view .LVU40
 146 0054 7047     		bx	lr
 147              	.LVL16:
 148              	.L12:
 149              	.LCFI2:
 150              		.cfi_def_cfa_offset 4
 151              		.cfi_offset 14, -4
 149:SynaptiX_FDK/services/cJSON/cJSON.c ****         }
 152              		.loc 1 149 20 view .LVU41
 153 0056 0020     		movs	r0, #0
 154              	.LVL17:
 149:SynaptiX_FDK/services/cJSON/cJSON.c ****         }
 155              		.loc 1 149 20 view .LVU42
 156 0058 F6E7     		b	.L1
 157              	.L20:
 158 005a 00BF     		.align	2
 159              	.L19:
 160 005c 01000000 		.word	_ctype_+1
 161              		.cfi_endproc
 162              	.LFE8:
 164              		.section	.text.get_decimal_point,"ax",%progbits
 165              		.align	1
 166              		.syntax unified
ARM GAS  C:\Users\DELL\AppData\Local\Temp\ccXjhdgA.s 			page 7


 167              		.thumb
 168              		.thumb_func
 170              	get_decimal_point:
 171              	.LFB13:
 155:SynaptiX_FDK/services/cJSON/cJSON.c **** 
 156:SynaptiX_FDK/services/cJSON/cJSON.c **** typedef struct internal_hooks
 157:SynaptiX_FDK/services/cJSON/cJSON.c **** {
 158:SynaptiX_FDK/services/cJSON/cJSON.c ****     void *(CJSON_CDECL *allocate)(size_t size);
 159:SynaptiX_FDK/services/cJSON/cJSON.c ****     void (CJSON_CDECL *deallocate)(void *pointer);
 160:SynaptiX_FDK/services/cJSON/cJSON.c ****     void *(CJSON_CDECL *reallocate)(void *pointer, size_t size);
 161:SynaptiX_FDK/services/cJSON/cJSON.c **** } internal_hooks;
 162:SynaptiX_FDK/services/cJSON/cJSON.c **** 
 163:SynaptiX_FDK/services/cJSON/cJSON.c **** #if defined(_MSC_VER)
 164:SynaptiX_FDK/services/cJSON/cJSON.c **** /* work around MSVC error C2322: '...' address of dllimport '...' is not static */
 165:SynaptiX_FDK/services/cJSON/cJSON.c **** static void * CJSON_CDECL internal_malloc(size_t size)
 166:SynaptiX_FDK/services/cJSON/cJSON.c **** {
 167:SynaptiX_FDK/services/cJSON/cJSON.c ****     return malloc(size);
 168:SynaptiX_FDK/services/cJSON/cJSON.c **** }
 169:SynaptiX_FDK/services/cJSON/cJSON.c **** static void CJSON_CDECL internal_free(void *pointer)
 170:SynaptiX_FDK/services/cJSON/cJSON.c **** {
 171:SynaptiX_FDK/services/cJSON/cJSON.c ****     free(pointer);
 172:SynaptiX_FDK/services/cJSON/cJSON.c **** }
 173:SynaptiX_FDK/services/cJSON/cJSON.c **** static void * CJSON_CDECL internal_realloc(void *pointer, size_t size)
 174:SynaptiX_FDK/services/cJSON/cJSON.c **** {
 175:SynaptiX_FDK/services/cJSON/cJSON.c ****     return realloc(pointer, size);
 176:SynaptiX_FDK/services/cJSON/cJSON.c **** }
 177:SynaptiX_FDK/services/cJSON/cJSON.c **** #else
 178:SynaptiX_FDK/services/cJSON/cJSON.c **** #define internal_malloc malloc
 179:SynaptiX_FDK/services/cJSON/cJSON.c **** #define internal_free free
 180:SynaptiX_FDK/services/cJSON/cJSON.c **** #define internal_realloc realloc
 181:SynaptiX_FDK/services/cJSON/cJSON.c **** #endif
 182:SynaptiX_FDK/services/cJSON/cJSON.c **** 
 183:SynaptiX_FDK/services/cJSON/cJSON.c **** /* strlen of character literals resolved at compile time */
 184:SynaptiX_FDK/services/cJSON/cJSON.c **** #define static_strlen(string_literal) (sizeof(string_literal) - sizeof(""))
 185:SynaptiX_FDK/services/cJSON/cJSON.c **** 
 186:SynaptiX_FDK/services/cJSON/cJSON.c **** static internal_hooks global_hooks = { internal_malloc, internal_free, internal_realloc };
 187:SynaptiX_FDK/services/cJSON/cJSON.c **** 
 188:SynaptiX_FDK/services/cJSON/cJSON.c **** static unsigned char* cJSON_strdup(const unsigned char* string, const internal_hooks * const hooks)
 189:SynaptiX_FDK/services/cJSON/cJSON.c **** {
 190:SynaptiX_FDK/services/cJSON/cJSON.c ****     size_t length = 0;
 191:SynaptiX_FDK/services/cJSON/cJSON.c ****     unsigned char *copy = NULL;
 192:SynaptiX_FDK/services/cJSON/cJSON.c **** 
 193:SynaptiX_FDK/services/cJSON/cJSON.c ****     if (string == NULL)
 194:SynaptiX_FDK/services/cJSON/cJSON.c ****     {
 195:SynaptiX_FDK/services/cJSON/cJSON.c ****         return NULL;
 196:SynaptiX_FDK/services/cJSON/cJSON.c ****     }
 197:SynaptiX_FDK/services/cJSON/cJSON.c **** 
 198:SynaptiX_FDK/services/cJSON/cJSON.c ****     length = strlen((const char*)string) + sizeof("");
 199:SynaptiX_FDK/services/cJSON/cJSON.c ****     copy = (unsigned char*)hooks->allocate(length);
 200:SynaptiX_FDK/services/cJSON/cJSON.c ****     if (copy == NULL)
 201:SynaptiX_FDK/services/cJSON/cJSON.c ****     {
 202:SynaptiX_FDK/services/cJSON/cJSON.c ****         return NULL;
 203:SynaptiX_FDK/services/cJSON/cJSON.c ****     }
 204:SynaptiX_FDK/services/cJSON/cJSON.c ****     memcpy(copy, string, length);
 205:SynaptiX_FDK/services/cJSON/cJSON.c **** 
 206:SynaptiX_FDK/services/cJSON/cJSON.c ****     return copy;
 207:SynaptiX_FDK/services/cJSON/cJSON.c **** }
ARM GAS  C:\Users\DELL\AppData\Local\Temp\ccXjhdgA.s 			page 8


 208:SynaptiX_FDK/services/cJSON/cJSON.c **** 
 209:SynaptiX_FDK/services/cJSON/cJSON.c **** CJSON_PUBLIC(void) cJSON_InitHooks(cJSON_Hooks* hooks)
 210:SynaptiX_FDK/services/cJSON/cJSON.c **** {
 211:SynaptiX_FDK/services/cJSON/cJSON.c ****     if (hooks == NULL)
 212:SynaptiX_FDK/services/cJSON/cJSON.c ****     {
 213:SynaptiX_FDK/services/cJSON/cJSON.c ****         /* Reset hooks */
 214:SynaptiX_FDK/services/cJSON/cJSON.c ****         global_hooks.allocate = malloc;
 215:SynaptiX_FDK/services/cJSON/cJSON.c ****         global_hooks.deallocate = free;
 216:SynaptiX_FDK/services/cJSON/cJSON.c ****         global_hooks.reallocate = realloc;
 217:SynaptiX_FDK/services/cJSON/cJSON.c ****         return;
 218:SynaptiX_FDK/services/cJSON/cJSON.c ****     }
 219:SynaptiX_FDK/services/cJSON/cJSON.c **** 
 220:SynaptiX_FDK/services/cJSON/cJSON.c ****     global_hooks.allocate = malloc;
 221:SynaptiX_FDK/services/cJSON/cJSON.c ****     if (hooks->malloc_fn != NULL)
 222:SynaptiX_FDK/services/cJSON/cJSON.c ****     {
 223:SynaptiX_FDK/services/cJSON/cJSON.c ****         global_hooks.allocate = hooks->malloc_fn;
 224:SynaptiX_FDK/services/cJSON/cJSON.c ****     }
 225:SynaptiX_FDK/services/cJSON/cJSON.c **** 
 226:SynaptiX_FDK/services/cJSON/cJSON.c ****     global_hooks.deallocate = free;
 227:SynaptiX_FDK/services/cJSON/cJSON.c ****     if (hooks->free_fn != NULL)
 228:SynaptiX_FDK/services/cJSON/cJSON.c ****     {
 229:SynaptiX_FDK/services/cJSON/cJSON.c ****         global_hooks.deallocate = hooks->free_fn;
 230:SynaptiX_FDK/services/cJSON/cJSON.c ****     }
 231:SynaptiX_FDK/services/cJSON/cJSON.c **** 
 232:SynaptiX_FDK/services/cJSON/cJSON.c ****     /* use realloc only if both free and malloc are used */
 233:SynaptiX_FDK/services/cJSON/cJSON.c ****     global_hooks.reallocate = NULL;
 234:SynaptiX_FDK/services/cJSON/cJSON.c ****     if ((global_hooks.allocate == malloc) && (global_hooks.deallocate == free))
 235:SynaptiX_FDK/services/cJSON/cJSON.c ****     {
 236:SynaptiX_FDK/services/cJSON/cJSON.c ****         global_hooks.reallocate = realloc;
 237:SynaptiX_FDK/services/cJSON/cJSON.c ****     }
 238:SynaptiX_FDK/services/cJSON/cJSON.c **** }
 239:SynaptiX_FDK/services/cJSON/cJSON.c **** 
 240:SynaptiX_FDK/services/cJSON/cJSON.c **** /* Internal constructor. */
 241:SynaptiX_FDK/services/cJSON/cJSON.c **** static cJSON *cJSON_New_Item(const internal_hooks * const hooks)
 242:SynaptiX_FDK/services/cJSON/cJSON.c **** {
 243:SynaptiX_FDK/services/cJSON/cJSON.c ****     cJSON* node = (cJSON*)hooks->allocate(sizeof(cJSON));
 244:SynaptiX_FDK/services/cJSON/cJSON.c ****     if (node)
 245:SynaptiX_FDK/services/cJSON/cJSON.c ****     {
 246:SynaptiX_FDK/services/cJSON/cJSON.c ****         memset(node, '\0', sizeof(cJSON));
 247:SynaptiX_FDK/services/cJSON/cJSON.c ****     }
 248:SynaptiX_FDK/services/cJSON/cJSON.c **** 
 249:SynaptiX_FDK/services/cJSON/cJSON.c ****     return node;
 250:SynaptiX_FDK/services/cJSON/cJSON.c **** }
 251:SynaptiX_FDK/services/cJSON/cJSON.c **** 
 252:SynaptiX_FDK/services/cJSON/cJSON.c **** /* Delete a cJSON structure. */
 253:SynaptiX_FDK/services/cJSON/cJSON.c **** CJSON_PUBLIC(void) cJSON_Delete(cJSON *item)
 254:SynaptiX_FDK/services/cJSON/cJSON.c **** {
 255:SynaptiX_FDK/services/cJSON/cJSON.c ****     cJSON *next = NULL;
 256:SynaptiX_FDK/services/cJSON/cJSON.c ****     while (item != NULL)
 257:SynaptiX_FDK/services/cJSON/cJSON.c ****     {
 258:SynaptiX_FDK/services/cJSON/cJSON.c ****         next = item->next;
 259:SynaptiX_FDK/services/cJSON/cJSON.c ****         if (!(item->type & cJSON_IsReference) && (item->child != NULL))
 260:SynaptiX_FDK/services/cJSON/cJSON.c ****         {
 261:SynaptiX_FDK/services/cJSON/cJSON.c ****             cJSON_Delete(item->child);
 262:SynaptiX_FDK/services/cJSON/cJSON.c ****         }
 263:SynaptiX_FDK/services/cJSON/cJSON.c ****         if (!(item->type & cJSON_IsReference) && (item->valuestring != NULL))
 264:SynaptiX_FDK/services/cJSON/cJSON.c ****         {
ARM GAS  C:\Users\DELL\AppData\Local\Temp\ccXjhdgA.s 			page 9


 265:SynaptiX_FDK/services/cJSON/cJSON.c ****             global_hooks.deallocate(item->valuestring);
 266:SynaptiX_FDK/services/cJSON/cJSON.c ****             item->valuestring = NULL;
 267:SynaptiX_FDK/services/cJSON/cJSON.c ****         }
 268:SynaptiX_FDK/services/cJSON/cJSON.c ****         if (!(item->type & cJSON_StringIsConst) && (item->string != NULL))
 269:SynaptiX_FDK/services/cJSON/cJSON.c ****         {
 270:SynaptiX_FDK/services/cJSON/cJSON.c ****             global_hooks.deallocate(item->string);
 271:SynaptiX_FDK/services/cJSON/cJSON.c ****             item->string = NULL;
 272:SynaptiX_FDK/services/cJSON/cJSON.c ****         }
 273:SynaptiX_FDK/services/cJSON/cJSON.c ****         global_hooks.deallocate(item);
 274:SynaptiX_FDK/services/cJSON/cJSON.c ****         item = next;
 275:SynaptiX_FDK/services/cJSON/cJSON.c ****     }
 276:SynaptiX_FDK/services/cJSON/cJSON.c **** }
 277:SynaptiX_FDK/services/cJSON/cJSON.c **** 
 278:SynaptiX_FDK/services/cJSON/cJSON.c **** /* get the decimal point character of the current locale */
 279:SynaptiX_FDK/services/cJSON/cJSON.c **** static unsigned char get_decimal_point(void)
 280:SynaptiX_FDK/services/cJSON/cJSON.c **** {
 172              		.loc 1 280 1 is_stmt 1 view -0
 173              		.cfi_startproc
 174              		@ args = 0, pretend = 0, frame = 0
 175              		@ frame_needed = 0, uses_anonymous_args = 0
 176              		@ link register save eliminated.
 281:SynaptiX_FDK/services/cJSON/cJSON.c **** #ifdef ENABLE_LOCALES
 282:SynaptiX_FDK/services/cJSON/cJSON.c ****     struct lconv *lconv = localeconv();
 283:SynaptiX_FDK/services/cJSON/cJSON.c ****     return (unsigned char) lconv->decimal_point[0];
 284:SynaptiX_FDK/services/cJSON/cJSON.c **** #else
 285:SynaptiX_FDK/services/cJSON/cJSON.c ****     return '.';
 177              		.loc 1 285 5 view .LVU44
 286:SynaptiX_FDK/services/cJSON/cJSON.c **** #endif
 287:SynaptiX_FDK/services/cJSON/cJSON.c **** }
 178              		.loc 1 287 1 is_stmt 0 view .LVU45
 179 0000 2E20     		movs	r0, #46
 180 0002 7047     		bx	lr
 181              		.cfi_endproc
 182              	.LFE13:
 184              		.section	.text.compare_double,"ax",%progbits
 185              		.align	1
 186              		.syntax unified
 187              		.thumb
 188              		.thumb_func
 190              	compare_double:
 191              	.LVL18:
 192              	.LFB19:
 288:SynaptiX_FDK/services/cJSON/cJSON.c **** 
 289:SynaptiX_FDK/services/cJSON/cJSON.c **** typedef struct
 290:SynaptiX_FDK/services/cJSON/cJSON.c **** {
 291:SynaptiX_FDK/services/cJSON/cJSON.c ****     const unsigned char *content;
 292:SynaptiX_FDK/services/cJSON/cJSON.c ****     size_t length;
 293:SynaptiX_FDK/services/cJSON/cJSON.c ****     size_t offset;
 294:SynaptiX_FDK/services/cJSON/cJSON.c ****     size_t depth; /* How deeply nested (in arrays/objects) is the input at the current offset. */
 295:SynaptiX_FDK/services/cJSON/cJSON.c ****     internal_hooks hooks;
 296:SynaptiX_FDK/services/cJSON/cJSON.c **** } parse_buffer;
 297:SynaptiX_FDK/services/cJSON/cJSON.c **** 
 298:SynaptiX_FDK/services/cJSON/cJSON.c **** /* check if the given size is left to read in a given parse buffer (starting with 1) */
 299:SynaptiX_FDK/services/cJSON/cJSON.c **** #define can_read(buffer, size) ((buffer != NULL) && (((buffer)->offset + size) <= (buffer)->length)
 300:SynaptiX_FDK/services/cJSON/cJSON.c **** /* check if the buffer can be accessed at the given index (starting with 0) */
 301:SynaptiX_FDK/services/cJSON/cJSON.c **** #define can_access_at_index(buffer, index) ((buffer != NULL) && (((buffer)->offset + index) < (buff
 302:SynaptiX_FDK/services/cJSON/cJSON.c **** #define cannot_access_at_index(buffer, index) (!can_access_at_index(buffer, index))
ARM GAS  C:\Users\DELL\AppData\Local\Temp\ccXjhdgA.s 			page 10


 303:SynaptiX_FDK/services/cJSON/cJSON.c **** /* get a pointer to the buffer at the position */
 304:SynaptiX_FDK/services/cJSON/cJSON.c **** #define buffer_at_offset(buffer) ((buffer)->content + (buffer)->offset)
 305:SynaptiX_FDK/services/cJSON/cJSON.c **** 
 306:SynaptiX_FDK/services/cJSON/cJSON.c **** /* Parse the input text to generate a number, and populate the result into item. */
 307:SynaptiX_FDK/services/cJSON/cJSON.c **** static cJSON_bool parse_number(cJSON * const item, parse_buffer * const input_buffer)
 308:SynaptiX_FDK/services/cJSON/cJSON.c **** {
 309:SynaptiX_FDK/services/cJSON/cJSON.c ****     double number = 0;
 310:SynaptiX_FDK/services/cJSON/cJSON.c ****     unsigned char *after_end = NULL;
 311:SynaptiX_FDK/services/cJSON/cJSON.c ****     unsigned char number_c_string[64];
 312:SynaptiX_FDK/services/cJSON/cJSON.c ****     unsigned char decimal_point = get_decimal_point();
 313:SynaptiX_FDK/services/cJSON/cJSON.c ****     size_t i = 0;
 314:SynaptiX_FDK/services/cJSON/cJSON.c **** 
 315:SynaptiX_FDK/services/cJSON/cJSON.c ****     if ((input_buffer == NULL) || (input_buffer->content == NULL))
 316:SynaptiX_FDK/services/cJSON/cJSON.c ****     {
 317:SynaptiX_FDK/services/cJSON/cJSON.c ****         return false;
 318:SynaptiX_FDK/services/cJSON/cJSON.c ****     }
 319:SynaptiX_FDK/services/cJSON/cJSON.c **** 
 320:SynaptiX_FDK/services/cJSON/cJSON.c ****     /* copy the number into a temporary buffer and replace '.' with the decimal point
 321:SynaptiX_FDK/services/cJSON/cJSON.c ****      * of the current locale (for strtod)
 322:SynaptiX_FDK/services/cJSON/cJSON.c ****      * This also takes care of '\0' not necessarily being available for marking the end of the inpu
 323:SynaptiX_FDK/services/cJSON/cJSON.c ****     for (i = 0; (i < (sizeof(number_c_string) - 1)) && can_access_at_index(input_buffer, i); i++)
 324:SynaptiX_FDK/services/cJSON/cJSON.c ****     {
 325:SynaptiX_FDK/services/cJSON/cJSON.c ****         switch (buffer_at_offset(input_buffer)[i])
 326:SynaptiX_FDK/services/cJSON/cJSON.c ****         {
 327:SynaptiX_FDK/services/cJSON/cJSON.c ****             case '0':
 328:SynaptiX_FDK/services/cJSON/cJSON.c ****             case '1':
 329:SynaptiX_FDK/services/cJSON/cJSON.c ****             case '2':
 330:SynaptiX_FDK/services/cJSON/cJSON.c ****             case '3':
 331:SynaptiX_FDK/services/cJSON/cJSON.c ****             case '4':
 332:SynaptiX_FDK/services/cJSON/cJSON.c ****             case '5':
 333:SynaptiX_FDK/services/cJSON/cJSON.c ****             case '6':
 334:SynaptiX_FDK/services/cJSON/cJSON.c ****             case '7':
 335:SynaptiX_FDK/services/cJSON/cJSON.c ****             case '8':
 336:SynaptiX_FDK/services/cJSON/cJSON.c ****             case '9':
 337:SynaptiX_FDK/services/cJSON/cJSON.c ****             case '+':
 338:SynaptiX_FDK/services/cJSON/cJSON.c ****             case '-':
 339:SynaptiX_FDK/services/cJSON/cJSON.c ****             case 'e':
 340:SynaptiX_FDK/services/cJSON/cJSON.c ****             case 'E':
 341:SynaptiX_FDK/services/cJSON/cJSON.c ****                 number_c_string[i] = buffer_at_offset(input_buffer)[i];
 342:SynaptiX_FDK/services/cJSON/cJSON.c ****                 break;
 343:SynaptiX_FDK/services/cJSON/cJSON.c **** 
 344:SynaptiX_FDK/services/cJSON/cJSON.c ****             case '.':
 345:SynaptiX_FDK/services/cJSON/cJSON.c ****                 number_c_string[i] = decimal_point;
 346:SynaptiX_FDK/services/cJSON/cJSON.c ****                 break;
 347:SynaptiX_FDK/services/cJSON/cJSON.c **** 
 348:SynaptiX_FDK/services/cJSON/cJSON.c ****             default:
 349:SynaptiX_FDK/services/cJSON/cJSON.c ****                 goto loop_end;
 350:SynaptiX_FDK/services/cJSON/cJSON.c ****         }
 351:SynaptiX_FDK/services/cJSON/cJSON.c ****     }
 352:SynaptiX_FDK/services/cJSON/cJSON.c **** loop_end:
 353:SynaptiX_FDK/services/cJSON/cJSON.c ****     number_c_string[i] = '\0';
 354:SynaptiX_FDK/services/cJSON/cJSON.c **** 
 355:SynaptiX_FDK/services/cJSON/cJSON.c ****     number = strtod((const char*)number_c_string, (char**)&after_end);
 356:SynaptiX_FDK/services/cJSON/cJSON.c ****     if (number_c_string == after_end)
 357:SynaptiX_FDK/services/cJSON/cJSON.c ****     {
 358:SynaptiX_FDK/services/cJSON/cJSON.c ****         return false; /* parse_error */
 359:SynaptiX_FDK/services/cJSON/cJSON.c ****     }
ARM GAS  C:\Users\DELL\AppData\Local\Temp\ccXjhdgA.s 			page 11


 360:SynaptiX_FDK/services/cJSON/cJSON.c **** 
 361:SynaptiX_FDK/services/cJSON/cJSON.c ****     item->valuedouble = number;
 362:SynaptiX_FDK/services/cJSON/cJSON.c **** 
 363:SynaptiX_FDK/services/cJSON/cJSON.c ****     /* use saturation in case of overflow */
 364:SynaptiX_FDK/services/cJSON/cJSON.c ****     if (number >= INT_MAX)
 365:SynaptiX_FDK/services/cJSON/cJSON.c ****     {
 366:SynaptiX_FDK/services/cJSON/cJSON.c ****         item->valueint = INT_MAX;
 367:SynaptiX_FDK/services/cJSON/cJSON.c ****     }
 368:SynaptiX_FDK/services/cJSON/cJSON.c ****     else if (number <= (double)INT_MIN)
 369:SynaptiX_FDK/services/cJSON/cJSON.c ****     {
 370:SynaptiX_FDK/services/cJSON/cJSON.c ****         item->valueint = INT_MIN;
 371:SynaptiX_FDK/services/cJSON/cJSON.c ****     }
 372:SynaptiX_FDK/services/cJSON/cJSON.c ****     else
 373:SynaptiX_FDK/services/cJSON/cJSON.c ****     {
 374:SynaptiX_FDK/services/cJSON/cJSON.c ****         item->valueint = (int)number;
 375:SynaptiX_FDK/services/cJSON/cJSON.c ****     }
 376:SynaptiX_FDK/services/cJSON/cJSON.c **** 
 377:SynaptiX_FDK/services/cJSON/cJSON.c ****     item->type = cJSON_Number;
 378:SynaptiX_FDK/services/cJSON/cJSON.c **** 
 379:SynaptiX_FDK/services/cJSON/cJSON.c ****     input_buffer->offset += (size_t)(after_end - number_c_string);
 380:SynaptiX_FDK/services/cJSON/cJSON.c ****     return true;
 381:SynaptiX_FDK/services/cJSON/cJSON.c **** }
 382:SynaptiX_FDK/services/cJSON/cJSON.c **** 
 383:SynaptiX_FDK/services/cJSON/cJSON.c **** /* don't ask me, but the original cJSON_SetNumberValue returns an integer or double */
 384:SynaptiX_FDK/services/cJSON/cJSON.c **** CJSON_PUBLIC(double) cJSON_SetNumberHelper(cJSON *object, double number)
 385:SynaptiX_FDK/services/cJSON/cJSON.c **** {
 386:SynaptiX_FDK/services/cJSON/cJSON.c ****     if (number >= INT_MAX)
 387:SynaptiX_FDK/services/cJSON/cJSON.c ****     {
 388:SynaptiX_FDK/services/cJSON/cJSON.c ****         object->valueint = INT_MAX;
 389:SynaptiX_FDK/services/cJSON/cJSON.c ****     }
 390:SynaptiX_FDK/services/cJSON/cJSON.c ****     else if (number <= (double)INT_MIN)
 391:SynaptiX_FDK/services/cJSON/cJSON.c ****     {
 392:SynaptiX_FDK/services/cJSON/cJSON.c ****         object->valueint = INT_MIN;
 393:SynaptiX_FDK/services/cJSON/cJSON.c ****     }
 394:SynaptiX_FDK/services/cJSON/cJSON.c ****     else
 395:SynaptiX_FDK/services/cJSON/cJSON.c ****     {
 396:SynaptiX_FDK/services/cJSON/cJSON.c ****         object->valueint = (int)number;
 397:SynaptiX_FDK/services/cJSON/cJSON.c ****     }
 398:SynaptiX_FDK/services/cJSON/cJSON.c **** 
 399:SynaptiX_FDK/services/cJSON/cJSON.c ****     return object->valuedouble = number;
 400:SynaptiX_FDK/services/cJSON/cJSON.c **** }
 401:SynaptiX_FDK/services/cJSON/cJSON.c **** 
 402:SynaptiX_FDK/services/cJSON/cJSON.c **** /* Note: when passing a NULL valuestring, cJSON_SetValuestring treats this as an error and return N
 403:SynaptiX_FDK/services/cJSON/cJSON.c **** CJSON_PUBLIC(char*) cJSON_SetValuestring(cJSON *object, const char *valuestring)
 404:SynaptiX_FDK/services/cJSON/cJSON.c **** {
 405:SynaptiX_FDK/services/cJSON/cJSON.c ****     char *copy = NULL;
 406:SynaptiX_FDK/services/cJSON/cJSON.c ****     size_t v1_len;
 407:SynaptiX_FDK/services/cJSON/cJSON.c ****     size_t v2_len;
 408:SynaptiX_FDK/services/cJSON/cJSON.c ****     /* if object's type is not cJSON_String or is cJSON_IsReference, it should not set valuestring 
 409:SynaptiX_FDK/services/cJSON/cJSON.c ****     if ((object == NULL) || !(object->type & cJSON_String) || (object->type & cJSON_IsReference))
 410:SynaptiX_FDK/services/cJSON/cJSON.c ****     {
 411:SynaptiX_FDK/services/cJSON/cJSON.c ****         return NULL;
 412:SynaptiX_FDK/services/cJSON/cJSON.c ****     }
 413:SynaptiX_FDK/services/cJSON/cJSON.c ****     /* return NULL if the object is corrupted or valuestring is NULL */
 414:SynaptiX_FDK/services/cJSON/cJSON.c ****     if (object->valuestring == NULL || valuestring == NULL)
 415:SynaptiX_FDK/services/cJSON/cJSON.c ****     {
 416:SynaptiX_FDK/services/cJSON/cJSON.c ****         return NULL;
ARM GAS  C:\Users\DELL\AppData\Local\Temp\ccXjhdgA.s 			page 12


 417:SynaptiX_FDK/services/cJSON/cJSON.c ****     }
 418:SynaptiX_FDK/services/cJSON/cJSON.c **** 
 419:SynaptiX_FDK/services/cJSON/cJSON.c ****     v1_len = strlen(valuestring);
 420:SynaptiX_FDK/services/cJSON/cJSON.c ****     v2_len = strlen(object->valuestring);
 421:SynaptiX_FDK/services/cJSON/cJSON.c **** 
 422:SynaptiX_FDK/services/cJSON/cJSON.c ****     if (v1_len <= v2_len)
 423:SynaptiX_FDK/services/cJSON/cJSON.c ****     {
 424:SynaptiX_FDK/services/cJSON/cJSON.c ****         /* strcpy does not handle overlapping string: [X1, X2] [Y1, Y2] => X2 < Y1 or Y2 < X1 */
 425:SynaptiX_FDK/services/cJSON/cJSON.c ****         if (!( valuestring + v1_len < object->valuestring || object->valuestring + v2_len < valuest
 426:SynaptiX_FDK/services/cJSON/cJSON.c ****         {
 427:SynaptiX_FDK/services/cJSON/cJSON.c ****             return NULL;
 428:SynaptiX_FDK/services/cJSON/cJSON.c ****         }
 429:SynaptiX_FDK/services/cJSON/cJSON.c ****         strcpy(object->valuestring, valuestring);
 430:SynaptiX_FDK/services/cJSON/cJSON.c ****         return object->valuestring;
 431:SynaptiX_FDK/services/cJSON/cJSON.c ****     }
 432:SynaptiX_FDK/services/cJSON/cJSON.c ****     copy = (char*) cJSON_strdup((const unsigned char*)valuestring, &global_hooks);
 433:SynaptiX_FDK/services/cJSON/cJSON.c ****     if (copy == NULL)
 434:SynaptiX_FDK/services/cJSON/cJSON.c ****     {
 435:SynaptiX_FDK/services/cJSON/cJSON.c ****         return NULL;
 436:SynaptiX_FDK/services/cJSON/cJSON.c ****     }
 437:SynaptiX_FDK/services/cJSON/cJSON.c ****     if (object->valuestring != NULL)
 438:SynaptiX_FDK/services/cJSON/cJSON.c ****     {
 439:SynaptiX_FDK/services/cJSON/cJSON.c ****         cJSON_free(object->valuestring);
 440:SynaptiX_FDK/services/cJSON/cJSON.c ****     }
 441:SynaptiX_FDK/services/cJSON/cJSON.c ****     object->valuestring = copy;
 442:SynaptiX_FDK/services/cJSON/cJSON.c **** 
 443:SynaptiX_FDK/services/cJSON/cJSON.c ****     return copy;
 444:SynaptiX_FDK/services/cJSON/cJSON.c **** }
 445:SynaptiX_FDK/services/cJSON/cJSON.c **** 
 446:SynaptiX_FDK/services/cJSON/cJSON.c **** typedef struct
 447:SynaptiX_FDK/services/cJSON/cJSON.c **** {
 448:SynaptiX_FDK/services/cJSON/cJSON.c ****     unsigned char *buffer;
 449:SynaptiX_FDK/services/cJSON/cJSON.c ****     size_t length;
 450:SynaptiX_FDK/services/cJSON/cJSON.c ****     size_t offset;
 451:SynaptiX_FDK/services/cJSON/cJSON.c ****     size_t depth; /* current nesting depth (for formatted printing) */
 452:SynaptiX_FDK/services/cJSON/cJSON.c ****     cJSON_bool noalloc;
 453:SynaptiX_FDK/services/cJSON/cJSON.c ****     cJSON_bool format; /* is this print a formatted print */
 454:SynaptiX_FDK/services/cJSON/cJSON.c ****     internal_hooks hooks;
 455:SynaptiX_FDK/services/cJSON/cJSON.c **** } printbuffer;
 456:SynaptiX_FDK/services/cJSON/cJSON.c **** 
 457:SynaptiX_FDK/services/cJSON/cJSON.c **** /* realloc printbuffer if necessary to have at least "needed" bytes more */
 458:SynaptiX_FDK/services/cJSON/cJSON.c **** static unsigned char* ensure(printbuffer * const p, size_t needed)
 459:SynaptiX_FDK/services/cJSON/cJSON.c **** {
 460:SynaptiX_FDK/services/cJSON/cJSON.c ****     unsigned char *newbuffer = NULL;
 461:SynaptiX_FDK/services/cJSON/cJSON.c ****     size_t newsize = 0;
 462:SynaptiX_FDK/services/cJSON/cJSON.c **** 
 463:SynaptiX_FDK/services/cJSON/cJSON.c ****     if ((p == NULL) || (p->buffer == NULL))
 464:SynaptiX_FDK/services/cJSON/cJSON.c ****     {
 465:SynaptiX_FDK/services/cJSON/cJSON.c ****         return NULL;
 466:SynaptiX_FDK/services/cJSON/cJSON.c ****     }
 467:SynaptiX_FDK/services/cJSON/cJSON.c **** 
 468:SynaptiX_FDK/services/cJSON/cJSON.c ****     if ((p->length > 0) && (p->offset >= p->length))
 469:SynaptiX_FDK/services/cJSON/cJSON.c ****     {
 470:SynaptiX_FDK/services/cJSON/cJSON.c ****         /* make sure that offset is valid */
 471:SynaptiX_FDK/services/cJSON/cJSON.c ****         return NULL;
 472:SynaptiX_FDK/services/cJSON/cJSON.c ****     }
 473:SynaptiX_FDK/services/cJSON/cJSON.c **** 
ARM GAS  C:\Users\DELL\AppData\Local\Temp\ccXjhdgA.s 			page 13


 474:SynaptiX_FDK/services/cJSON/cJSON.c ****     if (needed > INT_MAX)
 475:SynaptiX_FDK/services/cJSON/cJSON.c ****     {
 476:SynaptiX_FDK/services/cJSON/cJSON.c ****         /* sizes bigger than INT_MAX are currently not supported */
 477:SynaptiX_FDK/services/cJSON/cJSON.c ****         return NULL;
 478:SynaptiX_FDK/services/cJSON/cJSON.c ****     }
 479:SynaptiX_FDK/services/cJSON/cJSON.c **** 
 480:SynaptiX_FDK/services/cJSON/cJSON.c ****     needed += p->offset + 1;
 481:SynaptiX_FDK/services/cJSON/cJSON.c ****     if (needed <= p->length)
 482:SynaptiX_FDK/services/cJSON/cJSON.c ****     {
 483:SynaptiX_FDK/services/cJSON/cJSON.c ****         return p->buffer + p->offset;
 484:SynaptiX_FDK/services/cJSON/cJSON.c ****     }
 485:SynaptiX_FDK/services/cJSON/cJSON.c **** 
 486:SynaptiX_FDK/services/cJSON/cJSON.c ****     if (p->noalloc) {
 487:SynaptiX_FDK/services/cJSON/cJSON.c ****         return NULL;
 488:SynaptiX_FDK/services/cJSON/cJSON.c ****     }
 489:SynaptiX_FDK/services/cJSON/cJSON.c **** 
 490:SynaptiX_FDK/services/cJSON/cJSON.c ****     /* calculate new buffer size */
 491:SynaptiX_FDK/services/cJSON/cJSON.c ****     if (needed > (INT_MAX / 2))
 492:SynaptiX_FDK/services/cJSON/cJSON.c ****     {
 493:SynaptiX_FDK/services/cJSON/cJSON.c ****         /* overflow of int, use INT_MAX if possible */
 494:SynaptiX_FDK/services/cJSON/cJSON.c ****         if (needed <= INT_MAX)
 495:SynaptiX_FDK/services/cJSON/cJSON.c ****         {
 496:SynaptiX_FDK/services/cJSON/cJSON.c ****             newsize = INT_MAX;
 497:SynaptiX_FDK/services/cJSON/cJSON.c ****         }
 498:SynaptiX_FDK/services/cJSON/cJSON.c ****         else
 499:SynaptiX_FDK/services/cJSON/cJSON.c ****         {
 500:SynaptiX_FDK/services/cJSON/cJSON.c ****             return NULL;
 501:SynaptiX_FDK/services/cJSON/cJSON.c ****         }
 502:SynaptiX_FDK/services/cJSON/cJSON.c ****     }
 503:SynaptiX_FDK/services/cJSON/cJSON.c ****     else
 504:SynaptiX_FDK/services/cJSON/cJSON.c ****     {
 505:SynaptiX_FDK/services/cJSON/cJSON.c ****         newsize = needed * 2;
 506:SynaptiX_FDK/services/cJSON/cJSON.c ****     }
 507:SynaptiX_FDK/services/cJSON/cJSON.c **** 
 508:SynaptiX_FDK/services/cJSON/cJSON.c ****     if (p->hooks.reallocate != NULL)
 509:SynaptiX_FDK/services/cJSON/cJSON.c ****     {
 510:SynaptiX_FDK/services/cJSON/cJSON.c ****         /* reallocate with realloc if available */
 511:SynaptiX_FDK/services/cJSON/cJSON.c ****         newbuffer = (unsigned char*)p->hooks.reallocate(p->buffer, newsize);
 512:SynaptiX_FDK/services/cJSON/cJSON.c ****         if (newbuffer == NULL)
 513:SynaptiX_FDK/services/cJSON/cJSON.c ****         {
 514:SynaptiX_FDK/services/cJSON/cJSON.c ****             p->hooks.deallocate(p->buffer);
 515:SynaptiX_FDK/services/cJSON/cJSON.c ****             p->length = 0;
 516:SynaptiX_FDK/services/cJSON/cJSON.c ****             p->buffer = NULL;
 517:SynaptiX_FDK/services/cJSON/cJSON.c **** 
 518:SynaptiX_FDK/services/cJSON/cJSON.c ****             return NULL;
 519:SynaptiX_FDK/services/cJSON/cJSON.c ****         }
 520:SynaptiX_FDK/services/cJSON/cJSON.c ****     }
 521:SynaptiX_FDK/services/cJSON/cJSON.c ****     else
 522:SynaptiX_FDK/services/cJSON/cJSON.c ****     {
 523:SynaptiX_FDK/services/cJSON/cJSON.c ****         /* otherwise reallocate manually */
 524:SynaptiX_FDK/services/cJSON/cJSON.c ****         newbuffer = (unsigned char*)p->hooks.allocate(newsize);
 525:SynaptiX_FDK/services/cJSON/cJSON.c ****         if (!newbuffer)
 526:SynaptiX_FDK/services/cJSON/cJSON.c ****         {
 527:SynaptiX_FDK/services/cJSON/cJSON.c ****             p->hooks.deallocate(p->buffer);
 528:SynaptiX_FDK/services/cJSON/cJSON.c ****             p->length = 0;
 529:SynaptiX_FDK/services/cJSON/cJSON.c ****             p->buffer = NULL;
 530:SynaptiX_FDK/services/cJSON/cJSON.c **** 
ARM GAS  C:\Users\DELL\AppData\Local\Temp\ccXjhdgA.s 			page 14


 531:SynaptiX_FDK/services/cJSON/cJSON.c ****             return NULL;
 532:SynaptiX_FDK/services/cJSON/cJSON.c ****         }
 533:SynaptiX_FDK/services/cJSON/cJSON.c **** 
 534:SynaptiX_FDK/services/cJSON/cJSON.c ****         memcpy(newbuffer, p->buffer, p->offset + 1);
 535:SynaptiX_FDK/services/cJSON/cJSON.c ****         p->hooks.deallocate(p->buffer);
 536:SynaptiX_FDK/services/cJSON/cJSON.c ****     }
 537:SynaptiX_FDK/services/cJSON/cJSON.c ****     p->length = newsize;
 538:SynaptiX_FDK/services/cJSON/cJSON.c ****     p->buffer = newbuffer;
 539:SynaptiX_FDK/services/cJSON/cJSON.c **** 
 540:SynaptiX_FDK/services/cJSON/cJSON.c ****     return newbuffer + p->offset;
 541:SynaptiX_FDK/services/cJSON/cJSON.c **** }
 542:SynaptiX_FDK/services/cJSON/cJSON.c **** 
 543:SynaptiX_FDK/services/cJSON/cJSON.c **** /* calculate the new length of the string in a printbuffer and update the offset */
 544:SynaptiX_FDK/services/cJSON/cJSON.c **** static void update_offset(printbuffer * const buffer)
 545:SynaptiX_FDK/services/cJSON/cJSON.c **** {
 546:SynaptiX_FDK/services/cJSON/cJSON.c ****     const unsigned char *buffer_pointer = NULL;
 547:SynaptiX_FDK/services/cJSON/cJSON.c ****     if ((buffer == NULL) || (buffer->buffer == NULL))
 548:SynaptiX_FDK/services/cJSON/cJSON.c ****     {
 549:SynaptiX_FDK/services/cJSON/cJSON.c ****         return;
 550:SynaptiX_FDK/services/cJSON/cJSON.c ****     }
 551:SynaptiX_FDK/services/cJSON/cJSON.c ****     buffer_pointer = buffer->buffer + buffer->offset;
 552:SynaptiX_FDK/services/cJSON/cJSON.c **** 
 553:SynaptiX_FDK/services/cJSON/cJSON.c ****     buffer->offset += strlen((const char*)buffer_pointer);
 554:SynaptiX_FDK/services/cJSON/cJSON.c **** }
 555:SynaptiX_FDK/services/cJSON/cJSON.c **** 
 556:SynaptiX_FDK/services/cJSON/cJSON.c **** /* securely comparison of floating-point variables */
 557:SynaptiX_FDK/services/cJSON/cJSON.c **** static cJSON_bool compare_double(double a, double b)
 558:SynaptiX_FDK/services/cJSON/cJSON.c **** {
 193              		.loc 1 558 1 is_stmt 1 view -0
 194              		.cfi_startproc
 195              		@ args = 0, pretend = 0, frame = 0
 196              		@ frame_needed = 0, uses_anonymous_args = 0
 197              		.loc 1 558 1 is_stmt 0 view .LVU47
 198 0000 2DE9F84F 		push	{r3, r4, r5, r6, r7, r8, r9, r10, fp, lr}
 199              	.LCFI3:
 200              		.cfi_def_cfa_offset 40
 201              		.cfi_offset 3, -40
 202              		.cfi_offset 4, -36
 203              		.cfi_offset 5, -32
 204              		.cfi_offset 6, -28
 205              		.cfi_offset 7, -24
 206              		.cfi_offset 8, -20
 207              		.cfi_offset 9, -16
 208              		.cfi_offset 10, -12
 209              		.cfi_offset 11, -8
 210              		.cfi_offset 14, -4
 211 0004 5BEC10AB 		vmov	r10, fp, d0
 212 0008 55EC114B 		vmov	r4, r5, d1
 559:SynaptiX_FDK/services/cJSON/cJSON.c ****     double maxVal = fabs(a) > fabs(b) ? fabs(a) : fabs(b);
 213              		.loc 1 559 5 is_stmt 1 view .LVU48
 214              		.loc 1 559 21 is_stmt 0 view .LVU49
 215 000c 2BF00049 		bic	r9, fp, #-2147483648
 216              		.loc 1 559 31 view .LVU50
 217 0010 2646     		mov	r6, r4
 218 0012 25F00047 		bic	r7, r5, #-2147483648
 219              		.loc 1 559 49 view .LVU51
 220 0016 2246     		mov	r2, r4
ARM GAS  C:\Users\DELL\AppData\Local\Temp\ccXjhdgA.s 			page 15


 221 0018 3B46     		mov	r3, r7
 222 001a 5046     		mov	r0, r10
 223 001c 4946     		mov	r1, r9
 224 001e FFF7FEFF 		bl	__aeabi_dcmpgt
 225              	.LVL19:
 226              		.loc 1 559 49 view .LVU52
 227 0022 08B1     		cbz	r0, .L23
 228              		.loc 1 559 49 discriminator 1 view .LVU53
 229 0024 5646     		mov	r6, r10
 230 0026 4F46     		mov	r7, r9
 231              	.L23:
 232              	.LVL20:
 560:SynaptiX_FDK/services/cJSON/cJSON.c ****     return (fabs(a - b) <= maxVal * DBL_EPSILON);
 233              		.loc 1 560 5 is_stmt 1 view .LVU54
 234              		.loc 1 560 20 is_stmt 0 view .LVU55
 235 0028 2246     		mov	r2, r4
 236 002a 2B46     		mov	r3, r5
 237 002c 5046     		mov	r0, r10
 238 002e 5946     		mov	r1, fp
 239 0030 FFF7FEFF 		bl	__aeabi_dsub
 240              	.LVL21:
 241              		.loc 1 560 13 view .LVU56
 242 0034 0446     		mov	r4, r0
 243              	.LVL22:
 244              		.loc 1 560 13 view .LVU57
 245 0036 21F00045 		bic	r5, r1, #-2147483648
 246              		.loc 1 560 35 view .LVU58
 247 003a 0022     		movs	r2, #0
 248 003c 084B     		ldr	r3, .L28
 249 003e 3046     		mov	r0, r6
 250 0040 3946     		mov	r1, r7
 251 0042 FFF7FEFF 		bl	__aeabi_dmul
 252              	.LVL23:
 253 0046 0246     		mov	r2, r0
 254 0048 0B46     		mov	r3, r1
 255              		.loc 1 560 25 view .LVU59
 256 004a 0126     		movs	r6, #1
 257              	.LVL24:
 258              		.loc 1 560 25 view .LVU60
 259 004c 2046     		mov	r0, r4
 260 004e 2946     		mov	r1, r5
 261 0050 FFF7FEFF 		bl	__aeabi_dcmple
 262              	.LVL25:
 263 0054 00B9     		cbnz	r0, .L25
 264 0056 0026     		movs	r6, #0
 265              	.L25:
 561:SynaptiX_FDK/services/cJSON/cJSON.c **** }
 266              		.loc 1 561 1 view .LVU61
 267 0058 3046     		mov	r0, r6
 268 005a BDE8F88F 		pop	{r3, r4, r5, r6, r7, r8, r9, r10, fp, pc}
 269              	.LVL26:
 270              	.L29:
 271              		.loc 1 561 1 view .LVU62
 272 005e 00BF     		.align	2
 273              	.L28:
 274 0060 0000B03C 		.word	1018167296
 275              		.cfi_endproc
ARM GAS  C:\Users\DELL\AppData\Local\Temp\ccXjhdgA.s 			page 16


 276              	.LFE19:
 278              		.section	.text.parse_hex4,"ax",%progbits
 279              		.align	1
 280              		.syntax unified
 281              		.thumb
 282              		.thumb_func
 284              	parse_hex4:
 285              	.LVL27:
 286              	.LFB21:
 562:SynaptiX_FDK/services/cJSON/cJSON.c **** 
 563:SynaptiX_FDK/services/cJSON/cJSON.c **** /* Render the number nicely from the given item into a string. */
 564:SynaptiX_FDK/services/cJSON/cJSON.c **** static cJSON_bool print_number(const cJSON * const item, printbuffer * const output_buffer)
 565:SynaptiX_FDK/services/cJSON/cJSON.c **** {
 566:SynaptiX_FDK/services/cJSON/cJSON.c ****     unsigned char *output_pointer = NULL;
 567:SynaptiX_FDK/services/cJSON/cJSON.c ****     double d = item->valuedouble;
 568:SynaptiX_FDK/services/cJSON/cJSON.c ****     int length = 0;
 569:SynaptiX_FDK/services/cJSON/cJSON.c ****     size_t i = 0;
 570:SynaptiX_FDK/services/cJSON/cJSON.c ****     unsigned char number_buffer[26] = {0}; /* temporary buffer to print the number into */
 571:SynaptiX_FDK/services/cJSON/cJSON.c ****     unsigned char decimal_point = get_decimal_point();
 572:SynaptiX_FDK/services/cJSON/cJSON.c ****     double test = 0.0;
 573:SynaptiX_FDK/services/cJSON/cJSON.c **** 
 574:SynaptiX_FDK/services/cJSON/cJSON.c ****     if (output_buffer == NULL)
 575:SynaptiX_FDK/services/cJSON/cJSON.c ****     {
 576:SynaptiX_FDK/services/cJSON/cJSON.c ****         return false;
 577:SynaptiX_FDK/services/cJSON/cJSON.c ****     }
 578:SynaptiX_FDK/services/cJSON/cJSON.c **** 
 579:SynaptiX_FDK/services/cJSON/cJSON.c ****     /* This checks for NaN and Infinity */
 580:SynaptiX_FDK/services/cJSON/cJSON.c ****     if (isnan(d) || isinf(d))
 581:SynaptiX_FDK/services/cJSON/cJSON.c ****     {
 582:SynaptiX_FDK/services/cJSON/cJSON.c ****         length = sprintf((char*)number_buffer, "null");
 583:SynaptiX_FDK/services/cJSON/cJSON.c ****     }
 584:SynaptiX_FDK/services/cJSON/cJSON.c ****     else if(d == (double)item->valueint)
 585:SynaptiX_FDK/services/cJSON/cJSON.c ****     {
 586:SynaptiX_FDK/services/cJSON/cJSON.c ****         length = sprintf((char*)number_buffer, "%d", item->valueint);
 587:SynaptiX_FDK/services/cJSON/cJSON.c ****     }
 588:SynaptiX_FDK/services/cJSON/cJSON.c ****     else
 589:SynaptiX_FDK/services/cJSON/cJSON.c ****     {
 590:SynaptiX_FDK/services/cJSON/cJSON.c ****         /* Try 15 decimal places of precision to avoid nonsignificant nonzero digits */
 591:SynaptiX_FDK/services/cJSON/cJSON.c ****         length = sprintf((char*)number_buffer, "%.4f", d);
 592:SynaptiX_FDK/services/cJSON/cJSON.c **** 
 593:SynaptiX_FDK/services/cJSON/cJSON.c ****         /* Check whether the original double can be recovered */
 594:SynaptiX_FDK/services/cJSON/cJSON.c ****         if ((sscanf((char*)number_buffer, "%lg", &test) != 1) || !compare_double((double)test, d))
 595:SynaptiX_FDK/services/cJSON/cJSON.c ****         {
 596:SynaptiX_FDK/services/cJSON/cJSON.c ****             /* If not, print with 17 decimal places of precision */
 597:SynaptiX_FDK/services/cJSON/cJSON.c ****             length = sprintf((char*)number_buffer, "%.4f", d);
 598:SynaptiX_FDK/services/cJSON/cJSON.c ****         }
 599:SynaptiX_FDK/services/cJSON/cJSON.c ****     }
 600:SynaptiX_FDK/services/cJSON/cJSON.c **** 
 601:SynaptiX_FDK/services/cJSON/cJSON.c ****     /* sprintf failed or buffer overrun occurred */
 602:SynaptiX_FDK/services/cJSON/cJSON.c ****     if ((length < 0) || (length > (int)(sizeof(number_buffer) - 1)))
 603:SynaptiX_FDK/services/cJSON/cJSON.c ****     {
 604:SynaptiX_FDK/services/cJSON/cJSON.c ****         return false;
 605:SynaptiX_FDK/services/cJSON/cJSON.c ****     }
 606:SynaptiX_FDK/services/cJSON/cJSON.c **** 
 607:SynaptiX_FDK/services/cJSON/cJSON.c ****     /* reserve appropriate space in the output */
 608:SynaptiX_FDK/services/cJSON/cJSON.c ****     output_pointer = ensure(output_buffer, (size_t)length + sizeof(""));
 609:SynaptiX_FDK/services/cJSON/cJSON.c ****     if (output_pointer == NULL)
ARM GAS  C:\Users\DELL\AppData\Local\Temp\ccXjhdgA.s 			page 17


 610:SynaptiX_FDK/services/cJSON/cJSON.c ****     {
 611:SynaptiX_FDK/services/cJSON/cJSON.c ****         return false;
 612:SynaptiX_FDK/services/cJSON/cJSON.c ****     }
 613:SynaptiX_FDK/services/cJSON/cJSON.c **** 
 614:SynaptiX_FDK/services/cJSON/cJSON.c ****     /* copy the printed number to the output and replace locale
 615:SynaptiX_FDK/services/cJSON/cJSON.c ****      * dependent decimal point with '.' */
 616:SynaptiX_FDK/services/cJSON/cJSON.c ****     for (i = 0; i < ((size_t)length); i++)
 617:SynaptiX_FDK/services/cJSON/cJSON.c ****     {
 618:SynaptiX_FDK/services/cJSON/cJSON.c ****         if (number_buffer[i] == decimal_point)
 619:SynaptiX_FDK/services/cJSON/cJSON.c ****         {
 620:SynaptiX_FDK/services/cJSON/cJSON.c ****             output_pointer[i] = '.';
 621:SynaptiX_FDK/services/cJSON/cJSON.c ****             continue;
 622:SynaptiX_FDK/services/cJSON/cJSON.c ****         }
 623:SynaptiX_FDK/services/cJSON/cJSON.c **** 
 624:SynaptiX_FDK/services/cJSON/cJSON.c ****         output_pointer[i] = number_buffer[i];
 625:SynaptiX_FDK/services/cJSON/cJSON.c ****     }
 626:SynaptiX_FDK/services/cJSON/cJSON.c ****     output_pointer[i] = '\0';
 627:SynaptiX_FDK/services/cJSON/cJSON.c **** 
 628:SynaptiX_FDK/services/cJSON/cJSON.c ****     output_buffer->offset += (size_t)length;
 629:SynaptiX_FDK/services/cJSON/cJSON.c **** 
 630:SynaptiX_FDK/services/cJSON/cJSON.c ****     return true;
 631:SynaptiX_FDK/services/cJSON/cJSON.c **** }
 632:SynaptiX_FDK/services/cJSON/cJSON.c **** 
 633:SynaptiX_FDK/services/cJSON/cJSON.c **** /* parse 4 digit hexadecimal number */
 634:SynaptiX_FDK/services/cJSON/cJSON.c **** static unsigned parse_hex4(const unsigned char * const input)
 635:SynaptiX_FDK/services/cJSON/cJSON.c **** {
 287              		.loc 1 635 1 is_stmt 1 view -0
 288              		.cfi_startproc
 289              		@ args = 0, pretend = 0, frame = 0
 290              		@ frame_needed = 0, uses_anonymous_args = 0
 291              		@ link register save eliminated.
 292              		.loc 1 635 1 is_stmt 0 view .LVU64
 293 0000 8446     		mov	ip, r0
 636:SynaptiX_FDK/services/cJSON/cJSON.c ****     unsigned int h = 0;
 294              		.loc 1 636 5 is_stmt 1 view .LVU65
 295              	.LVL28:
 637:SynaptiX_FDK/services/cJSON/cJSON.c ****     size_t i = 0;
 296              		.loc 1 637 5 view .LVU66
 638:SynaptiX_FDK/services/cJSON/cJSON.c **** 
 639:SynaptiX_FDK/services/cJSON/cJSON.c ****     for (i = 0; i < 4; i++)
 297              		.loc 1 639 5 view .LVU67
 298              		.loc 1 639 12 is_stmt 0 view .LVU68
 299 0002 0022     		movs	r2, #0
 636:SynaptiX_FDK/services/cJSON/cJSON.c ****     size_t i = 0;
 300              		.loc 1 636 18 view .LVU69
 301 0004 1046     		mov	r0, r2
 302              	.LVL29:
 303              		.loc 1 639 5 view .LVU70
 304 0006 0BE0     		b	.L31
 305              	.LVL30:
 306              	.L32:
 640:SynaptiX_FDK/services/cJSON/cJSON.c ****     {
 641:SynaptiX_FDK/services/cJSON/cJSON.c ****         /* parse digit */
 642:SynaptiX_FDK/services/cJSON/cJSON.c ****         if ((input[i] >= '0') && (input[i] <= '9'))
 643:SynaptiX_FDK/services/cJSON/cJSON.c ****         {
 644:SynaptiX_FDK/services/cJSON/cJSON.c ****             h += (unsigned int) input[i] - '0';
 645:SynaptiX_FDK/services/cJSON/cJSON.c ****         }
ARM GAS  C:\Users\DELL\AppData\Local\Temp\ccXjhdgA.s 			page 18


 646:SynaptiX_FDK/services/cJSON/cJSON.c ****         else if ((input[i] >= 'A') && (input[i] <= 'F'))
 307              		.loc 1 646 14 is_stmt 1 view .LVU71
 308              		.loc 1 646 36 is_stmt 0 view .LVU72
 309 0008 A1F14103 		sub	r3, r1, #65
 310 000c DBB2     		uxtb	r3, r3
 311              		.loc 1 646 17 view .LVU73
 312 000e 052B     		cmp	r3, #5
 313 0010 12D8     		bhi	.L34
 647:SynaptiX_FDK/services/cJSON/cJSON.c ****         {
 648:SynaptiX_FDK/services/cJSON/cJSON.c ****             h += (unsigned int) 10 + input[i] - 'A';
 314              		.loc 1 648 13 is_stmt 1 view .LVU74
 315              		.loc 1 648 15 is_stmt 0 view .LVU75
 316 0012 0B18     		adds	r3, r1, r0
 317 0014 A3F13700 		sub	r0, r3, #55
 318              	.LVL31:
 319              	.L33:
 649:SynaptiX_FDK/services/cJSON/cJSON.c ****         }
 650:SynaptiX_FDK/services/cJSON/cJSON.c ****         else if ((input[i] >= 'a') && (input[i] <= 'f'))
 651:SynaptiX_FDK/services/cJSON/cJSON.c ****         {
 652:SynaptiX_FDK/services/cJSON/cJSON.c ****             h += (unsigned int) 10 + input[i] - 'a';
 653:SynaptiX_FDK/services/cJSON/cJSON.c ****         }
 654:SynaptiX_FDK/services/cJSON/cJSON.c ****         else /* invalid */
 655:SynaptiX_FDK/services/cJSON/cJSON.c ****         {
 656:SynaptiX_FDK/services/cJSON/cJSON.c ****             return 0;
 657:SynaptiX_FDK/services/cJSON/cJSON.c ****         }
 658:SynaptiX_FDK/services/cJSON/cJSON.c **** 
 659:SynaptiX_FDK/services/cJSON/cJSON.c ****         if (i < 3)
 320              		.loc 1 659 9 is_stmt 1 view .LVU76
 321              		.loc 1 659 12 is_stmt 0 view .LVU77
 322 0018 022A     		cmp	r2, #2
 323 001a 00D8     		bhi	.L36
 660:SynaptiX_FDK/services/cJSON/cJSON.c ****         {
 661:SynaptiX_FDK/services/cJSON/cJSON.c ****             /* shift left to make place for the next nibble */
 662:SynaptiX_FDK/services/cJSON/cJSON.c ****             h = h << 4;
 324              		.loc 1 662 13 is_stmt 1 view .LVU78
 325              		.loc 1 662 15 is_stmt 0 view .LVU79
 326 001c 0001     		lsls	r0, r0, #4
 327              	.LVL32:
 328              	.L36:
 639:SynaptiX_FDK/services/cJSON/cJSON.c ****     {
 329              		.loc 1 639 25 is_stmt 1 discriminator 2 view .LVU80
 330 001e 0132     		adds	r2, r2, #1
 331              	.LVL33:
 332              	.L31:
 639:SynaptiX_FDK/services/cJSON/cJSON.c ****     {
 333              		.loc 1 639 19 discriminator 1 view .LVU81
 334 0020 032A     		cmp	r2, #3
 335 0022 12D8     		bhi	.L39
 642:SynaptiX_FDK/services/cJSON/cJSON.c ****         {
 336              		.loc 1 642 9 view .LVU82
 642:SynaptiX_FDK/services/cJSON/cJSON.c ****         {
 337              		.loc 1 642 19 is_stmt 0 view .LVU83
 338 0024 1CF80210 		ldrb	r1, [ip, r2]	@ zero_extendqisi2
 642:SynaptiX_FDK/services/cJSON/cJSON.c ****         {
 339              		.loc 1 642 31 view .LVU84
 340 0028 A1F13003 		sub	r3, r1, #48
 341 002c DBB2     		uxtb	r3, r3
ARM GAS  C:\Users\DELL\AppData\Local\Temp\ccXjhdgA.s 			page 19


 642:SynaptiX_FDK/services/cJSON/cJSON.c ****         {
 342              		.loc 1 642 12 view .LVU85
 343 002e 092B     		cmp	r3, #9
 344 0030 EAD8     		bhi	.L32
 644:SynaptiX_FDK/services/cJSON/cJSON.c ****         }
 345              		.loc 1 644 13 is_stmt 1 view .LVU86
 644:SynaptiX_FDK/services/cJSON/cJSON.c ****         }
 346              		.loc 1 644 15 is_stmt 0 view .LVU87
 347 0032 0844     		add	r0, r0, r1
 348              	.LVL34:
 644:SynaptiX_FDK/services/cJSON/cJSON.c ****         }
 349              		.loc 1 644 15 view .LVU88
 350 0034 3038     		subs	r0, r0, #48
 351              	.LVL35:
 644:SynaptiX_FDK/services/cJSON/cJSON.c ****         }
 352              		.loc 1 644 15 view .LVU89
 353 0036 EFE7     		b	.L33
 354              	.L34:
 650:SynaptiX_FDK/services/cJSON/cJSON.c ****         {
 355              		.loc 1 650 14 is_stmt 1 view .LVU90
 650:SynaptiX_FDK/services/cJSON/cJSON.c ****         {
 356              		.loc 1 650 36 is_stmt 0 view .LVU91
 357 0038 A1F16103 		sub	r3, r1, #97
 358 003c DBB2     		uxtb	r3, r3
 650:SynaptiX_FDK/services/cJSON/cJSON.c ****         {
 359              		.loc 1 650 17 view .LVU92
 360 003e 052B     		cmp	r3, #5
 361 0040 04D8     		bhi	.L38
 652:SynaptiX_FDK/services/cJSON/cJSON.c ****         }
 362              		.loc 1 652 13 is_stmt 1 view .LVU93
 652:SynaptiX_FDK/services/cJSON/cJSON.c ****         }
 363              		.loc 1 652 15 is_stmt 0 view .LVU94
 364 0042 0B18     		adds	r3, r1, r0
 365 0044 A3F15700 		sub	r0, r3, #87
 366              	.LVL36:
 652:SynaptiX_FDK/services/cJSON/cJSON.c ****         }
 367              		.loc 1 652 15 view .LVU95
 368 0048 E6E7     		b	.L33
 369              	.LVL37:
 370              	.L39:
 652:SynaptiX_FDK/services/cJSON/cJSON.c ****         }
 371              		.loc 1 652 15 view .LVU96
 372 004a 7047     		bx	lr
 373              	.L38:
 656:SynaptiX_FDK/services/cJSON/cJSON.c ****         }
 374              		.loc 1 656 20 view .LVU97
 375 004c 0020     		movs	r0, #0
 376              	.LVL38:
 663:SynaptiX_FDK/services/cJSON/cJSON.c ****         }
 664:SynaptiX_FDK/services/cJSON/cJSON.c ****     }
 665:SynaptiX_FDK/services/cJSON/cJSON.c **** 
 666:SynaptiX_FDK/services/cJSON/cJSON.c ****     return h;
 667:SynaptiX_FDK/services/cJSON/cJSON.c **** }
 377              		.loc 1 667 1 view .LVU98
 378 004e 7047     		bx	lr
 379              		.cfi_endproc
 380              	.LFE21:
ARM GAS  C:\Users\DELL\AppData\Local\Temp\ccXjhdgA.s 			page 20


 382              		.section	.text.utf16_literal_to_utf8,"ax",%progbits
 383              		.align	1
 384              		.syntax unified
 385              		.thumb
 386              		.thumb_func
 388              	utf16_literal_to_utf8:
 389              	.LVL39:
 390              	.LFB22:
 668:SynaptiX_FDK/services/cJSON/cJSON.c **** 
 669:SynaptiX_FDK/services/cJSON/cJSON.c **** /* converts a UTF-16 literal to UTF-8
 670:SynaptiX_FDK/services/cJSON/cJSON.c ****  * A literal can be one or two sequences of the form \uXXXX */
 671:SynaptiX_FDK/services/cJSON/cJSON.c **** static unsigned char utf16_literal_to_utf8(const unsigned char * const input_pointer, const unsigne
 672:SynaptiX_FDK/services/cJSON/cJSON.c **** {
 391              		.loc 1 672 1 is_stmt 1 view -0
 392              		.cfi_startproc
 393              		@ args = 0, pretend = 0, frame = 0
 394              		@ frame_needed = 0, uses_anonymous_args = 0
 395              		.loc 1 672 1 is_stmt 0 view .LVU100
 396 0000 F8B5     		push	{r3, r4, r5, r6, r7, lr}
 397              	.LCFI4:
 398              		.cfi_def_cfa_offset 24
 399              		.cfi_offset 3, -24
 400              		.cfi_offset 4, -20
 401              		.cfi_offset 5, -16
 402              		.cfi_offset 6, -12
 403              		.cfi_offset 7, -8
 404              		.cfi_offset 14, -4
 673:SynaptiX_FDK/services/cJSON/cJSON.c ****     long unsigned int codepoint = 0;
 405              		.loc 1 673 5 is_stmt 1 view .LVU101
 406              	.LVL40:
 674:SynaptiX_FDK/services/cJSON/cJSON.c ****     unsigned int first_code = 0;
 407              		.loc 1 674 5 view .LVU102
 675:SynaptiX_FDK/services/cJSON/cJSON.c ****     const unsigned char *first_sequence = input_pointer;
 408              		.loc 1 675 5 view .LVU103
 676:SynaptiX_FDK/services/cJSON/cJSON.c ****     unsigned char utf8_length = 0;
 409              		.loc 1 676 5 view .LVU104
 677:SynaptiX_FDK/services/cJSON/cJSON.c ****     unsigned char utf8_position = 0;
 410              		.loc 1 677 5 view .LVU105
 678:SynaptiX_FDK/services/cJSON/cJSON.c ****     unsigned char sequence_length = 0;
 411              		.loc 1 678 5 view .LVU106
 679:SynaptiX_FDK/services/cJSON/cJSON.c ****     unsigned char first_byte_mark = 0;
 412              		.loc 1 679 5 view .LVU107
 680:SynaptiX_FDK/services/cJSON/cJSON.c **** 
 681:SynaptiX_FDK/services/cJSON/cJSON.c ****     if ((input_end - first_sequence) < 6)
 413              		.loc 1 681 5 view .LVU108
 414              		.loc 1 681 20 is_stmt 0 view .LVU109
 415 0002 0B1A     		subs	r3, r1, r0
 416              		.loc 1 681 8 view .LVU110
 417 0004 052B     		cmp	r3, #5
 418 0006 61DD     		ble	.L49
 419 0008 0646     		mov	r6, r0
 420 000a 0F46     		mov	r7, r1
 421 000c 1546     		mov	r5, r2
 682:SynaptiX_FDK/services/cJSON/cJSON.c ****     {
 683:SynaptiX_FDK/services/cJSON/cJSON.c ****         /* input ends unexpectedly */
 684:SynaptiX_FDK/services/cJSON/cJSON.c ****         goto fail;
 685:SynaptiX_FDK/services/cJSON/cJSON.c ****     }
ARM GAS  C:\Users\DELL\AppData\Local\Temp\ccXjhdgA.s 			page 21


 686:SynaptiX_FDK/services/cJSON/cJSON.c **** 
 687:SynaptiX_FDK/services/cJSON/cJSON.c ****     /* get the first utf16 sequence */
 688:SynaptiX_FDK/services/cJSON/cJSON.c ****     first_code = parse_hex4(first_sequence + 2);
 422              		.loc 1 688 5 is_stmt 1 view .LVU111
 423              		.loc 1 688 18 is_stmt 0 view .LVU112
 424 000e 0230     		adds	r0, r0, #2
 425              	.LVL41:
 426              		.loc 1 688 18 view .LVU113
 427 0010 FFF7FEFF 		bl	parse_hex4
 428              	.LVL42:
 429              		.loc 1 688 18 view .LVU114
 430 0014 0446     		mov	r4, r0
 431              	.LVL43:
 689:SynaptiX_FDK/services/cJSON/cJSON.c **** 
 690:SynaptiX_FDK/services/cJSON/cJSON.c ****     /* check that the code is valid */
 691:SynaptiX_FDK/services/cJSON/cJSON.c ****     if (((first_code >= 0xDC00) && (first_code <= 0xDFFF)))
 432              		.loc 1 691 5 is_stmt 1 view .LVU115
 433              		.loc 1 691 33 is_stmt 0 view .LVU116
 434 0016 A0F55C43 		sub	r3, r0, #56320
 435              		.loc 1 691 8 view .LVU117
 436 001a B3F5806F 		cmp	r3, #1024
 437 001e 57D3     		bcc	.L50
 692:SynaptiX_FDK/services/cJSON/cJSON.c ****     {
 693:SynaptiX_FDK/services/cJSON/cJSON.c ****         goto fail;
 694:SynaptiX_FDK/services/cJSON/cJSON.c ****     }
 695:SynaptiX_FDK/services/cJSON/cJSON.c **** 
 696:SynaptiX_FDK/services/cJSON/cJSON.c ****     /* UTF16 surrogate pair */
 697:SynaptiX_FDK/services/cJSON/cJSON.c ****     if ((first_code >= 0xD800) && (first_code <= 0xDBFF))
 438              		.loc 1 697 5 is_stmt 1 view .LVU118
 439              		.loc 1 697 32 is_stmt 0 view .LVU119
 440 0020 A0F55843 		sub	r3, r0, #55296
 441              		.loc 1 697 8 view .LVU120
 442 0024 B3F5806F 		cmp	r3, #1024
 443 0028 1CD2     		bcs	.L42
 444              	.LBB5:
 698:SynaptiX_FDK/services/cJSON/cJSON.c ****     {
 699:SynaptiX_FDK/services/cJSON/cJSON.c ****         const unsigned char *second_sequence = first_sequence + 6;
 445              		.loc 1 699 9 is_stmt 1 view .LVU121
 446              		.loc 1 699 30 is_stmt 0 view .LVU122
 447 002a B31D     		adds	r3, r6, #6
 448              	.LVL44:
 700:SynaptiX_FDK/services/cJSON/cJSON.c ****         unsigned int second_code = 0;
 449              		.loc 1 700 9 is_stmt 1 view .LVU123
 701:SynaptiX_FDK/services/cJSON/cJSON.c ****         sequence_length = 12; /* \uXXXX\uXXXX */
 450              		.loc 1 701 9 view .LVU124
 702:SynaptiX_FDK/services/cJSON/cJSON.c **** 
 703:SynaptiX_FDK/services/cJSON/cJSON.c ****         if ((input_end - second_sequence) < 6)
 451              		.loc 1 703 9 view .LVU125
 452              		.loc 1 703 24 is_stmt 0 view .LVU126
 453 002c FF1A     		subs	r7, r7, r3
 454              	.LVL45:
 455              		.loc 1 703 12 view .LVU127
 456 002e 052F     		cmp	r7, #5
 457 0030 50DD     		ble	.L51
 704:SynaptiX_FDK/services/cJSON/cJSON.c ****         {
 705:SynaptiX_FDK/services/cJSON/cJSON.c ****             /* input ends unexpectedly */
 706:SynaptiX_FDK/services/cJSON/cJSON.c ****             goto fail;
ARM GAS  C:\Users\DELL\AppData\Local\Temp\ccXjhdgA.s 			page 22


 707:SynaptiX_FDK/services/cJSON/cJSON.c ****         }
 708:SynaptiX_FDK/services/cJSON/cJSON.c **** 
 709:SynaptiX_FDK/services/cJSON/cJSON.c ****         if ((second_sequence[0] != '\\') || (second_sequence[1] != 'u'))
 458              		.loc 1 709 9 is_stmt 1 view .LVU128
 459              		.loc 1 709 29 is_stmt 0 view .LVU129
 460 0032 B379     		ldrb	r3, [r6, #6]	@ zero_extendqisi2
 461              	.LVL46:
 462              		.loc 1 709 12 view .LVU130
 463 0034 5C2B     		cmp	r3, #92
 464 0036 4FD1     		bne	.L52
 465              		.loc 1 709 61 discriminator 1 view .LVU131
 466 0038 F379     		ldrb	r3, [r6, #7]	@ zero_extendqisi2
 467              		.loc 1 709 42 discriminator 1 view .LVU132
 468 003a 752B     		cmp	r3, #117
 469 003c 4ED1     		bne	.L53
 710:SynaptiX_FDK/services/cJSON/cJSON.c ****         {
 711:SynaptiX_FDK/services/cJSON/cJSON.c ****             /* missing second half of the surrogate pair */
 712:SynaptiX_FDK/services/cJSON/cJSON.c ****             goto fail;
 713:SynaptiX_FDK/services/cJSON/cJSON.c ****         }
 714:SynaptiX_FDK/services/cJSON/cJSON.c **** 
 715:SynaptiX_FDK/services/cJSON/cJSON.c ****         /* get the second utf16 sequence */
 716:SynaptiX_FDK/services/cJSON/cJSON.c ****         second_code = parse_hex4(second_sequence + 2);
 470              		.loc 1 716 9 is_stmt 1 view .LVU133
 471              		.loc 1 716 23 is_stmt 0 view .LVU134
 472 003e 06F10800 		add	r0, r6, #8
 473              	.LVL47:
 474              		.loc 1 716 23 view .LVU135
 475 0042 FFF7FEFF 		bl	parse_hex4
 476              	.LVL48:
 717:SynaptiX_FDK/services/cJSON/cJSON.c ****         /* check that the code is valid */
 718:SynaptiX_FDK/services/cJSON/cJSON.c ****         if ((second_code < 0xDC00) || (second_code > 0xDFFF))
 477              		.loc 1 718 9 is_stmt 1 view .LVU136
 478              		.loc 1 718 36 is_stmt 0 view .LVU137
 479 0046 A0F55C43 		sub	r3, r0, #56320
 480              		.loc 1 718 12 view .LVU138
 481 004a B3F5806F 		cmp	r3, #1024
 482 004e 47D2     		bcs	.L54
 719:SynaptiX_FDK/services/cJSON/cJSON.c ****         {
 720:SynaptiX_FDK/services/cJSON/cJSON.c ****             /* invalid second half of the surrogate pair */
 721:SynaptiX_FDK/services/cJSON/cJSON.c ****             goto fail;
 722:SynaptiX_FDK/services/cJSON/cJSON.c ****         }
 723:SynaptiX_FDK/services/cJSON/cJSON.c **** 
 724:SynaptiX_FDK/services/cJSON/cJSON.c **** 
 725:SynaptiX_FDK/services/cJSON/cJSON.c ****         /* calculate the unicode codepoint from the surrogate pair */
 726:SynaptiX_FDK/services/cJSON/cJSON.c ****         codepoint = 0x10000 + (((first_code & 0x3FF) << 10) | (second_code & 0x3FF));
 483              		.loc 1 726 9 is_stmt 1 view .LVU139
 484              		.loc 1 726 54 is_stmt 0 view .LVU140
 485 0050 254B     		ldr	r3, .L60
 486 0052 03EA8423 		and	r3, r3, r4, lsl #10
 487              		.loc 1 726 76 view .LVU141
 488 0056 C0F30900 		ubfx	r0, r0, #0, #10
 489              	.LVL49:
 490              		.loc 1 726 61 view .LVU142
 491 005a 0343     		orrs	r3, r3, r0
 492              		.loc 1 726 19 view .LVU143
 493 005c 03F58034 		add	r4, r3, #65536
 494              	.LVL50:
ARM GAS  C:\Users\DELL\AppData\Local\Temp\ccXjhdgA.s 			page 23


 495              		.loc 1 726 19 view .LVU144
 496              	.LBE5:
 727:SynaptiX_FDK/services/cJSON/cJSON.c ****     }
 728:SynaptiX_FDK/services/cJSON/cJSON.c ****     else
 729:SynaptiX_FDK/services/cJSON/cJSON.c ****     {
 730:SynaptiX_FDK/services/cJSON/cJSON.c ****         sequence_length = 6; /* \uXXXX */
 731:SynaptiX_FDK/services/cJSON/cJSON.c ****         codepoint = first_code;
 732:SynaptiX_FDK/services/cJSON/cJSON.c ****     }
 733:SynaptiX_FDK/services/cJSON/cJSON.c **** 
 734:SynaptiX_FDK/services/cJSON/cJSON.c ****     /* encode as UTF-8
 735:SynaptiX_FDK/services/cJSON/cJSON.c ****      * takes at maximum 4 bytes to encode:
 736:SynaptiX_FDK/services/cJSON/cJSON.c ****      * 11110xxx 10xxxxxx 10xxxxxx 10xxxxxx */
 737:SynaptiX_FDK/services/cJSON/cJSON.c ****     if (codepoint < 0x80)
 497              		.loc 1 737 5 is_stmt 1 view .LVU145
 498              	.LBB6:
 701:SynaptiX_FDK/services/cJSON/cJSON.c **** 
 499              		.loc 1 701 25 is_stmt 0 view .LVU146
 500 0060 0C20     		movs	r0, #12
 501 0062 02E0     		b	.L43
 502              	.LVL51:
 503              	.L42:
 701:SynaptiX_FDK/services/cJSON/cJSON.c **** 
 504              		.loc 1 701 25 view .LVU147
 505              	.LBE6:
 506              		.loc 1 737 5 is_stmt 1 view .LVU148
 507              		.loc 1 737 8 is_stmt 0 view .LVU149
 508 0064 7F28     		cmp	r0, #127
 509 0066 0CD9     		bls	.L55
 510 0068 0620     		movs	r0, #6
 511              	.LVL52:
 512              	.L43:
 738:SynaptiX_FDK/services/cJSON/cJSON.c ****     {
 739:SynaptiX_FDK/services/cJSON/cJSON.c ****         /* normal ascii, encoding 0xxxxxxx */
 740:SynaptiX_FDK/services/cJSON/cJSON.c ****         utf8_length = 1;
 741:SynaptiX_FDK/services/cJSON/cJSON.c ****     }
 742:SynaptiX_FDK/services/cJSON/cJSON.c ****     else if (codepoint < 0x800)
 513              		.loc 1 742 10 is_stmt 1 view .LVU150
 514              		.loc 1 742 13 is_stmt 0 view .LVU151
 515 006a B4F5006F 		cmp	r4, #2048
 516 006e 0ED3     		bcc	.L56
 743:SynaptiX_FDK/services/cJSON/cJSON.c ****     {
 744:SynaptiX_FDK/services/cJSON/cJSON.c ****         /* two bytes, encoding 110xxxxx 10xxxxxx */
 745:SynaptiX_FDK/services/cJSON/cJSON.c ****         utf8_length = 2;
 746:SynaptiX_FDK/services/cJSON/cJSON.c ****         first_byte_mark = 0xC0; /* 11000000 */
 747:SynaptiX_FDK/services/cJSON/cJSON.c ****     }
 748:SynaptiX_FDK/services/cJSON/cJSON.c ****     else if (codepoint < 0x10000)
 517              		.loc 1 748 10 is_stmt 1 view .LVU152
 518              		.loc 1 748 13 is_stmt 0 view .LVU153
 519 0070 B4F5803F 		cmp	r4, #65536
 520 0074 0ED3     		bcc	.L57
 749:SynaptiX_FDK/services/cJSON/cJSON.c ****     {
 750:SynaptiX_FDK/services/cJSON/cJSON.c ****         /* three bytes, encoding 1110xxxx 10xxxxxx 10xxxxxx */
 751:SynaptiX_FDK/services/cJSON/cJSON.c ****         utf8_length = 3;
 752:SynaptiX_FDK/services/cJSON/cJSON.c ****         first_byte_mark = 0xE0; /* 11100000 */
 753:SynaptiX_FDK/services/cJSON/cJSON.c ****     }
 754:SynaptiX_FDK/services/cJSON/cJSON.c ****     else if (codepoint <= 0x10FFFF)
 521              		.loc 1 754 10 is_stmt 1 view .LVU154
ARM GAS  C:\Users\DELL\AppData\Local\Temp\ccXjhdgA.s 			page 24


 522              		.loc 1 754 13 is_stmt 0 view .LVU155
 523 0076 B4F5881F 		cmp	r4, #1114112
 524 007a 33D2     		bcs	.L58
 755:SynaptiX_FDK/services/cJSON/cJSON.c ****     {
 756:SynaptiX_FDK/services/cJSON/cJSON.c ****         /* four bytes, encoding 1110xxxx 10xxxxxx 10xxxxxx 10xxxxxx */
 757:SynaptiX_FDK/services/cJSON/cJSON.c ****         utf8_length = 4;
 758:SynaptiX_FDK/services/cJSON/cJSON.c ****         first_byte_mark = 0xF0; /* 11110000 */
 525              		.loc 1 758 25 view .LVU156
 526 007c F027     		movs	r7, #240
 757:SynaptiX_FDK/services/cJSON/cJSON.c ****         first_byte_mark = 0xF0; /* 11110000 */
 527              		.loc 1 757 21 view .LVU157
 528 007e 0426     		movs	r6, #4
 529              	.LVL53:
 757:SynaptiX_FDK/services/cJSON/cJSON.c ****         first_byte_mark = 0xF0; /* 11110000 */
 530              		.loc 1 757 21 view .LVU158
 531 0080 02E0     		b	.L44
 532              	.LVL54:
 533              	.L55:
 757:SynaptiX_FDK/services/cJSON/cJSON.c ****         first_byte_mark = 0xF0; /* 11110000 */
 534              		.loc 1 757 21 view .LVU159
 535 0082 0620     		movs	r0, #6
 536              	.LVL55:
 679:SynaptiX_FDK/services/cJSON/cJSON.c **** 
 537              		.loc 1 679 19 view .LVU160
 538 0084 0027     		movs	r7, #0
 539              	.LVL56:
 740:SynaptiX_FDK/services/cJSON/cJSON.c ****     }
 540              		.loc 1 740 21 view .LVU161
 541 0086 0126     		movs	r6, #1
 542              	.LVL57:
 543              	.L44:
 759:SynaptiX_FDK/services/cJSON/cJSON.c ****     }
 760:SynaptiX_FDK/services/cJSON/cJSON.c ****     else
 761:SynaptiX_FDK/services/cJSON/cJSON.c ****     {
 762:SynaptiX_FDK/services/cJSON/cJSON.c ****         /* invalid unicode codepoint */
 763:SynaptiX_FDK/services/cJSON/cJSON.c ****         goto fail;
 764:SynaptiX_FDK/services/cJSON/cJSON.c ****     }
 765:SynaptiX_FDK/services/cJSON/cJSON.c **** 
 766:SynaptiX_FDK/services/cJSON/cJSON.c ****     /* encode as utf8 */
 767:SynaptiX_FDK/services/cJSON/cJSON.c ****     for (utf8_position = (unsigned char)(utf8_length - 1); utf8_position > 0; utf8_position--)
 544              		.loc 1 767 5 is_stmt 1 view .LVU162
 545              		.loc 1 767 24 is_stmt 0 view .LVU163
 546 0088 731E     		subs	r3, r6, #1
 547 008a DBB2     		uxtb	r3, r3
 548              	.LVL58:
 549              		.loc 1 767 5 view .LVU164
 550 008c 0EE0     		b	.L45
 551              	.LVL59:
 552              	.L56:
 746:SynaptiX_FDK/services/cJSON/cJSON.c ****     }
 553              		.loc 1 746 25 view .LVU165
 554 008e C027     		movs	r7, #192
 745:SynaptiX_FDK/services/cJSON/cJSON.c ****         first_byte_mark = 0xC0; /* 11000000 */
 555              		.loc 1 745 21 view .LVU166
 556 0090 0226     		movs	r6, #2
 557              	.LVL60:
 745:SynaptiX_FDK/services/cJSON/cJSON.c ****         first_byte_mark = 0xC0; /* 11000000 */
ARM GAS  C:\Users\DELL\AppData\Local\Temp\ccXjhdgA.s 			page 25


 558              		.loc 1 745 21 view .LVU167
 559 0092 F9E7     		b	.L44
 560              	.LVL61:
 561              	.L57:
 752:SynaptiX_FDK/services/cJSON/cJSON.c ****     }
 562              		.loc 1 752 25 view .LVU168
 563 0094 E027     		movs	r7, #224
 751:SynaptiX_FDK/services/cJSON/cJSON.c ****         first_byte_mark = 0xE0; /* 11100000 */
 564              		.loc 1 751 21 view .LVU169
 565 0096 0326     		movs	r6, #3
 566              	.LVL62:
 751:SynaptiX_FDK/services/cJSON/cJSON.c ****         first_byte_mark = 0xE0; /* 11100000 */
 567              		.loc 1 751 21 view .LVU170
 568 0098 F6E7     		b	.L44
 569              	.LVL63:
 570              	.L46:
 768:SynaptiX_FDK/services/cJSON/cJSON.c ****     {
 769:SynaptiX_FDK/services/cJSON/cJSON.c ****         /* 10xxxxxx */
 770:SynaptiX_FDK/services/cJSON/cJSON.c ****         (*output_pointer)[utf8_position] = (unsigned char)((codepoint | 0x80) & 0xBF);
 571              		.loc 1 770 9 is_stmt 1 view .LVU171
 572              		.loc 1 770 79 is_stmt 0 view .LVU172
 573 009a 04F03F01 		and	r1, r4, #63
 574              		.loc 1 770 10 view .LVU173
 575 009e 2A68     		ldr	r2, [r5]
 576              		.loc 1 770 44 view .LVU174
 577 00a0 41F08001 		orr	r1, r1, #128
 578              		.loc 1 770 42 view .LVU175
 579 00a4 D154     		strb	r1, [r2, r3]
 771:SynaptiX_FDK/services/cJSON/cJSON.c ****         codepoint >>= 6;
 580              		.loc 1 771 9 is_stmt 1 view .LVU176
 581              		.loc 1 771 19 is_stmt 0 view .LVU177
 582 00a6 A409     		lsrs	r4, r4, #6
 583              	.LVL64:
 767:SynaptiX_FDK/services/cJSON/cJSON.c ****     {
 584              		.loc 1 767 92 is_stmt 1 discriminator 3 view .LVU178
 585 00a8 013B     		subs	r3, r3, #1
 586              	.LVL65:
 767:SynaptiX_FDK/services/cJSON/cJSON.c ****     {
 587              		.loc 1 767 92 is_stmt 0 discriminator 3 view .LVU179
 588 00aa DBB2     		uxtb	r3, r3
 589              	.LVL66:
 590              	.L45:
 767:SynaptiX_FDK/services/cJSON/cJSON.c ****     {
 591              		.loc 1 767 74 is_stmt 1 discriminator 1 view .LVU180
 592 00ac 002B     		cmp	r3, #0
 593 00ae F4D1     		bne	.L46
 772:SynaptiX_FDK/services/cJSON/cJSON.c ****     }
 773:SynaptiX_FDK/services/cJSON/cJSON.c ****     /* encode first byte */
 774:SynaptiX_FDK/services/cJSON/cJSON.c ****     if (utf8_length > 1)
 594              		.loc 1 774 5 view .LVU181
 595              		.loc 1 774 8 is_stmt 0 view .LVU182
 596 00b0 012E     		cmp	r6, #1
 597 00b2 06D9     		bls	.L47
 775:SynaptiX_FDK/services/cJSON/cJSON.c ****     {
 776:SynaptiX_FDK/services/cJSON/cJSON.c ****         (*output_pointer)[0] = (unsigned char)((codepoint | first_byte_mark) & 0xFF);
 598              		.loc 1 776 9 is_stmt 1 view .LVU183
 599              		.loc 1 776 10 is_stmt 0 view .LVU184
ARM GAS  C:\Users\DELL\AppData\Local\Temp\ccXjhdgA.s 			page 26


 600 00b4 2B68     		ldr	r3, [r5]
 601              	.LVL67:
 602              		.loc 1 776 32 view .LVU185
 603 00b6 2743     		orrs	r7, r7, r4
 604              	.LVL68:
 605              		.loc 1 776 30 view .LVU186
 606 00b8 1F70     		strb	r7, [r3]
 607              	.LVL69:
 608              	.L48:
 777:SynaptiX_FDK/services/cJSON/cJSON.c ****     }
 778:SynaptiX_FDK/services/cJSON/cJSON.c ****     else
 779:SynaptiX_FDK/services/cJSON/cJSON.c ****     {
 780:SynaptiX_FDK/services/cJSON/cJSON.c ****         (*output_pointer)[0] = (unsigned char)(codepoint & 0x7F);
 781:SynaptiX_FDK/services/cJSON/cJSON.c ****     }
 782:SynaptiX_FDK/services/cJSON/cJSON.c **** 
 783:SynaptiX_FDK/services/cJSON/cJSON.c ****     *output_pointer += utf8_length;
 609              		.loc 1 783 5 is_stmt 1 view .LVU187
 610 00ba 2B68     		ldr	r3, [r5]
 611              		.loc 1 783 21 is_stmt 0 view .LVU188
 612 00bc 3344     		add	r3, r3, r6
 613 00be 2B60     		str	r3, [r5]
 784:SynaptiX_FDK/services/cJSON/cJSON.c **** 
 785:SynaptiX_FDK/services/cJSON/cJSON.c ****     return sequence_length;
 614              		.loc 1 785 5 is_stmt 1 view .LVU189
 615              		.loc 1 785 12 is_stmt 0 view .LVU190
 616 00c0 05E0     		b	.L41
 617              	.LVL70:
 618              	.L47:
 780:SynaptiX_FDK/services/cJSON/cJSON.c ****     }
 619              		.loc 1 780 9 is_stmt 1 view .LVU191
 780:SynaptiX_FDK/services/cJSON/cJSON.c ****     }
 620              		.loc 1 780 10 is_stmt 0 view .LVU192
 621 00c2 2B68     		ldr	r3, [r5]
 622              	.LVL71:
 780:SynaptiX_FDK/services/cJSON/cJSON.c ****     }
 623              		.loc 1 780 32 view .LVU193
 624 00c4 04F07F04 		and	r4, r4, #127
 625              	.LVL72:
 780:SynaptiX_FDK/services/cJSON/cJSON.c ****     }
 626              		.loc 1 780 30 view .LVU194
 627 00c8 1C70     		strb	r4, [r3]
 628 00ca F6E7     		b	.L48
 629              	.LVL73:
 630              	.L49:
 786:SynaptiX_FDK/services/cJSON/cJSON.c **** 
 787:SynaptiX_FDK/services/cJSON/cJSON.c **** fail:
 788:SynaptiX_FDK/services/cJSON/cJSON.c ****     return 0;
 631              		.loc 1 788 12 view .LVU195
 632 00cc 0020     		movs	r0, #0
 633              	.LVL74:
 634              	.L41:
 789:SynaptiX_FDK/services/cJSON/cJSON.c **** }
 635              		.loc 1 789 1 view .LVU196
 636 00ce F8BD     		pop	{r3, r4, r5, r6, r7, pc}
 637              	.LVL75:
 638              	.L50:
 788:SynaptiX_FDK/services/cJSON/cJSON.c **** }
ARM GAS  C:\Users\DELL\AppData\Local\Temp\ccXjhdgA.s 			page 27


 639              		.loc 1 788 12 view .LVU197
 640 00d0 0020     		movs	r0, #0
 641              	.LVL76:
 788:SynaptiX_FDK/services/cJSON/cJSON.c **** }
 642              		.loc 1 788 12 view .LVU198
 643 00d2 FCE7     		b	.L41
 644              	.LVL77:
 645              	.L51:
 788:SynaptiX_FDK/services/cJSON/cJSON.c **** }
 646              		.loc 1 788 12 view .LVU199
 647 00d4 0020     		movs	r0, #0
 648              	.LVL78:
 788:SynaptiX_FDK/services/cJSON/cJSON.c **** }
 649              		.loc 1 788 12 view .LVU200
 650 00d6 FAE7     		b	.L41
 651              	.LVL79:
 652              	.L52:
 788:SynaptiX_FDK/services/cJSON/cJSON.c **** }
 653              		.loc 1 788 12 view .LVU201
 654 00d8 0020     		movs	r0, #0
 655              	.LVL80:
 788:SynaptiX_FDK/services/cJSON/cJSON.c **** }
 656              		.loc 1 788 12 view .LVU202
 657 00da F8E7     		b	.L41
 658              	.LVL81:
 659              	.L53:
 788:SynaptiX_FDK/services/cJSON/cJSON.c **** }
 660              		.loc 1 788 12 view .LVU203
 661 00dc 0020     		movs	r0, #0
 662              	.LVL82:
 788:SynaptiX_FDK/services/cJSON/cJSON.c **** }
 663              		.loc 1 788 12 view .LVU204
 664 00de F6E7     		b	.L41
 665              	.LVL83:
 666              	.L54:
 788:SynaptiX_FDK/services/cJSON/cJSON.c **** }
 667              		.loc 1 788 12 view .LVU205
 668 00e0 0020     		movs	r0, #0
 669              	.LVL84:
 788:SynaptiX_FDK/services/cJSON/cJSON.c **** }
 670              		.loc 1 788 12 view .LVU206
 671 00e2 F4E7     		b	.L41
 672              	.LVL85:
 673              	.L58:
 788:SynaptiX_FDK/services/cJSON/cJSON.c **** }
 674              		.loc 1 788 12 view .LVU207
 675 00e4 0020     		movs	r0, #0
 676 00e6 F2E7     		b	.L41
 677              	.L61:
 678              		.align	2
 679              	.L60:
 680 00e8 00FC0F00 		.word	1047552
 681              		.cfi_endproc
 682              	.LFE22:
 684              		.section	.text.parse_string,"ax",%progbits
 685              		.align	1
 686              		.syntax unified
ARM GAS  C:\Users\DELL\AppData\Local\Temp\ccXjhdgA.s 			page 28


 687              		.thumb
 688              		.thumb_func
 690              	parse_string:
 691              	.LVL86:
 692              	.LFB23:
 790:SynaptiX_FDK/services/cJSON/cJSON.c **** 
 791:SynaptiX_FDK/services/cJSON/cJSON.c **** /* Parse the input text into an unescaped cinput, and populate item. */
 792:SynaptiX_FDK/services/cJSON/cJSON.c **** static cJSON_bool parse_string(cJSON * const item, parse_buffer * const input_buffer)
 793:SynaptiX_FDK/services/cJSON/cJSON.c **** {
 693              		.loc 1 793 1 is_stmt 1 view -0
 694              		.cfi_startproc
 695              		@ args = 0, pretend = 0, frame = 8
 696              		@ frame_needed = 0, uses_anonymous_args = 0
 697              		.loc 1 793 1 is_stmt 0 view .LVU209
 698 0000 2DE9F041 		push	{r4, r5, r6, r7, r8, lr}
 699              	.LCFI5:
 700              		.cfi_def_cfa_offset 24
 701              		.cfi_offset 4, -24
 702              		.cfi_offset 5, -20
 703              		.cfi_offset 6, -16
 704              		.cfi_offset 7, -12
 705              		.cfi_offset 8, -8
 706              		.cfi_offset 14, -4
 707 0004 82B0     		sub	sp, sp, #8
 708              	.LCFI6:
 709              		.cfi_def_cfa_offset 32
 710 0006 8046     		mov	r8, r0
 711 0008 0D46     		mov	r5, r1
 794:SynaptiX_FDK/services/cJSON/cJSON.c ****     const unsigned char *input_pointer = buffer_at_offset(input_buffer) + 1;
 712              		.loc 1 794 5 is_stmt 1 view .LVU210
 713              		.loc 1 794 42 is_stmt 0 view .LVU211
 714 000a 0E68     		ldr	r6, [r1]
 715 000c 8B68     		ldr	r3, [r1, #8]
 716              		.loc 1 794 73 view .LVU212
 717 000e 5F1C     		adds	r7, r3, #1
 718              		.loc 1 794 26 view .LVU213
 719 0010 3744     		add	r7, r7, r6
 720              	.LVL87:
 795:SynaptiX_FDK/services/cJSON/cJSON.c ****     const unsigned char *input_end = buffer_at_offset(input_buffer) + 1;
 721              		.loc 1 795 5 is_stmt 1 view .LVU214
 796:SynaptiX_FDK/services/cJSON/cJSON.c ****     unsigned char *output_pointer = NULL;
 722              		.loc 1 796 5 view .LVU215
 723              		.loc 1 796 20 is_stmt 0 view .LVU216
 724 0012 0022     		movs	r2, #0
 725 0014 0192     		str	r2, [sp, #4]
 797:SynaptiX_FDK/services/cJSON/cJSON.c ****     unsigned char *output = NULL;
 726              		.loc 1 797 5 is_stmt 1 view .LVU217
 727              	.LVL88:
 798:SynaptiX_FDK/services/cJSON/cJSON.c **** 
 799:SynaptiX_FDK/services/cJSON/cJSON.c ****     /* not a string */
 800:SynaptiX_FDK/services/cJSON/cJSON.c ****     if (buffer_at_offset(input_buffer)[0] != '\"')
 728              		.loc 1 800 5 view .LVU218
 729              		.loc 1 800 39 is_stmt 0 view .LVU219
 730 0016 F018     		adds	r0, r6, r3
 731              	.LVL89:
 732              		.loc 1 800 39 view .LVU220
 733 0018 F35C     		ldrb	r3, [r6, r3]	@ zero_extendqisi2
ARM GAS  C:\Users\DELL\AppData\Local\Temp\ccXjhdgA.s 			page 29


 734              		.loc 1 800 8 view .LVU221
 735 001a 222B     		cmp	r3, #34
 736 001c 4ED1     		bne	.L63
 795:SynaptiX_FDK/services/cJSON/cJSON.c ****     unsigned char *output_pointer = NULL;
 737              		.loc 1 795 26 view .LVU222
 738 001e 3C46     		mov	r4, r7
 739              	.LBB7:
 801:SynaptiX_FDK/services/cJSON/cJSON.c ****     {
 802:SynaptiX_FDK/services/cJSON/cJSON.c ****         goto fail;
 803:SynaptiX_FDK/services/cJSON/cJSON.c ****     }
 804:SynaptiX_FDK/services/cJSON/cJSON.c **** 
 805:SynaptiX_FDK/services/cJSON/cJSON.c ****     {
 806:SynaptiX_FDK/services/cJSON/cJSON.c ****         /* calculate approximate size of the output (overestimate) */
 807:SynaptiX_FDK/services/cJSON/cJSON.c ****         size_t allocation_length = 0;
 808:SynaptiX_FDK/services/cJSON/cJSON.c ****         size_t skipped_bytes = 0;
 740              		.loc 1 808 16 view .LVU223
 741 0020 9446     		mov	ip, r2
 742 0022 00E0     		b	.L64
 743              	.LVL90:
 744              	.L65:
 809:SynaptiX_FDK/services/cJSON/cJSON.c ****         while (((size_t)(input_end - input_buffer->content) < input_buffer->length) && (*input_end 
 810:SynaptiX_FDK/services/cJSON/cJSON.c ****         {
 811:SynaptiX_FDK/services/cJSON/cJSON.c ****             /* is escape sequence */
 812:SynaptiX_FDK/services/cJSON/cJSON.c ****             if (input_end[0] == '\\')
 813:SynaptiX_FDK/services/cJSON/cJSON.c ****             {
 814:SynaptiX_FDK/services/cJSON/cJSON.c ****                 if ((size_t)(input_end + 1 - input_buffer->content) >= input_buffer->length)
 815:SynaptiX_FDK/services/cJSON/cJSON.c ****                 {
 816:SynaptiX_FDK/services/cJSON/cJSON.c ****                     /* prevent buffer overflow when last input character is a backslash */
 817:SynaptiX_FDK/services/cJSON/cJSON.c ****                     goto fail;
 818:SynaptiX_FDK/services/cJSON/cJSON.c ****                 }
 819:SynaptiX_FDK/services/cJSON/cJSON.c ****                 skipped_bytes++;
 820:SynaptiX_FDK/services/cJSON/cJSON.c ****                 input_end++;
 821:SynaptiX_FDK/services/cJSON/cJSON.c ****             }
 822:SynaptiX_FDK/services/cJSON/cJSON.c ****             input_end++;
 745              		.loc 1 822 13 is_stmt 1 view .LVU224
 746              		.loc 1 822 22 is_stmt 0 view .LVU225
 747 0024 0134     		adds	r4, r4, #1
 748              	.LVL91:
 749              	.L64:
 809:SynaptiX_FDK/services/cJSON/cJSON.c ****         while (((size_t)(input_end - input_buffer->content) < input_buffer->length) && (*input_end 
 750              		.loc 1 809 85 is_stmt 1 view .LVU226
 809:SynaptiX_FDK/services/cJSON/cJSON.c ****         while (((size_t)(input_end - input_buffer->content) < input_buffer->length) && (*input_end 
 751              		.loc 1 809 36 is_stmt 0 view .LVU227
 752 0026 A11B     		subs	r1, r4, r6
 809:SynaptiX_FDK/services/cJSON/cJSON.c ****         while (((size_t)(input_end - input_buffer->content) < input_buffer->length) && (*input_end 
 753              		.loc 1 809 75 view .LVU228
 754 0028 6A68     		ldr	r2, [r5, #4]
 809:SynaptiX_FDK/services/cJSON/cJSON.c ****         while (((size_t)(input_end - input_buffer->content) < input_buffer->length) && (*input_end 
 755              		.loc 1 809 85 view .LVU229
 756 002a 9142     		cmp	r1, r2
 757 002c 0BD2     		bcs	.L66
 809:SynaptiX_FDK/services/cJSON/cJSON.c ****         while (((size_t)(input_end - input_buffer->content) < input_buffer->length) && (*input_end 
 758              		.loc 1 809 89 discriminator 1 view .LVU230
 759 002e 2378     		ldrb	r3, [r4]	@ zero_extendqisi2
 809:SynaptiX_FDK/services/cJSON/cJSON.c ****         while (((size_t)(input_end - input_buffer->content) < input_buffer->length) && (*input_end 
 760              		.loc 1 809 85 discriminator 1 view .LVU231
 761 0030 222B     		cmp	r3, #34
ARM GAS  C:\Users\DELL\AppData\Local\Temp\ccXjhdgA.s 			page 30


 762 0032 08D0     		beq	.L66
 812:SynaptiX_FDK/services/cJSON/cJSON.c ****             {
 763              		.loc 1 812 13 is_stmt 1 view .LVU232
 812:SynaptiX_FDK/services/cJSON/cJSON.c ****             {
 764              		.loc 1 812 16 is_stmt 0 view .LVU233
 765 0034 5C2B     		cmp	r3, #92
 766 0036 F5D1     		bne	.L65
 814:SynaptiX_FDK/services/cJSON/cJSON.c ****                 {
 767              		.loc 1 814 17 is_stmt 1 view .LVU234
 814:SynaptiX_FDK/services/cJSON/cJSON.c ****                 {
 768              		.loc 1 814 40 is_stmt 0 view .LVU235
 769 0038 0134     		adds	r4, r4, #1
 770              	.LVL92:
 814:SynaptiX_FDK/services/cJSON/cJSON.c ****                 {
 771              		.loc 1 814 44 view .LVU236
 772 003a A31B     		subs	r3, r4, r6
 814:SynaptiX_FDK/services/cJSON/cJSON.c ****                 {
 773              		.loc 1 814 20 view .LVU237
 774 003c 9342     		cmp	r3, r2
 775 003e 3DD2     		bcs	.L63
 819:SynaptiX_FDK/services/cJSON/cJSON.c ****                 input_end++;
 776              		.loc 1 819 17 is_stmt 1 view .LVU238
 819:SynaptiX_FDK/services/cJSON/cJSON.c ****                 input_end++;
 777              		.loc 1 819 30 is_stmt 0 view .LVU239
 778 0040 0CF1010C 		add	ip, ip, #1
 779              	.LVL93:
 820:SynaptiX_FDK/services/cJSON/cJSON.c ****             }
 780              		.loc 1 820 17 is_stmt 1 view .LVU240
 781 0044 EEE7     		b	.L65
 782              	.LVL94:
 783              	.L66:
 823:SynaptiX_FDK/services/cJSON/cJSON.c ****         }
 824:SynaptiX_FDK/services/cJSON/cJSON.c ****         if (((size_t)(input_end - input_buffer->content) >= input_buffer->length) || (*input_end !=
 784              		.loc 1 824 9 view .LVU241
 785              		.loc 1 824 12 is_stmt 0 view .LVU242
 786 0046 9142     		cmp	r1, r2
 787 0048 38D2     		bcs	.L63
 788              		.loc 1 824 87 discriminator 1 view .LVU243
 789 004a 2378     		ldrb	r3, [r4]	@ zero_extendqisi2
 790              		.loc 1 824 83 discriminator 1 view .LVU244
 791 004c 222B     		cmp	r3, #34
 792 004e 35D1     		bne	.L63
 825:SynaptiX_FDK/services/cJSON/cJSON.c ****         {
 826:SynaptiX_FDK/services/cJSON/cJSON.c ****             goto fail; /* string ended unexpectedly */
 827:SynaptiX_FDK/services/cJSON/cJSON.c ****         }
 828:SynaptiX_FDK/services/cJSON/cJSON.c **** 
 829:SynaptiX_FDK/services/cJSON/cJSON.c ****         /* This is at most how much we need for the output */
 830:SynaptiX_FDK/services/cJSON/cJSON.c ****         allocation_length = (size_t) (input_end - buffer_at_offset(input_buffer)) - skipped_bytes;
 793              		.loc 1 830 9 is_stmt 1 view .LVU245
 794              		.loc 1 830 49 is_stmt 0 view .LVU246
 795 0050 201A     		subs	r0, r4, r0
 796              		.loc 1 830 27 view .LVU247
 797 0052 A0EB0C00 		sub	r0, r0, ip
 798              	.LVL95:
 831:SynaptiX_FDK/services/cJSON/cJSON.c ****         output = (unsigned char*)input_buffer->hooks.allocate(allocation_length + sizeof(""));
 799              		.loc 1 831 9 is_stmt 1 view .LVU248
 800              		.loc 1 831 53 is_stmt 0 view .LVU249
ARM GAS  C:\Users\DELL\AppData\Local\Temp\ccXjhdgA.s 			page 31


 801 0056 2B69     		ldr	r3, [r5, #16]
 802              		.loc 1 831 34 view .LVU250
 803 0058 0130     		adds	r0, r0, #1
 804              	.LVL96:
 805              		.loc 1 831 34 view .LVU251
 806 005a 9847     		blx	r3
 807              	.LVL97:
 832:SynaptiX_FDK/services/cJSON/cJSON.c ****         if (output == NULL)
 808              		.loc 1 832 9 is_stmt 1 view .LVU252
 809              		.loc 1 832 12 is_stmt 0 view .LVU253
 810 005c 0646     		mov	r6, r0
 811              		.loc 1 832 12 view .LVU254
 812 005e 68B3     		cbz	r0, .L63
 813              	.LBE7:
 833:SynaptiX_FDK/services/cJSON/cJSON.c ****         {
 834:SynaptiX_FDK/services/cJSON/cJSON.c ****             goto fail; /* allocation failure */
 835:SynaptiX_FDK/services/cJSON/cJSON.c ****         }
 836:SynaptiX_FDK/services/cJSON/cJSON.c ****     }
 837:SynaptiX_FDK/services/cJSON/cJSON.c **** 
 838:SynaptiX_FDK/services/cJSON/cJSON.c ****     output_pointer = output;
 814              		.loc 1 838 5 is_stmt 1 view .LVU255
 815              		.loc 1 838 20 is_stmt 0 view .LVU256
 816 0060 0190     		str	r0, [sp, #4]
 839:SynaptiX_FDK/services/cJSON/cJSON.c ****     /* loop through the string literal */
 840:SynaptiX_FDK/services/cJSON/cJSON.c ****     while (input_pointer < input_end)
 817              		.loc 1 840 5 is_stmt 1 view .LVU257
 818              	.LVL98:
 819              	.L68:
 820              		.loc 1 840 26 view .LVU258
 821 0062 A742     		cmp	r7, r4
 822 0064 67D2     		bcs	.L88
 841:SynaptiX_FDK/services/cJSON/cJSON.c ****     {
 842:SynaptiX_FDK/services/cJSON/cJSON.c ****         if (*input_pointer != '\\')
 823              		.loc 1 842 9 view .LVU259
 824              		.loc 1 842 13 is_stmt 0 view .LVU260
 825 0066 3B78     		ldrb	r3, [r7]	@ zero_extendqisi2
 826              		.loc 1 842 12 view .LVU261
 827 0068 5C2B     		cmp	r3, #92
 828 006a 06D0     		beq	.L69
 843:SynaptiX_FDK/services/cJSON/cJSON.c ****         {
 844:SynaptiX_FDK/services/cJSON/cJSON.c ****             *output_pointer++ = *input_pointer++;
 829              		.loc 1 844 13 is_stmt 1 view .LVU262
 830              	.LVL99:
 831              		.loc 1 844 28 is_stmt 0 view .LVU263
 832 006c 019B     		ldr	r3, [sp, #4]
 833 006e 5A1C     		adds	r2, r3, #1
 834 0070 0192     		str	r2, [sp, #4]
 835              		.loc 1 844 33 view .LVU264
 836 0072 17F8012B 		ldrb	r2, [r7], #1	@ zero_extendqisi2
 837              	.LVL100:
 838              		.loc 1 844 31 view .LVU265
 839 0076 1A70     		strb	r2, [r3]
 840 0078 F3E7     		b	.L68
 841              	.L69:
 842              	.LBB8:
 845:SynaptiX_FDK/services/cJSON/cJSON.c ****         }
 846:SynaptiX_FDK/services/cJSON/cJSON.c ****         /* escape sequence */
ARM GAS  C:\Users\DELL\AppData\Local\Temp\ccXjhdgA.s 			page 32


 847:SynaptiX_FDK/services/cJSON/cJSON.c ****         else
 848:SynaptiX_FDK/services/cJSON/cJSON.c ****         {
 849:SynaptiX_FDK/services/cJSON/cJSON.c ****             unsigned char sequence_length = 2;
 843              		.loc 1 849 13 is_stmt 1 view .LVU266
 844              	.LVL101:
 850:SynaptiX_FDK/services/cJSON/cJSON.c ****             if ((input_end - input_pointer) < 1)
 845              		.loc 1 850 13 view .LVU267
 846              		.loc 1 850 28 is_stmt 0 view .LVU268
 847 007a E31B     		subs	r3, r4, r7
 848              		.loc 1 850 16 view .LVU269
 849 007c 002B     		cmp	r3, #0
 850 007e 1ADD     		ble	.L71
 851:SynaptiX_FDK/services/cJSON/cJSON.c ****             {
 852:SynaptiX_FDK/services/cJSON/cJSON.c ****                 goto fail;
 853:SynaptiX_FDK/services/cJSON/cJSON.c ****             }
 854:SynaptiX_FDK/services/cJSON/cJSON.c **** 
 855:SynaptiX_FDK/services/cJSON/cJSON.c ****             switch (input_pointer[1])
 851              		.loc 1 855 13 is_stmt 1 view .LVU270
 852              		.loc 1 855 34 is_stmt 0 view .LVU271
 853 0080 7B78     		ldrb	r3, [r7, #1]	@ zero_extendqisi2
 854              		.loc 1 855 13 view .LVU272
 855 0082 752B     		cmp	r3, #117
 856 0084 17D8     		bhi	.L71
 857 0086 5C2B     		cmp	r3, #92
 858 0088 11D3     		bcc	.L89
 859 008a 5C3B     		subs	r3, r3, #92
 860 008c 192B     		cmp	r3, #25
 861 008e 12D8     		bhi	.L71
 862 0090 DFE803F0 		tbb	[pc, r3]
 863              	.L75:
 864 0094 40       		.byte	(.L73-.L75)/2
 865 0095 11       		.byte	(.L71-.L75)/2
 866 0096 11       		.byte	(.L71-.L75)/2
 867 0097 11       		.byte	(.L71-.L75)/2
 868 0098 11       		.byte	(.L71-.L75)/2
 869 0099 11       		.byte	(.L71-.L75)/2
 870 009a 1D       		.byte	(.L80-.L75)/2
 871 009b 11       		.byte	(.L71-.L75)/2
 872 009c 11       		.byte	(.L71-.L75)/2
 873 009d 11       		.byte	(.L71-.L75)/2
 874 009e 24       		.byte	(.L79-.L75)/2
 875 009f 11       		.byte	(.L71-.L75)/2
 876 00a0 11       		.byte	(.L71-.L75)/2
 877 00a1 11       		.byte	(.L71-.L75)/2
 878 00a2 11       		.byte	(.L71-.L75)/2
 879 00a3 11       		.byte	(.L71-.L75)/2
 880 00a4 11       		.byte	(.L71-.L75)/2
 881 00a5 11       		.byte	(.L71-.L75)/2
 882 00a6 2B       		.byte	(.L78-.L75)/2
 883 00a7 11       		.byte	(.L71-.L75)/2
 884 00a8 11       		.byte	(.L71-.L75)/2
 885 00a9 11       		.byte	(.L71-.L75)/2
 886 00aa 32       		.byte	(.L77-.L75)/2
 887 00ab 11       		.byte	(.L71-.L75)/2
 888 00ac 39       		.byte	(.L76-.L75)/2
 889 00ad 48       		.byte	(.L74-.L75)/2
 890              		.p2align 1
ARM GAS  C:\Users\DELL\AppData\Local\Temp\ccXjhdgA.s 			page 33


 891              	.L89:
 892 00ae 222B     		cmp	r3, #34
 893 00b0 30D0     		beq	.L73
 894 00b2 2F2B     		cmp	r3, #47
 895 00b4 2ED0     		beq	.L73
 896              	.LVL102:
 897              	.L71:
 898              		.loc 1 855 13 view .LVU273
 899              	.LBE8:
 856:SynaptiX_FDK/services/cJSON/cJSON.c ****             {
 857:SynaptiX_FDK/services/cJSON/cJSON.c ****                 case 'b':
 858:SynaptiX_FDK/services/cJSON/cJSON.c ****                     *output_pointer++ = '\b';
 859:SynaptiX_FDK/services/cJSON/cJSON.c ****                     break;
 860:SynaptiX_FDK/services/cJSON/cJSON.c ****                 case 'f':
 861:SynaptiX_FDK/services/cJSON/cJSON.c ****                     *output_pointer++ = '\f';
 862:SynaptiX_FDK/services/cJSON/cJSON.c ****                     break;
 863:SynaptiX_FDK/services/cJSON/cJSON.c ****                 case 'n':
 864:SynaptiX_FDK/services/cJSON/cJSON.c ****                     *output_pointer++ = '\n';
 865:SynaptiX_FDK/services/cJSON/cJSON.c ****                     break;
 866:SynaptiX_FDK/services/cJSON/cJSON.c ****                 case 'r':
 867:SynaptiX_FDK/services/cJSON/cJSON.c ****                     *output_pointer++ = '\r';
 868:SynaptiX_FDK/services/cJSON/cJSON.c ****                     break;
 869:SynaptiX_FDK/services/cJSON/cJSON.c ****                 case 't':
 870:SynaptiX_FDK/services/cJSON/cJSON.c ****                     *output_pointer++ = '\t';
 871:SynaptiX_FDK/services/cJSON/cJSON.c ****                     break;
 872:SynaptiX_FDK/services/cJSON/cJSON.c ****                 case '\"':
 873:SynaptiX_FDK/services/cJSON/cJSON.c ****                 case '\\':
 874:SynaptiX_FDK/services/cJSON/cJSON.c ****                 case '/':
 875:SynaptiX_FDK/services/cJSON/cJSON.c ****                     *output_pointer++ = input_pointer[1];
 876:SynaptiX_FDK/services/cJSON/cJSON.c ****                     break;
 877:SynaptiX_FDK/services/cJSON/cJSON.c **** 
 878:SynaptiX_FDK/services/cJSON/cJSON.c ****                 /* UTF-16 literal */
 879:SynaptiX_FDK/services/cJSON/cJSON.c ****                 case 'u':
 880:SynaptiX_FDK/services/cJSON/cJSON.c ****                     sequence_length = utf16_literal_to_utf8(input_pointer, input_end, &output_point
 881:SynaptiX_FDK/services/cJSON/cJSON.c ****                     if (sequence_length == 0)
 882:SynaptiX_FDK/services/cJSON/cJSON.c ****                     {
 883:SynaptiX_FDK/services/cJSON/cJSON.c ****                         /* failed to convert UTF16-literal to UTF-8 */
 884:SynaptiX_FDK/services/cJSON/cJSON.c ****                         goto fail;
 885:SynaptiX_FDK/services/cJSON/cJSON.c ****                     }
 886:SynaptiX_FDK/services/cJSON/cJSON.c ****                     break;
 887:SynaptiX_FDK/services/cJSON/cJSON.c **** 
 888:SynaptiX_FDK/services/cJSON/cJSON.c ****                 default:
 889:SynaptiX_FDK/services/cJSON/cJSON.c ****                     goto fail;
 890:SynaptiX_FDK/services/cJSON/cJSON.c ****             }
 891:SynaptiX_FDK/services/cJSON/cJSON.c ****             input_pointer += sequence_length;
 892:SynaptiX_FDK/services/cJSON/cJSON.c ****         }
 893:SynaptiX_FDK/services/cJSON/cJSON.c ****     }
 894:SynaptiX_FDK/services/cJSON/cJSON.c **** 
 895:SynaptiX_FDK/services/cJSON/cJSON.c ****     /* zero terminate the output */
 896:SynaptiX_FDK/services/cJSON/cJSON.c ****     *output_pointer = '\0';
 897:SynaptiX_FDK/services/cJSON/cJSON.c **** 
 898:SynaptiX_FDK/services/cJSON/cJSON.c ****     item->type = cJSON_String;
 899:SynaptiX_FDK/services/cJSON/cJSON.c ****     item->valuestring = (char*)output;
 900:SynaptiX_FDK/services/cJSON/cJSON.c **** 
 901:SynaptiX_FDK/services/cJSON/cJSON.c ****     input_buffer->offset = (size_t) (input_end - input_buffer->content);
 902:SynaptiX_FDK/services/cJSON/cJSON.c ****     input_buffer->offset++;
 903:SynaptiX_FDK/services/cJSON/cJSON.c **** 
ARM GAS  C:\Users\DELL\AppData\Local\Temp\ccXjhdgA.s 			page 34


 904:SynaptiX_FDK/services/cJSON/cJSON.c ****     return true;
 905:SynaptiX_FDK/services/cJSON/cJSON.c **** 
 906:SynaptiX_FDK/services/cJSON/cJSON.c **** fail:
 907:SynaptiX_FDK/services/cJSON/cJSON.c ****     if (output != NULL)
 900              		.loc 1 907 5 is_stmt 1 view .LVU274
 908:SynaptiX_FDK/services/cJSON/cJSON.c ****     {
 909:SynaptiX_FDK/services/cJSON/cJSON.c ****         input_buffer->hooks.deallocate(output);
 901              		.loc 1 909 9 view .LVU275
 902              		.loc 1 909 28 is_stmt 0 view .LVU276
 903 00b6 6B69     		ldr	r3, [r5, #20]
 904              		.loc 1 909 9 view .LVU277
 905 00b8 3046     		mov	r0, r6
 906 00ba 9847     		blx	r3
 907              	.LVL103:
 910:SynaptiX_FDK/services/cJSON/cJSON.c ****         output = NULL;
 908              		.loc 1 910 9 is_stmt 1 view .LVU278
 909              	.L63:
 911:SynaptiX_FDK/services/cJSON/cJSON.c ****     }
 912:SynaptiX_FDK/services/cJSON/cJSON.c **** 
 913:SynaptiX_FDK/services/cJSON/cJSON.c ****     if (input_pointer != NULL)
 910              		.loc 1 913 5 view .LVU279
 911              		.loc 1 913 8 is_stmt 0 view .LVU280
 912 00bc 002F     		cmp	r7, #0
 913 00be 49D0     		beq	.L84
 914:SynaptiX_FDK/services/cJSON/cJSON.c ****     {
 915:SynaptiX_FDK/services/cJSON/cJSON.c ****         input_buffer->offset = (size_t)(input_pointer - input_buffer->content);
 914              		.loc 1 915 9 is_stmt 1 view .LVU281
 915              		.loc 1 915 69 is_stmt 0 view .LVU282
 916 00c0 2B68     		ldr	r3, [r5]
 917              		.loc 1 915 55 view .LVU283
 918 00c2 FF1A     		subs	r7, r7, r3
 919              		.loc 1 915 30 view .LVU284
 920 00c4 AF60     		str	r7, [r5, #8]
 916:SynaptiX_FDK/services/cJSON/cJSON.c ****     }
 917:SynaptiX_FDK/services/cJSON/cJSON.c **** 
 918:SynaptiX_FDK/services/cJSON/cJSON.c ****     return false;
 921              		.loc 1 918 12 view .LVU285
 922 00c6 0020     		movs	r0, #0
 923              	.L62:
 919:SynaptiX_FDK/services/cJSON/cJSON.c **** }
 924              		.loc 1 919 1 view .LVU286
 925 00c8 02B0     		add	sp, sp, #8
 926              	.LCFI7:
 927              		.cfi_remember_state
 928              		.cfi_def_cfa_offset 24
 929              		@ sp needed
 930 00ca BDE8F081 		pop	{r4, r5, r6, r7, r8, pc}
 931              	.LVL104:
 932              	.L80:
 933              	.LCFI8:
 934              		.cfi_restore_state
 935              	.LBB9:
 858:SynaptiX_FDK/services/cJSON/cJSON.c ****                     break;
 936              		.loc 1 858 21 is_stmt 1 view .LVU287
 858:SynaptiX_FDK/services/cJSON/cJSON.c ****                     break;
 937              		.loc 1 858 36 is_stmt 0 view .LVU288
 938 00ce 019B     		ldr	r3, [sp, #4]
ARM GAS  C:\Users\DELL\AppData\Local\Temp\ccXjhdgA.s 			page 35


 939 00d0 5A1C     		adds	r2, r3, #1
 940 00d2 0192     		str	r2, [sp, #4]
 858:SynaptiX_FDK/services/cJSON/cJSON.c ****                     break;
 941              		.loc 1 858 39 view .LVU289
 942 00d4 0822     		movs	r2, #8
 943 00d6 1A70     		strb	r2, [r3]
 859:SynaptiX_FDK/services/cJSON/cJSON.c ****                 case 'f':
 944              		.loc 1 859 21 is_stmt 1 view .LVU290
 849:SynaptiX_FDK/services/cJSON/cJSON.c ****             if ((input_end - input_pointer) < 1)
 945              		.loc 1 849 27 is_stmt 0 view .LVU291
 946 00d8 0223     		movs	r3, #2
 859:SynaptiX_FDK/services/cJSON/cJSON.c ****                 case 'f':
 947              		.loc 1 859 21 view .LVU292
 948 00da 21E0     		b	.L81
 949              	.L79:
 861:SynaptiX_FDK/services/cJSON/cJSON.c ****                     break;
 950              		.loc 1 861 21 is_stmt 1 view .LVU293
 861:SynaptiX_FDK/services/cJSON/cJSON.c ****                     break;
 951              		.loc 1 861 36 is_stmt 0 view .LVU294
 952 00dc 019B     		ldr	r3, [sp, #4]
 953 00de 5A1C     		adds	r2, r3, #1
 954 00e0 0192     		str	r2, [sp, #4]
 861:SynaptiX_FDK/services/cJSON/cJSON.c ****                     break;
 955              		.loc 1 861 39 view .LVU295
 956 00e2 0C22     		movs	r2, #12
 957 00e4 1A70     		strb	r2, [r3]
 862:SynaptiX_FDK/services/cJSON/cJSON.c ****                 case 'n':
 958              		.loc 1 862 21 is_stmt 1 view .LVU296
 849:SynaptiX_FDK/services/cJSON/cJSON.c ****             if ((input_end - input_pointer) < 1)
 959              		.loc 1 849 27 is_stmt 0 view .LVU297
 960 00e6 0223     		movs	r3, #2
 862:SynaptiX_FDK/services/cJSON/cJSON.c ****                 case 'n':
 961              		.loc 1 862 21 view .LVU298
 962 00e8 1AE0     		b	.L81
 963              	.L78:
 864:SynaptiX_FDK/services/cJSON/cJSON.c ****                     break;
 964              		.loc 1 864 21 is_stmt 1 view .LVU299
 864:SynaptiX_FDK/services/cJSON/cJSON.c ****                     break;
 965              		.loc 1 864 36 is_stmt 0 view .LVU300
 966 00ea 019B     		ldr	r3, [sp, #4]
 967 00ec 5A1C     		adds	r2, r3, #1
 968 00ee 0192     		str	r2, [sp, #4]
 864:SynaptiX_FDK/services/cJSON/cJSON.c ****                     break;
 969              		.loc 1 864 39 view .LVU301
 970 00f0 0A22     		movs	r2, #10
 971 00f2 1A70     		strb	r2, [r3]
 865:SynaptiX_FDK/services/cJSON/cJSON.c ****                 case 'r':
 972              		.loc 1 865 21 is_stmt 1 view .LVU302
 849:SynaptiX_FDK/services/cJSON/cJSON.c ****             if ((input_end - input_pointer) < 1)
 973              		.loc 1 849 27 is_stmt 0 view .LVU303
 974 00f4 0223     		movs	r3, #2
 865:SynaptiX_FDK/services/cJSON/cJSON.c ****                 case 'r':
 975              		.loc 1 865 21 view .LVU304
 976 00f6 13E0     		b	.L81
 977              	.L77:
 867:SynaptiX_FDK/services/cJSON/cJSON.c ****                     break;
 978              		.loc 1 867 21 is_stmt 1 view .LVU305
ARM GAS  C:\Users\DELL\AppData\Local\Temp\ccXjhdgA.s 			page 36


 867:SynaptiX_FDK/services/cJSON/cJSON.c ****                     break;
 979              		.loc 1 867 36 is_stmt 0 view .LVU306
 980 00f8 019B     		ldr	r3, [sp, #4]
 981 00fa 5A1C     		adds	r2, r3, #1
 982 00fc 0192     		str	r2, [sp, #4]
 867:SynaptiX_FDK/services/cJSON/cJSON.c ****                     break;
 983              		.loc 1 867 39 view .LVU307
 984 00fe 0D22     		movs	r2, #13
 985 0100 1A70     		strb	r2, [r3]
 868:SynaptiX_FDK/services/cJSON/cJSON.c ****                 case 't':
 986              		.loc 1 868 21 is_stmt 1 view .LVU308
 849:SynaptiX_FDK/services/cJSON/cJSON.c ****             if ((input_end - input_pointer) < 1)
 987              		.loc 1 849 27 is_stmt 0 view .LVU309
 988 0102 0223     		movs	r3, #2
 868:SynaptiX_FDK/services/cJSON/cJSON.c ****                 case 't':
 989              		.loc 1 868 21 view .LVU310
 990 0104 0CE0     		b	.L81
 991              	.L76:
 870:SynaptiX_FDK/services/cJSON/cJSON.c ****                     break;
 992              		.loc 1 870 21 is_stmt 1 view .LVU311
 870:SynaptiX_FDK/services/cJSON/cJSON.c ****                     break;
 993              		.loc 1 870 36 is_stmt 0 view .LVU312
 994 0106 019B     		ldr	r3, [sp, #4]
 995 0108 5A1C     		adds	r2, r3, #1
 996 010a 0192     		str	r2, [sp, #4]
 870:SynaptiX_FDK/services/cJSON/cJSON.c ****                     break;
 997              		.loc 1 870 39 view .LVU313
 998 010c 0922     		movs	r2, #9
 999 010e 1A70     		strb	r2, [r3]
 871:SynaptiX_FDK/services/cJSON/cJSON.c ****                 case '\"':
 1000              		.loc 1 871 21 is_stmt 1 view .LVU314
 849:SynaptiX_FDK/services/cJSON/cJSON.c ****             if ((input_end - input_pointer) < 1)
 1001              		.loc 1 849 27 is_stmt 0 view .LVU315
 1002 0110 0223     		movs	r3, #2
 871:SynaptiX_FDK/services/cJSON/cJSON.c ****                 case '\"':
 1003              		.loc 1 871 21 view .LVU316
 1004 0112 05E0     		b	.L81
 1005              	.L73:
 875:SynaptiX_FDK/services/cJSON/cJSON.c ****                     break;
 1006              		.loc 1 875 21 is_stmt 1 view .LVU317
 875:SynaptiX_FDK/services/cJSON/cJSON.c ****                     break;
 1007              		.loc 1 875 36 is_stmt 0 view .LVU318
 1008 0114 019B     		ldr	r3, [sp, #4]
 1009 0116 5A1C     		adds	r2, r3, #1
 1010 0118 0192     		str	r2, [sp, #4]
 875:SynaptiX_FDK/services/cJSON/cJSON.c ****                     break;
 1011              		.loc 1 875 54 view .LVU319
 1012 011a 7A78     		ldrb	r2, [r7, #1]	@ zero_extendqisi2
 875:SynaptiX_FDK/services/cJSON/cJSON.c ****                     break;
 1013              		.loc 1 875 39 view .LVU320
 1014 011c 1A70     		strb	r2, [r3]
 876:SynaptiX_FDK/services/cJSON/cJSON.c **** 
 1015              		.loc 1 876 21 is_stmt 1 view .LVU321
 849:SynaptiX_FDK/services/cJSON/cJSON.c ****             if ((input_end - input_pointer) < 1)
 1016              		.loc 1 849 27 is_stmt 0 view .LVU322
 1017 011e 0223     		movs	r3, #2
 1018              	.LVL105:
ARM GAS  C:\Users\DELL\AppData\Local\Temp\ccXjhdgA.s 			page 37


 1019              	.L81:
 891:SynaptiX_FDK/services/cJSON/cJSON.c ****         }
 1020              		.loc 1 891 13 is_stmt 1 view .LVU323
 891:SynaptiX_FDK/services/cJSON/cJSON.c ****         }
 1021              		.loc 1 891 27 is_stmt 0 view .LVU324
 1022 0120 1F44     		add	r7, r7, r3
 1023              	.LVL106:
 891:SynaptiX_FDK/services/cJSON/cJSON.c ****         }
 1024              		.loc 1 891 27 view .LVU325
 1025 0122 9EE7     		b	.L68
 1026              	.LVL107:
 1027              	.L74:
 880:SynaptiX_FDK/services/cJSON/cJSON.c ****                     if (sequence_length == 0)
 1028              		.loc 1 880 21 is_stmt 1 view .LVU326
 880:SynaptiX_FDK/services/cJSON/cJSON.c ****                     if (sequence_length == 0)
 1029              		.loc 1 880 39 is_stmt 0 view .LVU327
 1030 0124 01AA     		add	r2, sp, #4
 1031 0126 2146     		mov	r1, r4
 1032 0128 3846     		mov	r0, r7
 1033 012a FFF7FEFF 		bl	utf16_literal_to_utf8
 1034              	.LVL108:
 881:SynaptiX_FDK/services/cJSON/cJSON.c ****                     {
 1035              		.loc 1 881 21 is_stmt 1 view .LVU328
 881:SynaptiX_FDK/services/cJSON/cJSON.c ****                     {
 1036              		.loc 1 881 24 is_stmt 0 view .LVU329
 1037 012e 0346     		mov	r3, r0
 1038 0130 0028     		cmp	r0, #0
 1039 0132 F5D1     		bne	.L81
 1040 0134 BFE7     		b	.L71
 1041              	.LVL109:
 1042              	.L88:
 881:SynaptiX_FDK/services/cJSON/cJSON.c ****                     {
 1043              		.loc 1 881 24 view .LVU330
 1044              	.LBE9:
 896:SynaptiX_FDK/services/cJSON/cJSON.c **** 
 1045              		.loc 1 896 5 is_stmt 1 view .LVU331
 896:SynaptiX_FDK/services/cJSON/cJSON.c **** 
 1046              		.loc 1 896 21 is_stmt 0 view .LVU332
 1047 0136 019B     		ldr	r3, [sp, #4]
 1048 0138 0022     		movs	r2, #0
 1049 013a 1A70     		strb	r2, [r3]
 898:SynaptiX_FDK/services/cJSON/cJSON.c ****     item->valuestring = (char*)output;
 1050              		.loc 1 898 5 is_stmt 1 view .LVU333
 898:SynaptiX_FDK/services/cJSON/cJSON.c ****     item->valuestring = (char*)output;
 1051              		.loc 1 898 16 is_stmt 0 view .LVU334
 1052 013c 1023     		movs	r3, #16
 1053 013e C8F80C30 		str	r3, [r8, #12]
 899:SynaptiX_FDK/services/cJSON/cJSON.c **** 
 1054              		.loc 1 899 5 is_stmt 1 view .LVU335
 899:SynaptiX_FDK/services/cJSON/cJSON.c **** 
 1055              		.loc 1 899 23 is_stmt 0 view .LVU336
 1056 0142 C8F81060 		str	r6, [r8, #16]
 901:SynaptiX_FDK/services/cJSON/cJSON.c ****     input_buffer->offset++;
 1057              		.loc 1 901 5 is_stmt 1 view .LVU337
 901:SynaptiX_FDK/services/cJSON/cJSON.c ****     input_buffer->offset++;
 1058              		.loc 1 901 62 is_stmt 0 view .LVU338
 1059 0146 2B68     		ldr	r3, [r5]
ARM GAS  C:\Users\DELL\AppData\Local\Temp\ccXjhdgA.s 			page 38


 901:SynaptiX_FDK/services/cJSON/cJSON.c ****     input_buffer->offset++;
 1060              		.loc 1 901 48 view .LVU339
 1061 0148 E41A     		subs	r4, r4, r3
 1062              	.LVL110:
 901:SynaptiX_FDK/services/cJSON/cJSON.c ****     input_buffer->offset++;
 1063              		.loc 1 901 26 view .LVU340
 1064 014a AC60     		str	r4, [r5, #8]
 902:SynaptiX_FDK/services/cJSON/cJSON.c **** 
 1065              		.loc 1 902 5 is_stmt 1 view .LVU341
 902:SynaptiX_FDK/services/cJSON/cJSON.c **** 
 1066              		.loc 1 902 25 is_stmt 0 view .LVU342
 1067 014c 0134     		adds	r4, r4, #1
 1068 014e AC60     		str	r4, [r5, #8]
 904:SynaptiX_FDK/services/cJSON/cJSON.c **** 
 1069              		.loc 1 904 5 is_stmt 1 view .LVU343
 904:SynaptiX_FDK/services/cJSON/cJSON.c **** 
 1070              		.loc 1 904 12 is_stmt 0 view .LVU344
 1071 0150 0120     		movs	r0, #1
 1072 0152 B9E7     		b	.L62
 1073              	.LVL111:
 1074              	.L84:
 918:SynaptiX_FDK/services/cJSON/cJSON.c **** }
 1075              		.loc 1 918 12 view .LVU345
 1076 0154 0020     		movs	r0, #0
 1077 0156 B7E7     		b	.L62
 1078              		.cfi_endproc
 1079              	.LFE23:
 1081              		.section	.text.buffer_skip_whitespace,"ax",%progbits
 1082              		.align	1
 1083              		.syntax unified
 1084              		.thumb
 1085              		.thumb_func
 1087              	buffer_skip_whitespace:
 1088              	.LVL112:
 1089              	.LFB26:
 920:SynaptiX_FDK/services/cJSON/cJSON.c **** 
 921:SynaptiX_FDK/services/cJSON/cJSON.c **** /* Render the cstring provided to an escaped version that can be printed. */
 922:SynaptiX_FDK/services/cJSON/cJSON.c **** static cJSON_bool print_string_ptr(const unsigned char * const input, printbuffer * const output_bu
 923:SynaptiX_FDK/services/cJSON/cJSON.c **** {
 924:SynaptiX_FDK/services/cJSON/cJSON.c ****     const unsigned char *input_pointer = NULL;
 925:SynaptiX_FDK/services/cJSON/cJSON.c ****     unsigned char *output = NULL;
 926:SynaptiX_FDK/services/cJSON/cJSON.c ****     unsigned char *output_pointer = NULL;
 927:SynaptiX_FDK/services/cJSON/cJSON.c ****     size_t output_length = 0;
 928:SynaptiX_FDK/services/cJSON/cJSON.c ****     /* numbers of additional characters needed for escaping */
 929:SynaptiX_FDK/services/cJSON/cJSON.c ****     size_t escape_characters = 0;
 930:SynaptiX_FDK/services/cJSON/cJSON.c **** 
 931:SynaptiX_FDK/services/cJSON/cJSON.c ****     if (output_buffer == NULL)
 932:SynaptiX_FDK/services/cJSON/cJSON.c ****     {
 933:SynaptiX_FDK/services/cJSON/cJSON.c ****         return false;
 934:SynaptiX_FDK/services/cJSON/cJSON.c ****     }
 935:SynaptiX_FDK/services/cJSON/cJSON.c **** 
 936:SynaptiX_FDK/services/cJSON/cJSON.c ****     /* empty string */
 937:SynaptiX_FDK/services/cJSON/cJSON.c ****     if (input == NULL)
 938:SynaptiX_FDK/services/cJSON/cJSON.c ****     {
 939:SynaptiX_FDK/services/cJSON/cJSON.c ****         output = ensure(output_buffer, sizeof("\"\""));
 940:SynaptiX_FDK/services/cJSON/cJSON.c ****         if (output == NULL)
 941:SynaptiX_FDK/services/cJSON/cJSON.c ****         {
ARM GAS  C:\Users\DELL\AppData\Local\Temp\ccXjhdgA.s 			page 39


 942:SynaptiX_FDK/services/cJSON/cJSON.c ****             return false;
 943:SynaptiX_FDK/services/cJSON/cJSON.c ****         }
 944:SynaptiX_FDK/services/cJSON/cJSON.c ****         strcpy((char*)output, "\"\"");
 945:SynaptiX_FDK/services/cJSON/cJSON.c **** 
 946:SynaptiX_FDK/services/cJSON/cJSON.c ****         return true;
 947:SynaptiX_FDK/services/cJSON/cJSON.c ****     }
 948:SynaptiX_FDK/services/cJSON/cJSON.c **** 
 949:SynaptiX_FDK/services/cJSON/cJSON.c ****     /* set "flag" to 1 if something needs to be escaped */
 950:SynaptiX_FDK/services/cJSON/cJSON.c ****     for (input_pointer = input; *input_pointer; input_pointer++)
 951:SynaptiX_FDK/services/cJSON/cJSON.c ****     {
 952:SynaptiX_FDK/services/cJSON/cJSON.c ****         switch (*input_pointer)
 953:SynaptiX_FDK/services/cJSON/cJSON.c ****         {
 954:SynaptiX_FDK/services/cJSON/cJSON.c ****             case '\"':
 955:SynaptiX_FDK/services/cJSON/cJSON.c ****             case '\\':
 956:SynaptiX_FDK/services/cJSON/cJSON.c ****             case '\b':
 957:SynaptiX_FDK/services/cJSON/cJSON.c ****             case '\f':
 958:SynaptiX_FDK/services/cJSON/cJSON.c ****             case '\n':
 959:SynaptiX_FDK/services/cJSON/cJSON.c ****             case '\r':
 960:SynaptiX_FDK/services/cJSON/cJSON.c ****             case '\t':
 961:SynaptiX_FDK/services/cJSON/cJSON.c ****                 /* one character escape sequence */
 962:SynaptiX_FDK/services/cJSON/cJSON.c ****                 escape_characters++;
 963:SynaptiX_FDK/services/cJSON/cJSON.c ****                 break;
 964:SynaptiX_FDK/services/cJSON/cJSON.c ****             default:
 965:SynaptiX_FDK/services/cJSON/cJSON.c ****                 if (*input_pointer < 32)
 966:SynaptiX_FDK/services/cJSON/cJSON.c ****                 {
 967:SynaptiX_FDK/services/cJSON/cJSON.c ****                     /* UTF-16 escape sequence uXXXX */
 968:SynaptiX_FDK/services/cJSON/cJSON.c ****                     escape_characters += 5;
 969:SynaptiX_FDK/services/cJSON/cJSON.c ****                 }
 970:SynaptiX_FDK/services/cJSON/cJSON.c ****                 break;
 971:SynaptiX_FDK/services/cJSON/cJSON.c ****         }
 972:SynaptiX_FDK/services/cJSON/cJSON.c ****     }
 973:SynaptiX_FDK/services/cJSON/cJSON.c ****     output_length = (size_t)(input_pointer - input) + escape_characters;
 974:SynaptiX_FDK/services/cJSON/cJSON.c **** 
 975:SynaptiX_FDK/services/cJSON/cJSON.c ****     output = ensure(output_buffer, output_length + sizeof("\"\""));
 976:SynaptiX_FDK/services/cJSON/cJSON.c ****     if (output == NULL)
 977:SynaptiX_FDK/services/cJSON/cJSON.c ****     {
 978:SynaptiX_FDK/services/cJSON/cJSON.c ****         return false;
 979:SynaptiX_FDK/services/cJSON/cJSON.c ****     }
 980:SynaptiX_FDK/services/cJSON/cJSON.c **** 
 981:SynaptiX_FDK/services/cJSON/cJSON.c ****     /* no characters have to be escaped */
 982:SynaptiX_FDK/services/cJSON/cJSON.c ****     if (escape_characters == 0)
 983:SynaptiX_FDK/services/cJSON/cJSON.c ****     {
 984:SynaptiX_FDK/services/cJSON/cJSON.c ****         output[0] = '\"';
 985:SynaptiX_FDK/services/cJSON/cJSON.c ****         memcpy(output + 1, input, output_length);
 986:SynaptiX_FDK/services/cJSON/cJSON.c ****         output[output_length + 1] = '\"';
 987:SynaptiX_FDK/services/cJSON/cJSON.c ****         output[output_length + 2] = '\0';
 988:SynaptiX_FDK/services/cJSON/cJSON.c **** 
 989:SynaptiX_FDK/services/cJSON/cJSON.c ****         return true;
 990:SynaptiX_FDK/services/cJSON/cJSON.c ****     }
 991:SynaptiX_FDK/services/cJSON/cJSON.c **** 
 992:SynaptiX_FDK/services/cJSON/cJSON.c ****     output[0] = '\"';
 993:SynaptiX_FDK/services/cJSON/cJSON.c ****     output_pointer = output + 1;
 994:SynaptiX_FDK/services/cJSON/cJSON.c ****     /* copy the string */
 995:SynaptiX_FDK/services/cJSON/cJSON.c ****     for (input_pointer = input; *input_pointer != '\0'; (void)input_pointer++, output_pointer++)
 996:SynaptiX_FDK/services/cJSON/cJSON.c ****     {
 997:SynaptiX_FDK/services/cJSON/cJSON.c ****         if ((*input_pointer > 31) && (*input_pointer != '\"') && (*input_pointer != '\\'))
 998:SynaptiX_FDK/services/cJSON/cJSON.c ****         {
ARM GAS  C:\Users\DELL\AppData\Local\Temp\ccXjhdgA.s 			page 40


 999:SynaptiX_FDK/services/cJSON/cJSON.c ****             /* normal character, copy */
1000:SynaptiX_FDK/services/cJSON/cJSON.c ****             *output_pointer = *input_pointer;
1001:SynaptiX_FDK/services/cJSON/cJSON.c ****         }
1002:SynaptiX_FDK/services/cJSON/cJSON.c ****         else
1003:SynaptiX_FDK/services/cJSON/cJSON.c ****         {
1004:SynaptiX_FDK/services/cJSON/cJSON.c ****             /* character needs to be escaped */
1005:SynaptiX_FDK/services/cJSON/cJSON.c ****             *output_pointer++ = '\\';
1006:SynaptiX_FDK/services/cJSON/cJSON.c ****             switch (*input_pointer)
1007:SynaptiX_FDK/services/cJSON/cJSON.c ****             {
1008:SynaptiX_FDK/services/cJSON/cJSON.c ****                 case '\\':
1009:SynaptiX_FDK/services/cJSON/cJSON.c ****                     *output_pointer = '\\';
1010:SynaptiX_FDK/services/cJSON/cJSON.c ****                     break;
1011:SynaptiX_FDK/services/cJSON/cJSON.c ****                 case '\"':
1012:SynaptiX_FDK/services/cJSON/cJSON.c ****                     *output_pointer = '\"';
1013:SynaptiX_FDK/services/cJSON/cJSON.c ****                     break;
1014:SynaptiX_FDK/services/cJSON/cJSON.c ****                 case '\b':
1015:SynaptiX_FDK/services/cJSON/cJSON.c ****                     *output_pointer = 'b';
1016:SynaptiX_FDK/services/cJSON/cJSON.c ****                     break;
1017:SynaptiX_FDK/services/cJSON/cJSON.c ****                 case '\f':
1018:SynaptiX_FDK/services/cJSON/cJSON.c ****                     *output_pointer = 'f';
1019:SynaptiX_FDK/services/cJSON/cJSON.c ****                     break;
1020:SynaptiX_FDK/services/cJSON/cJSON.c ****                 case '\n':
1021:SynaptiX_FDK/services/cJSON/cJSON.c ****                     *output_pointer = 'n';
1022:SynaptiX_FDK/services/cJSON/cJSON.c ****                     break;
1023:SynaptiX_FDK/services/cJSON/cJSON.c ****                 case '\r':
1024:SynaptiX_FDK/services/cJSON/cJSON.c ****                     *output_pointer = 'r';
1025:SynaptiX_FDK/services/cJSON/cJSON.c ****                     break;
1026:SynaptiX_FDK/services/cJSON/cJSON.c ****                 case '\t':
1027:SynaptiX_FDK/services/cJSON/cJSON.c ****                     *output_pointer = 't';
1028:SynaptiX_FDK/services/cJSON/cJSON.c ****                     break;
1029:SynaptiX_FDK/services/cJSON/cJSON.c ****                 default:
1030:SynaptiX_FDK/services/cJSON/cJSON.c ****                     /* escape and print as unicode codepoint */
1031:SynaptiX_FDK/services/cJSON/cJSON.c ****                     sprintf((char*)output_pointer, "u%04x", *input_pointer);
1032:SynaptiX_FDK/services/cJSON/cJSON.c ****                     output_pointer += 4;
1033:SynaptiX_FDK/services/cJSON/cJSON.c ****                     break;
1034:SynaptiX_FDK/services/cJSON/cJSON.c ****             }
1035:SynaptiX_FDK/services/cJSON/cJSON.c ****         }
1036:SynaptiX_FDK/services/cJSON/cJSON.c ****     }
1037:SynaptiX_FDK/services/cJSON/cJSON.c ****     output[output_length + 1] = '\"';
1038:SynaptiX_FDK/services/cJSON/cJSON.c ****     output[output_length + 2] = '\0';
1039:SynaptiX_FDK/services/cJSON/cJSON.c **** 
1040:SynaptiX_FDK/services/cJSON/cJSON.c ****     return true;
1041:SynaptiX_FDK/services/cJSON/cJSON.c **** }
1042:SynaptiX_FDK/services/cJSON/cJSON.c **** 
1043:SynaptiX_FDK/services/cJSON/cJSON.c **** /* Invoke print_string_ptr (which is useful) on an item. */
1044:SynaptiX_FDK/services/cJSON/cJSON.c **** static cJSON_bool print_string(const cJSON * const item, printbuffer * const p)
1045:SynaptiX_FDK/services/cJSON/cJSON.c **** {
1046:SynaptiX_FDK/services/cJSON/cJSON.c ****     return print_string_ptr((unsigned char*)item->valuestring, p);
1047:SynaptiX_FDK/services/cJSON/cJSON.c **** }
1048:SynaptiX_FDK/services/cJSON/cJSON.c **** 
1049:SynaptiX_FDK/services/cJSON/cJSON.c **** /* Predeclare these prototypes. */
1050:SynaptiX_FDK/services/cJSON/cJSON.c **** static cJSON_bool parse_value(cJSON * const item, parse_buffer * const input_buffer);
1051:SynaptiX_FDK/services/cJSON/cJSON.c **** static cJSON_bool print_value(const cJSON * const item, printbuffer * const output_buffer);
1052:SynaptiX_FDK/services/cJSON/cJSON.c **** static cJSON_bool parse_array(cJSON * const item, parse_buffer * const input_buffer);
1053:SynaptiX_FDK/services/cJSON/cJSON.c **** static cJSON_bool print_array(const cJSON * const item, printbuffer * const output_buffer);
1054:SynaptiX_FDK/services/cJSON/cJSON.c **** static cJSON_bool parse_object(cJSON * const item, parse_buffer * const input_buffer);
1055:SynaptiX_FDK/services/cJSON/cJSON.c **** static cJSON_bool print_object(const cJSON * const item, printbuffer * const output_buffer);
ARM GAS  C:\Users\DELL\AppData\Local\Temp\ccXjhdgA.s 			page 41


1056:SynaptiX_FDK/services/cJSON/cJSON.c **** 
1057:SynaptiX_FDK/services/cJSON/cJSON.c **** /* Utility to jump whitespace and cr/lf */
1058:SynaptiX_FDK/services/cJSON/cJSON.c **** static parse_buffer *buffer_skip_whitespace(parse_buffer * const buffer)
1059:SynaptiX_FDK/services/cJSON/cJSON.c **** {
 1090              		.loc 1 1059 1 is_stmt 1 view -0
 1091              		.cfi_startproc
 1092              		@ args = 0, pretend = 0, frame = 0
 1093              		@ frame_needed = 0, uses_anonymous_args = 0
 1094              		@ link register save eliminated.
1060:SynaptiX_FDK/services/cJSON/cJSON.c ****     if ((buffer == NULL) || (buffer->content == NULL))
 1095              		.loc 1 1060 5 view .LVU347
 1096              		.loc 1 1060 8 is_stmt 0 view .LVU348
 1097 0000 0246     		mov	r2, r0
 1098 0002 D8B1     		cbz	r0, .L97
1059:SynaptiX_FDK/services/cJSON/cJSON.c ****     if ((buffer == NULL) || (buffer->content == NULL))
 1099              		.loc 1 1059 1 view .LVU349
 1100 0004 10B4     		push	{r4}
 1101              	.LCFI9:
 1102              		.cfi_def_cfa_offset 4
 1103              		.cfi_offset 4, -4
 1104              		.loc 1 1060 36 discriminator 1 view .LVU350
 1105 0006 0468     		ldr	r4, [r0]
 1106              		.loc 1 1060 26 discriminator 1 view .LVU351
 1107 0008 B4B1     		cbz	r4, .L95
1061:SynaptiX_FDK/services/cJSON/cJSON.c ****     {
1062:SynaptiX_FDK/services/cJSON/cJSON.c ****         return NULL;
1063:SynaptiX_FDK/services/cJSON/cJSON.c ****     }
1064:SynaptiX_FDK/services/cJSON/cJSON.c **** 
1065:SynaptiX_FDK/services/cJSON/cJSON.c ****     if (cannot_access_at_index(buffer, 0))
 1108              		.loc 1 1065 5 is_stmt 1 view .LVU352
 1109              		.loc 1 1065 9 is_stmt 0 discriminator 1 view .LVU353
 1110 000a 8368     		ldr	r3, [r0, #8]
 1111 000c 4068     		ldr	r0, [r0, #4]
 1112              	.LVL113:
 1113              		.loc 1 1065 9 discriminator 1 view .LVU354
 1114 000e 8342     		cmp	r3, r0
 1115 0010 02D3     		bcc	.L92
 1116 0012 0AE0     		b	.L91
 1117              	.L94:
1066:SynaptiX_FDK/services/cJSON/cJSON.c ****     {
1067:SynaptiX_FDK/services/cJSON/cJSON.c ****         return buffer;
1068:SynaptiX_FDK/services/cJSON/cJSON.c ****     }
1069:SynaptiX_FDK/services/cJSON/cJSON.c **** 
1070:SynaptiX_FDK/services/cJSON/cJSON.c ****     while (can_access_at_index(buffer, 0) && (buffer_at_offset(buffer)[0] <= 32))
1071:SynaptiX_FDK/services/cJSON/cJSON.c ****     {
1072:SynaptiX_FDK/services/cJSON/cJSON.c ****        buffer->offset++;
 1118              		.loc 1 1072 8 is_stmt 1 view .LVU355
 1119              		.loc 1 1072 22 is_stmt 0 view .LVU356
 1120 0014 0133     		adds	r3, r3, #1
 1121 0016 9360     		str	r3, [r2, #8]
 1122              	.L92:
1070:SynaptiX_FDK/services/cJSON/cJSON.c ****     {
 1123              		.loc 1 1070 43 is_stmt 1 view .LVU357
1070:SynaptiX_FDK/services/cJSON/cJSON.c ****     {
 1124              		.loc 1 1070 12 is_stmt 0 discriminator 1 view .LVU358
 1125 0018 9368     		ldr	r3, [r2, #8]
 1126 001a 9842     		cmp	r0, r3
ARM GAS  C:\Users\DELL\AppData\Local\Temp\ccXjhdgA.s 			page 42


 1127 001c 02D9     		bls	.L93
1070:SynaptiX_FDK/services/cJSON/cJSON.c ****     {
 1128              		.loc 1 1070 71 discriminator 2 view .LVU359
 1129 001e E15C     		ldrb	r1, [r4, r3]	@ zero_extendqisi2
1070:SynaptiX_FDK/services/cJSON/cJSON.c ****     {
 1130              		.loc 1 1070 43 discriminator 2 view .LVU360
 1131 0020 2029     		cmp	r1, #32
 1132 0022 F7D9     		bls	.L94
 1133              	.L93:
1073:SynaptiX_FDK/services/cJSON/cJSON.c ****     }
1074:SynaptiX_FDK/services/cJSON/cJSON.c **** 
1075:SynaptiX_FDK/services/cJSON/cJSON.c ****     if (buffer->offset == buffer->length)
 1134              		.loc 1 1075 5 is_stmt 1 view .LVU361
 1135              		.loc 1 1075 15 is_stmt 0 view .LVU362
 1136 0024 9368     		ldr	r3, [r2, #8]
 1137              		.loc 1 1075 8 view .LVU363
 1138 0026 9842     		cmp	r0, r3
 1139 0028 03D0     		beq	.L100
 1140              	.LVL114:
 1141              	.L91:
1076:SynaptiX_FDK/services/cJSON/cJSON.c ****     {
1077:SynaptiX_FDK/services/cJSON/cJSON.c ****         buffer->offset--;
1078:SynaptiX_FDK/services/cJSON/cJSON.c ****     }
1079:SynaptiX_FDK/services/cJSON/cJSON.c **** 
1080:SynaptiX_FDK/services/cJSON/cJSON.c ****     return buffer;
1081:SynaptiX_FDK/services/cJSON/cJSON.c **** }
 1142              		.loc 1 1081 1 view .LVU364
 1143 002a 1046     		mov	r0, r2
 1144 002c 5DF8044B 		ldr	r4, [sp], #4
 1145 0030 7047     		bx	lr
 1146              	.LVL115:
 1147              	.L100:
1077:SynaptiX_FDK/services/cJSON/cJSON.c ****     }
 1148              		.loc 1 1077 9 is_stmt 1 view .LVU365
1077:SynaptiX_FDK/services/cJSON/cJSON.c ****     }
 1149              		.loc 1 1077 23 is_stmt 0 view .LVU366
 1150 0032 013B     		subs	r3, r3, #1
 1151 0034 9360     		str	r3, [r2, #8]
 1152 0036 F8E7     		b	.L91
 1153              	.LVL116:
 1154              	.L95:
1062:SynaptiX_FDK/services/cJSON/cJSON.c ****     }
 1155              		.loc 1 1062 16 view .LVU367
 1156 0038 2246     		mov	r2, r4
 1157 003a F6E7     		b	.L91
 1158              	.L97:
 1159              	.LCFI10:
 1160              		.cfi_def_cfa_offset 0
 1161              		.cfi_restore 4
 1162              		.loc 1 1081 1 view .LVU368
 1163 003c 7047     		bx	lr
 1164              		.cfi_endproc
 1165              	.LFE26:
 1167              		.section	.text.get_array_item,"ax",%progbits
 1168              		.align	1
 1169              		.syntax unified
 1170              		.thumb
ARM GAS  C:\Users\DELL\AppData\Local\Temp\ccXjhdgA.s 			page 43


 1171              		.thumb_func
 1173              	get_array_item:
 1174              	.LVL117:
 1175              	.LFB44:
1082:SynaptiX_FDK/services/cJSON/cJSON.c **** 
1083:SynaptiX_FDK/services/cJSON/cJSON.c **** /* skip the UTF-8 BOM (byte order mark) if it is at the beginning of a buffer */
1084:SynaptiX_FDK/services/cJSON/cJSON.c **** static parse_buffer *skip_utf8_bom(parse_buffer * const buffer)
1085:SynaptiX_FDK/services/cJSON/cJSON.c **** {
1086:SynaptiX_FDK/services/cJSON/cJSON.c ****     if ((buffer == NULL) || (buffer->content == NULL) || (buffer->offset != 0))
1087:SynaptiX_FDK/services/cJSON/cJSON.c ****     {
1088:SynaptiX_FDK/services/cJSON/cJSON.c ****         return NULL;
1089:SynaptiX_FDK/services/cJSON/cJSON.c ****     }
1090:SynaptiX_FDK/services/cJSON/cJSON.c **** 
1091:SynaptiX_FDK/services/cJSON/cJSON.c ****     if (can_access_at_index(buffer, 4) && (strncmp((const char*)buffer_at_offset(buffer), "\xEF\xBB
1092:SynaptiX_FDK/services/cJSON/cJSON.c ****     {
1093:SynaptiX_FDK/services/cJSON/cJSON.c ****         buffer->offset += 3;
1094:SynaptiX_FDK/services/cJSON/cJSON.c ****     }
1095:SynaptiX_FDK/services/cJSON/cJSON.c **** 
1096:SynaptiX_FDK/services/cJSON/cJSON.c ****     return buffer;
1097:SynaptiX_FDK/services/cJSON/cJSON.c **** }
1098:SynaptiX_FDK/services/cJSON/cJSON.c **** 
1099:SynaptiX_FDK/services/cJSON/cJSON.c **** CJSON_PUBLIC(cJSON *) cJSON_ParseWithOpts(const char *value, const char **return_parse_end, cJSON_b
1100:SynaptiX_FDK/services/cJSON/cJSON.c **** {
1101:SynaptiX_FDK/services/cJSON/cJSON.c ****     size_t buffer_length;
1102:SynaptiX_FDK/services/cJSON/cJSON.c **** 
1103:SynaptiX_FDK/services/cJSON/cJSON.c ****     if (NULL == value)
1104:SynaptiX_FDK/services/cJSON/cJSON.c ****     {
1105:SynaptiX_FDK/services/cJSON/cJSON.c ****         return NULL;
1106:SynaptiX_FDK/services/cJSON/cJSON.c ****     }
1107:SynaptiX_FDK/services/cJSON/cJSON.c **** 
1108:SynaptiX_FDK/services/cJSON/cJSON.c ****     /* Adding null character size due to require_null_terminated. */
1109:SynaptiX_FDK/services/cJSON/cJSON.c ****     buffer_length = strlen(value) + sizeof("");
1110:SynaptiX_FDK/services/cJSON/cJSON.c **** 
1111:SynaptiX_FDK/services/cJSON/cJSON.c ****     return cJSON_ParseWithLengthOpts(value, buffer_length, return_parse_end, require_null_terminate
1112:SynaptiX_FDK/services/cJSON/cJSON.c **** }
1113:SynaptiX_FDK/services/cJSON/cJSON.c **** 
1114:SynaptiX_FDK/services/cJSON/cJSON.c **** /* Parse an object - create a new root, and populate. */
1115:SynaptiX_FDK/services/cJSON/cJSON.c **** CJSON_PUBLIC(cJSON *) cJSON_ParseWithLengthOpts(const char *value, size_t buffer_length, const char
1116:SynaptiX_FDK/services/cJSON/cJSON.c **** {
1117:SynaptiX_FDK/services/cJSON/cJSON.c ****     parse_buffer buffer = { 0, 0, 0, 0, { 0, 0, 0 } };
1118:SynaptiX_FDK/services/cJSON/cJSON.c ****     cJSON *item = NULL;
1119:SynaptiX_FDK/services/cJSON/cJSON.c **** 
1120:SynaptiX_FDK/services/cJSON/cJSON.c ****     /* reset error position */
1121:SynaptiX_FDK/services/cJSON/cJSON.c ****     global_error.json = NULL;
1122:SynaptiX_FDK/services/cJSON/cJSON.c ****     global_error.position = 0;
1123:SynaptiX_FDK/services/cJSON/cJSON.c **** 
1124:SynaptiX_FDK/services/cJSON/cJSON.c ****     if (value == NULL || 0 == buffer_length)
1125:SynaptiX_FDK/services/cJSON/cJSON.c ****     {
1126:SynaptiX_FDK/services/cJSON/cJSON.c ****         goto fail;
1127:SynaptiX_FDK/services/cJSON/cJSON.c ****     }
1128:SynaptiX_FDK/services/cJSON/cJSON.c **** 
1129:SynaptiX_FDK/services/cJSON/cJSON.c ****     buffer.content = (const unsigned char*)value;
1130:SynaptiX_FDK/services/cJSON/cJSON.c ****     buffer.length = buffer_length;
1131:SynaptiX_FDK/services/cJSON/cJSON.c ****     buffer.offset = 0;
1132:SynaptiX_FDK/services/cJSON/cJSON.c ****     buffer.hooks = global_hooks;
1133:SynaptiX_FDK/services/cJSON/cJSON.c **** 
1134:SynaptiX_FDK/services/cJSON/cJSON.c ****     item = cJSON_New_Item(&global_hooks);
ARM GAS  C:\Users\DELL\AppData\Local\Temp\ccXjhdgA.s 			page 44


1135:SynaptiX_FDK/services/cJSON/cJSON.c ****     if (item == NULL) /* memory fail */
1136:SynaptiX_FDK/services/cJSON/cJSON.c ****     {
1137:SynaptiX_FDK/services/cJSON/cJSON.c ****         goto fail;
1138:SynaptiX_FDK/services/cJSON/cJSON.c ****     }
1139:SynaptiX_FDK/services/cJSON/cJSON.c **** 
1140:SynaptiX_FDK/services/cJSON/cJSON.c ****     if (!parse_value(item, buffer_skip_whitespace(skip_utf8_bom(&buffer))))
1141:SynaptiX_FDK/services/cJSON/cJSON.c ****     {
1142:SynaptiX_FDK/services/cJSON/cJSON.c ****         /* parse failure. ep is set. */
1143:SynaptiX_FDK/services/cJSON/cJSON.c ****         goto fail;
1144:SynaptiX_FDK/services/cJSON/cJSON.c ****     }
1145:SynaptiX_FDK/services/cJSON/cJSON.c **** 
1146:SynaptiX_FDK/services/cJSON/cJSON.c ****     /* if we require null-terminated JSON without appended garbage, skip and then check for a null 
1147:SynaptiX_FDK/services/cJSON/cJSON.c ****     if (require_null_terminated)
1148:SynaptiX_FDK/services/cJSON/cJSON.c ****     {
1149:SynaptiX_FDK/services/cJSON/cJSON.c ****         buffer_skip_whitespace(&buffer);
1150:SynaptiX_FDK/services/cJSON/cJSON.c ****         if ((buffer.offset >= buffer.length) || buffer_at_offset(&buffer)[0] != '\0')
1151:SynaptiX_FDK/services/cJSON/cJSON.c ****         {
1152:SynaptiX_FDK/services/cJSON/cJSON.c ****             goto fail;
1153:SynaptiX_FDK/services/cJSON/cJSON.c ****         }
1154:SynaptiX_FDK/services/cJSON/cJSON.c ****     }
1155:SynaptiX_FDK/services/cJSON/cJSON.c ****     if (return_parse_end)
1156:SynaptiX_FDK/services/cJSON/cJSON.c ****     {
1157:SynaptiX_FDK/services/cJSON/cJSON.c ****         *return_parse_end = (const char*)buffer_at_offset(&buffer);
1158:SynaptiX_FDK/services/cJSON/cJSON.c ****     }
1159:SynaptiX_FDK/services/cJSON/cJSON.c **** 
1160:SynaptiX_FDK/services/cJSON/cJSON.c ****     return item;
1161:SynaptiX_FDK/services/cJSON/cJSON.c **** 
1162:SynaptiX_FDK/services/cJSON/cJSON.c **** fail:
1163:SynaptiX_FDK/services/cJSON/cJSON.c ****     if (item != NULL)
1164:SynaptiX_FDK/services/cJSON/cJSON.c ****     {
1165:SynaptiX_FDK/services/cJSON/cJSON.c ****         cJSON_Delete(item);
1166:SynaptiX_FDK/services/cJSON/cJSON.c ****     }
1167:SynaptiX_FDK/services/cJSON/cJSON.c **** 
1168:SynaptiX_FDK/services/cJSON/cJSON.c ****     if (value != NULL)
1169:SynaptiX_FDK/services/cJSON/cJSON.c ****     {
1170:SynaptiX_FDK/services/cJSON/cJSON.c ****         error local_error;
1171:SynaptiX_FDK/services/cJSON/cJSON.c ****         local_error.json = (const unsigned char*)value;
1172:SynaptiX_FDK/services/cJSON/cJSON.c ****         local_error.position = 0;
1173:SynaptiX_FDK/services/cJSON/cJSON.c **** 
1174:SynaptiX_FDK/services/cJSON/cJSON.c ****         if (buffer.offset < buffer.length)
1175:SynaptiX_FDK/services/cJSON/cJSON.c ****         {
1176:SynaptiX_FDK/services/cJSON/cJSON.c ****             local_error.position = buffer.offset;
1177:SynaptiX_FDK/services/cJSON/cJSON.c ****         }
1178:SynaptiX_FDK/services/cJSON/cJSON.c ****         else if (buffer.length > 0)
1179:SynaptiX_FDK/services/cJSON/cJSON.c ****         {
1180:SynaptiX_FDK/services/cJSON/cJSON.c ****             local_error.position = buffer.length - 1;
1181:SynaptiX_FDK/services/cJSON/cJSON.c ****         }
1182:SynaptiX_FDK/services/cJSON/cJSON.c **** 
1183:SynaptiX_FDK/services/cJSON/cJSON.c ****         if (return_parse_end != NULL)
1184:SynaptiX_FDK/services/cJSON/cJSON.c ****         {
1185:SynaptiX_FDK/services/cJSON/cJSON.c ****             *return_parse_end = (const char*)local_error.json + local_error.position;
1186:SynaptiX_FDK/services/cJSON/cJSON.c ****         }
1187:SynaptiX_FDK/services/cJSON/cJSON.c **** 
1188:SynaptiX_FDK/services/cJSON/cJSON.c ****         global_error = local_error;
1189:SynaptiX_FDK/services/cJSON/cJSON.c ****     }
1190:SynaptiX_FDK/services/cJSON/cJSON.c **** 
1191:SynaptiX_FDK/services/cJSON/cJSON.c ****     return NULL;
ARM GAS  C:\Users\DELL\AppData\Local\Temp\ccXjhdgA.s 			page 45


1192:SynaptiX_FDK/services/cJSON/cJSON.c **** }
1193:SynaptiX_FDK/services/cJSON/cJSON.c **** 
1194:SynaptiX_FDK/services/cJSON/cJSON.c **** /* Default options for cJSON_Parse */
1195:SynaptiX_FDK/services/cJSON/cJSON.c **** CJSON_PUBLIC(cJSON *) cJSON_Parse(const char *value)
1196:SynaptiX_FDK/services/cJSON/cJSON.c **** {
1197:SynaptiX_FDK/services/cJSON/cJSON.c ****     return cJSON_ParseWithOpts(value, 0, 0);
1198:SynaptiX_FDK/services/cJSON/cJSON.c **** }
1199:SynaptiX_FDK/services/cJSON/cJSON.c **** 
1200:SynaptiX_FDK/services/cJSON/cJSON.c **** CJSON_PUBLIC(cJSON *) cJSON_ParseWithLength(const char *value, size_t buffer_length)
1201:SynaptiX_FDK/services/cJSON/cJSON.c **** {
1202:SynaptiX_FDK/services/cJSON/cJSON.c ****     return cJSON_ParseWithLengthOpts(value, buffer_length, 0, 0);
1203:SynaptiX_FDK/services/cJSON/cJSON.c **** }
1204:SynaptiX_FDK/services/cJSON/cJSON.c **** 
1205:SynaptiX_FDK/services/cJSON/cJSON.c **** #define cjson_min(a, b) (((a) < (b)) ? (a) : (b))
1206:SynaptiX_FDK/services/cJSON/cJSON.c **** 
1207:SynaptiX_FDK/services/cJSON/cJSON.c **** static unsigned char *print(const cJSON * const item, cJSON_bool format, const internal_hooks * con
1208:SynaptiX_FDK/services/cJSON/cJSON.c **** {
1209:SynaptiX_FDK/services/cJSON/cJSON.c ****     static const size_t default_buffer_size = 256;
1210:SynaptiX_FDK/services/cJSON/cJSON.c ****     printbuffer buffer[1];
1211:SynaptiX_FDK/services/cJSON/cJSON.c ****     unsigned char *printed = NULL;
1212:SynaptiX_FDK/services/cJSON/cJSON.c **** 
1213:SynaptiX_FDK/services/cJSON/cJSON.c ****     memset(buffer, 0, sizeof(buffer));
1214:SynaptiX_FDK/services/cJSON/cJSON.c **** 
1215:SynaptiX_FDK/services/cJSON/cJSON.c ****     /* create buffer */
1216:SynaptiX_FDK/services/cJSON/cJSON.c ****     buffer->buffer = (unsigned char*) hooks->allocate(default_buffer_size);
1217:SynaptiX_FDK/services/cJSON/cJSON.c ****     buffer->length = default_buffer_size;
1218:SynaptiX_FDK/services/cJSON/cJSON.c ****     buffer->format = format;
1219:SynaptiX_FDK/services/cJSON/cJSON.c ****     buffer->hooks = *hooks;
1220:SynaptiX_FDK/services/cJSON/cJSON.c ****     if (buffer->buffer == NULL)
1221:SynaptiX_FDK/services/cJSON/cJSON.c ****     {
1222:SynaptiX_FDK/services/cJSON/cJSON.c ****         goto fail;
1223:SynaptiX_FDK/services/cJSON/cJSON.c ****     }
1224:SynaptiX_FDK/services/cJSON/cJSON.c **** 
1225:SynaptiX_FDK/services/cJSON/cJSON.c ****     /* print the value */
1226:SynaptiX_FDK/services/cJSON/cJSON.c ****     if (!print_value(item, buffer))
1227:SynaptiX_FDK/services/cJSON/cJSON.c ****     {
1228:SynaptiX_FDK/services/cJSON/cJSON.c ****         goto fail;
1229:SynaptiX_FDK/services/cJSON/cJSON.c ****     }
1230:SynaptiX_FDK/services/cJSON/cJSON.c ****     update_offset(buffer);
1231:SynaptiX_FDK/services/cJSON/cJSON.c **** 
1232:SynaptiX_FDK/services/cJSON/cJSON.c ****     /* check if reallocate is available */
1233:SynaptiX_FDK/services/cJSON/cJSON.c ****     if (hooks->reallocate != NULL)
1234:SynaptiX_FDK/services/cJSON/cJSON.c ****     {
1235:SynaptiX_FDK/services/cJSON/cJSON.c ****         printed = (unsigned char*) hooks->reallocate(buffer->buffer, buffer->offset + 1);
1236:SynaptiX_FDK/services/cJSON/cJSON.c ****         if (printed == NULL) {
1237:SynaptiX_FDK/services/cJSON/cJSON.c ****             goto fail;
1238:SynaptiX_FDK/services/cJSON/cJSON.c ****         }
1239:SynaptiX_FDK/services/cJSON/cJSON.c ****         buffer->buffer = NULL;
1240:SynaptiX_FDK/services/cJSON/cJSON.c ****     }
1241:SynaptiX_FDK/services/cJSON/cJSON.c ****     else /* otherwise copy the JSON over to a new buffer */
1242:SynaptiX_FDK/services/cJSON/cJSON.c ****     {
1243:SynaptiX_FDK/services/cJSON/cJSON.c ****         printed = (unsigned char*) hooks->allocate(buffer->offset + 1);
1244:SynaptiX_FDK/services/cJSON/cJSON.c ****         if (printed == NULL)
1245:SynaptiX_FDK/services/cJSON/cJSON.c ****         {
1246:SynaptiX_FDK/services/cJSON/cJSON.c ****             goto fail;
1247:SynaptiX_FDK/services/cJSON/cJSON.c ****         }
1248:SynaptiX_FDK/services/cJSON/cJSON.c ****         memcpy(printed, buffer->buffer, cjson_min(buffer->length, buffer->offset + 1));
ARM GAS  C:\Users\DELL\AppData\Local\Temp\ccXjhdgA.s 			page 46


1249:SynaptiX_FDK/services/cJSON/cJSON.c ****         printed[buffer->offset] = '\0'; /* just to be sure */
1250:SynaptiX_FDK/services/cJSON/cJSON.c **** 
1251:SynaptiX_FDK/services/cJSON/cJSON.c ****         /* free the buffer */
1252:SynaptiX_FDK/services/cJSON/cJSON.c ****         hooks->deallocate(buffer->buffer);
1253:SynaptiX_FDK/services/cJSON/cJSON.c ****         buffer->buffer = NULL;
1254:SynaptiX_FDK/services/cJSON/cJSON.c ****     }
1255:SynaptiX_FDK/services/cJSON/cJSON.c **** 
1256:SynaptiX_FDK/services/cJSON/cJSON.c ****     return printed;
1257:SynaptiX_FDK/services/cJSON/cJSON.c **** 
1258:SynaptiX_FDK/services/cJSON/cJSON.c **** fail:
1259:SynaptiX_FDK/services/cJSON/cJSON.c ****     if (buffer->buffer != NULL)
1260:SynaptiX_FDK/services/cJSON/cJSON.c ****     {
1261:SynaptiX_FDK/services/cJSON/cJSON.c ****         hooks->deallocate(buffer->buffer);
1262:SynaptiX_FDK/services/cJSON/cJSON.c ****         buffer->buffer = NULL;
1263:SynaptiX_FDK/services/cJSON/cJSON.c ****     }
1264:SynaptiX_FDK/services/cJSON/cJSON.c **** 
1265:SynaptiX_FDK/services/cJSON/cJSON.c ****     if (printed != NULL)
1266:SynaptiX_FDK/services/cJSON/cJSON.c ****     {
1267:SynaptiX_FDK/services/cJSON/cJSON.c ****         hooks->deallocate(printed);
1268:SynaptiX_FDK/services/cJSON/cJSON.c ****         printed = NULL;
1269:SynaptiX_FDK/services/cJSON/cJSON.c ****     }
1270:SynaptiX_FDK/services/cJSON/cJSON.c **** 
1271:SynaptiX_FDK/services/cJSON/cJSON.c ****     return NULL;
1272:SynaptiX_FDK/services/cJSON/cJSON.c **** }
1273:SynaptiX_FDK/services/cJSON/cJSON.c **** 
1274:SynaptiX_FDK/services/cJSON/cJSON.c **** /* Render a cJSON item/entity/structure to text. */
1275:SynaptiX_FDK/services/cJSON/cJSON.c **** CJSON_PUBLIC(char *) cJSON_Print(const cJSON *item)
1276:SynaptiX_FDK/services/cJSON/cJSON.c **** {
1277:SynaptiX_FDK/services/cJSON/cJSON.c ****     return (char*)print(item, true, &global_hooks);
1278:SynaptiX_FDK/services/cJSON/cJSON.c **** }
1279:SynaptiX_FDK/services/cJSON/cJSON.c **** 
1280:SynaptiX_FDK/services/cJSON/cJSON.c **** CJSON_PUBLIC(char *) cJSON_PrintUnformatted(const cJSON *item)
1281:SynaptiX_FDK/services/cJSON/cJSON.c **** {
1282:SynaptiX_FDK/services/cJSON/cJSON.c ****     return (char*)print(item, false, &global_hooks);
1283:SynaptiX_FDK/services/cJSON/cJSON.c **** }
1284:SynaptiX_FDK/services/cJSON/cJSON.c **** 
1285:SynaptiX_FDK/services/cJSON/cJSON.c **** CJSON_PUBLIC(char *) cJSON_PrintBuffered(const cJSON *item, int prebuffer, cJSON_bool fmt)
1286:SynaptiX_FDK/services/cJSON/cJSON.c **** {
1287:SynaptiX_FDK/services/cJSON/cJSON.c ****     printbuffer p = { 0, 0, 0, 0, 0, 0, { 0, 0, 0 } };
1288:SynaptiX_FDK/services/cJSON/cJSON.c **** 
1289:SynaptiX_FDK/services/cJSON/cJSON.c ****     if (prebuffer < 0)
1290:SynaptiX_FDK/services/cJSON/cJSON.c ****     {
1291:SynaptiX_FDK/services/cJSON/cJSON.c ****         return NULL;
1292:SynaptiX_FDK/services/cJSON/cJSON.c ****     }
1293:SynaptiX_FDK/services/cJSON/cJSON.c **** 
1294:SynaptiX_FDK/services/cJSON/cJSON.c ****     p.buffer = (unsigned char*)global_hooks.allocate((size_t)prebuffer);
1295:SynaptiX_FDK/services/cJSON/cJSON.c ****     if (!p.buffer)
1296:SynaptiX_FDK/services/cJSON/cJSON.c ****     {
1297:SynaptiX_FDK/services/cJSON/cJSON.c ****         return NULL;
1298:SynaptiX_FDK/services/cJSON/cJSON.c ****     }
1299:SynaptiX_FDK/services/cJSON/cJSON.c **** 
1300:SynaptiX_FDK/services/cJSON/cJSON.c ****     p.length = (size_t)prebuffer;
1301:SynaptiX_FDK/services/cJSON/cJSON.c ****     p.offset = 0;
1302:SynaptiX_FDK/services/cJSON/cJSON.c ****     p.noalloc = false;
1303:SynaptiX_FDK/services/cJSON/cJSON.c ****     p.format = fmt;
1304:SynaptiX_FDK/services/cJSON/cJSON.c ****     p.hooks = global_hooks;
1305:SynaptiX_FDK/services/cJSON/cJSON.c **** 
ARM GAS  C:\Users\DELL\AppData\Local\Temp\ccXjhdgA.s 			page 47


1306:SynaptiX_FDK/services/cJSON/cJSON.c ****     if (!print_value(item, &p))
1307:SynaptiX_FDK/services/cJSON/cJSON.c ****     {
1308:SynaptiX_FDK/services/cJSON/cJSON.c ****         global_hooks.deallocate(p.buffer);
1309:SynaptiX_FDK/services/cJSON/cJSON.c ****         p.buffer = NULL;
1310:SynaptiX_FDK/services/cJSON/cJSON.c ****         return NULL;
1311:SynaptiX_FDK/services/cJSON/cJSON.c ****     }
1312:SynaptiX_FDK/services/cJSON/cJSON.c **** 
1313:SynaptiX_FDK/services/cJSON/cJSON.c ****     return (char*)p.buffer;
1314:SynaptiX_FDK/services/cJSON/cJSON.c **** }
1315:SynaptiX_FDK/services/cJSON/cJSON.c **** 
1316:SynaptiX_FDK/services/cJSON/cJSON.c **** CJSON_PUBLIC(cJSON_bool) cJSON_PrintPreallocated(cJSON *item, char *buffer, const int length, const
1317:SynaptiX_FDK/services/cJSON/cJSON.c **** {
1318:SynaptiX_FDK/services/cJSON/cJSON.c ****     printbuffer p = { 0, 0, 0, 0, 0, 0, { 0, 0, 0 } };
1319:SynaptiX_FDK/services/cJSON/cJSON.c **** 
1320:SynaptiX_FDK/services/cJSON/cJSON.c ****     if ((length < 0) || (buffer == NULL))
1321:SynaptiX_FDK/services/cJSON/cJSON.c ****     {
1322:SynaptiX_FDK/services/cJSON/cJSON.c ****         return false;
1323:SynaptiX_FDK/services/cJSON/cJSON.c ****     }
1324:SynaptiX_FDK/services/cJSON/cJSON.c **** 
1325:SynaptiX_FDK/services/cJSON/cJSON.c ****     p.buffer = (unsigned char*)buffer;
1326:SynaptiX_FDK/services/cJSON/cJSON.c ****     p.length = (size_t)length;
1327:SynaptiX_FDK/services/cJSON/cJSON.c ****     p.offset = 0;
1328:SynaptiX_FDK/services/cJSON/cJSON.c ****     p.noalloc = true;
1329:SynaptiX_FDK/services/cJSON/cJSON.c ****     p.format = format;
1330:SynaptiX_FDK/services/cJSON/cJSON.c ****     p.hooks = global_hooks;
1331:SynaptiX_FDK/services/cJSON/cJSON.c **** 
1332:SynaptiX_FDK/services/cJSON/cJSON.c ****     return print_value(item, &p);
1333:SynaptiX_FDK/services/cJSON/cJSON.c **** }
1334:SynaptiX_FDK/services/cJSON/cJSON.c **** 
1335:SynaptiX_FDK/services/cJSON/cJSON.c **** /* Parser core - when encountering text, process appropriately. */
1336:SynaptiX_FDK/services/cJSON/cJSON.c **** static cJSON_bool parse_value(cJSON * const item, parse_buffer * const input_buffer)
1337:SynaptiX_FDK/services/cJSON/cJSON.c **** {
1338:SynaptiX_FDK/services/cJSON/cJSON.c ****     if ((input_buffer == NULL) || (input_buffer->content == NULL))
1339:SynaptiX_FDK/services/cJSON/cJSON.c ****     {
1340:SynaptiX_FDK/services/cJSON/cJSON.c ****         return false; /* no input */
1341:SynaptiX_FDK/services/cJSON/cJSON.c ****     }
1342:SynaptiX_FDK/services/cJSON/cJSON.c **** 
1343:SynaptiX_FDK/services/cJSON/cJSON.c ****     /* parse the different types of values */
1344:SynaptiX_FDK/services/cJSON/cJSON.c ****     /* null */
1345:SynaptiX_FDK/services/cJSON/cJSON.c ****     if (can_read(input_buffer, 4) && (strncmp((const char*)buffer_at_offset(input_buffer), "null", 
1346:SynaptiX_FDK/services/cJSON/cJSON.c ****     {
1347:SynaptiX_FDK/services/cJSON/cJSON.c ****         item->type = cJSON_NULL;
1348:SynaptiX_FDK/services/cJSON/cJSON.c ****         input_buffer->offset += 4;
1349:SynaptiX_FDK/services/cJSON/cJSON.c ****         return true;
1350:SynaptiX_FDK/services/cJSON/cJSON.c ****     }
1351:SynaptiX_FDK/services/cJSON/cJSON.c ****     /* false */
1352:SynaptiX_FDK/services/cJSON/cJSON.c ****     if (can_read(input_buffer, 5) && (strncmp((const char*)buffer_at_offset(input_buffer), "false",
1353:SynaptiX_FDK/services/cJSON/cJSON.c ****     {
1354:SynaptiX_FDK/services/cJSON/cJSON.c ****         item->type = cJSON_False;
1355:SynaptiX_FDK/services/cJSON/cJSON.c ****         input_buffer->offset += 5;
1356:SynaptiX_FDK/services/cJSON/cJSON.c ****         return true;
1357:SynaptiX_FDK/services/cJSON/cJSON.c ****     }
1358:SynaptiX_FDK/services/cJSON/cJSON.c ****     /* true */
1359:SynaptiX_FDK/services/cJSON/cJSON.c ****     if (can_read(input_buffer, 4) && (strncmp((const char*)buffer_at_offset(input_buffer), "true", 
1360:SynaptiX_FDK/services/cJSON/cJSON.c ****     {
1361:SynaptiX_FDK/services/cJSON/cJSON.c ****         item->type = cJSON_True;
1362:SynaptiX_FDK/services/cJSON/cJSON.c ****         item->valueint = 1;
ARM GAS  C:\Users\DELL\AppData\Local\Temp\ccXjhdgA.s 			page 48


1363:SynaptiX_FDK/services/cJSON/cJSON.c ****         input_buffer->offset += 4;
1364:SynaptiX_FDK/services/cJSON/cJSON.c ****         return true;
1365:SynaptiX_FDK/services/cJSON/cJSON.c ****     }
1366:SynaptiX_FDK/services/cJSON/cJSON.c ****     /* string */
1367:SynaptiX_FDK/services/cJSON/cJSON.c ****     if (can_access_at_index(input_buffer, 0) && (buffer_at_offset(input_buffer)[0] == '\"'))
1368:SynaptiX_FDK/services/cJSON/cJSON.c ****     {
1369:SynaptiX_FDK/services/cJSON/cJSON.c ****         return parse_string(item, input_buffer);
1370:SynaptiX_FDK/services/cJSON/cJSON.c ****     }
1371:SynaptiX_FDK/services/cJSON/cJSON.c ****     /* number */
1372:SynaptiX_FDK/services/cJSON/cJSON.c ****     if (can_access_at_index(input_buffer, 0) && ((buffer_at_offset(input_buffer)[0] == '-') || ((bu
1373:SynaptiX_FDK/services/cJSON/cJSON.c ****     {
1374:SynaptiX_FDK/services/cJSON/cJSON.c ****         return parse_number(item, input_buffer);
1375:SynaptiX_FDK/services/cJSON/cJSON.c ****     }
1376:SynaptiX_FDK/services/cJSON/cJSON.c ****     /* array */
1377:SynaptiX_FDK/services/cJSON/cJSON.c ****     if (can_access_at_index(input_buffer, 0) && (buffer_at_offset(input_buffer)[0] == '['))
1378:SynaptiX_FDK/services/cJSON/cJSON.c ****     {
1379:SynaptiX_FDK/services/cJSON/cJSON.c ****         return parse_array(item, input_buffer);
1380:SynaptiX_FDK/services/cJSON/cJSON.c ****     }
1381:SynaptiX_FDK/services/cJSON/cJSON.c ****     /* object */
1382:SynaptiX_FDK/services/cJSON/cJSON.c ****     if (can_access_at_index(input_buffer, 0) && (buffer_at_offset(input_buffer)[0] == '{'))
1383:SynaptiX_FDK/services/cJSON/cJSON.c ****     {
1384:SynaptiX_FDK/services/cJSON/cJSON.c ****         return parse_object(item, input_buffer);
1385:SynaptiX_FDK/services/cJSON/cJSON.c ****     }
1386:SynaptiX_FDK/services/cJSON/cJSON.c **** 
1387:SynaptiX_FDK/services/cJSON/cJSON.c ****     return false;
1388:SynaptiX_FDK/services/cJSON/cJSON.c **** }
1389:SynaptiX_FDK/services/cJSON/cJSON.c **** 
1390:SynaptiX_FDK/services/cJSON/cJSON.c **** /* Render a value to text. */
1391:SynaptiX_FDK/services/cJSON/cJSON.c **** static cJSON_bool print_value(const cJSON * const item, printbuffer * const output_buffer)
1392:SynaptiX_FDK/services/cJSON/cJSON.c **** {
1393:SynaptiX_FDK/services/cJSON/cJSON.c ****     unsigned char *output = NULL;
1394:SynaptiX_FDK/services/cJSON/cJSON.c **** 
1395:SynaptiX_FDK/services/cJSON/cJSON.c ****     if ((item == NULL) || (output_buffer == NULL))
1396:SynaptiX_FDK/services/cJSON/cJSON.c ****     {
1397:SynaptiX_FDK/services/cJSON/cJSON.c ****         return false;
1398:SynaptiX_FDK/services/cJSON/cJSON.c ****     }
1399:SynaptiX_FDK/services/cJSON/cJSON.c **** 
1400:SynaptiX_FDK/services/cJSON/cJSON.c ****     switch ((item->type) & 0xFF)
1401:SynaptiX_FDK/services/cJSON/cJSON.c ****     {
1402:SynaptiX_FDK/services/cJSON/cJSON.c ****         case cJSON_NULL:
1403:SynaptiX_FDK/services/cJSON/cJSON.c ****             output = ensure(output_buffer, 5);
1404:SynaptiX_FDK/services/cJSON/cJSON.c ****             if (output == NULL)
1405:SynaptiX_FDK/services/cJSON/cJSON.c ****             {
1406:SynaptiX_FDK/services/cJSON/cJSON.c ****                 return false;
1407:SynaptiX_FDK/services/cJSON/cJSON.c ****             }
1408:SynaptiX_FDK/services/cJSON/cJSON.c ****             strcpy((char*)output, "null");
1409:SynaptiX_FDK/services/cJSON/cJSON.c ****             return true;
1410:SynaptiX_FDK/services/cJSON/cJSON.c **** 
1411:SynaptiX_FDK/services/cJSON/cJSON.c ****         case cJSON_False:
1412:SynaptiX_FDK/services/cJSON/cJSON.c ****             output = ensure(output_buffer, 6);
1413:SynaptiX_FDK/services/cJSON/cJSON.c ****             if (output == NULL)
1414:SynaptiX_FDK/services/cJSON/cJSON.c ****             {
1415:SynaptiX_FDK/services/cJSON/cJSON.c ****                 return false;
1416:SynaptiX_FDK/services/cJSON/cJSON.c ****             }
1417:SynaptiX_FDK/services/cJSON/cJSON.c ****             strcpy((char*)output, "false");
1418:SynaptiX_FDK/services/cJSON/cJSON.c ****             return true;
1419:SynaptiX_FDK/services/cJSON/cJSON.c **** 
ARM GAS  C:\Users\DELL\AppData\Local\Temp\ccXjhdgA.s 			page 49


1420:SynaptiX_FDK/services/cJSON/cJSON.c ****         case cJSON_True:
1421:SynaptiX_FDK/services/cJSON/cJSON.c ****             output = ensure(output_buffer, 5);
1422:SynaptiX_FDK/services/cJSON/cJSON.c ****             if (output == NULL)
1423:SynaptiX_FDK/services/cJSON/cJSON.c ****             {
1424:SynaptiX_FDK/services/cJSON/cJSON.c ****                 return false;
1425:SynaptiX_FDK/services/cJSON/cJSON.c ****             }
1426:SynaptiX_FDK/services/cJSON/cJSON.c ****             strcpy((char*)output, "true");
1427:SynaptiX_FDK/services/cJSON/cJSON.c ****             return true;
1428:SynaptiX_FDK/services/cJSON/cJSON.c **** 
1429:SynaptiX_FDK/services/cJSON/cJSON.c ****         case cJSON_Number:
1430:SynaptiX_FDK/services/cJSON/cJSON.c ****             return print_number(item, output_buffer);
1431:SynaptiX_FDK/services/cJSON/cJSON.c **** 
1432:SynaptiX_FDK/services/cJSON/cJSON.c ****         case cJSON_Raw:
1433:SynaptiX_FDK/services/cJSON/cJSON.c ****         {
1434:SynaptiX_FDK/services/cJSON/cJSON.c ****             size_t raw_length = 0;
1435:SynaptiX_FDK/services/cJSON/cJSON.c ****             if (item->valuestring == NULL)
1436:SynaptiX_FDK/services/cJSON/cJSON.c ****             {
1437:SynaptiX_FDK/services/cJSON/cJSON.c ****                 return false;
1438:SynaptiX_FDK/services/cJSON/cJSON.c ****             }
1439:SynaptiX_FDK/services/cJSON/cJSON.c **** 
1440:SynaptiX_FDK/services/cJSON/cJSON.c ****             raw_length = strlen(item->valuestring) + sizeof("");
1441:SynaptiX_FDK/services/cJSON/cJSON.c ****             output = ensure(output_buffer, raw_length);
1442:SynaptiX_FDK/services/cJSON/cJSON.c ****             if (output == NULL)
1443:SynaptiX_FDK/services/cJSON/cJSON.c ****             {
1444:SynaptiX_FDK/services/cJSON/cJSON.c ****                 return false;
1445:SynaptiX_FDK/services/cJSON/cJSON.c ****             }
1446:SynaptiX_FDK/services/cJSON/cJSON.c ****             memcpy(output, item->valuestring, raw_length);
1447:SynaptiX_FDK/services/cJSON/cJSON.c ****             return true;
1448:SynaptiX_FDK/services/cJSON/cJSON.c ****         }
1449:SynaptiX_FDK/services/cJSON/cJSON.c **** 
1450:SynaptiX_FDK/services/cJSON/cJSON.c ****         case cJSON_String:
1451:SynaptiX_FDK/services/cJSON/cJSON.c ****             return print_string(item, output_buffer);
1452:SynaptiX_FDK/services/cJSON/cJSON.c **** 
1453:SynaptiX_FDK/services/cJSON/cJSON.c ****         case cJSON_Array:
1454:SynaptiX_FDK/services/cJSON/cJSON.c ****             return print_array(item, output_buffer);
1455:SynaptiX_FDK/services/cJSON/cJSON.c **** 
1456:SynaptiX_FDK/services/cJSON/cJSON.c ****         case cJSON_Object:
1457:SynaptiX_FDK/services/cJSON/cJSON.c ****             return print_object(item, output_buffer);
1458:SynaptiX_FDK/services/cJSON/cJSON.c **** 
1459:SynaptiX_FDK/services/cJSON/cJSON.c ****         default:
1460:SynaptiX_FDK/services/cJSON/cJSON.c ****             return false;
1461:SynaptiX_FDK/services/cJSON/cJSON.c ****     }
1462:SynaptiX_FDK/services/cJSON/cJSON.c **** }
1463:SynaptiX_FDK/services/cJSON/cJSON.c **** 
1464:SynaptiX_FDK/services/cJSON/cJSON.c **** /* Build an array from input text. */
1465:SynaptiX_FDK/services/cJSON/cJSON.c **** static cJSON_bool parse_array(cJSON * const item, parse_buffer * const input_buffer)
1466:SynaptiX_FDK/services/cJSON/cJSON.c **** {
1467:SynaptiX_FDK/services/cJSON/cJSON.c ****     cJSON *head = NULL; /* head of the linked list */
1468:SynaptiX_FDK/services/cJSON/cJSON.c ****     cJSON *current_item = NULL;
1469:SynaptiX_FDK/services/cJSON/cJSON.c **** 
1470:SynaptiX_FDK/services/cJSON/cJSON.c ****     if (input_buffer->depth >= CJSON_NESTING_LIMIT)
1471:SynaptiX_FDK/services/cJSON/cJSON.c ****     {
1472:SynaptiX_FDK/services/cJSON/cJSON.c ****         return false; /* to deeply nested */
1473:SynaptiX_FDK/services/cJSON/cJSON.c ****     }
1474:SynaptiX_FDK/services/cJSON/cJSON.c ****     input_buffer->depth++;
1475:SynaptiX_FDK/services/cJSON/cJSON.c **** 
1476:SynaptiX_FDK/services/cJSON/cJSON.c ****     if (buffer_at_offset(input_buffer)[0] != '[')
ARM GAS  C:\Users\DELL\AppData\Local\Temp\ccXjhdgA.s 			page 50


1477:SynaptiX_FDK/services/cJSON/cJSON.c ****     {
1478:SynaptiX_FDK/services/cJSON/cJSON.c ****         /* not an array */
1479:SynaptiX_FDK/services/cJSON/cJSON.c ****         goto fail;
1480:SynaptiX_FDK/services/cJSON/cJSON.c ****     }
1481:SynaptiX_FDK/services/cJSON/cJSON.c **** 
1482:SynaptiX_FDK/services/cJSON/cJSON.c ****     input_buffer->offset++;
1483:SynaptiX_FDK/services/cJSON/cJSON.c ****     buffer_skip_whitespace(input_buffer);
1484:SynaptiX_FDK/services/cJSON/cJSON.c ****     if (can_access_at_index(input_buffer, 0) && (buffer_at_offset(input_buffer)[0] == ']'))
1485:SynaptiX_FDK/services/cJSON/cJSON.c ****     {
1486:SynaptiX_FDK/services/cJSON/cJSON.c ****         /* empty array */
1487:SynaptiX_FDK/services/cJSON/cJSON.c ****         goto success;
1488:SynaptiX_FDK/services/cJSON/cJSON.c ****     }
1489:SynaptiX_FDK/services/cJSON/cJSON.c **** 
1490:SynaptiX_FDK/services/cJSON/cJSON.c ****     /* check if we skipped to the end of the buffer */
1491:SynaptiX_FDK/services/cJSON/cJSON.c ****     if (cannot_access_at_index(input_buffer, 0))
1492:SynaptiX_FDK/services/cJSON/cJSON.c ****     {
1493:SynaptiX_FDK/services/cJSON/cJSON.c ****         input_buffer->offset--;
1494:SynaptiX_FDK/services/cJSON/cJSON.c ****         goto fail;
1495:SynaptiX_FDK/services/cJSON/cJSON.c ****     }
1496:SynaptiX_FDK/services/cJSON/cJSON.c **** 
1497:SynaptiX_FDK/services/cJSON/cJSON.c ****     /* step back to character in front of the first element */
1498:SynaptiX_FDK/services/cJSON/cJSON.c ****     input_buffer->offset--;
1499:SynaptiX_FDK/services/cJSON/cJSON.c ****     /* loop through the comma separated array elements */
1500:SynaptiX_FDK/services/cJSON/cJSON.c ****     do
1501:SynaptiX_FDK/services/cJSON/cJSON.c ****     {
1502:SynaptiX_FDK/services/cJSON/cJSON.c ****         /* allocate next item */
1503:SynaptiX_FDK/services/cJSON/cJSON.c ****         cJSON *new_item = cJSON_New_Item(&(input_buffer->hooks));
1504:SynaptiX_FDK/services/cJSON/cJSON.c ****         if (new_item == NULL)
1505:SynaptiX_FDK/services/cJSON/cJSON.c ****         {
1506:SynaptiX_FDK/services/cJSON/cJSON.c ****             goto fail; /* allocation failure */
1507:SynaptiX_FDK/services/cJSON/cJSON.c ****         }
1508:SynaptiX_FDK/services/cJSON/cJSON.c **** 
1509:SynaptiX_FDK/services/cJSON/cJSON.c ****         /* attach next item to list */
1510:SynaptiX_FDK/services/cJSON/cJSON.c ****         if (head == NULL)
1511:SynaptiX_FDK/services/cJSON/cJSON.c ****         {
1512:SynaptiX_FDK/services/cJSON/cJSON.c ****             /* start the linked list */
1513:SynaptiX_FDK/services/cJSON/cJSON.c ****             current_item = head = new_item;
1514:SynaptiX_FDK/services/cJSON/cJSON.c ****         }
1515:SynaptiX_FDK/services/cJSON/cJSON.c ****         else
1516:SynaptiX_FDK/services/cJSON/cJSON.c ****         {
1517:SynaptiX_FDK/services/cJSON/cJSON.c ****             /* add to the end and advance */
1518:SynaptiX_FDK/services/cJSON/cJSON.c ****             current_item->next = new_item;
1519:SynaptiX_FDK/services/cJSON/cJSON.c ****             new_item->prev = current_item;
1520:SynaptiX_FDK/services/cJSON/cJSON.c ****             current_item = new_item;
1521:SynaptiX_FDK/services/cJSON/cJSON.c ****         }
1522:SynaptiX_FDK/services/cJSON/cJSON.c **** 
1523:SynaptiX_FDK/services/cJSON/cJSON.c ****         /* parse next value */
1524:SynaptiX_FDK/services/cJSON/cJSON.c ****         input_buffer->offset++;
1525:SynaptiX_FDK/services/cJSON/cJSON.c ****         buffer_skip_whitespace(input_buffer);
1526:SynaptiX_FDK/services/cJSON/cJSON.c ****         if (!parse_value(current_item, input_buffer))
1527:SynaptiX_FDK/services/cJSON/cJSON.c ****         {
1528:SynaptiX_FDK/services/cJSON/cJSON.c ****             goto fail; /* failed to parse value */
1529:SynaptiX_FDK/services/cJSON/cJSON.c ****         }
1530:SynaptiX_FDK/services/cJSON/cJSON.c ****         buffer_skip_whitespace(input_buffer);
1531:SynaptiX_FDK/services/cJSON/cJSON.c ****     }
1532:SynaptiX_FDK/services/cJSON/cJSON.c ****     while (can_access_at_index(input_buffer, 0) && (buffer_at_offset(input_buffer)[0] == ','));
1533:SynaptiX_FDK/services/cJSON/cJSON.c **** 
ARM GAS  C:\Users\DELL\AppData\Local\Temp\ccXjhdgA.s 			page 51


1534:SynaptiX_FDK/services/cJSON/cJSON.c ****     if (cannot_access_at_index(input_buffer, 0) || buffer_at_offset(input_buffer)[0] != ']')
1535:SynaptiX_FDK/services/cJSON/cJSON.c ****     {
1536:SynaptiX_FDK/services/cJSON/cJSON.c ****         goto fail; /* expected end of array */
1537:SynaptiX_FDK/services/cJSON/cJSON.c ****     }
1538:SynaptiX_FDK/services/cJSON/cJSON.c **** 
1539:SynaptiX_FDK/services/cJSON/cJSON.c **** success:
1540:SynaptiX_FDK/services/cJSON/cJSON.c ****     input_buffer->depth--;
1541:SynaptiX_FDK/services/cJSON/cJSON.c **** 
1542:SynaptiX_FDK/services/cJSON/cJSON.c ****     if (head != NULL) {
1543:SynaptiX_FDK/services/cJSON/cJSON.c ****         head->prev = current_item;
1544:SynaptiX_FDK/services/cJSON/cJSON.c ****     }
1545:SynaptiX_FDK/services/cJSON/cJSON.c **** 
1546:SynaptiX_FDK/services/cJSON/cJSON.c ****     item->type = cJSON_Array;
1547:SynaptiX_FDK/services/cJSON/cJSON.c ****     item->child = head;
1548:SynaptiX_FDK/services/cJSON/cJSON.c **** 
1549:SynaptiX_FDK/services/cJSON/cJSON.c ****     input_buffer->offset++;
1550:SynaptiX_FDK/services/cJSON/cJSON.c **** 
1551:SynaptiX_FDK/services/cJSON/cJSON.c ****     return true;
1552:SynaptiX_FDK/services/cJSON/cJSON.c **** 
1553:SynaptiX_FDK/services/cJSON/cJSON.c **** fail:
1554:SynaptiX_FDK/services/cJSON/cJSON.c ****     if (head != NULL)
1555:SynaptiX_FDK/services/cJSON/cJSON.c ****     {
1556:SynaptiX_FDK/services/cJSON/cJSON.c ****         cJSON_Delete(head);
1557:SynaptiX_FDK/services/cJSON/cJSON.c ****     }
1558:SynaptiX_FDK/services/cJSON/cJSON.c **** 
1559:SynaptiX_FDK/services/cJSON/cJSON.c ****     return false;
1560:SynaptiX_FDK/services/cJSON/cJSON.c **** }
1561:SynaptiX_FDK/services/cJSON/cJSON.c **** 
1562:SynaptiX_FDK/services/cJSON/cJSON.c **** /* Render an array to text */
1563:SynaptiX_FDK/services/cJSON/cJSON.c **** static cJSON_bool print_array(const cJSON * const item, printbuffer * const output_buffer)
1564:SynaptiX_FDK/services/cJSON/cJSON.c **** {
1565:SynaptiX_FDK/services/cJSON/cJSON.c ****     unsigned char *output_pointer = NULL;
1566:SynaptiX_FDK/services/cJSON/cJSON.c ****     size_t length = 0;
1567:SynaptiX_FDK/services/cJSON/cJSON.c ****     cJSON *current_element = item->child;
1568:SynaptiX_FDK/services/cJSON/cJSON.c **** 
1569:SynaptiX_FDK/services/cJSON/cJSON.c ****     if (output_buffer == NULL)
1570:SynaptiX_FDK/services/cJSON/cJSON.c ****     {
1571:SynaptiX_FDK/services/cJSON/cJSON.c ****         return false;
1572:SynaptiX_FDK/services/cJSON/cJSON.c ****     }
1573:SynaptiX_FDK/services/cJSON/cJSON.c **** 
1574:SynaptiX_FDK/services/cJSON/cJSON.c ****     /* Compose the output array. */
1575:SynaptiX_FDK/services/cJSON/cJSON.c ****     /* opening square bracket */
1576:SynaptiX_FDK/services/cJSON/cJSON.c ****     output_pointer = ensure(output_buffer, 1);
1577:SynaptiX_FDK/services/cJSON/cJSON.c ****     if (output_pointer == NULL)
1578:SynaptiX_FDK/services/cJSON/cJSON.c ****     {
1579:SynaptiX_FDK/services/cJSON/cJSON.c ****         return false;
1580:SynaptiX_FDK/services/cJSON/cJSON.c ****     }
1581:SynaptiX_FDK/services/cJSON/cJSON.c **** 
1582:SynaptiX_FDK/services/cJSON/cJSON.c ****     *output_pointer = '[';
1583:SynaptiX_FDK/services/cJSON/cJSON.c ****     output_buffer->offset++;
1584:SynaptiX_FDK/services/cJSON/cJSON.c ****     output_buffer->depth++;
1585:SynaptiX_FDK/services/cJSON/cJSON.c **** 
1586:SynaptiX_FDK/services/cJSON/cJSON.c ****     while (current_element != NULL)
1587:SynaptiX_FDK/services/cJSON/cJSON.c ****     {
1588:SynaptiX_FDK/services/cJSON/cJSON.c ****         if (!print_value(current_element, output_buffer))
1589:SynaptiX_FDK/services/cJSON/cJSON.c ****         {
1590:SynaptiX_FDK/services/cJSON/cJSON.c ****             return false;
ARM GAS  C:\Users\DELL\AppData\Local\Temp\ccXjhdgA.s 			page 52


1591:SynaptiX_FDK/services/cJSON/cJSON.c ****         }
1592:SynaptiX_FDK/services/cJSON/cJSON.c ****         update_offset(output_buffer);
1593:SynaptiX_FDK/services/cJSON/cJSON.c ****         if (current_element->next)
1594:SynaptiX_FDK/services/cJSON/cJSON.c ****         {
1595:SynaptiX_FDK/services/cJSON/cJSON.c ****             length = (size_t) (output_buffer->format ? 2 : 1);
1596:SynaptiX_FDK/services/cJSON/cJSON.c ****             output_pointer = ensure(output_buffer, length + 1);
1597:SynaptiX_FDK/services/cJSON/cJSON.c ****             if (output_pointer == NULL)
1598:SynaptiX_FDK/services/cJSON/cJSON.c ****             {
1599:SynaptiX_FDK/services/cJSON/cJSON.c ****                 return false;
1600:SynaptiX_FDK/services/cJSON/cJSON.c ****             }
1601:SynaptiX_FDK/services/cJSON/cJSON.c ****             *output_pointer++ = ',';
1602:SynaptiX_FDK/services/cJSON/cJSON.c ****             if(output_buffer->format)
1603:SynaptiX_FDK/services/cJSON/cJSON.c ****             {
1604:SynaptiX_FDK/services/cJSON/cJSON.c ****                 *output_pointer++ = ' ';
1605:SynaptiX_FDK/services/cJSON/cJSON.c ****             }
1606:SynaptiX_FDK/services/cJSON/cJSON.c ****             *output_pointer = '\0';
1607:SynaptiX_FDK/services/cJSON/cJSON.c ****             output_buffer->offset += length;
1608:SynaptiX_FDK/services/cJSON/cJSON.c ****         }
1609:SynaptiX_FDK/services/cJSON/cJSON.c ****         current_element = current_element->next;
1610:SynaptiX_FDK/services/cJSON/cJSON.c ****     }
1611:SynaptiX_FDK/services/cJSON/cJSON.c **** 
1612:SynaptiX_FDK/services/cJSON/cJSON.c ****     output_pointer = ensure(output_buffer, 2);
1613:SynaptiX_FDK/services/cJSON/cJSON.c ****     if (output_pointer == NULL)
1614:SynaptiX_FDK/services/cJSON/cJSON.c ****     {
1615:SynaptiX_FDK/services/cJSON/cJSON.c ****         return false;
1616:SynaptiX_FDK/services/cJSON/cJSON.c ****     }
1617:SynaptiX_FDK/services/cJSON/cJSON.c ****     *output_pointer++ = ']';
1618:SynaptiX_FDK/services/cJSON/cJSON.c ****     *output_pointer = '\0';
1619:SynaptiX_FDK/services/cJSON/cJSON.c ****     output_buffer->depth--;
1620:SynaptiX_FDK/services/cJSON/cJSON.c **** 
1621:SynaptiX_FDK/services/cJSON/cJSON.c ****     return true;
1622:SynaptiX_FDK/services/cJSON/cJSON.c **** }
1623:SynaptiX_FDK/services/cJSON/cJSON.c **** 
1624:SynaptiX_FDK/services/cJSON/cJSON.c **** /* Build an object from the text. */
1625:SynaptiX_FDK/services/cJSON/cJSON.c **** static cJSON_bool parse_object(cJSON * const item, parse_buffer * const input_buffer)
1626:SynaptiX_FDK/services/cJSON/cJSON.c **** {
1627:SynaptiX_FDK/services/cJSON/cJSON.c ****     cJSON *head = NULL; /* linked list head */
1628:SynaptiX_FDK/services/cJSON/cJSON.c ****     cJSON *current_item = NULL;
1629:SynaptiX_FDK/services/cJSON/cJSON.c **** 
1630:SynaptiX_FDK/services/cJSON/cJSON.c ****     if (input_buffer->depth >= CJSON_NESTING_LIMIT)
1631:SynaptiX_FDK/services/cJSON/cJSON.c ****     {
1632:SynaptiX_FDK/services/cJSON/cJSON.c ****         return false; /* to deeply nested */
1633:SynaptiX_FDK/services/cJSON/cJSON.c ****     }
1634:SynaptiX_FDK/services/cJSON/cJSON.c ****     input_buffer->depth++;
1635:SynaptiX_FDK/services/cJSON/cJSON.c **** 
1636:SynaptiX_FDK/services/cJSON/cJSON.c ****     if (cannot_access_at_index(input_buffer, 0) || (buffer_at_offset(input_buffer)[0] != '{'))
1637:SynaptiX_FDK/services/cJSON/cJSON.c ****     {
1638:SynaptiX_FDK/services/cJSON/cJSON.c ****         goto fail; /* not an object */
1639:SynaptiX_FDK/services/cJSON/cJSON.c ****     }
1640:SynaptiX_FDK/services/cJSON/cJSON.c **** 
1641:SynaptiX_FDK/services/cJSON/cJSON.c ****     input_buffer->offset++;
1642:SynaptiX_FDK/services/cJSON/cJSON.c ****     buffer_skip_whitespace(input_buffer);
1643:SynaptiX_FDK/services/cJSON/cJSON.c ****     if (can_access_at_index(input_buffer, 0) && (buffer_at_offset(input_buffer)[0] == '}'))
1644:SynaptiX_FDK/services/cJSON/cJSON.c ****     {
1645:SynaptiX_FDK/services/cJSON/cJSON.c ****         goto success; /* empty object */
1646:SynaptiX_FDK/services/cJSON/cJSON.c ****     }
1647:SynaptiX_FDK/services/cJSON/cJSON.c **** 
ARM GAS  C:\Users\DELL\AppData\Local\Temp\ccXjhdgA.s 			page 53


1648:SynaptiX_FDK/services/cJSON/cJSON.c ****     /* check if we skipped to the end of the buffer */
1649:SynaptiX_FDK/services/cJSON/cJSON.c ****     if (cannot_access_at_index(input_buffer, 0))
1650:SynaptiX_FDK/services/cJSON/cJSON.c ****     {
1651:SynaptiX_FDK/services/cJSON/cJSON.c ****         input_buffer->offset--;
1652:SynaptiX_FDK/services/cJSON/cJSON.c ****         goto fail;
1653:SynaptiX_FDK/services/cJSON/cJSON.c ****     }
1654:SynaptiX_FDK/services/cJSON/cJSON.c **** 
1655:SynaptiX_FDK/services/cJSON/cJSON.c ****     /* step back to character in front of the first element */
1656:SynaptiX_FDK/services/cJSON/cJSON.c ****     input_buffer->offset--;
1657:SynaptiX_FDK/services/cJSON/cJSON.c ****     /* loop through the comma separated array elements */
1658:SynaptiX_FDK/services/cJSON/cJSON.c ****     do
1659:SynaptiX_FDK/services/cJSON/cJSON.c ****     {
1660:SynaptiX_FDK/services/cJSON/cJSON.c ****         /* allocate next item */
1661:SynaptiX_FDK/services/cJSON/cJSON.c ****         cJSON *new_item = cJSON_New_Item(&(input_buffer->hooks));
1662:SynaptiX_FDK/services/cJSON/cJSON.c ****         if (new_item == NULL)
1663:SynaptiX_FDK/services/cJSON/cJSON.c ****         {
1664:SynaptiX_FDK/services/cJSON/cJSON.c ****             goto fail; /* allocation failure */
1665:SynaptiX_FDK/services/cJSON/cJSON.c ****         }
1666:SynaptiX_FDK/services/cJSON/cJSON.c **** 
1667:SynaptiX_FDK/services/cJSON/cJSON.c ****         /* attach next item to list */
1668:SynaptiX_FDK/services/cJSON/cJSON.c ****         if (head == NULL)
1669:SynaptiX_FDK/services/cJSON/cJSON.c ****         {
1670:SynaptiX_FDK/services/cJSON/cJSON.c ****             /* start the linked list */
1671:SynaptiX_FDK/services/cJSON/cJSON.c ****             current_item = head = new_item;
1672:SynaptiX_FDK/services/cJSON/cJSON.c ****         }
1673:SynaptiX_FDK/services/cJSON/cJSON.c ****         else
1674:SynaptiX_FDK/services/cJSON/cJSON.c ****         {
1675:SynaptiX_FDK/services/cJSON/cJSON.c ****             /* add to the end and advance */
1676:SynaptiX_FDK/services/cJSON/cJSON.c ****             current_item->next = new_item;
1677:SynaptiX_FDK/services/cJSON/cJSON.c ****             new_item->prev = current_item;
1678:SynaptiX_FDK/services/cJSON/cJSON.c ****             current_item = new_item;
1679:SynaptiX_FDK/services/cJSON/cJSON.c ****         }
1680:SynaptiX_FDK/services/cJSON/cJSON.c **** 
1681:SynaptiX_FDK/services/cJSON/cJSON.c ****         if (cannot_access_at_index(input_buffer, 1))
1682:SynaptiX_FDK/services/cJSON/cJSON.c ****         {
1683:SynaptiX_FDK/services/cJSON/cJSON.c ****             goto fail; /* nothing comes after the comma */
1684:SynaptiX_FDK/services/cJSON/cJSON.c ****         }
1685:SynaptiX_FDK/services/cJSON/cJSON.c **** 
1686:SynaptiX_FDK/services/cJSON/cJSON.c ****         /* parse the name of the child */
1687:SynaptiX_FDK/services/cJSON/cJSON.c ****         input_buffer->offset++;
1688:SynaptiX_FDK/services/cJSON/cJSON.c ****         buffer_skip_whitespace(input_buffer);
1689:SynaptiX_FDK/services/cJSON/cJSON.c ****         if (!parse_string(current_item, input_buffer))
1690:SynaptiX_FDK/services/cJSON/cJSON.c ****         {
1691:SynaptiX_FDK/services/cJSON/cJSON.c ****             goto fail; /* failed to parse name */
1692:SynaptiX_FDK/services/cJSON/cJSON.c ****         }
1693:SynaptiX_FDK/services/cJSON/cJSON.c ****         buffer_skip_whitespace(input_buffer);
1694:SynaptiX_FDK/services/cJSON/cJSON.c **** 
1695:SynaptiX_FDK/services/cJSON/cJSON.c ****         /* swap valuestring and string, because we parsed the name */
1696:SynaptiX_FDK/services/cJSON/cJSON.c ****         current_item->string = current_item->valuestring;
1697:SynaptiX_FDK/services/cJSON/cJSON.c ****         current_item->valuestring = NULL;
1698:SynaptiX_FDK/services/cJSON/cJSON.c **** 
1699:SynaptiX_FDK/services/cJSON/cJSON.c ****         if (cannot_access_at_index(input_buffer, 0) || (buffer_at_offset(input_buffer)[0] != ':'))
1700:SynaptiX_FDK/services/cJSON/cJSON.c ****         {
1701:SynaptiX_FDK/services/cJSON/cJSON.c ****             goto fail; /* invalid object */
1702:SynaptiX_FDK/services/cJSON/cJSON.c ****         }
1703:SynaptiX_FDK/services/cJSON/cJSON.c **** 
1704:SynaptiX_FDK/services/cJSON/cJSON.c ****         /* parse the value */
ARM GAS  C:\Users\DELL\AppData\Local\Temp\ccXjhdgA.s 			page 54


1705:SynaptiX_FDK/services/cJSON/cJSON.c ****         input_buffer->offset++;
1706:SynaptiX_FDK/services/cJSON/cJSON.c ****         buffer_skip_whitespace(input_buffer);
1707:SynaptiX_FDK/services/cJSON/cJSON.c ****         if (!parse_value(current_item, input_buffer))
1708:SynaptiX_FDK/services/cJSON/cJSON.c ****         {
1709:SynaptiX_FDK/services/cJSON/cJSON.c ****             goto fail; /* failed to parse value */
1710:SynaptiX_FDK/services/cJSON/cJSON.c ****         }
1711:SynaptiX_FDK/services/cJSON/cJSON.c ****         buffer_skip_whitespace(input_buffer);
1712:SynaptiX_FDK/services/cJSON/cJSON.c ****     }
1713:SynaptiX_FDK/services/cJSON/cJSON.c ****     while (can_access_at_index(input_buffer, 0) && (buffer_at_offset(input_buffer)[0] == ','));
1714:SynaptiX_FDK/services/cJSON/cJSON.c **** 
1715:SynaptiX_FDK/services/cJSON/cJSON.c ****     if (cannot_access_at_index(input_buffer, 0) || (buffer_at_offset(input_buffer)[0] != '}'))
1716:SynaptiX_FDK/services/cJSON/cJSON.c ****     {
1717:SynaptiX_FDK/services/cJSON/cJSON.c ****         goto fail; /* expected end of object */
1718:SynaptiX_FDK/services/cJSON/cJSON.c ****     }
1719:SynaptiX_FDK/services/cJSON/cJSON.c **** 
1720:SynaptiX_FDK/services/cJSON/cJSON.c **** success:
1721:SynaptiX_FDK/services/cJSON/cJSON.c ****     input_buffer->depth--;
1722:SynaptiX_FDK/services/cJSON/cJSON.c **** 
1723:SynaptiX_FDK/services/cJSON/cJSON.c ****     if (head != NULL) {
1724:SynaptiX_FDK/services/cJSON/cJSON.c ****         head->prev = current_item;
1725:SynaptiX_FDK/services/cJSON/cJSON.c ****     }
1726:SynaptiX_FDK/services/cJSON/cJSON.c **** 
1727:SynaptiX_FDK/services/cJSON/cJSON.c ****     item->type = cJSON_Object;
1728:SynaptiX_FDK/services/cJSON/cJSON.c ****     item->child = head;
1729:SynaptiX_FDK/services/cJSON/cJSON.c **** 
1730:SynaptiX_FDK/services/cJSON/cJSON.c ****     input_buffer->offset++;
1731:SynaptiX_FDK/services/cJSON/cJSON.c ****     return true;
1732:SynaptiX_FDK/services/cJSON/cJSON.c **** 
1733:SynaptiX_FDK/services/cJSON/cJSON.c **** fail:
1734:SynaptiX_FDK/services/cJSON/cJSON.c ****     if (head != NULL)
1735:SynaptiX_FDK/services/cJSON/cJSON.c ****     {
1736:SynaptiX_FDK/services/cJSON/cJSON.c ****         cJSON_Delete(head);
1737:SynaptiX_FDK/services/cJSON/cJSON.c ****     }
1738:SynaptiX_FDK/services/cJSON/cJSON.c **** 
1739:SynaptiX_FDK/services/cJSON/cJSON.c ****     return false;
1740:SynaptiX_FDK/services/cJSON/cJSON.c **** }
1741:SynaptiX_FDK/services/cJSON/cJSON.c **** 
1742:SynaptiX_FDK/services/cJSON/cJSON.c **** /* Render an object to text. */
1743:SynaptiX_FDK/services/cJSON/cJSON.c **** static cJSON_bool print_object(const cJSON * const item, printbuffer * const output_buffer)
1744:SynaptiX_FDK/services/cJSON/cJSON.c **** {
1745:SynaptiX_FDK/services/cJSON/cJSON.c ****     unsigned char *output_pointer = NULL;
1746:SynaptiX_FDK/services/cJSON/cJSON.c ****     size_t length = 0;
1747:SynaptiX_FDK/services/cJSON/cJSON.c ****     cJSON *current_item = item->child;
1748:SynaptiX_FDK/services/cJSON/cJSON.c **** 
1749:SynaptiX_FDK/services/cJSON/cJSON.c ****     if (output_buffer == NULL)
1750:SynaptiX_FDK/services/cJSON/cJSON.c ****     {
1751:SynaptiX_FDK/services/cJSON/cJSON.c ****         return false;
1752:SynaptiX_FDK/services/cJSON/cJSON.c ****     }
1753:SynaptiX_FDK/services/cJSON/cJSON.c **** 
1754:SynaptiX_FDK/services/cJSON/cJSON.c ****     /* Compose the output: */
1755:SynaptiX_FDK/services/cJSON/cJSON.c ****     length = (size_t) (output_buffer->format ? 2 : 1); /* fmt: {\n */
1756:SynaptiX_FDK/services/cJSON/cJSON.c ****     output_pointer = ensure(output_buffer, length + 1);
1757:SynaptiX_FDK/services/cJSON/cJSON.c ****     if (output_pointer == NULL)
1758:SynaptiX_FDK/services/cJSON/cJSON.c ****     {
1759:SynaptiX_FDK/services/cJSON/cJSON.c ****         return false;
1760:SynaptiX_FDK/services/cJSON/cJSON.c ****     }
1761:SynaptiX_FDK/services/cJSON/cJSON.c **** 
ARM GAS  C:\Users\DELL\AppData\Local\Temp\ccXjhdgA.s 			page 55


1762:SynaptiX_FDK/services/cJSON/cJSON.c ****     *output_pointer++ = '{';
1763:SynaptiX_FDK/services/cJSON/cJSON.c ****     output_buffer->depth++;
1764:SynaptiX_FDK/services/cJSON/cJSON.c ****     if (output_buffer->format)
1765:SynaptiX_FDK/services/cJSON/cJSON.c ****     {
1766:SynaptiX_FDK/services/cJSON/cJSON.c ****         *output_pointer++ = '\n';
1767:SynaptiX_FDK/services/cJSON/cJSON.c ****     }
1768:SynaptiX_FDK/services/cJSON/cJSON.c ****     output_buffer->offset += length;
1769:SynaptiX_FDK/services/cJSON/cJSON.c **** 
1770:SynaptiX_FDK/services/cJSON/cJSON.c ****     while (current_item)
1771:SynaptiX_FDK/services/cJSON/cJSON.c ****     {
1772:SynaptiX_FDK/services/cJSON/cJSON.c ****         if (output_buffer->format)
1773:SynaptiX_FDK/services/cJSON/cJSON.c ****         {
1774:SynaptiX_FDK/services/cJSON/cJSON.c ****             size_t i;
1775:SynaptiX_FDK/services/cJSON/cJSON.c ****             output_pointer = ensure(output_buffer, output_buffer->depth);
1776:SynaptiX_FDK/services/cJSON/cJSON.c ****             if (output_pointer == NULL)
1777:SynaptiX_FDK/services/cJSON/cJSON.c ****             {
1778:SynaptiX_FDK/services/cJSON/cJSON.c ****                 return false;
1779:SynaptiX_FDK/services/cJSON/cJSON.c ****             }
1780:SynaptiX_FDK/services/cJSON/cJSON.c ****             for (i = 0; i < output_buffer->depth; i++)
1781:SynaptiX_FDK/services/cJSON/cJSON.c ****             {
1782:SynaptiX_FDK/services/cJSON/cJSON.c ****                 *output_pointer++ = '\t';
1783:SynaptiX_FDK/services/cJSON/cJSON.c ****             }
1784:SynaptiX_FDK/services/cJSON/cJSON.c ****             output_buffer->offset += output_buffer->depth;
1785:SynaptiX_FDK/services/cJSON/cJSON.c ****         }
1786:SynaptiX_FDK/services/cJSON/cJSON.c **** 
1787:SynaptiX_FDK/services/cJSON/cJSON.c ****         /* print key */
1788:SynaptiX_FDK/services/cJSON/cJSON.c ****         if (!print_string_ptr((unsigned char*)current_item->string, output_buffer))
1789:SynaptiX_FDK/services/cJSON/cJSON.c ****         {
1790:SynaptiX_FDK/services/cJSON/cJSON.c ****             return false;
1791:SynaptiX_FDK/services/cJSON/cJSON.c ****         }
1792:SynaptiX_FDK/services/cJSON/cJSON.c ****         update_offset(output_buffer);
1793:SynaptiX_FDK/services/cJSON/cJSON.c **** 
1794:SynaptiX_FDK/services/cJSON/cJSON.c ****         length = (size_t) (output_buffer->format ? 2 : 1);
1795:SynaptiX_FDK/services/cJSON/cJSON.c ****         output_pointer = ensure(output_buffer, length);
1796:SynaptiX_FDK/services/cJSON/cJSON.c ****         if (output_pointer == NULL)
1797:SynaptiX_FDK/services/cJSON/cJSON.c ****         {
1798:SynaptiX_FDK/services/cJSON/cJSON.c ****             return false;
1799:SynaptiX_FDK/services/cJSON/cJSON.c ****         }
1800:SynaptiX_FDK/services/cJSON/cJSON.c ****         *output_pointer++ = ':';
1801:SynaptiX_FDK/services/cJSON/cJSON.c ****         if (output_buffer->format)
1802:SynaptiX_FDK/services/cJSON/cJSON.c ****         {
1803:SynaptiX_FDK/services/cJSON/cJSON.c ****             *output_pointer++ = '\t';
1804:SynaptiX_FDK/services/cJSON/cJSON.c ****         }
1805:SynaptiX_FDK/services/cJSON/cJSON.c ****         output_buffer->offset += length;
1806:SynaptiX_FDK/services/cJSON/cJSON.c **** 
1807:SynaptiX_FDK/services/cJSON/cJSON.c ****         /* print value */
1808:SynaptiX_FDK/services/cJSON/cJSON.c ****         if (!print_value(current_item, output_buffer))
1809:SynaptiX_FDK/services/cJSON/cJSON.c ****         {
1810:SynaptiX_FDK/services/cJSON/cJSON.c ****             return false;
1811:SynaptiX_FDK/services/cJSON/cJSON.c ****         }
1812:SynaptiX_FDK/services/cJSON/cJSON.c ****         update_offset(output_buffer);
1813:SynaptiX_FDK/services/cJSON/cJSON.c **** 
1814:SynaptiX_FDK/services/cJSON/cJSON.c ****         /* print comma if not last */
1815:SynaptiX_FDK/services/cJSON/cJSON.c ****         length = ((size_t)(output_buffer->format ? 1 : 0) + (size_t)(current_item->next ? 1 : 0));
1816:SynaptiX_FDK/services/cJSON/cJSON.c ****         output_pointer = ensure(output_buffer, length + 1);
1817:SynaptiX_FDK/services/cJSON/cJSON.c ****         if (output_pointer == NULL)
1818:SynaptiX_FDK/services/cJSON/cJSON.c ****         {
ARM GAS  C:\Users\DELL\AppData\Local\Temp\ccXjhdgA.s 			page 56


1819:SynaptiX_FDK/services/cJSON/cJSON.c ****             return false;
1820:SynaptiX_FDK/services/cJSON/cJSON.c ****         }
1821:SynaptiX_FDK/services/cJSON/cJSON.c ****         if (current_item->next)
1822:SynaptiX_FDK/services/cJSON/cJSON.c ****         {
1823:SynaptiX_FDK/services/cJSON/cJSON.c ****             *output_pointer++ = ',';
1824:SynaptiX_FDK/services/cJSON/cJSON.c ****         }
1825:SynaptiX_FDK/services/cJSON/cJSON.c **** 
1826:SynaptiX_FDK/services/cJSON/cJSON.c ****         if (output_buffer->format)
1827:SynaptiX_FDK/services/cJSON/cJSON.c ****         {
1828:SynaptiX_FDK/services/cJSON/cJSON.c ****             *output_pointer++ = '\n';
1829:SynaptiX_FDK/services/cJSON/cJSON.c ****         }
1830:SynaptiX_FDK/services/cJSON/cJSON.c ****         *output_pointer = '\0';
1831:SynaptiX_FDK/services/cJSON/cJSON.c ****         output_buffer->offset += length;
1832:SynaptiX_FDK/services/cJSON/cJSON.c **** 
1833:SynaptiX_FDK/services/cJSON/cJSON.c ****         current_item = current_item->next;
1834:SynaptiX_FDK/services/cJSON/cJSON.c ****     }
1835:SynaptiX_FDK/services/cJSON/cJSON.c **** 
1836:SynaptiX_FDK/services/cJSON/cJSON.c ****     output_pointer = ensure(output_buffer, output_buffer->format ? (output_buffer->depth + 1) : 2);
1837:SynaptiX_FDK/services/cJSON/cJSON.c ****     if (output_pointer == NULL)
1838:SynaptiX_FDK/services/cJSON/cJSON.c ****     {
1839:SynaptiX_FDK/services/cJSON/cJSON.c ****         return false;
1840:SynaptiX_FDK/services/cJSON/cJSON.c ****     }
1841:SynaptiX_FDK/services/cJSON/cJSON.c ****     if (output_buffer->format)
1842:SynaptiX_FDK/services/cJSON/cJSON.c ****     {
1843:SynaptiX_FDK/services/cJSON/cJSON.c ****         size_t i;
1844:SynaptiX_FDK/services/cJSON/cJSON.c ****         for (i = 0; i < (output_buffer->depth - 1); i++)
1845:SynaptiX_FDK/services/cJSON/cJSON.c ****         {
1846:SynaptiX_FDK/services/cJSON/cJSON.c ****             *output_pointer++ = '\t';
1847:SynaptiX_FDK/services/cJSON/cJSON.c ****         }
1848:SynaptiX_FDK/services/cJSON/cJSON.c ****     }
1849:SynaptiX_FDK/services/cJSON/cJSON.c ****     *output_pointer++ = '}';
1850:SynaptiX_FDK/services/cJSON/cJSON.c ****     *output_pointer = '\0';
1851:SynaptiX_FDK/services/cJSON/cJSON.c ****     output_buffer->depth--;
1852:SynaptiX_FDK/services/cJSON/cJSON.c **** 
1853:SynaptiX_FDK/services/cJSON/cJSON.c ****     return true;
1854:SynaptiX_FDK/services/cJSON/cJSON.c **** }
1855:SynaptiX_FDK/services/cJSON/cJSON.c **** 
1856:SynaptiX_FDK/services/cJSON/cJSON.c **** /* Get Array size/item / object item. */
1857:SynaptiX_FDK/services/cJSON/cJSON.c **** CJSON_PUBLIC(int) cJSON_GetArraySize(const cJSON *array)
1858:SynaptiX_FDK/services/cJSON/cJSON.c **** {
1859:SynaptiX_FDK/services/cJSON/cJSON.c ****     cJSON *child = NULL;
1860:SynaptiX_FDK/services/cJSON/cJSON.c ****     size_t size = 0;
1861:SynaptiX_FDK/services/cJSON/cJSON.c **** 
1862:SynaptiX_FDK/services/cJSON/cJSON.c ****     if (array == NULL)
1863:SynaptiX_FDK/services/cJSON/cJSON.c ****     {
1864:SynaptiX_FDK/services/cJSON/cJSON.c ****         return 0;
1865:SynaptiX_FDK/services/cJSON/cJSON.c ****     }
1866:SynaptiX_FDK/services/cJSON/cJSON.c **** 
1867:SynaptiX_FDK/services/cJSON/cJSON.c ****     child = array->child;
1868:SynaptiX_FDK/services/cJSON/cJSON.c **** 
1869:SynaptiX_FDK/services/cJSON/cJSON.c ****     while(child != NULL)
1870:SynaptiX_FDK/services/cJSON/cJSON.c ****     {
1871:SynaptiX_FDK/services/cJSON/cJSON.c ****         size++;
1872:SynaptiX_FDK/services/cJSON/cJSON.c ****         child = child->next;
1873:SynaptiX_FDK/services/cJSON/cJSON.c ****     }
1874:SynaptiX_FDK/services/cJSON/cJSON.c **** 
1875:SynaptiX_FDK/services/cJSON/cJSON.c ****     /* FIXME: Can overflow here. Cannot be fixed without breaking the API */
ARM GAS  C:\Users\DELL\AppData\Local\Temp\ccXjhdgA.s 			page 57


1876:SynaptiX_FDK/services/cJSON/cJSON.c **** 
1877:SynaptiX_FDK/services/cJSON/cJSON.c ****     return (int)size;
1878:SynaptiX_FDK/services/cJSON/cJSON.c **** }
1879:SynaptiX_FDK/services/cJSON/cJSON.c **** 
1880:SynaptiX_FDK/services/cJSON/cJSON.c **** static cJSON* get_array_item(const cJSON *array, size_t index)
1881:SynaptiX_FDK/services/cJSON/cJSON.c **** {
 1176              		.loc 1 1881 1 is_stmt 1 view -0
 1177              		.cfi_startproc
 1178              		@ args = 0, pretend = 0, frame = 0
 1179              		@ frame_needed = 0, uses_anonymous_args = 0
 1180              		@ link register save eliminated.
1882:SynaptiX_FDK/services/cJSON/cJSON.c ****     cJSON *current_child = NULL;
 1181              		.loc 1 1882 5 view .LVU370
1883:SynaptiX_FDK/services/cJSON/cJSON.c **** 
1884:SynaptiX_FDK/services/cJSON/cJSON.c ****     if (array == NULL)
 1182              		.loc 1 1884 5 view .LVU371
 1183              		.loc 1 1884 8 is_stmt 0 view .LVU372
 1184 0000 38B1     		cbz	r0, .L101
1885:SynaptiX_FDK/services/cJSON/cJSON.c ****     {
1886:SynaptiX_FDK/services/cJSON/cJSON.c ****         return NULL;
1887:SynaptiX_FDK/services/cJSON/cJSON.c ****     }
1888:SynaptiX_FDK/services/cJSON/cJSON.c **** 
1889:SynaptiX_FDK/services/cJSON/cJSON.c ****     current_child = array->child;
 1185              		.loc 1 1889 5 is_stmt 1 view .LVU373
 1186              		.loc 1 1889 19 is_stmt 0 view .LVU374
 1187 0002 8068     		ldr	r0, [r0, #8]
 1188              	.LVL118:
1890:SynaptiX_FDK/services/cJSON/cJSON.c ****     while ((current_child != NULL) && (index > 0))
 1189              		.loc 1 1890 5 is_stmt 1 view .LVU375
 1190              		.loc 1 1890 11 is_stmt 0 view .LVU376
 1191 0004 01E0     		b	.L103
 1192              	.L104:
1891:SynaptiX_FDK/services/cJSON/cJSON.c ****     {
1892:SynaptiX_FDK/services/cJSON/cJSON.c ****         index--;
 1193              		.loc 1 1892 9 is_stmt 1 view .LVU377
 1194              		.loc 1 1892 14 is_stmt 0 view .LVU378
 1195 0006 0139     		subs	r1, r1, #1
 1196              	.LVL119:
1893:SynaptiX_FDK/services/cJSON/cJSON.c ****         current_child = current_child->next;
 1197              		.loc 1 1893 9 is_stmt 1 view .LVU379
 1198              		.loc 1 1893 23 is_stmt 0 view .LVU380
 1199 0008 0068     		ldr	r0, [r0]
 1200              	.LVL120:
 1201              	.L103:
1890:SynaptiX_FDK/services/cJSON/cJSON.c ****     while ((current_child != NULL) && (index > 0))
 1202              		.loc 1 1890 36 is_stmt 1 view .LVU381
 1203 000a 10B1     		cbz	r0, .L101
1890:SynaptiX_FDK/services/cJSON/cJSON.c ****     while ((current_child != NULL) && (index > 0))
 1204              		.loc 1 1890 36 is_stmt 0 discriminator 1 view .LVU382
 1205 000c 0029     		cmp	r1, #0
 1206 000e FAD1     		bne	.L104
 1207 0010 7047     		bx	lr
 1208              	.LVL121:
 1209              	.L101:
1894:SynaptiX_FDK/services/cJSON/cJSON.c ****     }
1895:SynaptiX_FDK/services/cJSON/cJSON.c **** 
1896:SynaptiX_FDK/services/cJSON/cJSON.c ****     return current_child;
ARM GAS  C:\Users\DELL\AppData\Local\Temp\ccXjhdgA.s 			page 58


1897:SynaptiX_FDK/services/cJSON/cJSON.c **** }
 1210              		.loc 1 1897 1 view .LVU383
 1211 0012 7047     		bx	lr
 1212              		.cfi_endproc
 1213              	.LFE44:
 1215              		.section	.text.suffix_object,"ax",%progbits
 1216              		.align	1
 1217              		.syntax unified
 1218              		.thumb
 1219              		.thumb_func
 1221              	suffix_object:
 1222              	.LVL122:
 1223              	.LFB50:
1898:SynaptiX_FDK/services/cJSON/cJSON.c **** 
1899:SynaptiX_FDK/services/cJSON/cJSON.c **** CJSON_PUBLIC(cJSON *) cJSON_GetArrayItem(const cJSON *array, int index)
1900:SynaptiX_FDK/services/cJSON/cJSON.c **** {
1901:SynaptiX_FDK/services/cJSON/cJSON.c ****     if (index < 0)
1902:SynaptiX_FDK/services/cJSON/cJSON.c ****     {
1903:SynaptiX_FDK/services/cJSON/cJSON.c ****         return NULL;
1904:SynaptiX_FDK/services/cJSON/cJSON.c ****     }
1905:SynaptiX_FDK/services/cJSON/cJSON.c **** 
1906:SynaptiX_FDK/services/cJSON/cJSON.c ****     return get_array_item(array, (size_t)index);
1907:SynaptiX_FDK/services/cJSON/cJSON.c **** }
1908:SynaptiX_FDK/services/cJSON/cJSON.c **** 
1909:SynaptiX_FDK/services/cJSON/cJSON.c **** static cJSON *get_object_item(const cJSON * const object, const char * const name, const cJSON_bool
1910:SynaptiX_FDK/services/cJSON/cJSON.c **** {
1911:SynaptiX_FDK/services/cJSON/cJSON.c ****     cJSON *current_element = NULL;
1912:SynaptiX_FDK/services/cJSON/cJSON.c **** 
1913:SynaptiX_FDK/services/cJSON/cJSON.c ****     if ((object == NULL) || (name == NULL))
1914:SynaptiX_FDK/services/cJSON/cJSON.c ****     {
1915:SynaptiX_FDK/services/cJSON/cJSON.c ****         return NULL;
1916:SynaptiX_FDK/services/cJSON/cJSON.c ****     }
1917:SynaptiX_FDK/services/cJSON/cJSON.c **** 
1918:SynaptiX_FDK/services/cJSON/cJSON.c ****     current_element = object->child;
1919:SynaptiX_FDK/services/cJSON/cJSON.c ****     if (case_sensitive)
1920:SynaptiX_FDK/services/cJSON/cJSON.c ****     {
1921:SynaptiX_FDK/services/cJSON/cJSON.c ****         while ((current_element != NULL) && (current_element->string != NULL) && (strcmp(name, curr
1922:SynaptiX_FDK/services/cJSON/cJSON.c ****         {
1923:SynaptiX_FDK/services/cJSON/cJSON.c ****             current_element = current_element->next;
1924:SynaptiX_FDK/services/cJSON/cJSON.c ****         }
1925:SynaptiX_FDK/services/cJSON/cJSON.c ****     }
1926:SynaptiX_FDK/services/cJSON/cJSON.c ****     else
1927:SynaptiX_FDK/services/cJSON/cJSON.c ****     {
1928:SynaptiX_FDK/services/cJSON/cJSON.c ****         while ((current_element != NULL) && (case_insensitive_strcmp((const unsigned char*)name, (c
1929:SynaptiX_FDK/services/cJSON/cJSON.c ****         {
1930:SynaptiX_FDK/services/cJSON/cJSON.c ****             current_element = current_element->next;
1931:SynaptiX_FDK/services/cJSON/cJSON.c ****         }
1932:SynaptiX_FDK/services/cJSON/cJSON.c ****     }
1933:SynaptiX_FDK/services/cJSON/cJSON.c **** 
1934:SynaptiX_FDK/services/cJSON/cJSON.c ****     if ((current_element == NULL) || (current_element->string == NULL)) {
1935:SynaptiX_FDK/services/cJSON/cJSON.c ****         return NULL;
1936:SynaptiX_FDK/services/cJSON/cJSON.c ****     }
1937:SynaptiX_FDK/services/cJSON/cJSON.c **** 
1938:SynaptiX_FDK/services/cJSON/cJSON.c ****     return current_element;
1939:SynaptiX_FDK/services/cJSON/cJSON.c **** }
1940:SynaptiX_FDK/services/cJSON/cJSON.c **** 
1941:SynaptiX_FDK/services/cJSON/cJSON.c **** CJSON_PUBLIC(cJSON *) cJSON_GetObjectItem(const cJSON * const object, const char * const string)
ARM GAS  C:\Users\DELL\AppData\Local\Temp\ccXjhdgA.s 			page 59


1942:SynaptiX_FDK/services/cJSON/cJSON.c **** {
1943:SynaptiX_FDK/services/cJSON/cJSON.c ****     return get_object_item(object, string, false);
1944:SynaptiX_FDK/services/cJSON/cJSON.c **** }
1945:SynaptiX_FDK/services/cJSON/cJSON.c **** 
1946:SynaptiX_FDK/services/cJSON/cJSON.c **** CJSON_PUBLIC(cJSON *) cJSON_GetObjectItemCaseSensitive(const cJSON * const object, const char * con
1947:SynaptiX_FDK/services/cJSON/cJSON.c **** {
1948:SynaptiX_FDK/services/cJSON/cJSON.c ****     return get_object_item(object, string, true);
1949:SynaptiX_FDK/services/cJSON/cJSON.c **** }
1950:SynaptiX_FDK/services/cJSON/cJSON.c **** 
1951:SynaptiX_FDK/services/cJSON/cJSON.c **** CJSON_PUBLIC(cJSON_bool) cJSON_HasObjectItem(const cJSON *object, const char *string)
1952:SynaptiX_FDK/services/cJSON/cJSON.c **** {
1953:SynaptiX_FDK/services/cJSON/cJSON.c ****     return cJSON_GetObjectItem(object, string) ? 1 : 0;
1954:SynaptiX_FDK/services/cJSON/cJSON.c **** }
1955:SynaptiX_FDK/services/cJSON/cJSON.c **** 
1956:SynaptiX_FDK/services/cJSON/cJSON.c **** /* Utility for array list handling. */
1957:SynaptiX_FDK/services/cJSON/cJSON.c **** static void suffix_object(cJSON *prev, cJSON *item)
1958:SynaptiX_FDK/services/cJSON/cJSON.c **** {
 1224              		.loc 1 1958 1 is_stmt 1 view -0
 1225              		.cfi_startproc
 1226              		@ args = 0, pretend = 0, frame = 0
 1227              		@ frame_needed = 0, uses_anonymous_args = 0
 1228              		@ link register save eliminated.
1959:SynaptiX_FDK/services/cJSON/cJSON.c ****     prev->next = item;
 1229              		.loc 1 1959 5 view .LVU385
 1230              		.loc 1 1959 16 is_stmt 0 view .LVU386
 1231 0000 0160     		str	r1, [r0]
1960:SynaptiX_FDK/services/cJSON/cJSON.c ****     item->prev = prev;
 1232              		.loc 1 1960 5 is_stmt 1 view .LVU387
 1233              		.loc 1 1960 16 is_stmt 0 view .LVU388
 1234 0002 4860     		str	r0, [r1, #4]
1961:SynaptiX_FDK/services/cJSON/cJSON.c **** }
 1235              		.loc 1 1961 1 view .LVU389
 1236 0004 7047     		bx	lr
 1237              		.cfi_endproc
 1238              	.LFE50:
 1240              		.section	.text.add_item_to_array,"ax",%progbits
 1241              		.align	1
 1242              		.syntax unified
 1243              		.thumb
 1244              		.thumb_func
 1246              	add_item_to_array:
 1247              	.LVL123:
 1248              	.LFB52:
1962:SynaptiX_FDK/services/cJSON/cJSON.c **** 
1963:SynaptiX_FDK/services/cJSON/cJSON.c **** /* Utility for handling references. */
1964:SynaptiX_FDK/services/cJSON/cJSON.c **** static cJSON *create_reference(const cJSON *item, const internal_hooks * const hooks)
1965:SynaptiX_FDK/services/cJSON/cJSON.c **** {
1966:SynaptiX_FDK/services/cJSON/cJSON.c ****     cJSON *reference = NULL;
1967:SynaptiX_FDK/services/cJSON/cJSON.c ****     if (item == NULL)
1968:SynaptiX_FDK/services/cJSON/cJSON.c ****     {
1969:SynaptiX_FDK/services/cJSON/cJSON.c ****         return NULL;
1970:SynaptiX_FDK/services/cJSON/cJSON.c ****     }
1971:SynaptiX_FDK/services/cJSON/cJSON.c **** 
1972:SynaptiX_FDK/services/cJSON/cJSON.c ****     reference = cJSON_New_Item(hooks);
1973:SynaptiX_FDK/services/cJSON/cJSON.c ****     if (reference == NULL)
1974:SynaptiX_FDK/services/cJSON/cJSON.c ****     {
1975:SynaptiX_FDK/services/cJSON/cJSON.c ****         return NULL;
ARM GAS  C:\Users\DELL\AppData\Local\Temp\ccXjhdgA.s 			page 60


1976:SynaptiX_FDK/services/cJSON/cJSON.c ****     }
1977:SynaptiX_FDK/services/cJSON/cJSON.c **** 
1978:SynaptiX_FDK/services/cJSON/cJSON.c ****     memcpy(reference, item, sizeof(cJSON));
1979:SynaptiX_FDK/services/cJSON/cJSON.c ****     reference->string = NULL;
1980:SynaptiX_FDK/services/cJSON/cJSON.c ****     reference->type |= cJSON_IsReference;
1981:SynaptiX_FDK/services/cJSON/cJSON.c ****     reference->next = reference->prev = NULL;
1982:SynaptiX_FDK/services/cJSON/cJSON.c ****     return reference;
1983:SynaptiX_FDK/services/cJSON/cJSON.c **** }
1984:SynaptiX_FDK/services/cJSON/cJSON.c **** 
1985:SynaptiX_FDK/services/cJSON/cJSON.c **** static cJSON_bool add_item_to_array(cJSON *array, cJSON *item)
1986:SynaptiX_FDK/services/cJSON/cJSON.c **** {
 1249              		.loc 1 1986 1 is_stmt 1 view -0
 1250              		.cfi_startproc
 1251              		@ args = 0, pretend = 0, frame = 0
 1252              		@ frame_needed = 0, uses_anonymous_args = 0
1987:SynaptiX_FDK/services/cJSON/cJSON.c ****     cJSON *child = NULL;
 1253              		.loc 1 1987 5 view .LVU391
1988:SynaptiX_FDK/services/cJSON/cJSON.c **** 
1989:SynaptiX_FDK/services/cJSON/cJSON.c ****     if ((item == NULL) || (array == NULL) || (array == item))
 1254              		.loc 1 1989 5 view .LVU392
 1255              		.loc 1 1989 8 is_stmt 0 view .LVU393
 1256 0000 A1B1     		cbz	r1, .L110
1986:SynaptiX_FDK/services/cJSON/cJSON.c ****     cJSON *child = NULL;
 1257              		.loc 1 1986 1 view .LVU394
 1258 0002 38B5     		push	{r3, r4, r5, lr}
 1259              	.LCFI11:
 1260              		.cfi_def_cfa_offset 16
 1261              		.cfi_offset 3, -16
 1262              		.cfi_offset 4, -12
 1263              		.cfi_offset 5, -8
 1264              		.cfi_offset 14, -4
 1265 0004 0446     		mov	r4, r0
 1266 0006 0D46     		mov	r5, r1
 1267              		.loc 1 1989 24 discriminator 1 view .LVU395
 1268 0008 90B1     		cbz	r0, .L111
 1269              		.loc 1 1989 43 discriminator 2 view .LVU396
 1270 000a 8142     		cmp	r1, r0
 1271 000c 12D0     		beq	.L112
1990:SynaptiX_FDK/services/cJSON/cJSON.c ****     {
1991:SynaptiX_FDK/services/cJSON/cJSON.c ****         return false;
1992:SynaptiX_FDK/services/cJSON/cJSON.c ****     }
1993:SynaptiX_FDK/services/cJSON/cJSON.c **** 
1994:SynaptiX_FDK/services/cJSON/cJSON.c ****     child = array->child;
 1272              		.loc 1 1994 5 is_stmt 1 view .LVU397
 1273              		.loc 1 1994 11 is_stmt 0 view .LVU398
 1274 000e 8368     		ldr	r3, [r0, #8]
 1275              	.LVL124:
1995:SynaptiX_FDK/services/cJSON/cJSON.c ****     /*
1996:SynaptiX_FDK/services/cJSON/cJSON.c ****      * To find the last item in array quickly, we use prev in array
1997:SynaptiX_FDK/services/cJSON/cJSON.c ****      */
1998:SynaptiX_FDK/services/cJSON/cJSON.c ****     if (child == NULL)
 1276              		.loc 1 1998 5 is_stmt 1 view .LVU399
 1277              		.loc 1 1998 8 is_stmt 0 view .LVU400
 1278 0010 3BB1     		cbz	r3, .L118
1999:SynaptiX_FDK/services/cJSON/cJSON.c ****     {
2000:SynaptiX_FDK/services/cJSON/cJSON.c ****         /* list is empty, start new one */
2001:SynaptiX_FDK/services/cJSON/cJSON.c ****         array->child = item;
ARM GAS  C:\Users\DELL\AppData\Local\Temp\ccXjhdgA.s 			page 61


2002:SynaptiX_FDK/services/cJSON/cJSON.c ****         item->prev = item;
2003:SynaptiX_FDK/services/cJSON/cJSON.c ****         item->next = NULL;
2004:SynaptiX_FDK/services/cJSON/cJSON.c ****     }
2005:SynaptiX_FDK/services/cJSON/cJSON.c ****     else
2006:SynaptiX_FDK/services/cJSON/cJSON.c ****     {
2007:SynaptiX_FDK/services/cJSON/cJSON.c ****         /* append to the end */
2008:SynaptiX_FDK/services/cJSON/cJSON.c ****         if (child->prev)
 1279              		.loc 1 2008 9 is_stmt 1 view .LVU401
 1280              		.loc 1 2008 18 is_stmt 0 view .LVU402
 1281 0012 5868     		ldr	r0, [r3, #4]
 1282              	.LVL125:
 1283              		.loc 1 2008 12 view .LVU403
 1284 0014 80B1     		cbz	r0, .L113
2009:SynaptiX_FDK/services/cJSON/cJSON.c ****         {
2010:SynaptiX_FDK/services/cJSON/cJSON.c ****             suffix_object(child->prev, item);
 1285              		.loc 1 2010 13 is_stmt 1 view .LVU404
 1286 0016 FFF7FEFF 		bl	suffix_object
 1287              	.LVL126:
2011:SynaptiX_FDK/services/cJSON/cJSON.c ****             array->child->prev = item;
 1288              		.loc 1 2011 13 view .LVU405
 1289              		.loc 1 2011 18 is_stmt 0 view .LVU406
 1290 001a A368     		ldr	r3, [r4, #8]
 1291              		.loc 1 2011 32 view .LVU407
 1292 001c 5D60     		str	r5, [r3, #4]
2012:SynaptiX_FDK/services/cJSON/cJSON.c ****         }
2013:SynaptiX_FDK/services/cJSON/cJSON.c ****     }
2014:SynaptiX_FDK/services/cJSON/cJSON.c **** 
2015:SynaptiX_FDK/services/cJSON/cJSON.c ****     return true;
 1293              		.loc 1 2015 12 view .LVU408
 1294 001e 0120     		movs	r0, #1
 1295              	.LVL127:
 1296              	.L107:
2016:SynaptiX_FDK/services/cJSON/cJSON.c **** }
 1297              		.loc 1 2016 1 view .LVU409
 1298 0020 38BD     		pop	{r3, r4, r5, pc}
 1299              	.LVL128:
 1300              	.L118:
2001:SynaptiX_FDK/services/cJSON/cJSON.c ****         item->prev = item;
 1301              		.loc 1 2001 9 is_stmt 1 view .LVU410
2001:SynaptiX_FDK/services/cJSON/cJSON.c ****         item->prev = item;
 1302              		.loc 1 2001 22 is_stmt 0 view .LVU411
 1303 0022 8160     		str	r1, [r0, #8]
2002:SynaptiX_FDK/services/cJSON/cJSON.c ****         item->next = NULL;
 1304              		.loc 1 2002 9 is_stmt 1 view .LVU412
2002:SynaptiX_FDK/services/cJSON/cJSON.c ****         item->next = NULL;
 1305              		.loc 1 2002 20 is_stmt 0 view .LVU413
 1306 0024 4960     		str	r1, [r1, #4]
2003:SynaptiX_FDK/services/cJSON/cJSON.c ****     }
 1307              		.loc 1 2003 9 is_stmt 1 view .LVU414
2003:SynaptiX_FDK/services/cJSON/cJSON.c ****     }
 1308              		.loc 1 2003 20 is_stmt 0 view .LVU415
 1309 0026 0B60     		str	r3, [r1]
2015:SynaptiX_FDK/services/cJSON/cJSON.c **** }
 1310              		.loc 1 2015 12 view .LVU416
 1311 0028 0120     		movs	r0, #1
 1312              	.LVL129:
2015:SynaptiX_FDK/services/cJSON/cJSON.c **** }
ARM GAS  C:\Users\DELL\AppData\Local\Temp\ccXjhdgA.s 			page 62


 1313              		.loc 1 2015 12 view .LVU417
 1314 002a F9E7     		b	.L107
 1315              	.LVL130:
 1316              	.L110:
 1317              	.LCFI12:
 1318              		.cfi_def_cfa_offset 0
 1319              		.cfi_restore 3
 1320              		.cfi_restore 4
 1321              		.cfi_restore 5
 1322              		.cfi_restore 14
1991:SynaptiX_FDK/services/cJSON/cJSON.c ****     }
 1323              		.loc 1 1991 16 view .LVU418
 1324 002c 0020     		movs	r0, #0
 1325              	.LVL131:
 1326              		.loc 1 2016 1 view .LVU419
 1327 002e 7047     		bx	lr
 1328              	.LVL132:
 1329              	.L111:
 1330              	.LCFI13:
 1331              		.cfi_def_cfa_offset 16
 1332              		.cfi_offset 3, -16
 1333              		.cfi_offset 4, -12
 1334              		.cfi_offset 5, -8
 1335              		.cfi_offset 14, -4
1991:SynaptiX_FDK/services/cJSON/cJSON.c ****     }
 1336              		.loc 1 1991 16 view .LVU420
 1337 0030 0020     		movs	r0, #0
 1338              	.LVL133:
1991:SynaptiX_FDK/services/cJSON/cJSON.c ****     }
 1339              		.loc 1 1991 16 view .LVU421
 1340 0032 F5E7     		b	.L107
 1341              	.LVL134:
 1342              	.L112:
1991:SynaptiX_FDK/services/cJSON/cJSON.c ****     }
 1343              		.loc 1 1991 16 view .LVU422
 1344 0034 0020     		movs	r0, #0
 1345              	.LVL135:
1991:SynaptiX_FDK/services/cJSON/cJSON.c ****     }
 1346              		.loc 1 1991 16 view .LVU423
 1347 0036 F3E7     		b	.L107
 1348              	.LVL136:
 1349              	.L113:
2015:SynaptiX_FDK/services/cJSON/cJSON.c **** }
 1350              		.loc 1 2015 12 view .LVU424
 1351 0038 0120     		movs	r0, #1
 1352 003a F1E7     		b	.L107
 1353              		.cfi_endproc
 1354              	.LFE52:
 1356              		.section	.text.cast_away_const,"ax",%progbits
 1357              		.align	1
 1358              		.syntax unified
 1359              		.thumb
 1360              		.thumb_func
 1362              	cast_away_const:
 1363              	.LVL137:
 1364              	.LFB54:
2017:SynaptiX_FDK/services/cJSON/cJSON.c **** 
ARM GAS  C:\Users\DELL\AppData\Local\Temp\ccXjhdgA.s 			page 63


2018:SynaptiX_FDK/services/cJSON/cJSON.c **** /* Add item to array/object. */
2019:SynaptiX_FDK/services/cJSON/cJSON.c **** CJSON_PUBLIC(cJSON_bool) cJSON_AddItemToArray(cJSON *array, cJSON *item)
2020:SynaptiX_FDK/services/cJSON/cJSON.c **** {
2021:SynaptiX_FDK/services/cJSON/cJSON.c ****     return add_item_to_array(array, item);
2022:SynaptiX_FDK/services/cJSON/cJSON.c **** }
2023:SynaptiX_FDK/services/cJSON/cJSON.c **** 
2024:SynaptiX_FDK/services/cJSON/cJSON.c **** #if defined(__clang__) || (defined(__GNUC__)  && ((__GNUC__ > 4) || ((__GNUC__ == 4) && (__GNUC_MIN
2025:SynaptiX_FDK/services/cJSON/cJSON.c ****     #pragma GCC diagnostic push
2026:SynaptiX_FDK/services/cJSON/cJSON.c **** #endif
2027:SynaptiX_FDK/services/cJSON/cJSON.c **** #ifdef __GNUC__
2028:SynaptiX_FDK/services/cJSON/cJSON.c **** #pragma GCC diagnostic ignored "-Wcast-qual"
2029:SynaptiX_FDK/services/cJSON/cJSON.c **** #endif
2030:SynaptiX_FDK/services/cJSON/cJSON.c **** /* helper function to cast away const */
2031:SynaptiX_FDK/services/cJSON/cJSON.c **** static void* cast_away_const(const void* string)
2032:SynaptiX_FDK/services/cJSON/cJSON.c **** {
 1365              		.loc 1 2032 1 is_stmt 1 view -0
 1366              		.cfi_startproc
 1367              		@ args = 0, pretend = 0, frame = 0
 1368              		@ frame_needed = 0, uses_anonymous_args = 0
 1369              		@ link register save eliminated.
2033:SynaptiX_FDK/services/cJSON/cJSON.c ****     return (void*)string;
 1370              		.loc 1 2033 5 view .LVU426
2034:SynaptiX_FDK/services/cJSON/cJSON.c **** }
 1371              		.loc 1 2034 1 is_stmt 0 view .LVU427
 1372 0000 7047     		bx	lr
 1373              		.cfi_endproc
 1374              	.LFE54:
 1376              		.section	.text.skip_oneline_comment,"ax",%progbits
 1377              		.align	1
 1378              		.syntax unified
 1379              		.thumb
 1380              		.thumb_func
 1382              	skip_oneline_comment:
 1383              	.LVL138:
 1384              	.LFB100:
2035:SynaptiX_FDK/services/cJSON/cJSON.c **** #if defined(__clang__) || (defined(__GNUC__)  && ((__GNUC__ > 4) || ((__GNUC__ == 4) && (__GNUC_MIN
2036:SynaptiX_FDK/services/cJSON/cJSON.c ****     #pragma GCC diagnostic pop
2037:SynaptiX_FDK/services/cJSON/cJSON.c **** #endif
2038:SynaptiX_FDK/services/cJSON/cJSON.c **** 
2039:SynaptiX_FDK/services/cJSON/cJSON.c **** 
2040:SynaptiX_FDK/services/cJSON/cJSON.c **** static cJSON_bool add_item_to_object(cJSON * const object, const char * const string, cJSON * const
2041:SynaptiX_FDK/services/cJSON/cJSON.c **** {
2042:SynaptiX_FDK/services/cJSON/cJSON.c ****     char *new_key = NULL;
2043:SynaptiX_FDK/services/cJSON/cJSON.c ****     int new_type = cJSON_Invalid;
2044:SynaptiX_FDK/services/cJSON/cJSON.c **** 
2045:SynaptiX_FDK/services/cJSON/cJSON.c ****     if ((object == NULL) || (string == NULL) || (item == NULL) || (object == item))
2046:SynaptiX_FDK/services/cJSON/cJSON.c ****     {
2047:SynaptiX_FDK/services/cJSON/cJSON.c ****         return false;
2048:SynaptiX_FDK/services/cJSON/cJSON.c ****     }
2049:SynaptiX_FDK/services/cJSON/cJSON.c **** 
2050:SynaptiX_FDK/services/cJSON/cJSON.c ****     if (constant_key)
2051:SynaptiX_FDK/services/cJSON/cJSON.c ****     {
2052:SynaptiX_FDK/services/cJSON/cJSON.c ****         new_key = (char*)cast_away_const(string);
2053:SynaptiX_FDK/services/cJSON/cJSON.c ****         new_type = item->type | cJSON_StringIsConst;
2054:SynaptiX_FDK/services/cJSON/cJSON.c ****     }
2055:SynaptiX_FDK/services/cJSON/cJSON.c ****     else
2056:SynaptiX_FDK/services/cJSON/cJSON.c ****     {
ARM GAS  C:\Users\DELL\AppData\Local\Temp\ccXjhdgA.s 			page 64


2057:SynaptiX_FDK/services/cJSON/cJSON.c ****         new_key = (char*)cJSON_strdup((const unsigned char*)string, hooks);
2058:SynaptiX_FDK/services/cJSON/cJSON.c ****         if (new_key == NULL)
2059:SynaptiX_FDK/services/cJSON/cJSON.c ****         {
2060:SynaptiX_FDK/services/cJSON/cJSON.c ****             return false;
2061:SynaptiX_FDK/services/cJSON/cJSON.c ****         }
2062:SynaptiX_FDK/services/cJSON/cJSON.c **** 
2063:SynaptiX_FDK/services/cJSON/cJSON.c ****         new_type = item->type & ~cJSON_StringIsConst;
2064:SynaptiX_FDK/services/cJSON/cJSON.c ****     }
2065:SynaptiX_FDK/services/cJSON/cJSON.c **** 
2066:SynaptiX_FDK/services/cJSON/cJSON.c ****     if (!(item->type & cJSON_StringIsConst) && (item->string != NULL))
2067:SynaptiX_FDK/services/cJSON/cJSON.c ****     {
2068:SynaptiX_FDK/services/cJSON/cJSON.c ****         hooks->deallocate(item->string);
2069:SynaptiX_FDK/services/cJSON/cJSON.c ****     }
2070:SynaptiX_FDK/services/cJSON/cJSON.c **** 
2071:SynaptiX_FDK/services/cJSON/cJSON.c ****     item->string = new_key;
2072:SynaptiX_FDK/services/cJSON/cJSON.c ****     item->type = new_type;
2073:SynaptiX_FDK/services/cJSON/cJSON.c **** 
2074:SynaptiX_FDK/services/cJSON/cJSON.c ****     return add_item_to_array(object, item);
2075:SynaptiX_FDK/services/cJSON/cJSON.c **** }
2076:SynaptiX_FDK/services/cJSON/cJSON.c **** 
2077:SynaptiX_FDK/services/cJSON/cJSON.c **** CJSON_PUBLIC(cJSON_bool) cJSON_AddItemToObject(cJSON *object, const char *string, cJSON *item)
2078:SynaptiX_FDK/services/cJSON/cJSON.c **** {
2079:SynaptiX_FDK/services/cJSON/cJSON.c ****     return add_item_to_object(object, string, item, &global_hooks, false);
2080:SynaptiX_FDK/services/cJSON/cJSON.c **** }
2081:SynaptiX_FDK/services/cJSON/cJSON.c **** 
2082:SynaptiX_FDK/services/cJSON/cJSON.c **** /* Add an item to an object with constant string as key */
2083:SynaptiX_FDK/services/cJSON/cJSON.c **** CJSON_PUBLIC(cJSON_bool) cJSON_AddItemToObjectCS(cJSON *object, const char *string, cJSON *item)
2084:SynaptiX_FDK/services/cJSON/cJSON.c **** {
2085:SynaptiX_FDK/services/cJSON/cJSON.c ****     return add_item_to_object(object, string, item, &global_hooks, true);
2086:SynaptiX_FDK/services/cJSON/cJSON.c **** }
2087:SynaptiX_FDK/services/cJSON/cJSON.c **** 
2088:SynaptiX_FDK/services/cJSON/cJSON.c **** CJSON_PUBLIC(cJSON_bool) cJSON_AddItemReferenceToArray(cJSON *array, cJSON *item)
2089:SynaptiX_FDK/services/cJSON/cJSON.c **** {
2090:SynaptiX_FDK/services/cJSON/cJSON.c ****     if (array == NULL)
2091:SynaptiX_FDK/services/cJSON/cJSON.c ****     {
2092:SynaptiX_FDK/services/cJSON/cJSON.c ****         return false;
2093:SynaptiX_FDK/services/cJSON/cJSON.c ****     }
2094:SynaptiX_FDK/services/cJSON/cJSON.c **** 
2095:SynaptiX_FDK/services/cJSON/cJSON.c ****     return add_item_to_array(array, create_reference(item, &global_hooks));
2096:SynaptiX_FDK/services/cJSON/cJSON.c **** }
2097:SynaptiX_FDK/services/cJSON/cJSON.c **** 
2098:SynaptiX_FDK/services/cJSON/cJSON.c **** CJSON_PUBLIC(cJSON_bool) cJSON_AddItemReferenceToObject(cJSON *object, const char *string, cJSON *i
2099:SynaptiX_FDK/services/cJSON/cJSON.c **** {
2100:SynaptiX_FDK/services/cJSON/cJSON.c ****     if ((object == NULL) || (string == NULL))
2101:SynaptiX_FDK/services/cJSON/cJSON.c ****     {
2102:SynaptiX_FDK/services/cJSON/cJSON.c ****         return false;
2103:SynaptiX_FDK/services/cJSON/cJSON.c ****     }
2104:SynaptiX_FDK/services/cJSON/cJSON.c **** 
2105:SynaptiX_FDK/services/cJSON/cJSON.c ****     return add_item_to_object(object, string, create_reference(item, &global_hooks), &global_hooks,
2106:SynaptiX_FDK/services/cJSON/cJSON.c **** }
2107:SynaptiX_FDK/services/cJSON/cJSON.c **** 
2108:SynaptiX_FDK/services/cJSON/cJSON.c **** CJSON_PUBLIC(cJSON*) cJSON_AddNullToObject(cJSON * const object, const char * const name)
2109:SynaptiX_FDK/services/cJSON/cJSON.c **** {
2110:SynaptiX_FDK/services/cJSON/cJSON.c ****     cJSON *null = cJSON_CreateNull();
2111:SynaptiX_FDK/services/cJSON/cJSON.c ****     if (add_item_to_object(object, name, null, &global_hooks, false))
2112:SynaptiX_FDK/services/cJSON/cJSON.c ****     {
2113:SynaptiX_FDK/services/cJSON/cJSON.c ****         return null;
ARM GAS  C:\Users\DELL\AppData\Local\Temp\ccXjhdgA.s 			page 65


2114:SynaptiX_FDK/services/cJSON/cJSON.c ****     }
2115:SynaptiX_FDK/services/cJSON/cJSON.c **** 
2116:SynaptiX_FDK/services/cJSON/cJSON.c ****     cJSON_Delete(null);
2117:SynaptiX_FDK/services/cJSON/cJSON.c ****     return NULL;
2118:SynaptiX_FDK/services/cJSON/cJSON.c **** }
2119:SynaptiX_FDK/services/cJSON/cJSON.c **** 
2120:SynaptiX_FDK/services/cJSON/cJSON.c **** CJSON_PUBLIC(cJSON*) cJSON_AddTrueToObject(cJSON * const object, const char * const name)
2121:SynaptiX_FDK/services/cJSON/cJSON.c **** {
2122:SynaptiX_FDK/services/cJSON/cJSON.c ****     cJSON *true_item = cJSON_CreateTrue();
2123:SynaptiX_FDK/services/cJSON/cJSON.c ****     if (add_item_to_object(object, name, true_item, &global_hooks, false))
2124:SynaptiX_FDK/services/cJSON/cJSON.c ****     {
2125:SynaptiX_FDK/services/cJSON/cJSON.c ****         return true_item;
2126:SynaptiX_FDK/services/cJSON/cJSON.c ****     }
2127:SynaptiX_FDK/services/cJSON/cJSON.c **** 
2128:SynaptiX_FDK/services/cJSON/cJSON.c ****     cJSON_Delete(true_item);
2129:SynaptiX_FDK/services/cJSON/cJSON.c ****     return NULL;
2130:SynaptiX_FDK/services/cJSON/cJSON.c **** }
2131:SynaptiX_FDK/services/cJSON/cJSON.c **** 
2132:SynaptiX_FDK/services/cJSON/cJSON.c **** CJSON_PUBLIC(cJSON*) cJSON_AddFalseToObject(cJSON * const object, const char * const name)
2133:SynaptiX_FDK/services/cJSON/cJSON.c **** {
2134:SynaptiX_FDK/services/cJSON/cJSON.c ****     cJSON *false_item = cJSON_CreateFalse();
2135:SynaptiX_FDK/services/cJSON/cJSON.c ****     if (add_item_to_object(object, name, false_item, &global_hooks, false))
2136:SynaptiX_FDK/services/cJSON/cJSON.c ****     {
2137:SynaptiX_FDK/services/cJSON/cJSON.c ****         return false_item;
2138:SynaptiX_FDK/services/cJSON/cJSON.c ****     }
2139:SynaptiX_FDK/services/cJSON/cJSON.c **** 
2140:SynaptiX_FDK/services/cJSON/cJSON.c ****     cJSON_Delete(false_item);
2141:SynaptiX_FDK/services/cJSON/cJSON.c ****     return NULL;
2142:SynaptiX_FDK/services/cJSON/cJSON.c **** }
2143:SynaptiX_FDK/services/cJSON/cJSON.c **** 
2144:SynaptiX_FDK/services/cJSON/cJSON.c **** CJSON_PUBLIC(cJSON*) cJSON_AddBoolToObject(cJSON * const object, const char * const name, const cJS
2145:SynaptiX_FDK/services/cJSON/cJSON.c **** {
2146:SynaptiX_FDK/services/cJSON/cJSON.c ****     cJSON *bool_item = cJSON_CreateBool(boolean);
2147:SynaptiX_FDK/services/cJSON/cJSON.c ****     if (add_item_to_object(object, name, bool_item, &global_hooks, false))
2148:SynaptiX_FDK/services/cJSON/cJSON.c ****     {
2149:SynaptiX_FDK/services/cJSON/cJSON.c ****         return bool_item;
2150:SynaptiX_FDK/services/cJSON/cJSON.c ****     }
2151:SynaptiX_FDK/services/cJSON/cJSON.c **** 
2152:SynaptiX_FDK/services/cJSON/cJSON.c ****     cJSON_Delete(bool_item);
2153:SynaptiX_FDK/services/cJSON/cJSON.c ****     return NULL;
2154:SynaptiX_FDK/services/cJSON/cJSON.c **** }
2155:SynaptiX_FDK/services/cJSON/cJSON.c **** 
2156:SynaptiX_FDK/services/cJSON/cJSON.c **** CJSON_PUBLIC(cJSON*) cJSON_AddNumberToObject(cJSON * const object, const char * const name, const d
2157:SynaptiX_FDK/services/cJSON/cJSON.c **** {
2158:SynaptiX_FDK/services/cJSON/cJSON.c ****     cJSON *number_item = cJSON_CreateNumber(number);
2159:SynaptiX_FDK/services/cJSON/cJSON.c ****     if (add_item_to_object(object, name, number_item, &global_hooks, false))
2160:SynaptiX_FDK/services/cJSON/cJSON.c ****     {
2161:SynaptiX_FDK/services/cJSON/cJSON.c ****         return number_item;
2162:SynaptiX_FDK/services/cJSON/cJSON.c ****     }
2163:SynaptiX_FDK/services/cJSON/cJSON.c **** 
2164:SynaptiX_FDK/services/cJSON/cJSON.c ****     cJSON_Delete(number_item);
2165:SynaptiX_FDK/services/cJSON/cJSON.c ****     return NULL;
2166:SynaptiX_FDK/services/cJSON/cJSON.c **** }
2167:SynaptiX_FDK/services/cJSON/cJSON.c **** 
2168:SynaptiX_FDK/services/cJSON/cJSON.c **** CJSON_PUBLIC(cJSON*) cJSON_AddStringToObject(cJSON * const object, const char * const name, const c
2169:SynaptiX_FDK/services/cJSON/cJSON.c **** {
2170:SynaptiX_FDK/services/cJSON/cJSON.c ****     cJSON *string_item = cJSON_CreateString(string);
ARM GAS  C:\Users\DELL\AppData\Local\Temp\ccXjhdgA.s 			page 66


2171:SynaptiX_FDK/services/cJSON/cJSON.c ****     if (add_item_to_object(object, name, string_item, &global_hooks, false))
2172:SynaptiX_FDK/services/cJSON/cJSON.c ****     {
2173:SynaptiX_FDK/services/cJSON/cJSON.c ****         return string_item;
2174:SynaptiX_FDK/services/cJSON/cJSON.c ****     }
2175:SynaptiX_FDK/services/cJSON/cJSON.c **** 
2176:SynaptiX_FDK/services/cJSON/cJSON.c ****     cJSON_Delete(string_item);
2177:SynaptiX_FDK/services/cJSON/cJSON.c ****     return NULL;
2178:SynaptiX_FDK/services/cJSON/cJSON.c **** }
2179:SynaptiX_FDK/services/cJSON/cJSON.c **** 
2180:SynaptiX_FDK/services/cJSON/cJSON.c **** CJSON_PUBLIC(cJSON*) cJSON_AddRawToObject(cJSON * const object, const char * const name, const char
2181:SynaptiX_FDK/services/cJSON/cJSON.c **** {
2182:SynaptiX_FDK/services/cJSON/cJSON.c ****     cJSON *raw_item = cJSON_CreateRaw(raw);
2183:SynaptiX_FDK/services/cJSON/cJSON.c ****     if (add_item_to_object(object, name, raw_item, &global_hooks, false))
2184:SynaptiX_FDK/services/cJSON/cJSON.c ****     {
2185:SynaptiX_FDK/services/cJSON/cJSON.c ****         return raw_item;
2186:SynaptiX_FDK/services/cJSON/cJSON.c ****     }
2187:SynaptiX_FDK/services/cJSON/cJSON.c **** 
2188:SynaptiX_FDK/services/cJSON/cJSON.c ****     cJSON_Delete(raw_item);
2189:SynaptiX_FDK/services/cJSON/cJSON.c ****     return NULL;
2190:SynaptiX_FDK/services/cJSON/cJSON.c **** }
2191:SynaptiX_FDK/services/cJSON/cJSON.c **** 
2192:SynaptiX_FDK/services/cJSON/cJSON.c **** CJSON_PUBLIC(cJSON*) cJSON_AddObjectToObject(cJSON * const object, const char * const name)
2193:SynaptiX_FDK/services/cJSON/cJSON.c **** {
2194:SynaptiX_FDK/services/cJSON/cJSON.c ****     cJSON *object_item = cJSON_CreateObject();
2195:SynaptiX_FDK/services/cJSON/cJSON.c ****     if (add_item_to_object(object, name, object_item, &global_hooks, false))
2196:SynaptiX_FDK/services/cJSON/cJSON.c ****     {
2197:SynaptiX_FDK/services/cJSON/cJSON.c ****         return object_item;
2198:SynaptiX_FDK/services/cJSON/cJSON.c ****     }
2199:SynaptiX_FDK/services/cJSON/cJSON.c **** 
2200:SynaptiX_FDK/services/cJSON/cJSON.c ****     cJSON_Delete(object_item);
2201:SynaptiX_FDK/services/cJSON/cJSON.c ****     return NULL;
2202:SynaptiX_FDK/services/cJSON/cJSON.c **** }
2203:SynaptiX_FDK/services/cJSON/cJSON.c **** 
2204:SynaptiX_FDK/services/cJSON/cJSON.c **** CJSON_PUBLIC(cJSON*) cJSON_AddArrayToObject(cJSON * const object, const char * const name)
2205:SynaptiX_FDK/services/cJSON/cJSON.c **** {
2206:SynaptiX_FDK/services/cJSON/cJSON.c ****     cJSON *array = cJSON_CreateArray();
2207:SynaptiX_FDK/services/cJSON/cJSON.c ****     if (add_item_to_object(object, name, array, &global_hooks, false))
2208:SynaptiX_FDK/services/cJSON/cJSON.c ****     {
2209:SynaptiX_FDK/services/cJSON/cJSON.c ****         return array;
2210:SynaptiX_FDK/services/cJSON/cJSON.c ****     }
2211:SynaptiX_FDK/services/cJSON/cJSON.c **** 
2212:SynaptiX_FDK/services/cJSON/cJSON.c ****     cJSON_Delete(array);
2213:SynaptiX_FDK/services/cJSON/cJSON.c ****     return NULL;
2214:SynaptiX_FDK/services/cJSON/cJSON.c **** }
2215:SynaptiX_FDK/services/cJSON/cJSON.c **** 
2216:SynaptiX_FDK/services/cJSON/cJSON.c **** CJSON_PUBLIC(cJSON *) cJSON_DetachItemViaPointer(cJSON *parent, cJSON * const item)
2217:SynaptiX_FDK/services/cJSON/cJSON.c **** {
2218:SynaptiX_FDK/services/cJSON/cJSON.c ****     if ((parent == NULL) || (item == NULL) || (item != parent->child && item->prev == NULL))
2219:SynaptiX_FDK/services/cJSON/cJSON.c ****     {
2220:SynaptiX_FDK/services/cJSON/cJSON.c ****         return NULL;
2221:SynaptiX_FDK/services/cJSON/cJSON.c ****     }
2222:SynaptiX_FDK/services/cJSON/cJSON.c **** 
2223:SynaptiX_FDK/services/cJSON/cJSON.c ****     if (item != parent->child)
2224:SynaptiX_FDK/services/cJSON/cJSON.c ****     {
2225:SynaptiX_FDK/services/cJSON/cJSON.c ****         /* not the first element */
2226:SynaptiX_FDK/services/cJSON/cJSON.c ****         item->prev->next = item->next;
2227:SynaptiX_FDK/services/cJSON/cJSON.c ****     }
ARM GAS  C:\Users\DELL\AppData\Local\Temp\ccXjhdgA.s 			page 67


2228:SynaptiX_FDK/services/cJSON/cJSON.c ****     if (item->next != NULL)
2229:SynaptiX_FDK/services/cJSON/cJSON.c ****     {
2230:SynaptiX_FDK/services/cJSON/cJSON.c ****         /* not the last element */
2231:SynaptiX_FDK/services/cJSON/cJSON.c ****         item->next->prev = item->prev;
2232:SynaptiX_FDK/services/cJSON/cJSON.c ****     }
2233:SynaptiX_FDK/services/cJSON/cJSON.c **** 
2234:SynaptiX_FDK/services/cJSON/cJSON.c ****     if (item == parent->child)
2235:SynaptiX_FDK/services/cJSON/cJSON.c ****     {
2236:SynaptiX_FDK/services/cJSON/cJSON.c ****         /* first element */
2237:SynaptiX_FDK/services/cJSON/cJSON.c ****         parent->child = item->next;
2238:SynaptiX_FDK/services/cJSON/cJSON.c ****     }
2239:SynaptiX_FDK/services/cJSON/cJSON.c ****     else if (item->next == NULL)
2240:SynaptiX_FDK/services/cJSON/cJSON.c ****     {
2241:SynaptiX_FDK/services/cJSON/cJSON.c ****         /* last element */
2242:SynaptiX_FDK/services/cJSON/cJSON.c ****         parent->child->prev = item->prev;
2243:SynaptiX_FDK/services/cJSON/cJSON.c ****     }
2244:SynaptiX_FDK/services/cJSON/cJSON.c **** 
2245:SynaptiX_FDK/services/cJSON/cJSON.c ****     /* make sure the detached item doesn't point anywhere anymore */
2246:SynaptiX_FDK/services/cJSON/cJSON.c ****     item->prev = NULL;
2247:SynaptiX_FDK/services/cJSON/cJSON.c ****     item->next = NULL;
2248:SynaptiX_FDK/services/cJSON/cJSON.c **** 
2249:SynaptiX_FDK/services/cJSON/cJSON.c ****     return item;
2250:SynaptiX_FDK/services/cJSON/cJSON.c **** }
2251:SynaptiX_FDK/services/cJSON/cJSON.c **** 
2252:SynaptiX_FDK/services/cJSON/cJSON.c **** CJSON_PUBLIC(cJSON *) cJSON_DetachItemFromArray(cJSON *array, int which)
2253:SynaptiX_FDK/services/cJSON/cJSON.c **** {
2254:SynaptiX_FDK/services/cJSON/cJSON.c ****     if (which < 0)
2255:SynaptiX_FDK/services/cJSON/cJSON.c ****     {
2256:SynaptiX_FDK/services/cJSON/cJSON.c ****         return NULL;
2257:SynaptiX_FDK/services/cJSON/cJSON.c ****     }
2258:SynaptiX_FDK/services/cJSON/cJSON.c **** 
2259:SynaptiX_FDK/services/cJSON/cJSON.c ****     return cJSON_DetachItemViaPointer(array, get_array_item(array, (size_t)which));
2260:SynaptiX_FDK/services/cJSON/cJSON.c **** }
2261:SynaptiX_FDK/services/cJSON/cJSON.c **** 
2262:SynaptiX_FDK/services/cJSON/cJSON.c **** CJSON_PUBLIC(void) cJSON_DeleteItemFromArray(cJSON *array, int which)
2263:SynaptiX_FDK/services/cJSON/cJSON.c **** {
2264:SynaptiX_FDK/services/cJSON/cJSON.c ****     cJSON_Delete(cJSON_DetachItemFromArray(array, which));
2265:SynaptiX_FDK/services/cJSON/cJSON.c **** }
2266:SynaptiX_FDK/services/cJSON/cJSON.c **** 
2267:SynaptiX_FDK/services/cJSON/cJSON.c **** CJSON_PUBLIC(cJSON *) cJSON_DetachItemFromObject(cJSON *object, const char *string)
2268:SynaptiX_FDK/services/cJSON/cJSON.c **** {
2269:SynaptiX_FDK/services/cJSON/cJSON.c ****     cJSON *to_detach = cJSON_GetObjectItem(object, string);
2270:SynaptiX_FDK/services/cJSON/cJSON.c **** 
2271:SynaptiX_FDK/services/cJSON/cJSON.c ****     return cJSON_DetachItemViaPointer(object, to_detach);
2272:SynaptiX_FDK/services/cJSON/cJSON.c **** }
2273:SynaptiX_FDK/services/cJSON/cJSON.c **** 
2274:SynaptiX_FDK/services/cJSON/cJSON.c **** CJSON_PUBLIC(cJSON *) cJSON_DetachItemFromObjectCaseSensitive(cJSON *object, const char *string)
2275:SynaptiX_FDK/services/cJSON/cJSON.c **** {
2276:SynaptiX_FDK/services/cJSON/cJSON.c ****     cJSON *to_detach = cJSON_GetObjectItemCaseSensitive(object, string);
2277:SynaptiX_FDK/services/cJSON/cJSON.c **** 
2278:SynaptiX_FDK/services/cJSON/cJSON.c ****     return cJSON_DetachItemViaPointer(object, to_detach);
2279:SynaptiX_FDK/services/cJSON/cJSON.c **** }
2280:SynaptiX_FDK/services/cJSON/cJSON.c **** 
2281:SynaptiX_FDK/services/cJSON/cJSON.c **** CJSON_PUBLIC(void) cJSON_DeleteItemFromObject(cJSON *object, const char *string)
2282:SynaptiX_FDK/services/cJSON/cJSON.c **** {
2283:SynaptiX_FDK/services/cJSON/cJSON.c ****     cJSON_Delete(cJSON_DetachItemFromObject(object, string));
2284:SynaptiX_FDK/services/cJSON/cJSON.c **** }
ARM GAS  C:\Users\DELL\AppData\Local\Temp\ccXjhdgA.s 			page 68


2285:SynaptiX_FDK/services/cJSON/cJSON.c **** 
2286:SynaptiX_FDK/services/cJSON/cJSON.c **** CJSON_PUBLIC(void) cJSON_DeleteItemFromObjectCaseSensitive(cJSON *object, const char *string)
2287:SynaptiX_FDK/services/cJSON/cJSON.c **** {
2288:SynaptiX_FDK/services/cJSON/cJSON.c ****     cJSON_Delete(cJSON_DetachItemFromObjectCaseSensitive(object, string));
2289:SynaptiX_FDK/services/cJSON/cJSON.c **** }
2290:SynaptiX_FDK/services/cJSON/cJSON.c **** 
2291:SynaptiX_FDK/services/cJSON/cJSON.c **** /* Replace array/object items with new ones. */
2292:SynaptiX_FDK/services/cJSON/cJSON.c **** CJSON_PUBLIC(cJSON_bool) cJSON_InsertItemInArray(cJSON *array, int which, cJSON *newitem)
2293:SynaptiX_FDK/services/cJSON/cJSON.c **** {
2294:SynaptiX_FDK/services/cJSON/cJSON.c ****     cJSON *after_inserted = NULL;
2295:SynaptiX_FDK/services/cJSON/cJSON.c **** 
2296:SynaptiX_FDK/services/cJSON/cJSON.c ****     if (which < 0 || newitem == NULL)
2297:SynaptiX_FDK/services/cJSON/cJSON.c ****     {
2298:SynaptiX_FDK/services/cJSON/cJSON.c ****         return false;
2299:SynaptiX_FDK/services/cJSON/cJSON.c ****     }
2300:SynaptiX_FDK/services/cJSON/cJSON.c **** 
2301:SynaptiX_FDK/services/cJSON/cJSON.c ****     after_inserted = get_array_item(array, (size_t)which);
2302:SynaptiX_FDK/services/cJSON/cJSON.c ****     if (after_inserted == NULL)
2303:SynaptiX_FDK/services/cJSON/cJSON.c ****     {
2304:SynaptiX_FDK/services/cJSON/cJSON.c ****         return add_item_to_array(array, newitem);
2305:SynaptiX_FDK/services/cJSON/cJSON.c ****     }
2306:SynaptiX_FDK/services/cJSON/cJSON.c **** 
2307:SynaptiX_FDK/services/cJSON/cJSON.c ****     if (after_inserted != array->child && after_inserted->prev == NULL) {
2308:SynaptiX_FDK/services/cJSON/cJSON.c ****         /* return false if after_inserted is a corrupted array item */
2309:SynaptiX_FDK/services/cJSON/cJSON.c ****         return false;
2310:SynaptiX_FDK/services/cJSON/cJSON.c ****     }
2311:SynaptiX_FDK/services/cJSON/cJSON.c **** 
2312:SynaptiX_FDK/services/cJSON/cJSON.c ****     newitem->next = after_inserted;
2313:SynaptiX_FDK/services/cJSON/cJSON.c ****     newitem->prev = after_inserted->prev;
2314:SynaptiX_FDK/services/cJSON/cJSON.c ****     after_inserted->prev = newitem;
2315:SynaptiX_FDK/services/cJSON/cJSON.c ****     if (after_inserted == array->child)
2316:SynaptiX_FDK/services/cJSON/cJSON.c ****     {
2317:SynaptiX_FDK/services/cJSON/cJSON.c ****         array->child = newitem;
2318:SynaptiX_FDK/services/cJSON/cJSON.c ****     }
2319:SynaptiX_FDK/services/cJSON/cJSON.c ****     else
2320:SynaptiX_FDK/services/cJSON/cJSON.c ****     {
2321:SynaptiX_FDK/services/cJSON/cJSON.c ****         newitem->prev->next = newitem;
2322:SynaptiX_FDK/services/cJSON/cJSON.c ****     }
2323:SynaptiX_FDK/services/cJSON/cJSON.c ****     return true;
2324:SynaptiX_FDK/services/cJSON/cJSON.c **** }
2325:SynaptiX_FDK/services/cJSON/cJSON.c **** 
2326:SynaptiX_FDK/services/cJSON/cJSON.c **** CJSON_PUBLIC(cJSON_bool) cJSON_ReplaceItemViaPointer(cJSON * const parent, cJSON * const item, cJSO
2327:SynaptiX_FDK/services/cJSON/cJSON.c **** {
2328:SynaptiX_FDK/services/cJSON/cJSON.c ****     if ((parent == NULL) || (parent->child == NULL) || (replacement == NULL) || (item == NULL))
2329:SynaptiX_FDK/services/cJSON/cJSON.c ****     {
2330:SynaptiX_FDK/services/cJSON/cJSON.c ****         return false;
2331:SynaptiX_FDK/services/cJSON/cJSON.c ****     }
2332:SynaptiX_FDK/services/cJSON/cJSON.c **** 
2333:SynaptiX_FDK/services/cJSON/cJSON.c ****     if (replacement == item)
2334:SynaptiX_FDK/services/cJSON/cJSON.c ****     {
2335:SynaptiX_FDK/services/cJSON/cJSON.c ****         return true;
2336:SynaptiX_FDK/services/cJSON/cJSON.c ****     }
2337:SynaptiX_FDK/services/cJSON/cJSON.c **** 
2338:SynaptiX_FDK/services/cJSON/cJSON.c ****     replacement->next = item->next;
2339:SynaptiX_FDK/services/cJSON/cJSON.c ****     replacement->prev = item->prev;
2340:SynaptiX_FDK/services/cJSON/cJSON.c **** 
2341:SynaptiX_FDK/services/cJSON/cJSON.c ****     if (replacement->next != NULL)
ARM GAS  C:\Users\DELL\AppData\Local\Temp\ccXjhdgA.s 			page 69


2342:SynaptiX_FDK/services/cJSON/cJSON.c ****     {
2343:SynaptiX_FDK/services/cJSON/cJSON.c ****         replacement->next->prev = replacement;
2344:SynaptiX_FDK/services/cJSON/cJSON.c ****     }
2345:SynaptiX_FDK/services/cJSON/cJSON.c ****     if (parent->child == item)
2346:SynaptiX_FDK/services/cJSON/cJSON.c ****     {
2347:SynaptiX_FDK/services/cJSON/cJSON.c ****         if (parent->child->prev == parent->child)
2348:SynaptiX_FDK/services/cJSON/cJSON.c ****         {
2349:SynaptiX_FDK/services/cJSON/cJSON.c ****             replacement->prev = replacement;
2350:SynaptiX_FDK/services/cJSON/cJSON.c ****         }
2351:SynaptiX_FDK/services/cJSON/cJSON.c ****         parent->child = replacement;
2352:SynaptiX_FDK/services/cJSON/cJSON.c ****     }
2353:SynaptiX_FDK/services/cJSON/cJSON.c ****     else
2354:SynaptiX_FDK/services/cJSON/cJSON.c ****     {   /*
2355:SynaptiX_FDK/services/cJSON/cJSON.c ****          * To find the last item in array quickly, we use prev in array.
2356:SynaptiX_FDK/services/cJSON/cJSON.c ****          * We can't modify the last item's next pointer where this item was the parent's child
2357:SynaptiX_FDK/services/cJSON/cJSON.c ****          */
2358:SynaptiX_FDK/services/cJSON/cJSON.c ****         if (replacement->prev != NULL)
2359:SynaptiX_FDK/services/cJSON/cJSON.c ****         {
2360:SynaptiX_FDK/services/cJSON/cJSON.c ****             replacement->prev->next = replacement;
2361:SynaptiX_FDK/services/cJSON/cJSON.c ****         }
2362:SynaptiX_FDK/services/cJSON/cJSON.c ****         if (replacement->next == NULL)
2363:SynaptiX_FDK/services/cJSON/cJSON.c ****         {
2364:SynaptiX_FDK/services/cJSON/cJSON.c ****             parent->child->prev = replacement;
2365:SynaptiX_FDK/services/cJSON/cJSON.c ****         }
2366:SynaptiX_FDK/services/cJSON/cJSON.c ****     }
2367:SynaptiX_FDK/services/cJSON/cJSON.c **** 
2368:SynaptiX_FDK/services/cJSON/cJSON.c ****     item->next = NULL;
2369:SynaptiX_FDK/services/cJSON/cJSON.c ****     item->prev = NULL;
2370:SynaptiX_FDK/services/cJSON/cJSON.c ****     cJSON_Delete(item);
2371:SynaptiX_FDK/services/cJSON/cJSON.c **** 
2372:SynaptiX_FDK/services/cJSON/cJSON.c ****     return true;
2373:SynaptiX_FDK/services/cJSON/cJSON.c **** }
2374:SynaptiX_FDK/services/cJSON/cJSON.c **** 
2375:SynaptiX_FDK/services/cJSON/cJSON.c **** CJSON_PUBLIC(cJSON_bool) cJSON_ReplaceItemInArray(cJSON *array, int which, cJSON *newitem)
2376:SynaptiX_FDK/services/cJSON/cJSON.c **** {
2377:SynaptiX_FDK/services/cJSON/cJSON.c ****     if (which < 0)
2378:SynaptiX_FDK/services/cJSON/cJSON.c ****     {
2379:SynaptiX_FDK/services/cJSON/cJSON.c ****         return false;
2380:SynaptiX_FDK/services/cJSON/cJSON.c ****     }
2381:SynaptiX_FDK/services/cJSON/cJSON.c **** 
2382:SynaptiX_FDK/services/cJSON/cJSON.c ****     return cJSON_ReplaceItemViaPointer(array, get_array_item(array, (size_t)which), newitem);
2383:SynaptiX_FDK/services/cJSON/cJSON.c **** }
2384:SynaptiX_FDK/services/cJSON/cJSON.c **** 
2385:SynaptiX_FDK/services/cJSON/cJSON.c **** static cJSON_bool replace_item_in_object(cJSON *object, const char *string, cJSON *replacement, cJS
2386:SynaptiX_FDK/services/cJSON/cJSON.c **** {
2387:SynaptiX_FDK/services/cJSON/cJSON.c ****     if ((replacement == NULL) || (string == NULL))
2388:SynaptiX_FDK/services/cJSON/cJSON.c ****     {
2389:SynaptiX_FDK/services/cJSON/cJSON.c ****         return false;
2390:SynaptiX_FDK/services/cJSON/cJSON.c ****     }
2391:SynaptiX_FDK/services/cJSON/cJSON.c **** 
2392:SynaptiX_FDK/services/cJSON/cJSON.c ****     /* replace the name in the replacement */
2393:SynaptiX_FDK/services/cJSON/cJSON.c ****     if (!(replacement->type & cJSON_StringIsConst) && (replacement->string != NULL))
2394:SynaptiX_FDK/services/cJSON/cJSON.c ****     {
2395:SynaptiX_FDK/services/cJSON/cJSON.c ****         cJSON_free(replacement->string);
2396:SynaptiX_FDK/services/cJSON/cJSON.c ****     }
2397:SynaptiX_FDK/services/cJSON/cJSON.c ****     replacement->string = (char*)cJSON_strdup((const unsigned char*)string, &global_hooks);
2398:SynaptiX_FDK/services/cJSON/cJSON.c ****     if (replacement->string == NULL)
ARM GAS  C:\Users\DELL\AppData\Local\Temp\ccXjhdgA.s 			page 70


2399:SynaptiX_FDK/services/cJSON/cJSON.c ****     {
2400:SynaptiX_FDK/services/cJSON/cJSON.c ****         return false;
2401:SynaptiX_FDK/services/cJSON/cJSON.c ****     }
2402:SynaptiX_FDK/services/cJSON/cJSON.c **** 
2403:SynaptiX_FDK/services/cJSON/cJSON.c ****     replacement->type &= ~cJSON_StringIsConst;
2404:SynaptiX_FDK/services/cJSON/cJSON.c **** 
2405:SynaptiX_FDK/services/cJSON/cJSON.c ****     return cJSON_ReplaceItemViaPointer(object, get_object_item(object, string, case_sensitive), rep
2406:SynaptiX_FDK/services/cJSON/cJSON.c **** }
2407:SynaptiX_FDK/services/cJSON/cJSON.c **** 
2408:SynaptiX_FDK/services/cJSON/cJSON.c **** CJSON_PUBLIC(cJSON_bool) cJSON_ReplaceItemInObject(cJSON *object, const char *string, cJSON *newite
2409:SynaptiX_FDK/services/cJSON/cJSON.c **** {
2410:SynaptiX_FDK/services/cJSON/cJSON.c ****     return replace_item_in_object(object, string, newitem, false);
2411:SynaptiX_FDK/services/cJSON/cJSON.c **** }
2412:SynaptiX_FDK/services/cJSON/cJSON.c **** 
2413:SynaptiX_FDK/services/cJSON/cJSON.c **** CJSON_PUBLIC(cJSON_bool) cJSON_ReplaceItemInObjectCaseSensitive(cJSON *object, const char *string, 
2414:SynaptiX_FDK/services/cJSON/cJSON.c **** {
2415:SynaptiX_FDK/services/cJSON/cJSON.c ****     return replace_item_in_object(object, string, newitem, true);
2416:SynaptiX_FDK/services/cJSON/cJSON.c **** }
2417:SynaptiX_FDK/services/cJSON/cJSON.c **** 
2418:SynaptiX_FDK/services/cJSON/cJSON.c **** /* Create basic types: */
2419:SynaptiX_FDK/services/cJSON/cJSON.c **** CJSON_PUBLIC(cJSON *) cJSON_CreateNull(void)
2420:SynaptiX_FDK/services/cJSON/cJSON.c **** {
2421:SynaptiX_FDK/services/cJSON/cJSON.c ****     cJSON *item = cJSON_New_Item(&global_hooks);
2422:SynaptiX_FDK/services/cJSON/cJSON.c ****     if(item)
2423:SynaptiX_FDK/services/cJSON/cJSON.c ****     {
2424:SynaptiX_FDK/services/cJSON/cJSON.c ****         item->type = cJSON_NULL;
2425:SynaptiX_FDK/services/cJSON/cJSON.c ****     }
2426:SynaptiX_FDK/services/cJSON/cJSON.c **** 
2427:SynaptiX_FDK/services/cJSON/cJSON.c ****     return item;
2428:SynaptiX_FDK/services/cJSON/cJSON.c **** }
2429:SynaptiX_FDK/services/cJSON/cJSON.c **** 
2430:SynaptiX_FDK/services/cJSON/cJSON.c **** CJSON_PUBLIC(cJSON *) cJSON_CreateTrue(void)
2431:SynaptiX_FDK/services/cJSON/cJSON.c **** {
2432:SynaptiX_FDK/services/cJSON/cJSON.c ****     cJSON *item = cJSON_New_Item(&global_hooks);
2433:SynaptiX_FDK/services/cJSON/cJSON.c ****     if(item)
2434:SynaptiX_FDK/services/cJSON/cJSON.c ****     {
2435:SynaptiX_FDK/services/cJSON/cJSON.c ****         item->type = cJSON_True;
2436:SynaptiX_FDK/services/cJSON/cJSON.c ****     }
2437:SynaptiX_FDK/services/cJSON/cJSON.c **** 
2438:SynaptiX_FDK/services/cJSON/cJSON.c ****     return item;
2439:SynaptiX_FDK/services/cJSON/cJSON.c **** }
2440:SynaptiX_FDK/services/cJSON/cJSON.c **** 
2441:SynaptiX_FDK/services/cJSON/cJSON.c **** CJSON_PUBLIC(cJSON *) cJSON_CreateFalse(void)
2442:SynaptiX_FDK/services/cJSON/cJSON.c **** {
2443:SynaptiX_FDK/services/cJSON/cJSON.c ****     cJSON *item = cJSON_New_Item(&global_hooks);
2444:SynaptiX_FDK/services/cJSON/cJSON.c ****     if(item)
2445:SynaptiX_FDK/services/cJSON/cJSON.c ****     {
2446:SynaptiX_FDK/services/cJSON/cJSON.c ****         item->type = cJSON_False;
2447:SynaptiX_FDK/services/cJSON/cJSON.c ****     }
2448:SynaptiX_FDK/services/cJSON/cJSON.c **** 
2449:SynaptiX_FDK/services/cJSON/cJSON.c ****     return item;
2450:SynaptiX_FDK/services/cJSON/cJSON.c **** }
2451:SynaptiX_FDK/services/cJSON/cJSON.c **** 
2452:SynaptiX_FDK/services/cJSON/cJSON.c **** CJSON_PUBLIC(cJSON *) cJSON_CreateBool(cJSON_bool boolean)
2453:SynaptiX_FDK/services/cJSON/cJSON.c **** {
2454:SynaptiX_FDK/services/cJSON/cJSON.c ****     cJSON *item = cJSON_New_Item(&global_hooks);
2455:SynaptiX_FDK/services/cJSON/cJSON.c ****     if(item)
ARM GAS  C:\Users\DELL\AppData\Local\Temp\ccXjhdgA.s 			page 71


2456:SynaptiX_FDK/services/cJSON/cJSON.c ****     {
2457:SynaptiX_FDK/services/cJSON/cJSON.c ****         item->type = boolean ? cJSON_True : cJSON_False;
2458:SynaptiX_FDK/services/cJSON/cJSON.c ****     }
2459:SynaptiX_FDK/services/cJSON/cJSON.c **** 
2460:SynaptiX_FDK/services/cJSON/cJSON.c ****     return item;
2461:SynaptiX_FDK/services/cJSON/cJSON.c **** }
2462:SynaptiX_FDK/services/cJSON/cJSON.c **** 
2463:SynaptiX_FDK/services/cJSON/cJSON.c **** CJSON_PUBLIC(cJSON *) cJSON_CreateNumber(double num)
2464:SynaptiX_FDK/services/cJSON/cJSON.c **** {
2465:SynaptiX_FDK/services/cJSON/cJSON.c ****     cJSON *item = cJSON_New_Item(&global_hooks);
2466:SynaptiX_FDK/services/cJSON/cJSON.c ****     if(item)
2467:SynaptiX_FDK/services/cJSON/cJSON.c ****     {
2468:SynaptiX_FDK/services/cJSON/cJSON.c ****         item->type = cJSON_Number;
2469:SynaptiX_FDK/services/cJSON/cJSON.c ****         item->valuedouble = num;
2470:SynaptiX_FDK/services/cJSON/cJSON.c **** 
2471:SynaptiX_FDK/services/cJSON/cJSON.c ****         /* use saturation in case of overflow */
2472:SynaptiX_FDK/services/cJSON/cJSON.c ****         if (num >= INT_MAX)
2473:SynaptiX_FDK/services/cJSON/cJSON.c ****         {
2474:SynaptiX_FDK/services/cJSON/cJSON.c ****             item->valueint = INT_MAX;
2475:SynaptiX_FDK/services/cJSON/cJSON.c ****         }
2476:SynaptiX_FDK/services/cJSON/cJSON.c ****         else if (num <= (double)INT_MIN)
2477:SynaptiX_FDK/services/cJSON/cJSON.c ****         {
2478:SynaptiX_FDK/services/cJSON/cJSON.c ****             item->valueint = INT_MIN;
2479:SynaptiX_FDK/services/cJSON/cJSON.c ****         }
2480:SynaptiX_FDK/services/cJSON/cJSON.c ****         else
2481:SynaptiX_FDK/services/cJSON/cJSON.c ****         {
2482:SynaptiX_FDK/services/cJSON/cJSON.c ****             item->valueint = (int)num;
2483:SynaptiX_FDK/services/cJSON/cJSON.c ****         }
2484:SynaptiX_FDK/services/cJSON/cJSON.c ****     }
2485:SynaptiX_FDK/services/cJSON/cJSON.c **** 
2486:SynaptiX_FDK/services/cJSON/cJSON.c ****     return item;
2487:SynaptiX_FDK/services/cJSON/cJSON.c **** }
2488:SynaptiX_FDK/services/cJSON/cJSON.c **** 
2489:SynaptiX_FDK/services/cJSON/cJSON.c **** CJSON_PUBLIC(cJSON *) cJSON_CreateString(const char *string)
2490:SynaptiX_FDK/services/cJSON/cJSON.c **** {
2491:SynaptiX_FDK/services/cJSON/cJSON.c ****     cJSON *item = cJSON_New_Item(&global_hooks);
2492:SynaptiX_FDK/services/cJSON/cJSON.c ****     if(item)
2493:SynaptiX_FDK/services/cJSON/cJSON.c ****     {
