ARM GAS  C:\Users\DELL\AppData\Local\Temp\ccO3UVpA.s 			page 1


   1              		.cpu cortex-m33
   2              		.arch armv8-m.main
   3              		.fpu fpv5-sp-d16
   4              		.arch_extension dsp
   5              		.eabi_attribute 27, 1
   6              		.eabi_attribute 28, 1
   7              		.eabi_attribute 20, 1
   8              		.eabi_attribute 21, 1
   9              		.eabi_attribute 23, 3
  10              		.eabi_attribute 24, 1
  11              		.eabi_attribute 25, 1
  12              		.eabi_attribute 26, 1
  13              		.eabi_attribute 30, 1
  14              		.eabi_attribute 34, 1
  15              		.eabi_attribute 18, 4
  16              		.file	"ff.c"
  17              		.text
  18              	.Ltext0:
  19              		.cfi_sections	.debug_frame
  20              		.file 1 "SynaptiX_FDK/services/fatfs/ff.c"
  21              		.section	.text.ld_16,"ax",%progbits
  22              		.align	1
  23              		.syntax unified
  24              		.thumb
  25              		.thumb_func
  27              	ld_16:
  28              	.LVL0:
  29              	.LFB0:
   1:SynaptiX_FDK/services/fatfs/ff.c **** /*----------------------------------------------------------------------------/
   2:SynaptiX_FDK/services/fatfs/ff.c **** /  FatFs - Generic FAT Filesystem Module  R0.16                               /
   3:SynaptiX_FDK/services/fatfs/ff.c **** /-----------------------------------------------------------------------------/
   4:SynaptiX_FDK/services/fatfs/ff.c **** /
   5:SynaptiX_FDK/services/fatfs/ff.c **** / Copyright (C) 2025, ChaN, all right reserved.
   6:SynaptiX_FDK/services/fatfs/ff.c **** /
   7:SynaptiX_FDK/services/fatfs/ff.c **** / FatFs module is an open source software. Redistribution and use of FatFs in
   8:SynaptiX_FDK/services/fatfs/ff.c **** / source and binary forms, with or without modification, are permitted provided
   9:SynaptiX_FDK/services/fatfs/ff.c **** / that the following condition is met:
  10:SynaptiX_FDK/services/fatfs/ff.c **** /
  11:SynaptiX_FDK/services/fatfs/ff.c **** / 1. Redistributions of source code must retain the above copyright notice,
  12:SynaptiX_FDK/services/fatfs/ff.c **** /    this condition and the following disclaimer.
  13:SynaptiX_FDK/services/fatfs/ff.c **** /
  14:SynaptiX_FDK/services/fatfs/ff.c **** / This software is provided by the copyright holder and contributors "AS IS"
  15:SynaptiX_FDK/services/fatfs/ff.c **** / and any warranties related to this software are DISCLAIMED.
  16:SynaptiX_FDK/services/fatfs/ff.c **** / The copyright owner or contributors be NOT LIABLE for any damages caused
  17:SynaptiX_FDK/services/fatfs/ff.c **** / by use of this software.
  18:SynaptiX_FDK/services/fatfs/ff.c **** /
  19:SynaptiX_FDK/services/fatfs/ff.c **** /----------------------------------------------------------------------------*/
  20:SynaptiX_FDK/services/fatfs/ff.c **** 
  21:SynaptiX_FDK/services/fatfs/ff.c **** 
  22:SynaptiX_FDK/services/fatfs/ff.c **** #include <string.h>
  23:SynaptiX_FDK/services/fatfs/ff.c **** #include "ff.h"			/* Basic definitions and declarations of API */
  24:SynaptiX_FDK/services/fatfs/ff.c **** #include "diskio.h"		/* Declarations of MAI */
  25:SynaptiX_FDK/services/fatfs/ff.c **** 
  26:SynaptiX_FDK/services/fatfs/ff.c **** /*--------------------------------------------------------------------------
  27:SynaptiX_FDK/services/fatfs/ff.c **** 
  28:SynaptiX_FDK/services/fatfs/ff.c ****    Module Private Definitions
  29:SynaptiX_FDK/services/fatfs/ff.c **** 
ARM GAS  C:\Users\DELL\AppData\Local\Temp\ccO3UVpA.s 			page 2


  30:SynaptiX_FDK/services/fatfs/ff.c **** ---------------------------------------------------------------------------*/
  31:SynaptiX_FDK/services/fatfs/ff.c **** 
  32:SynaptiX_FDK/services/fatfs/ff.c **** #if FF_DEFINED != 80386	/* Revision ID */
  33:SynaptiX_FDK/services/fatfs/ff.c **** #error Wrong include file (ff.h).
  34:SynaptiX_FDK/services/fatfs/ff.c **** #endif
  35:SynaptiX_FDK/services/fatfs/ff.c **** 
  36:SynaptiX_FDK/services/fatfs/ff.c **** 
  37:SynaptiX_FDK/services/fatfs/ff.c **** /* Limits and boundaries */
  38:SynaptiX_FDK/services/fatfs/ff.c **** #define MAX_DIR		0x200000		/* Max size of FAT directory (byte) */
  39:SynaptiX_FDK/services/fatfs/ff.c **** #define MAX_DIR_EX	0x10000000		/* Max size of exFAT directory (byte) */
  40:SynaptiX_FDK/services/fatfs/ff.c **** #define MAX_FAT12	0xFF5			/* Max FAT12 clusters (differs from specs, but right for real DOS/Windows
  41:SynaptiX_FDK/services/fatfs/ff.c **** #define MAX_FAT16	0xFFF5			/* Max FAT16 clusters (differs from specs, but right for real DOS/Window
  42:SynaptiX_FDK/services/fatfs/ff.c **** #define MAX_FAT32	0x0FFFFFF5		/* Max FAT32 clusters (not defined in specs, practical limit) */
  43:SynaptiX_FDK/services/fatfs/ff.c **** #define MAX_EXFAT	0x7FFFFFFD		/* Max exFAT clusters (differs from specs, implementation limit) */
  44:SynaptiX_FDK/services/fatfs/ff.c **** 
  45:SynaptiX_FDK/services/fatfs/ff.c **** 
  46:SynaptiX_FDK/services/fatfs/ff.c **** /* Character code support macros */
  47:SynaptiX_FDK/services/fatfs/ff.c **** #define IsUpper(c)		((c) >= 'A' && (c) <= 'Z')
  48:SynaptiX_FDK/services/fatfs/ff.c **** #define IsLower(c)		((c) >= 'a' && (c) <= 'z')
  49:SynaptiX_FDK/services/fatfs/ff.c **** #define IsDigit(c)		((c) >= '0' && (c) <= '9')
  50:SynaptiX_FDK/services/fatfs/ff.c **** #define IsSeparator(c)	((c) == '/' || (c) == '\\')
  51:SynaptiX_FDK/services/fatfs/ff.c **** #define IsTerminator(c)	((UINT)(c) < (FF_USE_LFN ? ' ' : '!'))
  52:SynaptiX_FDK/services/fatfs/ff.c **** #define IsSurrogate(c)	((c) >= 0xD800 && (c) <= 0xDFFF)
  53:SynaptiX_FDK/services/fatfs/ff.c **** #define IsSurrogateH(c)	((c) >= 0xD800 && (c) <= 0xDBFF)
  54:SynaptiX_FDK/services/fatfs/ff.c **** #define IsSurrogateL(c)	((c) >= 0xDC00 && (c) <= 0xDFFF)
  55:SynaptiX_FDK/services/fatfs/ff.c **** 
  56:SynaptiX_FDK/services/fatfs/ff.c **** 
  57:SynaptiX_FDK/services/fatfs/ff.c **** /* Additional file access control and file status flags for internal use */
  58:SynaptiX_FDK/services/fatfs/ff.c **** #define FA_SEEKEND	0x20	/* Seek to end of the file on file open */
  59:SynaptiX_FDK/services/fatfs/ff.c **** #define FA_MODIFIED	0x40	/* File has been modified */
  60:SynaptiX_FDK/services/fatfs/ff.c **** #define FA_DIRTY	0x80	/* FIL.buf[] needs to be written-back */
  61:SynaptiX_FDK/services/fatfs/ff.c **** 
  62:SynaptiX_FDK/services/fatfs/ff.c **** 
  63:SynaptiX_FDK/services/fatfs/ff.c **** /* Additional file attribute bits for internal use */
  64:SynaptiX_FDK/services/fatfs/ff.c **** #define AM_VOL		0x08	/* Volume label */
  65:SynaptiX_FDK/services/fatfs/ff.c **** #define AM_LFN		0x0F	/* LFN entry */
  66:SynaptiX_FDK/services/fatfs/ff.c **** #define AM_MASK		0x3F	/* Mask of defined bits in FAT */
  67:SynaptiX_FDK/services/fatfs/ff.c **** #define AM_MASKX	0x37	/* Mask of defined bits in exFAT */
  68:SynaptiX_FDK/services/fatfs/ff.c **** 
  69:SynaptiX_FDK/services/fatfs/ff.c **** 
  70:SynaptiX_FDK/services/fatfs/ff.c **** /* Name status flags in fn[11] */
  71:SynaptiX_FDK/services/fatfs/ff.c **** #define NSFLAG		11		/* Index of the name status byte */
  72:SynaptiX_FDK/services/fatfs/ff.c **** #define NS_LOSS		0x01	/* Out of 8.3 format */
  73:SynaptiX_FDK/services/fatfs/ff.c **** #define NS_LFN		0x02	/* Force to create LFN entry */
  74:SynaptiX_FDK/services/fatfs/ff.c **** #define NS_LAST		0x04	/* Last segment */
  75:SynaptiX_FDK/services/fatfs/ff.c **** #define NS_BODY		0x08	/* Lower case flag (body) */
  76:SynaptiX_FDK/services/fatfs/ff.c **** #define NS_EXT		0x10	/* Lower case flag (ext) */
  77:SynaptiX_FDK/services/fatfs/ff.c **** #define NS_DOT		0x20	/* Dot entry */
  78:SynaptiX_FDK/services/fatfs/ff.c **** #define NS_NOLFN	0x40	/* Do not find LFN */
  79:SynaptiX_FDK/services/fatfs/ff.c **** #define NS_NONAME	0x80	/* Not followed */
  80:SynaptiX_FDK/services/fatfs/ff.c **** 
  81:SynaptiX_FDK/services/fatfs/ff.c **** 
  82:SynaptiX_FDK/services/fatfs/ff.c **** /* exFAT directory entry types */
  83:SynaptiX_FDK/services/fatfs/ff.c **** #define	ET_BITMAP	0x81	/* Allocation bitmap */
  84:SynaptiX_FDK/services/fatfs/ff.c **** #define	ET_UPCASE	0x82	/* Up-case table */
  85:SynaptiX_FDK/services/fatfs/ff.c **** #define	ET_VLABEL	0x83	/* Volume label */
  86:SynaptiX_FDK/services/fatfs/ff.c **** #define	ET_FILEDIR	0x85	/* File and directory */
ARM GAS  C:\Users\DELL\AppData\Local\Temp\ccO3UVpA.s 			page 3


  87:SynaptiX_FDK/services/fatfs/ff.c **** #define	ET_STREAM	0xC0	/* Stream extension */
  88:SynaptiX_FDK/services/fatfs/ff.c **** #define	ET_FILENAME	0xC1	/* Name extension */
  89:SynaptiX_FDK/services/fatfs/ff.c **** 
  90:SynaptiX_FDK/services/fatfs/ff.c **** 
  91:SynaptiX_FDK/services/fatfs/ff.c **** /* FatFs refers the FAT structures as simple byte array instead of structure member
  92:SynaptiX_FDK/services/fatfs/ff.c **** / because the C structure is not binary compatible between different platforms */
  93:SynaptiX_FDK/services/fatfs/ff.c **** 
  94:SynaptiX_FDK/services/fatfs/ff.c **** #define BS_JmpBoot			0		/* x86 jump instruction (3-byte) */
  95:SynaptiX_FDK/services/fatfs/ff.c **** #define BS_OEMName			3		/* OEM name (8-byte) */
  96:SynaptiX_FDK/services/fatfs/ff.c **** #define BPB_BytsPerSec		11		/* Sector size [byte] (WORD) */
  97:SynaptiX_FDK/services/fatfs/ff.c **** #define BPB_SecPerClus		13		/* Cluster size [sector] (BYTE) */
  98:SynaptiX_FDK/services/fatfs/ff.c **** #define BPB_RsvdSecCnt		14		/* Size of reserved area [sector] (WORD) */
  99:SynaptiX_FDK/services/fatfs/ff.c **** #define BPB_NumFATs			16		/* Number of FATs (BYTE) */
 100:SynaptiX_FDK/services/fatfs/ff.c **** #define BPB_RootEntCnt		17		/* Size of root directory area for FAT [entry] (WORD) */
 101:SynaptiX_FDK/services/fatfs/ff.c **** #define BPB_TotSec16		19		/* Volume size (16-bit) [sector] (WORD) */
 102:SynaptiX_FDK/services/fatfs/ff.c **** #define BPB_Media			21		/* Media descriptor byte (BYTE) */
 103:SynaptiX_FDK/services/fatfs/ff.c **** #define BPB_FATSz16			22		/* FAT size (16-bit) [sector] (WORD) */
 104:SynaptiX_FDK/services/fatfs/ff.c **** #define BPB_SecPerTrk		24		/* Number of sectors per track for int13h [sector] (WORD) */
 105:SynaptiX_FDK/services/fatfs/ff.c **** #define BPB_NumHeads		26		/* Number of heads for int13h (WORD) */
 106:SynaptiX_FDK/services/fatfs/ff.c **** #define BPB_HiddSec			28		/* Volume offset from top of the drive (DWORD) */
 107:SynaptiX_FDK/services/fatfs/ff.c **** #define BPB_TotSec32		32		/* Volume size (32-bit) [sector] (DWORD) */
 108:SynaptiX_FDK/services/fatfs/ff.c **** #define BS_DrvNum			36		/* Physical drive number for int13h (BYTE) */
 109:SynaptiX_FDK/services/fatfs/ff.c **** #define BS_NTres			37		/* WindowsNT error flag (BYTE) */
 110:SynaptiX_FDK/services/fatfs/ff.c **** #define BS_BootSig			38		/* Extended boot signature (BYTE) */
 111:SynaptiX_FDK/services/fatfs/ff.c **** #define BS_VolID			39		/* Volume serial number (DWORD) */
 112:SynaptiX_FDK/services/fatfs/ff.c **** #define BS_VolLab			43		/* Volume label string (8-byte) */
 113:SynaptiX_FDK/services/fatfs/ff.c **** #define BS_FilSysType		54		/* Filesystem type string (8-byte) */
 114:SynaptiX_FDK/services/fatfs/ff.c **** #define BS_BootCode			62		/* Boot code (448-byte) */
 115:SynaptiX_FDK/services/fatfs/ff.c **** #define BS_55AA				510		/* Boot signature (WORD, for VBR and MBR) */
 116:SynaptiX_FDK/services/fatfs/ff.c **** 
 117:SynaptiX_FDK/services/fatfs/ff.c **** #define BPB_FATSz32			36		/* FAT32: FAT size [sector] (DWORD) */
 118:SynaptiX_FDK/services/fatfs/ff.c **** #define BPB_ExtFlags32		40		/* FAT32: Extended flags (WORD) */
 119:SynaptiX_FDK/services/fatfs/ff.c **** #define BPB_FSVer32			42		/* FAT32: Filesystem version (WORD) */
 120:SynaptiX_FDK/services/fatfs/ff.c **** #define BPB_RootClus32		44		/* FAT32: Root directory cluster (DWORD) */
 121:SynaptiX_FDK/services/fatfs/ff.c **** #define BPB_FSInfo32		48		/* FAT32: Offset of FSINFO sector (WORD) */
 122:SynaptiX_FDK/services/fatfs/ff.c **** #define BPB_BkBootSec32		50		/* FAT32: Offset of backup boot sector (WORD) */
 123:SynaptiX_FDK/services/fatfs/ff.c **** #define BS_DrvNum32			64		/* FAT32: Physical drive number for int13h (BYTE) */
 124:SynaptiX_FDK/services/fatfs/ff.c **** #define BS_NTres32			65		/* FAT32: Error flag (BYTE) */
 125:SynaptiX_FDK/services/fatfs/ff.c **** #define BS_BootSig32		66		/* FAT32: Extended boot signature (BYTE) */
 126:SynaptiX_FDK/services/fatfs/ff.c **** #define BS_VolID32			67		/* FAT32: Volume serial number (DWORD) */
 127:SynaptiX_FDK/services/fatfs/ff.c **** #define BS_VolLab32			71		/* FAT32: Volume label string (8-byte) */
 128:SynaptiX_FDK/services/fatfs/ff.c **** #define BS_FilSysType32		82		/* FAT32: Filesystem type string (8-byte) */
 129:SynaptiX_FDK/services/fatfs/ff.c **** #define BS_BootCode32		90		/* FAT32: Boot code (420-byte) */
 130:SynaptiX_FDK/services/fatfs/ff.c **** 
 131:SynaptiX_FDK/services/fatfs/ff.c **** #define BPB_ZeroedEx		11		/* exFAT: MBZ field (53-byte) */
 132:SynaptiX_FDK/services/fatfs/ff.c **** #define BPB_VolOfsEx		64		/* exFAT: Volume offset from top of the drive [sector] (QWORD) */
 133:SynaptiX_FDK/services/fatfs/ff.c **** #define BPB_TotSecEx		72		/* exFAT: Volume size [sector] (QWORD) */
 134:SynaptiX_FDK/services/fatfs/ff.c **** #define BPB_FatOfsEx		80		/* exFAT: FAT offset from top of the volume [sector] (DWORD) */
 135:SynaptiX_FDK/services/fatfs/ff.c **** #define BPB_FatSzEx			84		/* exFAT: FAT size [sector] (DWORD) */
 136:SynaptiX_FDK/services/fatfs/ff.c **** #define BPB_DataOfsEx		88		/* exFAT: Data offset from top of the volume [sector] (DWORD) */
 137:SynaptiX_FDK/services/fatfs/ff.c **** #define BPB_NumClusEx		92		/* exFAT: Number of clusters (DWORD) */
 138:SynaptiX_FDK/services/fatfs/ff.c **** #define BPB_RootClusEx		96		/* exFAT: Root directory start cluster (DWORD) */
 139:SynaptiX_FDK/services/fatfs/ff.c **** #define BPB_VolIDEx			100		/* exFAT: Volume serial number (DWORD) */
 140:SynaptiX_FDK/services/fatfs/ff.c **** #define BPB_FSVerEx			104		/* exFAT: Filesystem version (WORD) */
 141:SynaptiX_FDK/services/fatfs/ff.c **** #define BPB_VolFlagEx		106		/* exFAT: Volume flags (WORD, out of check sum calculation) */
 142:SynaptiX_FDK/services/fatfs/ff.c **** #define BPB_BytsPerSecEx	108		/* exFAT: Log2 of sector size in unit of byte (BYTE) */
 143:SynaptiX_FDK/services/fatfs/ff.c **** #define BPB_SecPerClusEx	109		/* exFAT: Log2 of cluster size in unit of sector (BYTE) */
ARM GAS  C:\Users\DELL\AppData\Local\Temp\ccO3UVpA.s 			page 4


 144:SynaptiX_FDK/services/fatfs/ff.c **** #define BPB_NumFATsEx		110		/* exFAT: Number of FATs (BYTE) */
 145:SynaptiX_FDK/services/fatfs/ff.c **** #define BPB_DrvNumEx		111		/* exFAT: Physical drive number for int13h (BYTE) */
 146:SynaptiX_FDK/services/fatfs/ff.c **** #define BPB_PercInUseEx		112		/* exFAT: Percent in use (BYTE, out of check sum calculation) */
 147:SynaptiX_FDK/services/fatfs/ff.c **** #define BPB_RsvdEx			113		/* exFAT: Reserved (7-byte) */
 148:SynaptiX_FDK/services/fatfs/ff.c **** #define BS_BootCodeEx		120		/* exFAT: Boot code (390-byte) */
 149:SynaptiX_FDK/services/fatfs/ff.c **** 
 150:SynaptiX_FDK/services/fatfs/ff.c **** #define DIR_Name			0		/* Short file name (11-byte) */
 151:SynaptiX_FDK/services/fatfs/ff.c **** #define DIR_Attr			11		/* Attribute (BYTE) */
 152:SynaptiX_FDK/services/fatfs/ff.c **** #define DIR_NTres			12		/* Low case flags of SFN (BYTE) */
 153:SynaptiX_FDK/services/fatfs/ff.c **** #define DIR_CrtTime10		13		/* Created time sub-second (BYTE) */
 154:SynaptiX_FDK/services/fatfs/ff.c **** #define DIR_CrtTime			14		/* Created time (DWORD) */
 155:SynaptiX_FDK/services/fatfs/ff.c **** #define DIR_LstAccDate		18		/* Last accessed date (WORD) */
 156:SynaptiX_FDK/services/fatfs/ff.c **** #define DIR_FstClusHI		20		/* Higher 16-bit of first cluster (WORD) */
 157:SynaptiX_FDK/services/fatfs/ff.c **** #define DIR_ModTime			22		/* Modified time (DWORD) */
 158:SynaptiX_FDK/services/fatfs/ff.c **** #define DIR_FstClusLO		26		/* Lower 16-bit of first cluster (WORD) */
 159:SynaptiX_FDK/services/fatfs/ff.c **** #define DIR_FileSize		28		/* File size (DWORD) */
 160:SynaptiX_FDK/services/fatfs/ff.c **** #define LDIR_Ord			0		/* LFN: LFN order and LLE flag (BYTE) */
 161:SynaptiX_FDK/services/fatfs/ff.c **** #define LDIR_Attr			11		/* LFN: LFN attribute (BYTE) */
 162:SynaptiX_FDK/services/fatfs/ff.c **** #define LDIR_Type			12		/* LFN: Entry type (BYTE) */
 163:SynaptiX_FDK/services/fatfs/ff.c **** #define LDIR_Chksum			13		/* LFN: Checksum of the SFN (BYTE) */
 164:SynaptiX_FDK/services/fatfs/ff.c **** #define LDIR_FstClusLO		26		/* LFN: MBZ field (WORD) */
 165:SynaptiX_FDK/services/fatfs/ff.c **** #define XDIR_Type			0		/* exFAT: Type of exFAT directory entry (BYTE) */
 166:SynaptiX_FDK/services/fatfs/ff.c **** #define XDIR_NumLabel		1		/* exFAT: Number of volume label characters (BYTE) */
 167:SynaptiX_FDK/services/fatfs/ff.c **** #define XDIR_Label			2		/* exFAT: Volume label (11-WORD) */
 168:SynaptiX_FDK/services/fatfs/ff.c **** #define XDIR_CaseSum		4		/* exFAT: Sum of case conversion table (DWORD) */
 169:SynaptiX_FDK/services/fatfs/ff.c **** #define XDIR_NumSec			1		/* exFAT: Number of secondary entries (BYTE) */
 170:SynaptiX_FDK/services/fatfs/ff.c **** #define XDIR_SetSum			2		/* exFAT: Sum of the set of directory entries (WORD) */
 171:SynaptiX_FDK/services/fatfs/ff.c **** #define XDIR_Attr			4		/* exFAT: File attribute (WORD) */
 172:SynaptiX_FDK/services/fatfs/ff.c **** #define XDIR_CrtTime		8		/* exFAT: Created time (DWORD) */
 173:SynaptiX_FDK/services/fatfs/ff.c **** #define XDIR_ModTime		12		/* exFAT: Modified time (DWORD) */
 174:SynaptiX_FDK/services/fatfs/ff.c **** #define XDIR_AccTime		16		/* exFAT: Last accessed time (DWORD) */
 175:SynaptiX_FDK/services/fatfs/ff.c **** #define XDIR_CrtTime10		20		/* exFAT: Created time subsecond (BYTE) */
 176:SynaptiX_FDK/services/fatfs/ff.c **** #define XDIR_ModTime10		21		/* exFAT: Modified time subsecond (BYTE) */
 177:SynaptiX_FDK/services/fatfs/ff.c **** #define XDIR_CrtTZ			22		/* exFAT: Created timezone (BYTE) */
 178:SynaptiX_FDK/services/fatfs/ff.c **** #define XDIR_ModTZ			23		/* exFAT: Modified timezone (BYTE) */
 179:SynaptiX_FDK/services/fatfs/ff.c **** #define XDIR_AccTZ			24		/* exFAT: Last accessed timezone (BYTE) */
 180:SynaptiX_FDK/services/fatfs/ff.c **** #define XDIR_GenFlags		33		/* exFAT: General secondary flags (BYTE) */
 181:SynaptiX_FDK/services/fatfs/ff.c **** #define XDIR_NumName		35		/* exFAT: Number of file name characters (BYTE) */
 182:SynaptiX_FDK/services/fatfs/ff.c **** #define XDIR_NameHash		36		/* exFAT: Hash of file name (WORD) */
 183:SynaptiX_FDK/services/fatfs/ff.c **** #define XDIR_ValidFileSize	40		/* exFAT: Valid file size (QWORD) */
 184:SynaptiX_FDK/services/fatfs/ff.c **** #define XDIR_FstClus		52		/* exFAT: First cluster of the file data (DWORD) */
 185:SynaptiX_FDK/services/fatfs/ff.c **** #define XDIR_FileSize		56		/* exFAT: File/Directory size (QWORD) */
 186:SynaptiX_FDK/services/fatfs/ff.c **** 
 187:SynaptiX_FDK/services/fatfs/ff.c **** #define SZDIRE				32		/* Size of a directory entry */
 188:SynaptiX_FDK/services/fatfs/ff.c **** #define DDEM				0xE5	/* Deleted directory entry mark set to DIR_Name[0] */
 189:SynaptiX_FDK/services/fatfs/ff.c **** #define RDDEM				0x05	/* Replacement of the character collides with DDEM */
 190:SynaptiX_FDK/services/fatfs/ff.c **** #define LLEF				0x40	/* Last long entry flag in LDIR_Ord */
 191:SynaptiX_FDK/services/fatfs/ff.c **** 
 192:SynaptiX_FDK/services/fatfs/ff.c **** #define FSI_LeadSig			0		/* FAT32 FSI: Leading signature (DWORD) */
 193:SynaptiX_FDK/services/fatfs/ff.c **** #define FSI_StrucSig		484		/* FAT32 FSI: Structure signature (DWORD) */
 194:SynaptiX_FDK/services/fatfs/ff.c **** #define FSI_Free_Count		488		/* FAT32 FSI: Number of free clusters (DWORD) */
 195:SynaptiX_FDK/services/fatfs/ff.c **** #define FSI_Nxt_Free		492		/* FAT32 FSI: Last allocated cluster (DWORD) */
 196:SynaptiX_FDK/services/fatfs/ff.c **** #define FSI_TrailSig		508		/* FAT32 FSI: Trailing signature (DWORD) */
 197:SynaptiX_FDK/services/fatfs/ff.c **** 
 198:SynaptiX_FDK/services/fatfs/ff.c **** #define MBR_Table			446		/* MBR: Offset of partition table in the MBR */
 199:SynaptiX_FDK/services/fatfs/ff.c **** #define SZ_PTE				16		/* MBR: Size of a partition table entry */
 200:SynaptiX_FDK/services/fatfs/ff.c **** #define PTE_Boot			0		/* MBR PTE: Boot indicator */
ARM GAS  C:\Users\DELL\AppData\Local\Temp\ccO3UVpA.s 			page 5


 201:SynaptiX_FDK/services/fatfs/ff.c **** #define PTE_StHead			1		/* MBR PTE: Start head in CHS */
 202:SynaptiX_FDK/services/fatfs/ff.c **** #define PTE_StSec			2		/* MBR PTE: Start sector in CHS */
 203:SynaptiX_FDK/services/fatfs/ff.c **** #define PTE_StCyl			3		/* MBR PTE: Start cylinder in CHS */
 204:SynaptiX_FDK/services/fatfs/ff.c **** #define PTE_System			4		/* MBR PTE: System ID */
 205:SynaptiX_FDK/services/fatfs/ff.c **** #define PTE_EdHead			5		/* MBR PTE: End head in CHS */
 206:SynaptiX_FDK/services/fatfs/ff.c **** #define PTE_EdSec			6		/* MBR PTE: End sector in CHS */
 207:SynaptiX_FDK/services/fatfs/ff.c **** #define PTE_EdCyl			7		/* MBR PTE: End cylinder in CHS */
 208:SynaptiX_FDK/services/fatfs/ff.c **** #define PTE_StLba			8		/* MBR PTE: Start in LBA */
 209:SynaptiX_FDK/services/fatfs/ff.c **** #define PTE_SizLba			12		/* MBR PTE: Size in LBA */
 210:SynaptiX_FDK/services/fatfs/ff.c **** 
 211:SynaptiX_FDK/services/fatfs/ff.c **** #define GPTH_Sign			0		/* GPT HDR: Signature (8-byte) */
 212:SynaptiX_FDK/services/fatfs/ff.c **** #define GPTH_Rev			8		/* GPT HDR: Revision (DWORD) */
 213:SynaptiX_FDK/services/fatfs/ff.c **** #define GPTH_Size			12		/* GPT HDR: Header size (DWORD) */
 214:SynaptiX_FDK/services/fatfs/ff.c **** #define GPTH_Bcc			16		/* GPT HDR: Header BCC (DWORD) */
 215:SynaptiX_FDK/services/fatfs/ff.c **** #define GPTH_CurLba			24		/* GPT HDR: This header LBA (QWORD) */
 216:SynaptiX_FDK/services/fatfs/ff.c **** #define GPTH_BakLba			32		/* GPT HDR: Another header LBA (QWORD) */
 217:SynaptiX_FDK/services/fatfs/ff.c **** #define GPTH_FstLba			40		/* GPT HDR: First LBA for partition data (QWORD) */
 218:SynaptiX_FDK/services/fatfs/ff.c **** #define GPTH_LstLba			48		/* GPT HDR: Last LBA for partition data (QWORD) */
 219:SynaptiX_FDK/services/fatfs/ff.c **** #define GPTH_DskGuid		56		/* GPT HDR: Disk GUID (16-byte) */
 220:SynaptiX_FDK/services/fatfs/ff.c **** #define GPTH_PtOfs			72		/* GPT HDR: Partition table LBA (QWORD) */
 221:SynaptiX_FDK/services/fatfs/ff.c **** #define GPTH_PtNum			80		/* GPT HDR: Number of table entries (DWORD) */
 222:SynaptiX_FDK/services/fatfs/ff.c **** #define GPTH_PteSize		84		/* GPT HDR: Size of table entry (DWORD) */
 223:SynaptiX_FDK/services/fatfs/ff.c **** #define GPTH_PtBcc			88		/* GPT HDR: Partition table BCC (DWORD) */
 224:SynaptiX_FDK/services/fatfs/ff.c **** #define SZ_GPTE				128		/* GPT PTE: Size of a GPT partition table entry */
 225:SynaptiX_FDK/services/fatfs/ff.c **** #define GPTE_PtGuid			0		/* GPT PTE: Partition type GUID (16-byte) */
 226:SynaptiX_FDK/services/fatfs/ff.c **** #define GPTE_UpGuid			16		/* GPT PTE: Partition unique GUID (16-byte) */
 227:SynaptiX_FDK/services/fatfs/ff.c **** #define GPTE_FstLba			32		/* GPT PTE: First LBA of partition (QWORD) */
 228:SynaptiX_FDK/services/fatfs/ff.c **** #define GPTE_LstLba			40		/* GPT PTE: Last LBA of partition (QWORD) */
 229:SynaptiX_FDK/services/fatfs/ff.c **** #define GPTE_Flags			48		/* GPT PTE: Partition flags (QWORD) */
 230:SynaptiX_FDK/services/fatfs/ff.c **** #define GPTE_Name			56		/* GPT PTE: Partition name */
 231:SynaptiX_FDK/services/fatfs/ff.c **** 
 232:SynaptiX_FDK/services/fatfs/ff.c **** 
 233:SynaptiX_FDK/services/fatfs/ff.c **** /* Post process on fatal error in the file operations */
 234:SynaptiX_FDK/services/fatfs/ff.c **** #define ABORT(fs, res)		{ fp->err = (BYTE)(res); LEAVE_FF(fs, res); }
 235:SynaptiX_FDK/services/fatfs/ff.c **** 
 236:SynaptiX_FDK/services/fatfs/ff.c **** 
 237:SynaptiX_FDK/services/fatfs/ff.c **** /* Re-entrancy related */
 238:SynaptiX_FDK/services/fatfs/ff.c **** #if FF_FS_REENTRANT
 239:SynaptiX_FDK/services/fatfs/ff.c **** #if FF_USE_LFN == 1
 240:SynaptiX_FDK/services/fatfs/ff.c **** #error Static LFN work area cannot be used in thread-safe configuration
 241:SynaptiX_FDK/services/fatfs/ff.c **** #endif
 242:SynaptiX_FDK/services/fatfs/ff.c **** #define LEAVE_FF(fs, res)	{ unlock_volume(fs, res); return res; }
 243:SynaptiX_FDK/services/fatfs/ff.c **** #else
 244:SynaptiX_FDK/services/fatfs/ff.c **** #define LEAVE_FF(fs, res)	return res
 245:SynaptiX_FDK/services/fatfs/ff.c **** #endif
 246:SynaptiX_FDK/services/fatfs/ff.c **** 
 247:SynaptiX_FDK/services/fatfs/ff.c **** 
 248:SynaptiX_FDK/services/fatfs/ff.c **** /* Definitions of logical drive to physical location conversion */
 249:SynaptiX_FDK/services/fatfs/ff.c **** #if FF_MULTI_PARTITION
 250:SynaptiX_FDK/services/fatfs/ff.c **** #define LD2PD(vol) VolToPart[vol].pd	/* Get physical drive number from the mapping table */
 251:SynaptiX_FDK/services/fatfs/ff.c **** #define LD2PT(vol) VolToPart[vol].pt	/* Get partition number from the mapping table (0:auto search,
 252:SynaptiX_FDK/services/fatfs/ff.c **** #else
 253:SynaptiX_FDK/services/fatfs/ff.c **** #define LD2PD(vol) (BYTE)(vol)	/* Each logical drive is associated with the same physical drive num
 254:SynaptiX_FDK/services/fatfs/ff.c **** #define LD2PT(vol) 0			/* Auto partition search */
 255:SynaptiX_FDK/services/fatfs/ff.c **** #endif
 256:SynaptiX_FDK/services/fatfs/ff.c **** 
 257:SynaptiX_FDK/services/fatfs/ff.c **** 
ARM GAS  C:\Users\DELL\AppData\Local\Temp\ccO3UVpA.s 			page 6


 258:SynaptiX_FDK/services/fatfs/ff.c **** /* Definitions of sector size */
 259:SynaptiX_FDK/services/fatfs/ff.c **** #if (FF_MAX_SS < FF_MIN_SS) || (FF_MAX_SS != 512 && FF_MAX_SS != 1024 && FF_MAX_SS != 2048 && FF_MA
 260:SynaptiX_FDK/services/fatfs/ff.c **** #error Wrong sector size configuration
 261:SynaptiX_FDK/services/fatfs/ff.c **** #endif
 262:SynaptiX_FDK/services/fatfs/ff.c **** #if FF_MAX_SS == FF_MIN_SS
 263:SynaptiX_FDK/services/fatfs/ff.c **** #define SS(fs)	((UINT)FF_MAX_SS)	/* Fixed sector size */
 264:SynaptiX_FDK/services/fatfs/ff.c **** #else
 265:SynaptiX_FDK/services/fatfs/ff.c **** #define SS(fs)	((fs)->ssize)	/* Variable sector size */
 266:SynaptiX_FDK/services/fatfs/ff.c **** #endif
 267:SynaptiX_FDK/services/fatfs/ff.c **** 
 268:SynaptiX_FDK/services/fatfs/ff.c **** 
 269:SynaptiX_FDK/services/fatfs/ff.c **** /* Timestamp */
 270:SynaptiX_FDK/services/fatfs/ff.c **** #if FF_FS_NORTC == 1
 271:SynaptiX_FDK/services/fatfs/ff.c **** #if FF_NORTC_YEAR < 1980 || FF_NORTC_YEAR > 2107 || FF_NORTC_MON < 1 || FF_NORTC_MON > 12 || FF_NOR
 272:SynaptiX_FDK/services/fatfs/ff.c **** #error Invalid FF_FS_NORTC settings
 273:SynaptiX_FDK/services/fatfs/ff.c **** #endif
 274:SynaptiX_FDK/services/fatfs/ff.c **** #define GET_FATTIME()	((DWORD)(FF_NORTC_YEAR - 1980) << 25 | (DWORD)FF_NORTC_MON << 21 | (DWORD)FF_
 275:SynaptiX_FDK/services/fatfs/ff.c **** #else
 276:SynaptiX_FDK/services/fatfs/ff.c **** #define GET_FATTIME()	get_fattime()
 277:SynaptiX_FDK/services/fatfs/ff.c **** #endif
 278:SynaptiX_FDK/services/fatfs/ff.c **** 
 279:SynaptiX_FDK/services/fatfs/ff.c **** 
 280:SynaptiX_FDK/services/fatfs/ff.c **** /* File lock controls */
 281:SynaptiX_FDK/services/fatfs/ff.c **** #if FF_FS_LOCK
 282:SynaptiX_FDK/services/fatfs/ff.c **** #if FF_FS_READONLY
 283:SynaptiX_FDK/services/fatfs/ff.c **** #error FF_FS_LOCK must be 0 at read-only configuration
 284:SynaptiX_FDK/services/fatfs/ff.c **** #endif
 285:SynaptiX_FDK/services/fatfs/ff.c **** typedef struct {	/* Open object identifier with status */
 286:SynaptiX_FDK/services/fatfs/ff.c **** 	FATFS* fs;		/*  Object ID 1, volume (NULL:blank entry) */
 287:SynaptiX_FDK/services/fatfs/ff.c **** 	DWORD clu;		/*  Object ID 2, containing directory (0:root) */
 288:SynaptiX_FDK/services/fatfs/ff.c **** 	DWORD ofs;		/*  Object ID 3, offset in the directory */
 289:SynaptiX_FDK/services/fatfs/ff.c **** 	UINT ctr;		/*  Object open status, 0:none, 0x01..0xFF:read mode open count, 0x100:write mode */
 290:SynaptiX_FDK/services/fatfs/ff.c **** } FILESEM;
 291:SynaptiX_FDK/services/fatfs/ff.c **** #endif
 292:SynaptiX_FDK/services/fatfs/ff.c **** 
 293:SynaptiX_FDK/services/fatfs/ff.c **** 
 294:SynaptiX_FDK/services/fatfs/ff.c **** /* SBCS up-case tables (\x80-\xFF) */
 295:SynaptiX_FDK/services/fatfs/ff.c **** #define TBL_CT437  {0x80,0x9A,0x45,0x41,0x8E,0x41,0x8F,0x80,0x45,0x45,0x45,0x49,0x49,0x49,0x8E,0x8F
 296:SynaptiX_FDK/services/fatfs/ff.c **** 					0x90,0x92,0x92,0x4F,0x99,0x4F,0x55,0x55,0x59,0x99,0x9A,0x9B,0x9C,0x9D,0x9E,0x9F, \
 297:SynaptiX_FDK/services/fatfs/ff.c **** 					0x41,0x49,0x4F,0x55,0xA5,0xA5,0xA6,0xA7,0xA8,0xA9,0xAA,0xAB,0xAC,0xAD,0xAE,0xAF, \
 298:SynaptiX_FDK/services/fatfs/ff.c **** 					0xB0,0xB1,0xB2,0xB3,0xB4,0xB5,0xB6,0xB7,0xB8,0xB9,0xBA,0xBB,0xBC,0xBD,0xBE,0xBF, \
 299:SynaptiX_FDK/services/fatfs/ff.c **** 					0xC0,0xC1,0xC2,0xC3,0xC4,0xC5,0xC6,0xC7,0xC8,0xC9,0xCA,0xCB,0xCC,0xCD,0xCE,0xCF, \
 300:SynaptiX_FDK/services/fatfs/ff.c **** 					0xD0,0xD1,0xD2,0xD3,0xD4,0xD5,0xD6,0xD7,0xD8,0xD9,0xDA,0xDB,0xDC,0xDD,0xDE,0xDF, \
 301:SynaptiX_FDK/services/fatfs/ff.c **** 					0xE0,0xE1,0xE2,0xE3,0xE4,0xE5,0xE6,0xE7,0xE8,0xE9,0xEA,0xEB,0xEC,0xED,0xEE,0xEF, \
 302:SynaptiX_FDK/services/fatfs/ff.c **** 					0xF0,0xF1,0xF2,0xF3,0xF4,0xF5,0xF6,0xF7,0xF8,0xF9,0xFA,0xFB,0xFC,0xFD,0xFE,0xFF}
 303:SynaptiX_FDK/services/fatfs/ff.c **** #define TBL_CT720  {0x80,0x81,0x82,0x83,0x84,0x85,0x86,0x87,0x88,0x89,0x8A,0x8B,0x8C,0x8D,0x8E,0x8F
 304:SynaptiX_FDK/services/fatfs/ff.c **** 					0x90,0x91,0x92,0x93,0x94,0x95,0x96,0x97,0x98,0x99,0x9A,0x9B,0x9C,0x9D,0x9E,0x9F, \
 305:SynaptiX_FDK/services/fatfs/ff.c **** 					0xA0,0xA1,0xA2,0xA3,0xA4,0xA5,0xA6,0xA7,0xA8,0xA9,0xAA,0xAB,0xAC,0xAD,0xAE,0xAF, \
 306:SynaptiX_FDK/services/fatfs/ff.c **** 					0xB0,0xB1,0xB2,0xB3,0xB4,0xB5,0xB6,0xB7,0xB8,0xB9,0xBA,0xBB,0xBC,0xBD,0xBE,0xBF, \
 307:SynaptiX_FDK/services/fatfs/ff.c **** 					0xC0,0xC1,0xC2,0xC3,0xC4,0xC5,0xC6,0xC7,0xC8,0xC9,0xCA,0xCB,0xCC,0xCD,0xCE,0xCF, \
 308:SynaptiX_FDK/services/fatfs/ff.c **** 					0xD0,0xD1,0xD2,0xD3,0xD4,0xD5,0xD6,0xD7,0xD8,0xD9,0xDA,0xDB,0xDC,0xDD,0xDE,0xDF, \
 309:SynaptiX_FDK/services/fatfs/ff.c **** 					0xE0,0xE1,0xE2,0xE3,0xE4,0xE5,0xE6,0xE7,0xE8,0xE9,0xEA,0xEB,0xEC,0xED,0xEE,0xEF, \
 310:SynaptiX_FDK/services/fatfs/ff.c **** 					0xF0,0xF1,0xF2,0xF3,0xF4,0xF5,0xF6,0xF7,0xF8,0xF9,0xFA,0xFB,0xFC,0xFD,0xFE,0xFF}
 311:SynaptiX_FDK/services/fatfs/ff.c **** #define TBL_CT737  {0x80,0x81,0x82,0x83,0x84,0x85,0x86,0x87,0x88,0x89,0x8A,0x8B,0x8C,0x8D,0x8E,0x8F
 312:SynaptiX_FDK/services/fatfs/ff.c **** 					0x90,0x92,0x92,0x93,0x94,0x95,0x96,0x97,0x80,0x81,0x82,0x83,0x84,0x85,0x86,0x87, \
 313:SynaptiX_FDK/services/fatfs/ff.c **** 					0x88,0x89,0x8A,0x8B,0x8C,0x8D,0x8E,0x8F,0x90,0x91,0xAA,0x92,0x93,0x94,0x95,0x96, \
 314:SynaptiX_FDK/services/fatfs/ff.c **** 					0xB0,0xB1,0xB2,0xB3,0xB4,0xB5,0xB6,0xB7,0xB8,0xB9,0xBA,0xBB,0xBC,0xBD,0xBE,0xBF, \
ARM GAS  C:\Users\DELL\AppData\Local\Temp\ccO3UVpA.s 			page 7


 315:SynaptiX_FDK/services/fatfs/ff.c **** 					0xC0,0xC1,0xC2,0xC3,0xC4,0xC5,0xC6,0xC7,0xC8,0xC9,0xCA,0xCB,0xCC,0xCD,0xCE,0xCF, \
 316:SynaptiX_FDK/services/fatfs/ff.c **** 					0xD0,0xD1,0xD2,0xD3,0xD4,0xD5,0xD6,0xD7,0xD8,0xD9,0xDA,0xDB,0xDC,0xDD,0xDE,0xDF, \
 317:SynaptiX_FDK/services/fatfs/ff.c **** 					0x97,0xEA,0xEB,0xEC,0xE4,0xED,0xEE,0xEF,0xF5,0xF0,0xEA,0xEB,0xEC,0xED,0xEE,0xEF, \
 318:SynaptiX_FDK/services/fatfs/ff.c **** 					0xF0,0xF1,0xF2,0xF3,0xF4,0xF5,0xF6,0xF7,0xF8,0xF9,0xFA,0xFB,0xFC,0xFD,0xFE,0xFF}
 319:SynaptiX_FDK/services/fatfs/ff.c **** #define TBL_CT771  {0x80,0x81,0x82,0x83,0x84,0x85,0x86,0x87,0x88,0x89,0x8A,0x8B,0x8C,0x8D,0x8E,0x8F
 320:SynaptiX_FDK/services/fatfs/ff.c **** 					0x90,0x91,0x92,0x93,0x94,0x95,0x96,0x97,0x98,0x99,0x9A,0x9B,0x9C,0x9D,0x9E,0x9F, \
 321:SynaptiX_FDK/services/fatfs/ff.c **** 					0x80,0x81,0x82,0x83,0x84,0x85,0x86,0x87,0x88,0x89,0x8A,0x8B,0x8C,0x8D,0x8E,0x8F, \
 322:SynaptiX_FDK/services/fatfs/ff.c **** 					0xB0,0xB1,0xB2,0xB3,0xB4,0xB5,0xB6,0xB7,0xB8,0xB9,0xBA,0xBB,0xBC,0xBD,0xBE,0xBF, \
 323:SynaptiX_FDK/services/fatfs/ff.c **** 					0xC0,0xC1,0xC2,0xC3,0xC4,0xC5,0xC6,0xC7,0xC8,0xC9,0xCA,0xCB,0xCC,0xCD,0xCE,0xCF, \
 324:SynaptiX_FDK/services/fatfs/ff.c **** 					0xD0,0xD1,0xD2,0xD3,0xD4,0xD5,0xD6,0xD7,0xD8,0xD9,0xDA,0xDB,0xDC,0xDC,0xDE,0xDE, \
 325:SynaptiX_FDK/services/fatfs/ff.c **** 					0x90,0x91,0x92,0x93,0x94,0x95,0x96,0x97,0x98,0x99,0x9A,0x9B,0x9C,0x9D,0x9E,0x9F, \
 326:SynaptiX_FDK/services/fatfs/ff.c **** 					0xF0,0xF0,0xF2,0xF2,0xF4,0xF4,0xF6,0xF6,0xF8,0xF8,0xFA,0xFA,0xFC,0xFC,0xFE,0xFF}
 327:SynaptiX_FDK/services/fatfs/ff.c **** #define TBL_CT775  {0x80,0x9A,0x91,0xA0,0x8E,0x95,0x8F,0x80,0xAD,0xED,0x8A,0x8A,0xA1,0x8D,0x8E,0x8F
 328:SynaptiX_FDK/services/fatfs/ff.c **** 					0x90,0x92,0x92,0xE2,0x99,0x95,0x96,0x97,0x97,0x99,0x9A,0x9D,0x9C,0x9D,0x9E,0x9F, \
 329:SynaptiX_FDK/services/fatfs/ff.c **** 					0xA0,0xA1,0xE0,0xA3,0xA3,0xA5,0xA6,0xA7,0xA8,0xA9,0xAA,0xAB,0xAC,0xAD,0xAE,0xAF, \
 330:SynaptiX_FDK/services/fatfs/ff.c **** 					0xB0,0xB1,0xB2,0xB3,0xB4,0xB5,0xB6,0xB7,0xB8,0xB9,0xBA,0xBB,0xBC,0xBD,0xBE,0xBF, \
 331:SynaptiX_FDK/services/fatfs/ff.c **** 					0xC0,0xC1,0xC2,0xC3,0xC4,0xC5,0xC6,0xC7,0xC8,0xC9,0xCA,0xCB,0xCC,0xCD,0xCE,0xCF, \
 332:SynaptiX_FDK/services/fatfs/ff.c **** 					0xB5,0xB6,0xB7,0xB8,0xBD,0xBE,0xC6,0xC7,0xA5,0xD9,0xDA,0xDB,0xDC,0xDD,0xDE,0xDF, \
 333:SynaptiX_FDK/services/fatfs/ff.c **** 					0xE0,0xE1,0xE2,0xE3,0xE5,0xE5,0xE6,0xE3,0xE8,0xE8,0xEA,0xEA,0xEE,0xED,0xEE,0xEF, \
 334:SynaptiX_FDK/services/fatfs/ff.c **** 					0xF0,0xF1,0xF2,0xF3,0xF4,0xF5,0xF6,0xF7,0xF8,0xF9,0xFA,0xFB,0xFC,0xFD,0xFE,0xFF}
 335:SynaptiX_FDK/services/fatfs/ff.c **** #define TBL_CT850  {0x43,0x55,0x45,0x41,0x41,0x41,0x41,0x43,0x45,0x45,0x45,0x49,0x49,0x49,0x41,0x41
 336:SynaptiX_FDK/services/fatfs/ff.c **** 					0x45,0x92,0x92,0x4F,0x4F,0x4F,0x55,0x55,0x59,0x4F,0x55,0x4F,0x9C,0x4F,0x9E,0x9F, \
 337:SynaptiX_FDK/services/fatfs/ff.c **** 					0x41,0x49,0x4F,0x55,0xA5,0xA5,0xA6,0xA7,0xA8,0xA9,0xAA,0xAB,0xAC,0xAD,0xAE,0xAF, \
 338:SynaptiX_FDK/services/fatfs/ff.c **** 					0xB0,0xB1,0xB2,0xB3,0xB4,0x41,0x41,0x41,0xB8,0xB9,0xBA,0xBB,0xBC,0xBD,0xBE,0xBF, \
 339:SynaptiX_FDK/services/fatfs/ff.c **** 					0xC0,0xC1,0xC2,0xC3,0xC4,0xC5,0x41,0x41,0xC8,0xC9,0xCA,0xCB,0xCC,0xCD,0xCE,0xCF, \
 340:SynaptiX_FDK/services/fatfs/ff.c **** 					0xD1,0xD1,0x45,0x45,0x45,0x49,0x49,0x49,0x49,0xD9,0xDA,0xDB,0xDC,0xDD,0x49,0xDF, \
 341:SynaptiX_FDK/services/fatfs/ff.c **** 					0x4F,0xE1,0x4F,0x4F,0x4F,0x4F,0xE6,0xE8,0xE8,0x55,0x55,0x55,0x59,0x59,0xEE,0xEF, \
 342:SynaptiX_FDK/services/fatfs/ff.c **** 					0xF0,0xF1,0xF2,0xF3,0xF4,0xF5,0xF6,0xF7,0xF8,0xF9,0xFA,0xFB,0xFC,0xFD,0xFE,0xFF}
 343:SynaptiX_FDK/services/fatfs/ff.c **** #define TBL_CT852  {0x80,0x9A,0x90,0xB6,0x8E,0xDE,0x8F,0x80,0x9D,0xD3,0x8A,0x8A,0xD7,0x8D,0x8E,0x8F
 344:SynaptiX_FDK/services/fatfs/ff.c **** 					0x90,0x91,0x91,0xE2,0x99,0x95,0x95,0x97,0x97,0x99,0x9A,0x9B,0x9B,0x9D,0x9E,0xAC, \
 345:SynaptiX_FDK/services/fatfs/ff.c **** 					0xB5,0xD6,0xE0,0xE9,0xA4,0xA4,0xA6,0xA6,0xA8,0xA8,0xAA,0x8D,0xAC,0xB8,0xAE,0xAF, \
 346:SynaptiX_FDK/services/fatfs/ff.c **** 					0xB0,0xB1,0xB2,0xB3,0xB4,0xB5,0xB6,0xB7,0xB8,0xB9,0xBA,0xBB,0xBC,0xBD,0xBD,0xBF, \
 347:SynaptiX_FDK/services/fatfs/ff.c **** 					0xC0,0xC1,0xC2,0xC3,0xC4,0xC5,0xC6,0xC6,0xC8,0xC9,0xCA,0xCB,0xCC,0xCD,0xCE,0xCF, \
 348:SynaptiX_FDK/services/fatfs/ff.c **** 					0xD1,0xD1,0xD2,0xD3,0xD2,0xD5,0xD6,0xD7,0xB7,0xD9,0xDA,0xDB,0xDC,0xDD,0xDE,0xDF, \
 349:SynaptiX_FDK/services/fatfs/ff.c **** 					0xE0,0xE1,0xE2,0xE3,0xE3,0xD5,0xE6,0xE6,0xE8,0xE9,0xE8,0xEB,0xED,0xED,0xDD,0xEF, \
 350:SynaptiX_FDK/services/fatfs/ff.c **** 					0xF0,0xF1,0xF2,0xF3,0xF4,0xF5,0xF6,0xF7,0xF8,0xF9,0xFA,0xEB,0xFC,0xFC,0xFE,0xFF}
 351:SynaptiX_FDK/services/fatfs/ff.c **** #define TBL_CT855  {0x81,0x81,0x83,0x83,0x85,0x85,0x87,0x87,0x89,0x89,0x8B,0x8B,0x8D,0x8D,0x8F,0x8F
 352:SynaptiX_FDK/services/fatfs/ff.c **** 					0x91,0x91,0x93,0x93,0x95,0x95,0x97,0x97,0x99,0x99,0x9B,0x9B,0x9D,0x9D,0x9F,0x9F, \
 353:SynaptiX_FDK/services/fatfs/ff.c **** 					0xA1,0xA1,0xA3,0xA3,0xA5,0xA5,0xA7,0xA7,0xA9,0xA9,0xAB,0xAB,0xAD,0xAD,0xAE,0xAF, \
 354:SynaptiX_FDK/services/fatfs/ff.c **** 					0xB0,0xB1,0xB2,0xB3,0xB4,0xB6,0xB6,0xB8,0xB8,0xB9,0xBA,0xBB,0xBC,0xBE,0xBE,0xBF, \
 355:SynaptiX_FDK/services/fatfs/ff.c **** 					0xC0,0xC1,0xC2,0xC3,0xC4,0xC5,0xC7,0xC7,0xC8,0xC9,0xCA,0xCB,0xCC,0xCD,0xCE,0xCF, \
 356:SynaptiX_FDK/services/fatfs/ff.c **** 					0xD1,0xD1,0xD3,0xD3,0xD5,0xD5,0xD7,0xD7,0xDD,0xD9,0xDA,0xDB,0xDC,0xDD,0xE0,0xDF, \
 357:SynaptiX_FDK/services/fatfs/ff.c **** 					0xE0,0xE2,0xE2,0xE4,0xE4,0xE6,0xE6,0xE8,0xE8,0xEA,0xEA,0xEC,0xEC,0xEE,0xEE,0xEF, \
 358:SynaptiX_FDK/services/fatfs/ff.c **** 					0xF0,0xF2,0xF2,0xF4,0xF4,0xF6,0xF6,0xF8,0xF8,0xFA,0xFA,0xFC,0xFC,0xFD,0xFE,0xFF}
 359:SynaptiX_FDK/services/fatfs/ff.c **** #define TBL_CT857  {0x80,0x9A,0x90,0xB6,0x8E,0xB7,0x8F,0x80,0xD2,0xD3,0xD4,0xD8,0xD7,0x49,0x8E,0x8F
 360:SynaptiX_FDK/services/fatfs/ff.c **** 					0x90,0x92,0x92,0xE2,0x99,0xE3,0xEA,0xEB,0x98,0x99,0x9A,0x9D,0x9C,0x9D,0x9E,0x9E, \
 361:SynaptiX_FDK/services/fatfs/ff.c **** 					0xB5,0xD6,0xE0,0xE9,0xA5,0xA5,0xA6,0xA6,0xA8,0xA9,0xAA,0xAB,0xAC,0xAD,0xAE,0xAF, \
 362:SynaptiX_FDK/services/fatfs/ff.c **** 					0xB0,0xB1,0xB2,0xB3,0xB4,0xB5,0xB6,0xB7,0xB8,0xB9,0xBA,0xBB,0xBC,0xBD,0xBE,0xBF, \
 363:SynaptiX_FDK/services/fatfs/ff.c **** 					0xC0,0xC1,0xC2,0xC3,0xC4,0xC5,0xC7,0xC7,0xC8,0xC9,0xCA,0xCB,0xCC,0xCD,0xCE,0xCF, \
 364:SynaptiX_FDK/services/fatfs/ff.c **** 					0xD0,0xD1,0xD2,0xD3,0xD4,0x49,0xD6,0xD7,0xD8,0xD9,0xDA,0xDB,0xDC,0xDD,0xDE,0xDF, \
 365:SynaptiX_FDK/services/fatfs/ff.c **** 					0xE0,0xE1,0xE2,0xE3,0xE5,0xE5,0xE6,0xE7,0xE8,0xE9,0xEA,0xEB,0xDE,0xED,0xEE,0xEF, \
 366:SynaptiX_FDK/services/fatfs/ff.c **** 					0xF0,0xF1,0xF2,0xF3,0xF4,0xF5,0xF6,0xF7,0xF8,0xF9,0xFA,0xFB,0xFC,0xFD,0xFE,0xFF}
 367:SynaptiX_FDK/services/fatfs/ff.c **** #define TBL_CT860  {0x80,0x9A,0x90,0x8F,0x8E,0x91,0x86,0x80,0x89,0x89,0x92,0x8B,0x8C,0x98,0x8E,0x8F
 368:SynaptiX_FDK/services/fatfs/ff.c **** 					0x90,0x91,0x92,0x8C,0x99,0xA9,0x96,0x9D,0x98,0x99,0x9A,0x9B,0x9C,0x9D,0x9E,0x9F, \
 369:SynaptiX_FDK/services/fatfs/ff.c **** 					0x86,0x8B,0x9F,0x96,0xA5,0xA5,0xA6,0xA7,0xA8,0xA9,0xAA,0xAB,0xAC,0xAD,0xAE,0xAF, \
 370:SynaptiX_FDK/services/fatfs/ff.c **** 					0xB0,0xB1,0xB2,0xB3,0xB4,0xB5,0xB6,0xB7,0xB8,0xB9,0xBA,0xBB,0xBC,0xBD,0xBE,0xBF, \
 371:SynaptiX_FDK/services/fatfs/ff.c **** 					0xC0,0xC1,0xC2,0xC3,0xC4,0xC5,0xC6,0xC7,0xC8,0xC9,0xCA,0xCB,0xCC,0xCD,0xCE,0xCF, \
ARM GAS  C:\Users\DELL\AppData\Local\Temp\ccO3UVpA.s 			page 8


 372:SynaptiX_FDK/services/fatfs/ff.c **** 					0xD0,0xD1,0xD2,0xD3,0xD4,0xD5,0xD6,0xD7,0xD8,0xD9,0xDA,0xDB,0xDC,0xDD,0xDE,0xDF, \
 373:SynaptiX_FDK/services/fatfs/ff.c **** 					0xE0,0xE1,0xE2,0xE3,0xE4,0xE5,0xE6,0xE7,0xE8,0xE9,0xEA,0xEB,0xEC,0xED,0xEE,0xEF, \
 374:SynaptiX_FDK/services/fatfs/ff.c **** 					0xF0,0xF1,0xF2,0xF3,0xF4,0xF5,0xF6,0xF7,0xF8,0xF9,0xFA,0xFB,0xFC,0xFD,0xFE,0xFF}
 375:SynaptiX_FDK/services/fatfs/ff.c **** #define TBL_CT861  {0x80,0x9A,0x90,0x41,0x8E,0x41,0x8F,0x80,0x45,0x45,0x45,0x8B,0x8B,0x8D,0x8E,0x8F
 376:SynaptiX_FDK/services/fatfs/ff.c **** 					0x90,0x92,0x92,0x4F,0x99,0x8D,0x55,0x97,0x97,0x99,0x9A,0x9D,0x9C,0x9D,0x9E,0x9F, \
 377:SynaptiX_FDK/services/fatfs/ff.c **** 					0xA4,0xA5,0xA6,0xA7,0xA4,0xA5,0xA6,0xA7,0xA8,0xA9,0xAA,0xAB,0xAC,0xAD,0xAE,0xAF, \
 378:SynaptiX_FDK/services/fatfs/ff.c **** 					0xB0,0xB1,0xB2,0xB3,0xB4,0xB5,0xB6,0xB7,0xB8,0xB9,0xBA,0xBB,0xBC,0xBD,0xBE,0xBF, \
 379:SynaptiX_FDK/services/fatfs/ff.c **** 					0xC0,0xC1,0xC2,0xC3,0xC4,0xC5,0xC6,0xC7,0xC8,0xC9,0xCA,0xCB,0xCC,0xCD,0xCE,0xCF, \
 380:SynaptiX_FDK/services/fatfs/ff.c **** 					0xD0,0xD1,0xD2,0xD3,0xD4,0xD5,0xD6,0xD7,0xD8,0xD9,0xDA,0xDB,0xDC,0xDD,0xDE,0xDF, \
 381:SynaptiX_FDK/services/fatfs/ff.c **** 					0xE0,0xE1,0xE2,0xE3,0xE4,0xE5,0xE6,0xE7,0xE8,0xE9,0xEA,0xEB,0xEC,0xED,0xEE,0xEF, \
 382:SynaptiX_FDK/services/fatfs/ff.c **** 					0xF0,0xF1,0xF2,0xF3,0xF4,0xF5,0xF6,0xF7,0xF8,0xF9,0xFA,0xFB,0xFC,0xFD,0xFE,0xFF}
 383:SynaptiX_FDK/services/fatfs/ff.c **** #define TBL_CT862  {0x80,0x81,0x82,0x83,0x84,0x85,0x86,0x87,0x88,0x89,0x8A,0x8B,0x8C,0x8D,0x8E,0x8F
 384:SynaptiX_FDK/services/fatfs/ff.c **** 					0x90,0x91,0x92,0x93,0x94,0x95,0x96,0x97,0x98,0x99,0x9A,0x9B,0x9C,0x9D,0x9E,0x9F, \
 385:SynaptiX_FDK/services/fatfs/ff.c **** 					0x41,0x49,0x4F,0x55,0xA5,0xA5,0xA6,0xA7,0xA8,0xA9,0xAA,0xAB,0xAC,0xAD,0xAE,0xAF, \
 386:SynaptiX_FDK/services/fatfs/ff.c **** 					0xB0,0xB1,0xB2,0xB3,0xB4,0xB5,0xB6,0xB7,0xB8,0xB9,0xBA,0xBB,0xBC,0xBD,0xBE,0xBF, \
 387:SynaptiX_FDK/services/fatfs/ff.c **** 					0xC0,0xC1,0xC2,0xC3,0xC4,0xC5,0xC6,0xC7,0xC8,0xC9,0xCA,0xCB,0xCC,0xCD,0xCE,0xCF, \
 388:SynaptiX_FDK/services/fatfs/ff.c **** 					0xD0,0xD1,0xD2,0xD3,0xD4,0xD5,0xD6,0xD7,0xD8,0xD9,0xDA,0xDB,0xDC,0xDD,0xDE,0xDF, \
 389:SynaptiX_FDK/services/fatfs/ff.c **** 					0xE0,0xE1,0xE2,0xE3,0xE4,0xE5,0xE6,0xE7,0xE8,0xE9,0xEA,0xEB,0xEC,0xED,0xEE,0xEF, \
 390:SynaptiX_FDK/services/fatfs/ff.c **** 					0xF0,0xF1,0xF2,0xF3,0xF4,0xF5,0xF6,0xF7,0xF8,0xF9,0xFA,0xFB,0xFC,0xFD,0xFE,0xFF}
 391:SynaptiX_FDK/services/fatfs/ff.c **** #define TBL_CT863  {0x43,0x55,0x45,0x41,0x41,0x41,0x86,0x43,0x45,0x45,0x45,0x49,0x49,0x8D,0x41,0x8F
 392:SynaptiX_FDK/services/fatfs/ff.c **** 					0x45,0x45,0x45,0x4F,0x45,0x49,0x55,0x55,0x98,0x4F,0x55,0x9B,0x9C,0x55,0x55,0x9F, \
 393:SynaptiX_FDK/services/fatfs/ff.c **** 					0xA0,0xA1,0x4F,0x55,0xA4,0xA5,0xA6,0xA7,0x49,0xA9,0xAA,0xAB,0xAC,0xAD,0xAE,0xAF, \
 394:SynaptiX_FDK/services/fatfs/ff.c **** 					0xB0,0xB1,0xB2,0xB3,0xB4,0xB5,0xB6,0xB7,0xB8,0xB9,0xBA,0xBB,0xBC,0xBD,0xBE,0xBF, \
 395:SynaptiX_FDK/services/fatfs/ff.c **** 					0xC0,0xC1,0xC2,0xC3,0xC4,0xC5,0xC6,0xC7,0xC8,0xC9,0xCA,0xCB,0xCC,0xCD,0xCE,0xCF, \
 396:SynaptiX_FDK/services/fatfs/ff.c **** 					0xD0,0xD1,0xD2,0xD3,0xD4,0xD5,0xD6,0xD7,0xD8,0xD9,0xDA,0xDB,0xDC,0xDD,0xDE,0xDF, \
 397:SynaptiX_FDK/services/fatfs/ff.c **** 					0xE0,0xE1,0xE2,0xE3,0xE4,0xE5,0xE6,0xE7,0xE8,0xE9,0xEA,0xEB,0xEC,0xED,0xEE,0xEF, \
 398:SynaptiX_FDK/services/fatfs/ff.c **** 					0xF0,0xF1,0xF2,0xF3,0xF4,0xF5,0xF6,0xF7,0xF8,0xF9,0xFA,0xFB,0xFC,0xFD,0xFE,0xFF}
 399:SynaptiX_FDK/services/fatfs/ff.c **** #define TBL_CT864  {0x80,0x9A,0x45,0x41,0x8E,0x41,0x8F,0x80,0x45,0x45,0x45,0x49,0x49,0x49,0x8E,0x8F
 400:SynaptiX_FDK/services/fatfs/ff.c **** 					0x90,0x92,0x92,0x4F,0x99,0x4F,0x55,0x55,0x59,0x99,0x9A,0x9B,0x9C,0x9D,0x9E,0x9F, \
 401:SynaptiX_FDK/services/fatfs/ff.c **** 					0x41,0x49,0x4F,0x55,0xA5,0xA5,0xA6,0xA7,0xA8,0xA9,0xAA,0xAB,0xAC,0xAD,0xAE,0xAF, \
 402:SynaptiX_FDK/services/fatfs/ff.c **** 					0xB0,0xB1,0xB2,0xB3,0xB4,0xB5,0xB6,0xB7,0xB8,0xB9,0xBA,0xBB,0xBC,0xBD,0xBE,0xBF, \
 403:SynaptiX_FDK/services/fatfs/ff.c **** 					0xC0,0xC1,0xC2,0xC3,0xC4,0xC5,0xC6,0xC7,0xC8,0xC9,0xCA,0xCB,0xCC,0xCD,0xCE,0xCF, \
 404:SynaptiX_FDK/services/fatfs/ff.c **** 					0xD0,0xD1,0xD2,0xD3,0xD4,0xD5,0xD6,0xD7,0xD8,0xD9,0xDA,0xDB,0xDC,0xDD,0xDE,0xDF, \
 405:SynaptiX_FDK/services/fatfs/ff.c **** 					0xE0,0xE1,0xE2,0xE3,0xE4,0xE5,0xE6,0xE7,0xE8,0xE9,0xEA,0xEB,0xEC,0xED,0xEE,0xEF, \
 406:SynaptiX_FDK/services/fatfs/ff.c **** 					0xF0,0xF1,0xF2,0xF3,0xF4,0xF5,0xF6,0xF7,0xF8,0xF9,0xFA,0xFB,0xFC,0xFD,0xFE,0xFF}
 407:SynaptiX_FDK/services/fatfs/ff.c **** #define TBL_CT865  {0x80,0x9A,0x90,0x41,0x8E,0x41,0x8F,0x80,0x45,0x45,0x45,0x49,0x49,0x49,0x8E,0x8F
 408:SynaptiX_FDK/services/fatfs/ff.c **** 					0x90,0x92,0x92,0x4F,0x99,0x4F,0x55,0x55,0x59,0x99,0x9A,0x9B,0x9C,0x9D,0x9E,0x9F, \
 409:SynaptiX_FDK/services/fatfs/ff.c **** 					0x41,0x49,0x4F,0x55,0xA5,0xA5,0xA6,0xA7,0xA8,0xA9,0xAA,0xAB,0xAC,0xAD,0xAE,0xAF, \
 410:SynaptiX_FDK/services/fatfs/ff.c **** 					0xB0,0xB1,0xB2,0xB3,0xB4,0xB5,0xB6,0xB7,0xB8,0xB9,0xBA,0xBB,0xBC,0xBD,0xBE,0xBF, \
 411:SynaptiX_FDK/services/fatfs/ff.c **** 					0xC0,0xC1,0xC2,0xC3,0xC4,0xC5,0xC6,0xC7,0xC8,0xC9,0xCA,0xCB,0xCC,0xCD,0xCE,0xCF, \
 412:SynaptiX_FDK/services/fatfs/ff.c **** 					0xD0,0xD1,0xD2,0xD3,0xD4,0xD5,0xD6,0xD7,0xD8,0xD9,0xDA,0xDB,0xDC,0xDD,0xDE,0xDF, \
 413:SynaptiX_FDK/services/fatfs/ff.c **** 					0xE0,0xE1,0xE2,0xE3,0xE4,0xE5,0xE6,0xE7,0xE8,0xE9,0xEA,0xEB,0xEC,0xED,0xEE,0xEF, \
 414:SynaptiX_FDK/services/fatfs/ff.c **** 					0xF0,0xF1,0xF2,0xF3,0xF4,0xF5,0xF6,0xF7,0xF8,0xF9,0xFA,0xFB,0xFC,0xFD,0xFE,0xFF}
 415:SynaptiX_FDK/services/fatfs/ff.c **** #define TBL_CT866  {0x80,0x81,0x82,0x83,0x84,0x85,0x86,0x87,0x88,0x89,0x8A,0x8B,0x8C,0x8D,0x8E,0x8F
 416:SynaptiX_FDK/services/fatfs/ff.c **** 					0x90,0x91,0x92,0x93,0x94,0x95,0x96,0x97,0x98,0x99,0x9A,0x9B,0x9C,0x9D,0x9E,0x9F, \
 417:SynaptiX_FDK/services/fatfs/ff.c **** 					0x80,0x81,0x82,0x83,0x84,0x85,0x86,0x87,0x88,0x89,0x8A,0x8B,0x8C,0x8D,0x8E,0x8F, \
 418:SynaptiX_FDK/services/fatfs/ff.c **** 					0xB0,0xB1,0xB2,0xB3,0xB4,0xB5,0xB6,0xB7,0xB8,0xB9,0xBA,0xBB,0xBC,0xBD,0xBE,0xBF, \
 419:SynaptiX_FDK/services/fatfs/ff.c **** 					0xC0,0xC1,0xC2,0xC3,0xC4,0xC5,0xC6,0xC7,0xC8,0xC9,0xCA,0xCB,0xCC,0xCD,0xCE,0xCF, \
 420:SynaptiX_FDK/services/fatfs/ff.c **** 					0xD0,0xD1,0xD2,0xD3,0xD4,0xD5,0xD6,0xD7,0xD8,0xD9,0xDA,0xDB,0xDC,0xDD,0xDE,0xDF, \
 421:SynaptiX_FDK/services/fatfs/ff.c **** 					0x90,0x91,0x92,0x93,0x94,0x95,0x96,0x97,0x98,0x99,0x9A,0x9B,0x9C,0x9D,0x9E,0x9F, \
 422:SynaptiX_FDK/services/fatfs/ff.c **** 					0xF0,0xF0,0xF2,0xF2,0xF4,0xF4,0xF6,0xF6,0xF8,0xF9,0xFA,0xFB,0xFC,0xFD,0xFE,0xFF}
 423:SynaptiX_FDK/services/fatfs/ff.c **** #define TBL_CT869  {0x80,0x81,0x82,0x83,0x84,0x85,0x86,0x87,0x88,0x89,0x8A,0x8B,0x8C,0x8D,0x8E,0x8F
 424:SynaptiX_FDK/services/fatfs/ff.c **** 					0x90,0x91,0x92,0x93,0x94,0x95,0x96,0x97,0x98,0x99,0x9A,0x86,0x9C,0x8D,0x8F,0x90, \
 425:SynaptiX_FDK/services/fatfs/ff.c **** 					0x91,0x90,0x92,0x95,0xA4,0xA5,0xA6,0xA7,0xA8,0xA9,0xAA,0xAB,0xAC,0xAD,0xAE,0xAF, \
 426:SynaptiX_FDK/services/fatfs/ff.c **** 					0xB0,0xB1,0xB2,0xB3,0xB4,0xB5,0xB6,0xB7,0xB8,0xB9,0xBA,0xBB,0xBC,0xBD,0xBE,0xBF, \
 427:SynaptiX_FDK/services/fatfs/ff.c **** 					0xC0,0xC1,0xC2,0xC3,0xC4,0xC5,0xC6,0xC7,0xC8,0xC9,0xCA,0xCB,0xCC,0xCD,0xCE,0xCF, \
 428:SynaptiX_FDK/services/fatfs/ff.c **** 					0xD0,0xD1,0xD2,0xD3,0xD4,0xD5,0xA4,0xA5,0xA6,0xD9,0xDA,0xDB,0xDC,0xA7,0xA8,0xDF, \
ARM GAS  C:\Users\DELL\AppData\Local\Temp\ccO3UVpA.s 			page 9


 429:SynaptiX_FDK/services/fatfs/ff.c **** 					0xA9,0xAA,0xAC,0xAD,0xB5,0xB6,0xB7,0xB8,0xBD,0xBE,0xC6,0xC7,0xCF,0xCF,0xD0,0xEF, \
 430:SynaptiX_FDK/services/fatfs/ff.c **** 					0xF0,0xF1,0xD1,0xD2,0xD3,0xF5,0xD4,0xF7,0xF8,0xF9,0xD5,0x96,0x95,0x98,0xFE,0xFF}
 431:SynaptiX_FDK/services/fatfs/ff.c **** 
 432:SynaptiX_FDK/services/fatfs/ff.c **** 
 433:SynaptiX_FDK/services/fatfs/ff.c **** /* DBCS code range |----- 1st byte -----|  |----------- 2nd byte -----------| */
 434:SynaptiX_FDK/services/fatfs/ff.c **** /*                  <------>    <------>    <------>    <------>    <------>  */
 435:SynaptiX_FDK/services/fatfs/ff.c **** #define TBL_DC932 {0x81, 0x9F, 0xE0, 0xFC, 0x40, 0x7E, 0x80, 0xFC, 0x00, 0x00}
 436:SynaptiX_FDK/services/fatfs/ff.c **** #define TBL_DC936 {0x81, 0xFE, 0x00, 0x00, 0x40, 0x7E, 0x80, 0xFE, 0x00, 0x00}
 437:SynaptiX_FDK/services/fatfs/ff.c **** #define TBL_DC949 {0x81, 0xFE, 0x00, 0x00, 0x41, 0x5A, 0x61, 0x7A, 0x81, 0xFE}
 438:SynaptiX_FDK/services/fatfs/ff.c **** #define TBL_DC950 {0x81, 0xFE, 0x00, 0x00, 0x40, 0x7E, 0xA1, 0xFE, 0x00, 0x00}
 439:SynaptiX_FDK/services/fatfs/ff.c **** 
 440:SynaptiX_FDK/services/fatfs/ff.c **** 
 441:SynaptiX_FDK/services/fatfs/ff.c **** /* Macros for table definitions */
 442:SynaptiX_FDK/services/fatfs/ff.c **** #define MERGE_2STR(a, b) a ## b
 443:SynaptiX_FDK/services/fatfs/ff.c **** #define MKCVTBL(hd, cp) MERGE_2STR(hd, cp)
 444:SynaptiX_FDK/services/fatfs/ff.c **** 
 445:SynaptiX_FDK/services/fatfs/ff.c **** 
 446:SynaptiX_FDK/services/fatfs/ff.c **** 
 447:SynaptiX_FDK/services/fatfs/ff.c **** 
 448:SynaptiX_FDK/services/fatfs/ff.c **** /*--------------------------------------------------------------------------
 449:SynaptiX_FDK/services/fatfs/ff.c **** 
 450:SynaptiX_FDK/services/fatfs/ff.c ****    Module Private Work Area
 451:SynaptiX_FDK/services/fatfs/ff.c **** 
 452:SynaptiX_FDK/services/fatfs/ff.c **** ---------------------------------------------------------------------------*/
 453:SynaptiX_FDK/services/fatfs/ff.c **** /* Remark: Variables defined here without initial value shall be guaranteed
 454:SynaptiX_FDK/services/fatfs/ff.c **** /  zero/null at start-up. If not, the linker option or start-up routine is
 455:SynaptiX_FDK/services/fatfs/ff.c **** /  not compliance with C standard. */
 456:SynaptiX_FDK/services/fatfs/ff.c **** 
 457:SynaptiX_FDK/services/fatfs/ff.c **** /*--------------------------------*/
 458:SynaptiX_FDK/services/fatfs/ff.c **** /* File/Volume controls           */
 459:SynaptiX_FDK/services/fatfs/ff.c **** /*--------------------------------*/
 460:SynaptiX_FDK/services/fatfs/ff.c **** 
 461:SynaptiX_FDK/services/fatfs/ff.c **** #if FF_VOLUMES < 1 || FF_VOLUMES > 10
 462:SynaptiX_FDK/services/fatfs/ff.c **** #error Wrong FF_VOLUMES setting
 463:SynaptiX_FDK/services/fatfs/ff.c **** #endif
 464:SynaptiX_FDK/services/fatfs/ff.c **** static FATFS *FatFs[FF_VOLUMES];	/* Pointer to the filesystem objects (logical drives) */
 465:SynaptiX_FDK/services/fatfs/ff.c **** static WORD Fsid;					/* Filesystem mount ID */
 466:SynaptiX_FDK/services/fatfs/ff.c **** 
 467:SynaptiX_FDK/services/fatfs/ff.c **** #if FF_FS_RPATH
 468:SynaptiX_FDK/services/fatfs/ff.c **** static BYTE CurrVol;				/* Current drive number set by f_chdrive() */
 469:SynaptiX_FDK/services/fatfs/ff.c **** #endif
 470:SynaptiX_FDK/services/fatfs/ff.c **** 
 471:SynaptiX_FDK/services/fatfs/ff.c **** #if FF_FS_LOCK
 472:SynaptiX_FDK/services/fatfs/ff.c **** static FILESEM Files[FF_FS_LOCK];	/* Open object lock semaphores */
 473:SynaptiX_FDK/services/fatfs/ff.c **** #if FF_FS_REENTRANT
 474:SynaptiX_FDK/services/fatfs/ff.c **** static volatile BYTE SysLock;		/* System lock flag to protect Files[] (0:no mutex, 1:unlocked, 2:lo
 475:SynaptiX_FDK/services/fatfs/ff.c **** static volatile BYTE SysLockVolume;	/* Volume id who is locking Files[] */
 476:SynaptiX_FDK/services/fatfs/ff.c **** #endif
 477:SynaptiX_FDK/services/fatfs/ff.c **** #endif
 478:SynaptiX_FDK/services/fatfs/ff.c **** 
 479:SynaptiX_FDK/services/fatfs/ff.c **** #if FF_STR_VOLUME_ID
 480:SynaptiX_FDK/services/fatfs/ff.c **** #ifdef FF_VOLUME_STRS
 481:SynaptiX_FDK/services/fatfs/ff.c **** static const char *const VolumeStr[FF_VOLUMES] = {FF_VOLUME_STRS};	/* Pre-defined volume ID */
 482:SynaptiX_FDK/services/fatfs/ff.c **** #endif
 483:SynaptiX_FDK/services/fatfs/ff.c **** #endif
 484:SynaptiX_FDK/services/fatfs/ff.c **** 
 485:SynaptiX_FDK/services/fatfs/ff.c **** #if FF_LBA64
ARM GAS  C:\Users\DELL\AppData\Local\Temp\ccO3UVpA.s 			page 10


 486:SynaptiX_FDK/services/fatfs/ff.c **** #if FF_MIN_GPT > 0x100000000
 487:SynaptiX_FDK/services/fatfs/ff.c **** #error Wrong FF_MIN_GPT setting
 488:SynaptiX_FDK/services/fatfs/ff.c **** #endif
 489:SynaptiX_FDK/services/fatfs/ff.c **** static const BYTE GUID_MS_Basic[16] = {0xA2,0xA0,0xD0,0xEB,0xE5,0xB9,0x33,0x44,0x87,0xC0,0x68,0xB6,
 490:SynaptiX_FDK/services/fatfs/ff.c **** #endif
 491:SynaptiX_FDK/services/fatfs/ff.c **** 
 492:SynaptiX_FDK/services/fatfs/ff.c **** 
 493:SynaptiX_FDK/services/fatfs/ff.c **** 
 494:SynaptiX_FDK/services/fatfs/ff.c **** /*--------------------------------*/
 495:SynaptiX_FDK/services/fatfs/ff.c **** /* LFN/Directory working buffer   */
 496:SynaptiX_FDK/services/fatfs/ff.c **** /*--------------------------------*/
 497:SynaptiX_FDK/services/fatfs/ff.c **** 
 498:SynaptiX_FDK/services/fatfs/ff.c **** #if FF_USE_LFN == 0		/* Non-LFN configuration */
 499:SynaptiX_FDK/services/fatfs/ff.c **** #if FF_FS_EXFAT
 500:SynaptiX_FDK/services/fatfs/ff.c **** #error LFN must be enabled when enable exFAT
 501:SynaptiX_FDK/services/fatfs/ff.c **** #endif
 502:SynaptiX_FDK/services/fatfs/ff.c **** #define DEF_NAMEBUFF
 503:SynaptiX_FDK/services/fatfs/ff.c **** #define INIT_NAMEBUFF(fs)
 504:SynaptiX_FDK/services/fatfs/ff.c **** #define FREE_NAMEBUFF()
 505:SynaptiX_FDK/services/fatfs/ff.c **** #define LEAVE_MKFS(res)	return res
 506:SynaptiX_FDK/services/fatfs/ff.c **** 
 507:SynaptiX_FDK/services/fatfs/ff.c **** #else					/* LFN configurations */
 508:SynaptiX_FDK/services/fatfs/ff.c **** #if FF_MAX_LFN < 12 || FF_MAX_LFN > 255
 509:SynaptiX_FDK/services/fatfs/ff.c **** #error Wrong setting of FF_MAX_LFN
 510:SynaptiX_FDK/services/fatfs/ff.c **** #endif
 511:SynaptiX_FDK/services/fatfs/ff.c **** #if FF_LFN_BUF < FF_SFN_BUF || FF_SFN_BUF < 12
 512:SynaptiX_FDK/services/fatfs/ff.c **** #error Wrong setting of FF_LFN_BUF or FF_SFN_BUF
 513:SynaptiX_FDK/services/fatfs/ff.c **** #endif
 514:SynaptiX_FDK/services/fatfs/ff.c **** #if FF_LFN_UNICODE < 0 || FF_LFN_UNICODE > 3
 515:SynaptiX_FDK/services/fatfs/ff.c **** #error Wrong setting of FF_LFN_UNICODE
 516:SynaptiX_FDK/services/fatfs/ff.c **** #endif
 517:SynaptiX_FDK/services/fatfs/ff.c **** static const BYTE LfnOfs[] = {1,3,5,7,9,14,16,18,20,22,24,28,30};	/* FAT: Offset of LFN characters 
 518:SynaptiX_FDK/services/fatfs/ff.c **** #define MAXDIRB(nc)	((nc + 44U) / 15 * SZDIRE)	/* exFAT: Size of directory entry block scratchpad b
 519:SynaptiX_FDK/services/fatfs/ff.c **** 
 520:SynaptiX_FDK/services/fatfs/ff.c **** #if FF_USE_LFN == 1		/* LFN enabled with static working buffer */
 521:SynaptiX_FDK/services/fatfs/ff.c **** #if FF_FS_EXFAT
 522:SynaptiX_FDK/services/fatfs/ff.c **** static BYTE	DirBuf[MAXDIRB(FF_MAX_LFN)];	/* Directory entry block scratchpad buffer */
 523:SynaptiX_FDK/services/fatfs/ff.c **** #endif
 524:SynaptiX_FDK/services/fatfs/ff.c **** static WCHAR LfnBuf[FF_MAX_LFN + 1];		/* LFN working buffer */
 525:SynaptiX_FDK/services/fatfs/ff.c **** #define DEF_NAMEBUFF
 526:SynaptiX_FDK/services/fatfs/ff.c **** #define INIT_NAMEBUFF(fs)
 527:SynaptiX_FDK/services/fatfs/ff.c **** #define FREE_NAMEBUFF()
 528:SynaptiX_FDK/services/fatfs/ff.c **** #define LEAVE_MKFS(res)	return res
 529:SynaptiX_FDK/services/fatfs/ff.c **** 
 530:SynaptiX_FDK/services/fatfs/ff.c **** #elif FF_USE_LFN == 2 	/* LFN enabled with dynamic working buffer on the stack */
 531:SynaptiX_FDK/services/fatfs/ff.c **** #if FF_FS_EXFAT
 532:SynaptiX_FDK/services/fatfs/ff.c **** #define DEF_NAMEBUFF		WCHAR lbuf[FF_MAX_LFN+1]; BYTE dbuf[MAXDIRB(FF_MAX_LFN)];	/* LFN working buff
 533:SynaptiX_FDK/services/fatfs/ff.c **** #define INIT_NAMEBUFF(fs)	{ (fs)->lfnbuf = lbuf; (fs)->dirbuf = dbuf; }
 534:SynaptiX_FDK/services/fatfs/ff.c **** #define FREE_NAMEBUFF()
 535:SynaptiX_FDK/services/fatfs/ff.c **** #else
 536:SynaptiX_FDK/services/fatfs/ff.c **** #define DEF_NAMEBUFF		WCHAR lbuf[FF_MAX_LFN+1];	/* LFN working buffer */
 537:SynaptiX_FDK/services/fatfs/ff.c **** #define INIT_NAMEBUFF(fs)	{ (fs)->lfnbuf = lbuf; }
 538:SynaptiX_FDK/services/fatfs/ff.c **** #define FREE_NAMEBUFF()
 539:SynaptiX_FDK/services/fatfs/ff.c **** #endif
 540:SynaptiX_FDK/services/fatfs/ff.c **** #define LEAVE_MKFS(res)	return res
 541:SynaptiX_FDK/services/fatfs/ff.c **** 
 542:SynaptiX_FDK/services/fatfs/ff.c **** #elif FF_USE_LFN == 3 	/* LFN enabled with dynamic working buffer on the heap */
ARM GAS  C:\Users\DELL\AppData\Local\Temp\ccO3UVpA.s 			page 11


 543:SynaptiX_FDK/services/fatfs/ff.c **** #if FF_FS_EXFAT
 544:SynaptiX_FDK/services/fatfs/ff.c **** #define DEF_NAMEBUFF		WCHAR *lfn;	/* Pointer to LFN working buffer and directory entry block scratc
 545:SynaptiX_FDK/services/fatfs/ff.c **** #define INIT_NAMEBUFF(fs)	{ lfn = ff_memalloc((FF_MAX_LFN+1)*2 + MAXDIRB(FF_MAX_LFN)); if (!lfn) LE
 546:SynaptiX_FDK/services/fatfs/ff.c **** #define FREE_NAMEBUFF()	ff_memfree(lfn)
 547:SynaptiX_FDK/services/fatfs/ff.c **** #else
 548:SynaptiX_FDK/services/fatfs/ff.c **** #define DEF_NAMEBUFF		WCHAR *lfn;	/* Pointer to LFN working buffer */
 549:SynaptiX_FDK/services/fatfs/ff.c **** #define INIT_NAMEBUFF(fs)	{ lfn = ff_memalloc((FF_MAX_LFN+1)*2); if (!lfn) LEAVE_FF(fs, FR_NOT_ENOU
 550:SynaptiX_FDK/services/fatfs/ff.c **** #define FREE_NAMEBUFF()	ff_memfree(lfn)
 551:SynaptiX_FDK/services/fatfs/ff.c **** #endif
 552:SynaptiX_FDK/services/fatfs/ff.c **** #define LEAVE_MKFS(res)	{ if (!work) ff_memfree(buf); return res; }
 553:SynaptiX_FDK/services/fatfs/ff.c **** #define MAX_MALLOC	0x8000	/* Must be >=FF_MAX_SS */
 554:SynaptiX_FDK/services/fatfs/ff.c **** 
 555:SynaptiX_FDK/services/fatfs/ff.c **** #else
 556:SynaptiX_FDK/services/fatfs/ff.c **** #error Wrong setting of FF_USE_LFN
 557:SynaptiX_FDK/services/fatfs/ff.c **** 
 558:SynaptiX_FDK/services/fatfs/ff.c **** #endif	/* FF_USE_LFN == 1 */
 559:SynaptiX_FDK/services/fatfs/ff.c **** #endif	/* FF_USE_LFN == 0 */
 560:SynaptiX_FDK/services/fatfs/ff.c **** 
 561:SynaptiX_FDK/services/fatfs/ff.c **** 
 562:SynaptiX_FDK/services/fatfs/ff.c **** 
 563:SynaptiX_FDK/services/fatfs/ff.c **** /*--------------------------------*/
 564:SynaptiX_FDK/services/fatfs/ff.c **** /* Code conversion tables         */
 565:SynaptiX_FDK/services/fatfs/ff.c **** /*--------------------------------*/
 566:SynaptiX_FDK/services/fatfs/ff.c **** 
 567:SynaptiX_FDK/services/fatfs/ff.c **** #if FF_CODE_PAGE == 0	/* Run-time code page configuration */
 568:SynaptiX_FDK/services/fatfs/ff.c **** #define CODEPAGE CodePage
 569:SynaptiX_FDK/services/fatfs/ff.c **** static WORD CodePage;	/* Current code page */
 570:SynaptiX_FDK/services/fatfs/ff.c **** static const BYTE* ExCvt;	/* Pointer to SBCS up-case table Ct???[] (null:disabled) */
 571:SynaptiX_FDK/services/fatfs/ff.c **** static const BYTE* DbcTbl;	/* Pointer to DBCS code range table Dc???[] (null:disabled) */
 572:SynaptiX_FDK/services/fatfs/ff.c **** 
 573:SynaptiX_FDK/services/fatfs/ff.c **** static const BYTE Ct437[] = TBL_CT437;
 574:SynaptiX_FDK/services/fatfs/ff.c **** static const BYTE Ct720[] = TBL_CT720;
 575:SynaptiX_FDK/services/fatfs/ff.c **** static const BYTE Ct737[] = TBL_CT737;
 576:SynaptiX_FDK/services/fatfs/ff.c **** static const BYTE Ct771[] = TBL_CT771;
 577:SynaptiX_FDK/services/fatfs/ff.c **** static const BYTE Ct775[] = TBL_CT775;
 578:SynaptiX_FDK/services/fatfs/ff.c **** static const BYTE Ct850[] = TBL_CT850;
 579:SynaptiX_FDK/services/fatfs/ff.c **** static const BYTE Ct852[] = TBL_CT852;
 580:SynaptiX_FDK/services/fatfs/ff.c **** static const BYTE Ct855[] = TBL_CT855;
 581:SynaptiX_FDK/services/fatfs/ff.c **** static const BYTE Ct857[] = TBL_CT857;
 582:SynaptiX_FDK/services/fatfs/ff.c **** static const BYTE Ct860[] = TBL_CT860;
 583:SynaptiX_FDK/services/fatfs/ff.c **** static const BYTE Ct861[] = TBL_CT861;
 584:SynaptiX_FDK/services/fatfs/ff.c **** static const BYTE Ct862[] = TBL_CT862;
 585:SynaptiX_FDK/services/fatfs/ff.c **** static const BYTE Ct863[] = TBL_CT863;
 586:SynaptiX_FDK/services/fatfs/ff.c **** static const BYTE Ct864[] = TBL_CT864;
 587:SynaptiX_FDK/services/fatfs/ff.c **** static const BYTE Ct865[] = TBL_CT865;
 588:SynaptiX_FDK/services/fatfs/ff.c **** static const BYTE Ct866[] = TBL_CT866;
 589:SynaptiX_FDK/services/fatfs/ff.c **** static const BYTE Ct869[] = TBL_CT869;
 590:SynaptiX_FDK/services/fatfs/ff.c **** static const BYTE Dc932[] = TBL_DC932;
 591:SynaptiX_FDK/services/fatfs/ff.c **** static const BYTE Dc936[] = TBL_DC936;
 592:SynaptiX_FDK/services/fatfs/ff.c **** static const BYTE Dc949[] = TBL_DC949;
 593:SynaptiX_FDK/services/fatfs/ff.c **** static const BYTE Dc950[] = TBL_DC950;
 594:SynaptiX_FDK/services/fatfs/ff.c **** 
 595:SynaptiX_FDK/services/fatfs/ff.c **** #elif FF_CODE_PAGE < 900	/* Static code page configuration (SBCS) */
 596:SynaptiX_FDK/services/fatfs/ff.c **** #define CODEPAGE FF_CODE_PAGE
 597:SynaptiX_FDK/services/fatfs/ff.c **** static const BYTE ExCvt[] = MKCVTBL(TBL_CT, FF_CODE_PAGE);
 598:SynaptiX_FDK/services/fatfs/ff.c **** 
 599:SynaptiX_FDK/services/fatfs/ff.c **** #else					/* Static code page configuration (DBCS) */
ARM GAS  C:\Users\DELL\AppData\Local\Temp\ccO3UVpA.s 			page 12


 600:SynaptiX_FDK/services/fatfs/ff.c **** #define CODEPAGE FF_CODE_PAGE
 601:SynaptiX_FDK/services/fatfs/ff.c **** static const BYTE DbcTbl[] = MKCVTBL(TBL_DC, FF_CODE_PAGE);
 602:SynaptiX_FDK/services/fatfs/ff.c **** 
 603:SynaptiX_FDK/services/fatfs/ff.c **** #endif
 604:SynaptiX_FDK/services/fatfs/ff.c **** 
 605:SynaptiX_FDK/services/fatfs/ff.c **** 
 606:SynaptiX_FDK/services/fatfs/ff.c **** 
 607:SynaptiX_FDK/services/fatfs/ff.c **** 
 608:SynaptiX_FDK/services/fatfs/ff.c **** /*--------------------------------------------------------------------------
 609:SynaptiX_FDK/services/fatfs/ff.c **** 
 610:SynaptiX_FDK/services/fatfs/ff.c ****    Module Private Functions
 611:SynaptiX_FDK/services/fatfs/ff.c **** 
 612:SynaptiX_FDK/services/fatfs/ff.c **** ---------------------------------------------------------------------------*/
 613:SynaptiX_FDK/services/fatfs/ff.c **** 
 614:SynaptiX_FDK/services/fatfs/ff.c **** 
 615:SynaptiX_FDK/services/fatfs/ff.c **** /*-----------------------------------------------------------------------*/
 616:SynaptiX_FDK/services/fatfs/ff.c **** /* Load/Store multi-byte word in the FAT structure                       */
 617:SynaptiX_FDK/services/fatfs/ff.c **** /*-----------------------------------------------------------------------*/
 618:SynaptiX_FDK/services/fatfs/ff.c **** 
 619:SynaptiX_FDK/services/fatfs/ff.c **** static WORD ld_16 (const BYTE* ptr)	/*	 Load a 2-byte little-endian word */
 620:SynaptiX_FDK/services/fatfs/ff.c **** {
  30              		.loc 1 620 1 view -0
  31              		.cfi_startproc
  32              		@ args = 0, pretend = 0, frame = 0
  33              		@ frame_needed = 0, uses_anonymous_args = 0
  34              		@ link register save eliminated.
 621:SynaptiX_FDK/services/fatfs/ff.c **** 	WORD rv;
  35              		.loc 1 621 2 view .LVU1
 622:SynaptiX_FDK/services/fatfs/ff.c **** 
 623:SynaptiX_FDK/services/fatfs/ff.c **** 	rv = ptr[1];
  36              		.loc 1 623 2 view .LVU2
  37              		.loc 1 623 10 is_stmt 0 view .LVU3
  38 0000 4278     		ldrb	r2, [r0, #1]	@ zero_extendqisi2
  39              	.LVL1:
 624:SynaptiX_FDK/services/fatfs/ff.c **** 	rv = rv << 8 | ptr[0];
  40              		.loc 1 624 2 is_stmt 1 view .LVU4
  41              		.loc 1 624 20 is_stmt 0 view .LVU5
  42 0002 0078     		ldrb	r0, [r0]	@ zero_extendqisi2
  43              	.LVL2:
 625:SynaptiX_FDK/services/fatfs/ff.c **** 	return rv;
  44              		.loc 1 625 2 is_stmt 1 view .LVU6
 626:SynaptiX_FDK/services/fatfs/ff.c **** }
  45              		.loc 1 626 1 is_stmt 0 view .LVU7
  46 0004 40EA0220 		orr	r0, r0, r2, lsl #8
  47              	.LVL3:
  48              		.loc 1 626 1 view .LVU8
  49 0008 7047     		bx	lr
  50              		.cfi_endproc
  51              	.LFE0:
  53              		.section	.text.ld_32,"ax",%progbits
  54              		.align	1
  55              		.syntax unified
  56              		.thumb
  57              		.thumb_func
  59              	ld_32:
  60              	.LVL4:
  61              	.LFB1:
ARM GAS  C:\Users\DELL\AppData\Local\Temp\ccO3UVpA.s 			page 13


 627:SynaptiX_FDK/services/fatfs/ff.c **** 
 628:SynaptiX_FDK/services/fatfs/ff.c **** static DWORD ld_32 (const BYTE* ptr)	/* Load a 4-byte little-endian word */
 629:SynaptiX_FDK/services/fatfs/ff.c **** {
  62              		.loc 1 629 1 is_stmt 1 view -0
  63              		.cfi_startproc
  64              		@ args = 0, pretend = 0, frame = 0
  65              		@ frame_needed = 0, uses_anonymous_args = 0
  66              		@ link register save eliminated.
 630:SynaptiX_FDK/services/fatfs/ff.c **** 	DWORD rv;
  67              		.loc 1 630 2 view .LVU10
 631:SynaptiX_FDK/services/fatfs/ff.c **** 
 632:SynaptiX_FDK/services/fatfs/ff.c **** 	rv = ptr[3];
  68              		.loc 1 632 2 view .LVU11
  69              		.loc 1 632 10 is_stmt 0 view .LVU12
  70 0000 C378     		ldrb	r3, [r0, #3]	@ zero_extendqisi2
  71              	.LVL5:
 633:SynaptiX_FDK/services/fatfs/ff.c **** 	rv = rv << 8 | ptr[2];
  72              		.loc 1 633 2 is_stmt 1 view .LVU13
  73              		.loc 1 633 20 is_stmt 0 view .LVU14
  74 0002 8278     		ldrb	r2, [r0, #2]	@ zero_extendqisi2
  75              		.loc 1 633 5 view .LVU15
  76 0004 42EA0322 		orr	r2, r2, r3, lsl #8
  77              	.LVL6:
 634:SynaptiX_FDK/services/fatfs/ff.c **** 	rv = rv << 8 | ptr[1];
  78              		.loc 1 634 2 is_stmt 1 view .LVU16
  79              		.loc 1 634 20 is_stmt 0 view .LVU17
  80 0008 4378     		ldrb	r3, [r0, #1]	@ zero_extendqisi2
  81              		.loc 1 634 5 view .LVU18
  82 000a 43EA0223 		orr	r3, r3, r2, lsl #8
  83              	.LVL7:
 635:SynaptiX_FDK/services/fatfs/ff.c **** 	rv = rv << 8 | ptr[0];
  84              		.loc 1 635 2 is_stmt 1 view .LVU19
  85              		.loc 1 635 20 is_stmt 0 view .LVU20
  86 000e 0078     		ldrb	r0, [r0]	@ zero_extendqisi2
  87              	.LVL8:
 636:SynaptiX_FDK/services/fatfs/ff.c **** 	return rv;
  88              		.loc 1 636 2 is_stmt 1 view .LVU21
 637:SynaptiX_FDK/services/fatfs/ff.c **** }
  89              		.loc 1 637 1 is_stmt 0 view .LVU22
  90 0010 40EA0320 		orr	r0, r0, r3, lsl #8
  91              	.LVL9:
  92              		.loc 1 637 1 view .LVU23
  93 0014 7047     		bx	lr
  94              		.cfi_endproc
  95              	.LFE1:
  97              		.section	.text.st_16,"ax",%progbits
  98              		.align	1
  99              		.syntax unified
 100              		.thumb
 101              		.thumb_func
 103              	st_16:
 104              	.LVL10:
 105              	.LFB2:
 638:SynaptiX_FDK/services/fatfs/ff.c **** 
 639:SynaptiX_FDK/services/fatfs/ff.c **** #if FF_FS_EXFAT
 640:SynaptiX_FDK/services/fatfs/ff.c **** static QWORD ld_64 (const BYTE* ptr)	/* Load an 8-byte little-endian word */
 641:SynaptiX_FDK/services/fatfs/ff.c **** {
ARM GAS  C:\Users\DELL\AppData\Local\Temp\ccO3UVpA.s 			page 14


 642:SynaptiX_FDK/services/fatfs/ff.c **** 	QWORD rv;
 643:SynaptiX_FDK/services/fatfs/ff.c **** 
 644:SynaptiX_FDK/services/fatfs/ff.c **** 	rv = ptr[7];
 645:SynaptiX_FDK/services/fatfs/ff.c **** 	rv = rv << 8 | ptr[6];
 646:SynaptiX_FDK/services/fatfs/ff.c **** 	rv = rv << 8 | ptr[5];
 647:SynaptiX_FDK/services/fatfs/ff.c **** 	rv = rv << 8 | ptr[4];
 648:SynaptiX_FDK/services/fatfs/ff.c **** 	rv = rv << 8 | ptr[3];
 649:SynaptiX_FDK/services/fatfs/ff.c **** 	rv = rv << 8 | ptr[2];
 650:SynaptiX_FDK/services/fatfs/ff.c **** 	rv = rv << 8 | ptr[1];
 651:SynaptiX_FDK/services/fatfs/ff.c **** 	rv = rv << 8 | ptr[0];
 652:SynaptiX_FDK/services/fatfs/ff.c **** 	return rv;
 653:SynaptiX_FDK/services/fatfs/ff.c **** }
 654:SynaptiX_FDK/services/fatfs/ff.c **** #endif
 655:SynaptiX_FDK/services/fatfs/ff.c **** 
 656:SynaptiX_FDK/services/fatfs/ff.c **** #if !FF_FS_READONLY
 657:SynaptiX_FDK/services/fatfs/ff.c **** static void st_16 (BYTE* ptr, WORD val)	/* Store a 2-byte word in little-endian */
 658:SynaptiX_FDK/services/fatfs/ff.c **** {
 106              		.loc 1 658 1 is_stmt 1 view -0
 107              		.cfi_startproc
 108              		@ args = 0, pretend = 0, frame = 0
 109              		@ frame_needed = 0, uses_anonymous_args = 0
 110              		@ link register save eliminated.
 659:SynaptiX_FDK/services/fatfs/ff.c **** 	*ptr++ = (BYTE)val; val >>= 8;
 111              		.loc 1 659 2 view .LVU25
 112              		.loc 1 659 9 is_stmt 0 view .LVU26
 113 0000 0170     		strb	r1, [r0]
 114              		.loc 1 659 22 is_stmt 1 view .LVU27
 115              	.LVL11:
 660:SynaptiX_FDK/services/fatfs/ff.c **** 	*ptr++ = (BYTE)val;
 116              		.loc 1 660 2 view .LVU28
 117              		.loc 1 660 11 is_stmt 0 view .LVU29
 118 0002 090A     		lsrs	r1, r1, #8
 119              		.loc 1 660 9 view .LVU30
 120 0004 4170     		strb	r1, [r0, #1]
 661:SynaptiX_FDK/services/fatfs/ff.c **** }
 121              		.loc 1 661 1 view .LVU31
 122 0006 7047     		bx	lr
 123              		.cfi_endproc
 124              	.LFE2:
 126              		.section	.text.st_32,"ax",%progbits
 127              		.align	1
 128              		.syntax unified
 129              		.thumb
 130              		.thumb_func
 132              	st_32:
 133              	.LVL12:
 134              	.LFB3:
 662:SynaptiX_FDK/services/fatfs/ff.c **** 
 663:SynaptiX_FDK/services/fatfs/ff.c **** static void st_32 (BYTE* ptr, DWORD val)	/* Store a 4-byte word in little-endian */
 664:SynaptiX_FDK/services/fatfs/ff.c **** {
 135              		.loc 1 664 1 is_stmt 1 view -0
 136              		.cfi_startproc
 137              		@ args = 0, pretend = 0, frame = 0
 138              		@ frame_needed = 0, uses_anonymous_args = 0
 139              		@ link register save eliminated.
 665:SynaptiX_FDK/services/fatfs/ff.c **** 	*ptr++ = (BYTE)val; val >>= 8;
 140              		.loc 1 665 2 view .LVU33
ARM GAS  C:\Users\DELL\AppData\Local\Temp\ccO3UVpA.s 			page 15


 141              		.loc 1 665 9 is_stmt 0 view .LVU34
 142 0000 0170     		strb	r1, [r0]
 143              		.loc 1 665 22 is_stmt 1 view .LVU35
 144              	.LVL13:
 666:SynaptiX_FDK/services/fatfs/ff.c **** 	*ptr++ = (BYTE)val; val >>= 8;
 145              		.loc 1 666 2 view .LVU36
 146              		.loc 1 666 11 is_stmt 0 view .LVU37
 147 0002 C1F30723 		ubfx	r3, r1, #8, #8
 148              		.loc 1 666 9 view .LVU38
 149 0006 4370     		strb	r3, [r0, #1]
 150              		.loc 1 666 22 is_stmt 1 view .LVU39
 151              	.LVL14:
 667:SynaptiX_FDK/services/fatfs/ff.c **** 	*ptr++ = (BYTE)val; val >>= 8;
 152              		.loc 1 667 2 view .LVU40
 153              		.loc 1 667 11 is_stmt 0 view .LVU41
 154 0008 C1F30743 		ubfx	r3, r1, #16, #8
 155              		.loc 1 667 9 view .LVU42
 156 000c 8370     		strb	r3, [r0, #2]
 157              		.loc 1 667 22 is_stmt 1 view .LVU43
 158              	.LVL15:
 668:SynaptiX_FDK/services/fatfs/ff.c **** 	*ptr++ = (BYTE)val;
 159              		.loc 1 668 2 view .LVU44
 160              		.loc 1 668 11 is_stmt 0 view .LVU45
 161 000e 090E     		lsrs	r1, r1, #24
 162              	.LVL16:
 163              		.loc 1 668 9 view .LVU46
 164 0010 C170     		strb	r1, [r0, #3]
 669:SynaptiX_FDK/services/fatfs/ff.c **** }
 165              		.loc 1 669 1 view .LVU47
 166 0012 7047     		bx	lr
 167              		.cfi_endproc
 168              	.LFE3:
 170              		.section	.text.dbc_1st,"ax",%progbits
 171              		.align	1
 172              		.syntax unified
 173              		.thumb
 174              		.thumb_func
 176              	dbc_1st:
 177              	.LVL17:
 178              	.LFB4:
 670:SynaptiX_FDK/services/fatfs/ff.c **** 
 671:SynaptiX_FDK/services/fatfs/ff.c **** #if FF_FS_EXFAT
 672:SynaptiX_FDK/services/fatfs/ff.c **** static void st_64 (BYTE* ptr, QWORD val)	/* Store an 8-byte word in little-endian */
 673:SynaptiX_FDK/services/fatfs/ff.c **** {
 674:SynaptiX_FDK/services/fatfs/ff.c **** 	*ptr++ = (BYTE)val; val >>= 8;
 675:SynaptiX_FDK/services/fatfs/ff.c **** 	*ptr++ = (BYTE)val; val >>= 8;
 676:SynaptiX_FDK/services/fatfs/ff.c **** 	*ptr++ = (BYTE)val; val >>= 8;
 677:SynaptiX_FDK/services/fatfs/ff.c **** 	*ptr++ = (BYTE)val; val >>= 8;
 678:SynaptiX_FDK/services/fatfs/ff.c **** 	*ptr++ = (BYTE)val; val >>= 8;
 679:SynaptiX_FDK/services/fatfs/ff.c **** 	*ptr++ = (BYTE)val; val >>= 8;
 680:SynaptiX_FDK/services/fatfs/ff.c **** 	*ptr++ = (BYTE)val; val >>= 8;
 681:SynaptiX_FDK/services/fatfs/ff.c **** 	*ptr++ = (BYTE)val;
 682:SynaptiX_FDK/services/fatfs/ff.c **** }
 683:SynaptiX_FDK/services/fatfs/ff.c **** #endif
 684:SynaptiX_FDK/services/fatfs/ff.c **** #endif	/* !FF_FS_READONLY */
 685:SynaptiX_FDK/services/fatfs/ff.c **** 
 686:SynaptiX_FDK/services/fatfs/ff.c **** 
ARM GAS  C:\Users\DELL\AppData\Local\Temp\ccO3UVpA.s 			page 16


 687:SynaptiX_FDK/services/fatfs/ff.c **** 
 688:SynaptiX_FDK/services/fatfs/ff.c **** /*-----------------------------------------------------------------------*/
 689:SynaptiX_FDK/services/fatfs/ff.c **** /* String functions                                                      */
 690:SynaptiX_FDK/services/fatfs/ff.c **** /*-----------------------------------------------------------------------*/
 691:SynaptiX_FDK/services/fatfs/ff.c **** 
 692:SynaptiX_FDK/services/fatfs/ff.c **** /* Test if the byte is DBC 1st byte */
 693:SynaptiX_FDK/services/fatfs/ff.c **** static int dbc_1st (BYTE c)
 694:SynaptiX_FDK/services/fatfs/ff.c **** {
 179              		.loc 1 694 1 is_stmt 1 view -0
 180              		.cfi_startproc
 181              		@ args = 0, pretend = 0, frame = 0
 182              		@ frame_needed = 0, uses_anonymous_args = 0
 183              		@ link register save eliminated.
 695:SynaptiX_FDK/services/fatfs/ff.c **** #if FF_CODE_PAGE == 0		/* Variable code page */
 696:SynaptiX_FDK/services/fatfs/ff.c **** 	if (DbcTbl && c >= DbcTbl[0]) {
 697:SynaptiX_FDK/services/fatfs/ff.c **** 		if (c <= DbcTbl[1]) return 1;					/* 1st byte range 1 */
 698:SynaptiX_FDK/services/fatfs/ff.c **** 		if (c >= DbcTbl[2] && c <= DbcTbl[3]) return 1;	/* 1st byte range 2 */
 699:SynaptiX_FDK/services/fatfs/ff.c **** 	}
 700:SynaptiX_FDK/services/fatfs/ff.c **** #elif FF_CODE_PAGE >= 900	/* DBCS fixed code page */
 701:SynaptiX_FDK/services/fatfs/ff.c **** 	if (c >= DbcTbl[0]) {
 702:SynaptiX_FDK/services/fatfs/ff.c **** 		if (c <= DbcTbl[1]) return 1;
 703:SynaptiX_FDK/services/fatfs/ff.c **** 		if (c >= DbcTbl[2] && c <= DbcTbl[3]) return 1;
 704:SynaptiX_FDK/services/fatfs/ff.c **** 	}
 705:SynaptiX_FDK/services/fatfs/ff.c **** #else						/* SBCS fixed code page */
 706:SynaptiX_FDK/services/fatfs/ff.c **** 	if (c != 0) return 0;	/* Always false */
 184              		.loc 1 706 2 view .LVU49
 185              		.loc 1 706 14 discriminator 1 view .LVU50
 707:SynaptiX_FDK/services/fatfs/ff.c **** #endif
 708:SynaptiX_FDK/services/fatfs/ff.c **** 	return 0;
 709:SynaptiX_FDK/services/fatfs/ff.c **** }
 186              		.loc 1 709 1 is_stmt 0 view .LVU51
 187 0000 0020     		movs	r0, #0
 188              	.LVL18:
 189              		.loc 1 709 1 view .LVU52
 190 0002 7047     		bx	lr
 191              		.cfi_endproc
 192              	.LFE4:
 194              		.section	.text.dbc_2nd,"ax",%progbits
 195              		.align	1
 196              		.syntax unified
 197              		.thumb
 198              		.thumb_func
 200              	dbc_2nd:
 201              	.LVL19:
 202              	.LFB5:
 710:SynaptiX_FDK/services/fatfs/ff.c **** 
 711:SynaptiX_FDK/services/fatfs/ff.c **** 
 712:SynaptiX_FDK/services/fatfs/ff.c **** /* Test if the byte is DBC 2nd byte */
 713:SynaptiX_FDK/services/fatfs/ff.c **** static int dbc_2nd (BYTE c)
 714:SynaptiX_FDK/services/fatfs/ff.c **** {
 203              		.loc 1 714 1 is_stmt 1 view -0
 204              		.cfi_startproc
 205              		@ args = 0, pretend = 0, frame = 0
 206              		@ frame_needed = 0, uses_anonymous_args = 0
 207              		@ link register save eliminated.
 715:SynaptiX_FDK/services/fatfs/ff.c **** #if FF_CODE_PAGE == 0		/* Variable code page */
 716:SynaptiX_FDK/services/fatfs/ff.c **** 	if (DbcTbl && c >= DbcTbl[4]) {
ARM GAS  C:\Users\DELL\AppData\Local\Temp\ccO3UVpA.s 			page 17


 717:SynaptiX_FDK/services/fatfs/ff.c **** 		if (c <= DbcTbl[5]) return 1;					/* 2nd byte range 1 */
 718:SynaptiX_FDK/services/fatfs/ff.c **** 		if (c >= DbcTbl[6] && c <= DbcTbl[7]) return 1;	/* 2nd byte range 2 */
 719:SynaptiX_FDK/services/fatfs/ff.c **** 		if (c >= DbcTbl[8] && c <= DbcTbl[9]) return 1;	/* 2nd byte range 3 */
 720:SynaptiX_FDK/services/fatfs/ff.c **** 	}
 721:SynaptiX_FDK/services/fatfs/ff.c **** #elif FF_CODE_PAGE >= 900	/* DBCS fixed code page */
 722:SynaptiX_FDK/services/fatfs/ff.c **** 	if (c >= DbcTbl[4]) {
 723:SynaptiX_FDK/services/fatfs/ff.c **** 		if (c <= DbcTbl[5]) return 1;
 724:SynaptiX_FDK/services/fatfs/ff.c **** 		if (c >= DbcTbl[6] && c <= DbcTbl[7]) return 1;
 725:SynaptiX_FDK/services/fatfs/ff.c **** 		if (c >= DbcTbl[8] && c <= DbcTbl[9]) return 1;
 726:SynaptiX_FDK/services/fatfs/ff.c **** 	}
 727:SynaptiX_FDK/services/fatfs/ff.c **** #else						/* SBCS fixed code page */
 728:SynaptiX_FDK/services/fatfs/ff.c **** 	if (c != 0) return 0;	/* Always false */
 208              		.loc 1 728 2 view .LVU54
 209              		.loc 1 728 14 discriminator 1 view .LVU55
 729:SynaptiX_FDK/services/fatfs/ff.c **** #endif
 730:SynaptiX_FDK/services/fatfs/ff.c **** 	return 0;
 731:SynaptiX_FDK/services/fatfs/ff.c **** }
 210              		.loc 1 731 1 is_stmt 0 view .LVU56
 211 0000 0020     		movs	r0, #0
 212              	.LVL20:
 213              		.loc 1 731 1 view .LVU57
 214 0002 7047     		bx	lr
 215              		.cfi_endproc
 216              	.LFE5:
 218              		.section	.text.clst2sect,"ax",%progbits
 219              		.align	1
 220              		.syntax unified
 221              		.thumb
 222              		.thumb_func
 224              	clst2sect:
 225              	.LVL21:
 226              	.LFB11:
 732:SynaptiX_FDK/services/fatfs/ff.c **** 
 733:SynaptiX_FDK/services/fatfs/ff.c **** 
 734:SynaptiX_FDK/services/fatfs/ff.c **** #if FF_USE_LFN
 735:SynaptiX_FDK/services/fatfs/ff.c **** 
 736:SynaptiX_FDK/services/fatfs/ff.c **** /* Get a Unicode code point from the TCHAR string in defined API encodeing */
 737:SynaptiX_FDK/services/fatfs/ff.c **** static DWORD tchar2uni (	/* Returns a character in UTF-16 encoding (>=0x10000 on surrogate pair, 0x
 738:SynaptiX_FDK/services/fatfs/ff.c **** 	const TCHAR** str		/* Pointer to pointer to TCHAR string in configured encoding */
 739:SynaptiX_FDK/services/fatfs/ff.c **** )
 740:SynaptiX_FDK/services/fatfs/ff.c **** {
 741:SynaptiX_FDK/services/fatfs/ff.c **** 	DWORD uc;
 742:SynaptiX_FDK/services/fatfs/ff.c **** 	const TCHAR *p = *str;
 743:SynaptiX_FDK/services/fatfs/ff.c **** 
 744:SynaptiX_FDK/services/fatfs/ff.c **** #if FF_LFN_UNICODE == 1		/* UTF-16 input */
 745:SynaptiX_FDK/services/fatfs/ff.c **** 	WCHAR wc;
 746:SynaptiX_FDK/services/fatfs/ff.c **** 
 747:SynaptiX_FDK/services/fatfs/ff.c **** 	uc = *p++;	/* Get an encoding unit */
 748:SynaptiX_FDK/services/fatfs/ff.c **** 	if (IsSurrogate(uc)) {	/* Surrogate? */
 749:SynaptiX_FDK/services/fatfs/ff.c **** 		wc = *p++;		/* Get low surrogate */
 750:SynaptiX_FDK/services/fatfs/ff.c **** 		if (!IsSurrogateH(uc) || !IsSurrogateL(wc)) return 0xFFFFFFFF;	/* Wrong surrogate? */
 751:SynaptiX_FDK/services/fatfs/ff.c **** 		uc = uc << 16 | wc;
 752:SynaptiX_FDK/services/fatfs/ff.c **** 	}
 753:SynaptiX_FDK/services/fatfs/ff.c **** 
 754:SynaptiX_FDK/services/fatfs/ff.c **** #elif FF_LFN_UNICODE == 2	/* UTF-8 input */
 755:SynaptiX_FDK/services/fatfs/ff.c **** 	BYTE tb;
 756:SynaptiX_FDK/services/fatfs/ff.c **** 	int nf;
ARM GAS  C:\Users\DELL\AppData\Local\Temp\ccO3UVpA.s 			page 18


 757:SynaptiX_FDK/services/fatfs/ff.c **** 
 758:SynaptiX_FDK/services/fatfs/ff.c **** 	uc = (BYTE)*p++;	/* Get an encoding unit */
 759:SynaptiX_FDK/services/fatfs/ff.c **** 	if (uc & 0x80) {	/* Multiple byte code? */
 760:SynaptiX_FDK/services/fatfs/ff.c **** 		if        ((uc & 0xE0) == 0xC0) {	/* 2-byte sequence? */
 761:SynaptiX_FDK/services/fatfs/ff.c **** 			uc &= 0x1F; nf = 1;
 762:SynaptiX_FDK/services/fatfs/ff.c **** 		} else if ((uc & 0xF0) == 0xE0) {	/* 3-byte sequence? */
 763:SynaptiX_FDK/services/fatfs/ff.c **** 			uc &= 0x0F; nf = 2;
 764:SynaptiX_FDK/services/fatfs/ff.c **** 		} else if ((uc & 0xF8) == 0xF0) {	/* 4-byte sequence? */
 765:SynaptiX_FDK/services/fatfs/ff.c **** 			uc &= 0x07; nf = 3;
 766:SynaptiX_FDK/services/fatfs/ff.c **** 		} else {							/* Wrong sequence */
 767:SynaptiX_FDK/services/fatfs/ff.c **** 			return 0xFFFFFFFF;
 768:SynaptiX_FDK/services/fatfs/ff.c **** 		}
 769:SynaptiX_FDK/services/fatfs/ff.c **** 		do {	/* Get and merge trailing bytes */
 770:SynaptiX_FDK/services/fatfs/ff.c **** 			tb = (BYTE)*p++;
 771:SynaptiX_FDK/services/fatfs/ff.c **** 			if ((tb & 0xC0) != 0x80) return 0xFFFFFFFF;	/* Wrong sequence? */
 772:SynaptiX_FDK/services/fatfs/ff.c **** 			uc = uc << 6 | (tb & 0x3F);
 773:SynaptiX_FDK/services/fatfs/ff.c **** 		} while (--nf != 0);
 774:SynaptiX_FDK/services/fatfs/ff.c **** 		if (uc < 0x80 || IsSurrogate(uc) || uc >= 0x110000) return 0xFFFFFFFF;	/* Wrong code? */
 775:SynaptiX_FDK/services/fatfs/ff.c **** 		if (uc >= 0x010000) uc = 0xD800DC00 | ((uc - 0x10000) << 6 & 0x3FF0000) | (uc & 0x3FF);	/* Make a
 776:SynaptiX_FDK/services/fatfs/ff.c **** 	}
 777:SynaptiX_FDK/services/fatfs/ff.c **** 
 778:SynaptiX_FDK/services/fatfs/ff.c **** #elif FF_LFN_UNICODE == 3	/* UTF-32 input */
 779:SynaptiX_FDK/services/fatfs/ff.c **** 	uc = (TCHAR)*p++;	/* Get a unit */
 780:SynaptiX_FDK/services/fatfs/ff.c **** 	if (uc >= 0x110000 || IsSurrogate(uc)) return 0xFFFFFFFF;	/* Wrong code? */
 781:SynaptiX_FDK/services/fatfs/ff.c **** 	if (uc >= 0x010000) uc = 0xD800DC00 | ((uc - 0x10000) << 6 & 0x3FF0000) | (uc & 0x3FF);	/* Make a 
 782:SynaptiX_FDK/services/fatfs/ff.c **** 
 783:SynaptiX_FDK/services/fatfs/ff.c **** #else		/* ANSI/OEM input */
 784:SynaptiX_FDK/services/fatfs/ff.c **** 	BYTE sb;
 785:SynaptiX_FDK/services/fatfs/ff.c **** 	WCHAR wc;
 786:SynaptiX_FDK/services/fatfs/ff.c **** 
 787:SynaptiX_FDK/services/fatfs/ff.c **** 	wc = (BYTE)*p++;			/* Get a byte */
 788:SynaptiX_FDK/services/fatfs/ff.c **** 	if (dbc_1st((BYTE)wc)) {	/* Is it a DBC 1st byte? */
 789:SynaptiX_FDK/services/fatfs/ff.c **** 		sb = (BYTE)*p++;		/* Get 2nd byte */
 790:SynaptiX_FDK/services/fatfs/ff.c **** 		if (!dbc_2nd(sb)) return 0xFFFFFFFF;	/* Invalid code? */
 791:SynaptiX_FDK/services/fatfs/ff.c **** 		wc = (wc << 8) + sb;	/* Make a DBC */
 792:SynaptiX_FDK/services/fatfs/ff.c **** 	}
 793:SynaptiX_FDK/services/fatfs/ff.c **** 	if (wc != 0) {
 794:SynaptiX_FDK/services/fatfs/ff.c **** 		wc = ff_oem2uni(wc, CODEPAGE);	/* ANSI/OEM ==> Unicode */
 795:SynaptiX_FDK/services/fatfs/ff.c **** 		if (wc == 0) return 0xFFFFFFFF;	/* Invalid code? */
 796:SynaptiX_FDK/services/fatfs/ff.c **** 	}
 797:SynaptiX_FDK/services/fatfs/ff.c **** 	uc = wc;
 798:SynaptiX_FDK/services/fatfs/ff.c **** 
 799:SynaptiX_FDK/services/fatfs/ff.c **** #endif
 800:SynaptiX_FDK/services/fatfs/ff.c **** 	*str = p;	/* Next read pointer */
 801:SynaptiX_FDK/services/fatfs/ff.c **** 	return uc;
 802:SynaptiX_FDK/services/fatfs/ff.c **** }
 803:SynaptiX_FDK/services/fatfs/ff.c **** 
 804:SynaptiX_FDK/services/fatfs/ff.c **** 
 805:SynaptiX_FDK/services/fatfs/ff.c **** /* Store a Unicode char in defined API encoding */
 806:SynaptiX_FDK/services/fatfs/ff.c **** static UINT put_utf (	/* Returns number of encoding units written (0:buffer overflow or wrong encod
 807:SynaptiX_FDK/services/fatfs/ff.c **** 	DWORD chr,	/* UTF-16 encoded character (Surrogate pair if >=0x10000) */
 808:SynaptiX_FDK/services/fatfs/ff.c **** 	TCHAR* buf,	/* Output buffer */
 809:SynaptiX_FDK/services/fatfs/ff.c **** 	UINT szb	/* Size of the buffer */
 810:SynaptiX_FDK/services/fatfs/ff.c **** )
 811:SynaptiX_FDK/services/fatfs/ff.c **** {
 812:SynaptiX_FDK/services/fatfs/ff.c **** #if FF_LFN_UNICODE == 1	/* UTF-16 output */
 813:SynaptiX_FDK/services/fatfs/ff.c **** 	WCHAR hs, wc;
ARM GAS  C:\Users\DELL\AppData\Local\Temp\ccO3UVpA.s 			page 19


 814:SynaptiX_FDK/services/fatfs/ff.c **** 
 815:SynaptiX_FDK/services/fatfs/ff.c **** 	hs = (WCHAR)(chr >> 16);
 816:SynaptiX_FDK/services/fatfs/ff.c **** 	wc = (WCHAR)chr;
 817:SynaptiX_FDK/services/fatfs/ff.c **** 	if (hs == 0) {	/* Single encoding unit? */
 818:SynaptiX_FDK/services/fatfs/ff.c **** 		if (szb < 1 || IsSurrogate(wc)) return 0;	/* Buffer overflow or wrong code? */
 819:SynaptiX_FDK/services/fatfs/ff.c **** 		*buf = wc;
 820:SynaptiX_FDK/services/fatfs/ff.c **** 		return 1;
 821:SynaptiX_FDK/services/fatfs/ff.c **** 	}
 822:SynaptiX_FDK/services/fatfs/ff.c **** 	if (szb < 2 || !IsSurrogateH(hs) || !IsSurrogateL(wc)) return 0;	/* Buffer overflow or wrong surro
 823:SynaptiX_FDK/services/fatfs/ff.c **** 	*buf++ = hs;
 824:SynaptiX_FDK/services/fatfs/ff.c **** 	*buf++ = wc;
 825:SynaptiX_FDK/services/fatfs/ff.c **** 	return 2;
 826:SynaptiX_FDK/services/fatfs/ff.c **** 
 827:SynaptiX_FDK/services/fatfs/ff.c **** #elif FF_LFN_UNICODE == 2	/* UTF-8 output */
 828:SynaptiX_FDK/services/fatfs/ff.c **** 	DWORD hc;
 829:SynaptiX_FDK/services/fatfs/ff.c **** 
 830:SynaptiX_FDK/services/fatfs/ff.c **** 	if (chr < 0x80) {	/* Single byte code? */
 831:SynaptiX_FDK/services/fatfs/ff.c **** 		if (szb < 1) return 0;	/* Buffer overflow? */
 832:SynaptiX_FDK/services/fatfs/ff.c **** 		*buf = (TCHAR)chr;
 833:SynaptiX_FDK/services/fatfs/ff.c **** 		return 1;
 834:SynaptiX_FDK/services/fatfs/ff.c **** 	}
 835:SynaptiX_FDK/services/fatfs/ff.c **** 	if (chr < 0x800) {	/* 2-byte sequence? */
 836:SynaptiX_FDK/services/fatfs/ff.c **** 		if (szb < 2) return 0;	/* Buffer overflow? */
 837:SynaptiX_FDK/services/fatfs/ff.c **** 		*buf++ = (TCHAR)(0xC0 | (chr >> 6 & 0x1F));
 838:SynaptiX_FDK/services/fatfs/ff.c **** 		*buf++ = (TCHAR)(0x80 | (chr >> 0 & 0x3F));
 839:SynaptiX_FDK/services/fatfs/ff.c **** 		return 2;
 840:SynaptiX_FDK/services/fatfs/ff.c **** 	}
 841:SynaptiX_FDK/services/fatfs/ff.c **** 	if (chr < 0x10000) {	/* 3-byte sequence? */
 842:SynaptiX_FDK/services/fatfs/ff.c **** 		if (szb < 3 || IsSurrogate(chr)) return 0;	/* Buffer overflow or wrong code? */
 843:SynaptiX_FDK/services/fatfs/ff.c **** 		*buf++ = (TCHAR)(0xE0 | (chr >> 12 & 0x0F));
 844:SynaptiX_FDK/services/fatfs/ff.c **** 		*buf++ = (TCHAR)(0x80 | (chr >> 6 & 0x3F));
 845:SynaptiX_FDK/services/fatfs/ff.c **** 		*buf++ = (TCHAR)(0x80 | (chr >> 0 & 0x3F));
 846:SynaptiX_FDK/services/fatfs/ff.c **** 		return 3;
 847:SynaptiX_FDK/services/fatfs/ff.c **** 	}
 848:SynaptiX_FDK/services/fatfs/ff.c **** 	/* 4-byte sequence */
 849:SynaptiX_FDK/services/fatfs/ff.c **** 	if (szb < 4) return 0;	/* Buffer overflow? */
 850:SynaptiX_FDK/services/fatfs/ff.c **** 	hc = ((chr & 0xFFFF0000) - 0xD8000000) >> 6;	/* Get high 10 bits */
 851:SynaptiX_FDK/services/fatfs/ff.c **** 	chr = (chr & 0xFFFF) - 0xDC00;					/* Get low 10 bits */
 852:SynaptiX_FDK/services/fatfs/ff.c **** 	if (hc >= 0x100000 || chr >= 0x400) return 0;	/* Wrong surrogate? */
 853:SynaptiX_FDK/services/fatfs/ff.c **** 	chr = (hc | chr) + 0x10000;
 854:SynaptiX_FDK/services/fatfs/ff.c **** 	*buf++ = (TCHAR)(0xF0 | (chr >> 18 & 0x07));
 855:SynaptiX_FDK/services/fatfs/ff.c **** 	*buf++ = (TCHAR)(0x80 | (chr >> 12 & 0x3F));
 856:SynaptiX_FDK/services/fatfs/ff.c **** 	*buf++ = (TCHAR)(0x80 | (chr >> 6 & 0x3F));
 857:SynaptiX_FDK/services/fatfs/ff.c **** 	*buf++ = (TCHAR)(0x80 | (chr >> 0 & 0x3F));
 858:SynaptiX_FDK/services/fatfs/ff.c **** 	return 4;
 859:SynaptiX_FDK/services/fatfs/ff.c **** 
 860:SynaptiX_FDK/services/fatfs/ff.c **** #elif FF_LFN_UNICODE == 3	/* UTF-32 output */
 861:SynaptiX_FDK/services/fatfs/ff.c **** 	DWORD hc;
 862:SynaptiX_FDK/services/fatfs/ff.c **** 
 863:SynaptiX_FDK/services/fatfs/ff.c **** 	if (szb < 1) return 0;	/* Buffer overflow? */
 864:SynaptiX_FDK/services/fatfs/ff.c **** 	if (chr >= 0x10000) {	/* Out of BMP? */
 865:SynaptiX_FDK/services/fatfs/ff.c **** 		hc = ((chr & 0xFFFF0000) - 0xD8000000) >> 6;	/* Get high 10 bits */
 866:SynaptiX_FDK/services/fatfs/ff.c **** 		chr = (chr & 0xFFFF) - 0xDC00;					/* Get low 10 bits */
 867:SynaptiX_FDK/services/fatfs/ff.c **** 		if (hc >= 0x100000 || chr >= 0x400) return 0;	/* Wrong surrogate? */
 868:SynaptiX_FDK/services/fatfs/ff.c **** 		chr = (hc | chr) + 0x10000;
 869:SynaptiX_FDK/services/fatfs/ff.c **** 	}
 870:SynaptiX_FDK/services/fatfs/ff.c **** 	*buf++ = (TCHAR)chr;
ARM GAS  C:\Users\DELL\AppData\Local\Temp\ccO3UVpA.s 			page 20


 871:SynaptiX_FDK/services/fatfs/ff.c **** 	return 1;
 872:SynaptiX_FDK/services/fatfs/ff.c **** 
 873:SynaptiX_FDK/services/fatfs/ff.c **** #else						/* ANSI/OEM output */
 874:SynaptiX_FDK/services/fatfs/ff.c **** 	WCHAR wc;
 875:SynaptiX_FDK/services/fatfs/ff.c **** 
 876:SynaptiX_FDK/services/fatfs/ff.c **** 	wc = ff_uni2oem(chr, CODEPAGE);
 877:SynaptiX_FDK/services/fatfs/ff.c **** 	if (wc >= 0x100) {	/* Is this a DBC? */
 878:SynaptiX_FDK/services/fatfs/ff.c **** 		if (szb < 2) return 0;
 879:SynaptiX_FDK/services/fatfs/ff.c **** 		*buf++ = (char)(wc >> 8);	/* Store DBC 1st byte */
 880:SynaptiX_FDK/services/fatfs/ff.c **** 		*buf++ = (TCHAR)wc;			/* Store DBC 2nd byte */
 881:SynaptiX_FDK/services/fatfs/ff.c **** 		return 2;
 882:SynaptiX_FDK/services/fatfs/ff.c **** 	}
 883:SynaptiX_FDK/services/fatfs/ff.c **** 	if (wc == 0 || szb < 1) return 0;	/* Invalid character or buffer overflow? */
 884:SynaptiX_FDK/services/fatfs/ff.c **** 	*buf++ = (TCHAR)wc;					/* Store the character */
 885:SynaptiX_FDK/services/fatfs/ff.c **** 	return 1;
 886:SynaptiX_FDK/services/fatfs/ff.c **** #endif
 887:SynaptiX_FDK/services/fatfs/ff.c **** }
 888:SynaptiX_FDK/services/fatfs/ff.c **** #endif	/* FF_USE_LFN */
 889:SynaptiX_FDK/services/fatfs/ff.c **** 
 890:SynaptiX_FDK/services/fatfs/ff.c **** 
 891:SynaptiX_FDK/services/fatfs/ff.c **** #if FF_FS_REENTRANT
 892:SynaptiX_FDK/services/fatfs/ff.c **** /*-----------------------------------------------------------------------*/
 893:SynaptiX_FDK/services/fatfs/ff.c **** /* Request/Release grant to access the volume                            */
 894:SynaptiX_FDK/services/fatfs/ff.c **** /*-----------------------------------------------------------------------*/
 895:SynaptiX_FDK/services/fatfs/ff.c **** 
 896:SynaptiX_FDK/services/fatfs/ff.c **** static int lock_volume (	/* 1:Ok, 0:timeout */
 897:SynaptiX_FDK/services/fatfs/ff.c **** 	FATFS* fs,				/* Filesystem object to lock */
 898:SynaptiX_FDK/services/fatfs/ff.c **** 	int syslock				/* System lock required */
 899:SynaptiX_FDK/services/fatfs/ff.c **** )
 900:SynaptiX_FDK/services/fatfs/ff.c **** {
 901:SynaptiX_FDK/services/fatfs/ff.c **** 	int rv;
 902:SynaptiX_FDK/services/fatfs/ff.c **** 
 903:SynaptiX_FDK/services/fatfs/ff.c **** 
 904:SynaptiX_FDK/services/fatfs/ff.c **** #if FF_FS_LOCK
 905:SynaptiX_FDK/services/fatfs/ff.c **** 	rv = ff_mutex_take(fs->ldrv);	/* Lock the volume */
 906:SynaptiX_FDK/services/fatfs/ff.c **** 	if (rv && syslock) {			/* System lock reqiered? */
 907:SynaptiX_FDK/services/fatfs/ff.c **** 		rv = ff_mutex_take(FF_VOLUMES);	/* Lock the system */
 908:SynaptiX_FDK/services/fatfs/ff.c **** 		if (rv) {
 909:SynaptiX_FDK/services/fatfs/ff.c **** 			SysLockVolume = fs->ldrv;
 910:SynaptiX_FDK/services/fatfs/ff.c **** 			SysLock = 2;				/* System lock succeeded */
 911:SynaptiX_FDK/services/fatfs/ff.c **** 		} else {
 912:SynaptiX_FDK/services/fatfs/ff.c **** 			ff_mutex_give(fs->ldrv);	/* Failed system lock */
 913:SynaptiX_FDK/services/fatfs/ff.c **** 		}
 914:SynaptiX_FDK/services/fatfs/ff.c **** 	}
 915:SynaptiX_FDK/services/fatfs/ff.c **** #else
 916:SynaptiX_FDK/services/fatfs/ff.c **** 	rv = syslock ? ff_mutex_take(fs->ldrv) : ff_mutex_take(fs->ldrv);	/* Lock the volume (this is to p
 917:SynaptiX_FDK/services/fatfs/ff.c **** #endif
 918:SynaptiX_FDK/services/fatfs/ff.c **** 	return rv;
 919:SynaptiX_FDK/services/fatfs/ff.c **** }
 920:SynaptiX_FDK/services/fatfs/ff.c **** 
 921:SynaptiX_FDK/services/fatfs/ff.c **** 
 922:SynaptiX_FDK/services/fatfs/ff.c **** static void unlock_volume (
 923:SynaptiX_FDK/services/fatfs/ff.c **** 	FATFS* fs,		/* Filesystem object */
 924:SynaptiX_FDK/services/fatfs/ff.c **** 	FRESULT res		/* Result code to be returned */
 925:SynaptiX_FDK/services/fatfs/ff.c **** )
 926:SynaptiX_FDK/services/fatfs/ff.c **** {
 927:SynaptiX_FDK/services/fatfs/ff.c **** 	if (fs && res != FR_NOT_ENABLED && res != FR_INVALID_DRIVE && res != FR_TIMEOUT) {
ARM GAS  C:\Users\DELL\AppData\Local\Temp\ccO3UVpA.s 			page 21


 928:SynaptiX_FDK/services/fatfs/ff.c **** #if FF_FS_LOCK
 929:SynaptiX_FDK/services/fatfs/ff.c **** 		if (SysLock == 2 && SysLockVolume == fs->ldrv) {	/* Unlock system if it has been locked by this t
 930:SynaptiX_FDK/services/fatfs/ff.c **** 			SysLock = 1;
 931:SynaptiX_FDK/services/fatfs/ff.c **** 			ff_mutex_give(FF_VOLUMES);
 932:SynaptiX_FDK/services/fatfs/ff.c **** 		}
 933:SynaptiX_FDK/services/fatfs/ff.c **** #endif
 934:SynaptiX_FDK/services/fatfs/ff.c **** 		ff_mutex_give(fs->ldrv);	/* Unlock the volume */
 935:SynaptiX_FDK/services/fatfs/ff.c **** 	}
 936:SynaptiX_FDK/services/fatfs/ff.c **** }
 937:SynaptiX_FDK/services/fatfs/ff.c **** 
 938:SynaptiX_FDK/services/fatfs/ff.c **** #endif
 939:SynaptiX_FDK/services/fatfs/ff.c **** 
 940:SynaptiX_FDK/services/fatfs/ff.c **** 
 941:SynaptiX_FDK/services/fatfs/ff.c **** 
 942:SynaptiX_FDK/services/fatfs/ff.c **** #if FF_FS_LOCK
 943:SynaptiX_FDK/services/fatfs/ff.c **** /*-----------------------------------------------------------------------*/
 944:SynaptiX_FDK/services/fatfs/ff.c **** /* File sharing control functions                                       */
 945:SynaptiX_FDK/services/fatfs/ff.c **** /*-----------------------------------------------------------------------*/
 946:SynaptiX_FDK/services/fatfs/ff.c **** 
 947:SynaptiX_FDK/services/fatfs/ff.c **** static FRESULT chk_share (	/* Check if the file can be accessed */
 948:SynaptiX_FDK/services/fatfs/ff.c **** 	DIR* dp,		/* Directory object pointing the file to be checked */
 949:SynaptiX_FDK/services/fatfs/ff.c **** 	int acc			/* Desired access type (0:Read mode open, 1:Write mode open, 2:Delete or rename) */
 950:SynaptiX_FDK/services/fatfs/ff.c **** )
 951:SynaptiX_FDK/services/fatfs/ff.c **** {
 952:SynaptiX_FDK/services/fatfs/ff.c **** 	UINT i, be;
 953:SynaptiX_FDK/services/fatfs/ff.c **** 
 954:SynaptiX_FDK/services/fatfs/ff.c **** 	/* Search open object table for the object */
 955:SynaptiX_FDK/services/fatfs/ff.c **** 	be = 0;
 956:SynaptiX_FDK/services/fatfs/ff.c **** 	for (i = 0; i < FF_FS_LOCK; i++) {
 957:SynaptiX_FDK/services/fatfs/ff.c **** 		if (Files[i].fs) {	/* Existing entry */
 958:SynaptiX_FDK/services/fatfs/ff.c **** 			if (Files[i].fs == dp->obj.fs &&	 	/* Check if the object matches with an open object */
 959:SynaptiX_FDK/services/fatfs/ff.c **** 				Files[i].clu == dp->obj.sclust &&
 960:SynaptiX_FDK/services/fatfs/ff.c **** 				Files[i].ofs == dp->dptr) break;
 961:SynaptiX_FDK/services/fatfs/ff.c **** 		} else {			/* Blank entry */
 962:SynaptiX_FDK/services/fatfs/ff.c **** 			be = 1;
 963:SynaptiX_FDK/services/fatfs/ff.c **** 		}
 964:SynaptiX_FDK/services/fatfs/ff.c **** 	}
 965:SynaptiX_FDK/services/fatfs/ff.c **** 	if (i == FF_FS_LOCK) {	/* The object has not been opened */
 966:SynaptiX_FDK/services/fatfs/ff.c **** 		return (!be && acc != 2) ? FR_TOO_MANY_OPEN_FILES : FR_OK;	/* Is there a blank entry for new obje
 967:SynaptiX_FDK/services/fatfs/ff.c **** 	}
 968:SynaptiX_FDK/services/fatfs/ff.c **** 
 969:SynaptiX_FDK/services/fatfs/ff.c **** 	/* The object was opened. Reject any open against writing file and all write mode open */
 970:SynaptiX_FDK/services/fatfs/ff.c **** 	return (acc != 0 || Files[i].ctr == 0x100) ? FR_LOCKED : FR_OK;
 971:SynaptiX_FDK/services/fatfs/ff.c **** }
 972:SynaptiX_FDK/services/fatfs/ff.c **** 
 973:SynaptiX_FDK/services/fatfs/ff.c **** 
 974:SynaptiX_FDK/services/fatfs/ff.c **** static int enq_share (void)	/* Check if an entry is available for a new object */
 975:SynaptiX_FDK/services/fatfs/ff.c **** {
 976:SynaptiX_FDK/services/fatfs/ff.c **** 	UINT i;
 977:SynaptiX_FDK/services/fatfs/ff.c **** 
 978:SynaptiX_FDK/services/fatfs/ff.c **** 	for (i = 0; i < FF_FS_LOCK && Files[i].fs; i++) ;	/* Find a free entry */
 979:SynaptiX_FDK/services/fatfs/ff.c **** 	return (i == FF_FS_LOCK) ? 0 : 1;
 980:SynaptiX_FDK/services/fatfs/ff.c **** }
 981:SynaptiX_FDK/services/fatfs/ff.c **** 
 982:SynaptiX_FDK/services/fatfs/ff.c **** 
 983:SynaptiX_FDK/services/fatfs/ff.c **** static UINT inc_share (	/* Increment object open counter and returns its index (0:Internal error) *
 984:SynaptiX_FDK/services/fatfs/ff.c **** 	DIR* dp,	/* Directory object pointing the file to register or increment */
ARM GAS  C:\Users\DELL\AppData\Local\Temp\ccO3UVpA.s 			page 22


 985:SynaptiX_FDK/services/fatfs/ff.c **** 	int acc		/* Desired access (0:Read, 1:Write, 2:Delete/Rename) */
 986:SynaptiX_FDK/services/fatfs/ff.c **** )
 987:SynaptiX_FDK/services/fatfs/ff.c **** {
 988:SynaptiX_FDK/services/fatfs/ff.c **** 	UINT i;
 989:SynaptiX_FDK/services/fatfs/ff.c **** 
 990:SynaptiX_FDK/services/fatfs/ff.c **** 
 991:SynaptiX_FDK/services/fatfs/ff.c **** 	for (i = 0; i < FF_FS_LOCK; i++) {	/* Find the object */
 992:SynaptiX_FDK/services/fatfs/ff.c **** 		if (Files[i].fs == dp->obj.fs
 993:SynaptiX_FDK/services/fatfs/ff.c **** 		 && Files[i].clu == dp->obj.sclust
 994:SynaptiX_FDK/services/fatfs/ff.c **** 		 && Files[i].ofs == dp->dptr) break;
 995:SynaptiX_FDK/services/fatfs/ff.c **** 	}
 996:SynaptiX_FDK/services/fatfs/ff.c **** 
 997:SynaptiX_FDK/services/fatfs/ff.c **** 	if (i == FF_FS_LOCK) {			/* Not opened. Register it as new. */
 998:SynaptiX_FDK/services/fatfs/ff.c **** 		for (i = 0; i < FF_FS_LOCK && Files[i].fs; i++) ;	/* Find a free entry */
 999:SynaptiX_FDK/services/fatfs/ff.c **** 		if (i == FF_FS_LOCK) return 0;	/* No free entry to register (int err) */
1000:SynaptiX_FDK/services/fatfs/ff.c **** 		Files[i].fs = dp->obj.fs;
1001:SynaptiX_FDK/services/fatfs/ff.c **** 		Files[i].clu = dp->obj.sclust;
1002:SynaptiX_FDK/services/fatfs/ff.c **** 		Files[i].ofs = dp->dptr;
1003:SynaptiX_FDK/services/fatfs/ff.c **** 		Files[i].ctr = 0;
1004:SynaptiX_FDK/services/fatfs/ff.c **** 	}
1005:SynaptiX_FDK/services/fatfs/ff.c **** 
1006:SynaptiX_FDK/services/fatfs/ff.c **** 	if (acc >= 1 && Files[i].ctr) return 0;	/* Access violation (int err) */
1007:SynaptiX_FDK/services/fatfs/ff.c **** 
1008:SynaptiX_FDK/services/fatfs/ff.c **** 	Files[i].ctr = acc ? 0x100 : Files[i].ctr + 1;	/* Set semaphore value */
1009:SynaptiX_FDK/services/fatfs/ff.c **** 
1010:SynaptiX_FDK/services/fatfs/ff.c **** 	return i + 1;	/* Index number origin from 1 */
1011:SynaptiX_FDK/services/fatfs/ff.c **** }
1012:SynaptiX_FDK/services/fatfs/ff.c **** 
1013:SynaptiX_FDK/services/fatfs/ff.c **** 
1014:SynaptiX_FDK/services/fatfs/ff.c **** static FRESULT dec_share (	/* Decrement object open counter */
1015:SynaptiX_FDK/services/fatfs/ff.c **** 	UINT i			/* Semaphore index (1..) */
1016:SynaptiX_FDK/services/fatfs/ff.c **** )
1017:SynaptiX_FDK/services/fatfs/ff.c **** {
1018:SynaptiX_FDK/services/fatfs/ff.c **** 	UINT n;
1019:SynaptiX_FDK/services/fatfs/ff.c **** 	FRESULT res;
1020:SynaptiX_FDK/services/fatfs/ff.c **** 
1021:SynaptiX_FDK/services/fatfs/ff.c **** 
1022:SynaptiX_FDK/services/fatfs/ff.c **** 	if (--i < FF_FS_LOCK) {	/* Index number origin from 0 */
1023:SynaptiX_FDK/services/fatfs/ff.c **** 		n = Files[i].ctr;
1024:SynaptiX_FDK/services/fatfs/ff.c **** 		if (n == 0x100) n = 0;	/* If write mode open, delete the object semaphore */
1025:SynaptiX_FDK/services/fatfs/ff.c **** 		if (n > 0) n--;			/* Decrement read mode open count */
1026:SynaptiX_FDK/services/fatfs/ff.c **** 		Files[i].ctr = n;
1027:SynaptiX_FDK/services/fatfs/ff.c **** 		if (n == 0) {			/* Delete the object semaphore if open count becomes zero */
1028:SynaptiX_FDK/services/fatfs/ff.c **** 			Files[i].fs = 0;	/* Free the entry <<<If this memory write operation is not in atomic, FF_FS_REE
1029:SynaptiX_FDK/services/fatfs/ff.c **** 		}
1030:SynaptiX_FDK/services/fatfs/ff.c **** 		res = FR_OK;
1031:SynaptiX_FDK/services/fatfs/ff.c **** 	} else {
1032:SynaptiX_FDK/services/fatfs/ff.c **** 		res = FR_INT_ERR;		/* Invalid index number */
1033:SynaptiX_FDK/services/fatfs/ff.c **** 	}
1034:SynaptiX_FDK/services/fatfs/ff.c **** 	return res;
1035:SynaptiX_FDK/services/fatfs/ff.c **** }
1036:SynaptiX_FDK/services/fatfs/ff.c **** 
1037:SynaptiX_FDK/services/fatfs/ff.c **** 
1038:SynaptiX_FDK/services/fatfs/ff.c **** static void clear_share (	/* Clear all lock entries of the volume */
1039:SynaptiX_FDK/services/fatfs/ff.c **** 	FATFS* fs
1040:SynaptiX_FDK/services/fatfs/ff.c **** )
1041:SynaptiX_FDK/services/fatfs/ff.c **** {
ARM GAS  C:\Users\DELL\AppData\Local\Temp\ccO3UVpA.s 			page 23


1042:SynaptiX_FDK/services/fatfs/ff.c **** 	UINT i;
1043:SynaptiX_FDK/services/fatfs/ff.c **** 
1044:SynaptiX_FDK/services/fatfs/ff.c **** 	for (i = 0; i < FF_FS_LOCK; i++) {
1045:SynaptiX_FDK/services/fatfs/ff.c **** 		if (Files[i].fs == fs) Files[i].fs = 0;
1046:SynaptiX_FDK/services/fatfs/ff.c **** 	}
1047:SynaptiX_FDK/services/fatfs/ff.c **** }
1048:SynaptiX_FDK/services/fatfs/ff.c **** 
1049:SynaptiX_FDK/services/fatfs/ff.c **** #endif	/* FF_FS_LOCK */
1050:SynaptiX_FDK/services/fatfs/ff.c **** 
1051:SynaptiX_FDK/services/fatfs/ff.c **** 
1052:SynaptiX_FDK/services/fatfs/ff.c **** 
1053:SynaptiX_FDK/services/fatfs/ff.c **** /*-----------------------------------------------------------------------*/
1054:SynaptiX_FDK/services/fatfs/ff.c **** /* Move/Flush disk access window in the filesystem object                */
1055:SynaptiX_FDK/services/fatfs/ff.c **** /*-----------------------------------------------------------------------*/
1056:SynaptiX_FDK/services/fatfs/ff.c **** #if !FF_FS_READONLY
1057:SynaptiX_FDK/services/fatfs/ff.c **** static FRESULT sync_window (	/* Returns FR_OK or FR_DISK_ERR */
1058:SynaptiX_FDK/services/fatfs/ff.c **** 	FATFS* fs			/* Filesystem object */
1059:SynaptiX_FDK/services/fatfs/ff.c **** )
1060:SynaptiX_FDK/services/fatfs/ff.c **** {
1061:SynaptiX_FDK/services/fatfs/ff.c **** 	FRESULT res = FR_OK;
1062:SynaptiX_FDK/services/fatfs/ff.c **** 
1063:SynaptiX_FDK/services/fatfs/ff.c **** 
1064:SynaptiX_FDK/services/fatfs/ff.c **** 	if (fs->wflag) {	/* Is the disk access window dirty? */
1065:SynaptiX_FDK/services/fatfs/ff.c **** 		if (disk_write(fs->pdrv, fs->win, fs->winsect, 1) == RES_OK) {	/* Write it back into the volume *
1066:SynaptiX_FDK/services/fatfs/ff.c **** 			fs->wflag = 0;	/* Clear window dirty flag */
1067:SynaptiX_FDK/services/fatfs/ff.c **** 			if (fs->winsect - fs->fatbase < fs->fsize) {	/* Is it in the 1st FAT? */
1068:SynaptiX_FDK/services/fatfs/ff.c **** 				if (fs->n_fats == 2) disk_write(fs->pdrv, fs->win, fs->winsect + fs->fsize, 1);	/* Reflect it t
1069:SynaptiX_FDK/services/fatfs/ff.c **** 			}
1070:SynaptiX_FDK/services/fatfs/ff.c **** 		} else {
1071:SynaptiX_FDK/services/fatfs/ff.c **** 			res = FR_DISK_ERR;
1072:SynaptiX_FDK/services/fatfs/ff.c **** 		}
1073:SynaptiX_FDK/services/fatfs/ff.c **** 	}
1074:SynaptiX_FDK/services/fatfs/ff.c **** 	return res;
1075:SynaptiX_FDK/services/fatfs/ff.c **** }
1076:SynaptiX_FDK/services/fatfs/ff.c **** #endif
1077:SynaptiX_FDK/services/fatfs/ff.c **** 
1078:SynaptiX_FDK/services/fatfs/ff.c **** 
1079:SynaptiX_FDK/services/fatfs/ff.c **** static FRESULT move_window (	/* Returns FR_OK or FR_DISK_ERR */
1080:SynaptiX_FDK/services/fatfs/ff.c **** 	FATFS* fs,		/* Filesystem object */
1081:SynaptiX_FDK/services/fatfs/ff.c **** 	LBA_t sect		/* Sector LBA to make appearance in the fs->win[] */
1082:SynaptiX_FDK/services/fatfs/ff.c **** )
1083:SynaptiX_FDK/services/fatfs/ff.c **** {
1084:SynaptiX_FDK/services/fatfs/ff.c **** 	FRESULT res = FR_OK;
1085:SynaptiX_FDK/services/fatfs/ff.c **** 
1086:SynaptiX_FDK/services/fatfs/ff.c **** 
1087:SynaptiX_FDK/services/fatfs/ff.c **** 	if (sect != fs->winsect) {	/* Window offset changed? */
1088:SynaptiX_FDK/services/fatfs/ff.c **** #if !FF_FS_READONLY
1089:SynaptiX_FDK/services/fatfs/ff.c **** 		res = sync_window(fs);		/* Flush the window */
1090:SynaptiX_FDK/services/fatfs/ff.c **** #endif
1091:SynaptiX_FDK/services/fatfs/ff.c **** 		if (res == FR_OK) {			/* Fill sector window with new data */
1092:SynaptiX_FDK/services/fatfs/ff.c **** 			if (disk_read(fs->pdrv, fs->win, sect, 1) != RES_OK) {
1093:SynaptiX_FDK/services/fatfs/ff.c **** 				sect = (LBA_t)0 - 1;	/* Invalidate window if read data is not valid */
1094:SynaptiX_FDK/services/fatfs/ff.c **** 				res = FR_DISK_ERR;
1095:SynaptiX_FDK/services/fatfs/ff.c **** 			}
1096:SynaptiX_FDK/services/fatfs/ff.c **** 			fs->winsect = sect;
1097:SynaptiX_FDK/services/fatfs/ff.c **** 		}
1098:SynaptiX_FDK/services/fatfs/ff.c **** 	}
ARM GAS  C:\Users\DELL\AppData\Local\Temp\ccO3UVpA.s 			page 24


1099:SynaptiX_FDK/services/fatfs/ff.c **** 	return res;
1100:SynaptiX_FDK/services/fatfs/ff.c **** }
1101:SynaptiX_FDK/services/fatfs/ff.c **** 
1102:SynaptiX_FDK/services/fatfs/ff.c **** 
1103:SynaptiX_FDK/services/fatfs/ff.c **** 
1104:SynaptiX_FDK/services/fatfs/ff.c **** 
1105:SynaptiX_FDK/services/fatfs/ff.c **** #if !FF_FS_READONLY
1106:SynaptiX_FDK/services/fatfs/ff.c **** /*-----------------------------------------------------------------------*/
1107:SynaptiX_FDK/services/fatfs/ff.c **** /* Synchronize filesystem and data on the storage                        */
1108:SynaptiX_FDK/services/fatfs/ff.c **** /*-----------------------------------------------------------------------*/
1109:SynaptiX_FDK/services/fatfs/ff.c **** 
1110:SynaptiX_FDK/services/fatfs/ff.c **** static FRESULT sync_fs (	/* Returns FR_OK or FR_DISK_ERR */
1111:SynaptiX_FDK/services/fatfs/ff.c **** 	FATFS* fs		/* Filesystem object */
1112:SynaptiX_FDK/services/fatfs/ff.c **** )
1113:SynaptiX_FDK/services/fatfs/ff.c **** {
1114:SynaptiX_FDK/services/fatfs/ff.c **** 	FRESULT res;
1115:SynaptiX_FDK/services/fatfs/ff.c **** 
1116:SynaptiX_FDK/services/fatfs/ff.c **** 
1117:SynaptiX_FDK/services/fatfs/ff.c **** 	res = sync_window(fs);
1118:SynaptiX_FDK/services/fatfs/ff.c **** 	if (res == FR_OK) {
1119:SynaptiX_FDK/services/fatfs/ff.c **** 		if (fs->fsi_flag == 1) {	/* Allocation changed? */
1120:SynaptiX_FDK/services/fatfs/ff.c **** 			fs->fsi_flag = 0;
1121:SynaptiX_FDK/services/fatfs/ff.c **** 			if (fs->fs_type == FS_FAT32) {	/* FAT32: Update FSInfo sector */
1122:SynaptiX_FDK/services/fatfs/ff.c **** 				/* Create FSInfo structure */
1123:SynaptiX_FDK/services/fatfs/ff.c **** 				memset(fs->win, 0, sizeof fs->win);
1124:SynaptiX_FDK/services/fatfs/ff.c **** 				st_32(fs->win + FSI_LeadSig, 0x41615252);		/* Leading signature */
1125:SynaptiX_FDK/services/fatfs/ff.c **** 				st_32(fs->win + FSI_StrucSig, 0x61417272);		/* Structure signature */
1126:SynaptiX_FDK/services/fatfs/ff.c **** 				st_32(fs->win + FSI_Free_Count, fs->free_clst);	/* Number of free clusters */
1127:SynaptiX_FDK/services/fatfs/ff.c **** 				st_32(fs->win + FSI_Nxt_Free, fs->last_clst);	/* Last allocated culuster */
1128:SynaptiX_FDK/services/fatfs/ff.c **** 				st_32(fs->win + FSI_TrailSig, 0xAA550000);		/* Trailing signature */
1129:SynaptiX_FDK/services/fatfs/ff.c **** 				disk_write(fs->pdrv, fs->win, fs->winsect = fs->volbase + 1, 1);	/* Write it into the FSInfo se
1130:SynaptiX_FDK/services/fatfs/ff.c **** 			}
1131:SynaptiX_FDK/services/fatfs/ff.c **** #if FF_FS_EXFAT
1132:SynaptiX_FDK/services/fatfs/ff.c **** 			else if (fs->fs_type == FS_EXFAT) {	/* exFAT: Update PercInUse field in BPB */
1133:SynaptiX_FDK/services/fatfs/ff.c **** 				if (disk_read(fs->pdrv, fs->win, fs->winsect = fs->volbase, 1) == RES_OK) {	/* Load VBR */
1134:SynaptiX_FDK/services/fatfs/ff.c **** 					BYTE perc_inuse = (fs->free_clst <= fs->n_fatent - 2) ? (BYTE)((QWORD)(fs->n_fatent - 2 - fs->
1135:SynaptiX_FDK/services/fatfs/ff.c **** 
1136:SynaptiX_FDK/services/fatfs/ff.c **** 					if (fs->win[BPB_PercInUseEx] != perc_inuse) {	/* Write it back into VBR if needed */
1137:SynaptiX_FDK/services/fatfs/ff.c **** 						fs->win[BPB_PercInUseEx] = perc_inuse;
1138:SynaptiX_FDK/services/fatfs/ff.c **** 						disk_write(fs->pdrv, fs->win, fs->winsect, 1);
1139:SynaptiX_FDK/services/fatfs/ff.c **** 					}
1140:SynaptiX_FDK/services/fatfs/ff.c **** 				}
1141:SynaptiX_FDK/services/fatfs/ff.c **** 			}
1142:SynaptiX_FDK/services/fatfs/ff.c **** #endif
1143:SynaptiX_FDK/services/fatfs/ff.c **** 		}
1144:SynaptiX_FDK/services/fatfs/ff.c **** 		/* Make sure that no pending write process in the lower layer */
1145:SynaptiX_FDK/services/fatfs/ff.c **** 		if (disk_ioctl(fs->pdrv, CTRL_SYNC, 0) != RES_OK) res = FR_DISK_ERR;
1146:SynaptiX_FDK/services/fatfs/ff.c **** 	}
1147:SynaptiX_FDK/services/fatfs/ff.c **** 
1148:SynaptiX_FDK/services/fatfs/ff.c **** 	return res;
1149:SynaptiX_FDK/services/fatfs/ff.c **** }
1150:SynaptiX_FDK/services/fatfs/ff.c **** 
1151:SynaptiX_FDK/services/fatfs/ff.c **** #endif
1152:SynaptiX_FDK/services/fatfs/ff.c **** 
1153:SynaptiX_FDK/services/fatfs/ff.c **** 
1154:SynaptiX_FDK/services/fatfs/ff.c **** 
1155:SynaptiX_FDK/services/fatfs/ff.c **** /*-----------------------------------------------------------------------*/
ARM GAS  C:\Users\DELL\AppData\Local\Temp\ccO3UVpA.s 			page 25


1156:SynaptiX_FDK/services/fatfs/ff.c **** /* Get physical sector number from cluster number                        */
1157:SynaptiX_FDK/services/fatfs/ff.c **** /*-----------------------------------------------------------------------*/
1158:SynaptiX_FDK/services/fatfs/ff.c **** 
1159:SynaptiX_FDK/services/fatfs/ff.c **** static LBA_t clst2sect (	/* !=0:Sector number, 0:Failed (invalid cluster#) */
1160:SynaptiX_FDK/services/fatfs/ff.c **** 	FATFS* fs,		/* Filesystem object */
1161:SynaptiX_FDK/services/fatfs/ff.c **** 	DWORD clst		/* Cluster# to be converted */
1162:SynaptiX_FDK/services/fatfs/ff.c **** )
1163:SynaptiX_FDK/services/fatfs/ff.c **** {
 227              		.loc 1 1163 1 is_stmt 1 view -0
 228              		.cfi_startproc
 229              		@ args = 0, pretend = 0, frame = 0
 230              		@ frame_needed = 0, uses_anonymous_args = 0
 231              		@ link register save eliminated.
1164:SynaptiX_FDK/services/fatfs/ff.c **** 	clst -= 2;		/* Cluster number is origin from 2 */
 232              		.loc 1 1164 2 view .LVU59
 233              		.loc 1 1164 7 is_stmt 0 view .LVU60
 234 0000 0239     		subs	r1, r1, #2
 235              	.LVL22:
1165:SynaptiX_FDK/services/fatfs/ff.c **** 	if (clst >= fs->n_fatent - 2) return 0;		/* Is it invalid cluster number? */
 236              		.loc 1 1165 2 is_stmt 1 view .LVU61
 237              		.loc 1 1165 16 is_stmt 0 view .LVU62
 238 0002 8369     		ldr	r3, [r0, #24]
 239              		.loc 1 1165 27 view .LVU63
 240 0004 023B     		subs	r3, r3, #2
 241              		.loc 1 1165 5 view .LVU64
 242 0006 8B42     		cmp	r3, r1
 243 0008 04D9     		bls	.L9
1166:SynaptiX_FDK/services/fatfs/ff.c **** 	return fs->database + (LBA_t)fs->csize * clst;	/* Start sector number of the cluster */
 244              		.loc 1 1166 2 is_stmt 1 view .LVU65
 245              		.loc 1 1166 11 is_stmt 0 view .LVU66
 246 000a 036B     		ldr	r3, [r0, #48]
 247              		.loc 1 1166 33 view .LVU67
 248 000c 4289     		ldrh	r2, [r0, #10]
 249              		.loc 1 1166 22 view .LVU68
 250 000e 01FB0230 		mla	r0, r1, r2, r3
 251              	.LVL23:
 252              		.loc 1 1166 22 view .LVU69
 253 0012 7047     		bx	lr
 254              	.LVL24:
 255              	.L9:
1165:SynaptiX_FDK/services/fatfs/ff.c **** 	if (clst >= fs->n_fatent - 2) return 0;		/* Is it invalid cluster number? */
 256              		.loc 1 1165 39 discriminator 1 view .LVU70
 257 0014 0020     		movs	r0, #0
 258              	.LVL25:
1167:SynaptiX_FDK/services/fatfs/ff.c **** }
 259              		.loc 1 1167 1 view .LVU71
 260 0016 7047     		bx	lr
 261              		.cfi_endproc
 262              	.LFE11:
 264              		.section	.text.ld_clust,"ax",%progbits
 265              		.align	1
 266              		.syntax unified
 267              		.thumb
 268              		.thumb_func
 270              	ld_clust:
 271              	.LVL26:
 272              	.LFB20:
ARM GAS  C:\Users\DELL\AppData\Local\Temp\ccO3UVpA.s 			page 26


1168:SynaptiX_FDK/services/fatfs/ff.c **** 
1169:SynaptiX_FDK/services/fatfs/ff.c **** 
1170:SynaptiX_FDK/services/fatfs/ff.c **** 
1171:SynaptiX_FDK/services/fatfs/ff.c **** 
1172:SynaptiX_FDK/services/fatfs/ff.c **** /*-----------------------------------------------------------------------*/
1173:SynaptiX_FDK/services/fatfs/ff.c **** /* FAT access - Read value of an FAT entry                               */
1174:SynaptiX_FDK/services/fatfs/ff.c **** /*-----------------------------------------------------------------------*/
1175:SynaptiX_FDK/services/fatfs/ff.c **** 
1176:SynaptiX_FDK/services/fatfs/ff.c **** static DWORD get_fat (		/* 0xFFFFFFFF:Disk error, 1:Internal error, 2..0x7FFFFFFF:Cluster status */
1177:SynaptiX_FDK/services/fatfs/ff.c **** 	FFOBJID* obj,	/* Corresponding object */
1178:SynaptiX_FDK/services/fatfs/ff.c **** 	DWORD clst		/* Cluster number to get the value */
1179:SynaptiX_FDK/services/fatfs/ff.c **** )
1180:SynaptiX_FDK/services/fatfs/ff.c **** {
1181:SynaptiX_FDK/services/fatfs/ff.c **** 	UINT wc, bc;
1182:SynaptiX_FDK/services/fatfs/ff.c **** 	DWORD val;
1183:SynaptiX_FDK/services/fatfs/ff.c **** 	FATFS *fs = obj->fs;
1184:SynaptiX_FDK/services/fatfs/ff.c **** 
1185:SynaptiX_FDK/services/fatfs/ff.c **** 
1186:SynaptiX_FDK/services/fatfs/ff.c **** 	if (clst < 2 || clst >= fs->n_fatent) {	/* Check if in valid range */
1187:SynaptiX_FDK/services/fatfs/ff.c **** 		val = 1;	/* Internal error */
1188:SynaptiX_FDK/services/fatfs/ff.c **** 
1189:SynaptiX_FDK/services/fatfs/ff.c **** 	} else {
1190:SynaptiX_FDK/services/fatfs/ff.c **** 		val = 0xFFFFFFFF;	/* Default value falls on disk error */
1191:SynaptiX_FDK/services/fatfs/ff.c **** 
1192:SynaptiX_FDK/services/fatfs/ff.c **** 		switch (fs->fs_type) {
1193:SynaptiX_FDK/services/fatfs/ff.c **** 		case FS_FAT12 :
1194:SynaptiX_FDK/services/fatfs/ff.c **** 			bc = (UINT)clst; bc += bc / 2;
1195:SynaptiX_FDK/services/fatfs/ff.c **** 			if (move_window(fs, fs->fatbase + (bc / SS(fs))) != FR_OK) break;
1196:SynaptiX_FDK/services/fatfs/ff.c **** 			wc = fs->win[bc++ % SS(fs)];		/* Get 1st byte of the entry */
1197:SynaptiX_FDK/services/fatfs/ff.c **** 			if (move_window(fs, fs->fatbase + (bc / SS(fs))) != FR_OK) break;
1198:SynaptiX_FDK/services/fatfs/ff.c **** 			wc |= fs->win[bc % SS(fs)] << 8;	/* Merge 2nd byte of the entry */
1199:SynaptiX_FDK/services/fatfs/ff.c **** 			val = (clst & 1) ? (wc >> 4) : (wc & 0xFFF);	/* Adjust bit position */
1200:SynaptiX_FDK/services/fatfs/ff.c **** 			break;
1201:SynaptiX_FDK/services/fatfs/ff.c **** 
1202:SynaptiX_FDK/services/fatfs/ff.c **** 		case FS_FAT16 :
1203:SynaptiX_FDK/services/fatfs/ff.c **** 			if (move_window(fs, fs->fatbase + (clst / (SS(fs) / 2))) != FR_OK) break;
1204:SynaptiX_FDK/services/fatfs/ff.c **** 			val = ld_16(fs->win + clst * 2 % SS(fs));		/* Simple WORD array */
1205:SynaptiX_FDK/services/fatfs/ff.c **** 			break;
1206:SynaptiX_FDK/services/fatfs/ff.c **** 
1207:SynaptiX_FDK/services/fatfs/ff.c **** 		case FS_FAT32 :
1208:SynaptiX_FDK/services/fatfs/ff.c **** 			if (move_window(fs, fs->fatbase + (clst / (SS(fs) / 4))) != FR_OK) break;
1209:SynaptiX_FDK/services/fatfs/ff.c **** 			val = ld_32(fs->win + clst * 4 % SS(fs)) & 0x0FFFFFFF;	/* Simple DWORD array but mask out upper 
1210:SynaptiX_FDK/services/fatfs/ff.c **** 			break;
1211:SynaptiX_FDK/services/fatfs/ff.c **** #if FF_FS_EXFAT
1212:SynaptiX_FDK/services/fatfs/ff.c **** 		case FS_EXFAT :
1213:SynaptiX_FDK/services/fatfs/ff.c **** 			if ((obj->objsize != 0 && obj->sclust != 0) || obj->stat == 0) {	/* Object except root dir must 
1214:SynaptiX_FDK/services/fatfs/ff.c **** 				DWORD cofs = clst - obj->sclust;	/* Offset from start cluster */
1215:SynaptiX_FDK/services/fatfs/ff.c **** 				DWORD clen = (DWORD)((LBA_t)((obj->objsize - 1) / SS(fs)) / fs->csize);	/* Number of clusters -
1216:SynaptiX_FDK/services/fatfs/ff.c **** 
1217:SynaptiX_FDK/services/fatfs/ff.c **** 				if (obj->stat == 2 && cofs <= clen) {	/* Is it a contiguous chain? */
1218:SynaptiX_FDK/services/fatfs/ff.c **** 					val = (cofs == clen) ? 0x7FFFFFFF : clst + 1;	/* No data on the FAT, generate the value */
1219:SynaptiX_FDK/services/fatfs/ff.c **** 					break;
1220:SynaptiX_FDK/services/fatfs/ff.c **** 				}
1221:SynaptiX_FDK/services/fatfs/ff.c **** 				if (obj->stat == 3 && cofs < obj->n_cont) {	/* Is it in the 1st fragment? */
1222:SynaptiX_FDK/services/fatfs/ff.c **** 					val = clst + 1; 	/* Generate the value */
1223:SynaptiX_FDK/services/fatfs/ff.c **** 					break;
1224:SynaptiX_FDK/services/fatfs/ff.c **** 				}
ARM GAS  C:\Users\DELL\AppData\Local\Temp\ccO3UVpA.s 			page 27


1225:SynaptiX_FDK/services/fatfs/ff.c **** 				if (obj->stat != 2) {	/* Get value from FAT if FAT chain is valid */
1226:SynaptiX_FDK/services/fatfs/ff.c **** 					if (obj->n_frag != 0) {	/* Is it on the growing edge? */
1227:SynaptiX_FDK/services/fatfs/ff.c **** 						val = 0x7FFFFFFF;	/* Generate EOC */
1228:SynaptiX_FDK/services/fatfs/ff.c **** 					} else {
1229:SynaptiX_FDK/services/fatfs/ff.c **** 						if (move_window(fs, fs->fatbase + (clst / (SS(fs) / 4))) != FR_OK) break;
1230:SynaptiX_FDK/services/fatfs/ff.c **** 						val = ld_32(fs->win + clst * 4 % SS(fs)) & 0x7FFFFFFF;
1231:SynaptiX_FDK/services/fatfs/ff.c **** 					}
1232:SynaptiX_FDK/services/fatfs/ff.c **** 					break;
1233:SynaptiX_FDK/services/fatfs/ff.c **** 				}
1234:SynaptiX_FDK/services/fatfs/ff.c **** 			}
1235:SynaptiX_FDK/services/fatfs/ff.c **** 			val = 1;	/* Internal error */
1236:SynaptiX_FDK/services/fatfs/ff.c **** 			break;
1237:SynaptiX_FDK/services/fatfs/ff.c **** #endif
1238:SynaptiX_FDK/services/fatfs/ff.c **** 		default:
1239:SynaptiX_FDK/services/fatfs/ff.c **** 			val = 1;	/* Internal error */
1240:SynaptiX_FDK/services/fatfs/ff.c **** 		}
1241:SynaptiX_FDK/services/fatfs/ff.c **** 	}
1242:SynaptiX_FDK/services/fatfs/ff.c **** 
1243:SynaptiX_FDK/services/fatfs/ff.c **** 	return val;
1244:SynaptiX_FDK/services/fatfs/ff.c **** }
1245:SynaptiX_FDK/services/fatfs/ff.c **** 
1246:SynaptiX_FDK/services/fatfs/ff.c **** 
1247:SynaptiX_FDK/services/fatfs/ff.c **** 
1248:SynaptiX_FDK/services/fatfs/ff.c **** 
1249:SynaptiX_FDK/services/fatfs/ff.c **** #if !FF_FS_READONLY
1250:SynaptiX_FDK/services/fatfs/ff.c **** /*-----------------------------------------------------------------------*/
1251:SynaptiX_FDK/services/fatfs/ff.c **** /* FAT access - Change value of an FAT entry                             */
1252:SynaptiX_FDK/services/fatfs/ff.c **** /*-----------------------------------------------------------------------*/
1253:SynaptiX_FDK/services/fatfs/ff.c **** 
1254:SynaptiX_FDK/services/fatfs/ff.c **** static FRESULT put_fat (	/* FR_OK(0):succeeded, !=0:error */
1255:SynaptiX_FDK/services/fatfs/ff.c **** 	FATFS* fs,		/* Corresponding filesystem object */
1256:SynaptiX_FDK/services/fatfs/ff.c **** 	DWORD clst,		/* FAT index number (cluster number) to be changed */
1257:SynaptiX_FDK/services/fatfs/ff.c **** 	DWORD val		/* New value to be set to the entry */
1258:SynaptiX_FDK/services/fatfs/ff.c **** )
1259:SynaptiX_FDK/services/fatfs/ff.c **** {
1260:SynaptiX_FDK/services/fatfs/ff.c **** 	UINT bc;
1261:SynaptiX_FDK/services/fatfs/ff.c **** 	BYTE *p;
1262:SynaptiX_FDK/services/fatfs/ff.c **** 	FRESULT res = FR_INT_ERR;
1263:SynaptiX_FDK/services/fatfs/ff.c **** 
1264:SynaptiX_FDK/services/fatfs/ff.c **** 
1265:SynaptiX_FDK/services/fatfs/ff.c **** 	if (clst >= 2 && clst < fs->n_fatent) {	/* Check if in valid range */
1266:SynaptiX_FDK/services/fatfs/ff.c **** 		switch (fs->fs_type) {
1267:SynaptiX_FDK/services/fatfs/ff.c **** 		case FS_FAT12:
1268:SynaptiX_FDK/services/fatfs/ff.c **** 			bc = (UINT)clst; bc += bc / 2;	/* bc: byte offset of the entry */
1269:SynaptiX_FDK/services/fatfs/ff.c **** 			res = move_window(fs, fs->fatbase + (bc / SS(fs)));
1270:SynaptiX_FDK/services/fatfs/ff.c **** 			if (res != FR_OK) break;
1271:SynaptiX_FDK/services/fatfs/ff.c **** 			p = fs->win + bc++ % SS(fs);
1272:SynaptiX_FDK/services/fatfs/ff.c **** 			*p = (clst & 1) ? ((*p & 0x0F) | ((BYTE)val << 4)) : (BYTE)val;	/* Update 1st byte */
1273:SynaptiX_FDK/services/fatfs/ff.c **** 			fs->wflag = 1;
1274:SynaptiX_FDK/services/fatfs/ff.c **** 			res = move_window(fs, fs->fatbase + (bc / SS(fs)));
1275:SynaptiX_FDK/services/fatfs/ff.c **** 			if (res != FR_OK) break;
1276:SynaptiX_FDK/services/fatfs/ff.c **** 			p = fs->win + bc % SS(fs);
1277:SynaptiX_FDK/services/fatfs/ff.c **** 			*p = (clst & 1) ? (BYTE)(val >> 4) : ((*p & 0xF0) | ((BYTE)(val >> 8) & 0x0F));	/* Update 2nd by
1278:SynaptiX_FDK/services/fatfs/ff.c **** 			fs->wflag = 1;
1279:SynaptiX_FDK/services/fatfs/ff.c **** 			break;
1280:SynaptiX_FDK/services/fatfs/ff.c **** 
1281:SynaptiX_FDK/services/fatfs/ff.c **** 		case FS_FAT16:
ARM GAS  C:\Users\DELL\AppData\Local\Temp\ccO3UVpA.s 			page 28


1282:SynaptiX_FDK/services/fatfs/ff.c **** 			res = move_window(fs, fs->fatbase + (clst / (SS(fs) / 2)));
1283:SynaptiX_FDK/services/fatfs/ff.c **** 			if (res != FR_OK) break;
1284:SynaptiX_FDK/services/fatfs/ff.c **** 			st_16(fs->win + clst * 2 % SS(fs), (WORD)val);	/* Simple WORD array */
1285:SynaptiX_FDK/services/fatfs/ff.c **** 			fs->wflag = 1;
1286:SynaptiX_FDK/services/fatfs/ff.c **** 			break;
1287:SynaptiX_FDK/services/fatfs/ff.c **** 
1288:SynaptiX_FDK/services/fatfs/ff.c **** 		case FS_FAT32:
1289:SynaptiX_FDK/services/fatfs/ff.c **** #if FF_FS_EXFAT
1290:SynaptiX_FDK/services/fatfs/ff.c **** 		case FS_EXFAT:
1291:SynaptiX_FDK/services/fatfs/ff.c **** #endif
1292:SynaptiX_FDK/services/fatfs/ff.c **** 			res = move_window(fs, fs->fatbase + (clst / (SS(fs) / 4)));
1293:SynaptiX_FDK/services/fatfs/ff.c **** 			if (res != FR_OK) break;
1294:SynaptiX_FDK/services/fatfs/ff.c **** 			if (!FF_FS_EXFAT || fs->fs_type != FS_EXFAT) {
1295:SynaptiX_FDK/services/fatfs/ff.c **** 				val = (val & 0x0FFFFFFF) | (ld_32(fs->win + clst * 4 % SS(fs)) & 0xF0000000);
1296:SynaptiX_FDK/services/fatfs/ff.c **** 			}
1297:SynaptiX_FDK/services/fatfs/ff.c **** 			st_32(fs->win + clst * 4 % SS(fs), val);
1298:SynaptiX_FDK/services/fatfs/ff.c **** 			fs->wflag = 1;
1299:SynaptiX_FDK/services/fatfs/ff.c **** 			break;
1300:SynaptiX_FDK/services/fatfs/ff.c **** 		}
1301:SynaptiX_FDK/services/fatfs/ff.c **** 	}
1302:SynaptiX_FDK/services/fatfs/ff.c **** 	return res;
1303:SynaptiX_FDK/services/fatfs/ff.c **** }
1304:SynaptiX_FDK/services/fatfs/ff.c **** 
1305:SynaptiX_FDK/services/fatfs/ff.c **** #endif /* !FF_FS_READONLY */
1306:SynaptiX_FDK/services/fatfs/ff.c **** 
1307:SynaptiX_FDK/services/fatfs/ff.c **** 
1308:SynaptiX_FDK/services/fatfs/ff.c **** 
1309:SynaptiX_FDK/services/fatfs/ff.c **** 
1310:SynaptiX_FDK/services/fatfs/ff.c **** #if FF_FS_EXFAT && !FF_FS_READONLY
1311:SynaptiX_FDK/services/fatfs/ff.c **** /*-----------------------------------------------------------------------*/
1312:SynaptiX_FDK/services/fatfs/ff.c **** /* exFAT: Accessing FAT and Allocation Bitmap                            */
1313:SynaptiX_FDK/services/fatfs/ff.c **** /*-----------------------------------------------------------------------*/
1314:SynaptiX_FDK/services/fatfs/ff.c **** 
1315:SynaptiX_FDK/services/fatfs/ff.c **** /*--------------------------------------*/
1316:SynaptiX_FDK/services/fatfs/ff.c **** /* Find a contiguous free cluster block */
1317:SynaptiX_FDK/services/fatfs/ff.c **** /*--------------------------------------*/
1318:SynaptiX_FDK/services/fatfs/ff.c **** 
1319:SynaptiX_FDK/services/fatfs/ff.c **** static DWORD find_bitmap (	/* 0:Not found, 2..:Cluster block found, 0xFFFFFFFF:Disk error */
1320:SynaptiX_FDK/services/fatfs/ff.c **** 	FATFS* fs,	/* Filesystem object */
1321:SynaptiX_FDK/services/fatfs/ff.c **** 	DWORD clst,	/* Cluster number to scan from */
1322:SynaptiX_FDK/services/fatfs/ff.c **** 	DWORD ncl	/* Number of contiguous clusters to find (1..) */
1323:SynaptiX_FDK/services/fatfs/ff.c **** )
1324:SynaptiX_FDK/services/fatfs/ff.c **** {
1325:SynaptiX_FDK/services/fatfs/ff.c **** 	BYTE bm, bv;
1326:SynaptiX_FDK/services/fatfs/ff.c **** 	UINT i;
1327:SynaptiX_FDK/services/fatfs/ff.c **** 	DWORD val, scl, ctr;
1328:SynaptiX_FDK/services/fatfs/ff.c **** 
1329:SynaptiX_FDK/services/fatfs/ff.c **** 
1330:SynaptiX_FDK/services/fatfs/ff.c **** 	clst -= 2;	/* The first bit in the bitmap corresponds to cluster #2 */
1331:SynaptiX_FDK/services/fatfs/ff.c **** 	if (clst >= fs->n_fatent - 2) clst = 0;
1332:SynaptiX_FDK/services/fatfs/ff.c **** 	scl = val = clst; ctr = 0;
1333:SynaptiX_FDK/services/fatfs/ff.c **** 	for (;;) {
1334:SynaptiX_FDK/services/fatfs/ff.c **** 		if (move_window(fs, fs->bitbase + val / 8 / SS(fs)) != FR_OK) return 0xFFFFFFFF;
1335:SynaptiX_FDK/services/fatfs/ff.c **** 		i = val / 8 % SS(fs); bm = 1 << (val % 8);
1336:SynaptiX_FDK/services/fatfs/ff.c **** 		do {
1337:SynaptiX_FDK/services/fatfs/ff.c **** 			do {
1338:SynaptiX_FDK/services/fatfs/ff.c **** 				bv = fs->win[i] & bm; bm <<= 1;		/* Get bit value */
ARM GAS  C:\Users\DELL\AppData\Local\Temp\ccO3UVpA.s 			page 29


1339:SynaptiX_FDK/services/fatfs/ff.c **** 				if (++val >= fs->n_fatent - 2) {	/* Next cluster (with wrap-around) */
1340:SynaptiX_FDK/services/fatfs/ff.c **** 					val = 0; bm = 0; i = SS(fs);
1341:SynaptiX_FDK/services/fatfs/ff.c **** 				}
1342:SynaptiX_FDK/services/fatfs/ff.c **** 				if (bv == 0) {	/* Is it a free cluster? */
1343:SynaptiX_FDK/services/fatfs/ff.c **** 					if (++ctr == ncl) return scl + 2;	/* Check if run length is sufficient for required */
1344:SynaptiX_FDK/services/fatfs/ff.c **** 				} else {
1345:SynaptiX_FDK/services/fatfs/ff.c **** 					scl = val; ctr = 0;		/* Encountered a cluster in-use, restart to scan */
1346:SynaptiX_FDK/services/fatfs/ff.c **** 				}
1347:SynaptiX_FDK/services/fatfs/ff.c **** 				if (val == clst) return 0;	/* All cluster scanned? */
1348:SynaptiX_FDK/services/fatfs/ff.c **** 			} while (bm != 0);
1349:SynaptiX_FDK/services/fatfs/ff.c **** 			bm = 1;
1350:SynaptiX_FDK/services/fatfs/ff.c **** 		} while (++i < SS(fs));
1351:SynaptiX_FDK/services/fatfs/ff.c **** 	}
1352:SynaptiX_FDK/services/fatfs/ff.c **** }
1353:SynaptiX_FDK/services/fatfs/ff.c **** 
1354:SynaptiX_FDK/services/fatfs/ff.c **** 
1355:SynaptiX_FDK/services/fatfs/ff.c **** /*----------------------------------------*/
1356:SynaptiX_FDK/services/fatfs/ff.c **** /* Set/Clear a block of allocation bitmap */
1357:SynaptiX_FDK/services/fatfs/ff.c **** /*----------------------------------------*/
1358:SynaptiX_FDK/services/fatfs/ff.c **** 
1359:SynaptiX_FDK/services/fatfs/ff.c **** static FRESULT change_bitmap (
1360:SynaptiX_FDK/services/fatfs/ff.c **** 	FATFS* fs,	/* Filesystem object */
1361:SynaptiX_FDK/services/fatfs/ff.c **** 	DWORD clst,	/* Cluster number to change from */
1362:SynaptiX_FDK/services/fatfs/ff.c **** 	DWORD ncl,	/* Number of clusters to be changed */
1363:SynaptiX_FDK/services/fatfs/ff.c **** 	int bv		/* bit value to be set (0 or 1) */
1364:SynaptiX_FDK/services/fatfs/ff.c **** )
1365:SynaptiX_FDK/services/fatfs/ff.c **** {
1366:SynaptiX_FDK/services/fatfs/ff.c **** 	BYTE bm;
1367:SynaptiX_FDK/services/fatfs/ff.c **** 	UINT i;
1368:SynaptiX_FDK/services/fatfs/ff.c **** 	LBA_t sect;
1369:SynaptiX_FDK/services/fatfs/ff.c **** 
1370:SynaptiX_FDK/services/fatfs/ff.c **** 
1371:SynaptiX_FDK/services/fatfs/ff.c **** 	clst -= 2;	/* The first bit corresponds to cluster #2 */
1372:SynaptiX_FDK/services/fatfs/ff.c **** 	sect = fs->bitbase + clst / 8 / SS(fs);	/* Sector address */
1373:SynaptiX_FDK/services/fatfs/ff.c **** 	i = clst / 8 % SS(fs);					/* Byte offset in the sector */
1374:SynaptiX_FDK/services/fatfs/ff.c **** 	bm = 1 << (clst % 8);					/* Bit mask in the byte */
1375:SynaptiX_FDK/services/fatfs/ff.c **** 	for (;;) {
1376:SynaptiX_FDK/services/fatfs/ff.c **** 		if (move_window(fs, sect++) != FR_OK) return FR_DISK_ERR;
1377:SynaptiX_FDK/services/fatfs/ff.c **** 		do {
1378:SynaptiX_FDK/services/fatfs/ff.c **** 			do {
1379:SynaptiX_FDK/services/fatfs/ff.c **** 				if (bv == (int)((fs->win[i] & bm) != 0)) return FR_INT_ERR;	/* Is the bit expected value? */
1380:SynaptiX_FDK/services/fatfs/ff.c **** 				fs->win[i] ^= bm;	/* Flip the bit */
1381:SynaptiX_FDK/services/fatfs/ff.c **** 				fs->wflag = 1;
1382:SynaptiX_FDK/services/fatfs/ff.c **** 				if (--ncl == 0) return FR_OK;	/* All bits processed? */
1383:SynaptiX_FDK/services/fatfs/ff.c **** 			} while (bm <<= 1);		/* Next bit */
1384:SynaptiX_FDK/services/fatfs/ff.c **** 			bm = 1;
1385:SynaptiX_FDK/services/fatfs/ff.c **** 		} while (++i < SS(fs));		/* Next byte */
1386:SynaptiX_FDK/services/fatfs/ff.c **** 		i = 0;
1387:SynaptiX_FDK/services/fatfs/ff.c **** 	}
1388:SynaptiX_FDK/services/fatfs/ff.c **** }
1389:SynaptiX_FDK/services/fatfs/ff.c **** 
1390:SynaptiX_FDK/services/fatfs/ff.c **** 
1391:SynaptiX_FDK/services/fatfs/ff.c **** /*---------------------------------------------*/
1392:SynaptiX_FDK/services/fatfs/ff.c **** /* Fill the first fragment of the FAT chain    */
1393:SynaptiX_FDK/services/fatfs/ff.c **** /*---------------------------------------------*/
1394:SynaptiX_FDK/services/fatfs/ff.c **** 
1395:SynaptiX_FDK/services/fatfs/ff.c **** static FRESULT fill_first_frag (
ARM GAS  C:\Users\DELL\AppData\Local\Temp\ccO3UVpA.s 			page 30


1396:SynaptiX_FDK/services/fatfs/ff.c **** 	FFOBJID* obj	/* Pointer to the corresponding object */
1397:SynaptiX_FDK/services/fatfs/ff.c **** )
1398:SynaptiX_FDK/services/fatfs/ff.c **** {
1399:SynaptiX_FDK/services/fatfs/ff.c **** 	FRESULT res;
1400:SynaptiX_FDK/services/fatfs/ff.c **** 	DWORD cl, n;
1401:SynaptiX_FDK/services/fatfs/ff.c **** 
1402:SynaptiX_FDK/services/fatfs/ff.c **** 
1403:SynaptiX_FDK/services/fatfs/ff.c **** 	if (obj->stat == 3) {	/* Has the object been changed 'fragmented' in this session? */
1404:SynaptiX_FDK/services/fatfs/ff.c **** 		for (cl = obj->sclust, n = obj->n_cont; n; cl++, n--) {	/* Create cluster chain on the FAT */
1405:SynaptiX_FDK/services/fatfs/ff.c **** 			res = put_fat(obj->fs, cl, cl + 1);
1406:SynaptiX_FDK/services/fatfs/ff.c **** 			if (res != FR_OK) return res;
1407:SynaptiX_FDK/services/fatfs/ff.c **** 		}
1408:SynaptiX_FDK/services/fatfs/ff.c **** 		obj->stat = 0;	/* Change status 'FAT chain is valid' */
1409:SynaptiX_FDK/services/fatfs/ff.c **** 	}
1410:SynaptiX_FDK/services/fatfs/ff.c **** 	return FR_OK;
1411:SynaptiX_FDK/services/fatfs/ff.c **** }
1412:SynaptiX_FDK/services/fatfs/ff.c **** 
1413:SynaptiX_FDK/services/fatfs/ff.c **** 
1414:SynaptiX_FDK/services/fatfs/ff.c **** /*---------------------------------------------*/
1415:SynaptiX_FDK/services/fatfs/ff.c **** /* Fill the last fragment of the FAT chain     */
1416:SynaptiX_FDK/services/fatfs/ff.c **** /*---------------------------------------------*/
1417:SynaptiX_FDK/services/fatfs/ff.c **** 
1418:SynaptiX_FDK/services/fatfs/ff.c **** static FRESULT fill_last_frag (
1419:SynaptiX_FDK/services/fatfs/ff.c **** 	FFOBJID* obj,	/* Pointer to the corresponding object */
1420:SynaptiX_FDK/services/fatfs/ff.c **** 	DWORD lcl,		/* Last cluster of the fragment */
1421:SynaptiX_FDK/services/fatfs/ff.c **** 	DWORD term		/* Value to set the last FAT entry */
1422:SynaptiX_FDK/services/fatfs/ff.c **** )
1423:SynaptiX_FDK/services/fatfs/ff.c **** {
1424:SynaptiX_FDK/services/fatfs/ff.c **** 	FRESULT res;
1425:SynaptiX_FDK/services/fatfs/ff.c **** 
1426:SynaptiX_FDK/services/fatfs/ff.c **** 
1427:SynaptiX_FDK/services/fatfs/ff.c **** 	while (obj->n_frag > 0) {	/* Create the chain of last fragment */
1428:SynaptiX_FDK/services/fatfs/ff.c **** 		res = put_fat(obj->fs, lcl - obj->n_frag + 1, (obj->n_frag > 1) ? lcl - obj->n_frag + 2 : term);
1429:SynaptiX_FDK/services/fatfs/ff.c **** 		if (res != FR_OK) return res;
1430:SynaptiX_FDK/services/fatfs/ff.c **** 		obj->n_frag--;
1431:SynaptiX_FDK/services/fatfs/ff.c **** 	}
1432:SynaptiX_FDK/services/fatfs/ff.c **** 	return FR_OK;
1433:SynaptiX_FDK/services/fatfs/ff.c **** }
1434:SynaptiX_FDK/services/fatfs/ff.c **** 
1435:SynaptiX_FDK/services/fatfs/ff.c **** #endif	/* FF_FS_EXFAT && !FF_FS_READONLY */
1436:SynaptiX_FDK/services/fatfs/ff.c **** 
1437:SynaptiX_FDK/services/fatfs/ff.c **** 
1438:SynaptiX_FDK/services/fatfs/ff.c **** 
1439:SynaptiX_FDK/services/fatfs/ff.c **** #if !FF_FS_READONLY
1440:SynaptiX_FDK/services/fatfs/ff.c **** /*-----------------------------------------------------------------------*/
1441:SynaptiX_FDK/services/fatfs/ff.c **** /* FAT handling - Remove a cluster chain                                 */
1442:SynaptiX_FDK/services/fatfs/ff.c **** /*-----------------------------------------------------------------------*/
1443:SynaptiX_FDK/services/fatfs/ff.c **** 
1444:SynaptiX_FDK/services/fatfs/ff.c **** static FRESULT remove_chain (	/* FR_OK(0):succeeded, !=0:error */
1445:SynaptiX_FDK/services/fatfs/ff.c **** 	FFOBJID* obj,		/* Corresponding object */
1446:SynaptiX_FDK/services/fatfs/ff.c **** 	DWORD clst,			/* Cluster to remove a chain from */
1447:SynaptiX_FDK/services/fatfs/ff.c **** 	DWORD pclst			/* Previous cluster of clst (0 if entire chain) */
1448:SynaptiX_FDK/services/fatfs/ff.c **** )
1449:SynaptiX_FDK/services/fatfs/ff.c **** {
1450:SynaptiX_FDK/services/fatfs/ff.c **** 	FRESULT res = FR_OK;
1451:SynaptiX_FDK/services/fatfs/ff.c **** 	DWORD nxt;
1452:SynaptiX_FDK/services/fatfs/ff.c **** 	FATFS *fs = obj->fs;
ARM GAS  C:\Users\DELL\AppData\Local\Temp\ccO3UVpA.s 			page 31


1453:SynaptiX_FDK/services/fatfs/ff.c **** #if FF_FS_EXFAT || FF_USE_TRIM
1454:SynaptiX_FDK/services/fatfs/ff.c **** 	DWORD scl = clst, ecl = clst;
1455:SynaptiX_FDK/services/fatfs/ff.c **** #endif
1456:SynaptiX_FDK/services/fatfs/ff.c **** #if FF_USE_TRIM
1457:SynaptiX_FDK/services/fatfs/ff.c **** 	LBA_t rt[2];
1458:SynaptiX_FDK/services/fatfs/ff.c **** #endif
1459:SynaptiX_FDK/services/fatfs/ff.c **** 
1460:SynaptiX_FDK/services/fatfs/ff.c **** 	if (clst < 2 || clst >= fs->n_fatent) return FR_INT_ERR;	/* Check if in valid range */
1461:SynaptiX_FDK/services/fatfs/ff.c **** 
1462:SynaptiX_FDK/services/fatfs/ff.c **** 	/* Mark the previous cluster 'EOC' on the FAT if it exists */
1463:SynaptiX_FDK/services/fatfs/ff.c **** 	if (pclst != 0 && (!FF_FS_EXFAT || fs->fs_type != FS_EXFAT || obj->stat != 2)) {
1464:SynaptiX_FDK/services/fatfs/ff.c **** 		res = put_fat(fs, pclst, 0xFFFFFFFF);
1465:SynaptiX_FDK/services/fatfs/ff.c **** 		if (res != FR_OK) return res;
1466:SynaptiX_FDK/services/fatfs/ff.c **** 	}
1467:SynaptiX_FDK/services/fatfs/ff.c **** 
1468:SynaptiX_FDK/services/fatfs/ff.c **** 	/* Remove the chain */
1469:SynaptiX_FDK/services/fatfs/ff.c **** 	do {
1470:SynaptiX_FDK/services/fatfs/ff.c **** 		nxt = get_fat(obj, clst);			/* Get cluster status */
1471:SynaptiX_FDK/services/fatfs/ff.c **** 		if (nxt == 0) break;				/* Empty cluster? */
1472:SynaptiX_FDK/services/fatfs/ff.c **** 		if (nxt == 1) return FR_INT_ERR;	/* Internal error? */
1473:SynaptiX_FDK/services/fatfs/ff.c **** 		if (nxt == 0xFFFFFFFF) return FR_DISK_ERR;	/* Disk error? */
1474:SynaptiX_FDK/services/fatfs/ff.c **** 		if (!FF_FS_EXFAT || fs->fs_type != FS_EXFAT) {
1475:SynaptiX_FDK/services/fatfs/ff.c **** 			res = put_fat(fs, clst, 0);		/* Mark the cluster 'free' on the FAT */
1476:SynaptiX_FDK/services/fatfs/ff.c **** 			if (res != FR_OK) return res;
1477:SynaptiX_FDK/services/fatfs/ff.c **** 		}
1478:SynaptiX_FDK/services/fatfs/ff.c **** 		if (fs->free_clst < fs->n_fatent - 2) {	/* Update allocation information if it is valid */
1479:SynaptiX_FDK/services/fatfs/ff.c **** 			fs->free_clst++;
1480:SynaptiX_FDK/services/fatfs/ff.c **** 			fs->fsi_flag |= 1;
1481:SynaptiX_FDK/services/fatfs/ff.c **** 		}
1482:SynaptiX_FDK/services/fatfs/ff.c **** #if FF_FS_EXFAT || FF_USE_TRIM
1483:SynaptiX_FDK/services/fatfs/ff.c **** 		if (ecl + 1 == nxt) {	/* Is next cluster contiguous? */
1484:SynaptiX_FDK/services/fatfs/ff.c **** 			ecl = nxt;
1485:SynaptiX_FDK/services/fatfs/ff.c **** 		} else {				/* End of contiguous cluster block */
1486:SynaptiX_FDK/services/fatfs/ff.c **** #if FF_FS_EXFAT
1487:SynaptiX_FDK/services/fatfs/ff.c **** 			if (fs->fs_type == FS_EXFAT) {
1488:SynaptiX_FDK/services/fatfs/ff.c **** 				res = change_bitmap(fs, scl, ecl - scl + 1, 0);	/* Mark the cluster block 'free' on the bitmap 
1489:SynaptiX_FDK/services/fatfs/ff.c **** 				if (res != FR_OK) return res;
1490:SynaptiX_FDK/services/fatfs/ff.c **** 			}
1491:SynaptiX_FDK/services/fatfs/ff.c **** #endif
1492:SynaptiX_FDK/services/fatfs/ff.c **** #if FF_USE_TRIM
1493:SynaptiX_FDK/services/fatfs/ff.c **** 			rt[0] = clst2sect(fs, scl);					/* Start of data area to be freed */
1494:SynaptiX_FDK/services/fatfs/ff.c **** 			rt[1] = clst2sect(fs, ecl) + fs->csize - 1;	/* End of data area to be freed */
1495:SynaptiX_FDK/services/fatfs/ff.c **** 			disk_ioctl(fs->pdrv, CTRL_TRIM, rt);		/* Inform storage device that the data in the block may be
1496:SynaptiX_FDK/services/fatfs/ff.c **** #endif
1497:SynaptiX_FDK/services/fatfs/ff.c **** 			scl = ecl = nxt;
1498:SynaptiX_FDK/services/fatfs/ff.c **** 		}
1499:SynaptiX_FDK/services/fatfs/ff.c **** #endif
1500:SynaptiX_FDK/services/fatfs/ff.c **** 		clst = nxt;					/* Next cluster */
1501:SynaptiX_FDK/services/fatfs/ff.c **** 	} while (clst < fs->n_fatent);	/* Repeat until the last link */
1502:SynaptiX_FDK/services/fatfs/ff.c **** 
1503:SynaptiX_FDK/services/fatfs/ff.c **** #if FF_FS_EXFAT
1504:SynaptiX_FDK/services/fatfs/ff.c **** 	/* Some post processes for chain status */
1505:SynaptiX_FDK/services/fatfs/ff.c **** 	if (fs->fs_type == FS_EXFAT) {
1506:SynaptiX_FDK/services/fatfs/ff.c **** 		if (pclst == 0) {	/* Has the entire chain been removed? */
1507:SynaptiX_FDK/services/fatfs/ff.c **** 			obj->stat = 0;		/* Change the chain status 'initial' */
1508:SynaptiX_FDK/services/fatfs/ff.c **** 		} else {
1509:SynaptiX_FDK/services/fatfs/ff.c **** 			if (obj->stat == 0) {	/* Is it a fragmented chain from the beginning of this session? */
ARM GAS  C:\Users\DELL\AppData\Local\Temp\ccO3UVpA.s 			page 32


1510:SynaptiX_FDK/services/fatfs/ff.c **** 				clst = obj->sclust;		/* Follow the chain to check if it gets contiguous */
1511:SynaptiX_FDK/services/fatfs/ff.c **** 				while (clst != pclst) {
1512:SynaptiX_FDK/services/fatfs/ff.c **** 					nxt = get_fat(obj, clst);
1513:SynaptiX_FDK/services/fatfs/ff.c **** 					if (nxt < 2) return FR_INT_ERR;
1514:SynaptiX_FDK/services/fatfs/ff.c **** 					if (nxt == 0xFFFFFFFF) return FR_DISK_ERR;
1515:SynaptiX_FDK/services/fatfs/ff.c **** 					if (nxt != clst + 1) break;	/* Not contiguous? */
1516:SynaptiX_FDK/services/fatfs/ff.c **** 					clst++;
1517:SynaptiX_FDK/services/fatfs/ff.c **** 				}
1518:SynaptiX_FDK/services/fatfs/ff.c **** 				if (clst == pclst) {	/* Has the chain got contiguous again? */
1519:SynaptiX_FDK/services/fatfs/ff.c **** 					obj->stat = 2;		/* Change the chain status 'contiguous' */
1520:SynaptiX_FDK/services/fatfs/ff.c **** 				}
1521:SynaptiX_FDK/services/fatfs/ff.c **** 			} else {
1522:SynaptiX_FDK/services/fatfs/ff.c **** 				if (obj->stat == 3 && pclst >= obj->sclust && pclst <= obj->sclust + obj->n_cont) {	/* Was the 
1523:SynaptiX_FDK/services/fatfs/ff.c **** 					obj->stat = 2;	/* Change the chain status 'contiguous' */
1524:SynaptiX_FDK/services/fatfs/ff.c **** 				}
1525:SynaptiX_FDK/services/fatfs/ff.c **** 			}
1526:SynaptiX_FDK/services/fatfs/ff.c **** 		}
1527:SynaptiX_FDK/services/fatfs/ff.c **** 	}
1528:SynaptiX_FDK/services/fatfs/ff.c **** #endif
1529:SynaptiX_FDK/services/fatfs/ff.c **** 	return FR_OK;
1530:SynaptiX_FDK/services/fatfs/ff.c **** }
1531:SynaptiX_FDK/services/fatfs/ff.c **** 
1532:SynaptiX_FDK/services/fatfs/ff.c **** 
1533:SynaptiX_FDK/services/fatfs/ff.c **** 
1534:SynaptiX_FDK/services/fatfs/ff.c **** 
1535:SynaptiX_FDK/services/fatfs/ff.c **** /*-----------------------------------------------------------------------*/
1536:SynaptiX_FDK/services/fatfs/ff.c **** /* FAT handling - Stretch a chain or Create a new chain                  */
1537:SynaptiX_FDK/services/fatfs/ff.c **** /*-----------------------------------------------------------------------*/
1538:SynaptiX_FDK/services/fatfs/ff.c **** 
1539:SynaptiX_FDK/services/fatfs/ff.c **** static DWORD create_chain (	/* 0:No free cluster, 1:Internal error, 0xFFFFFFFF:Disk error, >=2:New 
1540:SynaptiX_FDK/services/fatfs/ff.c **** 	FFOBJID* obj,		/* Corresponding object */
1541:SynaptiX_FDK/services/fatfs/ff.c **** 	DWORD clst			/* Cluster# to stretch, 0:Create a new chain */
1542:SynaptiX_FDK/services/fatfs/ff.c **** )
1543:SynaptiX_FDK/services/fatfs/ff.c **** {
1544:SynaptiX_FDK/services/fatfs/ff.c **** 	DWORD cs, ncl, scl;
1545:SynaptiX_FDK/services/fatfs/ff.c **** 	FRESULT res;
1546:SynaptiX_FDK/services/fatfs/ff.c **** 	FATFS *fs = obj->fs;
1547:SynaptiX_FDK/services/fatfs/ff.c **** 
1548:SynaptiX_FDK/services/fatfs/ff.c **** 
1549:SynaptiX_FDK/services/fatfs/ff.c **** 	if (clst == 0) {	/* Create a new chain */
1550:SynaptiX_FDK/services/fatfs/ff.c **** 		scl = fs->last_clst;				/* Suggested cluster to start to find */
1551:SynaptiX_FDK/services/fatfs/ff.c **** 		if (scl == 0 || scl >= fs->n_fatent) scl = 1;
1552:SynaptiX_FDK/services/fatfs/ff.c **** 	}
1553:SynaptiX_FDK/services/fatfs/ff.c **** 	else {				/* Stretch a chain */
1554:SynaptiX_FDK/services/fatfs/ff.c **** 		cs = get_fat(obj, clst);			/* Check the cluster status */
1555:SynaptiX_FDK/services/fatfs/ff.c **** 		if (cs < 2) return 1;				/* Test for insanity */
1556:SynaptiX_FDK/services/fatfs/ff.c **** 		if (cs == 0xFFFFFFFF) return cs;	/* Test for disk error */
1557:SynaptiX_FDK/services/fatfs/ff.c **** 		if (cs < fs->n_fatent) return cs;	/* It is already followed by next cluster */
1558:SynaptiX_FDK/services/fatfs/ff.c **** 		scl = clst;							/* Cluster to start to find */
1559:SynaptiX_FDK/services/fatfs/ff.c **** 	}
1560:SynaptiX_FDK/services/fatfs/ff.c **** 	if (fs->free_clst == 0) return 0;		/* No free cluster */
1561:SynaptiX_FDK/services/fatfs/ff.c **** 
1562:SynaptiX_FDK/services/fatfs/ff.c **** #if FF_FS_EXFAT
1563:SynaptiX_FDK/services/fatfs/ff.c **** 	if (fs->fs_type == FS_EXFAT) {	/* On the exFAT volume */
1564:SynaptiX_FDK/services/fatfs/ff.c **** 		ncl = find_bitmap(fs, scl, 1);				/* Find a free cluster */
1565:SynaptiX_FDK/services/fatfs/ff.c **** 		if (ncl == 0 || ncl == 0xFFFFFFFF) return ncl;	/* No free cluster or hard error? */
1566:SynaptiX_FDK/services/fatfs/ff.c **** 		res = change_bitmap(fs, ncl, 1, 1);			/* Mark the cluster 'in use' */
ARM GAS  C:\Users\DELL\AppData\Local\Temp\ccO3UVpA.s 			page 33


1567:SynaptiX_FDK/services/fatfs/ff.c **** 		if (res == FR_INT_ERR) return 1;
1568:SynaptiX_FDK/services/fatfs/ff.c **** 		if (res == FR_DISK_ERR) return 0xFFFFFFFF;
1569:SynaptiX_FDK/services/fatfs/ff.c **** 		if (clst == 0) {							/* Is it a new chain? */
1570:SynaptiX_FDK/services/fatfs/ff.c **** 			obj->stat = 2;							/* Set status 'contiguous' */
1571:SynaptiX_FDK/services/fatfs/ff.c **** 		} else {									/* It is a stretched chain */
1572:SynaptiX_FDK/services/fatfs/ff.c **** 			if (obj->stat == 2 && ncl != scl + 1) {	/* Is the chain got fragmented? */
1573:SynaptiX_FDK/services/fatfs/ff.c **** 				obj->n_cont = scl - obj->sclust;	/* Set size of the contiguous part */
1574:SynaptiX_FDK/services/fatfs/ff.c **** 				obj->stat = 3;						/* Change status 'just fragmented' */
1575:SynaptiX_FDK/services/fatfs/ff.c **** 			}
1576:SynaptiX_FDK/services/fatfs/ff.c **** 		}
1577:SynaptiX_FDK/services/fatfs/ff.c **** 		if (obj->stat != 2) {	/* Is the file non-contiguous? */
1578:SynaptiX_FDK/services/fatfs/ff.c **** 			if (ncl == clst + 1) {	/* Is the cluster next to previous one? */
1579:SynaptiX_FDK/services/fatfs/ff.c **** 				obj->n_frag = obj->n_frag ? obj->n_frag + 1 : 2;	/* Increment size of last framgent */
1580:SynaptiX_FDK/services/fatfs/ff.c **** 			} else {				/* New fragment */
1581:SynaptiX_FDK/services/fatfs/ff.c **** 				if (obj->n_frag == 0) obj->n_frag = 1;
1582:SynaptiX_FDK/services/fatfs/ff.c **** 				res = fill_last_frag(obj, clst, ncl);	/* Fill last fragment on the FAT and link it to new one *
1583:SynaptiX_FDK/services/fatfs/ff.c **** 				if (res == FR_OK) obj->n_frag = 1;
1584:SynaptiX_FDK/services/fatfs/ff.c **** 			}
1585:SynaptiX_FDK/services/fatfs/ff.c **** 		}
1586:SynaptiX_FDK/services/fatfs/ff.c **** 	} else
1587:SynaptiX_FDK/services/fatfs/ff.c **** #endif
1588:SynaptiX_FDK/services/fatfs/ff.c **** 	{	/* On the FAT/FAT32 volume */
1589:SynaptiX_FDK/services/fatfs/ff.c **** 		ncl = 0;
1590:SynaptiX_FDK/services/fatfs/ff.c **** 		if (scl == clst) {						/* Stretching an existing chain? */
1591:SynaptiX_FDK/services/fatfs/ff.c **** 			ncl = scl + 1;						/* Test if next cluster is free */
1592:SynaptiX_FDK/services/fatfs/ff.c **** 			if (ncl >= fs->n_fatent) ncl = 2;
1593:SynaptiX_FDK/services/fatfs/ff.c **** 			cs = get_fat(obj, ncl);				/* Get next cluster status */
1594:SynaptiX_FDK/services/fatfs/ff.c **** 			if (cs == 1 || cs == 0xFFFFFFFF) return cs;	/* Test for error */
1595:SynaptiX_FDK/services/fatfs/ff.c **** 			if (cs != 0) {						/* Not free? */
1596:SynaptiX_FDK/services/fatfs/ff.c **** 				cs = fs->last_clst;				/* Start at suggested cluster if it is valid */
1597:SynaptiX_FDK/services/fatfs/ff.c **** 				if (cs >= 2 && cs < fs->n_fatent) scl = cs;
1598:SynaptiX_FDK/services/fatfs/ff.c **** 				ncl = 0;
1599:SynaptiX_FDK/services/fatfs/ff.c **** 			}
1600:SynaptiX_FDK/services/fatfs/ff.c **** 		}
1601:SynaptiX_FDK/services/fatfs/ff.c **** 		if (ncl == 0) {	/* The new cluster cannot be contiguous and find another fragment */
1602:SynaptiX_FDK/services/fatfs/ff.c **** 			ncl = scl;	/* Start cluster */
1603:SynaptiX_FDK/services/fatfs/ff.c **** 			for (;;) {
1604:SynaptiX_FDK/services/fatfs/ff.c **** 				ncl++;							/* Next cluster */
1605:SynaptiX_FDK/services/fatfs/ff.c **** 				if (ncl >= fs->n_fatent) {		/* Check wrap-around */
1606:SynaptiX_FDK/services/fatfs/ff.c **** 					ncl = 2;
1607:SynaptiX_FDK/services/fatfs/ff.c **** 					if (ncl > scl) return 0;	/* No free cluster found? */
1608:SynaptiX_FDK/services/fatfs/ff.c **** 				}
1609:SynaptiX_FDK/services/fatfs/ff.c **** 				cs = get_fat(obj, ncl);			/* Get the cluster status */
1610:SynaptiX_FDK/services/fatfs/ff.c **** 				if (cs == 0) break;				/* Found a free cluster? */
1611:SynaptiX_FDK/services/fatfs/ff.c **** 				if (cs == 1 || cs == 0xFFFFFFFF) return cs;	/* Test for error */
1612:SynaptiX_FDK/services/fatfs/ff.c **** 				if (ncl == scl) return 0;		/* No free cluster found? */
1613:SynaptiX_FDK/services/fatfs/ff.c **** 			}
1614:SynaptiX_FDK/services/fatfs/ff.c **** 		}
1615:SynaptiX_FDK/services/fatfs/ff.c **** 		res = put_fat(fs, ncl, 0xFFFFFFFF);		/* Mark the new cluster 'EOC' */
1616:SynaptiX_FDK/services/fatfs/ff.c **** 		if (res == FR_OK && clst != 0) {
1617:SynaptiX_FDK/services/fatfs/ff.c **** 			res = put_fat(fs, clst, ncl);		/* Link it from the previous one if needed */
1618:SynaptiX_FDK/services/fatfs/ff.c **** 		}
1619:SynaptiX_FDK/services/fatfs/ff.c **** 	}
1620:SynaptiX_FDK/services/fatfs/ff.c **** 
1621:SynaptiX_FDK/services/fatfs/ff.c **** 	if (res == FR_OK) {			/* Update allocation information if the function succeeded */
1622:SynaptiX_FDK/services/fatfs/ff.c **** 		fs->last_clst = ncl;
1623:SynaptiX_FDK/services/fatfs/ff.c **** 		if (fs->free_clst > 0 && fs->free_clst <= fs->n_fatent - 2) {
ARM GAS  C:\Users\DELL\AppData\Local\Temp\ccO3UVpA.s 			page 34


1624:SynaptiX_FDK/services/fatfs/ff.c **** 			fs->free_clst--;
1625:SynaptiX_FDK/services/fatfs/ff.c **** 			fs->fsi_flag |= 1;
1626:SynaptiX_FDK/services/fatfs/ff.c **** 		}
1627:SynaptiX_FDK/services/fatfs/ff.c **** 	} else {
1628:SynaptiX_FDK/services/fatfs/ff.c **** 		ncl = (res == FR_DISK_ERR) ? 0xFFFFFFFF : 1;	/* Failed. Generate error status */
1629:SynaptiX_FDK/services/fatfs/ff.c **** 	}
1630:SynaptiX_FDK/services/fatfs/ff.c **** 
1631:SynaptiX_FDK/services/fatfs/ff.c **** 	return ncl;		/* Return new cluster number or error status */
1632:SynaptiX_FDK/services/fatfs/ff.c **** }
1633:SynaptiX_FDK/services/fatfs/ff.c **** 
1634:SynaptiX_FDK/services/fatfs/ff.c **** #endif /* !FF_FS_READONLY */
1635:SynaptiX_FDK/services/fatfs/ff.c **** 
1636:SynaptiX_FDK/services/fatfs/ff.c **** 
1637:SynaptiX_FDK/services/fatfs/ff.c **** 
1638:SynaptiX_FDK/services/fatfs/ff.c **** 
1639:SynaptiX_FDK/services/fatfs/ff.c **** #if FF_USE_FASTSEEK
1640:SynaptiX_FDK/services/fatfs/ff.c **** /*-----------------------------------------------------------------------*/
1641:SynaptiX_FDK/services/fatfs/ff.c **** /* FAT handling - Convert offset into cluster with link map table        */
1642:SynaptiX_FDK/services/fatfs/ff.c **** /*-----------------------------------------------------------------------*/
1643:SynaptiX_FDK/services/fatfs/ff.c **** 
1644:SynaptiX_FDK/services/fatfs/ff.c **** static DWORD clmt_clust (	/* <2:Error, >=2:Cluster number */
1645:SynaptiX_FDK/services/fatfs/ff.c **** 	FIL* fp,		/* Pointer to the file object */
1646:SynaptiX_FDK/services/fatfs/ff.c **** 	FSIZE_t ofs		/* File offset to be converted to cluster# */
1647:SynaptiX_FDK/services/fatfs/ff.c **** )
1648:SynaptiX_FDK/services/fatfs/ff.c **** {
1649:SynaptiX_FDK/services/fatfs/ff.c **** 	DWORD cl, ncl;
1650:SynaptiX_FDK/services/fatfs/ff.c **** 	DWORD *tbl;
1651:SynaptiX_FDK/services/fatfs/ff.c **** 	FATFS *fs = fp->obj.fs;
1652:SynaptiX_FDK/services/fatfs/ff.c **** 
1653:SynaptiX_FDK/services/fatfs/ff.c **** 
1654:SynaptiX_FDK/services/fatfs/ff.c **** 	tbl = fp->cltbl + 1;	/* Top of CLMT */
1655:SynaptiX_FDK/services/fatfs/ff.c **** 	cl = (DWORD)(ofs / SS(fs) / fs->csize);	/* Cluster order from top of the file */
1656:SynaptiX_FDK/services/fatfs/ff.c **** 	for (;;) {
1657:SynaptiX_FDK/services/fatfs/ff.c **** 		ncl = *tbl++;			/* Number of cluters in the fragment */
1658:SynaptiX_FDK/services/fatfs/ff.c **** 		if (ncl == 0) return 0;	/* End of table? (error) */
1659:SynaptiX_FDK/services/fatfs/ff.c **** 		if (cl < ncl) break;	/* In this fragment? */
1660:SynaptiX_FDK/services/fatfs/ff.c **** 		cl -= ncl; tbl++;		/* Next fragment */
1661:SynaptiX_FDK/services/fatfs/ff.c **** 	}
1662:SynaptiX_FDK/services/fatfs/ff.c **** 	return cl + *tbl;	/* Return the cluster number */
1663:SynaptiX_FDK/services/fatfs/ff.c **** }
1664:SynaptiX_FDK/services/fatfs/ff.c **** 
1665:SynaptiX_FDK/services/fatfs/ff.c **** #endif	/* FF_USE_FASTSEEK */
1666:SynaptiX_FDK/services/fatfs/ff.c **** 
1667:SynaptiX_FDK/services/fatfs/ff.c **** 
1668:SynaptiX_FDK/services/fatfs/ff.c **** 
1669:SynaptiX_FDK/services/fatfs/ff.c **** 
1670:SynaptiX_FDK/services/fatfs/ff.c **** /*-----------------------------------------------------------------------*/
1671:SynaptiX_FDK/services/fatfs/ff.c **** /* Directory handling - Fill a cluster with zeros                        */
1672:SynaptiX_FDK/services/fatfs/ff.c **** /*-----------------------------------------------------------------------*/
1673:SynaptiX_FDK/services/fatfs/ff.c **** 
1674:SynaptiX_FDK/services/fatfs/ff.c **** #if !FF_FS_READONLY
1675:SynaptiX_FDK/services/fatfs/ff.c **** static FRESULT dir_clear (	/* Returns FR_OK or FR_DISK_ERR */
1676:SynaptiX_FDK/services/fatfs/ff.c **** 	FATFS *fs,		/* Filesystem object */
1677:SynaptiX_FDK/services/fatfs/ff.c **** 	DWORD clst		/* Directory table to clear */
1678:SynaptiX_FDK/services/fatfs/ff.c **** )
1679:SynaptiX_FDK/services/fatfs/ff.c **** {
1680:SynaptiX_FDK/services/fatfs/ff.c **** 	LBA_t sect;
ARM GAS  C:\Users\DELL\AppData\Local\Temp\ccO3UVpA.s 			page 35


1681:SynaptiX_FDK/services/fatfs/ff.c **** 	UINT n, szb;
1682:SynaptiX_FDK/services/fatfs/ff.c **** 	BYTE *ibuf;
1683:SynaptiX_FDK/services/fatfs/ff.c **** 
1684:SynaptiX_FDK/services/fatfs/ff.c **** 
1685:SynaptiX_FDK/services/fatfs/ff.c **** 	if (sync_window(fs) != FR_OK) return FR_DISK_ERR;	/* Flush disk access window */
1686:SynaptiX_FDK/services/fatfs/ff.c **** 	sect = clst2sect(fs, clst);		/* Top of the cluster */
1687:SynaptiX_FDK/services/fatfs/ff.c **** 	fs->winsect = sect;				/* Set window to top of the cluster */
1688:SynaptiX_FDK/services/fatfs/ff.c **** 	memset(fs->win, 0, sizeof fs->win);	/* Clear window buffer */
1689:SynaptiX_FDK/services/fatfs/ff.c **** #if FF_USE_LFN == 3		/* Quick table clear by using multi-secter write */
1690:SynaptiX_FDK/services/fatfs/ff.c **** 	/* Allocate a temporary buffer */
1691:SynaptiX_FDK/services/fatfs/ff.c **** 	for (szb = ((DWORD)fs->csize * SS(fs) >= MAX_MALLOC) ? MAX_MALLOC : fs->csize * SS(fs), ibuf = 0; 
1692:SynaptiX_FDK/services/fatfs/ff.c **** 	if (szb > SS(fs)) {		/* Buffer allocated? */
1693:SynaptiX_FDK/services/fatfs/ff.c **** 		memset(ibuf, 0, szb);
1694:SynaptiX_FDK/services/fatfs/ff.c **** 		szb /= SS(fs);		/* Bytes -> Sectors */
1695:SynaptiX_FDK/services/fatfs/ff.c **** 		for (n = 0; n < fs->csize && disk_write(fs->pdrv, ibuf, sect + n, szb) == RES_OK; n += szb) ;	/* 
1696:SynaptiX_FDK/services/fatfs/ff.c **** 		ff_memfree(ibuf);
1697:SynaptiX_FDK/services/fatfs/ff.c **** 	} else
1698:SynaptiX_FDK/services/fatfs/ff.c **** #endif
1699:SynaptiX_FDK/services/fatfs/ff.c **** 	{
1700:SynaptiX_FDK/services/fatfs/ff.c **** 		ibuf = fs->win; szb = 1;	/* Use window buffer (many single-sector writes may take a time) */
1701:SynaptiX_FDK/services/fatfs/ff.c **** 		for (n = 0; n < fs->csize && disk_write(fs->pdrv, ibuf, sect + n, szb) == RES_OK; n += szb) ;	/* 
1702:SynaptiX_FDK/services/fatfs/ff.c **** 	}
1703:SynaptiX_FDK/services/fatfs/ff.c **** 	return (n == fs->csize) ? FR_OK : FR_DISK_ERR;
1704:SynaptiX_FDK/services/fatfs/ff.c **** }
1705:SynaptiX_FDK/services/fatfs/ff.c **** #endif	/* !FF_FS_READONLY */
1706:SynaptiX_FDK/services/fatfs/ff.c **** 
1707:SynaptiX_FDK/services/fatfs/ff.c **** 
1708:SynaptiX_FDK/services/fatfs/ff.c **** 
1709:SynaptiX_FDK/services/fatfs/ff.c **** 
1710:SynaptiX_FDK/services/fatfs/ff.c **** /*-----------------------------------------------------------------------*/
1711:SynaptiX_FDK/services/fatfs/ff.c **** /* Directory handling - Set directory index                              */
1712:SynaptiX_FDK/services/fatfs/ff.c **** /*-----------------------------------------------------------------------*/
1713:SynaptiX_FDK/services/fatfs/ff.c **** 
1714:SynaptiX_FDK/services/fatfs/ff.c **** static FRESULT dir_sdi (	/* FR_OK(0):succeeded, !=0:error */
1715:SynaptiX_FDK/services/fatfs/ff.c **** 	DIR* dp,		/* Pointer to directory object */
1716:SynaptiX_FDK/services/fatfs/ff.c **** 	DWORD ofs		/* Offset of directory table */
1717:SynaptiX_FDK/services/fatfs/ff.c **** )
1718:SynaptiX_FDK/services/fatfs/ff.c **** {
1719:SynaptiX_FDK/services/fatfs/ff.c **** 	DWORD csz, clst;
1720:SynaptiX_FDK/services/fatfs/ff.c **** 	FATFS *fs = dp->obj.fs;
1721:SynaptiX_FDK/services/fatfs/ff.c **** 
1722:SynaptiX_FDK/services/fatfs/ff.c **** 
1723:SynaptiX_FDK/services/fatfs/ff.c **** 	if (ofs >= (DWORD)((FF_FS_EXFAT && fs->fs_type == FS_EXFAT) ? MAX_DIR_EX : MAX_DIR) || ofs % SZDIR
1724:SynaptiX_FDK/services/fatfs/ff.c **** 		return FR_INT_ERR;
1725:SynaptiX_FDK/services/fatfs/ff.c **** 	}
1726:SynaptiX_FDK/services/fatfs/ff.c **** 	dp->dptr = ofs;				/* Set current offset */
1727:SynaptiX_FDK/services/fatfs/ff.c **** 	clst = dp->obj.sclust;		/* Table start cluster (0:root) */
1728:SynaptiX_FDK/services/fatfs/ff.c **** 	if (clst == 0 && fs->fs_type >= FS_FAT32) {	/* Replace cluster# 0 with root cluster# */
1729:SynaptiX_FDK/services/fatfs/ff.c **** 		clst = (DWORD)fs->dirbase;
1730:SynaptiX_FDK/services/fatfs/ff.c **** 		if (FF_FS_EXFAT) dp->obj.stat = 0;	/* exFAT: Root dir has an FAT chain */
1731:SynaptiX_FDK/services/fatfs/ff.c **** 	}
1732:SynaptiX_FDK/services/fatfs/ff.c **** 
1733:SynaptiX_FDK/services/fatfs/ff.c **** 	if (clst == 0) {	/* Static table (root-directory on the FAT volume) */
1734:SynaptiX_FDK/services/fatfs/ff.c **** 		if (ofs / SZDIRE >= fs->n_rootdir) return FR_INT_ERR;	/* Is index out of range? */
1735:SynaptiX_FDK/services/fatfs/ff.c **** 		dp->sect = fs->dirbase;
1736:SynaptiX_FDK/services/fatfs/ff.c **** 
1737:SynaptiX_FDK/services/fatfs/ff.c **** 	} else {			/* Dynamic table (sub-directory or root-directory on the FAT32/exFAT volume) */
ARM GAS  C:\Users\DELL\AppData\Local\Temp\ccO3UVpA.s 			page 36


1738:SynaptiX_FDK/services/fatfs/ff.c **** 		csz = (DWORD)fs->csize * SS(fs);	/* Bytes per cluster */
1739:SynaptiX_FDK/services/fatfs/ff.c **** 		while (ofs >= csz) {				/* Follow cluster chain */
1740:SynaptiX_FDK/services/fatfs/ff.c **** 			clst = get_fat(&dp->obj, clst);				/* Get next cluster */
1741:SynaptiX_FDK/services/fatfs/ff.c **** 			if (clst == 0xFFFFFFFF) return FR_DISK_ERR;	/* Disk error */
1742:SynaptiX_FDK/services/fatfs/ff.c **** 			if (clst < 2 || clst >= fs->n_fatent) return FR_INT_ERR;	/* Reached to end of table or internal 
1743:SynaptiX_FDK/services/fatfs/ff.c **** 			ofs -= csz;
1744:SynaptiX_FDK/services/fatfs/ff.c **** 		}
1745:SynaptiX_FDK/services/fatfs/ff.c **** 		dp->sect = clst2sect(fs, clst);
1746:SynaptiX_FDK/services/fatfs/ff.c **** 	}
1747:SynaptiX_FDK/services/fatfs/ff.c **** 	dp->clust = clst;					/* Current cluster# */
1748:SynaptiX_FDK/services/fatfs/ff.c **** 	if (dp->sect == 0) return FR_INT_ERR;
1749:SynaptiX_FDK/services/fatfs/ff.c **** 	dp->sect += ofs / SS(fs);			/* Sector# of the directory entry */
1750:SynaptiX_FDK/services/fatfs/ff.c **** 	dp->dir = fs->win + (ofs % SS(fs));	/* Pointer to the entry in the win[] */
1751:SynaptiX_FDK/services/fatfs/ff.c **** 
1752:SynaptiX_FDK/services/fatfs/ff.c **** 	return FR_OK;
1753:SynaptiX_FDK/services/fatfs/ff.c **** }
1754:SynaptiX_FDK/services/fatfs/ff.c **** 
1755:SynaptiX_FDK/services/fatfs/ff.c **** 
1756:SynaptiX_FDK/services/fatfs/ff.c **** 
1757:SynaptiX_FDK/services/fatfs/ff.c **** 
1758:SynaptiX_FDK/services/fatfs/ff.c **** /*-----------------------------------------------------------------------*/
1759:SynaptiX_FDK/services/fatfs/ff.c **** /* Directory handling - Move directory table index next                  */
1760:SynaptiX_FDK/services/fatfs/ff.c **** /*-----------------------------------------------------------------------*/
1761:SynaptiX_FDK/services/fatfs/ff.c **** 
1762:SynaptiX_FDK/services/fatfs/ff.c **** static FRESULT dir_next (	/* FR_OK(0):succeeded, FR_NO_FILE:End of table, FR_DENIED:Could not stret
1763:SynaptiX_FDK/services/fatfs/ff.c **** 	DIR* dp,				/* Pointer to the directory object */
1764:SynaptiX_FDK/services/fatfs/ff.c **** 	int stretch				/* 0: Do not stretch table, 1: Stretch table if needed */
1765:SynaptiX_FDK/services/fatfs/ff.c **** )
1766:SynaptiX_FDK/services/fatfs/ff.c **** {
1767:SynaptiX_FDK/services/fatfs/ff.c **** 	DWORD ofs, clst;
1768:SynaptiX_FDK/services/fatfs/ff.c **** 	FATFS *fs = dp->obj.fs;
1769:SynaptiX_FDK/services/fatfs/ff.c **** 
1770:SynaptiX_FDK/services/fatfs/ff.c **** 
1771:SynaptiX_FDK/services/fatfs/ff.c **** 	ofs = dp->dptr + SZDIRE;	/* Next entry */
1772:SynaptiX_FDK/services/fatfs/ff.c **** 	if (ofs >= (DWORD)((FF_FS_EXFAT && fs->fs_type == FS_EXFAT) ? MAX_DIR_EX : MAX_DIR)) dp->sect = 0;
1773:SynaptiX_FDK/services/fatfs/ff.c **** 	if (dp->sect == 0) return FR_NO_FILE;	/* Report EOT if it has been disabled */
1774:SynaptiX_FDK/services/fatfs/ff.c **** 
1775:SynaptiX_FDK/services/fatfs/ff.c **** 	if (ofs % SS(fs) == 0) {	/* Sector changed? */
1776:SynaptiX_FDK/services/fatfs/ff.c **** 		dp->sect++;				/* Next sector */
1777:SynaptiX_FDK/services/fatfs/ff.c **** 
1778:SynaptiX_FDK/services/fatfs/ff.c **** 		if (dp->clust == 0) {	/* Static table */
1779:SynaptiX_FDK/services/fatfs/ff.c **** 			if (ofs / SZDIRE >= fs->n_rootdir) {	/* Report EOT if it reached end of static table */
1780:SynaptiX_FDK/services/fatfs/ff.c **** 				dp->sect = 0; return FR_NO_FILE;
1781:SynaptiX_FDK/services/fatfs/ff.c **** 			}
1782:SynaptiX_FDK/services/fatfs/ff.c **** 		}
1783:SynaptiX_FDK/services/fatfs/ff.c **** 		else {					/* Dynamic table */
1784:SynaptiX_FDK/services/fatfs/ff.c **** 			if ((ofs / SS(fs) & (fs->csize - 1)) == 0) {	/* Cluster changed? */
1785:SynaptiX_FDK/services/fatfs/ff.c **** 				clst = get_fat(&dp->obj, dp->clust);		/* Get next cluster */
1786:SynaptiX_FDK/services/fatfs/ff.c **** 				if (clst <= 1) return FR_INT_ERR;			/* Internal error */
1787:SynaptiX_FDK/services/fatfs/ff.c **** 				if (clst == 0xFFFFFFFF) return FR_DISK_ERR;	/* Disk error */
1788:SynaptiX_FDK/services/fatfs/ff.c **** 				if (clst >= fs->n_fatent) {					/* It reached end of dynamic table */
1789:SynaptiX_FDK/services/fatfs/ff.c **** #if !FF_FS_READONLY
1790:SynaptiX_FDK/services/fatfs/ff.c **** 					if (!stretch) {								/* If no stretch, report EOT */
1791:SynaptiX_FDK/services/fatfs/ff.c **** 						dp->sect = 0; return FR_NO_FILE;
1792:SynaptiX_FDK/services/fatfs/ff.c **** 					}
1793:SynaptiX_FDK/services/fatfs/ff.c **** 					clst = create_chain(&dp->obj, dp->clust);	/* Allocate a cluster */
1794:SynaptiX_FDK/services/fatfs/ff.c **** 					if (clst == 0) return FR_DENIED;			/* No free cluster */
ARM GAS  C:\Users\DELL\AppData\Local\Temp\ccO3UVpA.s 			page 37


1795:SynaptiX_FDK/services/fatfs/ff.c **** 					if (clst == 1) return FR_INT_ERR;			/* Internal error */
1796:SynaptiX_FDK/services/fatfs/ff.c **** 					if (clst == 0xFFFFFFFF) return FR_DISK_ERR;	/* Disk error */
1797:SynaptiX_FDK/services/fatfs/ff.c **** 					if (dir_clear(fs, clst) != FR_OK) return FR_DISK_ERR;	/* Clean up the stretched table */
1798:SynaptiX_FDK/services/fatfs/ff.c **** 					if (FF_FS_EXFAT) dp->obj.stat |= 4;			/* exFAT: The directory has been stretched */
1799:SynaptiX_FDK/services/fatfs/ff.c **** #else
1800:SynaptiX_FDK/services/fatfs/ff.c **** 					if (!stretch) dp->sect = 0;					/* (this line is to suppress compiler warning) */
1801:SynaptiX_FDK/services/fatfs/ff.c **** 					dp->sect = 0; return FR_NO_FILE;			/* Report EOT */
1802:SynaptiX_FDK/services/fatfs/ff.c **** #endif
1803:SynaptiX_FDK/services/fatfs/ff.c **** 				}
1804:SynaptiX_FDK/services/fatfs/ff.c **** 				dp->clust = clst;		/* Initialize data for new cluster */
1805:SynaptiX_FDK/services/fatfs/ff.c **** 				dp->sect = clst2sect(fs, clst);
1806:SynaptiX_FDK/services/fatfs/ff.c **** 			}
1807:SynaptiX_FDK/services/fatfs/ff.c **** 		}
1808:SynaptiX_FDK/services/fatfs/ff.c **** 	}
1809:SynaptiX_FDK/services/fatfs/ff.c **** 	dp->dptr = ofs;						/* Current entry */
1810:SynaptiX_FDK/services/fatfs/ff.c **** 	dp->dir = fs->win + ofs % SS(fs);	/* Pointer to the entry in the win[] */
1811:SynaptiX_FDK/services/fatfs/ff.c **** 
1812:SynaptiX_FDK/services/fatfs/ff.c **** 	return FR_OK;
1813:SynaptiX_FDK/services/fatfs/ff.c **** }
1814:SynaptiX_FDK/services/fatfs/ff.c **** 
1815:SynaptiX_FDK/services/fatfs/ff.c **** 
1816:SynaptiX_FDK/services/fatfs/ff.c **** 
1817:SynaptiX_FDK/services/fatfs/ff.c **** 
1818:SynaptiX_FDK/services/fatfs/ff.c **** #if !FF_FS_READONLY
1819:SynaptiX_FDK/services/fatfs/ff.c **** /*-----------------------------------------------------------------------*/
1820:SynaptiX_FDK/services/fatfs/ff.c **** /* Directory handling - Reserve a block of directory entries             */
1821:SynaptiX_FDK/services/fatfs/ff.c **** /*-----------------------------------------------------------------------*/
1822:SynaptiX_FDK/services/fatfs/ff.c **** 
1823:SynaptiX_FDK/services/fatfs/ff.c **** static FRESULT dir_alloc (	/* FR_OK(0):succeeded, !=0:error */
1824:SynaptiX_FDK/services/fatfs/ff.c **** 	DIR* dp,				/* Pointer to the directory object */
1825:SynaptiX_FDK/services/fatfs/ff.c **** 	UINT n_ent				/* Number of contiguous entries to allocate */
1826:SynaptiX_FDK/services/fatfs/ff.c **** )
1827:SynaptiX_FDK/services/fatfs/ff.c **** {
1828:SynaptiX_FDK/services/fatfs/ff.c **** 	FRESULT res;
1829:SynaptiX_FDK/services/fatfs/ff.c **** 	UINT n;
1830:SynaptiX_FDK/services/fatfs/ff.c **** 	FATFS *fs = dp->obj.fs;
1831:SynaptiX_FDK/services/fatfs/ff.c **** 
1832:SynaptiX_FDK/services/fatfs/ff.c **** 
1833:SynaptiX_FDK/services/fatfs/ff.c **** 	res = dir_sdi(dp, 0);
1834:SynaptiX_FDK/services/fatfs/ff.c **** 	if (res == FR_OK) {
1835:SynaptiX_FDK/services/fatfs/ff.c **** 		n = 0;
1836:SynaptiX_FDK/services/fatfs/ff.c **** 		do {
1837:SynaptiX_FDK/services/fatfs/ff.c **** 			res = move_window(fs, dp->sect);
1838:SynaptiX_FDK/services/fatfs/ff.c **** 			if (res != FR_OK) break;
1839:SynaptiX_FDK/services/fatfs/ff.c **** #if FF_FS_EXFAT
1840:SynaptiX_FDK/services/fatfs/ff.c **** 			if ((fs->fs_type == FS_EXFAT) ? (int)((dp->dir[XDIR_Type] & 0x80) == 0) : (int)(dp->dir[DIR_Name
1841:SynaptiX_FDK/services/fatfs/ff.c **** #else
1842:SynaptiX_FDK/services/fatfs/ff.c **** 			if (dp->dir[DIR_Name] == DDEM || dp->dir[DIR_Name] == 0) {	/* Is the entry free? */
1843:SynaptiX_FDK/services/fatfs/ff.c **** #endif
1844:SynaptiX_FDK/services/fatfs/ff.c **** 				if (++n == n_ent) break;	/* Is a block of contiguous free entries found? */
1845:SynaptiX_FDK/services/fatfs/ff.c **** 			} else {
1846:SynaptiX_FDK/services/fatfs/ff.c **** 				n = 0;				/* Not a free entry, restart to search */
1847:SynaptiX_FDK/services/fatfs/ff.c **** 			}
1848:SynaptiX_FDK/services/fatfs/ff.c **** 			res = dir_next(dp, 1);	/* Next entry with table stretch enabled */
1849:SynaptiX_FDK/services/fatfs/ff.c **** 		} while (res == FR_OK);
1850:SynaptiX_FDK/services/fatfs/ff.c **** 	}
1851:SynaptiX_FDK/services/fatfs/ff.c **** 
ARM GAS  C:\Users\DELL\AppData\Local\Temp\ccO3UVpA.s 			page 38


1852:SynaptiX_FDK/services/fatfs/ff.c **** 	if (res == FR_NO_FILE) res = FR_DENIED;	/* No directory entry to allocate */
1853:SynaptiX_FDK/services/fatfs/ff.c **** 	return res;
1854:SynaptiX_FDK/services/fatfs/ff.c **** }
1855:SynaptiX_FDK/services/fatfs/ff.c **** 
1856:SynaptiX_FDK/services/fatfs/ff.c **** #endif	/* !FF_FS_READONLY */
1857:SynaptiX_FDK/services/fatfs/ff.c **** 
1858:SynaptiX_FDK/services/fatfs/ff.c **** 
1859:SynaptiX_FDK/services/fatfs/ff.c **** 
1860:SynaptiX_FDK/services/fatfs/ff.c **** 
1861:SynaptiX_FDK/services/fatfs/ff.c **** /*-----------------------------------------------------------------------*/
1862:SynaptiX_FDK/services/fatfs/ff.c **** /* FAT: Directory handling - Load/Store start cluster number             */
1863:SynaptiX_FDK/services/fatfs/ff.c **** /*-----------------------------------------------------------------------*/
1864:SynaptiX_FDK/services/fatfs/ff.c **** 
1865:SynaptiX_FDK/services/fatfs/ff.c **** static DWORD ld_clust (	/* Returns the top cluster value of the SFN entry */
1866:SynaptiX_FDK/services/fatfs/ff.c **** 	FATFS* fs,			/* Pointer to the fs object */
1867:SynaptiX_FDK/services/fatfs/ff.c **** 	const BYTE* dir		/* Pointer to the key entry */
1868:SynaptiX_FDK/services/fatfs/ff.c **** )
1869:SynaptiX_FDK/services/fatfs/ff.c **** {
 273              		.loc 1 1869 1 is_stmt 1 view -0
 274              		.cfi_startproc
 275              		@ args = 0, pretend = 0, frame = 0
 276              		@ frame_needed = 0, uses_anonymous_args = 0
 277              		.loc 1 1869 1 is_stmt 0 view .LVU73
 278 0000 70B5     		push	{r4, r5, r6, lr}
 279              	.LCFI0:
 280              		.cfi_def_cfa_offset 16
 281              		.cfi_offset 4, -16
 282              		.cfi_offset 5, -12
 283              		.cfi_offset 6, -8
 284              		.cfi_offset 14, -4
 285 0002 0646     		mov	r6, r0
 286 0004 0D46     		mov	r5, r1
1870:SynaptiX_FDK/services/fatfs/ff.c **** 	DWORD cl;
 287              		.loc 1 1870 2 is_stmt 1 view .LVU74
1871:SynaptiX_FDK/services/fatfs/ff.c **** 
1872:SynaptiX_FDK/services/fatfs/ff.c **** 	cl = ld_16(dir + DIR_FstClusLO);
 288              		.loc 1 1872 2 view .LVU75
 289              		.loc 1 1872 7 is_stmt 0 view .LVU76
 290 0006 01F11A00 		add	r0, r1, #26
 291              	.LVL27:
 292              		.loc 1 1872 7 view .LVU77
 293 000a FFF7FEFF 		bl	ld_16
 294              	.LVL28:
1873:SynaptiX_FDK/services/fatfs/ff.c **** 	if (fs->fs_type == FS_FAT32) {
 295              		.loc 1 1873 2 is_stmt 1 view .LVU78
 296              		.loc 1 1873 8 is_stmt 0 view .LVU79
 297 000e 3378     		ldrb	r3, [r6]	@ zero_extendqisi2
 298              		.loc 1 1873 5 view .LVU80
 299 0010 032B     		cmp	r3, #3
 300 0012 00D0     		beq	.L13
 301              	.LVL29:
 302              	.L10:
1874:SynaptiX_FDK/services/fatfs/ff.c **** 		cl |= (DWORD)ld_16(dir + DIR_FstClusHI) << 16;
1875:SynaptiX_FDK/services/fatfs/ff.c **** 	}
1876:SynaptiX_FDK/services/fatfs/ff.c **** 
1877:SynaptiX_FDK/services/fatfs/ff.c **** 	return cl;
1878:SynaptiX_FDK/services/fatfs/ff.c **** }
ARM GAS  C:\Users\DELL\AppData\Local\Temp\ccO3UVpA.s 			page 39


 303              		.loc 1 1878 1 view .LVU81
 304 0014 70BD     		pop	{r4, r5, r6, pc}
 305              	.LVL30:
 306              	.L13:
 307              		.loc 1 1878 1 view .LVU82
 308 0016 0446     		mov	r4, r0
1874:SynaptiX_FDK/services/fatfs/ff.c **** 		cl |= (DWORD)ld_16(dir + DIR_FstClusHI) << 16;
 309              		.loc 1 1874 3 is_stmt 1 view .LVU83
1874:SynaptiX_FDK/services/fatfs/ff.c **** 		cl |= (DWORD)ld_16(dir + DIR_FstClusHI) << 16;
 310              		.loc 1 1874 16 is_stmt 0 view .LVU84
 311 0018 05F11400 		add	r0, r5, #20
 312              	.LVL31:
1874:SynaptiX_FDK/services/fatfs/ff.c **** 		cl |= (DWORD)ld_16(dir + DIR_FstClusHI) << 16;
 313              		.loc 1 1874 16 view .LVU85
 314 001c FFF7FEFF 		bl	ld_16
 315              	.LVL32:
1874:SynaptiX_FDK/services/fatfs/ff.c **** 		cl |= (DWORD)ld_16(dir + DIR_FstClusHI) << 16;
 316              		.loc 1 1874 6 discriminator 1 view .LVU86
 317 0020 44EA0040 		orr	r0, r4, r0, lsl #16
 318              	.LVL33:
1877:SynaptiX_FDK/services/fatfs/ff.c **** }
 319              		.loc 1 1877 2 is_stmt 1 view .LVU87
1877:SynaptiX_FDK/services/fatfs/ff.c **** }
 320              		.loc 1 1877 9 is_stmt 0 view .LVU88
 321 0024 F6E7     		b	.L10
 322              		.cfi_endproc
 323              	.LFE20:
 325              		.section	.text.st_clust,"ax",%progbits
 326              		.align	1
 327              		.syntax unified
 328              		.thumb
 329              		.thumb_func
 331              	st_clust:
 332              	.LVL34:
 333              	.LFB21:
1879:SynaptiX_FDK/services/fatfs/ff.c **** 
1880:SynaptiX_FDK/services/fatfs/ff.c **** 
1881:SynaptiX_FDK/services/fatfs/ff.c **** #if !FF_FS_READONLY
1882:SynaptiX_FDK/services/fatfs/ff.c **** static void st_clust (
1883:SynaptiX_FDK/services/fatfs/ff.c **** 	FATFS* fs,	/* Pointer to the fs object */
1884:SynaptiX_FDK/services/fatfs/ff.c **** 	BYTE* dir,	/* Pointer to the key entry */
1885:SynaptiX_FDK/services/fatfs/ff.c **** 	DWORD cl	/* Value to be set */
1886:SynaptiX_FDK/services/fatfs/ff.c **** )
1887:SynaptiX_FDK/services/fatfs/ff.c **** {
 334              		.loc 1 1887 1 is_stmt 1 view -0
 335              		.cfi_startproc
 336              		@ args = 0, pretend = 0, frame = 0
 337              		@ frame_needed = 0, uses_anonymous_args = 0
 338              		.loc 1 1887 1 is_stmt 0 view .LVU90
 339 0000 70B5     		push	{r4, r5, r6, lr}
 340              	.LCFI1:
 341              		.cfi_def_cfa_offset 16
 342              		.cfi_offset 4, -16
 343              		.cfi_offset 5, -12
 344              		.cfi_offset 6, -8
 345              		.cfi_offset 14, -4
 346 0002 0646     		mov	r6, r0
ARM GAS  C:\Users\DELL\AppData\Local\Temp\ccO3UVpA.s 			page 40


 347 0004 0C46     		mov	r4, r1
 348 0006 1546     		mov	r5, r2
1888:SynaptiX_FDK/services/fatfs/ff.c **** 	st_16(dir + DIR_FstClusLO, (WORD)cl);
 349              		.loc 1 1888 2 is_stmt 1 view .LVU91
 350 0008 91B2     		uxth	r1, r2
 351              	.LVL35:
 352              		.loc 1 1888 2 is_stmt 0 view .LVU92
 353 000a 04F11A00 		add	r0, r4, #26
 354              	.LVL36:
 355              		.loc 1 1888 2 view .LVU93
 356 000e FFF7FEFF 		bl	st_16
 357              	.LVL37:
1889:SynaptiX_FDK/services/fatfs/ff.c **** 	if (fs->fs_type == FS_FAT32) {
 358              		.loc 1 1889 2 is_stmt 1 view .LVU94
 359              		.loc 1 1889 8 is_stmt 0 view .LVU95
 360 0012 3378     		ldrb	r3, [r6]	@ zero_extendqisi2
 361              		.loc 1 1889 5 view .LVU96
 362 0014 032B     		cmp	r3, #3
 363 0016 00D0     		beq	.L17
 364              	.L14:
1890:SynaptiX_FDK/services/fatfs/ff.c **** 		st_16(dir + DIR_FstClusHI, (WORD)(cl >> 16));
1891:SynaptiX_FDK/services/fatfs/ff.c **** 	}
1892:SynaptiX_FDK/services/fatfs/ff.c **** }
 365              		.loc 1 1892 1 view .LVU97
 366 0018 70BD     		pop	{r4, r5, r6, pc}
 367              	.LVL38:
 368              	.L17:
1890:SynaptiX_FDK/services/fatfs/ff.c **** 		st_16(dir + DIR_FstClusHI, (WORD)(cl >> 16));
 369              		.loc 1 1890 3 is_stmt 1 view .LVU98
 370 001a 290C     		lsrs	r1, r5, #16
 371 001c 04F11400 		add	r0, r4, #20
 372 0020 FFF7FEFF 		bl	st_16
 373              	.LVL39:
 374              		.loc 1 1892 1 is_stmt 0 view .LVU99
 375 0024 F8E7     		b	.L14
 376              		.cfi_endproc
 377              	.LFE21:
 379              		.section	.text.pick_lfn,"ax",%progbits
 380              		.align	1
 381              		.syntax unified
 382              		.thumb
 383              		.thumb_func
 385              	pick_lfn:
 386              	.LVL40:
 387              	.LFB23:
1893:SynaptiX_FDK/services/fatfs/ff.c **** #endif
1894:SynaptiX_FDK/services/fatfs/ff.c **** 
1895:SynaptiX_FDK/services/fatfs/ff.c **** 
1896:SynaptiX_FDK/services/fatfs/ff.c **** 
1897:SynaptiX_FDK/services/fatfs/ff.c **** #if FF_USE_LFN
1898:SynaptiX_FDK/services/fatfs/ff.c **** /*--------------------------------------------------------*/
1899:SynaptiX_FDK/services/fatfs/ff.c **** /* FAT-LFN: Compare a part of file name with an LFN entry */
1900:SynaptiX_FDK/services/fatfs/ff.c **** /*--------------------------------------------------------*/
1901:SynaptiX_FDK/services/fatfs/ff.c **** 
1902:SynaptiX_FDK/services/fatfs/ff.c **** static int cmp_lfn (		/* 1:matched, 0:not matched */
1903:SynaptiX_FDK/services/fatfs/ff.c **** 	const WCHAR* lfnbuf,	/* Pointer to the LFN to be compared */
1904:SynaptiX_FDK/services/fatfs/ff.c **** 	BYTE* dir				/* Pointer to the LFN entry */
ARM GAS  C:\Users\DELL\AppData\Local\Temp\ccO3UVpA.s 			page 41


1905:SynaptiX_FDK/services/fatfs/ff.c **** )
1906:SynaptiX_FDK/services/fatfs/ff.c **** {
1907:SynaptiX_FDK/services/fatfs/ff.c **** 	UINT ni, di;
1908:SynaptiX_FDK/services/fatfs/ff.c **** 	WCHAR pchr, chr;
1909:SynaptiX_FDK/services/fatfs/ff.c **** 
1910:SynaptiX_FDK/services/fatfs/ff.c **** 
1911:SynaptiX_FDK/services/fatfs/ff.c **** 	if (ld_16(dir + LDIR_FstClusLO) != 0) return 0;	/* Check if LDIR_FstClusLO is 0 */
1912:SynaptiX_FDK/services/fatfs/ff.c **** 
1913:SynaptiX_FDK/services/fatfs/ff.c **** 	ni = (UINT)((dir[LDIR_Ord] & 0x3F) - 1) * 13;	/* Offset in the name to be compared */
1914:SynaptiX_FDK/services/fatfs/ff.c **** 
1915:SynaptiX_FDK/services/fatfs/ff.c **** 	for (pchr = 1, di = 0; di < 13; di++) {	/* Process all characters in the entry */
1916:SynaptiX_FDK/services/fatfs/ff.c **** 		chr = ld_16(dir + LfnOfs[di]);		/* Pick a character from the entry */
1917:SynaptiX_FDK/services/fatfs/ff.c **** 		if (pchr != 0) {
1918:SynaptiX_FDK/services/fatfs/ff.c **** 			if (ni >= FF_MAX_LFN + 1 || ff_wtoupper(chr) != ff_wtoupper(lfnbuf[ni++])) {	/* Compare it with 
1919:SynaptiX_FDK/services/fatfs/ff.c **** 				return 0;					/* Not matched */
1920:SynaptiX_FDK/services/fatfs/ff.c **** 			}
1921:SynaptiX_FDK/services/fatfs/ff.c **** 			pchr = chr;
1922:SynaptiX_FDK/services/fatfs/ff.c **** 		} else {
1923:SynaptiX_FDK/services/fatfs/ff.c **** 			if (chr != 0xFFFF) return 0;	/* Check filler */
1924:SynaptiX_FDK/services/fatfs/ff.c **** 		}
1925:SynaptiX_FDK/services/fatfs/ff.c **** 	}
1926:SynaptiX_FDK/services/fatfs/ff.c **** 
1927:SynaptiX_FDK/services/fatfs/ff.c **** 	if ((dir[LDIR_Ord] & LLEF) && pchr && lfnbuf[ni]) return 0;	/* Last name segment matched but diffe
1928:SynaptiX_FDK/services/fatfs/ff.c **** 
1929:SynaptiX_FDK/services/fatfs/ff.c **** 	return 1;		/* The part of LFN matched */
1930:SynaptiX_FDK/services/fatfs/ff.c **** }
1931:SynaptiX_FDK/services/fatfs/ff.c **** 
1932:SynaptiX_FDK/services/fatfs/ff.c **** 
1933:SynaptiX_FDK/services/fatfs/ff.c **** #if FF_FS_MINIMIZE <= 1 || FF_FS_RPATH >= 2 || FF_USE_LABEL || FF_FS_EXFAT
1934:SynaptiX_FDK/services/fatfs/ff.c **** /*-----------------------------------------------------*/
1935:SynaptiX_FDK/services/fatfs/ff.c **** /* FAT-LFN: Pick a part of file name from an LFN entry */
1936:SynaptiX_FDK/services/fatfs/ff.c **** /*-----------------------------------------------------*/
1937:SynaptiX_FDK/services/fatfs/ff.c **** 
1938:SynaptiX_FDK/services/fatfs/ff.c **** static int pick_lfn (	/* 1:succeeded, 0:buffer overflow or invalid LFN entry */
1939:SynaptiX_FDK/services/fatfs/ff.c **** 	WCHAR* lfnbuf,		/* Pointer to the name buffer to be stored */
1940:SynaptiX_FDK/services/fatfs/ff.c **** 	const BYTE* dir		/* Pointer to the LFN entry */
1941:SynaptiX_FDK/services/fatfs/ff.c **** )
1942:SynaptiX_FDK/services/fatfs/ff.c **** {
 388              		.loc 1 1942 1 is_stmt 1 view -0
 389              		.cfi_startproc
 390              		@ args = 0, pretend = 0, frame = 0
 391              		@ frame_needed = 0, uses_anonymous_args = 0
 392              		.loc 1 1942 1 is_stmt 0 view .LVU101
 393 0000 2DE9F041 		push	{r4, r5, r6, r7, r8, lr}
 394              	.LCFI2:
 395              		.cfi_def_cfa_offset 24
 396              		.cfi_offset 4, -24
 397              		.cfi_offset 5, -20
 398              		.cfi_offset 6, -16
 399              		.cfi_offset 7, -12
 400              		.cfi_offset 8, -8
 401              		.cfi_offset 14, -4
 402 0004 8046     		mov	r8, r0
 403 0006 0E46     		mov	r6, r1
1943:SynaptiX_FDK/services/fatfs/ff.c **** 	UINT ni, di;
 404              		.loc 1 1943 2 is_stmt 1 view .LVU102
1944:SynaptiX_FDK/services/fatfs/ff.c **** 	WCHAR pchr, chr;
ARM GAS  C:\Users\DELL\AppData\Local\Temp\ccO3UVpA.s 			page 42


 405              		.loc 1 1944 2 view .LVU103
1945:SynaptiX_FDK/services/fatfs/ff.c **** 
1946:SynaptiX_FDK/services/fatfs/ff.c **** 
1947:SynaptiX_FDK/services/fatfs/ff.c **** 	if (ld_16(dir + LDIR_FstClusLO) != 0) return 0;	/* Check if LDIR_FstClusLO is 0 */
 406              		.loc 1 1947 2 view .LVU104
 407              		.loc 1 1947 6 is_stmt 0 view .LVU105
 408 0008 01F11A00 		add	r0, r1, #26
 409              	.LVL41:
 410              		.loc 1 1947 6 view .LVU106
 411 000c FFF7FEFF 		bl	ld_16
 412              	.LVL42:
 413              		.loc 1 1947 5 discriminator 1 view .LVU107
 414 0010 58BB     		cbnz	r0, .L24
1948:SynaptiX_FDK/services/fatfs/ff.c **** 
1949:SynaptiX_FDK/services/fatfs/ff.c **** 	ni = (UINT)((dir[LDIR_Ord] & ~LLEF) - 1) * 13;	/* Offset in the name buffer */
 415              		.loc 1 1949 2 is_stmt 1 view .LVU108
 416              		.loc 1 1949 18 is_stmt 0 view .LVU109
 417 0012 3578     		ldrb	r5, [r6]	@ zero_extendqisi2
 418              		.loc 1 1949 29 view .LVU110
 419 0014 25F04005 		bic	r5, r5, #64
 420              		.loc 1 1949 38 view .LVU111
 421 0018 013D     		subs	r5, r5, #1
 422              		.loc 1 1949 5 view .LVU112
 423 001a 05EB4503 		add	r3, r5, r5, lsl #1
 424 001e 05EB8305 		add	r5, r5, r3, lsl #2
 425              	.LVL43:
1950:SynaptiX_FDK/services/fatfs/ff.c **** 
1951:SynaptiX_FDK/services/fatfs/ff.c **** 	for (pchr = 1, di = 0; di < 13; di++) {		/* Process all characters in the entry */
 426              		.loc 1 1951 2 is_stmt 1 view .LVU113
 427              		.loc 1 1951 12 is_stmt 0 view .LVU114
 428 0022 0127     		movs	r7, #1
 429              		.loc 1 1951 20 view .LVU115
 430 0024 0024     		movs	r4, #0
 431              		.loc 1 1951 2 view .LVU116
 432 0026 04E0     		b	.L20
 433              	.LVL44:
 434              	.L21:
1952:SynaptiX_FDK/services/fatfs/ff.c **** 		chr = ld_16(dir + LfnOfs[di]);			/* Pick a character from the entry */
1953:SynaptiX_FDK/services/fatfs/ff.c **** 		if (pchr != 0) {
1954:SynaptiX_FDK/services/fatfs/ff.c **** 			if (ni >= FF_MAX_LFN + 1) return 0;	/* Buffer overflow? */
1955:SynaptiX_FDK/services/fatfs/ff.c **** 			lfnbuf[ni++] = pchr = chr;			/* Store it */
1956:SynaptiX_FDK/services/fatfs/ff.c **** 		} else {
1957:SynaptiX_FDK/services/fatfs/ff.c **** 			if (chr != 0xFFFF) return 0;		/* Check filler */
 435              		.loc 1 1957 4 is_stmt 1 view .LVU117
 436              		.loc 1 1957 7 is_stmt 0 view .LVU118
 437 0028 4FF6FF73 		movw	r3, #65535
 438 002c 9842     		cmp	r0, r3
 439 002e 21D1     		bne	.L26
 440              	.LVL45:
 441              	.L22:
1951:SynaptiX_FDK/services/fatfs/ff.c **** 		chr = ld_16(dir + LfnOfs[di]);			/* Pick a character from the entry */
 442              		.loc 1 1951 36 is_stmt 1 discriminator 2 view .LVU119
 443 0030 0134     		adds	r4, r4, #1
 444              	.LVL46:
 445              	.L20:
1951:SynaptiX_FDK/services/fatfs/ff.c **** 		chr = ld_16(dir + LfnOfs[di]);			/* Pick a character from the entry */
 446              		.loc 1 1951 28 discriminator 1 view .LVU120
ARM GAS  C:\Users\DELL\AppData\Local\Temp\ccO3UVpA.s 			page 43


 447 0032 0C2C     		cmp	r4, #12
 448 0034 0DD8     		bhi	.L31
1952:SynaptiX_FDK/services/fatfs/ff.c **** 		chr = ld_16(dir + LfnOfs[di]);			/* Pick a character from the entry */
 449              		.loc 1 1952 3 view .LVU121
1952:SynaptiX_FDK/services/fatfs/ff.c **** 		chr = ld_16(dir + LfnOfs[di]);			/* Pick a character from the entry */
 450              		.loc 1 1952 27 is_stmt 0 view .LVU122
 451 0036 134B     		ldr	r3, .L32
 452 0038 185D     		ldrb	r0, [r3, r4]	@ zero_extendqisi2
1952:SynaptiX_FDK/services/fatfs/ff.c **** 		chr = ld_16(dir + LfnOfs[di]);			/* Pick a character from the entry */
 453              		.loc 1 1952 9 view .LVU123
 454 003a 3044     		add	r0, r0, r6
 455 003c FFF7FEFF 		bl	ld_16
 456              	.LVL47:
1953:SynaptiX_FDK/services/fatfs/ff.c **** 			if (ni >= FF_MAX_LFN + 1) return 0;	/* Buffer overflow? */
 457              		.loc 1 1953 3 is_stmt 1 view .LVU124
1953:SynaptiX_FDK/services/fatfs/ff.c **** 			if (ni >= FF_MAX_LFN + 1) return 0;	/* Buffer overflow? */
 458              		.loc 1 1953 6 is_stmt 0 view .LVU125
 459 0040 002F     		cmp	r7, #0
 460 0042 F1D0     		beq	.L21
1954:SynaptiX_FDK/services/fatfs/ff.c **** 			lfnbuf[ni++] = pchr = chr;			/* Store it */
 461              		.loc 1 1954 4 is_stmt 1 view .LVU126
1954:SynaptiX_FDK/services/fatfs/ff.c **** 			lfnbuf[ni++] = pchr = chr;			/* Store it */
 462              		.loc 1 1954 7 is_stmt 0 view .LVU127
 463 0044 FF2D     		cmp	r5, #255
 464 0046 13D8     		bhi	.L25
1955:SynaptiX_FDK/services/fatfs/ff.c **** 		} else {
 465              		.loc 1 1955 4 is_stmt 1 view .LVU128
 466              	.LVL48:
1955:SynaptiX_FDK/services/fatfs/ff.c **** 		} else {
 467              		.loc 1 1955 17 is_stmt 0 view .LVU129
 468 0048 28F81500 		strh	r0, [r8, r5, lsl #1]	@ movhi
1955:SynaptiX_FDK/services/fatfs/ff.c **** 		} else {
 469              		.loc 1 1955 24 view .LVU130
 470 004c 0746     		mov	r7, r0
1955:SynaptiX_FDK/services/fatfs/ff.c **** 		} else {
 471              		.loc 1 1955 13 view .LVU131
 472 004e 0135     		adds	r5, r5, #1
 473              	.LVL49:
1955:SynaptiX_FDK/services/fatfs/ff.c **** 		} else {
 474              		.loc 1 1955 13 view .LVU132
 475 0050 EEE7     		b	.L22
 476              	.LVL50:
 477              	.L31:
1958:SynaptiX_FDK/services/fatfs/ff.c **** 		}
1959:SynaptiX_FDK/services/fatfs/ff.c **** 	}
1960:SynaptiX_FDK/services/fatfs/ff.c **** 
1961:SynaptiX_FDK/services/fatfs/ff.c **** 	if (dir[LDIR_Ord] & LLEF && pchr != 0) {	/* Put terminator if it is the last LFN part and not term
 478              		.loc 1 1961 2 is_stmt 1 view .LVU133
 479              		.loc 1 1961 9 is_stmt 0 view .LVU134
 480 0052 3378     		ldrb	r3, [r6]	@ zero_extendqisi2
 481              		.loc 1 1961 5 view .LVU135
 482 0054 13F0400F 		tst	r3, #64
 483 0058 0ED0     		beq	.L27
 484              		.loc 1 1961 27 discriminator 1 view .LVU136
 485 005a 7FB1     		cbz	r7, .L28
1962:SynaptiX_FDK/services/fatfs/ff.c **** 		if (ni >= FF_MAX_LFN + 1) return 0;		/* Buffer overflow? */
 486              		.loc 1 1962 3 is_stmt 1 view .LVU137
ARM GAS  C:\Users\DELL\AppData\Local\Temp\ccO3UVpA.s 			page 44


 487              		.loc 1 1962 6 is_stmt 0 view .LVU138
 488 005c FF2D     		cmp	r5, #255
 489 005e 0FD8     		bhi	.L29
1963:SynaptiX_FDK/services/fatfs/ff.c **** 		lfnbuf[ni] = 0;
 490              		.loc 1 1963 3 is_stmt 1 view .LVU139
 491              		.loc 1 1963 14 is_stmt 0 view .LVU140
 492 0060 0023     		movs	r3, #0
 493 0062 28F81530 		strh	r3, [r8, r5, lsl #1]	@ movhi
1964:SynaptiX_FDK/services/fatfs/ff.c **** 	}
1965:SynaptiX_FDK/services/fatfs/ff.c **** 
1966:SynaptiX_FDK/services/fatfs/ff.c **** 	return 1;		/* The part of LFN is valid */
 494              		.loc 1 1966 9 view .LVU141
 495 0066 0120     		movs	r0, #1
 496 0068 00E0     		b	.L18
 497              	.LVL51:
 498              	.L24:
1947:SynaptiX_FDK/services/fatfs/ff.c **** 
 499              		.loc 1 1947 47 discriminator 1 view .LVU142
 500 006a 0020     		movs	r0, #0
 501              	.L18:
1967:SynaptiX_FDK/services/fatfs/ff.c **** }
 502              		.loc 1 1967 1 view .LVU143
 503 006c BDE8F081 		pop	{r4, r5, r6, r7, r8, pc}
 504              	.LVL52:
 505              	.L25:
1954:SynaptiX_FDK/services/fatfs/ff.c **** 			lfnbuf[ni++] = pchr = chr;			/* Store it */
 506              		.loc 1 1954 37 discriminator 1 view .LVU144
 507 0070 0020     		movs	r0, #0
 508              	.LVL53:
1954:SynaptiX_FDK/services/fatfs/ff.c **** 			lfnbuf[ni++] = pchr = chr;			/* Store it */
 509              		.loc 1 1954 37 discriminator 1 view .LVU145
 510 0072 FBE7     		b	.L18
 511              	.LVL54:
 512              	.L26:
1957:SynaptiX_FDK/services/fatfs/ff.c **** 		}
 513              		.loc 1 1957 30 discriminator 1 view .LVU146
 514 0074 0020     		movs	r0, #0
 515              	.LVL55:
1957:SynaptiX_FDK/services/fatfs/ff.c **** 		}
 516              		.loc 1 1957 30 discriminator 1 view .LVU147
 517 0076 F9E7     		b	.L18
 518              	.LVL56:
 519              	.L27:
1966:SynaptiX_FDK/services/fatfs/ff.c **** }
 520              		.loc 1 1966 9 view .LVU148
 521 0078 0120     		movs	r0, #1
 522 007a F7E7     		b	.L18
 523              	.L28:
 524 007c 0120     		movs	r0, #1
 525 007e F5E7     		b	.L18
 526              	.L29:
1962:SynaptiX_FDK/services/fatfs/ff.c **** 		lfnbuf[ni] = 0;
 527              		.loc 1 1962 36 discriminator 1 view .LVU149
 528 0080 0020     		movs	r0, #0
 529 0082 F3E7     		b	.L18
 530              	.L33:
 531              		.align	2
ARM GAS  C:\Users\DELL\AppData\Local\Temp\ccO3UVpA.s 			page 45


 532              	.L32:
 533 0084 00000000 		.word	LfnOfs
 534              		.cfi_endproc
 535              	.LFE23:
 537              		.section	.text.put_lfn,"ax",%progbits
 538              		.align	1
 539              		.syntax unified
 540              		.thumb
 541              		.thumb_func
 543              	put_lfn:
 544              	.LVL57:
 545              	.LFB24:
1968:SynaptiX_FDK/services/fatfs/ff.c **** #endif
1969:SynaptiX_FDK/services/fatfs/ff.c **** 
1970:SynaptiX_FDK/services/fatfs/ff.c **** 
1971:SynaptiX_FDK/services/fatfs/ff.c **** #if !FF_FS_READONLY
1972:SynaptiX_FDK/services/fatfs/ff.c **** /*-----------------------------------------*/
1973:SynaptiX_FDK/services/fatfs/ff.c **** /* FAT-LFN: Create an entry of LFN entries */
1974:SynaptiX_FDK/services/fatfs/ff.c **** /*-----------------------------------------*/
1975:SynaptiX_FDK/services/fatfs/ff.c **** 
1976:SynaptiX_FDK/services/fatfs/ff.c **** static void put_lfn (
1977:SynaptiX_FDK/services/fatfs/ff.c **** 	const WCHAR* lfn,	/* Pointer to the LFN */
1978:SynaptiX_FDK/services/fatfs/ff.c **** 	BYTE* dir,			/* Pointer to the LFN entry to be created */
1979:SynaptiX_FDK/services/fatfs/ff.c **** 	BYTE ord,			/* LFN order (1-20) */
1980:SynaptiX_FDK/services/fatfs/ff.c **** 	BYTE sum			/* Checksum of the corresponding SFN */
1981:SynaptiX_FDK/services/fatfs/ff.c **** )
1982:SynaptiX_FDK/services/fatfs/ff.c **** {
 546              		.loc 1 1982 1 is_stmt 1 view -0
 547              		.cfi_startproc
 548              		@ args = 0, pretend = 0, frame = 0
 549              		@ frame_needed = 0, uses_anonymous_args = 0
 550              		.loc 1 1982 1 is_stmt 0 view .LVU151
 551 0000 2DE9F843 		push	{r3, r4, r5, r6, r7, r8, r9, lr}
 552              	.LCFI3:
 553              		.cfi_def_cfa_offset 32
 554              		.cfi_offset 3, -32
 555              		.cfi_offset 4, -28
 556              		.cfi_offset 5, -24
 557              		.cfi_offset 6, -20
 558              		.cfi_offset 7, -16
 559              		.cfi_offset 8, -12
 560              		.cfi_offset 9, -8
 561              		.cfi_offset 14, -4
 562 0004 8046     		mov	r8, r0
 563 0006 0F46     		mov	r7, r1
 564 0008 9146     		mov	r9, r2
1983:SynaptiX_FDK/services/fatfs/ff.c **** 	UINT ni, di;
 565              		.loc 1 1983 2 is_stmt 1 view .LVU152
1984:SynaptiX_FDK/services/fatfs/ff.c **** 	WCHAR chr;
 566              		.loc 1 1984 2 view .LVU153
1985:SynaptiX_FDK/services/fatfs/ff.c **** 
1986:SynaptiX_FDK/services/fatfs/ff.c **** 
1987:SynaptiX_FDK/services/fatfs/ff.c **** 	dir[LDIR_Chksum] = sum;			/* Set checksum */
 567              		.loc 1 1987 2 view .LVU154
 568              		.loc 1 1987 19 is_stmt 0 view .LVU155
 569 000a 4B73     		strb	r3, [r1, #13]
1988:SynaptiX_FDK/services/fatfs/ff.c **** 	dir[LDIR_Attr] = AM_LFN;		/* Set attribute */
ARM GAS  C:\Users\DELL\AppData\Local\Temp\ccO3UVpA.s 			page 46


 570              		.loc 1 1988 2 is_stmt 1 view .LVU156
 571              		.loc 1 1988 17 is_stmt 0 view .LVU157
 572 000c 0F23     		movs	r3, #15
 573              	.LVL58:
 574              		.loc 1 1988 17 view .LVU158
 575 000e CB72     		strb	r3, [r1, #11]
1989:SynaptiX_FDK/services/fatfs/ff.c **** 	dir[LDIR_Type] = 0;
 576              		.loc 1 1989 2 is_stmt 1 view .LVU159
 577              		.loc 1 1989 17 is_stmt 0 view .LVU160
 578 0010 0024     		movs	r4, #0
 579 0012 0C73     		strb	r4, [r1, #12]
1990:SynaptiX_FDK/services/fatfs/ff.c **** 	st_16(dir + LDIR_FstClusLO, 0);
 580              		.loc 1 1990 2 is_stmt 1 view .LVU161
 581 0014 2146     		mov	r1, r4
 582              	.LVL59:
 583              		.loc 1 1990 2 is_stmt 0 view .LVU162
 584 0016 07F11A00 		add	r0, r7, #26
 585              	.LVL60:
 586              		.loc 1 1990 2 view .LVU163
 587 001a FFF7FEFF 		bl	st_16
 588              	.LVL61:
1991:SynaptiX_FDK/services/fatfs/ff.c **** 
1992:SynaptiX_FDK/services/fatfs/ff.c **** 	ni = (UINT)(ord - 1) * 13;		/* Offset in the name */
 589              		.loc 1 1992 2 is_stmt 1 view .LVU164
 590              		.loc 1 1992 18 is_stmt 0 view .LVU165
 591 001e 09F1FF36 		add	r6, r9, #-1
 592              		.loc 1 1992 5 view .LVU166
 593 0022 06EB4603 		add	r3, r6, r6, lsl #1
 594 0026 06EB8306 		add	r6, r6, r3, lsl #2
 595              	.LVL62:
1993:SynaptiX_FDK/services/fatfs/ff.c **** 	di = chr = 0;
 596              		.loc 1 1993 2 is_stmt 1 view .LVU167
 597              		.loc 1 1993 11 is_stmt 0 view .LVU168
 598 002a 2546     		mov	r5, r4
 599 002c 02E0     		b	.L37
 600              	.LVL63:
 601              	.L36:
1994:SynaptiX_FDK/services/fatfs/ff.c **** 	do {	/* Fill the directory entry */
1995:SynaptiX_FDK/services/fatfs/ff.c **** 		if (chr != 0xFFFF) chr = lfn[ni++];	/* Get an effective character */
1996:SynaptiX_FDK/services/fatfs/ff.c **** 		st_16(dir + LfnOfs[di], chr);	/* Set it */
1997:SynaptiX_FDK/services/fatfs/ff.c **** 		if (chr == 0) chr = 0xFFFF;		/* Padding characters after the terminator */
1998:SynaptiX_FDK/services/fatfs/ff.c **** 	} while (++di < 13);
 602              		.loc 1 1998 16 is_stmt 1 view .LVU169
 603 002e 0134     		adds	r4, r4, #1
 604              	.LVL64:
 605              		.loc 1 1998 16 is_stmt 0 view .LVU170
 606 0030 0C2C     		cmp	r4, #12
 607 0032 11D8     		bhi	.L42
 608              	.LVL65:
 609              	.L37:
1994:SynaptiX_FDK/services/fatfs/ff.c **** 	do {	/* Fill the directory entry */
 610              		.loc 1 1994 2 is_stmt 1 view .LVU171
1995:SynaptiX_FDK/services/fatfs/ff.c **** 		st_16(dir + LfnOfs[di], chr);	/* Set it */
 611              		.loc 1 1995 3 view .LVU172
1995:SynaptiX_FDK/services/fatfs/ff.c **** 		st_16(dir + LfnOfs[di], chr);	/* Set it */
 612              		.loc 1 1995 6 is_stmt 0 view .LVU173
 613 0034 4FF6FF73 		movw	r3, #65535
ARM GAS  C:\Users\DELL\AppData\Local\Temp\ccO3UVpA.s 			page 47


 614 0038 9D42     		cmp	r5, r3
 615 003a 02D0     		beq	.L35
1995:SynaptiX_FDK/services/fatfs/ff.c **** 		st_16(dir + LfnOfs[di], chr);	/* Set it */
 616              		.loc 1 1995 22 is_stmt 1 discriminator 1 view .LVU174
 617              	.LVL66:
1995:SynaptiX_FDK/services/fatfs/ff.c **** 		st_16(dir + LfnOfs[di], chr);	/* Set it */
 618              		.loc 1 1995 26 is_stmt 0 discriminator 1 view .LVU175
 619 003c 38F81650 		ldrh	r5, [r8, r6, lsl #1]
 620              	.LVL67:
1995:SynaptiX_FDK/services/fatfs/ff.c **** 		st_16(dir + LfnOfs[di], chr);	/* Set it */
 621              		.loc 1 1995 34 discriminator 1 view .LVU176
 622 0040 0136     		adds	r6, r6, #1
 623              	.LVL68:
 624              	.L35:
1996:SynaptiX_FDK/services/fatfs/ff.c **** 		if (chr == 0) chr = 0xFFFF;		/* Padding characters after the terminator */
 625              		.loc 1 1996 3 is_stmt 1 view .LVU177
1996:SynaptiX_FDK/services/fatfs/ff.c **** 		if (chr == 0) chr = 0xFFFF;		/* Padding characters after the terminator */
 626              		.loc 1 1996 21 is_stmt 0 view .LVU178
 627 0042 0C4B     		ldr	r3, .L43
 628 0044 185D     		ldrb	r0, [r3, r4]	@ zero_extendqisi2
1996:SynaptiX_FDK/services/fatfs/ff.c **** 		if (chr == 0) chr = 0xFFFF;		/* Padding characters after the terminator */
 629              		.loc 1 1996 3 view .LVU179
 630 0046 2946     		mov	r1, r5
 631 0048 3844     		add	r0, r0, r7
 632 004a FFF7FEFF 		bl	st_16
 633              	.LVL69:
1997:SynaptiX_FDK/services/fatfs/ff.c **** 	} while (++di < 13);
 634              		.loc 1 1997 3 is_stmt 1 view .LVU180
1997:SynaptiX_FDK/services/fatfs/ff.c **** 	} while (++di < 13);
 635              		.loc 1 1997 6 is_stmt 0 view .LVU181
 636 004e 002D     		cmp	r5, #0
 637 0050 EDD1     		bne	.L36
1997:SynaptiX_FDK/services/fatfs/ff.c **** 	} while (++di < 13);
 638              		.loc 1 1997 21 discriminator 1 view .LVU182
 639 0052 4FF6FF75 		movw	r5, #65535
 640              	.LVL70:
1997:SynaptiX_FDK/services/fatfs/ff.c **** 	} while (++di < 13);
 641              		.loc 1 1997 21 discriminator 1 view .LVU183
 642 0056 EAE7     		b	.L36
 643              	.LVL71:
 644              	.L42:
1999:SynaptiX_FDK/services/fatfs/ff.c **** 	if (chr == 0xFFFF || !lfn[ni]) ord |= LLEF;	/* Last LFN part is the start of an enrty set */
 645              		.loc 1 1999 2 is_stmt 1 view .LVU184
 646              		.loc 1 1999 5 is_stmt 0 view .LVU185
 647 0058 4FF6FF73 		movw	r3, #65535
 648 005c 9D42     		cmp	r5, r3
 649 005e 02D0     		beq	.L38
 650              		.loc 1 1999 27 discriminator 2 view .LVU186
 651 0060 38F81630 		ldrh	r3, [r8, r6, lsl #1]
 652              		.loc 1 1999 20 discriminator 2 view .LVU187
 653 0064 0BB9     		cbnz	r3, .L39
 654              	.L38:
 655              		.loc 1 1999 33 is_stmt 1 discriminator 3 view .LVU188
 656              		.loc 1 1999 37 is_stmt 0 discriminator 3 view .LVU189
 657 0066 49F04009 		orr	r9, r9, #64
 658              	.LVL72:
 659              	.L39:
ARM GAS  C:\Users\DELL\AppData\Local\Temp\ccO3UVpA.s 			page 48


2000:SynaptiX_FDK/services/fatfs/ff.c **** 	dir[LDIR_Ord] = ord;			/* Set order in the entry set */
 660              		.loc 1 2000 2 is_stmt 1 view .LVU190
 661              		.loc 1 2000 16 is_stmt 0 view .LVU191
 662 006a 87F80090 		strb	r9, [r7]
2001:SynaptiX_FDK/services/fatfs/ff.c **** }
 663              		.loc 1 2001 1 view .LVU192
 664 006e BDE8F883 		pop	{r3, r4, r5, r6, r7, r8, r9, pc}
 665              	.LVL73:
 666              	.L44:
 667              		.loc 1 2001 1 view .LVU193
 668 0072 00BF     		.align	2
 669              	.L43:
 670 0074 00000000 		.word	LfnOfs
 671              		.cfi_endproc
 672              	.LFE24:
 674              		.section	.text.sum_sfn,"ax",%progbits
 675              		.align	1
 676              		.syntax unified
 677              		.thumb
 678              		.thumb_func
 680              	sum_sfn:
 681              	.LVL74:
 682              	.LFB26:
2002:SynaptiX_FDK/services/fatfs/ff.c **** 
2003:SynaptiX_FDK/services/fatfs/ff.c **** #endif	/* !FF_FS_READONLY */
2004:SynaptiX_FDK/services/fatfs/ff.c **** #endif	/* FF_USE_LFN */
2005:SynaptiX_FDK/services/fatfs/ff.c **** 
2006:SynaptiX_FDK/services/fatfs/ff.c **** 
2007:SynaptiX_FDK/services/fatfs/ff.c **** 
2008:SynaptiX_FDK/services/fatfs/ff.c **** #if FF_USE_LFN && !FF_FS_READONLY
2009:SynaptiX_FDK/services/fatfs/ff.c **** /*-----------------------------------------------------------------------*/
2010:SynaptiX_FDK/services/fatfs/ff.c **** /* FAT-LFN: Create a Numbered SFN                                        */
2011:SynaptiX_FDK/services/fatfs/ff.c **** /*-----------------------------------------------------------------------*/
2012:SynaptiX_FDK/services/fatfs/ff.c **** 
2013:SynaptiX_FDK/services/fatfs/ff.c **** static void gen_numname (
2014:SynaptiX_FDK/services/fatfs/ff.c **** 	BYTE* dst,			/* Pointer to the buffer to store numbered SFN */
2015:SynaptiX_FDK/services/fatfs/ff.c **** 	const BYTE* src,	/* Pointer to SFN in directory form */
2016:SynaptiX_FDK/services/fatfs/ff.c **** 	const WCHAR* lfn,	/* Pointer to LFN */
2017:SynaptiX_FDK/services/fatfs/ff.c **** 	WORD seq			/* Sequence number */
2018:SynaptiX_FDK/services/fatfs/ff.c **** )
2019:SynaptiX_FDK/services/fatfs/ff.c **** {
2020:SynaptiX_FDK/services/fatfs/ff.c **** 	BYTE ns[8], c;
2021:SynaptiX_FDK/services/fatfs/ff.c **** 	UINT i, j;
2022:SynaptiX_FDK/services/fatfs/ff.c **** 
2023:SynaptiX_FDK/services/fatfs/ff.c **** 
2024:SynaptiX_FDK/services/fatfs/ff.c **** 	memcpy(dst, src, 11);	/* Prepare the SFN to be modified */
2025:SynaptiX_FDK/services/fatfs/ff.c **** 
2026:SynaptiX_FDK/services/fatfs/ff.c **** 	if (seq > 5) {	/* In case of many collisions, generate a hash number instead of sequential number 
2027:SynaptiX_FDK/services/fatfs/ff.c **** 		WCHAR wc;
2028:SynaptiX_FDK/services/fatfs/ff.c **** 		DWORD crc_sreg = seq;
2029:SynaptiX_FDK/services/fatfs/ff.c **** 
2030:SynaptiX_FDK/services/fatfs/ff.c **** 		while (*lfn) {	/* Create a CRC value as a hash of LFN */
2031:SynaptiX_FDK/services/fatfs/ff.c **** 			wc = *lfn++;
2032:SynaptiX_FDK/services/fatfs/ff.c **** 			for (i = 0; i < 16; i++) {
2033:SynaptiX_FDK/services/fatfs/ff.c **** 				crc_sreg = (crc_sreg << 1) + (wc & 1);
2034:SynaptiX_FDK/services/fatfs/ff.c **** 				wc >>= 1;
2035:SynaptiX_FDK/services/fatfs/ff.c **** 				if (crc_sreg & 0x10000) crc_sreg ^= 0x11021;
ARM GAS  C:\Users\DELL\AppData\Local\Temp\ccO3UVpA.s 			page 49


2036:SynaptiX_FDK/services/fatfs/ff.c **** 			}
2037:SynaptiX_FDK/services/fatfs/ff.c **** 		}
2038:SynaptiX_FDK/services/fatfs/ff.c **** 		seq = (WORD)crc_sreg;
2039:SynaptiX_FDK/services/fatfs/ff.c **** 	}
2040:SynaptiX_FDK/services/fatfs/ff.c **** 
2041:SynaptiX_FDK/services/fatfs/ff.c **** 	/* Make suffix (~ + 4-digit hexadecimal) */
2042:SynaptiX_FDK/services/fatfs/ff.c **** 	i = 7;
2043:SynaptiX_FDK/services/fatfs/ff.c **** 	do {
2044:SynaptiX_FDK/services/fatfs/ff.c **** 		c = (BYTE)((seq % 16) + '0'); seq /= 16;
2045:SynaptiX_FDK/services/fatfs/ff.c **** 		if (c > '9') c += 7;
2046:SynaptiX_FDK/services/fatfs/ff.c **** 		ns[i--] = c;
2047:SynaptiX_FDK/services/fatfs/ff.c **** 	} while (i && seq);
2048:SynaptiX_FDK/services/fatfs/ff.c **** 	ns[i] = '~';
2049:SynaptiX_FDK/services/fatfs/ff.c **** 
2050:SynaptiX_FDK/services/fatfs/ff.c **** 	/* Append the suffix to the SFN body */
2051:SynaptiX_FDK/services/fatfs/ff.c **** 	for (j = 0; j < i && dst[j] != ' '; j++) {	/* Find the offset to append */
2052:SynaptiX_FDK/services/fatfs/ff.c **** 		if (dbc_1st(dst[j])) {	/* To avoid DBC break up */
2053:SynaptiX_FDK/services/fatfs/ff.c **** 			if (j == i - 1) break;
2054:SynaptiX_FDK/services/fatfs/ff.c **** 			j++;
2055:SynaptiX_FDK/services/fatfs/ff.c **** 		}
2056:SynaptiX_FDK/services/fatfs/ff.c **** 	}
2057:SynaptiX_FDK/services/fatfs/ff.c **** 	do {	/* Append the suffix */
2058:SynaptiX_FDK/services/fatfs/ff.c **** 		dst[j++] = (i < 8) ? ns[i++] : ' ';
2059:SynaptiX_FDK/services/fatfs/ff.c **** 	} while (j < 8);
2060:SynaptiX_FDK/services/fatfs/ff.c **** }
2061:SynaptiX_FDK/services/fatfs/ff.c **** #endif	/* FF_USE_LFN && !FF_FS_READONLY */
2062:SynaptiX_FDK/services/fatfs/ff.c **** 
2063:SynaptiX_FDK/services/fatfs/ff.c **** 
2064:SynaptiX_FDK/services/fatfs/ff.c **** 
2065:SynaptiX_FDK/services/fatfs/ff.c **** #if FF_USE_LFN
2066:SynaptiX_FDK/services/fatfs/ff.c **** /*-----------------------------------------------------------------------*/
2067:SynaptiX_FDK/services/fatfs/ff.c **** /* FAT-LFN: Calculate checksum of an SFN entry                           */
2068:SynaptiX_FDK/services/fatfs/ff.c **** /*-----------------------------------------------------------------------*/
2069:SynaptiX_FDK/services/fatfs/ff.c **** 
2070:SynaptiX_FDK/services/fatfs/ff.c **** static BYTE sum_sfn (
2071:SynaptiX_FDK/services/fatfs/ff.c **** 	const BYTE* dir		/* Pointer to the SFN entry */
2072:SynaptiX_FDK/services/fatfs/ff.c **** )
2073:SynaptiX_FDK/services/fatfs/ff.c **** {
 683              		.loc 1 2073 1 is_stmt 1 view -0
 684              		.cfi_startproc
 685              		@ args = 0, pretend = 0, frame = 0
 686              		@ frame_needed = 0, uses_anonymous_args = 0
 687              		@ link register save eliminated.
 688              		.loc 1 2073 1 is_stmt 0 view .LVU195
 689 0000 0146     		mov	r1, r0
2074:SynaptiX_FDK/services/fatfs/ff.c **** 	BYTE sum = 0;
 690              		.loc 1 2074 2 is_stmt 1 view .LVU196
 691              	.LVL75:
2075:SynaptiX_FDK/services/fatfs/ff.c **** 	UINT n = 11;
 692              		.loc 1 2075 2 view .LVU197
 693              		.loc 1 2075 7 is_stmt 0 view .LVU198
 694 0002 4FF00B0C 		mov	ip, #11
2074:SynaptiX_FDK/services/fatfs/ff.c **** 	BYTE sum = 0;
 695              		.loc 1 2074 7 view .LVU199
 696 0006 0020     		movs	r0, #0
 697              	.LVL76:
 698              	.L46:
ARM GAS  C:\Users\DELL\AppData\Local\Temp\ccO3UVpA.s 			page 50


2076:SynaptiX_FDK/services/fatfs/ff.c **** 
2077:SynaptiX_FDK/services/fatfs/ff.c **** 	do {
 699              		.loc 1 2077 2 is_stmt 1 view .LVU200
2078:SynaptiX_FDK/services/fatfs/ff.c **** 		sum = (sum >> 1) + (sum << 7) + *dir++;
 700              		.loc 1 2078 3 view .LVU201
 701              		.loc 1 2078 20 is_stmt 0 view .LVU202
 702 0008 C301     		lsls	r3, r0, #7
 703 000a 43EA5003 		orr	r3, r3, r0, lsr #1
 704              		.loc 1 2078 35 view .LVU203
 705 000e 0A78     		ldrb	r2, [r1]	@ zero_extendqisi2
 706 0010 0131     		adds	r1, r1, #1
 707              	.LVL77:
 708              		.loc 1 2078 7 view .LVU204
 709 0012 52FA83F3 		uxtab	r3, r2, r3
 710 0016 D8B2     		uxtb	r0, r3
 711              	.LVL78:
2079:SynaptiX_FDK/services/fatfs/ff.c **** 	} while (--n);
 712              		.loc 1 2079 11 is_stmt 1 discriminator 1 view .LVU205
 713              		.loc 1 2079 11 is_stmt 0 discriminator 1 view .LVU206
 714 0018 BCF1010C 		subs	ip, ip, #1
 715              	.LVL79:
 716              		.loc 1 2079 11 discriminator 1 view .LVU207
 717 001c F4D1     		bne	.L46
2080:SynaptiX_FDK/services/fatfs/ff.c **** 	return sum;
 718              		.loc 1 2080 2 is_stmt 1 view .LVU208
2081:SynaptiX_FDK/services/fatfs/ff.c **** }
 719              		.loc 1 2081 1 is_stmt 0 view .LVU209
 720 001e 7047     		bx	lr
 721              		.cfi_endproc
 722              	.LFE26:
 724              		.section	.text.get_ldnumber,"ax",%progbits
 725              		.align	1
 726              		.syntax unified
 727              		.thumb
 728              		.thumb_func
 730              	get_ldnumber:
 731              	.LVL80:
 732              	.LFB34:
2082:SynaptiX_FDK/services/fatfs/ff.c **** 
2083:SynaptiX_FDK/services/fatfs/ff.c **** #endif	/* FF_USE_LFN */
2084:SynaptiX_FDK/services/fatfs/ff.c **** 
2085:SynaptiX_FDK/services/fatfs/ff.c **** 
2086:SynaptiX_FDK/services/fatfs/ff.c **** 
2087:SynaptiX_FDK/services/fatfs/ff.c **** #if FF_FS_EXFAT
2088:SynaptiX_FDK/services/fatfs/ff.c **** /*-----------------------------------------------------------------------*/
2089:SynaptiX_FDK/services/fatfs/ff.c **** /* exFAT: Checksum                                                       */
2090:SynaptiX_FDK/services/fatfs/ff.c **** /*-----------------------------------------------------------------------*/
2091:SynaptiX_FDK/services/fatfs/ff.c **** 
2092:SynaptiX_FDK/services/fatfs/ff.c **** static WORD xdir_sum (	/* Get checksum of the directoly entry block */
2093:SynaptiX_FDK/services/fatfs/ff.c **** 	const BYTE* dir		/* Directory entry block to be calculated */
2094:SynaptiX_FDK/services/fatfs/ff.c **** )
2095:SynaptiX_FDK/services/fatfs/ff.c **** {
2096:SynaptiX_FDK/services/fatfs/ff.c **** 	UINT i, szblk;
2097:SynaptiX_FDK/services/fatfs/ff.c **** 	WORD sum;
2098:SynaptiX_FDK/services/fatfs/ff.c **** 
2099:SynaptiX_FDK/services/fatfs/ff.c **** 
2100:SynaptiX_FDK/services/fatfs/ff.c **** 	szblk = ((UINT)dir[XDIR_NumSec] + 1) * SZDIRE;	/* Number of bytes of the entry block */
ARM GAS  C:\Users\DELL\AppData\Local\Temp\ccO3UVpA.s 			page 51


2101:SynaptiX_FDK/services/fatfs/ff.c **** 	for (i = sum = 0; i < szblk; i++) {
2102:SynaptiX_FDK/services/fatfs/ff.c **** 		if (i == XDIR_SetSum) {	/* Skip 2-byte sum field */
2103:SynaptiX_FDK/services/fatfs/ff.c **** 			i++;
2104:SynaptiX_FDK/services/fatfs/ff.c **** 		} else {
2105:SynaptiX_FDK/services/fatfs/ff.c **** 			sum = ((sum & 1) ? 0x8000 : 0) + (sum >> 1) + dir[i];
2106:SynaptiX_FDK/services/fatfs/ff.c **** 		}
2107:SynaptiX_FDK/services/fatfs/ff.c **** 	}
2108:SynaptiX_FDK/services/fatfs/ff.c **** 	return sum;
2109:SynaptiX_FDK/services/fatfs/ff.c **** }
2110:SynaptiX_FDK/services/fatfs/ff.c **** 
2111:SynaptiX_FDK/services/fatfs/ff.c **** 
2112:SynaptiX_FDK/services/fatfs/ff.c **** 
2113:SynaptiX_FDK/services/fatfs/ff.c **** static WORD xname_sum (	/* Get check sum (to be used as hash) of the file name */
2114:SynaptiX_FDK/services/fatfs/ff.c **** 	const WCHAR* name	/* File name to be calculated */
2115:SynaptiX_FDK/services/fatfs/ff.c **** )
2116:SynaptiX_FDK/services/fatfs/ff.c **** {
2117:SynaptiX_FDK/services/fatfs/ff.c **** 	WCHAR chr;
2118:SynaptiX_FDK/services/fatfs/ff.c **** 	WORD sum = 0;
2119:SynaptiX_FDK/services/fatfs/ff.c **** 
2120:SynaptiX_FDK/services/fatfs/ff.c **** 
2121:SynaptiX_FDK/services/fatfs/ff.c **** 	while ((chr = *name++) != 0) {
2122:SynaptiX_FDK/services/fatfs/ff.c **** 		chr = (WCHAR)ff_wtoupper(chr);		/* File name needs to be up-case converted */
2123:SynaptiX_FDK/services/fatfs/ff.c **** 		sum = ((sum & 1) ? 0x8000 : 0) + (sum >> 1) + (chr & 0xFF);
2124:SynaptiX_FDK/services/fatfs/ff.c **** 		sum = ((sum & 1) ? 0x8000 : 0) + (sum >> 1) + (chr >> 8);
2125:SynaptiX_FDK/services/fatfs/ff.c **** 	}
2126:SynaptiX_FDK/services/fatfs/ff.c **** 	return sum;
2127:SynaptiX_FDK/services/fatfs/ff.c **** }
2128:SynaptiX_FDK/services/fatfs/ff.c **** 
2129:SynaptiX_FDK/services/fatfs/ff.c **** 
2130:SynaptiX_FDK/services/fatfs/ff.c **** #if !FF_FS_READONLY && FF_USE_MKFS
2131:SynaptiX_FDK/services/fatfs/ff.c **** static DWORD xsum32 (	/* Returns 32-bit checksum */
2132:SynaptiX_FDK/services/fatfs/ff.c **** 	BYTE  dat,			/* Byte to be calculated (byte-by-byte processing) */
2133:SynaptiX_FDK/services/fatfs/ff.c **** 	DWORD sum			/* Previous sum value */
2134:SynaptiX_FDK/services/fatfs/ff.c **** )
2135:SynaptiX_FDK/services/fatfs/ff.c **** {
2136:SynaptiX_FDK/services/fatfs/ff.c **** 	sum = ((sum & 1) ? 0x80000000 : 0) + (sum >> 1) + dat;
2137:SynaptiX_FDK/services/fatfs/ff.c **** 	return sum;
2138:SynaptiX_FDK/services/fatfs/ff.c **** }
2139:SynaptiX_FDK/services/fatfs/ff.c **** #endif
2140:SynaptiX_FDK/services/fatfs/ff.c **** 
2141:SynaptiX_FDK/services/fatfs/ff.c **** 
2142:SynaptiX_FDK/services/fatfs/ff.c **** 
2143:SynaptiX_FDK/services/fatfs/ff.c **** /*------------------------------------*/
2144:SynaptiX_FDK/services/fatfs/ff.c **** /* exFAT: Get a directory entry block */
2145:SynaptiX_FDK/services/fatfs/ff.c **** /*------------------------------------*/
2146:SynaptiX_FDK/services/fatfs/ff.c **** 
2147:SynaptiX_FDK/services/fatfs/ff.c **** static FRESULT load_xdir (	/* FR_INT_ERR: invalid entry block */
2148:SynaptiX_FDK/services/fatfs/ff.c **** 	DIR* dp					/* Reading directory object pointing top of the entry block to load */
2149:SynaptiX_FDK/services/fatfs/ff.c **** )
2150:SynaptiX_FDK/services/fatfs/ff.c **** {
2151:SynaptiX_FDK/services/fatfs/ff.c **** 	FRESULT res;
2152:SynaptiX_FDK/services/fatfs/ff.c **** 	UINT i, sz_ent;
2153:SynaptiX_FDK/services/fatfs/ff.c **** 	BYTE *dirb = dp->obj.fs->dirbuf;	/* Pointer to the on-memory directory entry block 85+C0+C1s */
2154:SynaptiX_FDK/services/fatfs/ff.c **** 
2155:SynaptiX_FDK/services/fatfs/ff.c **** 
2156:SynaptiX_FDK/services/fatfs/ff.c **** 	/* Load file-directory entry */
2157:SynaptiX_FDK/services/fatfs/ff.c **** 	res = move_window(dp->obj.fs, dp->sect);
ARM GAS  C:\Users\DELL\AppData\Local\Temp\ccO3UVpA.s 			page 52


2158:SynaptiX_FDK/services/fatfs/ff.c **** 	if (res != FR_OK) return res;
2159:SynaptiX_FDK/services/fatfs/ff.c **** 	if (dp->dir[XDIR_Type] != ET_FILEDIR) return FR_INT_ERR;	/* Invalid order? */
2160:SynaptiX_FDK/services/fatfs/ff.c **** 	memcpy(dirb + 0 * SZDIRE, dp->dir, SZDIRE);
2161:SynaptiX_FDK/services/fatfs/ff.c **** 	sz_ent = ((UINT)dirb[XDIR_NumSec] + 1) * SZDIRE;	/* Size of this entry block */
2162:SynaptiX_FDK/services/fatfs/ff.c **** 	if (sz_ent < 3 * SZDIRE || sz_ent > 19 * SZDIRE) return FR_INT_ERR;	/* Invalid block size? */
2163:SynaptiX_FDK/services/fatfs/ff.c **** 
2164:SynaptiX_FDK/services/fatfs/ff.c **** 	/* Load stream extension entry */
2165:SynaptiX_FDK/services/fatfs/ff.c **** 	res = dir_next(dp, 0);
2166:SynaptiX_FDK/services/fatfs/ff.c **** 	if (res == FR_NO_FILE) res = FR_INT_ERR;	/* It cannot be */
2167:SynaptiX_FDK/services/fatfs/ff.c **** 	if (res != FR_OK) return res;
2168:SynaptiX_FDK/services/fatfs/ff.c **** 	res = move_window(dp->obj.fs, dp->sect);
2169:SynaptiX_FDK/services/fatfs/ff.c **** 	if (res != FR_OK) return res;
2170:SynaptiX_FDK/services/fatfs/ff.c **** 	if (dp->dir[XDIR_Type] != ET_STREAM) return FR_INT_ERR;	/* Invalid order? */
2171:SynaptiX_FDK/services/fatfs/ff.c **** 	memcpy(dirb + 1 * SZDIRE, dp->dir, SZDIRE);
2172:SynaptiX_FDK/services/fatfs/ff.c **** 	if (MAXDIRB(dirb[XDIR_NumName]) > sz_ent) return FR_INT_ERR;	/* Invalid block size for the name? *
2173:SynaptiX_FDK/services/fatfs/ff.c **** 
2174:SynaptiX_FDK/services/fatfs/ff.c **** 	/* Load file name entries */
2175:SynaptiX_FDK/services/fatfs/ff.c **** 	i = 2 * SZDIRE;	/* Name offset to load */
2176:SynaptiX_FDK/services/fatfs/ff.c **** 	do {
2177:SynaptiX_FDK/services/fatfs/ff.c **** 		res = dir_next(dp, 0);
2178:SynaptiX_FDK/services/fatfs/ff.c **** 		if (res == FR_NO_FILE) res = FR_INT_ERR;	/* It cannot be */
2179:SynaptiX_FDK/services/fatfs/ff.c **** 		if (res != FR_OK) return res;
2180:SynaptiX_FDK/services/fatfs/ff.c **** 		res = move_window(dp->obj.fs, dp->sect);
2181:SynaptiX_FDK/services/fatfs/ff.c **** 		if (res != FR_OK) return res;
2182:SynaptiX_FDK/services/fatfs/ff.c **** 		if (dp->dir[XDIR_Type] != ET_FILENAME) return FR_INT_ERR;	/* Invalid order? */
2183:SynaptiX_FDK/services/fatfs/ff.c **** 		if (i < MAXDIRB(FF_MAX_LFN)) memcpy(dirb + i, dp->dir, SZDIRE);	/* Load name entries only if the 
2184:SynaptiX_FDK/services/fatfs/ff.c **** 	} while ((i += SZDIRE) < sz_ent);
2185:SynaptiX_FDK/services/fatfs/ff.c **** 
2186:SynaptiX_FDK/services/fatfs/ff.c **** 	/* Sanity check (do it for only accessible object) */
2187:SynaptiX_FDK/services/fatfs/ff.c **** 	if (i <= MAXDIRB(FF_MAX_LFN)) {
2188:SynaptiX_FDK/services/fatfs/ff.c **** 		if (xdir_sum(dirb) != ld_16(dirb + XDIR_SetSum)) return FR_INT_ERR;
2189:SynaptiX_FDK/services/fatfs/ff.c **** 	}
2190:SynaptiX_FDK/services/fatfs/ff.c **** 
2191:SynaptiX_FDK/services/fatfs/ff.c **** 	return FR_OK;
2192:SynaptiX_FDK/services/fatfs/ff.c **** }
2193:SynaptiX_FDK/services/fatfs/ff.c **** 
2194:SynaptiX_FDK/services/fatfs/ff.c **** 
2195:SynaptiX_FDK/services/fatfs/ff.c **** /*------------------------------------------------------------------*/
2196:SynaptiX_FDK/services/fatfs/ff.c **** /* exFAT: Initialize object allocation info with loaded entry block */
2197:SynaptiX_FDK/services/fatfs/ff.c **** /*------------------------------------------------------------------*/
2198:SynaptiX_FDK/services/fatfs/ff.c **** 
2199:SynaptiX_FDK/services/fatfs/ff.c **** static void init_alloc_info (
2200:SynaptiX_FDK/services/fatfs/ff.c **** 	FFOBJID* dobj,	/* Object allocation information to be initialized */
2201:SynaptiX_FDK/services/fatfs/ff.c **** 	DIR* sdir		/* Additional source about containing direcotry */
2202:SynaptiX_FDK/services/fatfs/ff.c **** )
2203:SynaptiX_FDK/services/fatfs/ff.c **** {
2204:SynaptiX_FDK/services/fatfs/ff.c **** 	FATFS *fs = dobj->fs;
2205:SynaptiX_FDK/services/fatfs/ff.c **** 
2206:SynaptiX_FDK/services/fatfs/ff.c **** 
2207:SynaptiX_FDK/services/fatfs/ff.c **** 	if (sdir) {	/* Initialize the containing directory. This block needs to precede the followings. */
2208:SynaptiX_FDK/services/fatfs/ff.c **** 		dobj->c_scl = sdir->obj.sclust;
2209:SynaptiX_FDK/services/fatfs/ff.c **** 		dobj->c_size = ((DWORD)sdir->obj.objsize & 0xFFFFFF00) | sdir->obj.stat;
2210:SynaptiX_FDK/services/fatfs/ff.c **** 		dobj->c_ofs = sdir->blk_ofs;
2211:SynaptiX_FDK/services/fatfs/ff.c **** 	}
2212:SynaptiX_FDK/services/fatfs/ff.c **** 	dobj->sclust = ld_32(fs->dirbuf + XDIR_FstClus);	/* Start cluster */
2213:SynaptiX_FDK/services/fatfs/ff.c **** 	dobj->objsize = ld_64(fs->dirbuf + XDIR_FileSize);	/* Size */
2214:SynaptiX_FDK/services/fatfs/ff.c **** 	dobj->stat = fs->dirbuf[XDIR_GenFlags] & 2;			/* Allocation status */
ARM GAS  C:\Users\DELL\AppData\Local\Temp\ccO3UVpA.s 			page 53


2215:SynaptiX_FDK/services/fatfs/ff.c **** 	dobj->n_frag = 0;									/* No last fragment info */
2216:SynaptiX_FDK/services/fatfs/ff.c **** }
2217:SynaptiX_FDK/services/fatfs/ff.c **** 
2218:SynaptiX_FDK/services/fatfs/ff.c **** 
2219:SynaptiX_FDK/services/fatfs/ff.c **** 
2220:SynaptiX_FDK/services/fatfs/ff.c **** #if !FF_FS_READONLY || FF_FS_RPATH
2221:SynaptiX_FDK/services/fatfs/ff.c **** /*------------------------------------------------*/
2222:SynaptiX_FDK/services/fatfs/ff.c **** /* exFAT: Load the object's directory entry block */
2223:SynaptiX_FDK/services/fatfs/ff.c **** /*------------------------------------------------*/
2224:SynaptiX_FDK/services/fatfs/ff.c **** 
2225:SynaptiX_FDK/services/fatfs/ff.c **** static FRESULT load_obj_xdir (
2226:SynaptiX_FDK/services/fatfs/ff.c **** 	DIR* dp,			/* Blank directory object to be used to access containing directory */
2227:SynaptiX_FDK/services/fatfs/ff.c **** 	const FFOBJID* obj	/* Object with its containing directory information */
2228:SynaptiX_FDK/services/fatfs/ff.c **** )
2229:SynaptiX_FDK/services/fatfs/ff.c **** {
2230:SynaptiX_FDK/services/fatfs/ff.c **** 	FRESULT res;
2231:SynaptiX_FDK/services/fatfs/ff.c **** 
2232:SynaptiX_FDK/services/fatfs/ff.c **** 	/* Open object containing directory */
2233:SynaptiX_FDK/services/fatfs/ff.c **** 	dp->obj.fs = obj->fs;
2234:SynaptiX_FDK/services/fatfs/ff.c **** 	dp->obj.sclust = obj->c_scl;
2235:SynaptiX_FDK/services/fatfs/ff.c **** 	dp->obj.stat = (BYTE)obj->c_size;
2236:SynaptiX_FDK/services/fatfs/ff.c **** 	dp->obj.objsize = obj->c_size & 0xFFFFFF00;
2237:SynaptiX_FDK/services/fatfs/ff.c **** 	dp->obj.n_frag = 0;
2238:SynaptiX_FDK/services/fatfs/ff.c **** 	dp->blk_ofs = obj->c_ofs;
2239:SynaptiX_FDK/services/fatfs/ff.c **** 
2240:SynaptiX_FDK/services/fatfs/ff.c **** 	res = dir_sdi(dp, dp->blk_ofs);	/* Goto object's entry block */
2241:SynaptiX_FDK/services/fatfs/ff.c **** 	if (res == FR_OK) {
2242:SynaptiX_FDK/services/fatfs/ff.c **** 		res = load_xdir(dp);		/* Load the object's entry block */
2243:SynaptiX_FDK/services/fatfs/ff.c **** 	}
2244:SynaptiX_FDK/services/fatfs/ff.c **** 	return res;
2245:SynaptiX_FDK/services/fatfs/ff.c **** }
2246:SynaptiX_FDK/services/fatfs/ff.c **** #endif
2247:SynaptiX_FDK/services/fatfs/ff.c **** 
2248:SynaptiX_FDK/services/fatfs/ff.c **** 
2249:SynaptiX_FDK/services/fatfs/ff.c **** #if !FF_FS_READONLY
2250:SynaptiX_FDK/services/fatfs/ff.c **** /*----------------------------------------*/
2251:SynaptiX_FDK/services/fatfs/ff.c **** /* exFAT: Store the directory entry block */
2252:SynaptiX_FDK/services/fatfs/ff.c **** /*----------------------------------------*/
2253:SynaptiX_FDK/services/fatfs/ff.c **** 
2254:SynaptiX_FDK/services/fatfs/ff.c **** static FRESULT store_xdir (
2255:SynaptiX_FDK/services/fatfs/ff.c **** 	DIR* dp				/* Pointer to the directory object */
2256:SynaptiX_FDK/services/fatfs/ff.c **** )
2257:SynaptiX_FDK/services/fatfs/ff.c **** {
2258:SynaptiX_FDK/services/fatfs/ff.c **** 	FRESULT res;
2259:SynaptiX_FDK/services/fatfs/ff.c **** 	UINT nent;
2260:SynaptiX_FDK/services/fatfs/ff.c **** 	BYTE *dirb = dp->obj.fs->dirbuf;	/* Pointer to the entry set 85+C0+C1s */
2261:SynaptiX_FDK/services/fatfs/ff.c **** 
2262:SynaptiX_FDK/services/fatfs/ff.c **** 
2263:SynaptiX_FDK/services/fatfs/ff.c **** 	st_16(dirb + XDIR_SetSum, xdir_sum(dirb));	/* Create check sum */
2264:SynaptiX_FDK/services/fatfs/ff.c **** 
2265:SynaptiX_FDK/services/fatfs/ff.c **** 	/* Store the entry set to the directory */
2266:SynaptiX_FDK/services/fatfs/ff.c **** 	nent = dirb[XDIR_NumSec] + 1;	/* Number of entries */
2267:SynaptiX_FDK/services/fatfs/ff.c **** 	res = dir_sdi(dp, dp->blk_ofs);	/* Top of the entry set */
2268:SynaptiX_FDK/services/fatfs/ff.c **** 	while (res == FR_OK) {
2269:SynaptiX_FDK/services/fatfs/ff.c **** 		/* Set an entry to the directory */
2270:SynaptiX_FDK/services/fatfs/ff.c **** 		res = move_window(dp->obj.fs, dp->sect);
2271:SynaptiX_FDK/services/fatfs/ff.c **** 		if (res != FR_OK) break;
ARM GAS  C:\Users\DELL\AppData\Local\Temp\ccO3UVpA.s 			page 54


2272:SynaptiX_FDK/services/fatfs/ff.c **** 		memcpy(dp->dir, dirb, SZDIRE);
2273:SynaptiX_FDK/services/fatfs/ff.c **** 		dp->obj.fs->wflag = 1;
2274:SynaptiX_FDK/services/fatfs/ff.c **** 
2275:SynaptiX_FDK/services/fatfs/ff.c **** 		if (--nent == 0) break;	/* All done? */
2276:SynaptiX_FDK/services/fatfs/ff.c **** 		dirb += SZDIRE;
2277:SynaptiX_FDK/services/fatfs/ff.c **** 		res = dir_next(dp, 0);	/* Next entry */
2278:SynaptiX_FDK/services/fatfs/ff.c **** 	}
2279:SynaptiX_FDK/services/fatfs/ff.c **** 	return (res == FR_OK || res == FR_DISK_ERR) ? res : FR_INT_ERR;
2280:SynaptiX_FDK/services/fatfs/ff.c **** }
2281:SynaptiX_FDK/services/fatfs/ff.c **** 
2282:SynaptiX_FDK/services/fatfs/ff.c **** 
2283:SynaptiX_FDK/services/fatfs/ff.c **** 
2284:SynaptiX_FDK/services/fatfs/ff.c **** /*-------------------------------------------*/
2285:SynaptiX_FDK/services/fatfs/ff.c **** /* exFAT: Create a new directory entry block */
2286:SynaptiX_FDK/services/fatfs/ff.c **** /*-------------------------------------------*/
2287:SynaptiX_FDK/services/fatfs/ff.c **** 
2288:SynaptiX_FDK/services/fatfs/ff.c **** static void create_xdir (
2289:SynaptiX_FDK/services/fatfs/ff.c **** 	BYTE* dirb,			/* Pointer to the directory entry block buffer */
2290:SynaptiX_FDK/services/fatfs/ff.c **** 	const WCHAR* lfn	/* Pointer to the object name */
2291:SynaptiX_FDK/services/fatfs/ff.c **** )
2292:SynaptiX_FDK/services/fatfs/ff.c **** {
2293:SynaptiX_FDK/services/fatfs/ff.c **** 	UINT i;
2294:SynaptiX_FDK/services/fatfs/ff.c **** 	BYTE n_c1, nlen;
2295:SynaptiX_FDK/services/fatfs/ff.c **** 	WCHAR chr;
2296:SynaptiX_FDK/services/fatfs/ff.c **** 
2297:SynaptiX_FDK/services/fatfs/ff.c **** 
2298:SynaptiX_FDK/services/fatfs/ff.c **** 	/* Create file-directory and stream-extension entry (1st and 2nd entry) */
2299:SynaptiX_FDK/services/fatfs/ff.c **** 	memset(dirb, 0, 2 * SZDIRE);
2300:SynaptiX_FDK/services/fatfs/ff.c **** 	dirb[0 * SZDIRE + XDIR_Type] = ET_FILEDIR;
2301:SynaptiX_FDK/services/fatfs/ff.c **** 	dirb[1 * SZDIRE + XDIR_Type] = ET_STREAM;
2302:SynaptiX_FDK/services/fatfs/ff.c **** 
2303:SynaptiX_FDK/services/fatfs/ff.c **** 	/* Create file name entries (3rd enrty and follows) */
2304:SynaptiX_FDK/services/fatfs/ff.c **** 	i = SZDIRE * 2;	/* Top of file name entries */
2305:SynaptiX_FDK/services/fatfs/ff.c **** 	nlen = n_c1 = 0; chr = 1;
2306:SynaptiX_FDK/services/fatfs/ff.c **** 	do {
2307:SynaptiX_FDK/services/fatfs/ff.c **** 		dirb[i++] = ET_FILENAME; dirb[i++] = 0;
2308:SynaptiX_FDK/services/fatfs/ff.c **** 		do {	/* Fill name field */
2309:SynaptiX_FDK/services/fatfs/ff.c **** 			if (chr != 0 && (chr = lfn[nlen]) != 0) nlen++;	/* Get a character if exist */
2310:SynaptiX_FDK/services/fatfs/ff.c **** 			st_16(dirb + i, chr); 	/* Store it */
2311:SynaptiX_FDK/services/fatfs/ff.c **** 			i += 2;
2312:SynaptiX_FDK/services/fatfs/ff.c **** 		} while (i % SZDIRE != 0);
2313:SynaptiX_FDK/services/fatfs/ff.c **** 		n_c1++;
2314:SynaptiX_FDK/services/fatfs/ff.c **** 	} while (lfn[nlen]);	/* Fill next C1 entry if any char follows */
2315:SynaptiX_FDK/services/fatfs/ff.c **** 
2316:SynaptiX_FDK/services/fatfs/ff.c **** 	dirb[XDIR_NumName] = nlen;		/* Set name length */
2317:SynaptiX_FDK/services/fatfs/ff.c **** 	dirb[XDIR_NumSec] = 1 + n_c1;	/* Set secondary count (C0 + C1s) */
2318:SynaptiX_FDK/services/fatfs/ff.c **** 	st_16(dirb + XDIR_NameHash, xname_sum(lfn));	/* Set name hash */
2319:SynaptiX_FDK/services/fatfs/ff.c **** }
2320:SynaptiX_FDK/services/fatfs/ff.c **** 
2321:SynaptiX_FDK/services/fatfs/ff.c **** #endif	/* !FF_FS_READONLY */
2322:SynaptiX_FDK/services/fatfs/ff.c **** #endif	/* FF_FS_EXFAT */
2323:SynaptiX_FDK/services/fatfs/ff.c **** 
2324:SynaptiX_FDK/services/fatfs/ff.c **** 
2325:SynaptiX_FDK/services/fatfs/ff.c **** 
2326:SynaptiX_FDK/services/fatfs/ff.c **** #if FF_FS_MINIMIZE <= 1 || FF_FS_RPATH >= 2 || FF_USE_LABEL || FF_FS_EXFAT
2327:SynaptiX_FDK/services/fatfs/ff.c **** /*-----------------------------------------------------------------------*/
2328:SynaptiX_FDK/services/fatfs/ff.c **** /* Read an object from the directory                                     */
ARM GAS  C:\Users\DELL\AppData\Local\Temp\ccO3UVpA.s 			page 55


2329:SynaptiX_FDK/services/fatfs/ff.c **** /*-----------------------------------------------------------------------*/
2330:SynaptiX_FDK/services/fatfs/ff.c **** 
2331:SynaptiX_FDK/services/fatfs/ff.c **** #define DIR_READ_FILE(dp) dir_read(dp, 0)
2332:SynaptiX_FDK/services/fatfs/ff.c **** #define DIR_READ_LABEL(dp) dir_read(dp, 1)
2333:SynaptiX_FDK/services/fatfs/ff.c **** 
2334:SynaptiX_FDK/services/fatfs/ff.c **** static FRESULT dir_read (
2335:SynaptiX_FDK/services/fatfs/ff.c **** 	DIR* dp,		/* Pointer to the directory object */
2336:SynaptiX_FDK/services/fatfs/ff.c **** 	int vol			/* Filtered by 0:file/directory or 1:volume label */
2337:SynaptiX_FDK/services/fatfs/ff.c **** )
2338:SynaptiX_FDK/services/fatfs/ff.c **** {
2339:SynaptiX_FDK/services/fatfs/ff.c **** 	FRESULT res = FR_NO_FILE;
2340:SynaptiX_FDK/services/fatfs/ff.c **** 	FATFS *fs = dp->obj.fs;
2341:SynaptiX_FDK/services/fatfs/ff.c **** 	BYTE attr, et;
2342:SynaptiX_FDK/services/fatfs/ff.c **** #if FF_USE_LFN
2343:SynaptiX_FDK/services/fatfs/ff.c **** 	BYTE ord = 0xFF, sum = 0xFF;
2344:SynaptiX_FDK/services/fatfs/ff.c **** #endif
2345:SynaptiX_FDK/services/fatfs/ff.c **** 
2346:SynaptiX_FDK/services/fatfs/ff.c **** 	while (dp->sect) {
2347:SynaptiX_FDK/services/fatfs/ff.c **** 		res = move_window(fs, dp->sect);
2348:SynaptiX_FDK/services/fatfs/ff.c **** 		if (res != FR_OK) break;
2349:SynaptiX_FDK/services/fatfs/ff.c **** 		et = dp->dir[DIR_Name];	/* Test for the entry type */
2350:SynaptiX_FDK/services/fatfs/ff.c **** 		if (et == 0) {
2351:SynaptiX_FDK/services/fatfs/ff.c **** 			res = FR_NO_FILE; break; /* Reached to end of the directory */
2352:SynaptiX_FDK/services/fatfs/ff.c **** 		}
2353:SynaptiX_FDK/services/fatfs/ff.c **** #if FF_FS_EXFAT
2354:SynaptiX_FDK/services/fatfs/ff.c **** 		if (fs->fs_type == FS_EXFAT) {	/* On the exFAT volume */
2355:SynaptiX_FDK/services/fatfs/ff.c **** 			if (FF_USE_LABEL && vol) {
2356:SynaptiX_FDK/services/fatfs/ff.c **** 				if (et == ET_VLABEL) break;	/* Volume label entry? */
2357:SynaptiX_FDK/services/fatfs/ff.c **** 			} else {
2358:SynaptiX_FDK/services/fatfs/ff.c **** 				if (et == ET_FILEDIR) {		/* Start of the file entry block? */
2359:SynaptiX_FDK/services/fatfs/ff.c **** 					dp->blk_ofs = dp->dptr;	/* Get location of the block */
2360:SynaptiX_FDK/services/fatfs/ff.c **** 					res = load_xdir(dp);	/* Load the entry block */
2361:SynaptiX_FDK/services/fatfs/ff.c **** 					if (res == FR_OK) {
2362:SynaptiX_FDK/services/fatfs/ff.c **** 						dp->obj.attr = fs->dirbuf[XDIR_Attr] & AM_MASK;	/* Get attribute */
2363:SynaptiX_FDK/services/fatfs/ff.c **** 					}
2364:SynaptiX_FDK/services/fatfs/ff.c **** 					break;
2365:SynaptiX_FDK/services/fatfs/ff.c **** 				}
2366:SynaptiX_FDK/services/fatfs/ff.c **** 			}
2367:SynaptiX_FDK/services/fatfs/ff.c **** 		} else
2368:SynaptiX_FDK/services/fatfs/ff.c **** #endif
2369:SynaptiX_FDK/services/fatfs/ff.c **** 		{	/* On the FAT/FAT32 volume */
2370:SynaptiX_FDK/services/fatfs/ff.c **** 			dp->obj.attr = attr = dp->dir[DIR_Attr] & AM_MASK;	/* Get attribute */
2371:SynaptiX_FDK/services/fatfs/ff.c **** #if FF_USE_LFN		/* LFN configuration */
2372:SynaptiX_FDK/services/fatfs/ff.c **** 			if (et == DDEM || et == '.' || (int)((attr & ~AM_ARC) == AM_VOL) != vol) {	/* An entry without v
2373:SynaptiX_FDK/services/fatfs/ff.c **** 				ord = 0xFF;
2374:SynaptiX_FDK/services/fatfs/ff.c **** 			} else {
2375:SynaptiX_FDK/services/fatfs/ff.c **** 				if (attr == AM_LFN) {	/* An LFN entry is found */
2376:SynaptiX_FDK/services/fatfs/ff.c **** 					if (et & LLEF) {		/* Is it start of an LFN sequence? */
2377:SynaptiX_FDK/services/fatfs/ff.c **** 						sum = dp->dir[LDIR_Chksum];
2378:SynaptiX_FDK/services/fatfs/ff.c **** 						et &= (BYTE)~LLEF; ord = et;
2379:SynaptiX_FDK/services/fatfs/ff.c **** 						dp->blk_ofs = dp->dptr;
2380:SynaptiX_FDK/services/fatfs/ff.c **** 					}
2381:SynaptiX_FDK/services/fatfs/ff.c **** 					/* Check LFN validity and capture it */
2382:SynaptiX_FDK/services/fatfs/ff.c **** 					ord = (et == ord && sum == dp->dir[LDIR_Chksum] && pick_lfn(fs->lfnbuf, dp->dir)) ? ord - 1 : 
2383:SynaptiX_FDK/services/fatfs/ff.c **** 				} else {				/* An SFN entry is found */
2384:SynaptiX_FDK/services/fatfs/ff.c **** 					if (ord != 0 || sum != sum_sfn(dp->dir)) {	/* Is there a valid LFN? */
2385:SynaptiX_FDK/services/fatfs/ff.c **** 						dp->blk_ofs = 0xFFFFFFFF;	/* It has no LFN. */
ARM GAS  C:\Users\DELL\AppData\Local\Temp\ccO3UVpA.s 			page 56


2386:SynaptiX_FDK/services/fatfs/ff.c **** 					}
2387:SynaptiX_FDK/services/fatfs/ff.c **** 					break;
2388:SynaptiX_FDK/services/fatfs/ff.c **** 				}
2389:SynaptiX_FDK/services/fatfs/ff.c **** 			}
2390:SynaptiX_FDK/services/fatfs/ff.c **** #else		/* Non LFN configuration */
2391:SynaptiX_FDK/services/fatfs/ff.c **** 			if (et != DDEM && et != '.' && attr != AM_LFN && (int)((attr & ~AM_ARC) == AM_VOL) == vol) {	/* 
2392:SynaptiX_FDK/services/fatfs/ff.c **** 				break;
2393:SynaptiX_FDK/services/fatfs/ff.c **** 			}
2394:SynaptiX_FDK/services/fatfs/ff.c **** #endif
2395:SynaptiX_FDK/services/fatfs/ff.c **** 		}
2396:SynaptiX_FDK/services/fatfs/ff.c **** 		res = dir_next(dp, 0);		/* Next entry */
2397:SynaptiX_FDK/services/fatfs/ff.c **** 		if (res != FR_OK) break;
2398:SynaptiX_FDK/services/fatfs/ff.c **** 	}
2399:SynaptiX_FDK/services/fatfs/ff.c **** 
2400:SynaptiX_FDK/services/fatfs/ff.c **** 	if (res != FR_OK) dp->sect = 0;		/* Terminate the read operation on error or EOT */
2401:SynaptiX_FDK/services/fatfs/ff.c **** 	return res;
2402:SynaptiX_FDK/services/fatfs/ff.c **** }
2403:SynaptiX_FDK/services/fatfs/ff.c **** 
2404:SynaptiX_FDK/services/fatfs/ff.c **** #endif	/* FF_FS_MINIMIZE <= 1 || FF_USE_LABEL || FF_FS_RPATH >= 2 */
2405:SynaptiX_FDK/services/fatfs/ff.c **** 
2406:SynaptiX_FDK/services/fatfs/ff.c **** 
2407:SynaptiX_FDK/services/fatfs/ff.c **** 
2408:SynaptiX_FDK/services/fatfs/ff.c **** /*-----------------------------------------------------------------------*/
2409:SynaptiX_FDK/services/fatfs/ff.c **** /* Directory handling - Find an object in the directory                  */
2410:SynaptiX_FDK/services/fatfs/ff.c **** /*-----------------------------------------------------------------------*/
2411:SynaptiX_FDK/services/fatfs/ff.c **** 
2412:SynaptiX_FDK/services/fatfs/ff.c **** static FRESULT dir_find (	/* FR_OK(0):succeeded, !=0:error */
2413:SynaptiX_FDK/services/fatfs/ff.c **** 	DIR* dp					/* Pointer to the directory object with the file name */
2414:SynaptiX_FDK/services/fatfs/ff.c **** )
2415:SynaptiX_FDK/services/fatfs/ff.c **** {
2416:SynaptiX_FDK/services/fatfs/ff.c **** 	FRESULT res;
2417:SynaptiX_FDK/services/fatfs/ff.c **** 	FATFS *fs = dp->obj.fs;
2418:SynaptiX_FDK/services/fatfs/ff.c **** 	BYTE et;
2419:SynaptiX_FDK/services/fatfs/ff.c **** #if FF_USE_LFN
2420:SynaptiX_FDK/services/fatfs/ff.c **** 	BYTE attr, ord, sum;
2421:SynaptiX_FDK/services/fatfs/ff.c **** #endif
2422:SynaptiX_FDK/services/fatfs/ff.c **** 
2423:SynaptiX_FDK/services/fatfs/ff.c **** 	res = dir_sdi(dp, 0);			/* Rewind directory object */
2424:SynaptiX_FDK/services/fatfs/ff.c **** 	if (res != FR_OK) return res;
2425:SynaptiX_FDK/services/fatfs/ff.c **** #if FF_FS_EXFAT
2426:SynaptiX_FDK/services/fatfs/ff.c **** 	if (fs->fs_type == FS_EXFAT) {	/* On the exFAT volume */
2427:SynaptiX_FDK/services/fatfs/ff.c **** 		BYTE nc;
2428:SynaptiX_FDK/services/fatfs/ff.c **** 		UINT di, ni;
2429:SynaptiX_FDK/services/fatfs/ff.c **** 		WORD hash = xname_sum(fs->lfnbuf);		/* Hash value of the name to find */
2430:SynaptiX_FDK/services/fatfs/ff.c **** 
2431:SynaptiX_FDK/services/fatfs/ff.c **** 		while ((res = DIR_READ_FILE(dp)) == FR_OK) {	/* Read an item */
2432:SynaptiX_FDK/services/fatfs/ff.c **** #if FF_MAX_LFN < 255
2433:SynaptiX_FDK/services/fatfs/ff.c **** 			if (fs->dirbuf[XDIR_NumName] > FF_MAX_LFN) continue;		/* Skip comparison if inaccessible object 
2434:SynaptiX_FDK/services/fatfs/ff.c **** #endif
2435:SynaptiX_FDK/services/fatfs/ff.c **** 			if (ld_16(fs->dirbuf + XDIR_NameHash) != hash) continue;	/* Skip comparison if hash mismatched *
2436:SynaptiX_FDK/services/fatfs/ff.c **** 			for (nc = fs->dirbuf[XDIR_NumName], di = SZDIRE * 2, ni = 0; nc; nc--, di += 2, ni++) {	/* Compa
2437:SynaptiX_FDK/services/fatfs/ff.c **** 				if ((di % SZDIRE) == 0) di += 2;
2438:SynaptiX_FDK/services/fatfs/ff.c **** 				if (ff_wtoupper(ld_16(fs->dirbuf + di)) != ff_wtoupper(fs->lfnbuf[ni])) break;
2439:SynaptiX_FDK/services/fatfs/ff.c **** 			}
2440:SynaptiX_FDK/services/fatfs/ff.c **** 			if (nc == 0 && !fs->lfnbuf[ni]) break;	/* Name matched? */
2441:SynaptiX_FDK/services/fatfs/ff.c **** 		}
2442:SynaptiX_FDK/services/fatfs/ff.c **** 		return res;
ARM GAS  C:\Users\DELL\AppData\Local\Temp\ccO3UVpA.s 			page 57


2443:SynaptiX_FDK/services/fatfs/ff.c **** 	}
2444:SynaptiX_FDK/services/fatfs/ff.c **** #endif
2445:SynaptiX_FDK/services/fatfs/ff.c **** 	/* On the FAT/FAT32 volume */
2446:SynaptiX_FDK/services/fatfs/ff.c **** #if FF_USE_LFN
2447:SynaptiX_FDK/services/fatfs/ff.c **** 	ord = sum = 0xFF; dp->blk_ofs = 0xFFFFFFFF;	/* Reset LFN sequence */
2448:SynaptiX_FDK/services/fatfs/ff.c **** #endif
2449:SynaptiX_FDK/services/fatfs/ff.c **** 	do {
2450:SynaptiX_FDK/services/fatfs/ff.c **** 		res = move_window(fs, dp->sect);
2451:SynaptiX_FDK/services/fatfs/ff.c **** 		if (res != FR_OK) break;
2452:SynaptiX_FDK/services/fatfs/ff.c **** 		et = dp->dir[DIR_Name];		/* Entry type */
2453:SynaptiX_FDK/services/fatfs/ff.c **** 		if (et == 0) { res = FR_NO_FILE; break; }	/* Reached end of directory table */
2454:SynaptiX_FDK/services/fatfs/ff.c **** #if FF_USE_LFN		/* LFN configuration */
2455:SynaptiX_FDK/services/fatfs/ff.c **** 		dp->obj.attr = attr = dp->dir[DIR_Attr] & AM_MASK;
2456:SynaptiX_FDK/services/fatfs/ff.c **** 		if (et == DDEM || ((attr & AM_VOL) && attr != AM_LFN)) {	/* An entry without valid data */
2457:SynaptiX_FDK/services/fatfs/ff.c **** 			ord = 0xFF; dp->blk_ofs = 0xFFFFFFFF;	/* Reset LFN sequence */
2458:SynaptiX_FDK/services/fatfs/ff.c **** 		} else {
2459:SynaptiX_FDK/services/fatfs/ff.c **** 			if (attr == AM_LFN) {			/* Is it an LFN entry? */
2460:SynaptiX_FDK/services/fatfs/ff.c **** 				if (!(dp->fn[NSFLAG] & NS_NOLFN)) {
2461:SynaptiX_FDK/services/fatfs/ff.c **** 					if (et & LLEF) {		/* Is it start of an entry set? */
2462:SynaptiX_FDK/services/fatfs/ff.c **** 						et &= (BYTE)~LLEF;
2463:SynaptiX_FDK/services/fatfs/ff.c **** 						ord = et;					/* Number of LFN entries */
2464:SynaptiX_FDK/services/fatfs/ff.c **** 						dp->blk_ofs = dp->dptr;		/* Start offset of LFN */
2465:SynaptiX_FDK/services/fatfs/ff.c **** 						sum = dp->dir[LDIR_Chksum];	/* Sum of the SFN */
2466:SynaptiX_FDK/services/fatfs/ff.c **** 					}
2467:SynaptiX_FDK/services/fatfs/ff.c **** 					/* Check validity of the LFN entry and compare it with given name */
2468:SynaptiX_FDK/services/fatfs/ff.c **** 					ord = (et == ord && sum == dp->dir[LDIR_Chksum] && cmp_lfn(fs->lfnbuf, dp->dir)) ? ord - 1 : 0
2469:SynaptiX_FDK/services/fatfs/ff.c **** 				}
2470:SynaptiX_FDK/services/fatfs/ff.c **** 			} else {					/* SFN entry */
2471:SynaptiX_FDK/services/fatfs/ff.c **** 				if (ord == 0 && sum == sum_sfn(dp->dir)) break;	/* LFN matched? */
2472:SynaptiX_FDK/services/fatfs/ff.c **** 				if (!(dp->fn[NSFLAG] & NS_LOSS) && !memcmp(dp->dir, dp->fn, 11)) break;	/* SFN matched? */
2473:SynaptiX_FDK/services/fatfs/ff.c **** 				ord = 0xFF; dp->blk_ofs = 0xFFFFFFFF;	/* Not matched, reset LFN sequence */
2474:SynaptiX_FDK/services/fatfs/ff.c **** 			}
2475:SynaptiX_FDK/services/fatfs/ff.c **** 		}
2476:SynaptiX_FDK/services/fatfs/ff.c **** #else		/* Non LFN configuration */
2477:SynaptiX_FDK/services/fatfs/ff.c **** 		dp->obj.attr = dp->dir[DIR_Attr] & AM_MASK;
2478:SynaptiX_FDK/services/fatfs/ff.c **** 		if (!(dp->dir[DIR_Attr] & AM_VOL) && !memcmp(dp->dir, dp->fn, 11)) break;	/* Is it a valid entry?
2479:SynaptiX_FDK/services/fatfs/ff.c **** #endif
2480:SynaptiX_FDK/services/fatfs/ff.c **** 		res = dir_next(dp, 0);	/* Next entry */
2481:SynaptiX_FDK/services/fatfs/ff.c **** 	} while (res == FR_OK);
2482:SynaptiX_FDK/services/fatfs/ff.c **** 
2483:SynaptiX_FDK/services/fatfs/ff.c **** 	return res;
2484:SynaptiX_FDK/services/fatfs/ff.c **** }
2485:SynaptiX_FDK/services/fatfs/ff.c **** 
2486:SynaptiX_FDK/services/fatfs/ff.c **** 
2487:SynaptiX_FDK/services/fatfs/ff.c **** 
2488:SynaptiX_FDK/services/fatfs/ff.c **** 
2489:SynaptiX_FDK/services/fatfs/ff.c **** #if !FF_FS_READONLY
2490:SynaptiX_FDK/services/fatfs/ff.c **** /*-----------------------------------------------------------------------*/
2491:SynaptiX_FDK/services/fatfs/ff.c **** /* Register an object to the directory                                   */
2492:SynaptiX_FDK/services/fatfs/ff.c **** /*-----------------------------------------------------------------------*/
2493:SynaptiX_FDK/services/fatfs/ff.c **** 
2494:SynaptiX_FDK/services/fatfs/ff.c **** static FRESULT dir_register (	/* FR_OK:succeeded, FR_DENIED:no free entry or too many SFN collision
2495:SynaptiX_FDK/services/fatfs/ff.c **** 	DIR* dp						/* Target directory with object name to be created */
2496:SynaptiX_FDK/services/fatfs/ff.c **** )
2497:SynaptiX_FDK/services/fatfs/ff.c **** {
2498:SynaptiX_FDK/services/fatfs/ff.c **** 	FRESULT res;
2499:SynaptiX_FDK/services/fatfs/ff.c **** 	FATFS *fs = dp->obj.fs;
ARM GAS  C:\Users\DELL\AppData\Local\Temp\ccO3UVpA.s 			page 58


2500:SynaptiX_FDK/services/fatfs/ff.c **** #if FF_USE_LFN		/* LFN configuration */
2501:SynaptiX_FDK/services/fatfs/ff.c **** 	UINT n, len, n_ent;
2502:SynaptiX_FDK/services/fatfs/ff.c **** 	BYTE sn[12];
2503:SynaptiX_FDK/services/fatfs/ff.c **** 
2504:SynaptiX_FDK/services/fatfs/ff.c **** 
2505:SynaptiX_FDK/services/fatfs/ff.c **** 	if (dp->fn[NSFLAG] & (NS_DOT | NS_NONAME)) return FR_INVALID_NAME;	/* Check name validity */
2506:SynaptiX_FDK/services/fatfs/ff.c **** 	for (len = 0; fs->lfnbuf[len]; len++) ;	/* Get lfn length */
2507:SynaptiX_FDK/services/fatfs/ff.c **** 
2508:SynaptiX_FDK/services/fatfs/ff.c **** #if FF_FS_EXFAT
2509:SynaptiX_FDK/services/fatfs/ff.c **** 	if (fs->fs_type == FS_EXFAT) {	/* On the exFAT volume */
2510:SynaptiX_FDK/services/fatfs/ff.c **** 		n_ent = (len + 14) / 15 + 2;	/* Number of entries to allocate (85+C0+C1s) */
2511:SynaptiX_FDK/services/fatfs/ff.c **** 		res = dir_alloc(dp, n_ent);		/* Allocate directory entries */
2512:SynaptiX_FDK/services/fatfs/ff.c **** 		if (res != FR_OK) return res;
2513:SynaptiX_FDK/services/fatfs/ff.c **** 		dp->blk_ofs = dp->dptr - SZDIRE * (n_ent - 1);	/* Set the allocated entry block offset */
2514:SynaptiX_FDK/services/fatfs/ff.c **** 
2515:SynaptiX_FDK/services/fatfs/ff.c **** 		if (dp->obj.stat & 4) {			/* Has the directory been stretched by new allocation? */
2516:SynaptiX_FDK/services/fatfs/ff.c **** 			dp->obj.stat &= ~4;
2517:SynaptiX_FDK/services/fatfs/ff.c **** 			res = fill_first_frag(&dp->obj);	/* Fill the first fragment on the FAT if needed */
2518:SynaptiX_FDK/services/fatfs/ff.c **** 			if (res != FR_OK) return res;
2519:SynaptiX_FDK/services/fatfs/ff.c **** 			res = fill_last_frag(&dp->obj, dp->clust, 0xFFFFFFFF);	/* Fill the last fragment on the FAT if n
2520:SynaptiX_FDK/services/fatfs/ff.c **** 			if (res != FR_OK) return res;
2521:SynaptiX_FDK/services/fatfs/ff.c **** 			if (dp->obj.sclust != 0) {		/* Is it a sub-directory? */
2522:SynaptiX_FDK/services/fatfs/ff.c **** 				DIR dj;
2523:SynaptiX_FDK/services/fatfs/ff.c **** 
2524:SynaptiX_FDK/services/fatfs/ff.c **** 				res = load_obj_xdir(&dj, &dp->obj);	/* Load the object status */
2525:SynaptiX_FDK/services/fatfs/ff.c **** 				if (res != FR_OK) return res;
2526:SynaptiX_FDK/services/fatfs/ff.c **** 				dp->obj.objsize += (DWORD)fs->csize * SS(fs);		/* Increase the directory size by cluster size *
2527:SynaptiX_FDK/services/fatfs/ff.c **** 				st_64(fs->dirbuf + XDIR_FileSize, dp->obj.objsize);
2528:SynaptiX_FDK/services/fatfs/ff.c **** 				st_64(fs->dirbuf + XDIR_ValidFileSize, dp->obj.objsize);
2529:SynaptiX_FDK/services/fatfs/ff.c **** 				fs->dirbuf[XDIR_GenFlags] = dp->obj.stat | 1;	/* Update the allocation status */
2530:SynaptiX_FDK/services/fatfs/ff.c **** 				res = store_xdir(&dj);				/* Store the object status */
2531:SynaptiX_FDK/services/fatfs/ff.c **** 				if (res != FR_OK) return res;
2532:SynaptiX_FDK/services/fatfs/ff.c **** #if FF_FS_RPATH	/* Refrect changes to the current dir chain if the stretched dir is in it */
2533:SynaptiX_FDK/services/fatfs/ff.c **** 				for (n = 1; n <= fs->xcwds.depth && dp->obj.sclust != fs->xcwds.tbl[n].d_scl; n++) ;	/* Check i
2534:SynaptiX_FDK/services/fatfs/ff.c **** 				if (n <= fs->xcwds.depth) {		/* If exist, update it */
2535:SynaptiX_FDK/services/fatfs/ff.c **** 					fs->xcwds.tbl[n].d_size = (DWORD)dp->obj.objsize | dp->obj.stat;
2536:SynaptiX_FDK/services/fatfs/ff.c **** 				}
2537:SynaptiX_FDK/services/fatfs/ff.c **** #endif
2538:SynaptiX_FDK/services/fatfs/ff.c **** 			}
2539:SynaptiX_FDK/services/fatfs/ff.c **** 		}
2540:SynaptiX_FDK/services/fatfs/ff.c **** 
2541:SynaptiX_FDK/services/fatfs/ff.c **** 		create_xdir(fs->dirbuf, fs->lfnbuf);	/* Create on-memory directory block to be written later */
2542:SynaptiX_FDK/services/fatfs/ff.c **** 		return FR_OK;
2543:SynaptiX_FDK/services/fatfs/ff.c **** 	}
2544:SynaptiX_FDK/services/fatfs/ff.c **** #endif
2545:SynaptiX_FDK/services/fatfs/ff.c **** 	/* On the FAT/FAT32 volume */
2546:SynaptiX_FDK/services/fatfs/ff.c **** 	memcpy(sn, dp->fn, 12);
2547:SynaptiX_FDK/services/fatfs/ff.c **** 	if (sn[NSFLAG] & NS_LOSS) {			/* When LFN is out of 8.3 format, generate a numbered name */
2548:SynaptiX_FDK/services/fatfs/ff.c **** 		dp->fn[NSFLAG] = NS_NOLFN;		/* Find only SFN */
2549:SynaptiX_FDK/services/fatfs/ff.c **** 		for (n = 1; n < 100; n++) {
2550:SynaptiX_FDK/services/fatfs/ff.c **** 			gen_numname(dp->fn, sn, fs->lfnbuf, (WORD)n);	/* Generate a numbered name */
2551:SynaptiX_FDK/services/fatfs/ff.c **** 			res = dir_find(dp);				/* Check if the name collides with existing SFN */
2552:SynaptiX_FDK/services/fatfs/ff.c **** 			if (res != FR_OK) break;
2553:SynaptiX_FDK/services/fatfs/ff.c **** 		}
2554:SynaptiX_FDK/services/fatfs/ff.c **** 		if (n == 100) return FR_DENIED;		/* Abort if too many collisions */
2555:SynaptiX_FDK/services/fatfs/ff.c **** 		if (res != FR_NO_FILE) return res;	/* Abort if the result is other than 'not collided' */
2556:SynaptiX_FDK/services/fatfs/ff.c **** 		dp->fn[NSFLAG] = sn[NSFLAG];
ARM GAS  C:\Users\DELL\AppData\Local\Temp\ccO3UVpA.s 			page 59


2557:SynaptiX_FDK/services/fatfs/ff.c **** 	}
2558:SynaptiX_FDK/services/fatfs/ff.c **** 
2559:SynaptiX_FDK/services/fatfs/ff.c **** 	/* Create an SFN with/without LFNs. */
2560:SynaptiX_FDK/services/fatfs/ff.c **** 	n_ent = (sn[NSFLAG] & NS_LFN) ? (len + 12) / 13 + 1 : 1;	/* Number of entries to allocate */
2561:SynaptiX_FDK/services/fatfs/ff.c **** 	res = dir_alloc(dp, n_ent);		/* Allocate entries */
2562:SynaptiX_FDK/services/fatfs/ff.c **** 	if (res == FR_OK && --n_ent) {	/* Set LFN entry if needed */
2563:SynaptiX_FDK/services/fatfs/ff.c **** 		res = dir_sdi(dp, dp->dptr - n_ent * SZDIRE);
2564:SynaptiX_FDK/services/fatfs/ff.c **** 		if (res == FR_OK) {
2565:SynaptiX_FDK/services/fatfs/ff.c **** 			BYTE sum = sum_sfn(dp->fn);	/* Checksum value of the SFN tied to the LFN */
2566:SynaptiX_FDK/services/fatfs/ff.c **** 
2567:SynaptiX_FDK/services/fatfs/ff.c **** 			do {					/* Store LFN entries in bottom first */
2568:SynaptiX_FDK/services/fatfs/ff.c **** 				res = move_window(fs, dp->sect);
2569:SynaptiX_FDK/services/fatfs/ff.c **** 				if (res != FR_OK) break;
2570:SynaptiX_FDK/services/fatfs/ff.c **** 				put_lfn(fs->lfnbuf, dp->dir, (BYTE)n_ent, sum);
2571:SynaptiX_FDK/services/fatfs/ff.c **** 				fs->wflag = 1;
2572:SynaptiX_FDK/services/fatfs/ff.c **** 				res = dir_next(dp, 0);	/* Next entry */
2573:SynaptiX_FDK/services/fatfs/ff.c **** 			} while (res == FR_OK && --n_ent);
2574:SynaptiX_FDK/services/fatfs/ff.c **** 		}
2575:SynaptiX_FDK/services/fatfs/ff.c **** 	}
2576:SynaptiX_FDK/services/fatfs/ff.c **** 
2577:SynaptiX_FDK/services/fatfs/ff.c **** #else	/* Non LFN configuration */
2578:SynaptiX_FDK/services/fatfs/ff.c **** 	res = dir_alloc(dp, 1);		/* Allocate an entry for SFN */
2579:SynaptiX_FDK/services/fatfs/ff.c **** 
2580:SynaptiX_FDK/services/fatfs/ff.c **** #endif
2581:SynaptiX_FDK/services/fatfs/ff.c **** 
2582:SynaptiX_FDK/services/fatfs/ff.c **** 	/* Set SFN entry */
2583:SynaptiX_FDK/services/fatfs/ff.c **** 	if (res == FR_OK) {
2584:SynaptiX_FDK/services/fatfs/ff.c **** 		res = move_window(fs, dp->sect);
2585:SynaptiX_FDK/services/fatfs/ff.c **** 		if (res == FR_OK) {
2586:SynaptiX_FDK/services/fatfs/ff.c **** 			memset(dp->dir, 0, SZDIRE);	/* Clean the entry */
2587:SynaptiX_FDK/services/fatfs/ff.c **** 			memcpy(dp->dir + DIR_Name, dp->fn, 11);	/* Put SFN */
2588:SynaptiX_FDK/services/fatfs/ff.c **** #if FF_USE_LFN
2589:SynaptiX_FDK/services/fatfs/ff.c **** 			dp->dir[DIR_NTres] = dp->fn[NSFLAG] & (NS_BODY | NS_EXT);	/* Put low-case flags */
2590:SynaptiX_FDK/services/fatfs/ff.c **** #endif
2591:SynaptiX_FDK/services/fatfs/ff.c **** 			fs->wflag = 1;
2592:SynaptiX_FDK/services/fatfs/ff.c **** 		}
2593:SynaptiX_FDK/services/fatfs/ff.c **** 	}
2594:SynaptiX_FDK/services/fatfs/ff.c **** 
2595:SynaptiX_FDK/services/fatfs/ff.c **** 	return res;
2596:SynaptiX_FDK/services/fatfs/ff.c **** }
2597:SynaptiX_FDK/services/fatfs/ff.c **** 
2598:SynaptiX_FDK/services/fatfs/ff.c **** #endif /* !FF_FS_READONLY */
2599:SynaptiX_FDK/services/fatfs/ff.c **** 
2600:SynaptiX_FDK/services/fatfs/ff.c **** 
2601:SynaptiX_FDK/services/fatfs/ff.c **** 
2602:SynaptiX_FDK/services/fatfs/ff.c **** #if !FF_FS_READONLY && FF_FS_MINIMIZE == 0
2603:SynaptiX_FDK/services/fatfs/ff.c **** /*-----------------------------------------------------------------------*/
2604:SynaptiX_FDK/services/fatfs/ff.c **** /* Remove an object from the directory                                   */
2605:SynaptiX_FDK/services/fatfs/ff.c **** /*-----------------------------------------------------------------------*/
2606:SynaptiX_FDK/services/fatfs/ff.c **** 
2607:SynaptiX_FDK/services/fatfs/ff.c **** static FRESULT dir_remove (	/* FR_OK:Succeeded, FR_DISK_ERR:A disk error */
2608:SynaptiX_FDK/services/fatfs/ff.c **** 	DIR* dp					/* Directory object pointing the entry to be removed */
2609:SynaptiX_FDK/services/fatfs/ff.c **** )
2610:SynaptiX_FDK/services/fatfs/ff.c **** {
2611:SynaptiX_FDK/services/fatfs/ff.c **** 	FRESULT res;
2612:SynaptiX_FDK/services/fatfs/ff.c **** 	FATFS *fs = dp->obj.fs;
2613:SynaptiX_FDK/services/fatfs/ff.c **** #if FF_USE_LFN		/* LFN configuration */
ARM GAS  C:\Users\DELL\AppData\Local\Temp\ccO3UVpA.s 			page 60


2614:SynaptiX_FDK/services/fatfs/ff.c **** 	DWORD last = dp->dptr;
2615:SynaptiX_FDK/services/fatfs/ff.c **** 
2616:SynaptiX_FDK/services/fatfs/ff.c **** 	res = (dp->blk_ofs == 0xFFFFFFFF) ? FR_OK : dir_sdi(dp, dp->blk_ofs);	/* Goto top of the entry blo
2617:SynaptiX_FDK/services/fatfs/ff.c **** 	if (res == FR_OK) {
2618:SynaptiX_FDK/services/fatfs/ff.c **** 		do {
2619:SynaptiX_FDK/services/fatfs/ff.c **** 			res = move_window(fs, dp->sect);
2620:SynaptiX_FDK/services/fatfs/ff.c **** 			if (res != FR_OK) break;
2621:SynaptiX_FDK/services/fatfs/ff.c **** 			if (FF_FS_EXFAT && fs->fs_type == FS_EXFAT) {	/* On the exFAT volume */
2622:SynaptiX_FDK/services/fatfs/ff.c **** 				dp->dir[XDIR_Type] &= 0x7F;	/* Clear the entry InUse flag. */
2623:SynaptiX_FDK/services/fatfs/ff.c **** 			} else {										/* On the FAT/FAT32 volume */
2624:SynaptiX_FDK/services/fatfs/ff.c **** 				dp->dir[DIR_Name] = DDEM;	/* Mark the entry 'deleted'. */
2625:SynaptiX_FDK/services/fatfs/ff.c **** 			}
2626:SynaptiX_FDK/services/fatfs/ff.c **** 			fs->wflag = 1;
2627:SynaptiX_FDK/services/fatfs/ff.c **** 			if (dp->dptr >= last) break;	/* If reached last entry then all entries of the object has been de
2628:SynaptiX_FDK/services/fatfs/ff.c **** 			res = dir_next(dp, 0);	/* Next entry */
2629:SynaptiX_FDK/services/fatfs/ff.c **** 		} while (res == FR_OK);
2630:SynaptiX_FDK/services/fatfs/ff.c **** 		if (res == FR_NO_FILE) res = FR_INT_ERR;
2631:SynaptiX_FDK/services/fatfs/ff.c **** 	}
2632:SynaptiX_FDK/services/fatfs/ff.c **** #else			/* Non LFN configuration */
2633:SynaptiX_FDK/services/fatfs/ff.c **** 
2634:SynaptiX_FDK/services/fatfs/ff.c **** 	res = move_window(fs, dp->sect);
2635:SynaptiX_FDK/services/fatfs/ff.c **** 	if (res == FR_OK) {
2636:SynaptiX_FDK/services/fatfs/ff.c **** 		dp->dir[DIR_Name] = DDEM;	/* Mark the entry 'deleted'.*/
2637:SynaptiX_FDK/services/fatfs/ff.c **** 		fs->wflag = 1;
2638:SynaptiX_FDK/services/fatfs/ff.c **** 	}
2639:SynaptiX_FDK/services/fatfs/ff.c **** #endif
2640:SynaptiX_FDK/services/fatfs/ff.c **** 
2641:SynaptiX_FDK/services/fatfs/ff.c **** 	return res;
2642:SynaptiX_FDK/services/fatfs/ff.c **** }
2643:SynaptiX_FDK/services/fatfs/ff.c **** 
2644:SynaptiX_FDK/services/fatfs/ff.c **** #endif /* !FF_FS_READONLY && FF_FS_MINIMIZE == 0 */
2645:SynaptiX_FDK/services/fatfs/ff.c **** 
2646:SynaptiX_FDK/services/fatfs/ff.c **** 
2647:SynaptiX_FDK/services/fatfs/ff.c **** 
2648:SynaptiX_FDK/services/fatfs/ff.c **** #if FF_FS_MINIMIZE <= 1 || FF_FS_RPATH >= 2
2649:SynaptiX_FDK/services/fatfs/ff.c **** /*-----------------------------------------------------------------------*/
2650:SynaptiX_FDK/services/fatfs/ff.c **** /* Get file information from directory entry                             */
2651:SynaptiX_FDK/services/fatfs/ff.c **** /*-----------------------------------------------------------------------*/
2652:SynaptiX_FDK/services/fatfs/ff.c **** 
2653:SynaptiX_FDK/services/fatfs/ff.c **** static void get_fileinfo (
2654:SynaptiX_FDK/services/fatfs/ff.c **** 	DIR* dp,			/* Pointer to the directory object */
2655:SynaptiX_FDK/services/fatfs/ff.c **** 	FILINFO* fno		/* Pointer to the file information to be filled */
2656:SynaptiX_FDK/services/fatfs/ff.c **** )
2657:SynaptiX_FDK/services/fatfs/ff.c **** {
2658:SynaptiX_FDK/services/fatfs/ff.c **** 	UINT si, di;
2659:SynaptiX_FDK/services/fatfs/ff.c **** #if FF_USE_LFN
2660:SynaptiX_FDK/services/fatfs/ff.c **** 	WCHAR wc, hs;
2661:SynaptiX_FDK/services/fatfs/ff.c **** 	FATFS *fs = dp->obj.fs;
2662:SynaptiX_FDK/services/fatfs/ff.c **** 	UINT nw;
2663:SynaptiX_FDK/services/fatfs/ff.c **** #else
2664:SynaptiX_FDK/services/fatfs/ff.c **** 	TCHAR c;
2665:SynaptiX_FDK/services/fatfs/ff.c **** #endif
2666:SynaptiX_FDK/services/fatfs/ff.c **** 
2667:SynaptiX_FDK/services/fatfs/ff.c **** 
2668:SynaptiX_FDK/services/fatfs/ff.c **** 	fno->fname[0] = 0;
2669:SynaptiX_FDK/services/fatfs/ff.c **** 	if (dp->sect == 0) return;	/* Exit if read pointer has reached end of directory */
2670:SynaptiX_FDK/services/fatfs/ff.c **** 
ARM GAS  C:\Users\DELL\AppData\Local\Temp\ccO3UVpA.s 			page 61


2671:SynaptiX_FDK/services/fatfs/ff.c **** #if FF_USE_LFN		/* LFN configuration */
2672:SynaptiX_FDK/services/fatfs/ff.c **** #if FF_FS_EXFAT
2673:SynaptiX_FDK/services/fatfs/ff.c **** 	if (fs->fs_type == FS_EXFAT) {	/* exFAT volume */
2674:SynaptiX_FDK/services/fatfs/ff.c **** 		UINT nc = 0;
2675:SynaptiX_FDK/services/fatfs/ff.c **** 
2676:SynaptiX_FDK/services/fatfs/ff.c **** 		si = SZDIRE * 2; di = 0;	/* 1st C1 entry in the entry block */
2677:SynaptiX_FDK/services/fatfs/ff.c **** 		hs = 0;
2678:SynaptiX_FDK/services/fatfs/ff.c **** 		while (nc < fs->dirbuf[XDIR_NumName]) {
2679:SynaptiX_FDK/services/fatfs/ff.c **** 			if (si >= MAXDIRB(FF_MAX_LFN)) {	/* Truncated directory block? */
2680:SynaptiX_FDK/services/fatfs/ff.c **** 				di = 0; break;
2681:SynaptiX_FDK/services/fatfs/ff.c **** 			}
2682:SynaptiX_FDK/services/fatfs/ff.c **** 			if ((si % SZDIRE) == 0) si += 2;	/* Skip entry type field */
2683:SynaptiX_FDK/services/fatfs/ff.c **** 			wc = ld_16(fs->dirbuf + si); si += 2; nc++;	/* Get a character */
2684:SynaptiX_FDK/services/fatfs/ff.c **** 			if (hs == 0 && IsSurrogate(wc)) {	/* Is it a surrogate? */
2685:SynaptiX_FDK/services/fatfs/ff.c **** 				hs = wc; continue;				/* Get low surrogate */
2686:SynaptiX_FDK/services/fatfs/ff.c **** 			}
