ARM GAS  C:\Users\DELL\AppData\Local\Temp\ccPQk62T.s 			page 1


   1              		.cpu cortex-m33
   2              		.arch armv8-m.main
   3              		.fpu fpv5-sp-d16
   4              		.arch_extension dsp
   5              		.eabi_attribute 27, 1
   6              		.eabi_attribute 28, 1
   7              		.eabi_attribute 20, 1
   8              		.eabi_attribute 21, 1
   9              		.eabi_attribute 23, 3
  10              		.eabi_attribute 24, 1
  11              		.eabi_attribute 25, 1
  12              		.eabi_attribute 26, 1
  13              		.eabi_attribute 30, 1
  14              		.eabi_attribute 34, 1
  15              		.eabi_attribute 18, 4
  16              		.file	"file_io.c"
  17              		.text
  18              	.Ltext0:
  19              		.cfi_sections	.debug_frame
  20              		.file 1 "SynaptiX_FDK/services/filesystem/file_io.c"
  21              		.section	.rodata.littlefs_flash_sync.str1.4,"aMS",%progbits,1
  22              		.align	2
  23              	.LC0:
  24 0000 496E7661 		.ascii	"Invalid file system configuration or LittleFS objec"
  24      6C696420 
  24      66696C65 
  24      20737973 
  24      74656D20 
  25 0033 7400     		.ascii	"t\000"
  26 0035 000000   		.align	2
  27              	.LC1:
  28 0038 465300   		.ascii	"FS\000"
  29              		.section	.text.littlefs_flash_sync,"ax",%progbits
  30              		.align	1
  31              		.global	littlefs_flash_sync
  32              		.syntax unified
  33              		.thumb
  34              		.thumb_func
  36              	littlefs_flash_sync:
  37              	.LVL0:
  38              	.LFB21:
   1:SynaptiX_FDK/services/filesystem/file_io.c **** #include "file_io.h"
   2:SynaptiX_FDK/services/filesystem/file_io.c **** #include "logger.h"
   3:SynaptiX_FDK/services/filesystem/file_io.c **** 
   4:SynaptiX_FDK/services/filesystem/file_io.c **** static const char *TAG = "FS";
   5:SynaptiX_FDK/services/filesystem/file_io.c **** 
   6:SynaptiX_FDK/services/filesystem/file_io.c **** lfs_t lfs;
   7:SynaptiX_FDK/services/filesystem/file_io.c **** 
   8:SynaptiX_FDK/services/filesystem/file_io.c **** int littlefs_flash_sync (const struct lfs_config * c);
   9:SynaptiX_FDK/services/filesystem/file_io.c **** int file_system_init(file_system_config_t *config){
  10:SynaptiX_FDK/services/filesystem/file_io.c ****     if (config == NULL) {
  11:SynaptiX_FDK/services/filesystem/file_io.c ****         return -1; // Invalid configuration
  12:SynaptiX_FDK/services/filesystem/file_io.c ****     }
  13:SynaptiX_FDK/services/filesystem/file_io.c ****     if(config->block_size == 0 || config->block_count == 0) {
  14:SynaptiX_FDK/services/filesystem/file_io.c ****         log_error(TAG, "Invalid block size or block count");
  15:SynaptiX_FDK/services/filesystem/file_io.c ****         return -2; // Invalid block size or count
  16:SynaptiX_FDK/services/filesystem/file_io.c ****     }
ARM GAS  C:\Users\DELL\AppData\Local\Temp\ccPQk62T.s 			page 2


  17:SynaptiX_FDK/services/filesystem/file_io.c ****     // Initialize the LittleFS configuration
  18:SynaptiX_FDK/services/filesystem/file_io.c ****     config->cfg.context = NULL;
  19:SynaptiX_FDK/services/filesystem/file_io.c ****     config->cfg.read = config->file_function.read;
  20:SynaptiX_FDK/services/filesystem/file_io.c ****     config->cfg.prog = config->file_function.write;
  21:SynaptiX_FDK/services/filesystem/file_io.c ****     config->cfg.erase = config->file_function.erase;
  22:SynaptiX_FDK/services/filesystem/file_io.c ****     config->cfg.sync = littlefs_flash_sync;
  23:SynaptiX_FDK/services/filesystem/file_io.c ****     config->cfg.block_cycles = 100;
  24:SynaptiX_FDK/services/filesystem/file_io.c ****     config->cfg.cache_size = 16;
  25:SynaptiX_FDK/services/filesystem/file_io.c ****     config->cfg.lookahead_size = 16;
  26:SynaptiX_FDK/services/filesystem/file_io.c ****     config->cfg.read_size = 16;
  27:SynaptiX_FDK/services/filesystem/file_io.c ****     config->cfg.prog_size = 16;
  28:SynaptiX_FDK/services/filesystem/file_io.c ****     config->cfg.name_max = 24;
  29:SynaptiX_FDK/services/filesystem/file_io.c ****     config->cfg.block_count = config->block_count;
  30:SynaptiX_FDK/services/filesystem/file_io.c ****     config->cfg.block_size = config->block_size;
  31:SynaptiX_FDK/services/filesystem/file_io.c ****     config->cfg.context = config;
  32:SynaptiX_FDK/services/filesystem/file_io.c **** 
  33:SynaptiX_FDK/services/filesystem/file_io.c ****     config->lfs = &lfs;
  34:SynaptiX_FDK/services/filesystem/file_io.c **** 
  35:SynaptiX_FDK/services/filesystem/file_io.c ****     // Initialize the LittleFS filesystem
  36:SynaptiX_FDK/services/filesystem/file_io.c ****     log_info(TAG,"mount...");
  37:SynaptiX_FDK/services/filesystem/file_io.c ****     int lfs_status = lfs_mount(config->lfs, &config->cfg);
  38:SynaptiX_FDK/services/filesystem/file_io.c ****     if (lfs_status != LFS_ERR_OK) {
  39:SynaptiX_FDK/services/filesystem/file_io.c ****         log_info(TAG,"format...");
  40:SynaptiX_FDK/services/filesystem/file_io.c ****         if(LFS_ERR_OK != lfs_format(config->lfs, &config->cfg)){
  41:SynaptiX_FDK/services/filesystem/file_io.c ****             log_error(TAG, "Failed to format LittleFS");
  42:SynaptiX_FDK/services/filesystem/file_io.c ****             return -3; // Failed to format filesystem
  43:SynaptiX_FDK/services/filesystem/file_io.c ****         }
  44:SynaptiX_FDK/services/filesystem/file_io.c ****         log_info(TAG,"formated!");
  45:SynaptiX_FDK/services/filesystem/file_io.c ****         
  46:SynaptiX_FDK/services/filesystem/file_io.c ****         if(LFS_ERR_OK != lfs_mount(config->lfs, &config->cfg)){
  47:SynaptiX_FDK/services/filesystem/file_io.c ****             log_error(TAG, "Failed to mount LittleFS");
  48:SynaptiX_FDK/services/filesystem/file_io.c ****             return -4; // Failed to mount filesystem
  49:SynaptiX_FDK/services/filesystem/file_io.c ****         }
  50:SynaptiX_FDK/services/filesystem/file_io.c ****         lfs_mkdir(config->lfs, "/");   
  51:SynaptiX_FDK/services/filesystem/file_io.c ****     }
  52:SynaptiX_FDK/services/filesystem/file_io.c ****     log_info(TAG,"mounted!");
  53:SynaptiX_FDK/services/filesystem/file_io.c ****     log_info(TAG, "LittleFS formatted and mounted successfully");
  54:SynaptiX_FDK/services/filesystem/file_io.c ****     return LFS_ERR_OK; // Filesystem formatted and mounted successfully
  55:SynaptiX_FDK/services/filesystem/file_io.c **** }
  56:SynaptiX_FDK/services/filesystem/file_io.c **** void fs_list_dir(const char *path)
  57:SynaptiX_FDK/services/filesystem/file_io.c **** {
  58:SynaptiX_FDK/services/filesystem/file_io.c ****     lfs_dir_t dir;
  59:SynaptiX_FDK/services/filesystem/file_io.c ****     struct lfs_info info;
  60:SynaptiX_FDK/services/filesystem/file_io.c ****     int err;
  61:SynaptiX_FDK/services/filesystem/file_io.c **** 
  62:SynaptiX_FDK/services/filesystem/file_io.c ****     err = lfs_dir_open(CONFIG_LITTLEFS, &dir, path);
  63:SynaptiX_FDK/services/filesystem/file_io.c ****     if (err < 0) {
  64:SynaptiX_FDK/services/filesystem/file_io.c ****         log_error(TAG,"Failed to open dir %s, err=%d", path, err);
  65:SynaptiX_FDK/services/filesystem/file_io.c ****         return;
  66:SynaptiX_FDK/services/filesystem/file_io.c ****     }
  67:SynaptiX_FDK/services/filesystem/file_io.c **** 
  68:SynaptiX_FDK/services/filesystem/file_io.c ****     log_info(TAG,"Listing directory: %s", path);
  69:SynaptiX_FDK/services/filesystem/file_io.c **** 
  70:SynaptiX_FDK/services/filesystem/file_io.c ****     while (true) {
  71:SynaptiX_FDK/services/filesystem/file_io.c ****         err = lfs_dir_read(CONFIG_LITTLEFS, &dir, &info);
  72:SynaptiX_FDK/services/filesystem/file_io.c ****         if (err < 0) {
  73:SynaptiX_FDK/services/filesystem/file_io.c ****             log_error(TAG,"Read dir error %d", err);
ARM GAS  C:\Users\DELL\AppData\Local\Temp\ccPQk62T.s 			page 3


  74:SynaptiX_FDK/services/filesystem/file_io.c ****             break;
  75:SynaptiX_FDK/services/filesystem/file_io.c ****         }
  76:SynaptiX_FDK/services/filesystem/file_io.c **** 
  77:SynaptiX_FDK/services/filesystem/file_io.c ****         if (err == 0) {
  78:SynaptiX_FDK/services/filesystem/file_io.c ****             // end of directory
  79:SynaptiX_FDK/services/filesystem/file_io.c ****             break;
  80:SynaptiX_FDK/services/filesystem/file_io.c ****         }
  81:SynaptiX_FDK/services/filesystem/file_io.c **** 
  82:SynaptiX_FDK/services/filesystem/file_io.c ****         if (info.type == LFS_TYPE_DIR) {
  83:SynaptiX_FDK/services/filesystem/file_io.c ****             log_info(TAG,"[DIR ] %s", info.name);
  84:SynaptiX_FDK/services/filesystem/file_io.c ****         } else if (info.type == LFS_TYPE_REG) {
  85:SynaptiX_FDK/services/filesystem/file_io.c ****             log_info(TAG,"[FILE] %s (%ld bytes)", info.name, info.size);
  86:SynaptiX_FDK/services/filesystem/file_io.c ****         }
  87:SynaptiX_FDK/services/filesystem/file_io.c ****     }
  88:SynaptiX_FDK/services/filesystem/file_io.c ****     lfs_dir_close(CONFIG_LITTLEFS, &dir);
  89:SynaptiX_FDK/services/filesystem/file_io.c **** }
  90:SynaptiX_FDK/services/filesystem/file_io.c **** int littlefs_flash_sync(const struct lfs_config *c)
  91:SynaptiX_FDK/services/filesystem/file_io.c **** {
  39              		.loc 1 91 1 view -0
  40              		.cfi_startproc
  41              		@ args = 0, pretend = 0, frame = 0
  42              		@ frame_needed = 0, uses_anonymous_args = 0
  43              		.loc 1 91 1 is_stmt 0 view .LVU1
  44 0000 08B5     		push	{r3, lr}
  45              	.LCFI0:
  46              		.cfi_def_cfa_offset 8
  47              		.cfi_offset 3, -8
  48              		.cfi_offset 14, -4
  92:SynaptiX_FDK/services/filesystem/file_io.c ****     file_system_config_t *config = (file_system_config_t *)c->context;
  49              		.loc 1 92 5 is_stmt 1 view .LVU2
  50              		.loc 1 92 27 is_stmt 0 view .LVU3
  51 0002 0368     		ldr	r3, [r0]
  52              	.LVL1:
  93:SynaptiX_FDK/services/filesystem/file_io.c ****     if (config == NULL || config->lfs == NULL) {
  53              		.loc 1 93 5 is_stmt 1 view .LVU4
  54              		.loc 1 93 8 is_stmt 0 view .LVU5
  55 0004 1BB1     		cbz	r3, .L2
  56              		.loc 1 93 33 discriminator 1 view .LVU6
  57 0006 5B6D     		ldr	r3, [r3, #84]
  58              	.LVL2:
  59              		.loc 1 93 24 discriminator 1 view .LVU7
  60 0008 0BB1     		cbz	r3, .L2
  94:SynaptiX_FDK/services/filesystem/file_io.c ****         log_error(TAG, "Invalid file system configuration or LittleFS object");
  95:SynaptiX_FDK/services/filesystem/file_io.c ****         return -1; // Invalid configuration or LittleFS object
  96:SynaptiX_FDK/services/filesystem/file_io.c ****     }
  97:SynaptiX_FDK/services/filesystem/file_io.c ****     // Currently, LittleFS does not require a specific sync operation
  98:SynaptiX_FDK/services/filesystem/file_io.c ****     // as it handles synchronization internally.
  99:SynaptiX_FDK/services/filesystem/file_io.c ****     return LFS_ERR_OK; // Return success
  61              		.loc 1 99 12 view .LVU8
  62 000a 0020     		movs	r0, #0
  63              	.LVL3:
  64              	.L1:
 100:SynaptiX_FDK/services/filesystem/file_io.c **** }...
  65              		.loc 1 100 1 view .LVU9
  66 000c 08BD     		pop	{r3, pc}
  67              	.LVL4:
  68              	.L2:
ARM GAS  C:\Users\DELL\AppData\Local\Temp\ccPQk62T.s 			page 4


  94:SynaptiX_FDK/services/filesystem/file_io.c ****         log_error(TAG, "Invalid file system configuration or LittleFS object");
  69              		.loc 1 94 9 is_stmt 1 view .LVU10
  70 000e 044A     		ldr	r2, .L6
  71 0010 0449     		ldr	r1, .L6+4
  72 0012 0120     		movs	r0, #1
  73              	.LVL5:
  94:SynaptiX_FDK/services/filesystem/file_io.c ****         log_error(TAG, "Invalid file system configuration or LittleFS object");
  74              		.loc 1 94 9 is_stmt 0 view .LVU11
  75 0014 FFF7FEFF 		bl	log_func
  76              	.LVL6:
  95:SynaptiX_FDK/services/filesystem/file_io.c ****         return -1; // Invalid configuration or LittleFS object
  77              		.loc 1 95 9 is_stmt 1 view .LVU12
  95:SynaptiX_FDK/services/filesystem/file_io.c ****         return -1; // Invalid configuration or LittleFS object
  78              		.loc 1 95 16 is_stmt 0 view .LVU13
  79 0018 4FF0FF30 		mov	r0, #-1
  80 001c F6E7     		b	.L1
  81              	.L7:
  82 001e 00BF     		.align	2
  83              	.L6:
  84 0020 00000000 		.word	.LC0
  85 0024 38000000 		.word	.LC1
  86              		.cfi_endproc
  87              	.LFE21:
  89              		.section	.rodata.file_system_init.str1.4,"aMS",%progbits,1
  90              		.align	2
  91              	.LC2:
  92 0000 496E7661 		.ascii	"Invalid block size or block count\000"
  92      6C696420 
  92      626C6F63 
  92      6B207369 
  92      7A65206F 
  93 0022 0000     		.align	2
  94              	.LC3:
  95 0024 6D6F756E 		.ascii	"mount...\000"
  95      742E2E2E 
  95      00
  96 002d 000000   		.align	2
  97              	.LC4:
  98 0030 666F726D 		.ascii	"format...\000"
  98      61742E2E 
  98      2E00
  99 003a 0000     		.align	2
 100              	.LC5:
 101 003c 4661696C 		.ascii	"Failed to format LittleFS\000"
 101      65642074 
 101      6F20666F 
 101      726D6174 
 101      204C6974 
 102 0056 0000     		.align	2
 103              	.LC6:
 104 0058 666F726D 		.ascii	"formated!\000"
 104      61746564 
 104      2100
 105 0062 0000     		.align	2
 106              	.LC7:
 107 0064 4661696C 		.ascii	"Failed to mount LittleFS\000"
 107      65642074 
ARM GAS  C:\Users\DELL\AppData\Local\Temp\ccPQk62T.s 			page 5


 107      6F206D6F 
 107      756E7420 
 107      4C697474 
 108 007d 000000   		.align	2
 109              	.LC8:
 110 0080 2F00     		.ascii	"/\000"
 111 0082 0000     		.align	2
 112              	.LC9:
 113 0084 6D6F756E 		.ascii	"mounted!\000"
 113      74656421 
 113      00
 114 008d 000000   		.align	2
 115              	.LC10:
 116 0090 4C697474 		.ascii	"LittleFS formatted and mounted successfully\000"
 116      6C654653 
 116      20666F72 
 116      6D617474 
 116      65642061 
 117              		.section	.text.file_system_init,"ax",%progbits
 118              		.align	1
 119              		.global	file_system_init
 120              		.syntax unified
 121              		.thumb
 122              		.thumb_func
 124              	file_system_init:
 125              	.LVL7:
 126              	.LFB19:
   9:SynaptiX_FDK/services/filesystem/file_io.c **** int file_system_init(file_system_config_t *config){
 127              		.loc 1 9 51 is_stmt 1 view -0
 128              		.cfi_startproc
 129              		@ args = 0, pretend = 0, frame = 0
 130              		@ frame_needed = 0, uses_anonymous_args = 0
  10:SynaptiX_FDK/services/filesystem/file_io.c ****     if (config == NULL) {
 131              		.loc 1 10 5 view .LVU15
  10:SynaptiX_FDK/services/filesystem/file_io.c ****     if (config == NULL) {
 132              		.loc 1 10 8 is_stmt 0 view .LVU16
 133 0000 0028     		cmp	r0, #0
 134 0002 66D0     		beq	.L15
   9:SynaptiX_FDK/services/filesystem/file_io.c **** int file_system_init(file_system_config_t *config){
 135              		.loc 1 9 51 view .LVU17
 136 0004 10B5     		push	{r4, lr}
 137              	.LCFI1:
 138              		.cfi_def_cfa_offset 8
 139              		.cfi_offset 4, -8
 140              		.cfi_offset 14, -4
 141 0006 0446     		mov	r4, r0
  13:SynaptiX_FDK/services/filesystem/file_io.c ****     if(config->block_size == 0 || config->block_count == 0) {
 142              		.loc 1 13 5 is_stmt 1 view .LVU18
  13:SynaptiX_FDK/services/filesystem/file_io.c ****     if(config->block_size == 0 || config->block_count == 0) {
 143              		.loc 1 13 14 is_stmt 0 view .LVU19
 144 0008 826D     		ldr	r2, [r0, #88]
  13:SynaptiX_FDK/services/filesystem/file_io.c ****     if(config->block_size == 0 || config->block_count == 0) {
 145              		.loc 1 13 7 view .LVU20
 146 000a 002A     		cmp	r2, #0
 147 000c 49D0     		beq	.L10
  13:SynaptiX_FDK/services/filesystem/file_io.c ****     if(config->block_size == 0 || config->block_count == 0) {
 148              		.loc 1 13 41 discriminator 1 view .LVU21
ARM GAS  C:\Users\DELL\AppData\Local\Temp\ccPQk62T.s 			page 6


 149 000e C16D     		ldr	r1, [r0, #92]
  13:SynaptiX_FDK/services/filesystem/file_io.c ****     if(config->block_size == 0 || config->block_count == 0) {
 150              		.loc 1 13 32 discriminator 1 view .LVU22
 151 0010 0029     		cmp	r1, #0
 152 0012 46D0     		beq	.L10
  18:SynaptiX_FDK/services/filesystem/file_io.c ****     config->cfg.context = NULL;
 153              		.loc 1 18 5 is_stmt 1 view .LVU23
  18:SynaptiX_FDK/services/filesystem/file_io.c ****     config->cfg.context = NULL;
 154              		.loc 1 18 25 is_stmt 0 view .LVU24
 155 0014 0023     		movs	r3, #0
 156 0016 0360     		str	r3, [r0]
  19:SynaptiX_FDK/services/filesystem/file_io.c ****     config->cfg.read = config->file_function.read;
 157              		.loc 1 19 5 is_stmt 1 view .LVU25
  19:SynaptiX_FDK/services/filesystem/file_io.c ****     config->cfg.read = config->file_function.read;
 158              		.loc 1 19 45 is_stmt 0 view .LVU26
 159 0018 436E     		ldr	r3, [r0, #100]
  19:SynaptiX_FDK/services/filesystem/file_io.c ****     config->cfg.read = config->file_function.read;
 160              		.loc 1 19 22 view .LVU27
 161 001a 4360     		str	r3, [r0, #4]
  20:SynaptiX_FDK/services/filesystem/file_io.c ****     config->cfg.prog = config->file_function.write;
 162              		.loc 1 20 5 is_stmt 1 view .LVU28
  20:SynaptiX_FDK/services/filesystem/file_io.c ****     config->cfg.prog = config->file_function.write;
 163              		.loc 1 20 45 is_stmt 0 view .LVU29
 164 001c 836E     		ldr	r3, [r0, #104]
  20:SynaptiX_FDK/services/filesystem/file_io.c ****     config->cfg.prog = config->file_function.write;
 165              		.loc 1 20 22 view .LVU30
 166 001e 8360     		str	r3, [r0, #8]
  21:SynaptiX_FDK/services/filesystem/file_io.c ****     config->cfg.erase = config->file_function.erase;
 167              		.loc 1 21 5 is_stmt 1 view .LVU31
  21:SynaptiX_FDK/services/filesystem/file_io.c ****     config->cfg.erase = config->file_function.erase;
 168              		.loc 1 21 46 is_stmt 0 view .LVU32
 169 0020 036E     		ldr	r3, [r0, #96]
  21:SynaptiX_FDK/services/filesystem/file_io.c ****     config->cfg.erase = config->file_function.erase;
 170              		.loc 1 21 23 view .LVU33
 171 0022 C360     		str	r3, [r0, #12]
  22:SynaptiX_FDK/services/filesystem/file_io.c ****     config->cfg.sync = littlefs_flash_sync;
 172              		.loc 1 22 5 is_stmt 1 view .LVU34
  22:SynaptiX_FDK/services/filesystem/file_io.c ****     config->cfg.sync = littlefs_flash_sync;
 173              		.loc 1 22 22 is_stmt 0 view .LVU35
 174 0024 2C4B     		ldr	r3, .L22
 175 0026 0361     		str	r3, [r0, #16]
  23:SynaptiX_FDK/services/filesystem/file_io.c ****     config->cfg.block_cycles = 100;
 176              		.loc 1 23 5 is_stmt 1 view .LVU36
  23:SynaptiX_FDK/services/filesystem/file_io.c ****     config->cfg.block_cycles = 100;
 177              		.loc 1 23 30 is_stmt 0 view .LVU37
 178 0028 6423     		movs	r3, #100
 179 002a 4362     		str	r3, [r0, #36]
  24:SynaptiX_FDK/services/filesystem/file_io.c ****     config->cfg.cache_size = 16;
 180              		.loc 1 24 5 is_stmt 1 view .LVU38
  24:SynaptiX_FDK/services/filesystem/file_io.c ****     config->cfg.cache_size = 16;
 181              		.loc 1 24 28 is_stmt 0 view .LVU39
 182 002c 1023     		movs	r3, #16
 183 002e 8362     		str	r3, [r0, #40]
  25:SynaptiX_FDK/services/filesystem/file_io.c ****     config->cfg.lookahead_size = 16;
 184              		.loc 1 25 5 is_stmt 1 view .LVU40
  25:SynaptiX_FDK/services/filesystem/file_io.c ****     config->cfg.lookahead_size = 16;
 185              		.loc 1 25 32 is_stmt 0 view .LVU41
ARM GAS  C:\Users\DELL\AppData\Local\Temp\ccPQk62T.s 			page 7


 186 0030 C362     		str	r3, [r0, #44]
  26:SynaptiX_FDK/services/filesystem/file_io.c ****     config->cfg.read_size = 16;
 187              		.loc 1 26 5 is_stmt 1 view .LVU42
  26:SynaptiX_FDK/services/filesystem/file_io.c ****     config->cfg.read_size = 16;
 188              		.loc 1 26 27 is_stmt 0 view .LVU43
 189 0032 4361     		str	r3, [r0, #20]
  27:SynaptiX_FDK/services/filesystem/file_io.c ****     config->cfg.prog_size = 16;
 190              		.loc 1 27 5 is_stmt 1 view .LVU44
  27:SynaptiX_FDK/services/filesystem/file_io.c ****     config->cfg.prog_size = 16;
 191              		.loc 1 27 27 is_stmt 0 view .LVU45
 192 0034 8361     		str	r3, [r0, #24]
  28:SynaptiX_FDK/services/filesystem/file_io.c ****     config->cfg.name_max = 24;
 193              		.loc 1 28 5 is_stmt 1 view .LVU46
  28:SynaptiX_FDK/services/filesystem/file_io.c ****     config->cfg.name_max = 24;
 194              		.loc 1 28 26 is_stmt 0 view .LVU47
 195 0036 1823     		movs	r3, #24
 196 0038 0364     		str	r3, [r0, #64]
  29:SynaptiX_FDK/services/filesystem/file_io.c ****     config->cfg.block_count = config->block_count;
 197              		.loc 1 29 5 is_stmt 1 view .LVU48
  29:SynaptiX_FDK/services/filesystem/file_io.c ****     config->cfg.block_count = config->block_count;
 198              		.loc 1 29 29 is_stmt 0 view .LVU49
 199 003a 0162     		str	r1, [r0, #32]
  30:SynaptiX_FDK/services/filesystem/file_io.c ****     config->cfg.block_size = config->block_size;
 200              		.loc 1 30 5 is_stmt 1 view .LVU50
  30:SynaptiX_FDK/services/filesystem/file_io.c ****     config->cfg.block_size = config->block_size;
 201              		.loc 1 30 28 is_stmt 0 view .LVU51
 202 003c C261     		str	r2, [r0, #28]
  31:SynaptiX_FDK/services/filesystem/file_io.c ****     config->cfg.context = config;
 203              		.loc 1 31 5 is_stmt 1 view .LVU52
  31:SynaptiX_FDK/services/filesystem/file_io.c ****     config->cfg.context = config;
 204              		.loc 1 31 25 is_stmt 0 view .LVU53
 205 003e 0060     		str	r0, [r0]
  33:SynaptiX_FDK/services/filesystem/file_io.c ****     config->lfs = &lfs;
 206              		.loc 1 33 5 is_stmt 1 view .LVU54
  33:SynaptiX_FDK/services/filesystem/file_io.c ****     config->lfs = &lfs;
 207              		.loc 1 33 17 is_stmt 0 view .LVU55
 208 0040 264B     		ldr	r3, .L22+4
 209 0042 4365     		str	r3, [r0, #84]
  36:SynaptiX_FDK/services/filesystem/file_io.c ****     log_info(TAG,"mount...");
 210              		.loc 1 36 5 is_stmt 1 view .LVU56
 211 0044 264A     		ldr	r2, .L22+8
 212 0046 2749     		ldr	r1, .L22+12
 213 0048 0320     		movs	r0, #3
 214              	.LVL8:
  36:SynaptiX_FDK/services/filesystem/file_io.c ****     log_info(TAG,"mount...");
 215              		.loc 1 36 5 is_stmt 0 view .LVU57
 216 004a FFF7FEFF 		bl	log_func
 217              	.LVL9:
  37:SynaptiX_FDK/services/filesystem/file_io.c ****     int lfs_status = lfs_mount(config->lfs, &config->cfg);
 218              		.loc 1 37 5 is_stmt 1 view .LVU58
  37:SynaptiX_FDK/services/filesystem/file_io.c ****     int lfs_status = lfs_mount(config->lfs, &config->cfg);
 219              		.loc 1 37 22 is_stmt 0 view .LVU59
 220 004e 2146     		mov	r1, r4
 221 0050 606D     		ldr	r0, [r4, #84]
 222 0052 FFF7FEFF 		bl	lfs_mount
 223              	.LVL10:
  38:SynaptiX_FDK/services/filesystem/file_io.c ****     if (lfs_status != LFS_ERR_OK) {
ARM GAS  C:\Users\DELL\AppData\Local\Temp\ccPQk62T.s 			page 8


 224              		.loc 1 38 5 is_stmt 1 view .LVU60
  38:SynaptiX_FDK/services/filesystem/file_io.c ****     if (lfs_status != LFS_ERR_OK) {
 225              		.loc 1 38 8 is_stmt 0 view .LVU61
 226 0056 B8B1     		cbz	r0, .L12
  39:SynaptiX_FDK/services/filesystem/file_io.c ****         log_info(TAG,"format...");
 227              		.loc 1 39 9 is_stmt 1 view .LVU62
 228 0058 234A     		ldr	r2, .L22+16
 229 005a 2249     		ldr	r1, .L22+12
 230 005c 0320     		movs	r0, #3
 231              	.LVL11:
  39:SynaptiX_FDK/services/filesystem/file_io.c ****         log_info(TAG,"format...");
 232              		.loc 1 39 9 is_stmt 0 view .LVU63
 233 005e FFF7FEFF 		bl	log_func
 234              	.LVL12:
  40:SynaptiX_FDK/services/filesystem/file_io.c ****         if(LFS_ERR_OK != lfs_format(config->lfs, &config->cfg)){
 235              		.loc 1 40 9 is_stmt 1 view .LVU64
  40:SynaptiX_FDK/services/filesystem/file_io.c ****         if(LFS_ERR_OK != lfs_format(config->lfs, &config->cfg)){
 236              		.loc 1 40 26 is_stmt 0 view .LVU65
 237 0062 2146     		mov	r1, r4
 238 0064 606D     		ldr	r0, [r4, #84]
 239 0066 FFF7FEFF 		bl	lfs_format
 240              	.LVL13:
  40:SynaptiX_FDK/services/filesystem/file_io.c ****         if(LFS_ERR_OK != lfs_format(config->lfs, &config->cfg)){
 241              		.loc 1 40 11 discriminator 1 view .LVU66
 242 006a 10BB     		cbnz	r0, .L20
  44:SynaptiX_FDK/services/filesystem/file_io.c ****         log_info(TAG,"formated!");
 243              		.loc 1 44 9 is_stmt 1 view .LVU67
 244 006c 1F4A     		ldr	r2, .L22+20
 245 006e 1D49     		ldr	r1, .L22+12
 246 0070 0320     		movs	r0, #3
 247 0072 FFF7FEFF 		bl	log_func
 248              	.LVL14:
  46:SynaptiX_FDK/services/filesystem/file_io.c ****         if(LFS_ERR_OK != lfs_mount(config->lfs, &config->cfg)){
 249              		.loc 1 46 9 view .LVU68
  46:SynaptiX_FDK/services/filesystem/file_io.c ****         if(LFS_ERR_OK != lfs_mount(config->lfs, &config->cfg)){
 250              		.loc 1 46 26 is_stmt 0 view .LVU69
 251 0076 2146     		mov	r1, r4
 252 0078 606D     		ldr	r0, [r4, #84]
 253 007a FFF7FEFF 		bl	lfs_mount
 254              	.LVL15:
  46:SynaptiX_FDK/services/filesystem/file_io.c ****         if(LFS_ERR_OK != lfs_mount(config->lfs, &config->cfg)){
 255              		.loc 1 46 11 discriminator 1 view .LVU70
 256 007e 00BB     		cbnz	r0, .L21
  50:SynaptiX_FDK/services/filesystem/file_io.c ****         lfs_mkdir(config->lfs, "/");   
 257              		.loc 1 50 9 is_stmt 1 view .LVU71
 258 0080 1B49     		ldr	r1, .L22+24
 259 0082 606D     		ldr	r0, [r4, #84]
 260 0084 FFF7FEFF 		bl	lfs_mkdir
 261              	.LVL16:
 262              	.L12:
  52:SynaptiX_FDK/services/filesystem/file_io.c ****     log_info(TAG,"mounted!");
 263              		.loc 1 52 5 view .LVU72
 264 0088 164C     		ldr	r4, .L22+12
 265              	.LVL17:
  52:SynaptiX_FDK/services/filesystem/file_io.c ****     log_info(TAG,"mounted!");
 266              		.loc 1 52 5 is_stmt 0 view .LVU73
 267 008a 1A4A     		ldr	r2, .L22+28
ARM GAS  C:\Users\DELL\AppData\Local\Temp\ccPQk62T.s 			page 9


 268 008c 2146     		mov	r1, r4
 269 008e 0320     		movs	r0, #3
 270 0090 FFF7FEFF 		bl	log_func
 271              	.LVL18:
  53:SynaptiX_FDK/services/filesystem/file_io.c ****     log_info(TAG, "LittleFS formatted and mounted successfully");
 272              		.loc 1 53 5 is_stmt 1 view .LVU74
 273 0094 184A     		ldr	r2, .L22+32
 274 0096 2146     		mov	r1, r4
 275 0098 0320     		movs	r0, #3
 276 009a FFF7FEFF 		bl	log_func
 277              	.LVL19:
  54:SynaptiX_FDK/services/filesystem/file_io.c ****     return LFS_ERR_OK; // Filesystem formatted and mounted successfully
 278              		.loc 1 54 5 view .LVU75
  54:SynaptiX_FDK/services/filesystem/file_io.c ****     return LFS_ERR_OK; // Filesystem formatted and mounted successfully
 279              		.loc 1 54 12 is_stmt 0 view .LVU76
 280 009e 0020     		movs	r0, #0
 281              	.LVL20:
 282              	.L8:
  55:SynaptiX_FDK/services/filesystem/file_io.c **** }
 283              		.loc 1 55 1 view .LVU77
 284 00a0 10BD     		pop	{r4, pc}
 285              	.LVL21:
 286              	.L10:
  14:SynaptiX_FDK/services/filesystem/file_io.c ****         log_error(TAG, "Invalid block size or block count");
 287              		.loc 1 14 9 is_stmt 1 view .LVU78
 288 00a2 164A     		ldr	r2, .L22+36
 289 00a4 0F49     		ldr	r1, .L22+12
 290 00a6 0120     		movs	r0, #1
 291              	.LVL22:
  14:SynaptiX_FDK/services/filesystem/file_io.c ****         log_error(TAG, "Invalid block size or block count");
 292              		.loc 1 14 9 is_stmt 0 view .LVU79
 293 00a8 FFF7FEFF 		bl	log_func
 294              	.LVL23:
  15:SynaptiX_FDK/services/filesystem/file_io.c ****         return -2; // Invalid block size or count
 295              		.loc 1 15 9 is_stmt 1 view .LVU80
  15:SynaptiX_FDK/services/filesystem/file_io.c ****         return -2; // Invalid block size or count
 296              		.loc 1 15 16 is_stmt 0 view .LVU81
 297 00ac 6FF00100 		mvn	r0, #1
 298 00b0 F6E7     		b	.L8
 299              	.LVL24:
 300              	.L20:
  41:SynaptiX_FDK/services/filesystem/file_io.c ****             log_error(TAG, "Failed to format LittleFS");
 301              		.loc 1 41 13 is_stmt 1 view .LVU82
 302 00b2 134A     		ldr	r2, .L22+40
 303 00b4 0B49     		ldr	r1, .L22+12
 304 00b6 0120     		movs	r0, #1
 305 00b8 FFF7FEFF 		bl	log_func
 306              	.LVL25:
  42:SynaptiX_FDK/services/filesystem/file_io.c ****             return -3; // Failed to format filesystem
 307              		.loc 1 42 13 view .LVU83
  42:SynaptiX_FDK/services/filesystem/file_io.c ****             return -3; // Failed to format filesystem
 308              		.loc 1 42 20 is_stmt 0 view .LVU84
 309 00bc 6FF00200 		mvn	r0, #2
 310 00c0 EEE7     		b	.L8
 311              	.L21:
  47:SynaptiX_FDK/services/filesystem/file_io.c ****             log_error(TAG, "Failed to mount LittleFS");
 312              		.loc 1 47 13 is_stmt 1 view .LVU85
ARM GAS  C:\Users\DELL\AppData\Local\Temp\ccPQk62T.s 			page 10


 313 00c2 104A     		ldr	r2, .L22+44
 314 00c4 0749     		ldr	r1, .L22+12
 315 00c6 0120     		movs	r0, #1
 316 00c8 FFF7FEFF 		bl	log_func
 317              	.LVL26:
  48:SynaptiX_FDK/services/filesystem/file_io.c ****             return -4; // Failed to mount filesystem
 318              		.loc 1 48 13 view .LVU86
  48:SynaptiX_FDK/services/filesystem/file_io.c ****             return -4; // Failed to mount filesystem
 319              		.loc 1 48 20 is_stmt 0 view .LVU87
 320 00cc 6FF00300 		mvn	r0, #3
 321 00d0 E6E7     		b	.L8
 322              	.LVL27:
 323              	.L15:
 324              	.LCFI2:
 325              		.cfi_def_cfa_offset 0
 326              		.cfi_restore 4
 327              		.cfi_restore 14
  11:SynaptiX_FDK/services/filesystem/file_io.c ****         return -1; // Invalid configuration
 328              		.loc 1 11 16 view .LVU88
 329 00d2 4FF0FF30 		mov	r0, #-1
 330              	.LVL28:
  55:SynaptiX_FDK/services/filesystem/file_io.c **** }
 331              		.loc 1 55 1 view .LVU89
 332 00d6 7047     		bx	lr
 333              	.L23:
 334              		.align	2
 335              	.L22:
 336 00d8 00000000 		.word	littlefs_flash_sync
 337 00dc 00000000 		.word	lfs
 338 00e0 24000000 		.word	.LC3
 339 00e4 38000000 		.word	.LC1
 340 00e8 30000000 		.word	.LC4
 341 00ec 58000000 		.word	.LC6
 342 00f0 80000000 		.word	.LC8
 343 00f4 84000000 		.word	.LC9
 344 00f8 90000000 		.word	.LC10
 345 00fc 00000000 		.word	.LC2
 346 0100 3C000000 		.word	.LC5
 347 0104 64000000 		.word	.LC7
 348              		.cfi_endproc
 349              	.LFE19:
 351              		.section	.rodata.fs_list_dir.str1.4,"aMS",%progbits,1
 352              		.align	2
 353              	.LC11:
 354 0000 4661696C 		.ascii	"Failed to open dir %s, err=%d\000"
 354      65642074 
 354      6F206F70 
 354      656E2064 
 354      69722025 
 355 001e 0000     		.align	2
 356              	.LC12:
 357 0020 4C697374 		.ascii	"Listing directory: %s\000"
 357      696E6720 
 357      64697265 
 357      63746F72 
 357      793A2025 
 358 0036 0000     		.align	2
ARM GAS  C:\Users\DELL\AppData\Local\Temp\ccPQk62T.s 			page 11


 359              	.LC13:
 360 0038 52656164 		.ascii	"Read dir error %d\000"
 360      20646972 
 360      20657272 
 360      6F722025 
 360      6400
 361 004a 0000     		.align	2
 362              	.LC14:
 363 004c 5B444952 		.ascii	"[DIR ] %s\000"
 363      205D2025 
 363      7300
 364 0056 0000     		.align	2
 365              	.LC15:
 366 0058 5B46494C 		.ascii	"[FILE] %s (%ld bytes)\000"
 366      455D2025 
 366      73202825 
 366      6C642062 
 366      79746573 
 367              		.section	.text.fs_list_dir,"ax",%progbits
 368              		.align	1
 369              		.global	fs_list_dir
 370              		.syntax unified
 371              		.thumb
 372              		.thumb_func
 374              	fs_list_dir:
 375              	.LVL29:
 376              	.LFB20:
  57:SynaptiX_FDK/services/filesystem/file_io.c **** {
 377              		.loc 1 57 1 is_stmt 1 view -0
 378              		.cfi_startproc
 379              		@ args = 0, pretend = 0, frame = 320
 380              		@ frame_needed = 0, uses_anonymous_args = 0
  57:SynaptiX_FDK/services/filesystem/file_io.c **** {
 381              		.loc 1 57 1 is_stmt 0 view .LVU91
 382 0000 10B5     		push	{r4, lr}
 383              	.LCFI3:
 384              		.cfi_def_cfa_offset 8
 385              		.cfi_offset 4, -8
 386              		.cfi_offset 14, -4
 387 0002 D2B0     		sub	sp, sp, #328
 388              	.LCFI4:
 389              		.cfi_def_cfa_offset 336
 390 0004 0446     		mov	r4, r0
  58:SynaptiX_FDK/services/filesystem/file_io.c ****     lfs_dir_t dir;
 391              		.loc 1 58 5 is_stmt 1 view .LVU92
  59:SynaptiX_FDK/services/filesystem/file_io.c ****     struct lfs_info info;
 392              		.loc 1 59 5 view .LVU93
  60:SynaptiX_FDK/services/filesystem/file_io.c ****     int err;
 393              		.loc 1 60 5 view .LVU94
  62:SynaptiX_FDK/services/filesystem/file_io.c ****     err = lfs_dir_open(CONFIG_LITTLEFS, &dir, path);
 394              		.loc 1 62 5 view .LVU95
  62:SynaptiX_FDK/services/filesystem/file_io.c ****     err = lfs_dir_open(CONFIG_LITTLEFS, &dir, path);
 395              		.loc 1 62 11 is_stmt 0 view .LVU96
 396 0006 0246     		mov	r2, r0
 397 0008 45A9     		add	r1, sp, #276
 398 000a 1F48     		ldr	r0, .L36
 399              	.LVL30:
ARM GAS  C:\Users\DELL\AppData\Local\Temp\ccPQk62T.s 			page 12


  62:SynaptiX_FDK/services/filesystem/file_io.c ****     err = lfs_dir_open(CONFIG_LITTLEFS, &dir, path);
 400              		.loc 1 62 11 view .LVU97
 401 000c FFF7FEFF 		bl	lfs_dir_open
 402              	.LVL31:
  63:SynaptiX_FDK/services/filesystem/file_io.c ****     if (err < 0) {
 403              		.loc 1 63 5 is_stmt 1 view .LVU98
  63:SynaptiX_FDK/services/filesystem/file_io.c ****     if (err < 0) {
 404              		.loc 1 63 8 is_stmt 0 view .LVU99
 405 0010 0028     		cmp	r0, #0
  63:SynaptiX_FDK/services/filesystem/file_io.c ****     if (err < 0) {
 406              		.loc 1 63 8 view .LVU100
 407 0012 06DB     		blt	.L33
  68:SynaptiX_FDK/services/filesystem/file_io.c ****     log_info(TAG,"Listing directory: %s", path);
 408              		.loc 1 68 5 is_stmt 1 view .LVU101
 409 0014 2346     		mov	r3, r4
 410 0016 1D4A     		ldr	r2, .L36+4
 411 0018 1D49     		ldr	r1, .L36+8
 412 001a 0320     		movs	r0, #3
 413              	.LVL32:
  68:SynaptiX_FDK/services/filesystem/file_io.c ****     log_info(TAG,"Listing directory: %s", path);
 414              		.loc 1 68 5 is_stmt 0 view .LVU102
 415 001c FFF7FEFF 		bl	log_func
 416              	.LVL33:
 417 0020 19E0     		b	.L27
 418              	.LVL34:
 419              	.L33:
  64:SynaptiX_FDK/services/filesystem/file_io.c ****         log_error(TAG,"Failed to open dir %s, err=%d", path, err);
 420              		.loc 1 64 9 is_stmt 1 view .LVU103
 421 0022 0090     		str	r0, [sp]
 422 0024 2346     		mov	r3, r4
 423 0026 1B4A     		ldr	r2, .L36+12
 424 0028 1949     		ldr	r1, .L36+8
 425 002a 0120     		movs	r0, #1
 426              	.LVL35:
  64:SynaptiX_FDK/services/filesystem/file_io.c ****         log_error(TAG,"Failed to open dir %s, err=%d", path, err);
 427              		.loc 1 64 9 is_stmt 0 view .LVU104
 428 002c FFF7FEFF 		bl	log_func
 429              	.LVL36:
  65:SynaptiX_FDK/services/filesystem/file_io.c ****         return;
 430              		.loc 1 65 9 is_stmt 1 view .LVU105
 431 0030 09E0     		b	.L24
 432              	.LVL37:
 433              	.L34:
  73:SynaptiX_FDK/services/filesystem/file_io.c ****             log_error(TAG,"Read dir error %d", err);
 434              		.loc 1 73 13 view .LVU106
 435 0032 0346     		mov	r3, r0
 436 0034 184A     		ldr	r2, .L36+16
 437 0036 1649     		ldr	r1, .L36+8
 438 0038 0120     		movs	r0, #1
 439              	.LVL38:
  73:SynaptiX_FDK/services/filesystem/file_io.c ****             log_error(TAG,"Read dir error %d", err);
 440              		.loc 1 73 13 is_stmt 0 view .LVU107
 441 003a FFF7FEFF 		bl	log_func
 442              	.LVL39:
  74:SynaptiX_FDK/services/filesystem/file_io.c ****             break;
 443              		.loc 1 74 13 is_stmt 1 view .LVU108
 444              	.L29:
ARM GAS  C:\Users\DELL\AppData\Local\Temp\ccPQk62T.s 			page 13


  88:SynaptiX_FDK/services/filesystem/file_io.c ****     lfs_dir_close(CONFIG_LITTLEFS, &dir);
 445              		.loc 1 88 5 view .LVU109
 446 003e 45A9     		add	r1, sp, #276
 447 0040 1148     		ldr	r0, .L36
 448 0042 FFF7FEFF 		bl	lfs_dir_close
 449              	.LVL40:
 450              	.L24:
  89:SynaptiX_FDK/services/filesystem/file_io.c **** }
 451              		.loc 1 89 1 is_stmt 0 view .LVU110
 452 0046 52B0     		add	sp, sp, #328
 453              	.LCFI5:
 454              		.cfi_remember_state
 455              		.cfi_def_cfa_offset 8
 456              		@ sp needed
 457 0048 10BD     		pop	{r4, pc}
 458              	.LVL41:
 459              	.L35:
 460              	.LCFI6:
 461              		.cfi_restore_state
  83:SynaptiX_FDK/services/filesystem/file_io.c ****             log_info(TAG,"[DIR ] %s", info.name);
 462              		.loc 1 83 13 is_stmt 1 view .LVU111
 463 004a 05AB     		add	r3, sp, #20
 464 004c 134A     		ldr	r2, .L36+20
 465 004e 1049     		ldr	r1, .L36+8
 466 0050 0320     		movs	r0, #3
 467              	.LVL42:
  83:SynaptiX_FDK/services/filesystem/file_io.c ****             log_info(TAG,"[DIR ] %s", info.name);
 468              		.loc 1 83 13 is_stmt 0 view .LVU112
 469 0052 FFF7FEFF 		bl	log_func
 470              	.LVL43:
 471              	.L27:
  70:SynaptiX_FDK/services/filesystem/file_io.c ****     while (true) {
 472              		.loc 1 70 5 is_stmt 1 view .LVU113
  71:SynaptiX_FDK/services/filesystem/file_io.c ****         err = lfs_dir_read(CONFIG_LITTLEFS, &dir, &info);
 473              		.loc 1 71 9 view .LVU114
  71:SynaptiX_FDK/services/filesystem/file_io.c ****         err = lfs_dir_read(CONFIG_LITTLEFS, &dir, &info);
 474              		.loc 1 71 15 is_stmt 0 view .LVU115
 475 0056 03AA     		add	r2, sp, #12
 476 0058 45A9     		add	r1, sp, #276
 477 005a 0B48     		ldr	r0, .L36
 478 005c FFF7FEFF 		bl	lfs_dir_read
 479              	.LVL44:
  72:SynaptiX_FDK/services/filesystem/file_io.c ****         if (err < 0) {
 480              		.loc 1 72 9 is_stmt 1 view .LVU116
  72:SynaptiX_FDK/services/filesystem/file_io.c ****         if (err < 0) {
 481              		.loc 1 72 12 is_stmt 0 view .LVU117
 482 0060 0028     		cmp	r0, #0
  72:SynaptiX_FDK/services/filesystem/file_io.c ****         if (err < 0) {
 483              		.loc 1 72 12 view .LVU118
 484 0062 E6DB     		blt	.L34
  77:SynaptiX_FDK/services/filesystem/file_io.c ****         if (err == 0) {
 485              		.loc 1 77 9 is_stmt 1 view .LVU119
  77:SynaptiX_FDK/services/filesystem/file_io.c ****         if (err == 0) {
 486              		.loc 1 77 12 is_stmt 0 view .LVU120
 487 0064 0028     		cmp	r0, #0
 488 0066 EAD0     		beq	.L29
  82:SynaptiX_FDK/services/filesystem/file_io.c ****         if (info.type == LFS_TYPE_DIR) {
ARM GAS  C:\Users\DELL\AppData\Local\Temp\ccPQk62T.s 			page 14


 489              		.loc 1 82 9 is_stmt 1 view .LVU121
  82:SynaptiX_FDK/services/filesystem/file_io.c ****         if (info.type == LFS_TYPE_DIR) {
 490              		.loc 1 82 17 is_stmt 0 view .LVU122
 491 0068 9DF80C30 		ldrb	r3, [sp, #12]	@ zero_extendqisi2
  82:SynaptiX_FDK/services/filesystem/file_io.c ****         if (info.type == LFS_TYPE_DIR) {
 492              		.loc 1 82 12 view .LVU123
 493 006c 022B     		cmp	r3, #2
 494 006e ECD0     		beq	.L35
  84:SynaptiX_FDK/services/filesystem/file_io.c ****         } else if (info.type == LFS_TYPE_REG) {
 495              		.loc 1 84 16 is_stmt 1 view .LVU124
  84:SynaptiX_FDK/services/filesystem/file_io.c ****         } else if (info.type == LFS_TYPE_REG) {
 496              		.loc 1 84 19 is_stmt 0 view .LVU125
 497 0070 012B     		cmp	r3, #1
 498 0072 F0D1     		bne	.L27
  85:SynaptiX_FDK/services/filesystem/file_io.c ****             log_info(TAG,"[FILE] %s (%ld bytes)", info.name, info.size);
 499              		.loc 1 85 13 is_stmt 1 view .LVU126
 500 0074 049B     		ldr	r3, [sp, #16]
 501 0076 0093     		str	r3, [sp]
 502 0078 05AB     		add	r3, sp, #20
 503 007a 094A     		ldr	r2, .L36+24
 504 007c 0449     		ldr	r1, .L36+8
 505 007e 0320     		movs	r0, #3
 506              	.LVL45:
  85:SynaptiX_FDK/services/filesystem/file_io.c ****             log_info(TAG,"[FILE] %s (%ld bytes)", info.name, info.size);
 507              		.loc 1 85 13 is_stmt 0 view .LVU127
 508 0080 FFF7FEFF 		bl	log_func
 509              	.LVL46:
 510 0084 E7E7     		b	.L27
 511              	.L37:
 512 0086 00BF     		.align	2
 513              	.L36:
 514 0088 00000000 		.word	lfs
 515 008c 20000000 		.word	.LC12
 516 0090 38000000 		.word	.LC1
 517 0094 00000000 		.word	.LC11
 518 0098 38000000 		.word	.LC13
 519 009c 4C000000 		.word	.LC14
 520 00a0 58000000 		.word	.LC15
 521              		.cfi_endproc
 522              	.LFE20:
 524              		.global	lfs
 525              		.section	.bss.lfs,"aw",%nobits
 526              		.align	2
 529              	lfs:
 530 0000 00000000 		.space	128
 530      00000000 
 530      00000000 
 530      00000000 
 530      00000000 
 531              		.text
 532              	.Letext0:
 533              		.file 2 "D:\\stm32cubeclt\\STM32CubeCLT_1.21.0\\GNU-tools-for-STM32\\bin\\../lib/gcc/arm-none-eabi
 534              		.file 3 "D:\\stm32cubeclt\\STM32CubeCLT_1.21.0\\GNU-tools-for-STM32\\bin\\../lib/gcc/arm-none-eabi
 535              		.file 4 "SynaptiX_FDK/services/littlefs/lfs.h"
 536              		.file 5 "SynaptiX_FDK/services/filesystem/file_io.h"
 537              		.file 6 "SynaptiX_FDK/services/logger/logger.h"
ARM GAS  C:\Users\DELL\AppData\Local\Temp\ccPQk62T.s 			page 15

