ARM GAS  C:\Users\DELL\AppData\Local\Temp\cc4DwQyI.s 			page 1


   1              		.cpu cortex-m33
   2              		.arch armv8-m.main
   3              		.fpu fpv5-sp-d16
   4              		.arch_extension dsp
   5              		.eabi_attribute 27, 1
   6              		.eabi_attribute 28, 1
   7              		.eabi_attribute 20, 1
   8              		.eabi_attribute 21, 1
   9              		.eabi_attribute 23, 3
  10              		.eabi_attribute 24, 1
  11              		.eabi_attribute 25, 1
  12              		.eabi_attribute 26, 1
  13              		.eabi_attribute 30, 1
  14              		.eabi_attribute 34, 1
  15              		.eabi_attribute 18, 4
  16              		.file	"fsdev_common.c"
  17              		.text
  18              	.Ltext0:
  19              		.cfi_sections	.debug_frame
  20              		.file 1 "SynaptiX_FDK/lib/tinyusb/src/portable/st/stm32_fsdev/fsdev_common.c"
  21              		.section	.text.fsdev_core_reset,"ax",%progbits
  22              		.align	1
  23              		.global	fsdev_core_reset
  24              		.syntax unified
  25              		.thumb
  26              		.thumb_func
  28              	fsdev_core_reset:
  29              	.LFB432:
   1:SynaptiX_FDK/lib/tinyusb/src/portable/st/stm32_fsdev/fsdev_common.c **** /*
   2:SynaptiX_FDK/lib/tinyusb/src/portable/st/stm32_fsdev/fsdev_common.c ****  * The MIT License (MIT)
   3:SynaptiX_FDK/lib/tinyusb/src/portable/st/stm32_fsdev/fsdev_common.c ****  *
   4:SynaptiX_FDK/lib/tinyusb/src/portable/st/stm32_fsdev/fsdev_common.c ****  * Copyright (c) 2024 Ha Thach (tinyusb.org)
   5:SynaptiX_FDK/lib/tinyusb/src/portable/st/stm32_fsdev/fsdev_common.c ****  * Copyright (c) 2025, HiFiPhile (Zixun LI)
   6:SynaptiX_FDK/lib/tinyusb/src/portable/st/stm32_fsdev/fsdev_common.c ****  *
   7:SynaptiX_FDK/lib/tinyusb/src/portable/st/stm32_fsdev/fsdev_common.c ****  * Permission is hereby granted, free of charge, to any person obtaining a copy
   8:SynaptiX_FDK/lib/tinyusb/src/portable/st/stm32_fsdev/fsdev_common.c ****  * of this software and associated documentation files (the "Software"), to deal
   9:SynaptiX_FDK/lib/tinyusb/src/portable/st/stm32_fsdev/fsdev_common.c ****  * in the Software without restriction, including without limitation the rights
  10:SynaptiX_FDK/lib/tinyusb/src/portable/st/stm32_fsdev/fsdev_common.c ****  * to use, copy, modify, merge, publish, distribute, sublicense, and/or sell
  11:SynaptiX_FDK/lib/tinyusb/src/portable/st/stm32_fsdev/fsdev_common.c ****  * copies of the Software, and to permit persons to whom the Software is
  12:SynaptiX_FDK/lib/tinyusb/src/portable/st/stm32_fsdev/fsdev_common.c ****  * furnished to do so, subject to the following conditions:
  13:SynaptiX_FDK/lib/tinyusb/src/portable/st/stm32_fsdev/fsdev_common.c ****  *
  14:SynaptiX_FDK/lib/tinyusb/src/portable/st/stm32_fsdev/fsdev_common.c ****  * The above copyright notice and this permission notice shall be included in
  15:SynaptiX_FDK/lib/tinyusb/src/portable/st/stm32_fsdev/fsdev_common.c ****  * all copies or substantial portions of the Software.
  16:SynaptiX_FDK/lib/tinyusb/src/portable/st/stm32_fsdev/fsdev_common.c ****  *
  17:SynaptiX_FDK/lib/tinyusb/src/portable/st/stm32_fsdev/fsdev_common.c ****  * THE SOFTWARE IS PROVIDED "AS IS", WITHOUT WARRANTY OF ANY KIND, EXPRESS OR
  18:SynaptiX_FDK/lib/tinyusb/src/portable/st/stm32_fsdev/fsdev_common.c ****  * IMPLIED, INCLUDING BUT NOT LIMITED TO THE WARRANTIES OF MERCHANTABILITY,
  19:SynaptiX_FDK/lib/tinyusb/src/portable/st/stm32_fsdev/fsdev_common.c ****  * FITNESS FOR A PARTICULAR PURPOSE AND NONINFRINGEMENT. IN NO EVENT SHALL THE
  20:SynaptiX_FDK/lib/tinyusb/src/portable/st/stm32_fsdev/fsdev_common.c ****  * AUTHORS OR COPYRIGHT HOLDERS BE LIABLE FOR ANY CLAIM, DAMAGES OR OTHER
  21:SynaptiX_FDK/lib/tinyusb/src/portable/st/stm32_fsdev/fsdev_common.c ****  * LIABILITY, WHETHER IN AN ACTION OF CONTRACT, TORT OR OTHERWISE, ARISING FROM,
  22:SynaptiX_FDK/lib/tinyusb/src/portable/st/stm32_fsdev/fsdev_common.c ****  * OUT OF OR IN CONNECTION WITH THE SOFTWARE OR THE USE OR OTHER DEALINGS IN
  23:SynaptiX_FDK/lib/tinyusb/src/portable/st/stm32_fsdev/fsdev_common.c ****  * THE SOFTWARE.
  24:SynaptiX_FDK/lib/tinyusb/src/portable/st/stm32_fsdev/fsdev_common.c ****  *
  25:SynaptiX_FDK/lib/tinyusb/src/portable/st/stm32_fsdev/fsdev_common.c ****  * This file is part of the TinyUSB stack.
  26:SynaptiX_FDK/lib/tinyusb/src/portable/st/stm32_fsdev/fsdev_common.c ****  */
  27:SynaptiX_FDK/lib/tinyusb/src/portable/st/stm32_fsdev/fsdev_common.c **** 
  28:SynaptiX_FDK/lib/tinyusb/src/portable/st/stm32_fsdev/fsdev_common.c **** #include "tusb_option.h"
  29:SynaptiX_FDK/lib/tinyusb/src/portable/st/stm32_fsdev/fsdev_common.c **** 
ARM GAS  C:\Users\DELL\AppData\Local\Temp\cc4DwQyI.s 			page 2


  30:SynaptiX_FDK/lib/tinyusb/src/portable/st/stm32_fsdev/fsdev_common.c **** #if defined(TUP_USBIP_FSDEV) && (CFG_TUH_ENABLED || CFG_TUD_ENABLED)
  31:SynaptiX_FDK/lib/tinyusb/src/portable/st/stm32_fsdev/fsdev_common.c **** 
  32:SynaptiX_FDK/lib/tinyusb/src/portable/st/stm32_fsdev/fsdev_common.c **** #include "fsdev_common.h"
  33:SynaptiX_FDK/lib/tinyusb/src/portable/st/stm32_fsdev/fsdev_common.c **** 
  34:SynaptiX_FDK/lib/tinyusb/src/portable/st/stm32_fsdev/fsdev_common.c **** //--------------------------------------------------------------------+
  35:SynaptiX_FDK/lib/tinyusb/src/portable/st/stm32_fsdev/fsdev_common.c **** // Global
  36:SynaptiX_FDK/lib/tinyusb/src/portable/st/stm32_fsdev/fsdev_common.c **** //--------------------------------------------------------------------+
  37:SynaptiX_FDK/lib/tinyusb/src/portable/st/stm32_fsdev/fsdev_common.c **** 
  38:SynaptiX_FDK/lib/tinyusb/src/portable/st/stm32_fsdev/fsdev_common.c **** // Reset the USB Core
  39:SynaptiX_FDK/lib/tinyusb/src/portable/st/stm32_fsdev/fsdev_common.c **** void fsdev_core_reset(void) {
  30              		.loc 1 39 29 view -0
  31              		.cfi_startproc
  32              		@ args = 0, pretend = 0, frame = 8
  33              		@ frame_needed = 0, uses_anonymous_args = 0
  34              		@ link register save eliminated.
  35 0000 82B0     		sub	sp, sp, #8
  36              	.LCFI0:
  37              		.cfi_def_cfa_offset 8
  40:SynaptiX_FDK/lib/tinyusb/src/portable/st/stm32_fsdev/fsdev_common.c ****   // Perform USB peripheral reset
  41:SynaptiX_FDK/lib/tinyusb/src/portable/st/stm32_fsdev/fsdev_common.c ****   FSDEV_REG->CNTR = U_CNTR_FRES | U_CNTR_PDWN;
  38              		.loc 1 41 3 view .LVU1
  39              		.loc 1 41 19 is_stmt 0 view .LVU2
  40 0002 104B     		ldr	r3, .L7
  41 0004 0322     		movs	r2, #3
  42 0006 1A64     		str	r2, [r3, #64]
  42:SynaptiX_FDK/lib/tinyusb/src/portable/st/stm32_fsdev/fsdev_common.c ****   for (volatile uint32_t i = 0; i < 200; i++) { // should be a few us
  43              		.loc 1 42 3 is_stmt 1 view .LVU3
  44              	.LBB6:
  45              		.loc 1 42 8 view .LVU4
  46              		.loc 1 42 26 is_stmt 0 view .LVU5
  47 0008 0023     		movs	r3, #0
  48 000a 0093     		str	r3, [sp]
  49              		.loc 1 42 3 view .LVU6
  50 000c 03E0     		b	.L2
  51              	.L3:
  43:SynaptiX_FDK/lib/tinyusb/src/portable/st/stm32_fsdev/fsdev_common.c ****     asm("NOP");
  52              		.loc 1 43 5 is_stmt 1 view .LVU7
  53              		.syntax unified
  54              	@ 43 "SynaptiX_FDK/lib/tinyusb/src/portable/st/stm32_fsdev/fsdev_common.c" 1
  55 000e 00BF     		NOP
  56              	@ 0 "" 2
  42:SynaptiX_FDK/lib/tinyusb/src/portable/st/stm32_fsdev/fsdev_common.c ****   for (volatile uint32_t i = 0; i < 200; i++) { // should be a few us
  57              		.loc 1 42 43 discriminator 3 view .LVU8
  58              		.thumb
  59              		.syntax unified
  60 0010 009B     		ldr	r3, [sp]
  61 0012 0133     		adds	r3, r3, #1
  62 0014 0093     		str	r3, [sp]
  63              	.L2:
  42:SynaptiX_FDK/lib/tinyusb/src/portable/st/stm32_fsdev/fsdev_common.c ****   for (volatile uint32_t i = 0; i < 200; i++) { // should be a few us
  64              		.loc 1 42 35 discriminator 1 view .LVU9
  65 0016 009B     		ldr	r3, [sp]
  66 0018 C72B     		cmp	r3, #199
  67 001a F8D9     		bls	.L3
  68              	.LBE6:
  44:SynaptiX_FDK/lib/tinyusb/src/portable/st/stm32_fsdev/fsdev_common.c ****   }
  45:SynaptiX_FDK/lib/tinyusb/src/portable/st/stm32_fsdev/fsdev_common.c **** 
ARM GAS  C:\Users\DELL\AppData\Local\Temp\cc4DwQyI.s 			page 3


  46:SynaptiX_FDK/lib/tinyusb/src/portable/st/stm32_fsdev/fsdev_common.c ****   FSDEV_REG->CNTR &= ~U_CNTR_PDWN;
  69              		.loc 1 46 3 view .LVU10
  70              		.loc 1 46 12 is_stmt 0 view .LVU11
  71 001c 094A     		ldr	r2, .L7
  72 001e 136C     		ldr	r3, [r2, #64]
  73              		.loc 1 46 19 view .LVU12
  74 0020 23F00203 		bic	r3, r3, #2
  75 0024 1364     		str	r3, [r2, #64]
  47:SynaptiX_FDK/lib/tinyusb/src/portable/st/stm32_fsdev/fsdev_common.c **** 
  48:SynaptiX_FDK/lib/tinyusb/src/portable/st/stm32_fsdev/fsdev_common.c ****   // Wait startup time, for F042 and F070, this is <= 1 us.
  49:SynaptiX_FDK/lib/tinyusb/src/portable/st/stm32_fsdev/fsdev_common.c ****   for (volatile uint32_t i = 0; i < 200; i++) { // should be a few us
  76              		.loc 1 49 3 is_stmt 1 view .LVU13
  77              	.LBB7:
  78              		.loc 1 49 8 view .LVU14
  79              		.loc 1 49 26 is_stmt 0 view .LVU15
  80 0026 0023     		movs	r3, #0
  81 0028 0193     		str	r3, [sp, #4]
  82              		.loc 1 49 3 view .LVU16
  83 002a 03E0     		b	.L4
  84              	.L5:
  50:SynaptiX_FDK/lib/tinyusb/src/portable/st/stm32_fsdev/fsdev_common.c ****     asm("NOP");
  85              		.loc 1 50 5 is_stmt 1 view .LVU17
  86              		.syntax unified
  87              	@ 50 "SynaptiX_FDK/lib/tinyusb/src/portable/st/stm32_fsdev/fsdev_common.c" 1
  88 002c 00BF     		NOP
  89              	@ 0 "" 2
  49:SynaptiX_FDK/lib/tinyusb/src/portable/st/stm32_fsdev/fsdev_common.c ****     asm("NOP");
  90              		.loc 1 49 43 discriminator 3 view .LVU18
  91              		.thumb
  92              		.syntax unified
  93 002e 019B     		ldr	r3, [sp, #4]
  94 0030 0133     		adds	r3, r3, #1
  95 0032 0193     		str	r3, [sp, #4]
  96              	.L4:
  49:SynaptiX_FDK/lib/tinyusb/src/portable/st/stm32_fsdev/fsdev_common.c ****     asm("NOP");
  97              		.loc 1 49 35 discriminator 1 view .LVU19
  98 0034 019B     		ldr	r3, [sp, #4]
  99 0036 C72B     		cmp	r3, #199
 100 0038 F8D9     		bls	.L5
 101              	.LBE7:
  51:SynaptiX_FDK/lib/tinyusb/src/portable/st/stm32_fsdev/fsdev_common.c ****   }
  52:SynaptiX_FDK/lib/tinyusb/src/portable/st/stm32_fsdev/fsdev_common.c **** 
  53:SynaptiX_FDK/lib/tinyusb/src/portable/st/stm32_fsdev/fsdev_common.c ****   // Clear pending interrupts
  54:SynaptiX_FDK/lib/tinyusb/src/portable/st/stm32_fsdev/fsdev_common.c ****   FSDEV_REG->ISTR = 0;
 102              		.loc 1 54 3 view .LVU20
 103              		.loc 1 54 19 is_stmt 0 view .LVU21
 104 003a 024B     		ldr	r3, .L7
 105 003c 0022     		movs	r2, #0
 106 003e 5A64     		str	r2, [r3, #68]
  55:SynaptiX_FDK/lib/tinyusb/src/portable/st/stm32_fsdev/fsdev_common.c **** }
 107              		.loc 1 55 1 view .LVU22
 108 0040 02B0     		add	sp, sp, #8
 109              	.LCFI1:
 110              		.cfi_def_cfa_offset 0
 111              		@ sp needed
 112 0042 7047     		bx	lr
 113              	.L8:
ARM GAS  C:\Users\DELL\AppData\Local\Temp\cc4DwQyI.s 			page 4


 114              		.align	2
 115              	.L7:
 116 0044 00600140 		.word	1073831936
 117              		.cfi_endproc
 118              	.LFE432:
 120              		.section	.text.fsdev_deinit,"ax",%progbits
 121              		.align	1
 122              		.global	fsdev_deinit
 123              		.syntax unified
 124              		.thumb
 125              		.thumb_func
 127              	fsdev_deinit:
 128              	.LFB433:
  56:SynaptiX_FDK/lib/tinyusb/src/portable/st/stm32_fsdev/fsdev_common.c **** 
  57:SynaptiX_FDK/lib/tinyusb/src/portable/st/stm32_fsdev/fsdev_common.c **** // De-initialize the USB Core
  58:SynaptiX_FDK/lib/tinyusb/src/portable/st/stm32_fsdev/fsdev_common.c **** void fsdev_deinit(void) {
 129              		.loc 1 58 25 is_stmt 1 view -0
 130              		.cfi_startproc
 131              		@ args = 0, pretend = 0, frame = 8
 132              		@ frame_needed = 0, uses_anonymous_args = 0
 133              		@ link register save eliminated.
 134 0000 82B0     		sub	sp, sp, #8
 135              	.LCFI2:
 136              		.cfi_def_cfa_offset 8
  59:SynaptiX_FDK/lib/tinyusb/src/portable/st/stm32_fsdev/fsdev_common.c ****   // Disable all interrupts and force USB reset
  60:SynaptiX_FDK/lib/tinyusb/src/portable/st/stm32_fsdev/fsdev_common.c ****   FSDEV_REG->CNTR = U_CNTR_FRES;
 137              		.loc 1 60 3 view .LVU24
 138              		.loc 1 60 19 is_stmt 0 view .LVU25
 139 0002 094B     		ldr	r3, .L13
 140 0004 0122     		movs	r2, #1
 141 0006 1A64     		str	r2, [r3, #64]
  61:SynaptiX_FDK/lib/tinyusb/src/portable/st/stm32_fsdev/fsdev_common.c **** 
  62:SynaptiX_FDK/lib/tinyusb/src/portable/st/stm32_fsdev/fsdev_common.c ****   // Clear pending interrupts
  63:SynaptiX_FDK/lib/tinyusb/src/portable/st/stm32_fsdev/fsdev_common.c ****   FSDEV_REG->ISTR = 0;
 142              		.loc 1 63 3 is_stmt 1 view .LVU26
 143              		.loc 1 63 19 is_stmt 0 view .LVU27
 144 0008 0022     		movs	r2, #0
 145 000a 5A64     		str	r2, [r3, #68]
  64:SynaptiX_FDK/lib/tinyusb/src/portable/st/stm32_fsdev/fsdev_common.c **** 
  65:SynaptiX_FDK/lib/tinyusb/src/portable/st/stm32_fsdev/fsdev_common.c ****   // Put USB peripheral in power down mode
  66:SynaptiX_FDK/lib/tinyusb/src/portable/st/stm32_fsdev/fsdev_common.c ****   FSDEV_REG->CNTR = U_CNTR_FRES | U_CNTR_PDWN;
 146              		.loc 1 66 3 is_stmt 1 view .LVU28
 147              		.loc 1 66 19 is_stmt 0 view .LVU29
 148 000c 0321     		movs	r1, #3
 149 000e 1964     		str	r1, [r3, #64]
  67:SynaptiX_FDK/lib/tinyusb/src/portable/st/stm32_fsdev/fsdev_common.c ****   for (volatile uint32_t i = 0; i < 200; i++) { // should be a few us
 150              		.loc 1 67 3 is_stmt 1 view .LVU30
 151              	.LBB8:
 152              		.loc 1 67 8 view .LVU31
 153              		.loc 1 67 26 is_stmt 0 view .LVU32
 154 0010 0192     		str	r2, [sp, #4]
 155              		.loc 1 67 3 view .LVU33
 156 0012 03E0     		b	.L10
 157              	.L11:
  68:SynaptiX_FDK/lib/tinyusb/src/portable/st/stm32_fsdev/fsdev_common.c ****     asm("NOP");
 158              		.loc 1 68 5 is_stmt 1 view .LVU34
 159              		.syntax unified
ARM GAS  C:\Users\DELL\AppData\Local\Temp\cc4DwQyI.s 			page 5


 160              	@ 68 "SynaptiX_FDK/lib/tinyusb/src/portable/st/stm32_fsdev/fsdev_common.c" 1
 161 0014 00BF     		NOP
 162              	@ 0 "" 2
  67:SynaptiX_FDK/lib/tinyusb/src/portable/st/stm32_fsdev/fsdev_common.c ****   for (volatile uint32_t i = 0; i < 200; i++) { // should be a few us
 163              		.loc 1 67 43 discriminator 3 view .LVU35
 164              		.thumb
 165              		.syntax unified
 166 0016 019B     		ldr	r3, [sp, #4]
 167 0018 0133     		adds	r3, r3, #1
 168 001a 0193     		str	r3, [sp, #4]
 169              	.L10:
  67:SynaptiX_FDK/lib/tinyusb/src/portable/st/stm32_fsdev/fsdev_common.c ****   for (volatile uint32_t i = 0; i < 200; i++) { // should be a few us
 170              		.loc 1 67 35 discriminator 1 view .LVU36
 171 001c 019B     		ldr	r3, [sp, #4]
 172 001e C72B     		cmp	r3, #199
 173 0020 F8D9     		bls	.L11
 174              	.LBE8:
  69:SynaptiX_FDK/lib/tinyusb/src/portable/st/stm32_fsdev/fsdev_common.c ****   }
  70:SynaptiX_FDK/lib/tinyusb/src/portable/st/stm32_fsdev/fsdev_common.c **** }
 175              		.loc 1 70 1 is_stmt 0 view .LVU37
 176 0022 02B0     		add	sp, sp, #8
 177              	.LCFI3:
 178              		.cfi_def_cfa_offset 0
 179              		@ sp needed
 180 0024 7047     		bx	lr
 181              	.L14:
 182 0026 00BF     		.align	2
 183              	.L13:
 184 0028 00600140 		.word	1073831936
 185              		.cfi_endproc
 186              	.LFE433:
 188              		.section	.text.pma_align_buffer_size,"ax",%progbits
 189              		.align	1
 190              		.global	pma_align_buffer_size
 191              		.syntax unified
 192              		.thumb
 193              		.thumb_func
 195              	pma_align_buffer_size:
 196              	.LVL0:
 197              	.LFB434:
  71:SynaptiX_FDK/lib/tinyusb/src/portable/st/stm32_fsdev/fsdev_common.c **** 
  72:SynaptiX_FDK/lib/tinyusb/src/portable/st/stm32_fsdev/fsdev_common.c **** //--------------------------------------------------------------------+
  73:SynaptiX_FDK/lib/tinyusb/src/portable/st/stm32_fsdev/fsdev_common.c **** // BTable Helper
  74:SynaptiX_FDK/lib/tinyusb/src/portable/st/stm32_fsdev/fsdev_common.c **** //--------------------------------------------------------------------+
  75:SynaptiX_FDK/lib/tinyusb/src/portable/st/stm32_fsdev/fsdev_common.c **** 
  76:SynaptiX_FDK/lib/tinyusb/src/portable/st/stm32_fsdev/fsdev_common.c **** // Aligned buffer size according to hardware
  77:SynaptiX_FDK/lib/tinyusb/src/portable/st/stm32_fsdev/fsdev_common.c **** uint16_t pma_align_buffer_size(uint16_t size, uint8_t* blsize, uint8_t* num_block) {
 198              		.loc 1 77 84 is_stmt 1 view -0
 199              		.cfi_startproc
 200              		@ args = 0, pretend = 0, frame = 0
 201              		@ frame_needed = 0, uses_anonymous_args = 0
 202              		@ link register save eliminated.
  78:SynaptiX_FDK/lib/tinyusb/src/portable/st/stm32_fsdev/fsdev_common.c ****   /* The STM32 full speed USB peripheral supports only a limited set of
  79:SynaptiX_FDK/lib/tinyusb/src/portable/st/stm32_fsdev/fsdev_common.c ****    * buffer sizes given by the RX buffer entry format in the USB_BTABLE. */
  80:SynaptiX_FDK/lib/tinyusb/src/portable/st/stm32_fsdev/fsdev_common.c ****   uint16_t block_in_bytes;
 203              		.loc 1 80 3 view .LVU39
  81:SynaptiX_FDK/lib/tinyusb/src/portable/st/stm32_fsdev/fsdev_common.c ****   if (size > 62) {
ARM GAS  C:\Users\DELL\AppData\Local\Temp\cc4DwQyI.s 			page 6


 204              		.loc 1 81 3 view .LVU40
 205              		.loc 1 81 6 is_stmt 0 view .LVU41
 206 0000 3E28     		cmp	r0, #62
 207 0002 09D9     		bls	.L16
  82:SynaptiX_FDK/lib/tinyusb/src/portable/st/stm32_fsdev/fsdev_common.c ****     block_in_bytes = 32;
 208              		.loc 1 82 5 is_stmt 1 view .LVU42
 209              	.LVL1:
  83:SynaptiX_FDK/lib/tinyusb/src/portable/st/stm32_fsdev/fsdev_common.c ****     *blsize = 1;
 210              		.loc 1 83 5 view .LVU43
 211              		.loc 1 83 13 is_stmt 0 view .LVU44
 212 0004 0123     		movs	r3, #1
 213 0006 0B70     		strb	r3, [r1]
  84:SynaptiX_FDK/lib/tinyusb/src/portable/st/stm32_fsdev/fsdev_common.c ****     *num_block = tu_div_ceil(size, 32);
 214              		.loc 1 84 5 is_stmt 1 view .LVU45
 215              	.LVL2:
 216              	.LBB9:
 217              	.LBI9:
 218              		.file 2 "SynaptiX_FDK/lib/tinyusb/src/common/tusb_common.h"
   1:SynaptiX_FDK/lib/tinyusb/src/common/tusb_common.h **** /*
   2:SynaptiX_FDK/lib/tinyusb/src/common/tusb_common.h ****  * The MIT License (MIT)
   3:SynaptiX_FDK/lib/tinyusb/src/common/tusb_common.h ****  *
   4:SynaptiX_FDK/lib/tinyusb/src/common/tusb_common.h ****  * Copyright (c) 2019 Ha Thach (tinyusb.org)
   5:SynaptiX_FDK/lib/tinyusb/src/common/tusb_common.h ****  *
   6:SynaptiX_FDK/lib/tinyusb/src/common/tusb_common.h ****  * Permission is hereby granted, free of charge, to any person obtaining a copy
   7:SynaptiX_FDK/lib/tinyusb/src/common/tusb_common.h ****  * of this software and associated documentation files (the "Software"), to deal
   8:SynaptiX_FDK/lib/tinyusb/src/common/tusb_common.h ****  * in the Software without restriction, including without limitation the rights
   9:SynaptiX_FDK/lib/tinyusb/src/common/tusb_common.h ****  * to use, copy, modify, merge, publish, distribute, sublicense, and/or sell
  10:SynaptiX_FDK/lib/tinyusb/src/common/tusb_common.h ****  * copies of the Software, and to permit persons to whom the Software is
  11:SynaptiX_FDK/lib/tinyusb/src/common/tusb_common.h ****  * furnished to do so, subject to the following conditions:
  12:SynaptiX_FDK/lib/tinyusb/src/common/tusb_common.h ****  *
  13:SynaptiX_FDK/lib/tinyusb/src/common/tusb_common.h ****  * The above copyright notice and this permission notice shall be included in
  14:SynaptiX_FDK/lib/tinyusb/src/common/tusb_common.h ****  * all copies or substantial portions of the Software.
  15:SynaptiX_FDK/lib/tinyusb/src/common/tusb_common.h ****  *
  16:SynaptiX_FDK/lib/tinyusb/src/common/tusb_common.h ****  * THE SOFTWARE IS PROVIDED "AS IS", WITHOUT WARRANTY OF ANY KIND, EXPRESS OR
  17:SynaptiX_FDK/lib/tinyusb/src/common/tusb_common.h ****  * IMPLIED, INCLUDING BUT NOT LIMITED TO THE WARRANTIES OF MERCHANTABILITY,
  18:SynaptiX_FDK/lib/tinyusb/src/common/tusb_common.h ****  * FITNESS FOR A PARTICULAR PURPOSE AND NONINFRINGEMENT. IN NO EVENT SHALL THE
  19:SynaptiX_FDK/lib/tinyusb/src/common/tusb_common.h ****  * AUTHORS OR COPYRIGHT HOLDERS BE LIABLE FOR ANY CLAIM, DAMAGES OR OTHER
  20:SynaptiX_FDK/lib/tinyusb/src/common/tusb_common.h ****  * LIABILITY, WHETHER IN AN ACTION OF CONTRACT, TORT OR OTHERWISE, ARISING FROM,
  21:SynaptiX_FDK/lib/tinyusb/src/common/tusb_common.h ****  * OUT OF OR IN CONNECTION WITH THE SOFTWARE OR THE USE OR OTHER DEALINGS IN
  22:SynaptiX_FDK/lib/tinyusb/src/common/tusb_common.h ****  * THE SOFTWARE.
  23:SynaptiX_FDK/lib/tinyusb/src/common/tusb_common.h ****  *
  24:SynaptiX_FDK/lib/tinyusb/src/common/tusb_common.h ****  * This file is part of the TinyUSB stack.
  25:SynaptiX_FDK/lib/tinyusb/src/common/tusb_common.h ****  */
  26:SynaptiX_FDK/lib/tinyusb/src/common/tusb_common.h **** 
  27:SynaptiX_FDK/lib/tinyusb/src/common/tusb_common.h **** #ifndef TUSB_COMMON_H_
  28:SynaptiX_FDK/lib/tinyusb/src/common/tusb_common.h **** #define TUSB_COMMON_H_
  29:SynaptiX_FDK/lib/tinyusb/src/common/tusb_common.h **** 
  30:SynaptiX_FDK/lib/tinyusb/src/common/tusb_common.h **** #ifdef __cplusplus
  31:SynaptiX_FDK/lib/tinyusb/src/common/tusb_common.h ****  extern "C" {
  32:SynaptiX_FDK/lib/tinyusb/src/common/tusb_common.h **** #endif
  33:SynaptiX_FDK/lib/tinyusb/src/common/tusb_common.h **** 
  34:SynaptiX_FDK/lib/tinyusb/src/common/tusb_common.h **** //--------------------------------------------------------------------+
  35:SynaptiX_FDK/lib/tinyusb/src/common/tusb_common.h **** // Macros Helper
  36:SynaptiX_FDK/lib/tinyusb/src/common/tusb_common.h **** //--------------------------------------------------------------------+
  37:SynaptiX_FDK/lib/tinyusb/src/common/tusb_common.h **** #define TU_ARRAY_SIZE(_arr)           ( sizeof(_arr) / sizeof(_arr[0]) )
  38:SynaptiX_FDK/lib/tinyusb/src/common/tusb_common.h **** #define TU_FIELD_SIZE(_type, _field)  (sizeof(((_type *)0)->_field))
  39:SynaptiX_FDK/lib/tinyusb/src/common/tusb_common.h **** #define TU_MIN(_x, _y)                ( ( (_x) < (_y) ) ? (_x) : (_y) )
ARM GAS  C:\Users\DELL\AppData\Local\Temp\cc4DwQyI.s 			page 7


  40:SynaptiX_FDK/lib/tinyusb/src/common/tusb_common.h **** #define TU_MAX(_x, _y)                ( ( (_x) > (_y) ) ? (_x) : (_y) )
  41:SynaptiX_FDK/lib/tinyusb/src/common/tusb_common.h **** #define TU_DIV_CEIL(n, d)             (((n) + (d) - 1) / (d))
  42:SynaptiX_FDK/lib/tinyusb/src/common/tusb_common.h **** #define TU_DIV_ROUND_NEAREST(v, d)    (((v) + (d)/2) / (d) ) // round to nearest integer
  43:SynaptiX_FDK/lib/tinyusb/src/common/tusb_common.h **** 
  44:SynaptiX_FDK/lib/tinyusb/src/common/tusb_common.h **** #define TU_U16(_high, _low)           ((uint16_t) ((((uint16_t) (_high)) << 8) | ((uint16_t) (_low)
  45:SynaptiX_FDK/lib/tinyusb/src/common/tusb_common.h **** #define TU_U16_HIGH(_u16)             ((uint8_t) (((uint16_t) (_u16) >> 8) & 0x00ffu))
  46:SynaptiX_FDK/lib/tinyusb/src/common/tusb_common.h **** #define TU_U16_LOW(_u16)              ((uint8_t) ((uint16_t) (_u16) & 0x00ffu))
  47:SynaptiX_FDK/lib/tinyusb/src/common/tusb_common.h **** #define U16_TO_U8S_BE(_u16)           TU_U16_HIGH(_u16), TU_U16_LOW(_u16)
  48:SynaptiX_FDK/lib/tinyusb/src/common/tusb_common.h **** #define U16_TO_U8S_LE(_u16)           TU_U16_LOW(_u16), TU_U16_HIGH(_u16)
  49:SynaptiX_FDK/lib/tinyusb/src/common/tusb_common.h **** 
  50:SynaptiX_FDK/lib/tinyusb/src/common/tusb_common.h **** #define TU_U24(_high, _mid, _low)     ((uint32_t) ((((uint32_t) (_high)) << 16) | (((uint32_t) (_mi
  51:SynaptiX_FDK/lib/tinyusb/src/common/tusb_common.h **** #define TU_U24_HIGH(_u24)             ((uint8_t) (((uint32_t) (_u24) >> 16) & 0x0000ffu))
  52:SynaptiX_FDK/lib/tinyusb/src/common/tusb_common.h **** #define TU_U24_MID(_u24)              ((uint8_t) (((uint32_t) (_u24) >>  8) & 0x0000ffu))
  53:SynaptiX_FDK/lib/tinyusb/src/common/tusb_common.h **** #define TU_U24_LOW(_u24)              ((uint8_t) ((uint32_t) (_u24) & 0x0000ffu))
  54:SynaptiX_FDK/lib/tinyusb/src/common/tusb_common.h **** #define U24_TO_U8S_BE(_u24)           TU_U24_HIGH(_u24), TU_U24_MID(_u24), TU_U24_LOW(_u24)
  55:SynaptiX_FDK/lib/tinyusb/src/common/tusb_common.h **** #define U24_TO_U8S_LE(_u24)           TU_U24_LOW(_u24), TU_U24_MID(_u24), TU_U24_HIGH(_u24)
  56:SynaptiX_FDK/lib/tinyusb/src/common/tusb_common.h **** 
  57:SynaptiX_FDK/lib/tinyusb/src/common/tusb_common.h **** #define TU_U32_BYTE3(_u32)            ((uint8_t) ((((uint32_t) _u32) >> 24) & 0x000000ff)) // MSB
  58:SynaptiX_FDK/lib/tinyusb/src/common/tusb_common.h **** #define TU_U32_BYTE2(_u32)            ((uint8_t) ((((uint32_t) _u32) >> 16) & 0x000000ff))
  59:SynaptiX_FDK/lib/tinyusb/src/common/tusb_common.h **** #define TU_U32_BYTE1(_u32)            ((uint8_t) ((((uint32_t) _u32) >>  8) & 0x000000ff))
  60:SynaptiX_FDK/lib/tinyusb/src/common/tusb_common.h **** #define TU_U32_BYTE0(_u32)            ((uint8_t) (((uint32_t)  _u32)        & 0x000000ff)) // LSB
  61:SynaptiX_FDK/lib/tinyusb/src/common/tusb_common.h **** 
  62:SynaptiX_FDK/lib/tinyusb/src/common/tusb_common.h **** #define U32_TO_U8S_BE(_u32)           TU_U32_BYTE3(_u32), TU_U32_BYTE2(_u32), TU_U32_BYTE1(_u32), T
  63:SynaptiX_FDK/lib/tinyusb/src/common/tusb_common.h **** #define U32_TO_U8S_LE(_u32)           TU_U32_BYTE0(_u32), TU_U32_BYTE1(_u32), TU_U32_BYTE2(_u32), T
  64:SynaptiX_FDK/lib/tinyusb/src/common/tusb_common.h **** 
  65:SynaptiX_FDK/lib/tinyusb/src/common/tusb_common.h **** #define TU_BIT(n)                     (1UL << (n))
  66:SynaptiX_FDK/lib/tinyusb/src/common/tusb_common.h **** 
  67:SynaptiX_FDK/lib/tinyusb/src/common/tusb_common.h **** // Generate a mask with bit from high (31) to low (0) set, e.g TU_GENMASK(3, 0) = 0b1111
  68:SynaptiX_FDK/lib/tinyusb/src/common/tusb_common.h **** #define TU_GENMASK(h, l)              ( (UINT32_MAX << (l)) & (UINT32_MAX >> (31 - (h))) )
  69:SynaptiX_FDK/lib/tinyusb/src/common/tusb_common.h **** 
  70:SynaptiX_FDK/lib/tinyusb/src/common/tusb_common.h **** //--------------------------------------------------------------------+
  71:SynaptiX_FDK/lib/tinyusb/src/common/tusb_common.h **** // Includes
  72:SynaptiX_FDK/lib/tinyusb/src/common/tusb_common.h **** //--------------------------------------------------------------------+
  73:SynaptiX_FDK/lib/tinyusb/src/common/tusb_common.h **** 
  74:SynaptiX_FDK/lib/tinyusb/src/common/tusb_common.h **** // Standard Headers
  75:SynaptiX_FDK/lib/tinyusb/src/common/tusb_common.h **** #include <stdbool.h>
  76:SynaptiX_FDK/lib/tinyusb/src/common/tusb_common.h **** #include <stdint.h>
  77:SynaptiX_FDK/lib/tinyusb/src/common/tusb_common.h **** #include <inttypes.h>
  78:SynaptiX_FDK/lib/tinyusb/src/common/tusb_common.h **** #include <stddef.h>
  79:SynaptiX_FDK/lib/tinyusb/src/common/tusb_common.h **** #include <string.h>
  80:SynaptiX_FDK/lib/tinyusb/src/common/tusb_common.h **** 
  81:SynaptiX_FDK/lib/tinyusb/src/common/tusb_common.h **** // Tinyusb Common Headers
  82:SynaptiX_FDK/lib/tinyusb/src/common/tusb_common.h **** #include "tusb_option.h"
  83:SynaptiX_FDK/lib/tinyusb/src/common/tusb_common.h **** #include "tusb_compiler.h"
  84:SynaptiX_FDK/lib/tinyusb/src/common/tusb_common.h **** #include "tusb_verify.h"
  85:SynaptiX_FDK/lib/tinyusb/src/common/tusb_common.h **** #include "tusb_types.h"
  86:SynaptiX_FDK/lib/tinyusb/src/common/tusb_common.h **** #include "tusb_debug.h"
  87:SynaptiX_FDK/lib/tinyusb/src/common/tusb_common.h **** 
  88:SynaptiX_FDK/lib/tinyusb/src/common/tusb_common.h **** //--------------------------------------------------------------------+
  89:SynaptiX_FDK/lib/tinyusb/src/common/tusb_common.h **** // API implemented by application if needed
  90:SynaptiX_FDK/lib/tinyusb/src/common/tusb_common.h **** // TODO move to a more obvious place/file
  91:SynaptiX_FDK/lib/tinyusb/src/common/tusb_common.h **** //--------------------------------------------------------------------+
  92:SynaptiX_FDK/lib/tinyusb/src/common/tusb_common.h **** 
  93:SynaptiX_FDK/lib/tinyusb/src/common/tusb_common.h **** // Get current milliseconds, required by some port/configuration without RTOS
  94:SynaptiX_FDK/lib/tinyusb/src/common/tusb_common.h **** extern uint32_t tusb_time_millis_api(void);
  95:SynaptiX_FDK/lib/tinyusb/src/common/tusb_common.h **** 
  96:SynaptiX_FDK/lib/tinyusb/src/common/tusb_common.h **** // Delay in milliseconds, use tusb_time_millis_api() by default. required by some port/configuratio
ARM GAS  C:\Users\DELL\AppData\Local\Temp\cc4DwQyI.s 			page 8


  97:SynaptiX_FDK/lib/tinyusb/src/common/tusb_common.h **** extern void tusb_time_delay_ms_api(uint32_t ms);
  98:SynaptiX_FDK/lib/tinyusb/src/common/tusb_common.h **** 
  99:SynaptiX_FDK/lib/tinyusb/src/common/tusb_common.h **** // flush data cache
 100:SynaptiX_FDK/lib/tinyusb/src/common/tusb_common.h **** extern void tusb_app_dcache_flush(uintptr_t addr, uint32_t data_size);
 101:SynaptiX_FDK/lib/tinyusb/src/common/tusb_common.h **** 
 102:SynaptiX_FDK/lib/tinyusb/src/common/tusb_common.h **** // invalidate data cache
 103:SynaptiX_FDK/lib/tinyusb/src/common/tusb_common.h **** extern void tusb_app_dcache_invalidate(uintptr_t addr, uint32_t data_size);
 104:SynaptiX_FDK/lib/tinyusb/src/common/tusb_common.h **** 
 105:SynaptiX_FDK/lib/tinyusb/src/common/tusb_common.h **** // Optional physical <-> virtual address translation
 106:SynaptiX_FDK/lib/tinyusb/src/common/tusb_common.h **** extern void* tusb_app_virt_to_phys(void *virt_addr);
 107:SynaptiX_FDK/lib/tinyusb/src/common/tusb_common.h **** extern void* tusb_app_phys_to_virt(void *phys_addr);
 108:SynaptiX_FDK/lib/tinyusb/src/common/tusb_common.h **** 
 109:SynaptiX_FDK/lib/tinyusb/src/common/tusb_common.h **** //--------------------------------------------------------------------+
 110:SynaptiX_FDK/lib/tinyusb/src/common/tusb_common.h **** // Internal Inline Functions
 111:SynaptiX_FDK/lib/tinyusb/src/common/tusb_common.h **** //--------------------------------------------------------------------+
 112:SynaptiX_FDK/lib/tinyusb/src/common/tusb_common.h **** 
 113:SynaptiX_FDK/lib/tinyusb/src/common/tusb_common.h **** //------------- Mem -------------//
 114:SynaptiX_FDK/lib/tinyusb/src/common/tusb_common.h **** #define tu_memclr(buffer, size)  (void) memset((buffer), 0, (size))
 115:SynaptiX_FDK/lib/tinyusb/src/common/tusb_common.h **** #define tu_varclr(_var)          tu_memclr(_var, sizeof(*(_var)))
 116:SynaptiX_FDK/lib/tinyusb/src/common/tusb_common.h **** 
 117:SynaptiX_FDK/lib/tinyusb/src/common/tusb_common.h **** // This is a backport of memset_s from c11
 118:SynaptiX_FDK/lib/tinyusb/src/common/tusb_common.h **** TU_ATTR_ALWAYS_INLINE static inline int tu_memset_s(void *dest, size_t destsz, int ch, size_t count
 119:SynaptiX_FDK/lib/tinyusb/src/common/tusb_common.h ****   // Validate parameters
 120:SynaptiX_FDK/lib/tinyusb/src/common/tusb_common.h ****   if (dest == NULL) {
 121:SynaptiX_FDK/lib/tinyusb/src/common/tusb_common.h ****     return -1;
 122:SynaptiX_FDK/lib/tinyusb/src/common/tusb_common.h ****   }
 123:SynaptiX_FDK/lib/tinyusb/src/common/tusb_common.h **** 
 124:SynaptiX_FDK/lib/tinyusb/src/common/tusb_common.h ****   if (count == 0u) {
 125:SynaptiX_FDK/lib/tinyusb/src/common/tusb_common.h ****     return 0;
 126:SynaptiX_FDK/lib/tinyusb/src/common/tusb_common.h ****   }
 127:SynaptiX_FDK/lib/tinyusb/src/common/tusb_common.h **** 
 128:SynaptiX_FDK/lib/tinyusb/src/common/tusb_common.h ****   if (count > destsz) {
 129:SynaptiX_FDK/lib/tinyusb/src/common/tusb_common.h ****     return -1;
 130:SynaptiX_FDK/lib/tinyusb/src/common/tusb_common.h ****   }
 131:SynaptiX_FDK/lib/tinyusb/src/common/tusb_common.h **** 
 132:SynaptiX_FDK/lib/tinyusb/src/common/tusb_common.h ****   (void) memset(dest, ch, count);
 133:SynaptiX_FDK/lib/tinyusb/src/common/tusb_common.h ****   return 0;
 134:SynaptiX_FDK/lib/tinyusb/src/common/tusb_common.h **** }
 135:SynaptiX_FDK/lib/tinyusb/src/common/tusb_common.h **** 
 136:SynaptiX_FDK/lib/tinyusb/src/common/tusb_common.h **** // This is a backport of memcpy_s from c11
 137:SynaptiX_FDK/lib/tinyusb/src/common/tusb_common.h **** TU_ATTR_ALWAYS_INLINE static inline int tu_memcpy_s(void *dest, size_t destsz, const void *src, siz
 138:SynaptiX_FDK/lib/tinyusb/src/common/tusb_common.h ****   if (dest == NULL) {
 139:SynaptiX_FDK/lib/tinyusb/src/common/tusb_common.h ****     return -1;
 140:SynaptiX_FDK/lib/tinyusb/src/common/tusb_common.h ****   }
 141:SynaptiX_FDK/lib/tinyusb/src/common/tusb_common.h **** 
 142:SynaptiX_FDK/lib/tinyusb/src/common/tusb_common.h ****   if (count == 0u) {
 143:SynaptiX_FDK/lib/tinyusb/src/common/tusb_common.h ****     return 0;
 144:SynaptiX_FDK/lib/tinyusb/src/common/tusb_common.h ****   }
 145:SynaptiX_FDK/lib/tinyusb/src/common/tusb_common.h **** 
 146:SynaptiX_FDK/lib/tinyusb/src/common/tusb_common.h ****   if (src == NULL) {
 147:SynaptiX_FDK/lib/tinyusb/src/common/tusb_common.h ****     return -1;
 148:SynaptiX_FDK/lib/tinyusb/src/common/tusb_common.h ****   }
 149:SynaptiX_FDK/lib/tinyusb/src/common/tusb_common.h **** 
 150:SynaptiX_FDK/lib/tinyusb/src/common/tusb_common.h ****   if (count > destsz) {
 151:SynaptiX_FDK/lib/tinyusb/src/common/tusb_common.h ****     return -1;
 152:SynaptiX_FDK/lib/tinyusb/src/common/tusb_common.h ****   }
 153:SynaptiX_FDK/lib/tinyusb/src/common/tusb_common.h **** 
ARM GAS  C:\Users\DELL\AppData\Local\Temp\cc4DwQyI.s 			page 9


 154:SynaptiX_FDK/lib/tinyusb/src/common/tusb_common.h ****   (void) memcpy(dest, src, count);
 155:SynaptiX_FDK/lib/tinyusb/src/common/tusb_common.h ****   return 0;
 156:SynaptiX_FDK/lib/tinyusb/src/common/tusb_common.h **** }
 157:SynaptiX_FDK/lib/tinyusb/src/common/tusb_common.h **** 
 158:SynaptiX_FDK/lib/tinyusb/src/common/tusb_common.h **** TU_ATTR_ALWAYS_INLINE static inline bool tu_mem_is_zero(const void *buffer, size_t size) {
 159:SynaptiX_FDK/lib/tinyusb/src/common/tusb_common.h ****   const uint8_t* buf8 = (const uint8_t*) buffer;
 160:SynaptiX_FDK/lib/tinyusb/src/common/tusb_common.h ****   for (size_t i = 0; i < size; i++) {
 161:SynaptiX_FDK/lib/tinyusb/src/common/tusb_common.h ****     if (buf8[i] != 0) { return false; }
 162:SynaptiX_FDK/lib/tinyusb/src/common/tusb_common.h ****   }
 163:SynaptiX_FDK/lib/tinyusb/src/common/tusb_common.h ****   return true;
 164:SynaptiX_FDK/lib/tinyusb/src/common/tusb_common.h **** }
 165:SynaptiX_FDK/lib/tinyusb/src/common/tusb_common.h **** 
 166:SynaptiX_FDK/lib/tinyusb/src/common/tusb_common.h **** TU_ATTR_ALWAYS_INLINE static inline bool tu_mem_is_ff(const void *buffer, size_t size) {
 167:SynaptiX_FDK/lib/tinyusb/src/common/tusb_common.h ****   const uint8_t* buf8 = (const uint8_t*) buffer;
 168:SynaptiX_FDK/lib/tinyusb/src/common/tusb_common.h ****   for (size_t i = 0; i < size; i++) {
 169:SynaptiX_FDK/lib/tinyusb/src/common/tusb_common.h ****     if (buf8[i] != 0xff) { return false; }
 170:SynaptiX_FDK/lib/tinyusb/src/common/tusb_common.h ****   }
 171:SynaptiX_FDK/lib/tinyusb/src/common/tusb_common.h ****   return true;
 172:SynaptiX_FDK/lib/tinyusb/src/common/tusb_common.h **** }
 173:SynaptiX_FDK/lib/tinyusb/src/common/tusb_common.h **** 
 174:SynaptiX_FDK/lib/tinyusb/src/common/tusb_common.h **** 
 175:SynaptiX_FDK/lib/tinyusb/src/common/tusb_common.h **** //------------- Bytes -------------//
 176:SynaptiX_FDK/lib/tinyusb/src/common/tusb_common.h **** TU_ATTR_ALWAYS_INLINE static inline uint32_t tu_u32(uint8_t b3, uint8_t b2, uint8_t b1, uint8_t b0)
 177:SynaptiX_FDK/lib/tinyusb/src/common/tusb_common.h ****   return (((uint32_t)b3) << 24) | (((uint32_t)b2) << 16) | (((uint32_t)b1) << 8) | b0;
 178:SynaptiX_FDK/lib/tinyusb/src/common/tusb_common.h **** }
 179:SynaptiX_FDK/lib/tinyusb/src/common/tusb_common.h **** 
 180:SynaptiX_FDK/lib/tinyusb/src/common/tusb_common.h **** TU_ATTR_ALWAYS_INLINE static inline uint32_t tu_u32_from_u16(uint16_t high, uint16_t low) {
 181:SynaptiX_FDK/lib/tinyusb/src/common/tusb_common.h ****   return (((uint32_t)high) << 16) | low;
 182:SynaptiX_FDK/lib/tinyusb/src/common/tusb_common.h **** }
 183:SynaptiX_FDK/lib/tinyusb/src/common/tusb_common.h **** 
 184:SynaptiX_FDK/lib/tinyusb/src/common/tusb_common.h **** TU_ATTR_ALWAYS_INLINE static inline uint16_t tu_u16(uint8_t high, uint8_t low) {
 185:SynaptiX_FDK/lib/tinyusb/src/common/tusb_common.h ****   return (uint16_t)((((uint16_t)high) << 8) | low);
 186:SynaptiX_FDK/lib/tinyusb/src/common/tusb_common.h **** }
 187:SynaptiX_FDK/lib/tinyusb/src/common/tusb_common.h **** 
 188:SynaptiX_FDK/lib/tinyusb/src/common/tusb_common.h **** TU_ATTR_ALWAYS_INLINE static inline uint8_t tu_u32_byte3(uint32_t ui32) { return TU_U32_BYTE3(ui32)
 189:SynaptiX_FDK/lib/tinyusb/src/common/tusb_common.h **** TU_ATTR_ALWAYS_INLINE static inline uint8_t tu_u32_byte2(uint32_t ui32) { return TU_U32_BYTE2(ui32)
 190:SynaptiX_FDK/lib/tinyusb/src/common/tusb_common.h **** TU_ATTR_ALWAYS_INLINE static inline uint8_t tu_u32_byte1(uint32_t ui32) { return TU_U32_BYTE1(ui32)
 191:SynaptiX_FDK/lib/tinyusb/src/common/tusb_common.h **** TU_ATTR_ALWAYS_INLINE static inline uint8_t tu_u32_byte0(uint32_t ui32) { return TU_U32_BYTE0(ui32)
 192:SynaptiX_FDK/lib/tinyusb/src/common/tusb_common.h **** 
 193:SynaptiX_FDK/lib/tinyusb/src/common/tusb_common.h **** TU_ATTR_ALWAYS_INLINE static inline uint16_t tu_u32_high16(uint32_t ui32) { return (uint16_t) (ui32
 194:SynaptiX_FDK/lib/tinyusb/src/common/tusb_common.h **** TU_ATTR_ALWAYS_INLINE static inline uint16_t tu_u32_low16 (uint32_t ui32) { return (uint16_t) (ui32
 195:SynaptiX_FDK/lib/tinyusb/src/common/tusb_common.h **** 
 196:SynaptiX_FDK/lib/tinyusb/src/common/tusb_common.h **** TU_ATTR_ALWAYS_INLINE static inline uint8_t tu_u16_high(uint16_t ui16) { return TU_U16_HIGH(ui16); 
 197:SynaptiX_FDK/lib/tinyusb/src/common/tusb_common.h **** TU_ATTR_ALWAYS_INLINE static inline uint8_t tu_u16_low (uint16_t ui16) { return TU_U16_LOW(ui16); }
 198:SynaptiX_FDK/lib/tinyusb/src/common/tusb_common.h **** 
 199:SynaptiX_FDK/lib/tinyusb/src/common/tusb_common.h **** //------------- Bits -------------//
 200:SynaptiX_FDK/lib/tinyusb/src/common/tusb_common.h **** TU_ATTR_ALWAYS_INLINE static inline uint32_t tu_bit_set  (uint32_t value, uint8_t pos) { return val
 201:SynaptiX_FDK/lib/tinyusb/src/common/tusb_common.h **** TU_ATTR_ALWAYS_INLINE static inline uint32_t tu_bit_clear(uint32_t value, uint8_t pos) { return val
 202:SynaptiX_FDK/lib/tinyusb/src/common/tusb_common.h **** TU_ATTR_ALWAYS_INLINE static inline bool     tu_bit_test (uint32_t value, uint8_t pos) { return (va
 203:SynaptiX_FDK/lib/tinyusb/src/common/tusb_common.h **** 
 204:SynaptiX_FDK/lib/tinyusb/src/common/tusb_common.h **** //------------- Min -------------//
 205:SynaptiX_FDK/lib/tinyusb/src/common/tusb_common.h **** TU_ATTR_ALWAYS_INLINE static inline uint8_t  tu_min8  (uint8_t  x, uint8_t y ) { return (x < y) ? x
 206:SynaptiX_FDK/lib/tinyusb/src/common/tusb_common.h **** TU_ATTR_ALWAYS_INLINE static inline uint16_t tu_min16 (uint16_t x, uint16_t y) { return (x < y) ? x
 207:SynaptiX_FDK/lib/tinyusb/src/common/tusb_common.h **** TU_ATTR_ALWAYS_INLINE static inline uint32_t tu_min32 (uint32_t x, uint32_t y) { return (x < y) ? x
 208:SynaptiX_FDK/lib/tinyusb/src/common/tusb_common.h **** 
 209:SynaptiX_FDK/lib/tinyusb/src/common/tusb_common.h **** //------------- Max -------------//
 210:SynaptiX_FDK/lib/tinyusb/src/common/tusb_common.h **** TU_ATTR_ALWAYS_INLINE static inline uint8_t  tu_max8  (uint8_t  x, uint8_t y ) { return (x > y) ? x
ARM GAS  C:\Users\DELL\AppData\Local\Temp\cc4DwQyI.s 			page 10


 211:SynaptiX_FDK/lib/tinyusb/src/common/tusb_common.h **** TU_ATTR_ALWAYS_INLINE static inline uint16_t tu_max16 (uint16_t x, uint16_t y) { return (x > y) ? x
 212:SynaptiX_FDK/lib/tinyusb/src/common/tusb_common.h **** TU_ATTR_ALWAYS_INLINE static inline uint32_t tu_max32 (uint32_t x, uint32_t y) { return (x > y) ? x
 213:SynaptiX_FDK/lib/tinyusb/src/common/tusb_common.h **** 
 214:SynaptiX_FDK/lib/tinyusb/src/common/tusb_common.h **** //------------- Align -------------//
 215:SynaptiX_FDK/lib/tinyusb/src/common/tusb_common.h **** TU_ATTR_ALWAYS_INLINE static inline uint32_t tu_align(uint32_t value, uint32_t alignment) {
 216:SynaptiX_FDK/lib/tinyusb/src/common/tusb_common.h ****   return value & ((uint32_t) ~(alignment-1));
 217:SynaptiX_FDK/lib/tinyusb/src/common/tusb_common.h **** }
 218:SynaptiX_FDK/lib/tinyusb/src/common/tusb_common.h **** 
 219:SynaptiX_FDK/lib/tinyusb/src/common/tusb_common.h **** TU_ATTR_ALWAYS_INLINE static inline uint32_t tu_align4  (uint32_t value) { return (value & 0xFFFFFF
 220:SynaptiX_FDK/lib/tinyusb/src/common/tusb_common.h **** TU_ATTR_ALWAYS_INLINE static inline uint32_t tu_align8  (uint32_t value) { return (value & 0xFFFFFF
 221:SynaptiX_FDK/lib/tinyusb/src/common/tusb_common.h **** TU_ATTR_ALWAYS_INLINE static inline uint32_t tu_align16 (uint32_t value) { return (value & 0xFFFFFF
 222:SynaptiX_FDK/lib/tinyusb/src/common/tusb_common.h **** TU_ATTR_ALWAYS_INLINE static inline uint32_t tu_align32 (uint32_t value) { return (value & 0xFFFFFF
 223:SynaptiX_FDK/lib/tinyusb/src/common/tusb_common.h **** TU_ATTR_ALWAYS_INLINE static inline uint32_t tu_align4k (uint32_t value) { return (value & 0xFFFFF0
 224:SynaptiX_FDK/lib/tinyusb/src/common/tusb_common.h **** TU_ATTR_ALWAYS_INLINE static inline uint32_t tu_offset4k(uint32_t value) { return (value & 0xFFFUL)
 225:SynaptiX_FDK/lib/tinyusb/src/common/tusb_common.h **** 
 226:SynaptiX_FDK/lib/tinyusb/src/common/tusb_common.h **** TU_ATTR_ALWAYS_INLINE static inline bool tu_is_aligned32(uint32_t value) { return (value & 0x1FUL) 
 227:SynaptiX_FDK/lib/tinyusb/src/common/tusb_common.h **** TU_ATTR_ALWAYS_INLINE static inline bool tu_is_aligned64(uint64_t value) { return (value & 0x3FUL) 
 228:SynaptiX_FDK/lib/tinyusb/src/common/tusb_common.h **** 
 229:SynaptiX_FDK/lib/tinyusb/src/common/tusb_common.h **** //------------- Mathematics -------------//
 230:SynaptiX_FDK/lib/tinyusb/src/common/tusb_common.h **** TU_ATTR_ALWAYS_INLINE static inline uint32_t tu_div_ceil(uint32_t v, uint32_t d) { return TU_DIV_CE
 219              		.loc 2 230 46 view .LVU46
 220              	.LBB10:
 221              		.loc 2 230 84 view .LVU47
 222              		.loc 2 230 91 is_stmt 0 view .LVU48
 223 0008 1F30     		adds	r0, r0, #31
 224              	.LVL3:
 225              		.loc 2 230 91 view .LVU49
 226 000a 4009     		lsrs	r0, r0, #5
 227              	.LVL4:
 228              		.loc 2 230 91 view .LVU50
 229              	.LBE10:
 230              	.LBE9:
 231              		.loc 1 84 16 discriminator 1 view .LVU51
 232 000c 1070     		strb	r0, [r2]
  82:SynaptiX_FDK/lib/tinyusb/src/portable/st/stm32_fsdev/fsdev_common.c ****     *blsize = 1;
 233              		.loc 1 82 20 view .LVU52
 234 000e 2023     		movs	r3, #32
 235              	.LVL5:
 236              	.L17:
  85:SynaptiX_FDK/lib/tinyusb/src/portable/st/stm32_fsdev/fsdev_common.c ****   } else {
  86:SynaptiX_FDK/lib/tinyusb/src/portable/st/stm32_fsdev/fsdev_common.c ****     block_in_bytes = 2;
  87:SynaptiX_FDK/lib/tinyusb/src/portable/st/stm32_fsdev/fsdev_common.c ****     *blsize = 0;
  88:SynaptiX_FDK/lib/tinyusb/src/portable/st/stm32_fsdev/fsdev_common.c ****     *num_block = tu_div_ceil(size, 2);
  89:SynaptiX_FDK/lib/tinyusb/src/portable/st/stm32_fsdev/fsdev_common.c ****   }
  90:SynaptiX_FDK/lib/tinyusb/src/portable/st/stm32_fsdev/fsdev_common.c **** 
  91:SynaptiX_FDK/lib/tinyusb/src/portable/st/stm32_fsdev/fsdev_common.c ****   return (*num_block) * block_in_bytes;
 237              		.loc 1 91 3 is_stmt 1 view .LVU53
 238              		.loc 1 91 11 is_stmt 0 view .LVU54
 239 0010 1078     		ldrb	r0, [r2]	@ zero_extendqisi2
  92:SynaptiX_FDK/lib/tinyusb/src/portable/st/stm32_fsdev/fsdev_common.c **** }
 240              		.loc 1 92 1 view .LVU55
 241 0012 03FB00F0 		mul	r0, r3, r0
 242 0016 7047     		bx	lr
 243              	.LVL6:
 244              	.L16:
  86:SynaptiX_FDK/lib/tinyusb/src/portable/st/stm32_fsdev/fsdev_common.c ****     *blsize = 0;
 245              		.loc 1 86 5 is_stmt 1 view .LVU56
ARM GAS  C:\Users\DELL\AppData\Local\Temp\cc4DwQyI.s 			page 11


  87:SynaptiX_FDK/lib/tinyusb/src/portable/st/stm32_fsdev/fsdev_common.c ****     *num_block = tu_div_ceil(size, 2);
 246              		.loc 1 87 5 view .LVU57
  87:SynaptiX_FDK/lib/tinyusb/src/portable/st/stm32_fsdev/fsdev_common.c ****     *num_block = tu_div_ceil(size, 2);
 247              		.loc 1 87 13 is_stmt 0 view .LVU58
 248 0018 0023     		movs	r3, #0
 249 001a 0B70     		strb	r3, [r1]
  88:SynaptiX_FDK/lib/tinyusb/src/portable/st/stm32_fsdev/fsdev_common.c ****   }
 250              		.loc 1 88 5 is_stmt 1 view .LVU59
 251              	.LVL7:
 252              	.LBB11:
 253              	.LBI11:
 254              		.loc 2 230 46 view .LVU60
 255              	.LBB12:
 256              		.loc 2 230 84 view .LVU61
 257              		.loc 2 230 91 is_stmt 0 view .LVU62
 258 001c 0130     		adds	r0, r0, #1
 259              	.LVL8:
 260              		.loc 2 230 91 view .LVU63
 261 001e 4008     		lsrs	r0, r0, #1
 262              	.LVL9:
 263              		.loc 2 230 91 view .LVU64
 264              	.LBE12:
 265              	.LBE11:
  88:SynaptiX_FDK/lib/tinyusb/src/portable/st/stm32_fsdev/fsdev_common.c ****   }
 266              		.loc 1 88 16 discriminator 1 view .LVU65
 267 0020 1070     		strb	r0, [r2]
  86:SynaptiX_FDK/lib/tinyusb/src/portable/st/stm32_fsdev/fsdev_common.c ****     *blsize = 0;
 268              		.loc 1 86 20 view .LVU66
 269 0022 0223     		movs	r3, #2
 270 0024 F4E7     		b	.L17
 271              		.cfi_endproc
 272              	.LFE434:
 274              		.section	.text.btable_set_rx_bufsize,"ax",%progbits
 275              		.align	1
 276              		.global	btable_set_rx_bufsize
 277              		.syntax unified
 278              		.thumb
 279              		.thumb_func
 281              	btable_set_rx_bufsize:
 282              	.LVL10:
 283              	.LFB435:
  93:SynaptiX_FDK/lib/tinyusb/src/portable/st/stm32_fsdev/fsdev_common.c **** 
  94:SynaptiX_FDK/lib/tinyusb/src/portable/st/stm32_fsdev/fsdev_common.c **** // Set RX buffer size
  95:SynaptiX_FDK/lib/tinyusb/src/portable/st/stm32_fsdev/fsdev_common.c **** void btable_set_rx_bufsize(uint32_t ep_id, uint8_t buf_id, uint16_t wCount) {
 284              		.loc 1 95 77 is_stmt 1 view -0
 285              		.cfi_startproc
 286              		@ args = 0, pretend = 0, frame = 8
 287              		@ frame_needed = 0, uses_anonymous_args = 0
 288              		.loc 1 95 77 is_stmt 0 view .LVU68
 289 0000 30B5     		push	{r4, r5, lr}
 290              	.LCFI4:
 291              		.cfi_def_cfa_offset 12
 292              		.cfi_offset 4, -12
 293              		.cfi_offset 5, -8
 294              		.cfi_offset 14, -4
 295 0002 83B0     		sub	sp, sp, #12
 296              	.LCFI5:
ARM GAS  C:\Users\DELL\AppData\Local\Temp\cc4DwQyI.s 			page 12


 297              		.cfi_def_cfa_offset 24
 298 0004 0546     		mov	r5, r0
 299 0006 0C46     		mov	r4, r1
 300 0008 1046     		mov	r0, r2
 301              	.LVL11:
  96:SynaptiX_FDK/lib/tinyusb/src/portable/st/stm32_fsdev/fsdev_common.c ****   uint8_t blsize, num_block;
 302              		.loc 1 96 3 is_stmt 1 view .LVU69
  97:SynaptiX_FDK/lib/tinyusb/src/portable/st/stm32_fsdev/fsdev_common.c ****   (void) pma_align_buffer_size(wCount, &blsize, &num_block);
 303              		.loc 1 97 3 view .LVU70
 304              		.loc 1 97 10 is_stmt 0 view .LVU71
 305 000a 0DF10602 		add	r2, sp, #6
 306              	.LVL12:
 307              		.loc 1 97 10 view .LVU72
 308 000e 0DF10701 		add	r1, sp, #7
 309              	.LVL13:
 310              		.loc 1 97 10 view .LVU73
 311 0012 FFF7FEFF 		bl	pma_align_buffer_size
 312              	.LVL14:
  98:SynaptiX_FDK/lib/tinyusb/src/portable/st/stm32_fsdev/fsdev_common.c **** 
  99:SynaptiX_FDK/lib/tinyusb/src/portable/st/stm32_fsdev/fsdev_common.c ****   /* Encode into register. When BLSIZE==1, we need to subtract 1 block count */
 100:SynaptiX_FDK/lib/tinyusb/src/portable/st/stm32_fsdev/fsdev_common.c ****   uint16_t bl_nb = (blsize << 15) | ((num_block - blsize) << 10);
 313              		.loc 1 100 3 is_stmt 1 view .LVU74
 314              		.loc 1 100 35 is_stmt 0 view .LVU75
 315 0016 9DF80720 		ldrb	r2, [sp, #7]	@ zero_extendqisi2
 316              		.loc 1 100 49 view .LVU76
 317 001a 9DF80630 		ldrb	r3, [sp, #6]	@ zero_extendqisi2
 318 001e 9B1A     		subs	r3, r3, r2
 319              		.loc 1 100 35 view .LVU77
 320 0020 9B02     		lsls	r3, r3, #10
 321 0022 43EAC233 		orr	r3, r3, r2, lsl #15
 322              	.LVL15:
 101:SynaptiX_FDK/lib/tinyusb/src/portable/st/stm32_fsdev/fsdev_common.c ****   if (bl_nb == 0) {
 323              		.loc 1 101 3 is_stmt 1 view .LVU78
 324              		.loc 1 101 6 is_stmt 0 view .LVU79
 325 0026 13F47C43 		ands	r3, r3, #64512
 326              	.LVL16:
 327              		.loc 1 101 6 view .LVU80
 328 002a 01D1     		bne	.L19
 102:SynaptiX_FDK/lib/tinyusb/src/portable/st/stm32_fsdev/fsdev_common.c ****     // zlp but 0 is invalid value, set blsize to 1 (32 bytes)
 103:SynaptiX_FDK/lib/tinyusb/src/portable/st/stm32_fsdev/fsdev_common.c ****     // Note: lower value can cause PMAOVR on setup with ch32v203
 104:SynaptiX_FDK/lib/tinyusb/src/portable/st/stm32_fsdev/fsdev_common.c ****     bl_nb = 1 << 15;
 329              		.loc 1 104 11 view .LVU81
 330 002c 4FF40043 		mov	r3, #32768
 331              	.L19:
 332              	.LVL17:
 105:SynaptiX_FDK/lib/tinyusb/src/portable/st/stm32_fsdev/fsdev_common.c ****   }
 106:SynaptiX_FDK/lib/tinyusb/src/portable/st/stm32_fsdev/fsdev_common.c **** 
 107:SynaptiX_FDK/lib/tinyusb/src/portable/st/stm32_fsdev/fsdev_common.c **** #ifdef  CFG_TUSB_FSDEV_32BIT
 108:SynaptiX_FDK/lib/tinyusb/src/portable/st/stm32_fsdev/fsdev_common.c ****   uint32_t count_addr = FSDEV_BTABLE->ep32[ep_id][buf_id].count_addr;
 333              		.loc 1 108 3 is_stmt 1 view .LVU82
 334              		.loc 1 108 12 is_stmt 0 view .LVU83
 335 0030 0548     		ldr	r0, .L22
 336 0032 04EB4501 		add	r1, r4, r5, lsl #1
 337 0036 50F82120 		ldr	r2, [r0, r1, lsl #2]
 338              	.LVL18:
 109:SynaptiX_FDK/lib/tinyusb/src/portable/st/stm32_fsdev/fsdev_common.c ****   count_addr = (bl_nb << 16) | (count_addr & 0x0000FFFFu);
 339              		.loc 1 109 3 is_stmt 1 view .LVU84
ARM GAS  C:\Users\DELL\AppData\Local\Temp\cc4DwQyI.s 			page 13


 340              		.loc 1 109 44 is_stmt 0 view .LVU85
 341 003a 92B2     		uxth	r2, r2
 342              	.LVL19:
 343              		.loc 1 109 14 view .LVU86
 344 003c 42EA0343 		orr	r3, r2, r3, lsl #16
 345              	.LVL20:
 110:SynaptiX_FDK/lib/tinyusb/src/portable/st/stm32_fsdev/fsdev_common.c ****   FSDEV_BTABLE->ep32[ep_id][buf_id].count_addr = count_addr;
 346              		.loc 1 110 3 is_stmt 1 view .LVU87
 347              		.loc 1 110 48 is_stmt 0 view .LVU88
 348 0040 40F82130 		str	r3, [r0, r1, lsl #2]
 111:SynaptiX_FDK/lib/tinyusb/src/portable/st/stm32_fsdev/fsdev_common.c **** #else
 112:SynaptiX_FDK/lib/tinyusb/src/portable/st/stm32_fsdev/fsdev_common.c ****   FSDEV_BTABLE->ep16[ep_id][buf_id].count = bl_nb;
 113:SynaptiX_FDK/lib/tinyusb/src/portable/st/stm32_fsdev/fsdev_common.c **** #endif
 114:SynaptiX_FDK/lib/tinyusb/src/portable/st/stm32_fsdev/fsdev_common.c **** }
 349              		.loc 1 114 1 view .LVU89
 350 0044 03B0     		add	sp, sp, #12
 351              	.LCFI6:
 352              		.cfi_def_cfa_offset 12
 353              		@ sp needed
 354 0046 30BD     		pop	{r4, r5, pc}
 355              	.LVL21:
 356              	.L23:
 357              		.loc 1 114 1 view .LVU90
 358              		.align	2
 359              	.L22:
 360 0048 00640140 		.word	1073832960
 361              		.cfi_endproc
 362              	.LFE435:
 364              		.text
 365              	.Letext0:
 366              		.file 3 "D:\\stm32cubeclt\\STM32CubeCLT_1.21.0\\GNU-tools-for-STM32\\bin\\../lib/gcc/arm-none-eabi
 367              		.file 4 "D:\\stm32cubeclt\\STM32CubeCLT_1.21.0\\GNU-tools-for-STM32\\bin\\../lib/gcc/arm-none-eabi
 368              		.file 5 "Drivers/CMSIS/Device/ST/STM32H5xx/Include/stm32h563xx.h"
 369              		.file 6 "Drivers/STM32H5xx_HAL_Driver/Inc/stm32h5xx_ll_lptim.h"
 370              		.file 7 "SynaptiX_FDK/lib/tinyusb/src/portable/st/stm32_fsdev/fsdev_common.h"
 371              		.file 8 "SynaptiX_FDK/lib/tinyusb/src/portable/st/stm32_fsdev/fsdev_stm32.h"
ARM GAS  C:\Users\DELL\AppData\Local\Temp\cc4DwQyI.s 			page 14


DEFINED SYMBOLS
                            *ABS*:00000000 fsdev_common.c
C:\Users\DELL\AppData\Local\Temp\cc4DwQyI.s:22     .text.fsdev_core_reset:00000000 $t
C:\Users\DELL\AppData\Local\Temp\cc4DwQyI.s:28     .text.fsdev_core_reset:00000000 fsdev_core_reset
C:\Users\DELL\AppData\Local\Temp\cc4DwQyI.s:116    .text.fsdev_core_reset:00000044 $d
C:\Users\DELL\AppData\Local\Temp\cc4DwQyI.s:121    .text.fsdev_deinit:00000000 $t
C:\Users\DELL\AppData\Local\Temp\cc4DwQyI.s:127    .text.fsdev_deinit:00000000 fsdev_deinit
C:\Users\DELL\AppData\Local\Temp\cc4DwQyI.s:184    .text.fsdev_deinit:00000028 $d
C:\Users\DELL\AppData\Local\Temp\cc4DwQyI.s:189    .text.pma_align_buffer_size:00000000 $t
C:\Users\DELL\AppData\Local\Temp\cc4DwQyI.s:195    .text.pma_align_buffer_size:00000000 pma_align_buffer_size
C:\Users\DELL\AppData\Local\Temp\cc4DwQyI.s:275    .text.btable_set_rx_bufsize:00000000 $t
C:\Users\DELL\AppData\Local\Temp\cc4DwQyI.s:281    .text.btable_set_rx_bufsize:00000000 btable_set_rx_bufsize
C:\Users\DELL\AppData\Local\Temp\cc4DwQyI.s:360    .text.btable_set_rx_bufsize:00000048 $d

NO UNDEFINED SYMBOLS
