ARM GAS  C:\Users\DELL\AppData\Local\Temp\cc9R4Syw.s 			page 1


   1              		.cpu cortex-m33
   2              		.arch armv8-m.main
   3              		.fpu fpv5-sp-d16
   4              		.arch_extension dsp
   5              		.eabi_attribute 27, 1
   6              		.eabi_attribute 28, 1
   7              		.eabi_attribute 20, 1
   8              		.eabi_attribute 21, 1
   9              		.eabi_attribute 23, 3
  10              		.eabi_attribute 24, 1
  11              		.eabi_attribute 25, 1
  12              		.eabi_attribute 26, 1
  13              		.eabi_attribute 30, 1
  14              		.eabi_attribute 34, 1
  15              		.eabi_attribute 18, 4
  16              		.file	"gpio.c"
  17              		.text
  18              	.Ltext0:
  19              		.cfi_sections	.debug_frame
  20              		.file 1 "Core/Src/gpio.c"
  21              		.section	.text.MX_GPIO_Init,"ax",%progbits
  22              		.align	1
  23              		.global	MX_GPIO_Init
  24              		.syntax unified
  25              		.thumb
  26              		.thumb_func
  28              	MX_GPIO_Init:
  29              	.LFB297:
   1:Core/Src/gpio.c **** /* USER CODE BEGIN Header */
   2:Core/Src/gpio.c **** /**
   3:Core/Src/gpio.c ****   ******************************************************************************
   4:Core/Src/gpio.c ****   * @file    gpio.c
   5:Core/Src/gpio.c ****   * @brief   This file provides code for the configuration
   6:Core/Src/gpio.c ****   *          of all used GPIO pins.
   7:Core/Src/gpio.c ****   ******************************************************************************
   8:Core/Src/gpio.c ****   * @attention
   9:Core/Src/gpio.c ****   *
  10:Core/Src/gpio.c ****   * Copyright (c) 2026 STMicroelectronics.
  11:Core/Src/gpio.c ****   * All rights reserved.
  12:Core/Src/gpio.c ****   *
  13:Core/Src/gpio.c ****   * This software is licensed under terms that can be found in the LICENSE file
  14:Core/Src/gpio.c ****   * in the root directory of this software component.
  15:Core/Src/gpio.c ****   * If no LICENSE file comes with this software, it is provided AS-IS.
  16:Core/Src/gpio.c ****   *
  17:Core/Src/gpio.c ****   ******************************************************************************
  18:Core/Src/gpio.c ****   */
  19:Core/Src/gpio.c **** /* USER CODE END Header */
  20:Core/Src/gpio.c **** 
  21:Core/Src/gpio.c **** /* Includes ------------------------------------------------------------------*/
  22:Core/Src/gpio.c **** #include "gpio.h"
  23:Core/Src/gpio.c **** 
  24:Core/Src/gpio.c **** /* USER CODE BEGIN 0 */
  25:Core/Src/gpio.c **** 
  26:Core/Src/gpio.c **** /* USER CODE END 0 */
  27:Core/Src/gpio.c **** 
  28:Core/Src/gpio.c **** /*----------------------------------------------------------------------------*/
  29:Core/Src/gpio.c **** /* Configure GPIO                                                             */
ARM GAS  C:\Users\DELL\AppData\Local\Temp\cc9R4Syw.s 			page 2


  30:Core/Src/gpio.c **** /*----------------------------------------------------------------------------*/
  31:Core/Src/gpio.c **** /* USER CODE BEGIN 1 */
  32:Core/Src/gpio.c **** 
  33:Core/Src/gpio.c **** /* USER CODE END 1 */
  34:Core/Src/gpio.c **** 
  35:Core/Src/gpio.c **** /** Configure pins
  36:Core/Src/gpio.c ****      PH0-OSC_IN(PH0)   ------> RCC_OSC_IN
  37:Core/Src/gpio.c ****      PH1-OSC_OUT(PH1)   ------> RCC_OSC_OUT
  38:Core/Src/gpio.c ****      PA13(JTMS/SWDIO)   ------> DEBUG_JTMS-SWDIO
  39:Core/Src/gpio.c ****      PA14(JTCK/SWCLK)   ------> DEBUG_JTCK-SWCLK
  40:Core/Src/gpio.c **** */
  41:Core/Src/gpio.c **** void MX_GPIO_Init(void)
  42:Core/Src/gpio.c **** {
  30              		.loc 1 42 1 view -0
  31              		.cfi_startproc
  32              		@ args = 0, pretend = 0, frame = 40
  33              		@ frame_needed = 0, uses_anonymous_args = 0
  34 0000 2DE9F047 		push	{r4, r5, r6, r7, r8, r9, r10, lr}
  35              	.LCFI0:
  36              		.cfi_def_cfa_offset 32
  37              		.cfi_offset 4, -32
  38              		.cfi_offset 5, -28
  39              		.cfi_offset 6, -24
  40              		.cfi_offset 7, -20
  41              		.cfi_offset 8, -16
  42              		.cfi_offset 9, -12
  43              		.cfi_offset 10, -8
  44              		.cfi_offset 14, -4
  45 0004 8AB0     		sub	sp, sp, #40
  46              	.LCFI1:
  47              		.cfi_def_cfa_offset 72
  43:Core/Src/gpio.c **** 
  44:Core/Src/gpio.c ****   GPIO_InitTypeDef GPIO_InitStruct = {0};
  48              		.loc 1 44 3 view .LVU1
  49              		.loc 1 44 20 is_stmt 0 view .LVU2
  50 0006 05AD     		add	r5, sp, #20
  51 0008 0024     		movs	r4, #0
  52 000a 0594     		str	r4, [sp, #20]
  53 000c 0694     		str	r4, [sp, #24]
  54 000e 0794     		str	r4, [sp, #28]
  55 0010 0894     		str	r4, [sp, #32]
  56 0012 0994     		str	r4, [sp, #36]
  45:Core/Src/gpio.c **** 
  46:Core/Src/gpio.c ****   /* GPIO Ports Clock Enable */
  47:Core/Src/gpio.c ****   __HAL_RCC_GPIOH_CLK_ENABLE();
  57              		.loc 1 47 3 is_stmt 1 view .LVU3
  58              	.LBB2:
  59              		.loc 1 47 3 view .LVU4
  60              		.loc 1 47 3 view .LVU5
  61 0014 4C4B     		ldr	r3, .L3
  62 0016 D3F88C20 		ldr	r2, [r3, #140]
  63 001a 42F08002 		orr	r2, r2, #128
  64 001e C3F88C20 		str	r2, [r3, #140]
  65              		.loc 1 47 3 view .LVU6
  66 0022 D3F88C20 		ldr	r2, [r3, #140]
  67 0026 02F08002 		and	r2, r2, #128
  68 002a 0092     		str	r2, [sp]
ARM GAS  C:\Users\DELL\AppData\Local\Temp\cc9R4Syw.s 			page 3


  69              		.loc 1 47 3 view .LVU7
  70 002c 009A     		ldr	r2, [sp]
  71              	.LBE2:
  72              		.loc 1 47 3 view .LVU8
  48:Core/Src/gpio.c ****   __HAL_RCC_GPIOC_CLK_ENABLE();
  73              		.loc 1 48 3 view .LVU9
  74              	.LBB3:
  75              		.loc 1 48 3 view .LVU10
  76              		.loc 1 48 3 view .LVU11
  77 002e D3F88C20 		ldr	r2, [r3, #140]
  78 0032 42F00402 		orr	r2, r2, #4
  79 0036 C3F88C20 		str	r2, [r3, #140]
  80              		.loc 1 48 3 view .LVU12
  81 003a D3F88C20 		ldr	r2, [r3, #140]
  82 003e 02F00402 		and	r2, r2, #4
  83 0042 0192     		str	r2, [sp, #4]
  84              		.loc 1 48 3 view .LVU13
  85 0044 019A     		ldr	r2, [sp, #4]
  86              	.LBE3:
  87              		.loc 1 48 3 view .LVU14
  49:Core/Src/gpio.c ****   __HAL_RCC_GPIOA_CLK_ENABLE();
  88              		.loc 1 49 3 view .LVU15
  89              	.LBB4:
  90              		.loc 1 49 3 view .LVU16
  91              		.loc 1 49 3 view .LVU17
  92 0046 D3F88C20 		ldr	r2, [r3, #140]
  93 004a 42F00102 		orr	r2, r2, #1
  94 004e C3F88C20 		str	r2, [r3, #140]
  95              		.loc 1 49 3 view .LVU18
  96 0052 D3F88C20 		ldr	r2, [r3, #140]
  97 0056 02F00102 		and	r2, r2, #1
  98 005a 0292     		str	r2, [sp, #8]
  99              		.loc 1 49 3 view .LVU19
 100 005c 029A     		ldr	r2, [sp, #8]
 101              	.LBE4:
 102              		.loc 1 49 3 view .LVU20
  50:Core/Src/gpio.c ****   __HAL_RCC_GPIOB_CLK_ENABLE();
 103              		.loc 1 50 3 view .LVU21
 104              	.LBB5:
 105              		.loc 1 50 3 view .LVU22
 106              		.loc 1 50 3 view .LVU23
 107 005e D3F88C20 		ldr	r2, [r3, #140]
 108 0062 42F00202 		orr	r2, r2, #2
 109 0066 C3F88C20 		str	r2, [r3, #140]
 110              		.loc 1 50 3 view .LVU24
 111 006a D3F88C20 		ldr	r2, [r3, #140]
 112 006e 02F00202 		and	r2, r2, #2
 113 0072 0392     		str	r2, [sp, #12]
 114              		.loc 1 50 3 view .LVU25
 115 0074 039A     		ldr	r2, [sp, #12]
 116              	.LBE5:
 117              		.loc 1 50 3 view .LVU26
  51:Core/Src/gpio.c ****   __HAL_RCC_GPIOD_CLK_ENABLE();
 118              		.loc 1 51 3 view .LVU27
 119              	.LBB6:
 120              		.loc 1 51 3 view .LVU28
 121              		.loc 1 51 3 view .LVU29
ARM GAS  C:\Users\DELL\AppData\Local\Temp\cc9R4Syw.s 			page 4


 122 0076 D3F88C20 		ldr	r2, [r3, #140]
 123 007a 42F00802 		orr	r2, r2, #8
 124 007e C3F88C20 		str	r2, [r3, #140]
 125              		.loc 1 51 3 view .LVU30
 126 0082 D3F88C30 		ldr	r3, [r3, #140]
 127 0086 03F00803 		and	r3, r3, #8
 128 008a 0493     		str	r3, [sp, #16]
 129              		.loc 1 51 3 view .LVU31
 130 008c 049B     		ldr	r3, [sp, #16]
 131              	.LBE6:
 132              		.loc 1 51 3 view .LVU32
  52:Core/Src/gpio.c **** 
  53:Core/Src/gpio.c ****   /*Configure GPIO pin Output Level */
  54:Core/Src/gpio.c ****   HAL_GPIO_WritePin(GPIOC, GPS_CPW_Pin|GPS_RST_Pin|UART5_S1_Pin|SPI1_CS_Pin, GPIO_PIN_RESET);
 133              		.loc 1 54 3 view .LVU33
 134 008e DFF8C080 		ldr	r8, .L3+8
 135 0092 2246     		mov	r2, r4
 136 0094 41F21C01 		movw	r1, #4124
 137 0098 4046     		mov	r0, r8
 138 009a FFF7FEFF 		bl	HAL_GPIO_WritePin
 139              	.LVL0:
  55:Core/Src/gpio.c **** 
  56:Core/Src/gpio.c ****   /*Configure GPIO pin Output Level */
  57:Core/Src/gpio.c ****   HAL_GPIO_WritePin(GPIOA, UART5_S0_Pin|EN_PW_DUST_Pin, GPIO_PIN_RESET);
 140              		.loc 1 57 3 view .LVU34
 141 009e 2B4F     		ldr	r7, .L3+4
 142 00a0 2246     		mov	r2, r4
 143 00a2 4FF42071 		mov	r1, #640
 144 00a6 3846     		mov	r0, r7
 145 00a8 FFF7FEFF 		bl	HAL_GPIO_WritePin
 146              	.LVL1:
  58:Core/Src/gpio.c **** 
  59:Core/Src/gpio.c ****   /*Configure GPIO pin Output Level */
  60:Core/Src/gpio.c ****   HAL_GPIO_WritePin(GPIOB, UART3_RDE_Pin|I2C1_RST_Pin, GPIO_PIN_RESET);
 147              		.loc 1 60 3 view .LVU35
 148 00ac DFF8A4A0 		ldr	r10, .L3+12
 149 00b0 2246     		mov	r2, r4
 150 00b2 4FF48271 		mov	r1, #260
 151 00b6 5046     		mov	r0, r10
 152 00b8 FFF7FEFF 		bl	HAL_GPIO_WritePin
 153              	.LVL2:
  61:Core/Src/gpio.c **** 
  62:Core/Src/gpio.c ****   /*Configure GPIO pin Output Level */
  63:Core/Src/gpio.c ****   HAL_GPIO_WritePin(GPIOD, LTE_RST_Pin|LTE_PWR_KEY_Pin, GPIO_PIN_RESET);
 154              		.loc 1 63 3 view .LVU36
 155 00bc DFF89890 		ldr	r9, .L3+16
 156 00c0 2246     		mov	r2, r4
 157 00c2 4FF4C051 		mov	r1, #6144
 158 00c6 4846     		mov	r0, r9
 159 00c8 FFF7FEFF 		bl	HAL_GPIO_WritePin
 160              	.LVL3:
  64:Core/Src/gpio.c **** 
  65:Core/Src/gpio.c ****   /*Configure GPIO pin : PC1 */
  66:Core/Src/gpio.c ****   GPIO_InitStruct.Pin = GPIO_PIN_1;
 161              		.loc 1 66 3 view .LVU37
 162              		.loc 1 66 23 is_stmt 0 view .LVU38
 163 00cc 0223     		movs	r3, #2
ARM GAS  C:\Users\DELL\AppData\Local\Temp\cc9R4Syw.s 			page 5


 164 00ce 0593     		str	r3, [sp, #20]
  67:Core/Src/gpio.c ****   GPIO_InitStruct.Mode = GPIO_MODE_INPUT;
 165              		.loc 1 67 3 is_stmt 1 view .LVU39
 166              		.loc 1 67 24 is_stmt 0 view .LVU40
 167 00d0 0694     		str	r4, [sp, #24]
  68:Core/Src/gpio.c ****   GPIO_InitStruct.Pull = GPIO_NOPULL;
 168              		.loc 1 68 3 is_stmt 1 view .LVU41
 169              		.loc 1 68 24 is_stmt 0 view .LVU42
 170 00d2 0794     		str	r4, [sp, #28]
  69:Core/Src/gpio.c ****   HAL_GPIO_Init(GPIOC, &GPIO_InitStruct);
 171              		.loc 1 69 3 is_stmt 1 view .LVU43
 172 00d4 2946     		mov	r1, r5
 173 00d6 4046     		mov	r0, r8
 174 00d8 FFF7FEFF 		bl	HAL_GPIO_Init
 175              	.LVL4:
  70:Core/Src/gpio.c **** 
  71:Core/Src/gpio.c ****   /*Configure GPIO pins : GPS_CPW_Pin GPS_RST_Pin UART5_S1_Pin SPI1_CS_Pin */
  72:Core/Src/gpio.c ****   GPIO_InitStruct.Pin = GPS_CPW_Pin|GPS_RST_Pin|UART5_S1_Pin|SPI1_CS_Pin;
 176              		.loc 1 72 3 view .LVU44
 177              		.loc 1 72 23 is_stmt 0 view .LVU45
 178 00dc 41F21C03 		movw	r3, #4124
 179 00e0 0593     		str	r3, [sp, #20]
  73:Core/Src/gpio.c ****   GPIO_InitStruct.Mode = GPIO_MODE_OUTPUT_PP;
 180              		.loc 1 73 3 is_stmt 1 view .LVU46
 181              		.loc 1 73 24 is_stmt 0 view .LVU47
 182 00e2 0126     		movs	r6, #1
 183 00e4 0696     		str	r6, [sp, #24]
  74:Core/Src/gpio.c ****   GPIO_InitStruct.Pull = GPIO_NOPULL;
 184              		.loc 1 74 3 is_stmt 1 view .LVU48
 185              		.loc 1 74 24 is_stmt 0 view .LVU49
 186 00e6 0794     		str	r4, [sp, #28]
  75:Core/Src/gpio.c ****   GPIO_InitStruct.Speed = GPIO_SPEED_FREQ_LOW;
 187              		.loc 1 75 3 is_stmt 1 view .LVU50
 188              		.loc 1 75 25 is_stmt 0 view .LVU51
 189 00e8 0894     		str	r4, [sp, #32]
  76:Core/Src/gpio.c ****   HAL_GPIO_Init(GPIOC, &GPIO_InitStruct);
 190              		.loc 1 76 3 is_stmt 1 view .LVU52
 191 00ea 2946     		mov	r1, r5
 192 00ec 4046     		mov	r0, r8
 193 00ee FFF7FEFF 		bl	HAL_GPIO_Init
 194              	.LVL5:
  77:Core/Src/gpio.c **** 
  78:Core/Src/gpio.c ****   /*Configure GPIO pins : UART5_S0_Pin EN_PW_DUST_Pin */
  79:Core/Src/gpio.c ****   GPIO_InitStruct.Pin = UART5_S0_Pin|EN_PW_DUST_Pin;
 195              		.loc 1 79 3 view .LVU53
 196              		.loc 1 79 23 is_stmt 0 view .LVU54
 197 00f2 4FF42073 		mov	r3, #640
 198 00f6 0593     		str	r3, [sp, #20]
  80:Core/Src/gpio.c ****   GPIO_InitStruct.Mode = GPIO_MODE_OUTPUT_PP;
 199              		.loc 1 80 3 is_stmt 1 view .LVU55
 200              		.loc 1 80 24 is_stmt 0 view .LVU56
 201 00f8 0696     		str	r6, [sp, #24]
  81:Core/Src/gpio.c ****   GPIO_InitStruct.Pull = GPIO_NOPULL;
 202              		.loc 1 81 3 is_stmt 1 view .LVU57
 203              		.loc 1 81 24 is_stmt 0 view .LVU58
 204 00fa 0794     		str	r4, [sp, #28]
  82:Core/Src/gpio.c ****   GPIO_InitStruct.Speed = GPIO_SPEED_FREQ_LOW;
ARM GAS  C:\Users\DELL\AppData\Local\Temp\cc9R4Syw.s 			page 6


 205              		.loc 1 82 3 is_stmt 1 view .LVU59
 206              		.loc 1 82 25 is_stmt 0 view .LVU60
 207 00fc 0894     		str	r4, [sp, #32]
  83:Core/Src/gpio.c ****   HAL_GPIO_Init(GPIOA, &GPIO_InitStruct);
 208              		.loc 1 83 3 is_stmt 1 view .LVU61
 209 00fe 2946     		mov	r1, r5
 210 0100 3846     		mov	r0, r7
 211 0102 FFF7FEFF 		bl	HAL_GPIO_Init
 212              	.LVL6:
  84:Core/Src/gpio.c **** 
  85:Core/Src/gpio.c ****   /*Configure GPIO pins : UART3_RDE_Pin I2C1_RST_Pin */
  86:Core/Src/gpio.c ****   GPIO_InitStruct.Pin = UART3_RDE_Pin|I2C1_RST_Pin;
 213              		.loc 1 86 3 view .LVU62
 214              		.loc 1 86 23 is_stmt 0 view .LVU63
 215 0106 4FF48273 		mov	r3, #260
 216 010a 0593     		str	r3, [sp, #20]
  87:Core/Src/gpio.c ****   GPIO_InitStruct.Mode = GPIO_MODE_OUTPUT_PP;
 217              		.loc 1 87 3 is_stmt 1 view .LVU64
 218              		.loc 1 87 24 is_stmt 0 view .LVU65
 219 010c 0696     		str	r6, [sp, #24]
  88:Core/Src/gpio.c ****   GPIO_InitStruct.Pull = GPIO_NOPULL;
 220              		.loc 1 88 3 is_stmt 1 view .LVU66
 221              		.loc 1 88 24 is_stmt 0 view .LVU67
 222 010e 0794     		str	r4, [sp, #28]
  89:Core/Src/gpio.c ****   GPIO_InitStruct.Speed = GPIO_SPEED_FREQ_LOW;
 223              		.loc 1 89 3 is_stmt 1 view .LVU68
 224              		.loc 1 89 25 is_stmt 0 view .LVU69
 225 0110 0894     		str	r4, [sp, #32]
  90:Core/Src/gpio.c ****   HAL_GPIO_Init(GPIOB, &GPIO_InitStruct);
 226              		.loc 1 90 3 is_stmt 1 view .LVU70
 227 0112 2946     		mov	r1, r5
 228 0114 5046     		mov	r0, r10
 229 0116 FFF7FEFF 		bl	HAL_GPIO_Init
 230              	.LVL7:
  91:Core/Src/gpio.c **** 
  92:Core/Src/gpio.c ****   /*Configure GPIO pins : LTE_RST_Pin LTE_PWR_KEY_Pin */
  93:Core/Src/gpio.c ****   GPIO_InitStruct.Pin = LTE_RST_Pin|LTE_PWR_KEY_Pin;
 231              		.loc 1 93 3 view .LVU71
 232              		.loc 1 93 23 is_stmt 0 view .LVU72
 233 011a 4FF4C053 		mov	r3, #6144
 234 011e 0593     		str	r3, [sp, #20]
  94:Core/Src/gpio.c ****   GPIO_InitStruct.Mode = GPIO_MODE_OUTPUT_PP;
 235              		.loc 1 94 3 is_stmt 1 view .LVU73
 236              		.loc 1 94 24 is_stmt 0 view .LVU74
 237 0120 0696     		str	r6, [sp, #24]
  95:Core/Src/gpio.c ****   GPIO_InitStruct.Pull = GPIO_NOPULL;
 238              		.loc 1 95 3 is_stmt 1 view .LVU75
 239              		.loc 1 95 24 is_stmt 0 view .LVU76
 240 0122 0794     		str	r4, [sp, #28]
  96:Core/Src/gpio.c ****   GPIO_InitStruct.Speed = GPIO_SPEED_FREQ_LOW;
 241              		.loc 1 96 3 is_stmt 1 view .LVU77
 242              		.loc 1 96 25 is_stmt 0 view .LVU78
 243 0124 0894     		str	r4, [sp, #32]
  97:Core/Src/gpio.c ****   HAL_GPIO_Init(GPIOD, &GPIO_InitStruct);
 244              		.loc 1 97 3 is_stmt 1 view .LVU79
 245 0126 2946     		mov	r1, r5
 246 0128 4846     		mov	r0, r9
ARM GAS  C:\Users\DELL\AppData\Local\Temp\cc9R4Syw.s 			page 7


 247 012a FFF7FEFF 		bl	HAL_GPIO_Init
 248              	.LVL8:
  98:Core/Src/gpio.c **** 
  99:Core/Src/gpio.c ****   /*Configure GPIO pin : EN_PW_PUMP_Pin */
 100:Core/Src/gpio.c ****   GPIO_InitStruct.Pin = EN_PW_PUMP_Pin;
 249              		.loc 1 100 3 view .LVU80
 250              		.loc 1 100 23 is_stmt 0 view .LVU81
 251 012e 4FF48073 		mov	r3, #256
 252 0132 0593     		str	r3, [sp, #20]
 101:Core/Src/gpio.c ****   GPIO_InitStruct.Mode = GPIO_MODE_INPUT;
 253              		.loc 1 101 3 is_stmt 1 view .LVU82
 254              		.loc 1 101 24 is_stmt 0 view .LVU83
 255 0134 0694     		str	r4, [sp, #24]
 102:Core/Src/gpio.c ****   GPIO_InitStruct.Pull = GPIO_PULLUP;
 256              		.loc 1 102 3 is_stmt 1 view .LVU84
 257              		.loc 1 102 24 is_stmt 0 view .LVU85
 258 0136 0796     		str	r6, [sp, #28]
 103:Core/Src/gpio.c ****   HAL_GPIO_Init(EN_PW_PUMP_GPIO_Port, &GPIO_InitStruct);
 259              		.loc 1 103 3 is_stmt 1 view .LVU86
 260 0138 2946     		mov	r1, r5
 261 013a 3846     		mov	r0, r7
 262 013c FFF7FEFF 		bl	HAL_GPIO_Init
 263              	.LVL9:
 104:Core/Src/gpio.c **** 
 105:Core/Src/gpio.c **** }
 264              		.loc 1 105 1 is_stmt 0 view .LVU87
 265 0140 0AB0     		add	sp, sp, #40
 266              	.LCFI2:
 267              		.cfi_def_cfa_offset 32
 268              		@ sp needed
 269 0142 BDE8F087 		pop	{r4, r5, r6, r7, r8, r9, r10, pc}
 270              	.L4:
 271 0146 00BF     		.align	2
 272              	.L3:
 273 0148 000C0244 		.word	1140984832
 274 014c 00000242 		.word	1107427328
 275 0150 00080242 		.word	1107429376
 276 0154 00040242 		.word	1107428352
 277 0158 000C0242 		.word	1107430400
 278              		.cfi_endproc
 279              	.LFE297:
 281              		.text
 282              	.Letext0:
 283              		.file 2 "D:\\stm32cubeclt\\STM32CubeCLT_1.21.0\\GNU-tools-for-STM32\\bin\\../lib/gcc/arm-none-eabi
 284              		.file 3 "D:\\stm32cubeclt\\STM32CubeCLT_1.21.0\\GNU-tools-for-STM32\\bin\\../lib/gcc/arm-none-eabi
 285              		.file 4 "Drivers/CMSIS/Device/ST/STM32H5xx/Include/stm32h563xx.h"
 286              		.file 5 "Drivers/STM32H5xx_HAL_Driver/Inc/stm32h5xx_hal_gpio.h"
 287              		.file 6 "Drivers/STM32H5xx_HAL_Driver/Inc/stm32h5xx_ll_lptim.h"
ARM GAS  C:\Users\DELL\AppData\Local\Temp\cc9R4Syw.s 			page 8

