ARM GAS  C:\Users\DELL\AppData\Local\Temp\ccDvWYNQ.s 			page 1


   1              		.cpu cortex-m33
   2              		.arch armv8-m.main
   3              		.fpu fpv5-sp-d16
   4              		.arch_extension dsp
   5              		.eabi_attribute 27, 1
   6              		.eabi_attribute 28, 1
   7              		.eabi_attribute 20, 1
   8              		.eabi_attribute 21, 1
   9              		.eabi_attribute 23, 3
  10              		.eabi_attribute 24, 1
  11              		.eabi_attribute 25, 1
  12              		.eabi_attribute 26, 1
  13              		.eabi_attribute 30, 1
  14              		.eabi_attribute 34, 1
  15              		.eabi_attribute 18, 4
  16              		.file	"i2c.c"
  17              		.text
  18              	.Ltext0:
  19              		.cfi_sections	.debug_frame
  20              		.file 1 "Core/Src/i2c.c"
  21              		.section	.text.MX_I2C1_Init,"ax",%progbits
  22              		.align	1
  23              		.global	MX_I2C1_Init
  24              		.syntax unified
  25              		.thumb
  26              		.thumb_func
  28              	MX_I2C1_Init:
  29              	.LFB297:
   1:Core/Src/i2c.c **** /* USER CODE BEGIN Header */
   2:Core/Src/i2c.c **** /**
   3:Core/Src/i2c.c ****   ******************************************************************************
   4:Core/Src/i2c.c ****   * @file    i2c.c
   5:Core/Src/i2c.c ****   * @brief   This file provides code for the configuration
   6:Core/Src/i2c.c ****   *          of the I2C instances.
   7:Core/Src/i2c.c ****   ******************************************************************************
   8:Core/Src/i2c.c ****   * @attention
   9:Core/Src/i2c.c ****   *
  10:Core/Src/i2c.c ****   * Copyright (c) 2026 STMicroelectronics.
  11:Core/Src/i2c.c ****   * All rights reserved.
  12:Core/Src/i2c.c ****   *
  13:Core/Src/i2c.c ****   * This software is licensed under terms that can be found in the LICENSE file
  14:Core/Src/i2c.c ****   * in the root directory of this software component.
  15:Core/Src/i2c.c ****   * If no LICENSE file comes with this software, it is provided AS-IS.
  16:Core/Src/i2c.c ****   *
  17:Core/Src/i2c.c ****   ******************************************************************************
  18:Core/Src/i2c.c ****   */
  19:Core/Src/i2c.c **** /* USER CODE END Header */
  20:Core/Src/i2c.c **** /* Includes ------------------------------------------------------------------*/
  21:Core/Src/i2c.c **** #include "i2c.h"
  22:Core/Src/i2c.c **** 
  23:Core/Src/i2c.c **** /* USER CODE BEGIN 0 */
  24:Core/Src/i2c.c **** 
  25:Core/Src/i2c.c **** /* USER CODE END 0 */
  26:Core/Src/i2c.c **** 
  27:Core/Src/i2c.c **** I2C_HandleTypeDef hi2c1;
  28:Core/Src/i2c.c **** 
  29:Core/Src/i2c.c **** /* I2C1 init function */
ARM GAS  C:\Users\DELL\AppData\Local\Temp\ccDvWYNQ.s 			page 2


  30:Core/Src/i2c.c **** void MX_I2C1_Init(void)
  31:Core/Src/i2c.c **** {
  30              		.loc 1 31 1 view -0
  31              		.cfi_startproc
  32              		@ args = 0, pretend = 0, frame = 0
  33              		@ frame_needed = 0, uses_anonymous_args = 0
  34 0000 08B5     		push	{r3, lr}
  35              	.LCFI0:
  36              		.cfi_def_cfa_offset 8
  37              		.cfi_offset 3, -8
  38              		.cfi_offset 14, -4
  32:Core/Src/i2c.c **** 
  33:Core/Src/i2c.c ****   /* USER CODE BEGIN I2C1_Init 0 */
  34:Core/Src/i2c.c **** 
  35:Core/Src/i2c.c ****   /* USER CODE END I2C1_Init 0 */
  36:Core/Src/i2c.c **** 
  37:Core/Src/i2c.c ****   /* USER CODE BEGIN I2C1_Init 1 */
  38:Core/Src/i2c.c **** 
  39:Core/Src/i2c.c ****   /* USER CODE END I2C1_Init 1 */
  40:Core/Src/i2c.c ****   hi2c1.Instance = I2C1;
  39              		.loc 1 40 3 view .LVU1
  40              		.loc 1 40 18 is_stmt 0 view .LVU2
  41 0002 1248     		ldr	r0, .L9
  42 0004 124B     		ldr	r3, .L9+4
  43 0006 0360     		str	r3, [r0]
  41:Core/Src/i2c.c ****   hi2c1.Init.Timing = 0x00B07CB7;
  44              		.loc 1 41 3 is_stmt 1 view .LVU3
  45              		.loc 1 41 21 is_stmt 0 view .LVU4
  46 0008 124B     		ldr	r3, .L9+8
  47 000a 4360     		str	r3, [r0, #4]
  42:Core/Src/i2c.c ****   hi2c1.Init.OwnAddress1 = 0;
  48              		.loc 1 42 3 is_stmt 1 view .LVU5
  49              		.loc 1 42 26 is_stmt 0 view .LVU6
  50 000c 0023     		movs	r3, #0
  51 000e 8360     		str	r3, [r0, #8]
  43:Core/Src/i2c.c ****   hi2c1.Init.AddressingMode = I2C_ADDRESSINGMODE_7BIT;
  52              		.loc 1 43 3 is_stmt 1 view .LVU7
  53              		.loc 1 43 29 is_stmt 0 view .LVU8
  54 0010 0122     		movs	r2, #1
  55 0012 C260     		str	r2, [r0, #12]
  44:Core/Src/i2c.c ****   hi2c1.Init.DualAddressMode = I2C_DUALADDRESS_DISABLE;
  56              		.loc 1 44 3 is_stmt 1 view .LVU9
  57              		.loc 1 44 30 is_stmt 0 view .LVU10
  58 0014 0361     		str	r3, [r0, #16]
  45:Core/Src/i2c.c ****   hi2c1.Init.OwnAddress2 = 0;
  59              		.loc 1 45 3 is_stmt 1 view .LVU11
  60              		.loc 1 45 26 is_stmt 0 view .LVU12
  61 0016 4361     		str	r3, [r0, #20]
  46:Core/Src/i2c.c ****   hi2c1.Init.OwnAddress2Masks = I2C_OA2_NOMASK;
  62              		.loc 1 46 3 is_stmt 1 view .LVU13
  63              		.loc 1 46 31 is_stmt 0 view .LVU14
  64 0018 8361     		str	r3, [r0, #24]
  47:Core/Src/i2c.c ****   hi2c1.Init.GeneralCallMode = I2C_GENERALCALL_DISABLE;
  65              		.loc 1 47 3 is_stmt 1 view .LVU15
  66              		.loc 1 47 30 is_stmt 0 view .LVU16
  67 001a C361     		str	r3, [r0, #28]
  48:Core/Src/i2c.c ****   hi2c1.Init.NoStretchMode = I2C_NOSTRETCH_DISABLE;
ARM GAS  C:\Users\DELL\AppData\Local\Temp\ccDvWYNQ.s 			page 3


  68              		.loc 1 48 3 is_stmt 1 view .LVU17
  69              		.loc 1 48 28 is_stmt 0 view .LVU18
  70 001c 0362     		str	r3, [r0, #32]
  49:Core/Src/i2c.c ****   if (HAL_I2C_Init(&hi2c1) != HAL_OK)
  71              		.loc 1 49 3 is_stmt 1 view .LVU19
  72              		.loc 1 49 7 is_stmt 0 view .LVU20
  73 001e FFF7FEFF 		bl	HAL_I2C_Init
  74              	.LVL0:
  75              		.loc 1 49 6 discriminator 1 view .LVU21
  76 0022 50B9     		cbnz	r0, .L6
  77              	.L2:
  50:Core/Src/i2c.c ****   {
  51:Core/Src/i2c.c ****     Error_Handler();
  52:Core/Src/i2c.c ****   }
  53:Core/Src/i2c.c **** 
  54:Core/Src/i2c.c ****   /** Configure Analogue filter
  55:Core/Src/i2c.c ****   */
  56:Core/Src/i2c.c ****   if (HAL_I2CEx_ConfigAnalogFilter(&hi2c1, I2C_ANALOGFILTER_ENABLE) != HAL_OK)
  78              		.loc 1 56 3 is_stmt 1 view .LVU22
  79              		.loc 1 56 7 is_stmt 0 view .LVU23
  80 0024 0021     		movs	r1, #0
  81 0026 0948     		ldr	r0, .L9
  82 0028 FFF7FEFF 		bl	HAL_I2CEx_ConfigAnalogFilter
  83              	.LVL1:
  84              		.loc 1 56 6 discriminator 1 view .LVU24
  85 002c 40B9     		cbnz	r0, .L7
  86              	.L3:
  57:Core/Src/i2c.c ****   {
  58:Core/Src/i2c.c ****     Error_Handler();
  59:Core/Src/i2c.c ****   }
  60:Core/Src/i2c.c **** 
  61:Core/Src/i2c.c ****   /** Configure Digital filter
  62:Core/Src/i2c.c ****   */
  63:Core/Src/i2c.c ****   if (HAL_I2CEx_ConfigDigitalFilter(&hi2c1, 0) != HAL_OK)
  87              		.loc 1 63 3 is_stmt 1 view .LVU25
  88              		.loc 1 63 7 is_stmt 0 view .LVU26
  89 002e 0021     		movs	r1, #0
  90 0030 0648     		ldr	r0, .L9
  91 0032 FFF7FEFF 		bl	HAL_I2CEx_ConfigDigitalFilter
  92              	.LVL2:
  93              		.loc 1 63 6 discriminator 1 view .LVU27
  94 0036 30B9     		cbnz	r0, .L8
  95              	.L1:
  64:Core/Src/i2c.c ****   {
  65:Core/Src/i2c.c ****     Error_Handler();
  66:Core/Src/i2c.c ****   }
  67:Core/Src/i2c.c ****   /* USER CODE BEGIN I2C1_Init 2 */
  68:Core/Src/i2c.c **** 
  69:Core/Src/i2c.c ****   /* USER CODE END I2C1_Init 2 */
  70:Core/Src/i2c.c **** 
  71:Core/Src/i2c.c **** }
  96              		.loc 1 71 1 view .LVU28
  97 0038 08BD     		pop	{r3, pc}
  98              	.L6:
  51:Core/Src/i2c.c ****   }
  99              		.loc 1 51 5 is_stmt 1 view .LVU29
 100 003a FFF7FEFF 		bl	Error_Handler
ARM GAS  C:\Users\DELL\AppData\Local\Temp\ccDvWYNQ.s 			page 4


 101              	.LVL3:
 102 003e F1E7     		b	.L2
 103              	.L7:
  58:Core/Src/i2c.c ****   }
 104              		.loc 1 58 5 view .LVU30
 105 0040 FFF7FEFF 		bl	Error_Handler
 106              	.LVL4:
 107 0044 F3E7     		b	.L3
 108              	.L8:
  65:Core/Src/i2c.c ****   }
 109              		.loc 1 65 5 view .LVU31
 110 0046 FFF7FEFF 		bl	Error_Handler
 111              	.LVL5:
 112              		.loc 1 71 1 is_stmt 0 view .LVU32
 113 004a F5E7     		b	.L1
 114              	.L10:
 115              		.align	2
 116              	.L9:
 117 004c 00000000 		.word	hi2c1
 118 0050 00540040 		.word	1073763328
 119 0054 B77CB000 		.word	11566263
 120              		.cfi_endproc
 121              	.LFE297:
 123              		.section	.text.HAL_I2C_MspInit,"ax",%progbits
 124              		.align	1
 125              		.global	HAL_I2C_MspInit
 126              		.syntax unified
 127              		.thumb
 128              		.thumb_func
 130              	HAL_I2C_MspInit:
 131              	.LVL6:
 132              	.LFB298:
  72:Core/Src/i2c.c **** 
  73:Core/Src/i2c.c **** void HAL_I2C_MspInit(I2C_HandleTypeDef* i2cHandle)
  74:Core/Src/i2c.c **** {
 133              		.loc 1 74 1 is_stmt 1 view -0
 134              		.cfi_startproc
 135              		@ args = 0, pretend = 0, frame = 296
 136              		@ frame_needed = 0, uses_anonymous_args = 0
 137              		.loc 1 74 1 is_stmt 0 view .LVU34
 138 0000 30B5     		push	{r4, r5, lr}
 139              	.LCFI1:
 140              		.cfi_def_cfa_offset 12
 141              		.cfi_offset 4, -12
 142              		.cfi_offset 5, -8
 143              		.cfi_offset 14, -4
 144 0002 CBB0     		sub	sp, sp, #300
 145              	.LCFI2:
 146              		.cfi_def_cfa_offset 312
 147 0004 0446     		mov	r4, r0
  75:Core/Src/i2c.c **** 
  76:Core/Src/i2c.c ****   GPIO_InitTypeDef GPIO_InitStruct = {0};
 148              		.loc 1 76 3 is_stmt 1 view .LVU35
 149              		.loc 1 76 20 is_stmt 0 view .LVU36
 150 0006 0021     		movs	r1, #0
 151 0008 4591     		str	r1, [sp, #276]
 152 000a 4691     		str	r1, [sp, #280]
ARM GAS  C:\Users\DELL\AppData\Local\Temp\ccDvWYNQ.s 			page 5


 153 000c 4791     		str	r1, [sp, #284]
 154 000e 4891     		str	r1, [sp, #288]
 155 0010 4991     		str	r1, [sp, #292]
  77:Core/Src/i2c.c ****   RCC_PeriphCLKInitTypeDef PeriphClkInitStruct = {0};
 156              		.loc 1 77 3 is_stmt 1 view .LVU37
 157              		.loc 1 77 28 is_stmt 0 view .LVU38
 158 0012 4FF48472 		mov	r2, #264
 159 0016 02A8     		add	r0, sp, #8
 160              	.LVL7:
 161              		.loc 1 77 28 view .LVU39
 162 0018 FFF7FEFF 		bl	memset
 163              	.LVL8:
  78:Core/Src/i2c.c ****   if(i2cHandle->Instance==I2C1)
 164              		.loc 1 78 3 is_stmt 1 view .LVU40
 165              		.loc 1 78 15 is_stmt 0 view .LVU41
 166 001c 2268     		ldr	r2, [r4]
 167              		.loc 1 78 5 view .LVU42
 168 001e 244B     		ldr	r3, .L17
 169 0020 9A42     		cmp	r2, r3
 170 0022 01D0     		beq	.L15
 171              	.LVL9:
 172              	.L11:
  79:Core/Src/i2c.c ****   {
  80:Core/Src/i2c.c ****   /* USER CODE BEGIN I2C1_MspInit 0 */
  81:Core/Src/i2c.c **** 
  82:Core/Src/i2c.c ****   /* USER CODE END I2C1_MspInit 0 */
  83:Core/Src/i2c.c **** 
  84:Core/Src/i2c.c ****   /** Initializes the peripherals clock
  85:Core/Src/i2c.c ****   */
  86:Core/Src/i2c.c ****     PeriphClkInitStruct.PeriphClockSelection = RCC_PERIPHCLK_I2C1;
  87:Core/Src/i2c.c ****     PeriphClkInitStruct.I2c1ClockSelection = RCC_I2C1CLKSOURCE_PCLK1;
  88:Core/Src/i2c.c ****     if (HAL_RCCEx_PeriphCLKConfig(&PeriphClkInitStruct) != HAL_OK)
  89:Core/Src/i2c.c ****     {
  90:Core/Src/i2c.c ****       Error_Handler();
  91:Core/Src/i2c.c ****     }
  92:Core/Src/i2c.c **** 
  93:Core/Src/i2c.c ****     __HAL_RCC_GPIOB_CLK_ENABLE();
  94:Core/Src/i2c.c ****     /**I2C1 GPIO Configuration
  95:Core/Src/i2c.c ****     PB6     ------> I2C1_SCL
  96:Core/Src/i2c.c ****     PB7     ------> I2C1_SDA
  97:Core/Src/i2c.c ****     */
  98:Core/Src/i2c.c ****     GPIO_InitStruct.Pin = GPIO_PIN_6|GPIO_PIN_7;
  99:Core/Src/i2c.c ****     GPIO_InitStruct.Mode = GPIO_MODE_AF_OD;
 100:Core/Src/i2c.c ****     GPIO_InitStruct.Pull = GPIO_NOPULL;
 101:Core/Src/i2c.c ****     GPIO_InitStruct.Speed = GPIO_SPEED_FREQ_LOW;
 102:Core/Src/i2c.c ****     GPIO_InitStruct.Alternate = GPIO_AF4_I2C1;
 103:Core/Src/i2c.c ****     HAL_GPIO_Init(GPIOB, &GPIO_InitStruct);
 104:Core/Src/i2c.c **** 
 105:Core/Src/i2c.c ****     /* I2C1 clock enable */
 106:Core/Src/i2c.c ****     __HAL_RCC_I2C1_CLK_ENABLE();
 107:Core/Src/i2c.c **** 
 108:Core/Src/i2c.c ****     /* I2C1 interrupt Init */
 109:Core/Src/i2c.c ****     HAL_NVIC_SetPriority(I2C1_EV_IRQn, 0, 0);
 110:Core/Src/i2c.c ****     HAL_NVIC_EnableIRQ(I2C1_EV_IRQn);
 111:Core/Src/i2c.c ****     HAL_NVIC_SetPriority(I2C1_ER_IRQn, 0, 0);
 112:Core/Src/i2c.c ****     HAL_NVIC_EnableIRQ(I2C1_ER_IRQn);
 113:Core/Src/i2c.c ****   /* USER CODE BEGIN I2C1_MspInit 1 */
ARM GAS  C:\Users\DELL\AppData\Local\Temp\ccDvWYNQ.s 			page 6


 114:Core/Src/i2c.c **** 
 115:Core/Src/i2c.c ****   /* USER CODE END I2C1_MspInit 1 */
 116:Core/Src/i2c.c ****   }
 117:Core/Src/i2c.c **** }
 173              		.loc 1 117 1 view .LVU43
 174 0024 4BB0     		add	sp, sp, #300
 175              	.LCFI3:
 176              		.cfi_remember_state
 177              		.cfi_def_cfa_offset 12
 178              		@ sp needed
 179 0026 30BD     		pop	{r4, r5, pc}
 180              	.LVL10:
 181              	.L15:
 182              	.LCFI4:
 183              		.cfi_restore_state
  86:Core/Src/i2c.c ****     PeriphClkInitStruct.I2c1ClockSelection = RCC_I2C1CLKSOURCE_PCLK1;
 184              		.loc 1 86 5 is_stmt 1 view .LVU44
  86:Core/Src/i2c.c ****     PeriphClkInitStruct.I2c1ClockSelection = RCC_I2C1CLKSOURCE_PCLK1;
 185              		.loc 1 86 46 is_stmt 0 view .LVU45
 186 0028 4FF40052 		mov	r2, #8192
 187 002c 0023     		movs	r3, #0
 188 002e CDE90223 		strd	r2, [sp, #8]
  87:Core/Src/i2c.c ****     if (HAL_RCCEx_PeriphCLKConfig(&PeriphClkInitStruct) != HAL_OK)
 189              		.loc 1 87 5 is_stmt 1 view .LVU46
  88:Core/Src/i2c.c ****     {
 190              		.loc 1 88 5 view .LVU47
  88:Core/Src/i2c.c ****     {
 191              		.loc 1 88 9 is_stmt 0 view .LVU48
 192 0032 02A8     		add	r0, sp, #8
 193 0034 FFF7FEFF 		bl	HAL_RCCEx_PeriphCLKConfig
 194              	.LVL11:
  88:Core/Src/i2c.c ****     {
 195              		.loc 1 88 8 discriminator 1 view .LVU49
 196 0038 0028     		cmp	r0, #0
 197 003a 36D1     		bne	.L16
 198              	.L13:
  93:Core/Src/i2c.c ****     /**I2C1 GPIO Configuration
 199              		.loc 1 93 5 is_stmt 1 view .LVU50
 200              	.LBB2:
  93:Core/Src/i2c.c ****     /**I2C1 GPIO Configuration
 201              		.loc 1 93 5 view .LVU51
  93:Core/Src/i2c.c ****     /**I2C1 GPIO Configuration
 202              		.loc 1 93 5 view .LVU52
 203 003c 1D4D     		ldr	r5, .L17+4
 204 003e D5F88C30 		ldr	r3, [r5, #140]
 205 0042 43F00203 		orr	r3, r3, #2
 206 0046 C5F88C30 		str	r3, [r5, #140]
  93:Core/Src/i2c.c ****     /**I2C1 GPIO Configuration
 207              		.loc 1 93 5 view .LVU53
 208 004a D5F88C30 		ldr	r3, [r5, #140]
 209 004e 03F00203 		and	r3, r3, #2
 210 0052 0093     		str	r3, [sp]
  93:Core/Src/i2c.c ****     /**I2C1 GPIO Configuration
 211              		.loc 1 93 5 view .LVU54
 212 0054 009B     		ldr	r3, [sp]
 213              	.LBE2:
  93:Core/Src/i2c.c ****     /**I2C1 GPIO Configuration
ARM GAS  C:\Users\DELL\AppData\Local\Temp\ccDvWYNQ.s 			page 7


 214              		.loc 1 93 5 view .LVU55
  98:Core/Src/i2c.c ****     GPIO_InitStruct.Mode = GPIO_MODE_AF_OD;
 215              		.loc 1 98 5 view .LVU56
  98:Core/Src/i2c.c ****     GPIO_InitStruct.Mode = GPIO_MODE_AF_OD;
 216              		.loc 1 98 25 is_stmt 0 view .LVU57
 217 0056 C023     		movs	r3, #192
 218 0058 4593     		str	r3, [sp, #276]
  99:Core/Src/i2c.c ****     GPIO_InitStruct.Pull = GPIO_NOPULL;
 219              		.loc 1 99 5 is_stmt 1 view .LVU58
  99:Core/Src/i2c.c ****     GPIO_InitStruct.Pull = GPIO_NOPULL;
 220              		.loc 1 99 26 is_stmt 0 view .LVU59
 221 005a 1223     		movs	r3, #18
 222 005c 4693     		str	r3, [sp, #280]
 100:Core/Src/i2c.c ****     GPIO_InitStruct.Speed = GPIO_SPEED_FREQ_LOW;
 223              		.loc 1 100 5 is_stmt 1 view .LVU60
 100:Core/Src/i2c.c ****     GPIO_InitStruct.Speed = GPIO_SPEED_FREQ_LOW;
 224              		.loc 1 100 26 is_stmt 0 view .LVU61
 225 005e 0024     		movs	r4, #0
 226              	.LVL12:
 100:Core/Src/i2c.c ****     GPIO_InitStruct.Speed = GPIO_SPEED_FREQ_LOW;
 227              		.loc 1 100 26 view .LVU62
 228 0060 4794     		str	r4, [sp, #284]
 101:Core/Src/i2c.c ****     GPIO_InitStruct.Alternate = GPIO_AF4_I2C1;
 229              		.loc 1 101 5 is_stmt 1 view .LVU63
 101:Core/Src/i2c.c ****     GPIO_InitStruct.Alternate = GPIO_AF4_I2C1;
 230              		.loc 1 101 27 is_stmt 0 view .LVU64
 231 0062 4894     		str	r4, [sp, #288]
 102:Core/Src/i2c.c ****     HAL_GPIO_Init(GPIOB, &GPIO_InitStruct);
 232              		.loc 1 102 5 is_stmt 1 view .LVU65
 102:Core/Src/i2c.c ****     HAL_GPIO_Init(GPIOB, &GPIO_InitStruct);
 233              		.loc 1 102 31 is_stmt 0 view .LVU66
 234 0064 0423     		movs	r3, #4
 235 0066 4993     		str	r3, [sp, #292]
 103:Core/Src/i2c.c **** 
 236              		.loc 1 103 5 is_stmt 1 view .LVU67
 237 0068 45A9     		add	r1, sp, #276
 238 006a 1348     		ldr	r0, .L17+8
 239 006c FFF7FEFF 		bl	HAL_GPIO_Init
 240              	.LVL13:
 106:Core/Src/i2c.c **** 
 241              		.loc 1 106 5 view .LVU68
 242              	.LBB3:
 106:Core/Src/i2c.c **** 
 243              		.loc 1 106 5 view .LVU69
 106:Core/Src/i2c.c **** 
 244              		.loc 1 106 5 view .LVU70
 245 0070 D5F89C30 		ldr	r3, [r5, #156]
 246 0074 43F40013 		orr	r3, r3, #2097152
 247 0078 C5F89C30 		str	r3, [r5, #156]
 106:Core/Src/i2c.c **** 
 248              		.loc 1 106 5 view .LVU71
 249 007c D5F89C30 		ldr	r3, [r5, #156]
 250 0080 03F40013 		and	r3, r3, #2097152
 251 0084 0193     		str	r3, [sp, #4]
 106:Core/Src/i2c.c **** 
 252              		.loc 1 106 5 view .LVU72
 253 0086 019B     		ldr	r3, [sp, #4]
ARM GAS  C:\Users\DELL\AppData\Local\Temp\ccDvWYNQ.s 			page 8


 254              	.LBE3:
 106:Core/Src/i2c.c **** 
 255              		.loc 1 106 5 view .LVU73
 109:Core/Src/i2c.c ****     HAL_NVIC_EnableIRQ(I2C1_EV_IRQn);
 256              		.loc 1 109 5 view .LVU74
 257 0088 2246     		mov	r2, r4
 258 008a 2146     		mov	r1, r4
 259 008c 3320     		movs	r0, #51
 260 008e FFF7FEFF 		bl	HAL_NVIC_SetPriority
 261              	.LVL14:
 110:Core/Src/i2c.c ****     HAL_NVIC_SetPriority(I2C1_ER_IRQn, 0, 0);
 262              		.loc 1 110 5 view .LVU75
 263 0092 3320     		movs	r0, #51
 264 0094 FFF7FEFF 		bl	HAL_NVIC_EnableIRQ
 265              	.LVL15:
 111:Core/Src/i2c.c ****     HAL_NVIC_EnableIRQ(I2C1_ER_IRQn);
 266              		.loc 1 111 5 view .LVU76
 267 0098 2246     		mov	r2, r4
 268 009a 2146     		mov	r1, r4
 269 009c 3420     		movs	r0, #52
 270 009e FFF7FEFF 		bl	HAL_NVIC_SetPriority
 271              	.LVL16:
 112:Core/Src/i2c.c ****   /* USER CODE BEGIN I2C1_MspInit 1 */
 272              		.loc 1 112 5 view .LVU77
 273 00a2 3420     		movs	r0, #52
 274 00a4 FFF7FEFF 		bl	HAL_NVIC_EnableIRQ
 275              	.LVL17:
 276              		.loc 1 117 1 is_stmt 0 view .LVU78
 277 00a8 BCE7     		b	.L11
 278              	.LVL18:
 279              	.L16:
  90:Core/Src/i2c.c ****     }
 280              		.loc 1 90 7 is_stmt 1 view .LVU79
 281 00aa FFF7FEFF 		bl	Error_Handler
 282              	.LVL19:
 283 00ae C5E7     		b	.L13
 284              	.L18:
 285              		.align	2
 286              	.L17:
 287 00b0 00540040 		.word	1073763328
 288 00b4 000C0244 		.word	1140984832
 289 00b8 00040242 		.word	1107428352
 290              		.cfi_endproc
 291              	.LFE298:
 293              		.section	.text.HAL_I2C_MspDeInit,"ax",%progbits
 294              		.align	1
 295              		.global	HAL_I2C_MspDeInit
 296              		.syntax unified
 297              		.thumb
 298              		.thumb_func
 300              	HAL_I2C_MspDeInit:
 301              	.LVL20:
 302              	.LFB299:
 118:Core/Src/i2c.c **** 
 119:Core/Src/i2c.c **** void HAL_I2C_MspDeInit(I2C_HandleTypeDef* i2cHandle)
 120:Core/Src/i2c.c **** {
 303              		.loc 1 120 1 view -0
ARM GAS  C:\Users\DELL\AppData\Local\Temp\ccDvWYNQ.s 			page 9


 304              		.cfi_startproc
 305              		@ args = 0, pretend = 0, frame = 0
 306              		@ frame_needed = 0, uses_anonymous_args = 0
 121:Core/Src/i2c.c **** 
 122:Core/Src/i2c.c ****   if(i2cHandle->Instance==I2C1)
 307              		.loc 1 122 3 view .LVU81
 308              		.loc 1 122 15 is_stmt 0 view .LVU82
 309 0000 0268     		ldr	r2, [r0]
 310              		.loc 1 122 5 view .LVU83
 311 0002 0E4B     		ldr	r3, .L26
 312 0004 9A42     		cmp	r2, r3
 313 0006 00D0     		beq	.L25
 314 0008 7047     		bx	lr
 315              	.L25:
 120:Core/Src/i2c.c **** 
 316              		.loc 1 120 1 view .LVU84
 317 000a 10B5     		push	{r4, lr}
 318              	.LCFI5:
 319              		.cfi_def_cfa_offset 8
 320              		.cfi_offset 4, -8
 321              		.cfi_offset 14, -4
 123:Core/Src/i2c.c ****   {
 124:Core/Src/i2c.c ****   /* USER CODE BEGIN I2C1_MspDeInit 0 */
 125:Core/Src/i2c.c **** 
 126:Core/Src/i2c.c ****   /* USER CODE END I2C1_MspDeInit 0 */
 127:Core/Src/i2c.c ****     /* Peripheral clock disable */
 128:Core/Src/i2c.c ****     __HAL_RCC_I2C1_CLK_DISABLE();
 322              		.loc 1 128 5 is_stmt 1 view .LVU85
 323 000c 0C4A     		ldr	r2, .L26+4
 324 000e D2F89C30 		ldr	r3, [r2, #156]
 325 0012 23F40013 		bic	r3, r3, #2097152
 326 0016 C2F89C30 		str	r3, [r2, #156]
 129:Core/Src/i2c.c **** 
 130:Core/Src/i2c.c ****     /**I2C1 GPIO Configuration
 131:Core/Src/i2c.c ****     PB6     ------> I2C1_SCL
 132:Core/Src/i2c.c ****     PB7     ------> I2C1_SDA
 133:Core/Src/i2c.c ****     */
 134:Core/Src/i2c.c ****     HAL_GPIO_DeInit(GPIOB, GPIO_PIN_6);
 327              		.loc 1 134 5 view .LVU86
 328 001a 0A4C     		ldr	r4, .L26+8
 329 001c 4021     		movs	r1, #64
 330 001e 2046     		mov	r0, r4
 331              	.LVL21:
 332              		.loc 1 134 5 is_stmt 0 view .LVU87
 333 0020 FFF7FEFF 		bl	HAL_GPIO_DeInit
 334              	.LVL22:
 135:Core/Src/i2c.c **** 
 136:Core/Src/i2c.c ****     HAL_GPIO_DeInit(GPIOB, GPIO_PIN_7);
 335              		.loc 1 136 5 is_stmt 1 view .LVU88
 336 0024 8021     		movs	r1, #128
 337 0026 2046     		mov	r0, r4
 338 0028 FFF7FEFF 		bl	HAL_GPIO_DeInit
 339              	.LVL23:
 137:Core/Src/i2c.c **** 
 138:Core/Src/i2c.c ****     /* I2C1 interrupt Deinit */
 139:Core/Src/i2c.c ****     HAL_NVIC_DisableIRQ(I2C1_EV_IRQn);
 340              		.loc 1 139 5 view .LVU89
ARM GAS  C:\Users\DELL\AppData\Local\Temp\ccDvWYNQ.s 			page 10


 341 002c 3320     		movs	r0, #51
 342 002e FFF7FEFF 		bl	HAL_NVIC_DisableIRQ
 343              	.LVL24:
 140:Core/Src/i2c.c ****     HAL_NVIC_DisableIRQ(I2C1_ER_IRQn);
 344              		.loc 1 140 5 view .LVU90
 345 0032 3420     		movs	r0, #52
 346 0034 FFF7FEFF 		bl	HAL_NVIC_DisableIRQ
 347              	.LVL25:
 141:Core/Src/i2c.c ****   /* USER CODE BEGIN I2C1_MspDeInit 1 */
 142:Core/Src/i2c.c **** 
 143:Core/Src/i2c.c ****   /* USER CODE END I2C1_MspDeInit 1 */
 144:Core/Src/i2c.c ****   }
 145:Core/Src/i2c.c **** }
 348              		.loc 1 145 1 is_stmt 0 view .LVU91
 349 0038 10BD     		pop	{r4, pc}
 350              	.L27:
 351 003a 00BF     		.align	2
 352              	.L26:
 353 003c 00540040 		.word	1073763328
 354 0040 000C0244 		.word	1140984832
 355 0044 00040242 		.word	1107428352
 356              		.cfi_endproc
 357              	.LFE299:
 359              		.global	hi2c1
 360              		.section	.bss.hi2c1,"aw",%nobits
 361              		.align	2
 364              	hi2c1:
 365 0000 00000000 		.space	84
 365      00000000 
 365      00000000 
 365      00000000 
 365      00000000 
 366              		.text
 367              	.Letext0:
 368              		.file 2 "D:\\stm32cubeclt\\STM32CubeCLT_1.21.0\\GNU-tools-for-STM32\\bin\\../lib/gcc/arm-none-eabi
 369              		.file 3 "Drivers/CMSIS/Device/ST/STM32H5xx/Include/stm32h563xx.h"
 370              		.file 4 "D:\\stm32cubeclt\\STM32CubeCLT_1.21.0\\GNU-tools-for-STM32\\bin\\../lib/gcc/arm-none-eabi
 371              		.file 5 "Drivers/STM32H5xx_HAL_Driver/Inc/stm32h5xx_hal_def.h"
 372              		.file 6 "Drivers/STM32H5xx_HAL_Driver/Inc/stm32h5xx_hal_rcc_ex.h"
 373              		.file 7 "Drivers/STM32H5xx_HAL_Driver/Inc/stm32h5xx_hal_gpio.h"
 374              		.file 8 "Drivers/STM32H5xx_HAL_Driver/Inc/stm32h5xx_hal_dma.h"
 375              		.file 9 "Drivers/STM32H5xx_HAL_Driver/Inc/stm32h5xx_hal_dma_ex.h"
 376              		.file 10 "Drivers/STM32H5xx_HAL_Driver/Inc/stm32h5xx_hal_i2c.h"
 377              		.file 11 "Drivers/STM32H5xx_HAL_Driver/Inc/stm32h5xx_ll_lptim.h"
 378              		.file 12 "Drivers/STM32H5xx_HAL_Driver/Inc/stm32h5xx_hal_cortex.h"
 379              		.file 13 "Drivers/STM32H5xx_HAL_Driver/Inc/stm32h5xx_hal_i2c_ex.h"
 380              		.file 14 "Core/Inc/i2c.h"
 381              		.file 15 "Core/Inc/main.h"
 382              		.file 16 "<built-in>"
ARM GAS  C:\Users\DELL\AppData\Local\Temp\ccDvWYNQ.s 			page 11

