ARM GAS  C:\Users\DELL\AppData\Local\Temp\ccJcHDQ9.s 			page 1


   1              		.cpu cortex-m33
   2              		.arch armv8-m.main
   3              		.fpu fpv5-sp-d16
   4              		.arch_extension dsp
   5              		.eabi_attribute 27, 1
   6              		.eabi_attribute 28, 1
   7              		.eabi_attribute 20, 1
   8              		.eabi_attribute 21, 1
   9              		.eabi_attribute 23, 3
  10              		.eabi_attribute 24, 1
  11              		.eabi_attribute 25, 1
  12              		.eabi_attribute 26, 1
  13              		.eabi_attribute 30, 1
  14              		.eabi_attribute 34, 1
  15              		.eabi_attribute 18, 4
  16              		.file	"lptim.c"
  17              		.text
  18              	.Ltext0:
  19              		.cfi_sections	.debug_frame
  20              		.file 1 "Core/Src/lptim.c"
  21              		.section	.text.MX_LPTIM1_Init,"ax",%progbits
  22              		.align	1
  23              		.global	MX_LPTIM1_Init
  24              		.syntax unified
  25              		.thumb
  26              		.thumb_func
  28              	MX_LPTIM1_Init:
  29              	.LFB297:
   1:Core/Src/lptim.c **** /* USER CODE BEGIN Header */
   2:Core/Src/lptim.c **** /**
   3:Core/Src/lptim.c ****   ******************************************************************************
   4:Core/Src/lptim.c ****   * @file    lptim.c
   5:Core/Src/lptim.c ****   * @brief   This file provides code for the configuration
   6:Core/Src/lptim.c ****   *          of the LPTIM instances.
   7:Core/Src/lptim.c ****   ******************************************************************************
   8:Core/Src/lptim.c ****   * @attention
   9:Core/Src/lptim.c ****   *
  10:Core/Src/lptim.c ****   * Copyright (c) 2026 STMicroelectronics.
  11:Core/Src/lptim.c ****   * All rights reserved.
  12:Core/Src/lptim.c ****   *
  13:Core/Src/lptim.c ****   * This software is licensed under terms that can be found in the LICENSE file
  14:Core/Src/lptim.c ****   * in the root directory of this software component.
  15:Core/Src/lptim.c ****   * If no LICENSE file comes with this software, it is provided AS-IS.
  16:Core/Src/lptim.c ****   *
  17:Core/Src/lptim.c ****   ******************************************************************************
  18:Core/Src/lptim.c ****   */
  19:Core/Src/lptim.c **** /* USER CODE END Header */
  20:Core/Src/lptim.c **** /* Includes ------------------------------------------------------------------*/
  21:Core/Src/lptim.c **** #include "lptim.h"
  22:Core/Src/lptim.c **** 
  23:Core/Src/lptim.c **** /* USER CODE BEGIN 0 */
  24:Core/Src/lptim.c **** 
  25:Core/Src/lptim.c **** /* USER CODE END 0 */
  26:Core/Src/lptim.c **** 
  27:Core/Src/lptim.c **** LPTIM_HandleTypeDef hlptim1;
  28:Core/Src/lptim.c **** 
  29:Core/Src/lptim.c **** /* LPTIM1 init function */
ARM GAS  C:\Users\DELL\AppData\Local\Temp\ccJcHDQ9.s 			page 2


  30:Core/Src/lptim.c **** void MX_LPTIM1_Init(void)
  31:Core/Src/lptim.c **** {
  30              		.loc 1 31 1 view -0
  31              		.cfi_startproc
  32              		@ args = 0, pretend = 0, frame = 0
  33              		@ frame_needed = 0, uses_anonymous_args = 0
  34 0000 08B5     		push	{r3, lr}
  35              	.LCFI0:
  36              		.cfi_def_cfa_offset 8
  37              		.cfi_offset 3, -8
  38              		.cfi_offset 14, -4
  32:Core/Src/lptim.c **** 
  33:Core/Src/lptim.c ****   /* USER CODE BEGIN LPTIM1_Init 0 */
  34:Core/Src/lptim.c **** 
  35:Core/Src/lptim.c ****   /* USER CODE END LPTIM1_Init 0 */
  36:Core/Src/lptim.c **** 
  37:Core/Src/lptim.c ****   /* USER CODE BEGIN LPTIM1_Init 1 */
  38:Core/Src/lptim.c **** 
  39:Core/Src/lptim.c ****   /* USER CODE END LPTIM1_Init 1 */
  40:Core/Src/lptim.c ****   hlptim1.Instance = LPTIM1;
  39              		.loc 1 40 3 view .LVU1
  40              		.loc 1 40 20 is_stmt 0 view .LVU2
  41 0002 0B48     		ldr	r0, .L5
  42 0004 4FF04423 		mov	r3, #1140868096
  43 0008 0360     		str	r3, [r0]
  41:Core/Src/lptim.c ****   hlptim1.Init.Clock.Source = LPTIM_CLOCKSOURCE_APBCLOCK_LPOSC;
  44              		.loc 1 41 3 is_stmt 1 view .LVU3
  45              		.loc 1 41 29 is_stmt 0 view .LVU4
  46 000a 0023     		movs	r3, #0
  47 000c 4360     		str	r3, [r0, #4]
  42:Core/Src/lptim.c ****   hlptim1.Init.Clock.Prescaler = LPTIM_PRESCALER_DIV1;
  48              		.loc 1 42 3 is_stmt 1 view .LVU5
  49              		.loc 1 42 32 is_stmt 0 view .LVU6
  50 000e 8360     		str	r3, [r0, #8]
  43:Core/Src/lptim.c ****   hlptim1.Init.Trigger.Source = LPTIM_TRIGSOURCE_SOFTWARE;
  51              		.loc 1 43 3 is_stmt 1 view .LVU7
  52              		.loc 1 43 31 is_stmt 0 view .LVU8
  53 0010 4FF6FF72 		movw	r2, #65535
  54 0014 4261     		str	r2, [r0, #20]
  44:Core/Src/lptim.c ****   hlptim1.Init.Period = 65535;
  55              		.loc 1 44 3 is_stmt 1 view .LVU9
  56              		.loc 1 44 23 is_stmt 0 view .LVU10
  57 0016 0262     		str	r2, [r0, #32]
  45:Core/Src/lptim.c ****   hlptim1.Init.UpdateMode = LPTIM_UPDATE_IMMEDIATE;
  58              		.loc 1 45 3 is_stmt 1 view .LVU11
  59              		.loc 1 45 27 is_stmt 0 view .LVU12
  60 0018 4362     		str	r3, [r0, #36]
  46:Core/Src/lptim.c ****   hlptim1.Init.CounterSource = LPTIM_COUNTERSOURCE_INTERNAL;
  61              		.loc 1 46 3 is_stmt 1 view .LVU13
  62              		.loc 1 46 30 is_stmt 0 view .LVU14
  63 001a 8362     		str	r3, [r0, #40]
  47:Core/Src/lptim.c ****   hlptim1.Init.Input1Source = LPTIM_INPUT1SOURCE_GPIO;
  64              		.loc 1 47 3 is_stmt 1 view .LVU15
  65              		.loc 1 47 29 is_stmt 0 view .LVU16
  66 001c C362     		str	r3, [r0, #44]
  48:Core/Src/lptim.c ****   hlptim1.Init.Input2Source = LPTIM_INPUT2SOURCE_GPIO;
  67              		.loc 1 48 3 is_stmt 1 view .LVU17
ARM GAS  C:\Users\DELL\AppData\Local\Temp\ccJcHDQ9.s 			page 3


  68              		.loc 1 48 29 is_stmt 0 view .LVU18
  69 001e 0363     		str	r3, [r0, #48]
  49:Core/Src/lptim.c ****   hlptim1.Init.RepetitionCounter = 0;
  70              		.loc 1 49 3 is_stmt 1 view .LVU19
  71              		.loc 1 49 34 is_stmt 0 view .LVU20
  72 0020 4363     		str	r3, [r0, #52]
  50:Core/Src/lptim.c ****   if (HAL_LPTIM_Init(&hlptim1) != HAL_OK)
  73              		.loc 1 50 3 is_stmt 1 view .LVU21
  74              		.loc 1 50 7 is_stmt 0 view .LVU22
  75 0022 FFF7FEFF 		bl	HAL_LPTIM_Init
  76              	.LVL0:
  77              		.loc 1 50 6 discriminator 1 view .LVU23
  78 0026 00B9     		cbnz	r0, .L4
  79              	.L1:
  51:Core/Src/lptim.c ****   {
  52:Core/Src/lptim.c ****     Error_Handler();
  53:Core/Src/lptim.c ****   }
  54:Core/Src/lptim.c ****   /* USER CODE BEGIN LPTIM1_Init 2 */
  55:Core/Src/lptim.c **** 
  56:Core/Src/lptim.c ****   /* USER CODE END LPTIM1_Init 2 */
  57:Core/Src/lptim.c **** 
  58:Core/Src/lptim.c **** }
  80              		.loc 1 58 1 view .LVU24
  81 0028 08BD     		pop	{r3, pc}
  82              	.L4:
  52:Core/Src/lptim.c ****   }
  83              		.loc 1 52 5 is_stmt 1 view .LVU25
  84 002a FFF7FEFF 		bl	Error_Handler
  85              	.LVL1:
  86              		.loc 1 58 1 is_stmt 0 view .LVU26
  87 002e FBE7     		b	.L1
  88              	.L6:
  89              		.align	2
  90              	.L5:
  91 0030 00000000 		.word	hlptim1
  92              		.cfi_endproc
  93              	.LFE297:
  95              		.section	.text.HAL_LPTIM_MspInit,"ax",%progbits
  96              		.align	1
  97              		.global	HAL_LPTIM_MspInit
  98              		.syntax unified
  99              		.thumb
 100              		.thumb_func
 102              	HAL_LPTIM_MspInit:
 103              	.LVL2:
 104              	.LFB298:
  59:Core/Src/lptim.c **** 
  60:Core/Src/lptim.c **** void HAL_LPTIM_MspInit(LPTIM_HandleTypeDef* lptimHandle)
  61:Core/Src/lptim.c **** {
 105              		.loc 1 61 1 is_stmt 1 view -0
 106              		.cfi_startproc
 107              		@ args = 0, pretend = 0, frame = 272
 108              		@ frame_needed = 0, uses_anonymous_args = 0
 109              		.loc 1 61 1 is_stmt 0 view .LVU28
 110 0000 10B5     		push	{r4, lr}
 111              	.LCFI1:
 112              		.cfi_def_cfa_offset 8
ARM GAS  C:\Users\DELL\AppData\Local\Temp\ccJcHDQ9.s 			page 4


 113              		.cfi_offset 4, -8
 114              		.cfi_offset 14, -4
 115 0002 C4B0     		sub	sp, sp, #272
 116              	.LCFI2:
 117              		.cfi_def_cfa_offset 280
 118 0004 0446     		mov	r4, r0
  62:Core/Src/lptim.c **** 
  63:Core/Src/lptim.c ****   RCC_PeriphCLKInitTypeDef PeriphClkInitStruct = {0};
 119              		.loc 1 63 3 is_stmt 1 view .LVU29
 120              		.loc 1 63 28 is_stmt 0 view .LVU30
 121 0006 4FF48472 		mov	r2, #264
 122 000a 0021     		movs	r1, #0
 123 000c 02A8     		add	r0, sp, #8
 124              	.LVL3:
 125              		.loc 1 63 28 view .LVU31
 126 000e FFF7FEFF 		bl	memset
 127              	.LVL4:
  64:Core/Src/lptim.c ****   if(lptimHandle->Instance==LPTIM1)
 128              		.loc 1 64 3 is_stmt 1 view .LVU32
 129              		.loc 1 64 17 is_stmt 0 view .LVU33
 130 0012 2368     		ldr	r3, [r4]
 131              		.loc 1 64 5 view .LVU34
 132 0014 B3F1442F 		cmp	r3, #1140868096
 133 0018 01D0     		beq	.L11
 134              	.L7:
  65:Core/Src/lptim.c ****   {
  66:Core/Src/lptim.c ****   /* USER CODE BEGIN LPTIM1_MspInit 0 */
  67:Core/Src/lptim.c **** 
  68:Core/Src/lptim.c ****   /* USER CODE END LPTIM1_MspInit 0 */
  69:Core/Src/lptim.c **** 
  70:Core/Src/lptim.c ****   /** Initializes the peripherals clock
  71:Core/Src/lptim.c ****   */
  72:Core/Src/lptim.c ****     PeriphClkInitStruct.PeriphClockSelection = RCC_PERIPHCLK_LPTIM1;
  73:Core/Src/lptim.c ****     PeriphClkInitStruct.Lptim1ClockSelection = RCC_LPTIM1CLKSOURCE_PCLK3;
  74:Core/Src/lptim.c ****     if (HAL_RCCEx_PeriphCLKConfig(&PeriphClkInitStruct) != HAL_OK)
  75:Core/Src/lptim.c ****     {
  76:Core/Src/lptim.c ****       Error_Handler();
  77:Core/Src/lptim.c ****     }
  78:Core/Src/lptim.c **** 
  79:Core/Src/lptim.c ****     /* LPTIM1 clock enable */
  80:Core/Src/lptim.c ****     __HAL_RCC_LPTIM1_CLK_ENABLE();
  81:Core/Src/lptim.c **** 
  82:Core/Src/lptim.c ****     /* LPTIM1 interrupt Init */
  83:Core/Src/lptim.c ****     HAL_NVIC_SetPriority(LPTIM1_IRQn, 0, 0);
  84:Core/Src/lptim.c ****     HAL_NVIC_EnableIRQ(LPTIM1_IRQn);
  85:Core/Src/lptim.c ****   /* USER CODE BEGIN LPTIM1_MspInit 1 */
  86:Core/Src/lptim.c **** 
  87:Core/Src/lptim.c ****   /* USER CODE END LPTIM1_MspInit 1 */
  88:Core/Src/lptim.c ****   }
  89:Core/Src/lptim.c **** }
 135              		.loc 1 89 1 view .LVU35
 136 001a 44B0     		add	sp, sp, #272
 137              	.LCFI3:
 138              		.cfi_remember_state
 139              		.cfi_def_cfa_offset 8
 140              		@ sp needed
 141 001c 10BD     		pop	{r4, pc}
ARM GAS  C:\Users\DELL\AppData\Local\Temp\ccJcHDQ9.s 			page 5


 142              	.LVL5:
 143              	.L11:
 144              	.LCFI4:
 145              		.cfi_restore_state
  72:Core/Src/lptim.c ****     PeriphClkInitStruct.Lptim1ClockSelection = RCC_LPTIM1CLKSOURCE_PCLK3;
 146              		.loc 1 72 5 is_stmt 1 view .LVU36
  72:Core/Src/lptim.c ****     PeriphClkInitStruct.Lptim1ClockSelection = RCC_LPTIM1CLKSOURCE_PCLK3;
 147              		.loc 1 72 46 is_stmt 0 view .LVU37
 148 001e 4FF40032 		mov	r2, #131072
 149 0022 0023     		movs	r3, #0
 150 0024 CDE90223 		strd	r2, [sp, #8]
  73:Core/Src/lptim.c ****     if (HAL_RCCEx_PeriphCLKConfig(&PeriphClkInitStruct) != HAL_OK)
 151              		.loc 1 73 5 is_stmt 1 view .LVU38
  74:Core/Src/lptim.c ****     {
 152              		.loc 1 74 5 view .LVU39
  74:Core/Src/lptim.c ****     {
 153              		.loc 1 74 9 is_stmt 0 view .LVU40
 154 0028 02A8     		add	r0, sp, #8
 155 002a FFF7FEFF 		bl	HAL_RCCEx_PeriphCLKConfig
 156              	.LVL6:
  74:Core/Src/lptim.c ****     {
 157              		.loc 1 74 8 discriminator 1 view .LVU41
 158 002e A8B9     		cbnz	r0, .L12
 159              	.L9:
  80:Core/Src/lptim.c **** 
 160              		.loc 1 80 5 is_stmt 1 view .LVU42
 161              	.LBB2:
  80:Core/Src/lptim.c **** 
 162              		.loc 1 80 5 view .LVU43
  80:Core/Src/lptim.c **** 
 163              		.loc 1 80 5 view .LVU44
 164 0030 0C4B     		ldr	r3, .L13
 165 0032 D3F8A820 		ldr	r2, [r3, #168]
 166 0036 42F40062 		orr	r2, r2, #2048
 167 003a C3F8A820 		str	r2, [r3, #168]
  80:Core/Src/lptim.c **** 
 168              		.loc 1 80 5 view .LVU45
 169 003e D3F8A830 		ldr	r3, [r3, #168]
 170 0042 03F40063 		and	r3, r3, #2048
 171 0046 0193     		str	r3, [sp, #4]
  80:Core/Src/lptim.c **** 
 172              		.loc 1 80 5 view .LVU46
 173 0048 019B     		ldr	r3, [sp, #4]
 174              	.LBE2:
  80:Core/Src/lptim.c **** 
 175              		.loc 1 80 5 view .LVU47
  83:Core/Src/lptim.c ****     HAL_NVIC_EnableIRQ(LPTIM1_IRQn);
 176              		.loc 1 83 5 view .LVU48
 177 004a 0022     		movs	r2, #0
 178 004c 1146     		mov	r1, r2
 179 004e 4020     		movs	r0, #64
 180 0050 FFF7FEFF 		bl	HAL_NVIC_SetPriority
 181              	.LVL7:
  84:Core/Src/lptim.c ****   /* USER CODE BEGIN LPTIM1_MspInit 1 */
 182              		.loc 1 84 5 view .LVU49
 183 0054 4020     		movs	r0, #64
 184 0056 FFF7FEFF 		bl	HAL_NVIC_EnableIRQ
ARM GAS  C:\Users\DELL\AppData\Local\Temp\ccJcHDQ9.s 			page 6


 185              	.LVL8:
 186              		.loc 1 89 1 is_stmt 0 view .LVU50
 187 005a DEE7     		b	.L7
 188              	.L12:
  76:Core/Src/lptim.c ****     }
 189              		.loc 1 76 7 is_stmt 1 view .LVU51
 190 005c FFF7FEFF 		bl	Error_Handler
 191              	.LVL9:
 192 0060 E6E7     		b	.L9
 193              	.L14:
 194 0062 00BF     		.align	2
 195              	.L13:
 196 0064 000C0244 		.word	1140984832
 197              		.cfi_endproc
 198              	.LFE298:
 200              		.section	.text.HAL_LPTIM_MspDeInit,"ax",%progbits
 201              		.align	1
 202              		.global	HAL_LPTIM_MspDeInit
 203              		.syntax unified
 204              		.thumb
 205              		.thumb_func
 207              	HAL_LPTIM_MspDeInit:
 208              	.LVL10:
 209              	.LFB299:
  90:Core/Src/lptim.c **** 
  91:Core/Src/lptim.c **** void HAL_LPTIM_MspDeInit(LPTIM_HandleTypeDef* lptimHandle)
  92:Core/Src/lptim.c **** {
 210              		.loc 1 92 1 view -0
 211              		.cfi_startproc
 212              		@ args = 0, pretend = 0, frame = 0
 213              		@ frame_needed = 0, uses_anonymous_args = 0
 214              		.loc 1 92 1 is_stmt 0 view .LVU53
 215 0000 08B5     		push	{r3, lr}
 216              	.LCFI5:
 217              		.cfi_def_cfa_offset 8
 218              		.cfi_offset 3, -8
 219              		.cfi_offset 14, -4
  93:Core/Src/lptim.c **** 
  94:Core/Src/lptim.c ****   if(lptimHandle->Instance==LPTIM1)
 220              		.loc 1 94 3 is_stmt 1 view .LVU54
 221              		.loc 1 94 17 is_stmt 0 view .LVU55
 222 0002 0368     		ldr	r3, [r0]
 223              		.loc 1 94 5 view .LVU56
 224 0004 B3F1442F 		cmp	r3, #1140868096
 225 0008 00D0     		beq	.L18
 226              	.LVL11:
 227              	.L15:
  95:Core/Src/lptim.c ****   {
  96:Core/Src/lptim.c ****   /* USER CODE BEGIN LPTIM1_MspDeInit 0 */
  97:Core/Src/lptim.c **** 
  98:Core/Src/lptim.c ****   /* USER CODE END LPTIM1_MspDeInit 0 */
  99:Core/Src/lptim.c ****     /* Peripheral clock disable */
 100:Core/Src/lptim.c ****     __HAL_RCC_LPTIM1_CLK_DISABLE();
 101:Core/Src/lptim.c **** 
 102:Core/Src/lptim.c ****     /* LPTIM1 interrupt Deinit */
 103:Core/Src/lptim.c ****     HAL_NVIC_DisableIRQ(LPTIM1_IRQn);
 104:Core/Src/lptim.c ****   /* USER CODE BEGIN LPTIM1_MspDeInit 1 */
ARM GAS  C:\Users\DELL\AppData\Local\Temp\ccJcHDQ9.s 			page 7


 105:Core/Src/lptim.c **** 
 106:Core/Src/lptim.c ****   /* USER CODE END LPTIM1_MspDeInit 1 */
 107:Core/Src/lptim.c ****   }
 108:Core/Src/lptim.c **** }
 228              		.loc 1 108 1 view .LVU57
 229 000a 08BD     		pop	{r3, pc}
 230              	.LVL12:
 231              	.L18:
 100:Core/Src/lptim.c **** 
 232              		.loc 1 100 5 is_stmt 1 view .LVU58
 233 000c 054A     		ldr	r2, .L19
 234 000e D2F8A830 		ldr	r3, [r2, #168]
 235 0012 23F40063 		bic	r3, r3, #2048
 236 0016 C2F8A830 		str	r3, [r2, #168]
 103:Core/Src/lptim.c ****   /* USER CODE BEGIN LPTIM1_MspDeInit 1 */
 237              		.loc 1 103 5 view .LVU59
 238 001a 4020     		movs	r0, #64
 239              	.LVL13:
 103:Core/Src/lptim.c ****   /* USER CODE BEGIN LPTIM1_MspDeInit 1 */
 240              		.loc 1 103 5 is_stmt 0 view .LVU60
 241 001c FFF7FEFF 		bl	HAL_NVIC_DisableIRQ
 242              	.LVL14:
 243              		.loc 1 108 1 view .LVU61
 244 0020 F3E7     		b	.L15
 245              	.L20:
 246 0022 00BF     		.align	2
 247              	.L19:
 248 0024 000C0244 		.word	1140984832
 249              		.cfi_endproc
 250              	.LFE299:
 252              		.global	hlptim1
 253              		.section	.bss.hlptim1,"aw",%nobits
 254              		.align	2
 257              	hlptim1:
 258 0000 00000000 		.space	80
 258      00000000 
 258      00000000 
 258      00000000 
 258      00000000 
 259              		.text
 260              	.Letext0:
 261              		.file 2 "D:\\stm32cubeclt\\STM32CubeCLT_1.21.0\\GNU-tools-for-STM32\\bin\\../lib/gcc/arm-none-eabi
 262              		.file 3 "Drivers/CMSIS/Device/ST/STM32H5xx/Include/stm32h563xx.h"
 263              		.file 4 "D:\\stm32cubeclt\\STM32CubeCLT_1.21.0\\GNU-tools-for-STM32\\bin\\../lib/gcc/arm-none-eabi
 264              		.file 5 "Drivers/STM32H5xx_HAL_Driver/Inc/stm32h5xx_hal_def.h"
 265              		.file 6 "Drivers/STM32H5xx_HAL_Driver/Inc/stm32h5xx_hal_rcc_ex.h"
 266              		.file 7 "Drivers/STM32H5xx_HAL_Driver/Inc/stm32h5xx_hal_dma.h"
 267              		.file 8 "Drivers/STM32H5xx_HAL_Driver/Inc/stm32h5xx_hal_dma_ex.h"
 268              		.file 9 "Drivers/STM32H5xx_HAL_Driver/Inc/stm32h5xx_ll_lptim.h"
 269              		.file 10 "Drivers/STM32H5xx_HAL_Driver/Inc/stm32h5xx_hal_lptim.h"
 270              		.file 11 "Drivers/STM32H5xx_HAL_Driver/Inc/stm32h5xx_hal_cortex.h"
 271              		.file 12 "Core/Inc/lptim.h"
 272              		.file 13 "Core/Inc/main.h"
 273              		.file 14 "<built-in>"
ARM GAS  C:\Users\DELL\AppData\Local\Temp\ccJcHDQ9.s 			page 8

