ARM GAS  C:\Users\DELL\AppData\Local\Temp\cc9E5QQS.s 			page 1


   1              		.cpu cortex-m33
   2              		.arch armv8-m.main
   3              		.fpu fpv5-sp-d16
   4              		.arch_extension dsp
   5              		.eabi_attribute 27, 1
   6              		.eabi_attribute 28, 1
   7              		.eabi_attribute 20, 1
   8              		.eabi_attribute 21, 1
   9              		.eabi_attribute 23, 3
  10              		.eabi_attribute 24, 1
  11              		.eabi_attribute 25, 1
  12              		.eabi_attribute 26, 1
  13              		.eabi_attribute 30, 1
  14              		.eabi_attribute 34, 1
  15              		.eabi_attribute 18, 4
  16              		.file	"modem.c"
  17              		.text
  18              	.Ltext0:
  19              		.cfi_sections	.debug_frame
  20              		.file 1 "SynaptiX_FDK/components/modules/modem/modem.c"
  21              		.section	.rodata.modem_init.str1.4,"aMS",%progbits,1
  22              		.align	2
  23              	.LC0:
  24 0000 496E6974 		.ascii	"Initializing\000"
  24      69616C69 
  24      7A696E67 
  24      00
  25 000d 000000   		.align	2
  26              	.LC1:
  27 0010 4D4F4445 		.ascii	"MODEM\000"
  27      4D00
  28              		.section	.text.modem_init,"ax",%progbits
  29              		.align	1
  30              		.global	modem_init
  31              		.syntax unified
  32              		.thumb
  33              		.thumb_func
  35              	modem_init:
  36              	.LVL0:
  37              	.LFB9:
   1:SynaptiX_FDK/components/modules/modem/modem.c **** #include "modem.h"
   2:SynaptiX_FDK/components/modules/modem/modem.c **** #include "logger.h"
   3:SynaptiX_FDK/components/modules/modem/modem.c **** #include "sx_delay.h"
   4:SynaptiX_FDK/components/modules/modem/modem.c **** 
   5:SynaptiX_FDK/components/modules/modem/modem.c **** static const char *TAG = "MODEM";
   6:SynaptiX_FDK/components/modules/modem/modem.c **** 
   7:SynaptiX_FDK/components/modules/modem/modem.c **** void modem_init(modem_t *modem){
  38              		.loc 1 7 32 view -0
  39              		.cfi_startproc
  40              		@ args = 0, pretend = 0, frame = 0
  41              		@ frame_needed = 0, uses_anonymous_args = 0
  42              		.loc 1 7 32 is_stmt 0 view .LVU1
  43 0000 08B5     		push	{r3, lr}
  44              	.LCFI0:
  45              		.cfi_def_cfa_offset 8
  46              		.cfi_offset 3, -8
  47              		.cfi_offset 14, -4
ARM GAS  C:\Users\DELL\AppData\Local\Temp\cc9E5QQS.s 			page 2


   8:SynaptiX_FDK/components/modules/modem/modem.c ****     modem->isBusy = 0;
  48              		.loc 1 8 5 is_stmt 1 view .LVU2
  49              		.loc 1 8 19 is_stmt 0 view .LVU3
  50 0002 0023     		movs	r3, #0
  51 0004 80F86132 		strb	r3, [r0, #609]
   9:SynaptiX_FDK/components/modules/modem/modem.c ****     modem->isReady = 0;
  52              		.loc 1 9 5 is_stmt 1 view .LVU4
  53              		.loc 1 9 20 is_stmt 0 view .LVU5
  54 0008 80F86232 		strb	r3, [r0, #610]
  10:SynaptiX_FDK/components/modules/modem/modem.c ****     modem->resID = 0;
  55              		.loc 1 10 5 is_stmt 1 view .LVU6
  56              		.loc 1 10 18 is_stmt 0 view .LVU7
  57 000c C0F86C32 		str	r3, [r0, #620]
  11:SynaptiX_FDK/components/modules/modem/modem.c ****     modem->cmd = NULL;
  58              		.loc 1 11 5 is_stmt 1 view .LVU8
  59              		.loc 1 11 16 is_stmt 0 view .LVU9
  60 0010 C0F87032 		str	r3, [r0, #624]
  12:SynaptiX_FDK/components/modules/modem/modem.c ****     modem->waitElapsed = 0;
  61              		.loc 1 12 5 is_stmt 1 view .LVU10
  62              		.loc 1 12 24 is_stmt 0 view .LVU11
  63 0014 C0F86832 		str	r3, [r0, #616]
  13:SynaptiX_FDK/components/modules/modem/modem.c ****     /* hasPowerPin defaults to 0 (no VBAT cutoff transistor). Board init code
  14:SynaptiX_FDK/components/modules/modem/modem.c ****      * (sx_board.c) must explicitly set this to 1 only for boards that wire
  15:SynaptiX_FDK/components/modules/modem/modem.c ****      * the transistor for this modem. Never assume, never leave to chance. */
  16:SynaptiX_FDK/components/modules/modem/modem.c ****     modem->hasPowerPin = 0;
  64              		.loc 1 16 5 is_stmt 1 view .LVU12
  65              		.loc 1 16 24 is_stmt 0 view .LVU13
  66 0018 80F86032 		strb	r3, [r0, #608]
  17:SynaptiX_FDK/components/modules/modem/modem.c ****     log_debug(TAG,"Initializing");
  67              		.loc 1 17 5 is_stmt 1 view .LVU14
  68 001c 024A     		ldr	r2, .L3
  69 001e 0349     		ldr	r1, .L3+4
  70 0020 0420     		movs	r0, #4
  71              	.LVL1:
  72              		.loc 1 17 5 is_stmt 0 view .LVU15
  73 0022 FFF7FEFF 		bl	log_func
  74              	.LVL2:
  18:SynaptiX_FDK/components/modules/modem/modem.c **** 
  19:SynaptiX_FDK/components/modules/modem/modem.c **** }
  75              		.loc 1 19 1 view .LVU16
  76 0026 08BD     		pop	{r3, pc}
  77              	.L4:
  78              		.align	2
  79              	.L3:
  80 0028 00000000 		.word	.LC0
  81 002c 10000000 		.word	.LC1
  82              		.cfi_endproc
  83              	.LFE9:
  85              		.section	.rodata.modem_send_command.str1.4,"aMS",%progbits,1
  86              		.align	2
  87              	.LC2:
  88 0000 53656E64 		.ascii	"Send command %s\000"
  88      20636F6D 
  88      6D616E64 
  88      20257300 
  89              		.section	.text.modem_send_command,"ax",%progbits
  90              		.align	1
ARM GAS  C:\Users\DELL\AppData\Local\Temp\cc9E5QQS.s 			page 3


  91              		.global	modem_send_command
  92              		.syntax unified
  93              		.thumb
  94              		.thumb_func
  96              	modem_send_command:
  97              	.LVL3:
  98              	.LFB10:
  20:SynaptiX_FDK/components/modules/modem/modem.c **** 
  21:SynaptiX_FDK/components/modules/modem/modem.c **** int modem_send_command(modem_t *modem, modem_command_t *cmd, uint32_t timeout){
  99              		.loc 1 21 79 is_stmt 1 view -0
 100              		.cfi_startproc
 101              		@ args = 0, pretend = 0, frame = 0
 102              		@ frame_needed = 0, uses_anonymous_args = 0
 103              		.loc 1 21 79 is_stmt 0 view .LVU18
 104 0000 F8B5     		push	{r3, r4, r5, r6, r7, lr}
 105              	.LCFI1:
 106              		.cfi_def_cfa_offset 24
 107              		.cfi_offset 3, -24
 108              		.cfi_offset 4, -20
 109              		.cfi_offset 5, -16
 110              		.cfi_offset 6, -12
 111              		.cfi_offset 7, -8
 112              		.cfi_offset 14, -4
  22:SynaptiX_FDK/components/modules/modem/modem.c ****     if(modem->isBusy) return -1;
 113              		.loc 1 22 5 is_stmt 1 view .LVU19
 114              		.loc 1 22 13 is_stmt 0 view .LVU20
 115 0002 90F86132 		ldrb	r3, [r0, #609]	@ zero_extendqisi2
 116              		.loc 1 22 7 view .LVU21
 117 0006 23BB     		cbnz	r3, .L7
 118 0008 0446     		mov	r4, r0
 119 000a 0D46     		mov	r5, r1
 120 000c 1746     		mov	r7, r2
  23:SynaptiX_FDK/components/modules/modem/modem.c ****     log_debug(TAG,"Send command %s",cmd->cmd);
 121              		.loc 1 23 5 is_stmt 1 view .LVU22
 122 000e 0B68     		ldr	r3, [r1]
 123 0010 114A     		ldr	r2, .L9
 124              	.LVL4:
 125              		.loc 1 23 5 is_stmt 0 view .LVU23
 126 0012 1249     		ldr	r1, .L9+4
 127              	.LVL5:
 128              		.loc 1 23 5 view .LVU24
 129 0014 0420     		movs	r0, #4
 130              	.LVL6:
 131              		.loc 1 23 5 view .LVU25
 132 0016 FFF7FEFF 		bl	log_func
 133              	.LVL7:
  24:SynaptiX_FDK/components/modules/modem/modem.c ****     modem->cmd = cmd;
 134              		.loc 1 24 5 is_stmt 1 view .LVU26
 135              		.loc 1 24 16 is_stmt 0 view .LVU27
 136 001a C4F87052 		str	r5, [r4, #624]
  25:SynaptiX_FDK/components/modules/modem/modem.c ****     modem->resID = 0;
 137              		.loc 1 25 5 is_stmt 1 view .LVU28
 138              		.loc 1 25 18 is_stmt 0 view .LVU29
 139 001e 0026     		movs	r6, #0
 140 0020 C4F86C62 		str	r6, [r4, #620]
  26:SynaptiX_FDK/components/modules/modem/modem.c ****     modem->isBusy = 1;
 141              		.loc 1 26 5 is_stmt 1 view .LVU30
ARM GAS  C:\Users\DELL\AppData\Local\Temp\cc9E5QQS.s 			page 4


 142              		.loc 1 26 19 is_stmt 0 view .LVU31
 143 0024 0123     		movs	r3, #1
 144 0026 84F86132 		strb	r3, [r4, #609]
  27:SynaptiX_FDK/components/modules/modem/modem.c ****     modem->timeOut = timeout;
 145              		.loc 1 27 5 is_stmt 1 view .LVU32
 146              		.loc 1 27 20 is_stmt 0 view .LVU33
 147 002a C4F86472 		str	r7, [r4, #612]
  28:SynaptiX_FDK/components/modules/modem/modem.c ****     modem->buff_id = 0;
 148              		.loc 1 28 5 is_stmt 1 view .LVU34
 149              		.loc 1 28 20 is_stmt 0 view .LVU35
 150 002e C4F80062 		str	r6, [r4, #512]
  29:SynaptiX_FDK/components/modules/modem/modem.c ****     sx_uart_flush(&modem->uart);
 151              		.loc 1 29 5 is_stmt 1 view .LVU36
 152 0032 04F50174 		add	r4, r4, #516
 153              	.LVL8:
 154              		.loc 1 29 5 is_stmt 0 view .LVU37
 155 0036 2046     		mov	r0, r4
 156 0038 FFF7FEFF 		bl	sx_uart_flush
 157              	.LVL9:
  30:SynaptiX_FDK/components/modules/modem/modem.c ****     sx_uart_write(&modem->uart, (const uint8_t *)cmd->cmd, strlen(cmd->cmd));
 158              		.loc 1 30 5 is_stmt 1 view .LVU38
 159              		.loc 1 30 53 is_stmt 0 view .LVU39
 160 003c 2D68     		ldr	r5, [r5]
 161              	.LVL10:
 162              		.loc 1 30 60 view .LVU40
 163 003e 2846     		mov	r0, r5
 164 0040 FFF7FEFF 		bl	strlen
 165              	.LVL11:
 166 0044 0246     		mov	r2, r0
 167              		.loc 1 30 5 discriminator 1 view .LVU41
 168 0046 2946     		mov	r1, r5
 169 0048 2046     		mov	r0, r4
 170 004a FFF7FEFF 		bl	sx_uart_write
 171              	.LVL12:
  31:SynaptiX_FDK/components/modules/modem/modem.c ****     return 0;
 172              		.loc 1 31 5 is_stmt 1 view .LVU42
 173              		.loc 1 31 12 is_stmt 0 view .LVU43
 174 004e 3046     		mov	r0, r6
 175              	.LVL13:
 176              	.L5:
  32:SynaptiX_FDK/components/modules/modem/modem.c **** }
 177              		.loc 1 32 1 view .LVU44
 178 0050 F8BD     		pop	{r3, r4, r5, r6, r7, pc}
 179              	.LVL14:
 180              	.L7:
  22:SynaptiX_FDK/components/modules/modem/modem.c ****     log_debug(TAG,"Send command %s",cmd->cmd);
 181              		.loc 1 22 30 discriminator 1 view .LVU45
 182 0052 4FF0FF30 		mov	r0, #-1
 183              	.LVL15:
  22:SynaptiX_FDK/components/modules/modem/modem.c ****     log_debug(TAG,"Send command %s",cmd->cmd);
 184              		.loc 1 22 30 discriminator 1 view .LVU46
 185 0056 FBE7     		b	.L5
 186              	.L10:
 187              		.align	2
 188              	.L9:
 189 0058 00000000 		.word	.LC2
 190 005c 10000000 		.word	.LC1
ARM GAS  C:\Users\DELL\AppData\Local\Temp\cc9E5QQS.s 			page 5


 191              		.cfi_endproc
 192              	.LFE10:
 194              		.section	.rodata.modem_poll.str1.4,"aMS",%progbits,1
 195              		.align	2
 196              	.LC3:
 197 0000 4E554C4C 		.ascii	"NULL\000"
 197      00
 198 0005 000000   		.align	2
 199              	.LC4:
 200 0008 52656164 		.ascii	"Read : %d bytes\000"
 200      203A2025 
 200      64206279 
 200      74657300 
 201              		.align	2
 202              	.LC5:
 203 0018 44617461 		.ascii	"Data : %s\000"
 203      203A2025 
 203      7300
 204 0022 0000     		.align	2
 205              	.LC6:
 206 0024 436F6D6D 		.ascii	"Command success: [%s]\000"
 206      616E6420 
 206      73756363 
 206      6573733A 
 206      205B2573 
 207 003a 0000     		.align	2
 208              	.LC7:
 209 003c 436F6D6D 		.ascii	"Command fail: [%s]\000"
 209      616E6420 
 209      6661696C 
 209      3A205B25 
 209      735D00
 210 004f 00       		.align	2
 211              	.LC8:
 212 0050 54494D45 		.ascii	"TIMEOUT response: [%s]\000"
 212      4F555420 
 212      72657370 
 212      6F6E7365 
 212      3A205B25 
 213              		.section	.text.modem_poll,"ax",%progbits
 214              		.align	1
 215              		.global	modem_poll
 216              		.syntax unified
 217              		.thumb
 218              		.thumb_func
 220              	modem_poll:
 221              	.LVL16:
 222              	.LFB11:
  33:SynaptiX_FDK/components/modules/modem/modem.c **** 
  34:SynaptiX_FDK/components/modules/modem/modem.c **** void modem_poll(modem_t *modem, uint32_t timeStamp){
 223              		.loc 1 34 52 is_stmt 1 view -0
 224              		.cfi_startproc
 225              		@ args = 0, pretend = 0, frame = 0
 226              		@ frame_needed = 0, uses_anonymous_args = 0
 227              		.loc 1 34 52 is_stmt 0 view .LVU48
 228 0000 F8B5     		push	{r3, r4, r5, r6, r7, lr}
 229              	.LCFI2:
ARM GAS  C:\Users\DELL\AppData\Local\Temp\cc9E5QQS.s 			page 6


 230              		.cfi_def_cfa_offset 24
 231              		.cfi_offset 3, -24
 232              		.cfi_offset 4, -20
 233              		.cfi_offset 5, -16
 234              		.cfi_offset 6, -12
 235              		.cfi_offset 7, -8
 236              		.cfi_offset 14, -4
  35:SynaptiX_FDK/components/modules/modem/modem.c ****     /* waitElapsed lives in the modem_t instance itself (see modem.h), instead
  36:SynaptiX_FDK/components/modules/modem/modem.c ****      * of a static local variable, so that multiple modem instances (e.g.
  37:SynaptiX_FDK/components/modules/modem/modem.c ****      * more than one UART-attached modem on the same board in the future)
  38:SynaptiX_FDK/components/modules/modem/modem.c ****      * each track their own command timeout independently. A static local
  39:SynaptiX_FDK/components/modules/modem/modem.c ****      * here would silently share state across every modem_t, corrupting
  40:SynaptiX_FDK/components/modules/modem/modem.c ****      * timeout tracking as soon as a second instance exists. */
  41:SynaptiX_FDK/components/modules/modem/modem.c ****     if (!modem->isBusy) return;
 237              		.loc 1 41 5 is_stmt 1 view .LVU49
 238              		.loc 1 41 15 is_stmt 0 view .LVU50
 239 0002 90F86132 		ldrb	r3, [r0, #609]	@ zero_extendqisi2
 240              		.loc 1 41 8 view .LVU51
 241 0006 03B9     		cbnz	r3, .L20
 242              	.LVL17:
 243              	.L11:
  42:SynaptiX_FDK/components/modules/modem/modem.c **** 
  43:SynaptiX_FDK/components/modules/modem/modem.c ****     int available = sx_uart_available(&modem->uart);
  44:SynaptiX_FDK/components/modules/modem/modem.c ****     
  45:SynaptiX_FDK/components/modules/modem/modem.c ****     if(available > 0 && (modem->buff_id + available) < MODEM_RX_BUFFER_SIZE){
  46:SynaptiX_FDK/components/modules/modem/modem.c ****         
  47:SynaptiX_FDK/components/modules/modem/modem.c ****         int read = sx_uart_read(&modem->uart, (uint8_t *)modem->buff + modem->buff_id, available, 1
  48:SynaptiX_FDK/components/modules/modem/modem.c ****         if(read > 0){
  49:SynaptiX_FDK/components/modules/modem/modem.c ****             log_debug(TAG, "Read : %d bytes", read);
  50:SynaptiX_FDK/components/modules/modem/modem.c ****             log_debug(TAG,"Data : %s",modem->buff+modem->buff_id);
  51:SynaptiX_FDK/components/modules/modem/modem.c ****             log_print_hex(LOGGER_DEBUG,TAG,modem->buff+modem->buff_id,read);
  52:SynaptiX_FDK/components/modules/modem/modem.c ****             modem->buff_id += read;
  53:SynaptiX_FDK/components/modules/modem/modem.c ****             modem->waitElapsed = 0;
  54:SynaptiX_FDK/components/modules/modem/modem.c **** 
  55:SynaptiX_FDK/components/modules/modem/modem.c ****             if(modem->cmd->res_success && strstr(modem->buff, modem->cmd->res_success)){
  56:SynaptiX_FDK/components/modules/modem/modem.c ****                 modem->isBusy = 0;
  57:SynaptiX_FDK/components/modules/modem/modem.c ****                 modem->waitElapsed = 0;
  58:SynaptiX_FDK/components/modules/modem/modem.c ****                 log_debug(TAG, "Command success: [%s]", modem->buff);
  59:SynaptiX_FDK/components/modules/modem/modem.c ****                 if(modem->cmd->callback)
  60:SynaptiX_FDK/components/modules/modem/modem.c ****                     modem->cmd->callback(modem, modem->buff, MODEM_RESPONSE_SUCCESS, modem->cmd->ar
  61:SynaptiX_FDK/components/modules/modem/modem.c ****                 return;
  62:SynaptiX_FDK/components/modules/modem/modem.c ****             }
  63:SynaptiX_FDK/components/modules/modem/modem.c ****             else if(modem->cmd->res_fail && strstr(modem->buff, modem->cmd->res_fail)){
  64:SynaptiX_FDK/components/modules/modem/modem.c ****                 modem->isBusy = 0;
  65:SynaptiX_FDK/components/modules/modem/modem.c ****                 modem->waitElapsed = 0;
  66:SynaptiX_FDK/components/modules/modem/modem.c ****                 log_debug(TAG, "Command fail: [%s]", modem->buff);
  67:SynaptiX_FDK/components/modules/modem/modem.c ****                 if(modem->cmd->callback)
  68:SynaptiX_FDK/components/modules/modem/modem.c ****                     modem->cmd->callback(modem, modem->buff, MODEM_RESPONSE_FAIL, modem->cmd->arg);
  69:SynaptiX_FDK/components/modules/modem/modem.c ****                 return;
  70:SynaptiX_FDK/components/modules/modem/modem.c ****             }
  71:SynaptiX_FDK/components/modules/modem/modem.c ****         }
  72:SynaptiX_FDK/components/modules/modem/modem.c ****     }
  73:SynaptiX_FDK/components/modules/modem/modem.c **** 
  74:SynaptiX_FDK/components/modules/modem/modem.c ****     modem->waitElapsed += timeStamp;
  75:SynaptiX_FDK/components/modules/modem/modem.c ****     if(modem->waitElapsed >= modem->timeOut){
  76:SynaptiX_FDK/components/modules/modem/modem.c ****         modem->isBusy = 0;
  77:SynaptiX_FDK/components/modules/modem/modem.c ****         modem->waitElapsed = 0;
ARM GAS  C:\Users\DELL\AppData\Local\Temp\cc9E5QQS.s 			page 7


  78:SynaptiX_FDK/components/modules/modem/modem.c ****         log_error(TAG, "TIMEOUT response: [%s]", (modem->buff_id > 0) ? modem->buff : "NULL");
  79:SynaptiX_FDK/components/modules/modem/modem.c ****         if(modem->cmd->callback)
  80:SynaptiX_FDK/components/modules/modem/modem.c ****             modem->cmd->callback(modem, NULL, MODEM_RESPONSE_TIMEOUT, modem->cmd->arg);
  81:SynaptiX_FDK/components/modules/modem/modem.c ****     }
  82:SynaptiX_FDK/components/modules/modem/modem.c **** }...
 244              		.loc 1 82 1 view .LVU52
 245 0008 F8BD     		pop	{r3, r4, r5, r6, r7, pc}
 246              	.LVL18:
 247              	.L20:
 248              		.loc 1 82 1 view .LVU53
 249 000a 0446     		mov	r4, r0
 250 000c 0D46     		mov	r5, r1
  43:SynaptiX_FDK/components/modules/modem/modem.c ****     int available = sx_uart_available(&modem->uart);
 251              		.loc 1 43 5 is_stmt 1 view .LVU54
  43:SynaptiX_FDK/components/modules/modem/modem.c ****     int available = sx_uart_available(&modem->uart);
 252              		.loc 1 43 21 is_stmt 0 view .LVU55
 253 000e 00F50176 		add	r6, r0, #516
 254 0012 3046     		mov	r0, r6
 255              	.LVL19:
  43:SynaptiX_FDK/components/modules/modem/modem.c ****     int available = sx_uart_available(&modem->uart);
 256              		.loc 1 43 21 view .LVU56
 257 0014 FFF7FEFF 		bl	sx_uart_available
 258              	.LVL20:
  45:SynaptiX_FDK/components/modules/modem/modem.c ****     if(available > 0 && (modem->buff_id + available) < MODEM_RX_BUFFER_SIZE){
 259              		.loc 1 45 5 is_stmt 1 view .LVU57
  45:SynaptiX_FDK/components/modules/modem/modem.c ****     if(available > 0 && (modem->buff_id + available) < MODEM_RX_BUFFER_SIZE){
 260              		.loc 1 45 7 is_stmt 0 view .LVU58
 261 0018 021E     		subs	r2, r0, #0
 262 001a 05DD     		ble	.L13
  45:SynaptiX_FDK/components/modules/modem/modem.c ****     if(available > 0 && (modem->buff_id + available) < MODEM_RX_BUFFER_SIZE){
 263              		.loc 1 45 31 discriminator 1 view .LVU59
 264 001c D4F80012 		ldr	r1, [r4, #512]
  45:SynaptiX_FDK/components/modules/modem/modem.c ****     if(available > 0 && (modem->buff_id + available) < MODEM_RX_BUFFER_SIZE){
 265              		.loc 1 45 41 discriminator 1 view .LVU60
 266 0020 5318     		adds	r3, r2, r1
  45:SynaptiX_FDK/components/modules/modem/modem.c ****     if(available > 0 && (modem->buff_id + available) < MODEM_RX_BUFFER_SIZE){
 267              		.loc 1 45 22 discriminator 1 view .LVU61
 268 0022 B3F5007F 		cmp	r3, #512
 269 0026 22D3     		bcc	.L21
 270              	.LVL21:
 271              	.L13:
  74:SynaptiX_FDK/components/modules/modem/modem.c ****     modem->waitElapsed += timeStamp;
 272              		.loc 1 74 5 is_stmt 1 view .LVU62
  74:SynaptiX_FDK/components/modules/modem/modem.c ****     modem->waitElapsed += timeStamp;
 273              		.loc 1 74 10 is_stmt 0 view .LVU63
 274 0028 D4F86832 		ldr	r3, [r4, #616]
  74:SynaptiX_FDK/components/modules/modem/modem.c ****     modem->waitElapsed += timeStamp;
 275              		.loc 1 74 24 view .LVU64
 276 002c 2B44     		add	r3, r3, r5
 277 002e C4F86832 		str	r3, [r4, #616]
  75:SynaptiX_FDK/components/modules/modem/modem.c ****     if(modem->waitElapsed >= modem->timeOut){
 278              		.loc 1 75 5 is_stmt 1 view .LVU65
  75:SynaptiX_FDK/components/modules/modem/modem.c ****     if(modem->waitElapsed >= modem->timeOut){
 279              		.loc 1 75 35 is_stmt 0 view .LVU66
 280 0032 D4F86422 		ldr	r2, [r4, #612]
  75:SynaptiX_FDK/components/modules/modem/modem.c ****     if(modem->waitElapsed >= modem->timeOut){
 281              		.loc 1 75 7 view .LVU67
ARM GAS  C:\Users\DELL\AppData\Local\Temp\cc9E5QQS.s 			page 8


 282 0036 9342     		cmp	r3, r2
 283 0038 E6D3     		bcc	.L11
  76:SynaptiX_FDK/components/modules/modem/modem.c ****         modem->isBusy = 0;
 284              		.loc 1 76 9 is_stmt 1 view .LVU68
  76:SynaptiX_FDK/components/modules/modem/modem.c ****         modem->isBusy = 0;
 285              		.loc 1 76 23 is_stmt 0 view .LVU69
 286 003a 0023     		movs	r3, #0
 287 003c 84F86132 		strb	r3, [r4, #609]
  77:SynaptiX_FDK/components/modules/modem/modem.c ****         modem->waitElapsed = 0;
 288              		.loc 1 77 9 is_stmt 1 view .LVU70
  77:SynaptiX_FDK/components/modules/modem/modem.c ****         modem->waitElapsed = 0;
 289              		.loc 1 77 28 is_stmt 0 view .LVU71
 290 0040 C4F86832 		str	r3, [r4, #616]
  78:SynaptiX_FDK/components/modules/modem/modem.c ****         log_error(TAG, "TIMEOUT response: [%s]", (modem->buff_id > 0) ? modem->buff : "NULL");
 291              		.loc 1 78 9 is_stmt 1 view .LVU72
 292 0044 D4F80032 		ldr	r3, [r4, #512]
 293 0048 002B     		cmp	r3, #0
 294 004a 6FD0     		beq	.L18
  78:SynaptiX_FDK/components/modules/modem/modem.c ****         log_error(TAG, "TIMEOUT response: [%s]", (modem->buff_id > 0) ? modem->buff : "NULL");
 295              		.loc 1 78 9 is_stmt 0 discriminator 1 view .LVU73
 296 004c 2346     		mov	r3, r4
 297              	.L17:
  78:SynaptiX_FDK/components/modules/modem/modem.c ****         log_error(TAG, "TIMEOUT response: [%s]", (modem->buff_id > 0) ? modem->buff : "NULL");
 298              		.loc 1 78 9 discriminator 4 view .LVU74
 299 004e 384A     		ldr	r2, .L23
 300 0050 3849     		ldr	r1, .L23+4
 301 0052 0120     		movs	r0, #1
 302 0054 FFF7FEFF 		bl	log_func
 303              	.LVL22:
  79:SynaptiX_FDK/components/modules/modem/modem.c ****         if(modem->cmd->callback)
 304              		.loc 1 79 9 is_stmt 1 view .LVU75
  79:SynaptiX_FDK/components/modules/modem/modem.c ****         if(modem->cmd->callback)
 305              		.loc 1 79 17 is_stmt 0 view .LVU76
 306 0058 D4F87032 		ldr	r3, [r4, #624]
  79:SynaptiX_FDK/components/modules/modem/modem.c ****         if(modem->cmd->callback)
 307              		.loc 1 79 22 view .LVU77
 308 005c DD68     		ldr	r5, [r3, #12]
 309              	.LVL23:
  79:SynaptiX_FDK/components/modules/modem/modem.c ****         if(modem->cmd->callback)
 310              		.loc 1 79 11 view .LVU78
 311 005e 002D     		cmp	r5, #0
 312 0060 D2D0     		beq	.L11
  80:SynaptiX_FDK/components/modules/modem/modem.c ****             modem->cmd->callback(modem, NULL, MODEM_RESPONSE_TIMEOUT, modem->cmd->arg);
 313              		.loc 1 80 13 is_stmt 1 view .LVU79
 314 0062 1B69     		ldr	r3, [r3, #16]
 315 0064 0222     		movs	r2, #2
 316 0066 0021     		movs	r1, #0
 317 0068 2046     		mov	r0, r4
 318 006a A847     		blx	r5
 319              	.LVL24:
 320 006c CCE7     		b	.L11
 321              	.LVL25:
 322              	.L21:
 323              	.LBB2:
  47:SynaptiX_FDK/components/modules/modem/modem.c ****         int read = sx_uart_read(&modem->uart, (uint8_t *)modem->buff + modem->buff_id, available, 1
 324              		.loc 1 47 9 view .LVU80
  47:SynaptiX_FDK/components/modules/modem/modem.c ****         int read = sx_uart_read(&modem->uart, (uint8_t *)modem->buff + modem->buff_id, available, 1
ARM GAS  C:\Users\DELL\AppData\Local\Temp\cc9E5QQS.s 			page 9


 325              		.loc 1 47 20 is_stmt 0 view .LVU81
 326 006e 0A23     		movs	r3, #10
 327 0070 2144     		add	r1, r1, r4
 328 0072 3046     		mov	r0, r6
 329              	.LVL26:
  47:SynaptiX_FDK/components/modules/modem/modem.c ****         int read = sx_uart_read(&modem->uart, (uint8_t *)modem->buff + modem->buff_id, available, 1
 330              		.loc 1 47 20 view .LVU82
 331 0074 FFF7FEFF 		bl	sx_uart_read
 332              	.LVL27:
  48:SynaptiX_FDK/components/modules/modem/modem.c ****         if(read > 0){
 333              		.loc 1 48 9 is_stmt 1 view .LVU83
  48:SynaptiX_FDK/components/modules/modem/modem.c ****         if(read > 0){
 334              		.loc 1 48 11 is_stmt 0 view .LVU84
 335 0078 061E     		subs	r6, r0, #0
 336 007a D5DD     		ble	.L13
  49:SynaptiX_FDK/components/modules/modem/modem.c ****             log_debug(TAG, "Read : %d bytes", read);
 337              		.loc 1 49 13 is_stmt 1 view .LVU85
 338 007c 2D4F     		ldr	r7, .L23+4
 339 007e 3346     		mov	r3, r6
 340 0080 2D4A     		ldr	r2, .L23+8
 341 0082 3946     		mov	r1, r7
 342 0084 0420     		movs	r0, #4
 343              	.LVL28:
  49:SynaptiX_FDK/components/modules/modem/modem.c ****             log_debug(TAG, "Read : %d bytes", read);
 344              		.loc 1 49 13 is_stmt 0 view .LVU86
 345 0086 FFF7FEFF 		bl	log_func
 346              	.LVL29:
  50:SynaptiX_FDK/components/modules/modem/modem.c ****             log_debug(TAG,"Data : %s",modem->buff+modem->buff_id);
 347              		.loc 1 50 13 is_stmt 1 view .LVU87
 348 008a D4F80032 		ldr	r3, [r4, #512]
 349 008e 2344     		add	r3, r3, r4
 350 0090 2A4A     		ldr	r2, .L23+12
 351 0092 3946     		mov	r1, r7
 352 0094 0420     		movs	r0, #4
 353 0096 FFF7FEFF 		bl	log_func
 354              	.LVL30:
  51:SynaptiX_FDK/components/modules/modem/modem.c ****             log_print_hex(LOGGER_DEBUG,TAG,modem->buff+modem->buff_id,read);
 355              		.loc 1 51 13 view .LVU88
  51:SynaptiX_FDK/components/modules/modem/modem.c ****             log_print_hex(LOGGER_DEBUG,TAG,modem->buff+modem->buff_id,read);
 356              		.loc 1 51 61 is_stmt 0 view .LVU89
 357 009a D4F80022 		ldr	r2, [r4, #512]
  51:SynaptiX_FDK/components/modules/modem/modem.c ****             log_print_hex(LOGGER_DEBUG,TAG,modem->buff+modem->buff_id,read);
 358              		.loc 1 51 13 view .LVU90
 359 009e B3B2     		uxth	r3, r6
 360 00a0 2244     		add	r2, r2, r4
 361 00a2 3946     		mov	r1, r7
 362 00a4 0420     		movs	r0, #4
 363 00a6 FFF7FEFF 		bl	log_print_hex
 364              	.LVL31:
  52:SynaptiX_FDK/components/modules/modem/modem.c ****             modem->buff_id += read;
 365              		.loc 1 52 13 is_stmt 1 view .LVU91
  52:SynaptiX_FDK/components/modules/modem/modem.c ****             modem->buff_id += read;
 366              		.loc 1 52 18 is_stmt 0 view .LVU92
 367 00aa D4F80032 		ldr	r3, [r4, #512]
  52:SynaptiX_FDK/components/modules/modem/modem.c ****             modem->buff_id += read;
 368              		.loc 1 52 28 view .LVU93
 369 00ae 3344     		add	r3, r3, r6
ARM GAS  C:\Users\DELL\AppData\Local\Temp\cc9E5QQS.s 			page 10


 370 00b0 C4F80032 		str	r3, [r4, #512]
  53:SynaptiX_FDK/components/modules/modem/modem.c ****             modem->waitElapsed = 0;
 371              		.loc 1 53 13 is_stmt 1 view .LVU94
  53:SynaptiX_FDK/components/modules/modem/modem.c ****             modem->waitElapsed = 0;
 372              		.loc 1 53 32 is_stmt 0 view .LVU95
 373 00b4 0023     		movs	r3, #0
 374 00b6 C4F86832 		str	r3, [r4, #616]
  55:SynaptiX_FDK/components/modules/modem/modem.c ****             if(modem->cmd->res_success && strstr(modem->buff, modem->cmd->res_success)){
 375              		.loc 1 55 13 is_stmt 1 view .LVU96
  55:SynaptiX_FDK/components/modules/modem/modem.c ****             if(modem->cmd->res_success && strstr(modem->buff, modem->cmd->res_success)){
 376              		.loc 1 55 21 is_stmt 0 view .LVU97
 377 00ba D4F87062 		ldr	r6, [r4, #624]
 378              	.LVL32:
  55:SynaptiX_FDK/components/modules/modem/modem.c ****             if(modem->cmd->res_success && strstr(modem->buff, modem->cmd->res_success)){
 379              		.loc 1 55 26 view .LVU98
 380 00be 7168     		ldr	r1, [r6, #4]
  55:SynaptiX_FDK/components/modules/modem/modem.c ****             if(modem->cmd->res_success && strstr(modem->buff, modem->cmd->res_success)){
 381              		.loc 1 55 15 view .LVU99
 382 00c0 19B1     		cbz	r1, .L14
  55:SynaptiX_FDK/components/modules/modem/modem.c ****             if(modem->cmd->res_success && strstr(modem->buff, modem->cmd->res_success)){
 383              		.loc 1 55 43 discriminator 1 view .LVU100
 384 00c2 2046     		mov	r0, r4
 385 00c4 FFF7FEFF 		bl	strstr
 386              	.LVL33:
  55:SynaptiX_FDK/components/modules/modem/modem.c ****             if(modem->cmd->res_success && strstr(modem->buff, modem->cmd->res_success)){
 387              		.loc 1 55 40 discriminator 1 view .LVU101
 388 00c8 D8B9     		cbnz	r0, .L22
 389              	.L14:
  63:SynaptiX_FDK/components/modules/modem/modem.c ****             else if(modem->cmd->res_fail && strstr(modem->buff, modem->cmd->res_fail)){
 390              		.loc 1 63 18 is_stmt 1 view .LVU102
  63:SynaptiX_FDK/components/modules/modem/modem.c ****             else if(modem->cmd->res_fail && strstr(modem->buff, modem->cmd->res_fail)){
 391              		.loc 1 63 31 is_stmt 0 view .LVU103
 392 00ca B168     		ldr	r1, [r6, #8]
  63:SynaptiX_FDK/components/modules/modem/modem.c ****             else if(modem->cmd->res_fail && strstr(modem->buff, modem->cmd->res_fail)){
 393              		.loc 1 63 20 view .LVU104
 394 00cc 0029     		cmp	r1, #0
 395 00ce ABD0     		beq	.L13
  63:SynaptiX_FDK/components/modules/modem/modem.c ****             else if(modem->cmd->res_fail && strstr(modem->buff, modem->cmd->res_fail)){
 396              		.loc 1 63 45 discriminator 1 view .LVU105
 397 00d0 2046     		mov	r0, r4
 398 00d2 FFF7FEFF 		bl	strstr
 399              	.LVL34:
  63:SynaptiX_FDK/components/modules/modem/modem.c ****             else if(modem->cmd->res_fail && strstr(modem->buff, modem->cmd->res_fail)){
 400              		.loc 1 63 42 discriminator 1 view .LVU106
 401 00d6 0028     		cmp	r0, #0
 402 00d8 A6D0     		beq	.L13
  64:SynaptiX_FDK/components/modules/modem/modem.c ****                 modem->isBusy = 0;
 403              		.loc 1 64 17 is_stmt 1 view .LVU107
  64:SynaptiX_FDK/components/modules/modem/modem.c ****                 modem->isBusy = 0;
 404              		.loc 1 64 31 is_stmt 0 view .LVU108
 405 00da 0023     		movs	r3, #0
 406 00dc 84F86132 		strb	r3, [r4, #609]
  65:SynaptiX_FDK/components/modules/modem/modem.c ****                 modem->waitElapsed = 0;
 407              		.loc 1 65 17 is_stmt 1 view .LVU109
  66:SynaptiX_FDK/components/modules/modem/modem.c ****                 log_debug(TAG, "Command fail: [%s]", modem->buff);
 408              		.loc 1 66 17 view .LVU110
 409 00e0 2346     		mov	r3, r4
ARM GAS  C:\Users\DELL\AppData\Local\Temp\cc9E5QQS.s 			page 11


 410 00e2 174A     		ldr	r2, .L23+16
 411 00e4 1349     		ldr	r1, .L23+4
 412 00e6 0420     		movs	r0, #4
 413 00e8 FFF7FEFF 		bl	log_func
 414              	.LVL35:
  67:SynaptiX_FDK/components/modules/modem/modem.c ****                 if(modem->cmd->callback)
 415              		.loc 1 67 17 view .LVU111
  67:SynaptiX_FDK/components/modules/modem/modem.c ****                 if(modem->cmd->callback)
 416              		.loc 1 67 25 is_stmt 0 view .LVU112
 417 00ec D4F87032 		ldr	r3, [r4, #624]
  67:SynaptiX_FDK/components/modules/modem/modem.c ****                 if(modem->cmd->callback)
 418              		.loc 1 67 30 view .LVU113
 419 00f0 DD68     		ldr	r5, [r3, #12]
 420              	.LVL36:
  67:SynaptiX_FDK/components/modules/modem/modem.c ****                 if(modem->cmd->callback)
 421              		.loc 1 67 19 view .LVU114
 422 00f2 002D     		cmp	r5, #0
 423 00f4 88D0     		beq	.L11
  68:SynaptiX_FDK/components/modules/modem/modem.c ****                     modem->cmd->callback(modem, modem->buff, MODEM_RESPONSE_FAIL, modem->cmd->arg);
 424              		.loc 1 68 21 is_stmt 1 view .LVU115
 425 00f6 1B69     		ldr	r3, [r3, #16]
 426 00f8 0122     		movs	r2, #1
 427 00fa 2146     		mov	r1, r4
 428 00fc 2046     		mov	r0, r4
 429 00fe A847     		blx	r5
 430              	.LVL37:
  69:SynaptiX_FDK/components/modules/modem/modem.c ****                 return;
 431              		.loc 1 69 17 view .LVU116
 432 0100 82E7     		b	.L11
 433              	.LVL38:
 434              	.L22:
  56:SynaptiX_FDK/components/modules/modem/modem.c ****                 modem->isBusy = 0;
 435              		.loc 1 56 17 view .LVU117
  56:SynaptiX_FDK/components/modules/modem/modem.c ****                 modem->isBusy = 0;
 436              		.loc 1 56 31 is_stmt 0 view .LVU118
 437 0102 0023     		movs	r3, #0
 438 0104 84F86132 		strb	r3, [r4, #609]
  57:SynaptiX_FDK/components/modules/modem/modem.c ****                 modem->waitElapsed = 0;
 439              		.loc 1 57 17 is_stmt 1 view .LVU119
  58:SynaptiX_FDK/components/modules/modem/modem.c ****                 log_debug(TAG, "Command success: [%s]", modem->buff);
 440              		.loc 1 58 17 view .LVU120
 441 0108 2346     		mov	r3, r4
 442 010a 0E4A     		ldr	r2, .L23+20
 443 010c 3946     		mov	r1, r7
 444 010e 0420     		movs	r0, #4
 445 0110 FFF7FEFF 		bl	log_func
 446              	.LVL39:
  59:SynaptiX_FDK/components/modules/modem/modem.c ****                 if(modem->cmd->callback)
 447              		.loc 1 59 17 view .LVU121
  59:SynaptiX_FDK/components/modules/modem/modem.c ****                 if(modem->cmd->callback)
 448              		.loc 1 59 25 is_stmt 0 view .LVU122
 449 0114 D4F87032 		ldr	r3, [r4, #624]
  59:SynaptiX_FDK/components/modules/modem/modem.c ****                 if(modem->cmd->callback)
 450              		.loc 1 59 30 view .LVU123
 451 0118 DD68     		ldr	r5, [r3, #12]
 452              	.LVL40:
  59:SynaptiX_FDK/components/modules/modem/modem.c ****                 if(modem->cmd->callback)
ARM GAS  C:\Users\DELL\AppData\Local\Temp\cc9E5QQS.s 			page 12


 453              		.loc 1 59 19 view .LVU124
 454 011a 002D     		cmp	r5, #0
 455 011c 3FF474AF 		beq	.L11
  60:SynaptiX_FDK/components/modules/modem/modem.c ****                     modem->cmd->callback(modem, modem->buff, MODEM_RESPONSE_SUCCESS, modem->cmd->ar
 456              		.loc 1 60 21 is_stmt 1 view .LVU125
 457 0120 1B69     		ldr	r3, [r3, #16]
 458 0122 0022     		movs	r2, #0
 459 0124 2146     		mov	r1, r4
 460 0126 2046     		mov	r0, r4
 461 0128 A847     		blx	r5
 462              	.LVL41:
  61:SynaptiX_FDK/components/modules/modem/modem.c ****                 return;
 463              		.loc 1 61 17 view .LVU126
 464 012a 6DE7     		b	.L11
 465              	.LVL42:
 466              	.L18:
  61:SynaptiX_FDK/components/modules/modem/modem.c ****                 return;
 467              		.loc 1 61 17 is_stmt 0 view .LVU127
 468              	.LBE2:
  78:SynaptiX_FDK/components/modules/modem/modem.c ****         log_error(TAG, "TIMEOUT response: [%s]", (modem->buff_id > 0) ? modem->buff : "NULL");
 469              		.loc 1 78 9 discriminator 2 view .LVU128
 470 012c 064B     		ldr	r3, .L23+24
 471 012e 8EE7     		b	.L17
 472              	.L24:
 473              		.align	2
 474              	.L23:
 475 0130 50000000 		.word	.LC8
 476 0134 10000000 		.word	.LC1
 477 0138 08000000 		.word	.LC4
 478 013c 18000000 		.word	.LC5
 479 0140 3C000000 		.word	.LC7
 480 0144 24000000 		.word	.LC6
 481 0148 00000000 		.word	.LC3
 482              		.cfi_endproc
 483              	.LFE11:
 485              		.text
 486              	.Letext0:
 487              		.file 2 "D:\\stm32cubeclt\\STM32CubeCLT_1.21.0\\GNU-tools-for-STM32\\bin\\../lib/gcc/arm-none-eabi
 488              		.file 3 "D:\\stm32cubeclt\\STM32CubeCLT_1.21.0\\GNU-tools-for-STM32\\bin\\../lib/gcc/arm-none-eabi
 489              		.file 4 "D:\\stm32cubeclt\\STM32CubeCLT_1.21.0\\GNU-tools-for-STM32\\bin\\../lib/gcc/arm-none-eabi
 490              		.file 5 "SynaptiX_FDK/utils/cqueue/cqueue.h"
 491              		.file 6 "SynaptiX_FDK/components/peripherals/uart/sx_uart.h"
 492              		.file 7 "SynaptiX_FDK/components/peripherals/gpio/sx_gpio.h"
 493              		.file 8 "SynaptiX_FDK/components/modules/modem/modem.h"
 494              		.file 9 "SynaptiX_FDK/services/logger/logger.h"
 495              		.file 10 "D:\\stm32cubeclt\\STM32CubeCLT_1.21.0\\GNU-tools-for-STM32\\bin\\../lib/gcc/arm-none-eab
ARM GAS  C:\Users\DELL\AppData\Local\Temp\cc9E5QQS.s 			page 13

