ARM GAS  C:\Users\DELL\AppData\Local\Temp\cc6DfR6G.s 			page 1


   1              		.cpu cortex-m33
   2              		.arch armv8-m.main
   3              		.fpu fpv5-sp-d16
   4              		.arch_extension dsp
   5              		.eabi_attribute 27, 1
   6              		.eabi_attribute 28, 1
   7              		.eabi_attribute 20, 1
   8              		.eabi_attribute 21, 1
   9              		.eabi_attribute 23, 3
  10              		.eabi_attribute 24, 1
  11              		.eabi_attribute 25, 1
  12              		.eabi_attribute 26, 1
  13              		.eabi_attribute 30, 1
  14              		.eabi_attribute 34, 1
  15              		.eabi_attribute 18, 4
  16              		.file	"msc_device.c"
  17              		.text
  18              	.Ltext0:
  19              		.cfi_sections	.debug_frame
  20              		.file 1 "SynaptiX_FDK/lib/tinyusb/src/class/msc/msc_device.c"
  21              		.section	.text.proc_bot_reset,"ax",%progbits
  22              		.align	1
  23              		.syntax unified
  24              		.thumb
  25              		.thumb_func
  27              	proc_bot_reset:
  28              	.LVL0:
  29              	.LFB455:
   1:SynaptiX_FDK/lib/tinyusb/src/class/msc/msc_device.c **** /*
   2:SynaptiX_FDK/lib/tinyusb/src/class/msc/msc_device.c ****  * The MIT License (MIT)
   3:SynaptiX_FDK/lib/tinyusb/src/class/msc/msc_device.c ****  *
   4:SynaptiX_FDK/lib/tinyusb/src/class/msc/msc_device.c ****  * Copyright (c) 2019 Ha Thach (tinyusb.org)
   5:SynaptiX_FDK/lib/tinyusb/src/class/msc/msc_device.c ****  *
   6:SynaptiX_FDK/lib/tinyusb/src/class/msc/msc_device.c ****  * Permission is hereby granted, free of charge, to any person obtaining a copy
   7:SynaptiX_FDK/lib/tinyusb/src/class/msc/msc_device.c ****  * of this software and associated documentation files (the "Software"), to deal
   8:SynaptiX_FDK/lib/tinyusb/src/class/msc/msc_device.c ****  * in the Software without restriction, including without limitation the rights
   9:SynaptiX_FDK/lib/tinyusb/src/class/msc/msc_device.c ****  * to use, copy, modify, merge, publish, distribute, sublicense, and/or sell
  10:SynaptiX_FDK/lib/tinyusb/src/class/msc/msc_device.c ****  * copies of the Software, and to permit persons to whom the Software is
  11:SynaptiX_FDK/lib/tinyusb/src/class/msc/msc_device.c ****  * furnished to do so, subject to the following conditions:
  12:SynaptiX_FDK/lib/tinyusb/src/class/msc/msc_device.c ****  *
  13:SynaptiX_FDK/lib/tinyusb/src/class/msc/msc_device.c ****  * The above copyright notice and this permission notice shall be included in
  14:SynaptiX_FDK/lib/tinyusb/src/class/msc/msc_device.c ****  * all copies or substantial portions of the Software.
  15:SynaptiX_FDK/lib/tinyusb/src/class/msc/msc_device.c ****  *
  16:SynaptiX_FDK/lib/tinyusb/src/class/msc/msc_device.c ****  * THE SOFTWARE IS PROVIDED "AS IS", WITHOUT WARRANTY OF ANY KIND, EXPRESS OR
  17:SynaptiX_FDK/lib/tinyusb/src/class/msc/msc_device.c ****  * IMPLIED, INCLUDING BUT NOT LIMITED TO THE WARRANTIES OF MERCHANTABILITY,
  18:SynaptiX_FDK/lib/tinyusb/src/class/msc/msc_device.c ****  * FITNESS FOR A PARTICULAR PURPOSE AND NONINFRINGEMENT. IN NO EVENT SHALL THE
  19:SynaptiX_FDK/lib/tinyusb/src/class/msc/msc_device.c ****  * AUTHORS OR COPYRIGHT HOLDERS BE LIABLE FOR ANY CLAIM, DAMAGES OR OTHER
  20:SynaptiX_FDK/lib/tinyusb/src/class/msc/msc_device.c ****  * LIABILITY, WHETHER IN AN ACTION OF CONTRACT, TORT OR OTHERWISE, ARISING FROM,
  21:SynaptiX_FDK/lib/tinyusb/src/class/msc/msc_device.c ****  * OUT OF OR IN CONNECTION WITH THE SOFTWARE OR THE USE OR OTHER DEALINGS IN
  22:SynaptiX_FDK/lib/tinyusb/src/class/msc/msc_device.c ****  * THE SOFTWARE.
  23:SynaptiX_FDK/lib/tinyusb/src/class/msc/msc_device.c ****  *
  24:SynaptiX_FDK/lib/tinyusb/src/class/msc/msc_device.c ****  * This file is part of the TinyUSB stack.
  25:SynaptiX_FDK/lib/tinyusb/src/class/msc/msc_device.c ****  */
  26:SynaptiX_FDK/lib/tinyusb/src/class/msc/msc_device.c **** 
  27:SynaptiX_FDK/lib/tinyusb/src/class/msc/msc_device.c **** #include "tusb_option.h"
  28:SynaptiX_FDK/lib/tinyusb/src/class/msc/msc_device.c **** 
  29:SynaptiX_FDK/lib/tinyusb/src/class/msc/msc_device.c **** #if (CFG_TUD_ENABLED && CFG_TUD_MSC)
ARM GAS  C:\Users\DELL\AppData\Local\Temp\cc6DfR6G.s 			page 2


  30:SynaptiX_FDK/lib/tinyusb/src/class/msc/msc_device.c **** 
  31:SynaptiX_FDK/lib/tinyusb/src/class/msc/msc_device.c **** #include "device/dcd.h"         // for faking dcd_event_xfer_complete
  32:SynaptiX_FDK/lib/tinyusb/src/class/msc/msc_device.c **** #include "device/usbd.h"
  33:SynaptiX_FDK/lib/tinyusb/src/class/msc/msc_device.c **** #include "device/usbd_pvt.h"
  34:SynaptiX_FDK/lib/tinyusb/src/class/msc/msc_device.c **** 
  35:SynaptiX_FDK/lib/tinyusb/src/class/msc/msc_device.c **** #include "msc_device.h"
  36:SynaptiX_FDK/lib/tinyusb/src/class/msc/msc_device.c **** 
  37:SynaptiX_FDK/lib/tinyusb/src/class/msc/msc_device.c **** // Level where CFG_TUSB_DEBUG must be at least for this driver is logged
  38:SynaptiX_FDK/lib/tinyusb/src/class/msc/msc_device.c **** #ifndef CFG_TUD_MSC_LOG_LEVEL
  39:SynaptiX_FDK/lib/tinyusb/src/class/msc/msc_device.c ****   #define CFG_TUD_MSC_LOG_LEVEL   CFG_TUD_LOG_LEVEL
  40:SynaptiX_FDK/lib/tinyusb/src/class/msc/msc_device.c **** #endif
  41:SynaptiX_FDK/lib/tinyusb/src/class/msc/msc_device.c **** 
  42:SynaptiX_FDK/lib/tinyusb/src/class/msc/msc_device.c **** #define TU_LOG_DRV(...)   TU_LOG(CFG_TUD_MSC_LOG_LEVEL, __VA_ARGS__)
  43:SynaptiX_FDK/lib/tinyusb/src/class/msc/msc_device.c **** 
  44:SynaptiX_FDK/lib/tinyusb/src/class/msc/msc_device.c **** //--------------------------------------------------------------------+
  45:SynaptiX_FDK/lib/tinyusb/src/class/msc/msc_device.c **** // Weak stubs: invoked if no strong implementation is available
  46:SynaptiX_FDK/lib/tinyusb/src/class/msc/msc_device.c **** //--------------------------------------------------------------------+
  47:SynaptiX_FDK/lib/tinyusb/src/class/msc/msc_device.c **** TU_ATTR_WEAK void tud_msc_inquiry_cb(uint8_t lun, uint8_t vendor_id[8], uint8_t product_id[16], uin
  48:SynaptiX_FDK/lib/tinyusb/src/class/msc/msc_device.c ****   (void) lun; (void) vendor_id; (void) product_id; (void) product_rev;
  49:SynaptiX_FDK/lib/tinyusb/src/class/msc/msc_device.c **** }
  50:SynaptiX_FDK/lib/tinyusb/src/class/msc/msc_device.c **** TU_ATTR_WEAK uint32_t tud_msc_inquiry2_cb(uint8_t lun, scsi_inquiry_resp_t *inquiry_resp, uint32_t 
  51:SynaptiX_FDK/lib/tinyusb/src/class/msc/msc_device.c ****   (void) lun; (void) inquiry_resp; (void) bufsize;
  52:SynaptiX_FDK/lib/tinyusb/src/class/msc/msc_device.c ****   return 0;
  53:SynaptiX_FDK/lib/tinyusb/src/class/msc/msc_device.c **** }
  54:SynaptiX_FDK/lib/tinyusb/src/class/msc/msc_device.c **** 
  55:SynaptiX_FDK/lib/tinyusb/src/class/msc/msc_device.c **** //--------------------------------------------------------------------+
  56:SynaptiX_FDK/lib/tinyusb/src/class/msc/msc_device.c **** // MACRO CONSTANT TYPEDEF
  57:SynaptiX_FDK/lib/tinyusb/src/class/msc/msc_device.c **** //--------------------------------------------------------------------+
  58:SynaptiX_FDK/lib/tinyusb/src/class/msc/msc_device.c **** enum {
  59:SynaptiX_FDK/lib/tinyusb/src/class/msc/msc_device.c ****   MSC_STAGE_CMD  = 0,
  60:SynaptiX_FDK/lib/tinyusb/src/class/msc/msc_device.c ****   MSC_STAGE_DATA,
  61:SynaptiX_FDK/lib/tinyusb/src/class/msc/msc_device.c ****   MSC_STAGE_STATUS,
  62:SynaptiX_FDK/lib/tinyusb/src/class/msc/msc_device.c ****   MSC_STAGE_STATUS_SENT,
  63:SynaptiX_FDK/lib/tinyusb/src/class/msc/msc_device.c ****   MSC_STAGE_NEED_RESET,
  64:SynaptiX_FDK/lib/tinyusb/src/class/msc/msc_device.c **** };
  65:SynaptiX_FDK/lib/tinyusb/src/class/msc/msc_device.c **** 
  66:SynaptiX_FDK/lib/tinyusb/src/class/msc/msc_device.c **** typedef struct {
  67:SynaptiX_FDK/lib/tinyusb/src/class/msc/msc_device.c ****   TU_ATTR_ALIGNED(4) msc_cbw_t cbw; // 31 bytes
  68:SynaptiX_FDK/lib/tinyusb/src/class/msc/msc_device.c ****   uint8_t  rhport;
  69:SynaptiX_FDK/lib/tinyusb/src/class/msc/msc_device.c **** 
  70:SynaptiX_FDK/lib/tinyusb/src/class/msc/msc_device.c ****   TU_ATTR_ALIGNED(4) msc_csw_t csw; // 13 bytes
  71:SynaptiX_FDK/lib/tinyusb/src/class/msc/msc_device.c ****   uint8_t  itf_num;
  72:SynaptiX_FDK/lib/tinyusb/src/class/msc/msc_device.c ****   uint8_t  ep_in;
  73:SynaptiX_FDK/lib/tinyusb/src/class/msc/msc_device.c ****   uint8_t  ep_out;
  74:SynaptiX_FDK/lib/tinyusb/src/class/msc/msc_device.c **** 
  75:SynaptiX_FDK/lib/tinyusb/src/class/msc/msc_device.c ****   uint32_t total_len;   // byte to be transferred, can be smaller than total_bytes in cbw
  76:SynaptiX_FDK/lib/tinyusb/src/class/msc/msc_device.c ****   uint32_t xferred_len; // numbered of bytes transferred so far in the Data Stage
  77:SynaptiX_FDK/lib/tinyusb/src/class/msc/msc_device.c **** 
  78:SynaptiX_FDK/lib/tinyusb/src/class/msc/msc_device.c ****   // Bulk Only Transfer (BOT) Protocol
  79:SynaptiX_FDK/lib/tinyusb/src/class/msc/msc_device.c ****   uint8_t stage;
  80:SynaptiX_FDK/lib/tinyusb/src/class/msc/msc_device.c **** 
  81:SynaptiX_FDK/lib/tinyusb/src/class/msc/msc_device.c ****   // SCSI Sense Response Data
  82:SynaptiX_FDK/lib/tinyusb/src/class/msc/msc_device.c ****   uint8_t sense_key;
  83:SynaptiX_FDK/lib/tinyusb/src/class/msc/msc_device.c ****   uint8_t add_sense_code;
  84:SynaptiX_FDK/lib/tinyusb/src/class/msc/msc_device.c ****   uint8_t add_sense_qualifier;
  85:SynaptiX_FDK/lib/tinyusb/src/class/msc/msc_device.c **** 
  86:SynaptiX_FDK/lib/tinyusb/src/class/msc/msc_device.c ****   bool pending_io; // pending async IO
ARM GAS  C:\Users\DELL\AppData\Local\Temp\cc6DfR6G.s 			page 3


  87:SynaptiX_FDK/lib/tinyusb/src/class/msc/msc_device.c **** }mscd_interface_t;
  88:SynaptiX_FDK/lib/tinyusb/src/class/msc/msc_device.c **** 
  89:SynaptiX_FDK/lib/tinyusb/src/class/msc/msc_device.c **** static mscd_interface_t _mscd_itf;
  90:SynaptiX_FDK/lib/tinyusb/src/class/msc/msc_device.c **** 
  91:SynaptiX_FDK/lib/tinyusb/src/class/msc/msc_device.c **** CFG_TUD_MEM_SECTION static struct {
  92:SynaptiX_FDK/lib/tinyusb/src/class/msc/msc_device.c ****   TUD_EPBUF_DEF(buf, CFG_TUD_MSC_EP_BUFSIZE);
  93:SynaptiX_FDK/lib/tinyusb/src/class/msc/msc_device.c **** } _mscd_epbuf;
  94:SynaptiX_FDK/lib/tinyusb/src/class/msc/msc_device.c **** 
  95:SynaptiX_FDK/lib/tinyusb/src/class/msc/msc_device.c **** TU_VERIFY_STATIC(CFG_TUD_MSC_EP_BUFSIZE >= 64, "CFG_TUD_MSC_EP_BUFSIZE must be at least 64");
  96:SynaptiX_FDK/lib/tinyusb/src/class/msc/msc_device.c **** 
  97:SynaptiX_FDK/lib/tinyusb/src/class/msc/msc_device.c **** //--------------------------------------------------------------------+
  98:SynaptiX_FDK/lib/tinyusb/src/class/msc/msc_device.c **** // INTERNAL OBJECT & FUNCTION DECLARATION
  99:SynaptiX_FDK/lib/tinyusb/src/class/msc/msc_device.c **** //--------------------------------------------------------------------+
 100:SynaptiX_FDK/lib/tinyusb/src/class/msc/msc_device.c **** static int32_t proc_builtin_scsi(uint8_t lun, uint8_t const scsi_cmd[16], uint8_t* buffer, uint32_t
 101:SynaptiX_FDK/lib/tinyusb/src/class/msc/msc_device.c **** static void proc_read10_cmd(mscd_interface_t* p_msc);
 102:SynaptiX_FDK/lib/tinyusb/src/class/msc/msc_device.c **** static void proc_read_io_data(mscd_interface_t* p_msc, int32_t nbytes);
 103:SynaptiX_FDK/lib/tinyusb/src/class/msc/msc_device.c **** static void proc_write10_cmd(mscd_interface_t* p_msc);
 104:SynaptiX_FDK/lib/tinyusb/src/class/msc/msc_device.c **** static void proc_write10_host_data(mscd_interface_t* p_msc, uint32_t xferred_bytes);
 105:SynaptiX_FDK/lib/tinyusb/src/class/msc/msc_device.c **** static void proc_write_io_data(mscd_interface_t* p_msc, uint32_t xferred_bytes, int32_t nbytes);
 106:SynaptiX_FDK/lib/tinyusb/src/class/msc/msc_device.c **** static bool proc_stage_status(mscd_interface_t* p_msc);
 107:SynaptiX_FDK/lib/tinyusb/src/class/msc/msc_device.c **** 
 108:SynaptiX_FDK/lib/tinyusb/src/class/msc/msc_device.c **** TU_ATTR_ALWAYS_INLINE static inline bool is_data_in(uint8_t dir) {
 109:SynaptiX_FDK/lib/tinyusb/src/class/msc/msc_device.c ****   return tu_bit_test(dir, 7);
 110:SynaptiX_FDK/lib/tinyusb/src/class/msc/msc_device.c **** }
 111:SynaptiX_FDK/lib/tinyusb/src/class/msc/msc_device.c **** 
 112:SynaptiX_FDK/lib/tinyusb/src/class/msc/msc_device.c **** TU_ATTR_ALWAYS_INLINE static inline bool send_csw(mscd_interface_t* p_msc) {
 113:SynaptiX_FDK/lib/tinyusb/src/class/msc/msc_device.c ****   // Data residue is always = host expect - actual transferred
 114:SynaptiX_FDK/lib/tinyusb/src/class/msc/msc_device.c ****   uint8_t rhport = p_msc->rhport;
 115:SynaptiX_FDK/lib/tinyusb/src/class/msc/msc_device.c ****   p_msc->csw.data_residue = p_msc->cbw.total_bytes - p_msc->xferred_len;
 116:SynaptiX_FDK/lib/tinyusb/src/class/msc/msc_device.c ****   p_msc->stage = MSC_STAGE_STATUS_SENT;
 117:SynaptiX_FDK/lib/tinyusb/src/class/msc/msc_device.c ****   memcpy(_mscd_epbuf.buf, &p_msc->csw, sizeof(msc_csw_t)); //-V1086
 118:SynaptiX_FDK/lib/tinyusb/src/class/msc/msc_device.c ****   return usbd_edpt_xfer(rhport, p_msc->ep_in , _mscd_epbuf.buf, sizeof(msc_csw_t), false);
 119:SynaptiX_FDK/lib/tinyusb/src/class/msc/msc_device.c **** }
 120:SynaptiX_FDK/lib/tinyusb/src/class/msc/msc_device.c **** 
 121:SynaptiX_FDK/lib/tinyusb/src/class/msc/msc_device.c **** TU_ATTR_ALWAYS_INLINE static inline bool prepare_cbw(mscd_interface_t* p_msc) {
 122:SynaptiX_FDK/lib/tinyusb/src/class/msc/msc_device.c ****   uint8_t rhport = p_msc->rhport;
 123:SynaptiX_FDK/lib/tinyusb/src/class/msc/msc_device.c ****   p_msc->stage = MSC_STAGE_CMD;
 124:SynaptiX_FDK/lib/tinyusb/src/class/msc/msc_device.c ****   return usbd_edpt_xfer(rhport, p_msc->ep_out,  _mscd_epbuf.buf, sizeof(msc_cbw_t), false);
 125:SynaptiX_FDK/lib/tinyusb/src/class/msc/msc_device.c **** }
 126:SynaptiX_FDK/lib/tinyusb/src/class/msc/msc_device.c **** 
 127:SynaptiX_FDK/lib/tinyusb/src/class/msc/msc_device.c **** static void fail_scsi_op(mscd_interface_t* p_msc, uint8_t status) {
 128:SynaptiX_FDK/lib/tinyusb/src/class/msc/msc_device.c ****   msc_cbw_t const * p_cbw = &p_msc->cbw;
 129:SynaptiX_FDK/lib/tinyusb/src/class/msc/msc_device.c ****   msc_csw_t       * p_csw = &p_msc->csw;
 130:SynaptiX_FDK/lib/tinyusb/src/class/msc/msc_device.c ****   uint8_t rhport = p_msc->rhport;
 131:SynaptiX_FDK/lib/tinyusb/src/class/msc/msc_device.c **** 
 132:SynaptiX_FDK/lib/tinyusb/src/class/msc/msc_device.c ****   p_csw->status       = status;
 133:SynaptiX_FDK/lib/tinyusb/src/class/msc/msc_device.c ****   p_csw->data_residue = p_msc->cbw.total_bytes - p_msc->xferred_len;
 134:SynaptiX_FDK/lib/tinyusb/src/class/msc/msc_device.c ****   p_msc->stage        = MSC_STAGE_STATUS;
 135:SynaptiX_FDK/lib/tinyusb/src/class/msc/msc_device.c **** 
 136:SynaptiX_FDK/lib/tinyusb/src/class/msc/msc_device.c ****   // failed but sense key is not set: default to Illegal Request
 137:SynaptiX_FDK/lib/tinyusb/src/class/msc/msc_device.c ****   if (p_msc->sense_key == 0) {
 138:SynaptiX_FDK/lib/tinyusb/src/class/msc/msc_device.c ****     (void) tud_msc_set_sense(p_cbw->lun, SCSI_SENSE_ILLEGAL_REQUEST, 0x20, 0x00);
 139:SynaptiX_FDK/lib/tinyusb/src/class/msc/msc_device.c ****   }
 140:SynaptiX_FDK/lib/tinyusb/src/class/msc/msc_device.c **** 
 141:SynaptiX_FDK/lib/tinyusb/src/class/msc/msc_device.c ****   // If there is data stage and not yet complete, stall it
 142:SynaptiX_FDK/lib/tinyusb/src/class/msc/msc_device.c ****   if (p_cbw->total_bytes && p_csw->data_residue) {
 143:SynaptiX_FDK/lib/tinyusb/src/class/msc/msc_device.c ****     if (is_data_in(p_cbw->dir)) {
ARM GAS  C:\Users\DELL\AppData\Local\Temp\cc6DfR6G.s 			page 4


 144:SynaptiX_FDK/lib/tinyusb/src/class/msc/msc_device.c ****       usbd_edpt_stall(rhport, p_msc->ep_in);
 145:SynaptiX_FDK/lib/tinyusb/src/class/msc/msc_device.c ****     } else {
 146:SynaptiX_FDK/lib/tinyusb/src/class/msc/msc_device.c ****       usbd_edpt_stall(rhport, p_msc->ep_out);
 147:SynaptiX_FDK/lib/tinyusb/src/class/msc/msc_device.c ****     }
 148:SynaptiX_FDK/lib/tinyusb/src/class/msc/msc_device.c ****   }
 149:SynaptiX_FDK/lib/tinyusb/src/class/msc/msc_device.c **** }
 150:SynaptiX_FDK/lib/tinyusb/src/class/msc/msc_device.c **** 
 151:SynaptiX_FDK/lib/tinyusb/src/class/msc/msc_device.c **** TU_ATTR_ALWAYS_INLINE static inline uint32_t rdwr10_get_lba(uint8_t const command[]) {
 152:SynaptiX_FDK/lib/tinyusb/src/class/msc/msc_device.c ****   // use offsetof to avoid pointer to the odd/unaligned address
 153:SynaptiX_FDK/lib/tinyusb/src/class/msc/msc_device.c ****   const uint32_t lba = tu_unaligned_read32(command + offsetof(scsi_write10_t, lba));
 154:SynaptiX_FDK/lib/tinyusb/src/class/msc/msc_device.c ****   return tu_ntohl(lba); // lba is in Big Endian
 155:SynaptiX_FDK/lib/tinyusb/src/class/msc/msc_device.c **** }
 156:SynaptiX_FDK/lib/tinyusb/src/class/msc/msc_device.c **** 
 157:SynaptiX_FDK/lib/tinyusb/src/class/msc/msc_device.c **** TU_ATTR_ALWAYS_INLINE static inline uint16_t rdwr10_get_blockcount(msc_cbw_t const* cbw) {
 158:SynaptiX_FDK/lib/tinyusb/src/class/msc/msc_device.c ****   uint16_t const block_count = tu_unaligned_read16(cbw->command + offsetof(scsi_write10_t, block_co
 159:SynaptiX_FDK/lib/tinyusb/src/class/msc/msc_device.c ****   return tu_ntohs(block_count);
 160:SynaptiX_FDK/lib/tinyusb/src/class/msc/msc_device.c **** }
 161:SynaptiX_FDK/lib/tinyusb/src/class/msc/msc_device.c **** 
 162:SynaptiX_FDK/lib/tinyusb/src/class/msc/msc_device.c **** TU_ATTR_ALWAYS_INLINE static inline uint16_t rdwr10_get_blocksize(msc_cbw_t const* cbw) {
 163:SynaptiX_FDK/lib/tinyusb/src/class/msc/msc_device.c ****   // first extract block count in the command
 164:SynaptiX_FDK/lib/tinyusb/src/class/msc/msc_device.c ****   uint16_t const block_count = rdwr10_get_blockcount(cbw);
 165:SynaptiX_FDK/lib/tinyusb/src/class/msc/msc_device.c ****   if (block_count == 0) {
 166:SynaptiX_FDK/lib/tinyusb/src/class/msc/msc_device.c ****     return 0; // invalid block count
 167:SynaptiX_FDK/lib/tinyusb/src/class/msc/msc_device.c ****   }
 168:SynaptiX_FDK/lib/tinyusb/src/class/msc/msc_device.c ****   return (uint16_t) (cbw->total_bytes / block_count);
 169:SynaptiX_FDK/lib/tinyusb/src/class/msc/msc_device.c **** }
 170:SynaptiX_FDK/lib/tinyusb/src/class/msc/msc_device.c **** 
 171:SynaptiX_FDK/lib/tinyusb/src/class/msc/msc_device.c **** static uint8_t rdwr10_validate_cmd(msc_cbw_t const* cbw) {
 172:SynaptiX_FDK/lib/tinyusb/src/class/msc/msc_device.c ****   uint8_t status = MSC_CSW_STATUS_PASSED;
 173:SynaptiX_FDK/lib/tinyusb/src/class/msc/msc_device.c ****   uint16_t const block_count = rdwr10_get_blockcount(cbw);
 174:SynaptiX_FDK/lib/tinyusb/src/class/msc/msc_device.c **** 
 175:SynaptiX_FDK/lib/tinyusb/src/class/msc/msc_device.c ****   if (cbw->total_bytes == 0) {
 176:SynaptiX_FDK/lib/tinyusb/src/class/msc/msc_device.c ****     if (block_count > 0) {
 177:SynaptiX_FDK/lib/tinyusb/src/class/msc/msc_device.c ****       TU_LOG_DRV("  SCSI case 2 (Hn < Di) or case 3 (Hn < Do) \r\n");
 178:SynaptiX_FDK/lib/tinyusb/src/class/msc/msc_device.c ****       status = MSC_CSW_STATUS_PHASE_ERROR;
 179:SynaptiX_FDK/lib/tinyusb/src/class/msc/msc_device.c ****     } else {
 180:SynaptiX_FDK/lib/tinyusb/src/class/msc/msc_device.c ****       // no data transfer, only exist in complaint test suite
 181:SynaptiX_FDK/lib/tinyusb/src/class/msc/msc_device.c ****     }
 182:SynaptiX_FDK/lib/tinyusb/src/class/msc/msc_device.c ****   } else {
 183:SynaptiX_FDK/lib/tinyusb/src/class/msc/msc_device.c ****     if (SCSI_CMD_READ_10 == cbw->command[0] && !is_data_in(cbw->dir)) {
 184:SynaptiX_FDK/lib/tinyusb/src/class/msc/msc_device.c ****       TU_LOG_DRV("  SCSI case 10 (Ho <> Di)\r\n");
 185:SynaptiX_FDK/lib/tinyusb/src/class/msc/msc_device.c ****       status = MSC_CSW_STATUS_PHASE_ERROR;
 186:SynaptiX_FDK/lib/tinyusb/src/class/msc/msc_device.c ****     } else if (SCSI_CMD_WRITE_10 == cbw->command[0] && is_data_in(cbw->dir)) {
 187:SynaptiX_FDK/lib/tinyusb/src/class/msc/msc_device.c ****       TU_LOG_DRV("  SCSI case 8 (Hi <> Do)\r\n");
 188:SynaptiX_FDK/lib/tinyusb/src/class/msc/msc_device.c ****       status = MSC_CSW_STATUS_PHASE_ERROR;
 189:SynaptiX_FDK/lib/tinyusb/src/class/msc/msc_device.c ****     } else if (0 == block_count) {
 190:SynaptiX_FDK/lib/tinyusb/src/class/msc/msc_device.c ****       TU_LOG_DRV("  SCSI case 4 Hi > Dn (READ10) or case 9 Ho > Dn (WRITE10) \r\n");
 191:SynaptiX_FDK/lib/tinyusb/src/class/msc/msc_device.c ****       status = MSC_CSW_STATUS_FAILED;
 192:SynaptiX_FDK/lib/tinyusb/src/class/msc/msc_device.c ****     } else if (cbw->total_bytes / block_count == 0) {
 193:SynaptiX_FDK/lib/tinyusb/src/class/msc/msc_device.c ****       TU_LOG_DRV(" Computed block size = 0. SCSI case 7 Hi < Di (READ10) or case 13 Ho < Do (WRIT10
 194:SynaptiX_FDK/lib/tinyusb/src/class/msc/msc_device.c ****       status = MSC_CSW_STATUS_PHASE_ERROR;
 195:SynaptiX_FDK/lib/tinyusb/src/class/msc/msc_device.c ****     } else {
 196:SynaptiX_FDK/lib/tinyusb/src/class/msc/msc_device.c ****       // nothing to do
 197:SynaptiX_FDK/lib/tinyusb/src/class/msc/msc_device.c ****     }
 198:SynaptiX_FDK/lib/tinyusb/src/class/msc/msc_device.c ****   }
 199:SynaptiX_FDK/lib/tinyusb/src/class/msc/msc_device.c **** 
 200:SynaptiX_FDK/lib/tinyusb/src/class/msc/msc_device.c ****   return status;
ARM GAS  C:\Users\DELL\AppData\Local\Temp\cc6DfR6G.s 			page 5


 201:SynaptiX_FDK/lib/tinyusb/src/class/msc/msc_device.c **** }
 202:SynaptiX_FDK/lib/tinyusb/src/class/msc/msc_device.c **** 
 203:SynaptiX_FDK/lib/tinyusb/src/class/msc/msc_device.c **** static bool proc_stage_status(mscd_interface_t *p_msc) {
 204:SynaptiX_FDK/lib/tinyusb/src/class/msc/msc_device.c ****   uint8_t rhport = p_msc->rhport;
 205:SynaptiX_FDK/lib/tinyusb/src/class/msc/msc_device.c ****   msc_cbw_t const *p_cbw = &p_msc->cbw;
 206:SynaptiX_FDK/lib/tinyusb/src/class/msc/msc_device.c **** 
 207:SynaptiX_FDK/lib/tinyusb/src/class/msc/msc_device.c ****   // skip status if epin is currently stalled, will do it when received Clear Stall request
 208:SynaptiX_FDK/lib/tinyusb/src/class/msc/msc_device.c ****   if (!usbd_edpt_stalled(rhport, p_msc->ep_in)) {
 209:SynaptiX_FDK/lib/tinyusb/src/class/msc/msc_device.c ****     if ((p_cbw->total_bytes > p_msc->xferred_len) && is_data_in(p_cbw->dir)) {
 210:SynaptiX_FDK/lib/tinyusb/src/class/msc/msc_device.c ****       // 6.7 The 13 Cases: case 5 (Hi > Di): STALL before status
 211:SynaptiX_FDK/lib/tinyusb/src/class/msc/msc_device.c ****       // TU_LOG_DRV("  SCSI case 5 (Hi > Di): %lu > %lu\r\n", p_cbw->total_bytes, p_msc->xferred_le
 212:SynaptiX_FDK/lib/tinyusb/src/class/msc/msc_device.c ****       usbd_edpt_stall(rhport, p_msc->ep_in);
 213:SynaptiX_FDK/lib/tinyusb/src/class/msc/msc_device.c ****     } else {
 214:SynaptiX_FDK/lib/tinyusb/src/class/msc/msc_device.c ****       TU_ASSERT(send_csw(p_msc));
 215:SynaptiX_FDK/lib/tinyusb/src/class/msc/msc_device.c ****     }
 216:SynaptiX_FDK/lib/tinyusb/src/class/msc/msc_device.c ****   }
 217:SynaptiX_FDK/lib/tinyusb/src/class/msc/msc_device.c **** 
 218:SynaptiX_FDK/lib/tinyusb/src/class/msc/msc_device.c ****   #if TU_CHECK_MCU(OPT_MCU_CXD56)
 219:SynaptiX_FDK/lib/tinyusb/src/class/msc/msc_device.c ****   // WORKAROUND: cxd56 has its own nuttx usb stack which does not forward Set/ClearFeature(Endpoint
 220:SynaptiX_FDK/lib/tinyusb/src/class/msc/msc_device.c ****   // There is no way for us to know when EP is un-stall, therefore we will unconditionally un-stall
 221:SynaptiX_FDK/lib/tinyusb/src/class/msc/msc_device.c ****   // hope everything will work
 222:SynaptiX_FDK/lib/tinyusb/src/class/msc/msc_device.c ****   if (usbd_edpt_stalled(rhport, p_msc->ep_in)) {
 223:SynaptiX_FDK/lib/tinyusb/src/class/msc/msc_device.c ****     usbd_edpt_clear_stall(rhport, p_msc->ep_in);
 224:SynaptiX_FDK/lib/tinyusb/src/class/msc/msc_device.c ****     send_csw(p_msc);
 225:SynaptiX_FDK/lib/tinyusb/src/class/msc/msc_device.c ****   }
 226:SynaptiX_FDK/lib/tinyusb/src/class/msc/msc_device.c ****   #endif
 227:SynaptiX_FDK/lib/tinyusb/src/class/msc/msc_device.c ****   return true;
 228:SynaptiX_FDK/lib/tinyusb/src/class/msc/msc_device.c **** }
 229:SynaptiX_FDK/lib/tinyusb/src/class/msc/msc_device.c **** 
 230:SynaptiX_FDK/lib/tinyusb/src/class/msc/msc_device.c **** //--------------------------------------------------------------------+
 231:SynaptiX_FDK/lib/tinyusb/src/class/msc/msc_device.c **** // Weak stubs: invoked if no strong implementation is available
 232:SynaptiX_FDK/lib/tinyusb/src/class/msc/msc_device.c **** //--------------------------------------------------------------------+
 233:SynaptiX_FDK/lib/tinyusb/src/class/msc/msc_device.c **** TU_ATTR_WEAK void tud_msc_read10_complete_cb(uint8_t lun) {
 234:SynaptiX_FDK/lib/tinyusb/src/class/msc/msc_device.c ****   (void) lun;
 235:SynaptiX_FDK/lib/tinyusb/src/class/msc/msc_device.c **** }
 236:SynaptiX_FDK/lib/tinyusb/src/class/msc/msc_device.c **** 
 237:SynaptiX_FDK/lib/tinyusb/src/class/msc/msc_device.c **** TU_ATTR_WEAK void tud_msc_write10_complete_cb(uint8_t lun) {
 238:SynaptiX_FDK/lib/tinyusb/src/class/msc/msc_device.c ****   (void) lun;
 239:SynaptiX_FDK/lib/tinyusb/src/class/msc/msc_device.c **** }
 240:SynaptiX_FDK/lib/tinyusb/src/class/msc/msc_device.c **** 
 241:SynaptiX_FDK/lib/tinyusb/src/class/msc/msc_device.c **** TU_ATTR_WEAK void tud_msc_scsi_complete_cb(uint8_t lun, uint8_t const scsi_cmd[16]) {
 242:SynaptiX_FDK/lib/tinyusb/src/class/msc/msc_device.c ****   (void) lun;
 243:SynaptiX_FDK/lib/tinyusb/src/class/msc/msc_device.c ****   (void) scsi_cmd;
 244:SynaptiX_FDK/lib/tinyusb/src/class/msc/msc_device.c **** }
 245:SynaptiX_FDK/lib/tinyusb/src/class/msc/msc_device.c **** 
 246:SynaptiX_FDK/lib/tinyusb/src/class/msc/msc_device.c **** TU_ATTR_WEAK uint8_t tud_msc_get_maxlun_cb(void) {
 247:SynaptiX_FDK/lib/tinyusb/src/class/msc/msc_device.c ****   return 1;
 248:SynaptiX_FDK/lib/tinyusb/src/class/msc/msc_device.c **** }
 249:SynaptiX_FDK/lib/tinyusb/src/class/msc/msc_device.c **** 
 250:SynaptiX_FDK/lib/tinyusb/src/class/msc/msc_device.c **** TU_ATTR_WEAK bool tud_msc_start_stop_cb(uint8_t lun, uint8_t power_condition, bool start, bool load
 251:SynaptiX_FDK/lib/tinyusb/src/class/msc/msc_device.c ****   (void) lun;
 252:SynaptiX_FDK/lib/tinyusb/src/class/msc/msc_device.c ****   (void) power_condition;
 253:SynaptiX_FDK/lib/tinyusb/src/class/msc/msc_device.c ****   (void) start;
 254:SynaptiX_FDK/lib/tinyusb/src/class/msc/msc_device.c ****   (void) load_eject;
 255:SynaptiX_FDK/lib/tinyusb/src/class/msc/msc_device.c ****   return true;
 256:SynaptiX_FDK/lib/tinyusb/src/class/msc/msc_device.c **** }
 257:SynaptiX_FDK/lib/tinyusb/src/class/msc/msc_device.c **** 
ARM GAS  C:\Users\DELL\AppData\Local\Temp\cc6DfR6G.s 			page 6


 258:SynaptiX_FDK/lib/tinyusb/src/class/msc/msc_device.c **** TU_ATTR_WEAK bool tud_msc_prevent_allow_medium_removal_cb(uint8_t lun, uint8_t prohibit_removal, ui
 259:SynaptiX_FDK/lib/tinyusb/src/class/msc/msc_device.c ****   (void) lun;
 260:SynaptiX_FDK/lib/tinyusb/src/class/msc/msc_device.c ****   (void) prohibit_removal;
 261:SynaptiX_FDK/lib/tinyusb/src/class/msc/msc_device.c ****   (void) control;
 262:SynaptiX_FDK/lib/tinyusb/src/class/msc/msc_device.c ****   return true;
 263:SynaptiX_FDK/lib/tinyusb/src/class/msc/msc_device.c **** }
 264:SynaptiX_FDK/lib/tinyusb/src/class/msc/msc_device.c **** 
 265:SynaptiX_FDK/lib/tinyusb/src/class/msc/msc_device.c **** TU_ATTR_WEAK int32_t tud_msc_request_sense_cb(uint8_t lun, void* buffer, uint16_t bufsize) {
 266:SynaptiX_FDK/lib/tinyusb/src/class/msc/msc_device.c ****   (void) lun;
 267:SynaptiX_FDK/lib/tinyusb/src/class/msc/msc_device.c ****   (void) buffer;
 268:SynaptiX_FDK/lib/tinyusb/src/class/msc/msc_device.c ****   (void) bufsize;
 269:SynaptiX_FDK/lib/tinyusb/src/class/msc/msc_device.c ****   return sizeof(scsi_sense_fixed_resp_t);
 270:SynaptiX_FDK/lib/tinyusb/src/class/msc/msc_device.c **** }
 271:SynaptiX_FDK/lib/tinyusb/src/class/msc/msc_device.c **** 
 272:SynaptiX_FDK/lib/tinyusb/src/class/msc/msc_device.c **** TU_ATTR_WEAK bool tud_msc_is_writable_cb(uint8_t lun) {
 273:SynaptiX_FDK/lib/tinyusb/src/class/msc/msc_device.c ****   (void) lun;
 274:SynaptiX_FDK/lib/tinyusb/src/class/msc/msc_device.c ****   return true;
 275:SynaptiX_FDK/lib/tinyusb/src/class/msc/msc_device.c **** }
 276:SynaptiX_FDK/lib/tinyusb/src/class/msc/msc_device.c **** 
 277:SynaptiX_FDK/lib/tinyusb/src/class/msc/msc_device.c **** //--------------------------------------------------------------------+
 278:SynaptiX_FDK/lib/tinyusb/src/class/msc/msc_device.c **** // Debug
 279:SynaptiX_FDK/lib/tinyusb/src/class/msc/msc_device.c **** //--------------------------------------------------------------------+
 280:SynaptiX_FDK/lib/tinyusb/src/class/msc/msc_device.c **** #if CFG_TUSB_DEBUG >= CFG_TUD_MSC_LOG_LEVEL
 281:SynaptiX_FDK/lib/tinyusb/src/class/msc/msc_device.c **** 
 282:SynaptiX_FDK/lib/tinyusb/src/class/msc/msc_device.c **** TU_ATTR_UNUSED tu_static tu_lookup_entry_t const _msc_scsi_cmd_lookup[] = {
 283:SynaptiX_FDK/lib/tinyusb/src/class/msc/msc_device.c ****   { .key = SCSI_CMD_TEST_UNIT_READY              , .data = "Test Unit Ready" },
 284:SynaptiX_FDK/lib/tinyusb/src/class/msc/msc_device.c ****   { .key = SCSI_CMD_INQUIRY                      , .data = "Inquiry" },
 285:SynaptiX_FDK/lib/tinyusb/src/class/msc/msc_device.c ****   { .key = SCSI_CMD_MODE_SELECT_6                , .data = "Mode_Select 6" },
 286:SynaptiX_FDK/lib/tinyusb/src/class/msc/msc_device.c ****   { .key = SCSI_CMD_MODE_SENSE_6                 , .data = "Mode_Sense 6" },
 287:SynaptiX_FDK/lib/tinyusb/src/class/msc/msc_device.c ****   { .key = SCSI_CMD_START_STOP_UNIT              , .data = "Start Stop Unit" },
 288:SynaptiX_FDK/lib/tinyusb/src/class/msc/msc_device.c ****   { .key = SCSI_CMD_PREVENT_ALLOW_MEDIUM_REMOVAL , .data = "Prevent/Allow Medium Removal" },
 289:SynaptiX_FDK/lib/tinyusb/src/class/msc/msc_device.c ****   { .key = SCSI_CMD_READ_CAPACITY_10             , .data = "Read Capacity10" },
 290:SynaptiX_FDK/lib/tinyusb/src/class/msc/msc_device.c ****   { .key = SCSI_CMD_REQUEST_SENSE                , .data = "Request Sense" },
 291:SynaptiX_FDK/lib/tinyusb/src/class/msc/msc_device.c ****   { .key = SCSI_CMD_READ_FORMAT_CAPACITY         , .data = "Read Format Capacity" },
 292:SynaptiX_FDK/lib/tinyusb/src/class/msc/msc_device.c ****   { .key = SCSI_CMD_READ_10                      , .data = "Read10" },
 293:SynaptiX_FDK/lib/tinyusb/src/class/msc/msc_device.c ****   { .key = SCSI_CMD_WRITE_10                     , .data = "Write10" }
 294:SynaptiX_FDK/lib/tinyusb/src/class/msc/msc_device.c **** };
 295:SynaptiX_FDK/lib/tinyusb/src/class/msc/msc_device.c **** 
 296:SynaptiX_FDK/lib/tinyusb/src/class/msc/msc_device.c **** TU_ATTR_UNUSED tu_static tu_lookup_table_t const _msc_scsi_cmd_table = {
 297:SynaptiX_FDK/lib/tinyusb/src/class/msc/msc_device.c ****   .count = TU_ARRAY_SIZE(_msc_scsi_cmd_lookup),
 298:SynaptiX_FDK/lib/tinyusb/src/class/msc/msc_device.c ****   .items = _msc_scsi_cmd_lookup
 299:SynaptiX_FDK/lib/tinyusb/src/class/msc/msc_device.c **** };
 300:SynaptiX_FDK/lib/tinyusb/src/class/msc/msc_device.c **** 
 301:SynaptiX_FDK/lib/tinyusb/src/class/msc/msc_device.c **** #endif
 302:SynaptiX_FDK/lib/tinyusb/src/class/msc/msc_device.c **** 
 303:SynaptiX_FDK/lib/tinyusb/src/class/msc/msc_device.c **** //--------------------------------------------------------------------+
 304:SynaptiX_FDK/lib/tinyusb/src/class/msc/msc_device.c **** // APPLICATION API
 305:SynaptiX_FDK/lib/tinyusb/src/class/msc/msc_device.c **** //--------------------------------------------------------------------+
 306:SynaptiX_FDK/lib/tinyusb/src/class/msc/msc_device.c **** bool tud_msc_set_sense(uint8_t lun, uint8_t sense_key, uint8_t add_sense_code, uint8_t add_sense_qu
 307:SynaptiX_FDK/lib/tinyusb/src/class/msc/msc_device.c ****   (void) lun;
 308:SynaptiX_FDK/lib/tinyusb/src/class/msc/msc_device.c ****   _mscd_itf.sense_key           = sense_key;
 309:SynaptiX_FDK/lib/tinyusb/src/class/msc/msc_device.c ****   _mscd_itf.add_sense_code      = add_sense_code;
 310:SynaptiX_FDK/lib/tinyusb/src/class/msc/msc_device.c ****   _mscd_itf.add_sense_qualifier = add_sense_qualifier;
 311:SynaptiX_FDK/lib/tinyusb/src/class/msc/msc_device.c ****   return true;
 312:SynaptiX_FDK/lib/tinyusb/src/class/msc/msc_device.c **** }
 313:SynaptiX_FDK/lib/tinyusb/src/class/msc/msc_device.c **** 
 314:SynaptiX_FDK/lib/tinyusb/src/class/msc/msc_device.c **** TU_ATTR_ALWAYS_INLINE static inline void set_sense_medium_not_present(uint8_t lun) {
ARM GAS  C:\Users\DELL\AppData\Local\Temp\cc6DfR6G.s 			page 7


 315:SynaptiX_FDK/lib/tinyusb/src/class/msc/msc_device.c ****   // default sense is NOT READY, MEDIUM NOT PRESENT
 316:SynaptiX_FDK/lib/tinyusb/src/class/msc/msc_device.c ****   (void) tud_msc_set_sense(lun, SCSI_SENSE_NOT_READY, 0x3A, 0x00);
 317:SynaptiX_FDK/lib/tinyusb/src/class/msc/msc_device.c **** }
 318:SynaptiX_FDK/lib/tinyusb/src/class/msc/msc_device.c **** 
 319:SynaptiX_FDK/lib/tinyusb/src/class/msc/msc_device.c **** static void proc_async_io_done(void *bytes_io) {
 320:SynaptiX_FDK/lib/tinyusb/src/class/msc/msc_device.c ****   mscd_interface_t *p_msc = &_mscd_itf;
 321:SynaptiX_FDK/lib/tinyusb/src/class/msc/msc_device.c ****   TU_VERIFY(p_msc->pending_io, );
 322:SynaptiX_FDK/lib/tinyusb/src/class/msc/msc_device.c ****   const int32_t nbytes = (int32_t) (intptr_t) bytes_io;
 323:SynaptiX_FDK/lib/tinyusb/src/class/msc/msc_device.c ****   const uint8_t cmd = p_msc->cbw.command[0];
 324:SynaptiX_FDK/lib/tinyusb/src/class/msc/msc_device.c **** 
 325:SynaptiX_FDK/lib/tinyusb/src/class/msc/msc_device.c ****   p_msc->pending_io = false;
 326:SynaptiX_FDK/lib/tinyusb/src/class/msc/msc_device.c ****   switch (cmd) {
 327:SynaptiX_FDK/lib/tinyusb/src/class/msc/msc_device.c ****     case SCSI_CMD_READ_10:
 328:SynaptiX_FDK/lib/tinyusb/src/class/msc/msc_device.c ****       proc_read_io_data(p_msc, nbytes);
 329:SynaptiX_FDK/lib/tinyusb/src/class/msc/msc_device.c ****       break;
 330:SynaptiX_FDK/lib/tinyusb/src/class/msc/msc_device.c **** 
 331:SynaptiX_FDK/lib/tinyusb/src/class/msc/msc_device.c ****     case SCSI_CMD_WRITE_10:
 332:SynaptiX_FDK/lib/tinyusb/src/class/msc/msc_device.c ****       proc_write_io_data(p_msc, (uint32_t) nbytes, nbytes);
 333:SynaptiX_FDK/lib/tinyusb/src/class/msc/msc_device.c ****       break;
 334:SynaptiX_FDK/lib/tinyusb/src/class/msc/msc_device.c **** 
 335:SynaptiX_FDK/lib/tinyusb/src/class/msc/msc_device.c ****     default: break; // nothing to do
 336:SynaptiX_FDK/lib/tinyusb/src/class/msc/msc_device.c ****   }
 337:SynaptiX_FDK/lib/tinyusb/src/class/msc/msc_device.c **** 
 338:SynaptiX_FDK/lib/tinyusb/src/class/msc/msc_device.c ****   // send status if stage is transitioned to STATUS
 339:SynaptiX_FDK/lib/tinyusb/src/class/msc/msc_device.c ****   if (p_msc->stage == MSC_STAGE_STATUS) {
 340:SynaptiX_FDK/lib/tinyusb/src/class/msc/msc_device.c ****     proc_stage_status(p_msc);
 341:SynaptiX_FDK/lib/tinyusb/src/class/msc/msc_device.c ****   }
 342:SynaptiX_FDK/lib/tinyusb/src/class/msc/msc_device.c **** }
 343:SynaptiX_FDK/lib/tinyusb/src/class/msc/msc_device.c **** 
 344:SynaptiX_FDK/lib/tinyusb/src/class/msc/msc_device.c **** bool tud_msc_async_io_done(int32_t bytes_io, bool in_isr) {
 345:SynaptiX_FDK/lib/tinyusb/src/class/msc/msc_device.c ****   // Precheck to avoid queueing multiple RW done callback
 346:SynaptiX_FDK/lib/tinyusb/src/class/msc/msc_device.c ****   TU_VERIFY(_mscd_itf.pending_io);
 347:SynaptiX_FDK/lib/tinyusb/src/class/msc/msc_device.c ****   if (bytes_io == 0) {
 348:SynaptiX_FDK/lib/tinyusb/src/class/msc/msc_device.c ****     bytes_io = TUD_MSC_RET_ERROR; // 0 is treated as error, no reason to call this with BUSY here
 349:SynaptiX_FDK/lib/tinyusb/src/class/msc/msc_device.c ****   }
 350:SynaptiX_FDK/lib/tinyusb/src/class/msc/msc_device.c ****   usbd_defer_func(proc_async_io_done, (void *) (intptr_t) bytes_io, in_isr);
 351:SynaptiX_FDK/lib/tinyusb/src/class/msc/msc_device.c ****   return true;
 352:SynaptiX_FDK/lib/tinyusb/src/class/msc/msc_device.c **** }
 353:SynaptiX_FDK/lib/tinyusb/src/class/msc/msc_device.c **** 
 354:SynaptiX_FDK/lib/tinyusb/src/class/msc/msc_device.c **** //--------------------------------------------------------------------+
 355:SynaptiX_FDK/lib/tinyusb/src/class/msc/msc_device.c **** // USBD Driver API
 356:SynaptiX_FDK/lib/tinyusb/src/class/msc/msc_device.c **** //--------------------------------------------------------------------+
 357:SynaptiX_FDK/lib/tinyusb/src/class/msc/msc_device.c **** void mscd_init(void) {
 358:SynaptiX_FDK/lib/tinyusb/src/class/msc/msc_device.c ****   TU_LOG_INT(CFG_TUD_MSC_LOG_LEVEL, sizeof(mscd_interface_t));
 359:SynaptiX_FDK/lib/tinyusb/src/class/msc/msc_device.c ****   tu_memclr(&_mscd_itf, sizeof(mscd_interface_t));
 360:SynaptiX_FDK/lib/tinyusb/src/class/msc/msc_device.c **** }
 361:SynaptiX_FDK/lib/tinyusb/src/class/msc/msc_device.c **** 
 362:SynaptiX_FDK/lib/tinyusb/src/class/msc/msc_device.c **** bool mscd_deinit(void) {
 363:SynaptiX_FDK/lib/tinyusb/src/class/msc/msc_device.c ****   return true; // nothing to do
 364:SynaptiX_FDK/lib/tinyusb/src/class/msc/msc_device.c **** }
 365:SynaptiX_FDK/lib/tinyusb/src/class/msc/msc_device.c **** 
 366:SynaptiX_FDK/lib/tinyusb/src/class/msc/msc_device.c **** void mscd_reset(uint8_t rhport) {
 367:SynaptiX_FDK/lib/tinyusb/src/class/msc/msc_device.c ****   (void) rhport;
 368:SynaptiX_FDK/lib/tinyusb/src/class/msc/msc_device.c ****   tu_memclr(&_mscd_itf, sizeof(mscd_interface_t));
 369:SynaptiX_FDK/lib/tinyusb/src/class/msc/msc_device.c **** }
 370:SynaptiX_FDK/lib/tinyusb/src/class/msc/msc_device.c **** 
 371:SynaptiX_FDK/lib/tinyusb/src/class/msc/msc_device.c **** uint16_t mscd_open(uint8_t rhport, tusb_desc_interface_t const * itf_desc, uint16_t max_len) {
ARM GAS  C:\Users\DELL\AppData\Local\Temp\cc6DfR6G.s 			page 8


 372:SynaptiX_FDK/lib/tinyusb/src/class/msc/msc_device.c ****   // only support SCSI's BOT protocol
 373:SynaptiX_FDK/lib/tinyusb/src/class/msc/msc_device.c ****   TU_VERIFY(TUSB_CLASS_MSC    == itf_desc->bInterfaceClass &&
 374:SynaptiX_FDK/lib/tinyusb/src/class/msc/msc_device.c ****             MSC_SUBCLASS_SCSI == itf_desc->bInterfaceSubClass &&
 375:SynaptiX_FDK/lib/tinyusb/src/class/msc/msc_device.c ****             MSC_PROTOCOL_BOT  == itf_desc->bInterfaceProtocol, 0);
 376:SynaptiX_FDK/lib/tinyusb/src/class/msc/msc_device.c ****   uint16_t const drv_len = sizeof(tusb_desc_interface_t) + 2*sizeof(tusb_desc_endpoint_t);
 377:SynaptiX_FDK/lib/tinyusb/src/class/msc/msc_device.c ****   TU_ASSERT(max_len >= drv_len, 0); // Max length must be at least 1 interface + 2 endpoints
 378:SynaptiX_FDK/lib/tinyusb/src/class/msc/msc_device.c **** 
 379:SynaptiX_FDK/lib/tinyusb/src/class/msc/msc_device.c ****   mscd_interface_t * p_msc = &_mscd_itf;
 380:SynaptiX_FDK/lib/tinyusb/src/class/msc/msc_device.c ****   p_msc->itf_num = itf_desc->bInterfaceNumber;
 381:SynaptiX_FDK/lib/tinyusb/src/class/msc/msc_device.c ****   p_msc->rhport = rhport;
 382:SynaptiX_FDK/lib/tinyusb/src/class/msc/msc_device.c **** 
 383:SynaptiX_FDK/lib/tinyusb/src/class/msc/msc_device.c ****   // Open endpoint pair
 384:SynaptiX_FDK/lib/tinyusb/src/class/msc/msc_device.c ****   TU_ASSERT(usbd_open_edpt_pair(rhport, tu_desc_next(itf_desc), 2, TUSB_XFER_BULK, &p_msc->ep_out, 
 385:SynaptiX_FDK/lib/tinyusb/src/class/msc/msc_device.c **** 
 386:SynaptiX_FDK/lib/tinyusb/src/class/msc/msc_device.c ****   // Prepare for Command Block Wrapper
 387:SynaptiX_FDK/lib/tinyusb/src/class/msc/msc_device.c ****   TU_ASSERT(prepare_cbw(p_msc), drv_len);
 388:SynaptiX_FDK/lib/tinyusb/src/class/msc/msc_device.c **** 
 389:SynaptiX_FDK/lib/tinyusb/src/class/msc/msc_device.c ****   return drv_len;
 390:SynaptiX_FDK/lib/tinyusb/src/class/msc/msc_device.c **** }
 391:SynaptiX_FDK/lib/tinyusb/src/class/msc/msc_device.c **** 
 392:SynaptiX_FDK/lib/tinyusb/src/class/msc/msc_device.c **** static void proc_bot_reset(mscd_interface_t* p_msc) {
  30              		.loc 1 392 53 view -0
  31              		.cfi_startproc
  32              		@ args = 0, pretend = 0, frame = 0
  33              		@ frame_needed = 0, uses_anonymous_args = 0
  34              		@ link register save eliminated.
 393:SynaptiX_FDK/lib/tinyusb/src/class/msc/msc_device.c ****   p_msc->stage       = MSC_STAGE_CMD;
  35              		.loc 1 393 3 view .LVU1
  36              		.loc 1 393 22 is_stmt 0 view .LVU2
  37 0000 0023     		movs	r3, #0
  38 0002 80F83830 		strb	r3, [r0, #56]
 394:SynaptiX_FDK/lib/tinyusb/src/class/msc/msc_device.c ****   p_msc->total_len   = 0;
  39              		.loc 1 394 3 is_stmt 1 view .LVU3
  40              		.loc 1 394 22 is_stmt 0 view .LVU4
  41 0006 0363     		str	r3, [r0, #48]
 395:SynaptiX_FDK/lib/tinyusb/src/class/msc/msc_device.c ****   p_msc->xferred_len = 0;
  42              		.loc 1 395 3 is_stmt 1 view .LVU5
  43              		.loc 1 395 22 is_stmt 0 view .LVU6
  44 0008 4363     		str	r3, [r0, #52]
 396:SynaptiX_FDK/lib/tinyusb/src/class/msc/msc_device.c ****   p_msc->sense_key           = 0;
  45              		.loc 1 396 3 is_stmt 1 view .LVU7
  46              		.loc 1 396 30 is_stmt 0 view .LVU8
  47 000a 80F83930 		strb	r3, [r0, #57]
 397:SynaptiX_FDK/lib/tinyusb/src/class/msc/msc_device.c ****   p_msc->add_sense_code      = 0;
  48              		.loc 1 397 3 is_stmt 1 view .LVU9
  49              		.loc 1 397 30 is_stmt 0 view .LVU10
  50 000e 80F83A30 		strb	r3, [r0, #58]
 398:SynaptiX_FDK/lib/tinyusb/src/class/msc/msc_device.c ****   p_msc->add_sense_qualifier = 0;
  51              		.loc 1 398 3 is_stmt 1 view .LVU11
  52              		.loc 1 398 30 is_stmt 0 view .LVU12
  53 0012 80F83B30 		strb	r3, [r0, #59]
 399:SynaptiX_FDK/lib/tinyusb/src/class/msc/msc_device.c **** }
  54              		.loc 1 399 1 view .LVU13
  55 0016 7047     		bx	lr
  56              		.cfi_endproc
  57              	.LFE455:
  59              		.section	.text.proc_stage_status,"ax",%progbits
ARM GAS  C:\Users\DELL\AppData\Local\Temp\cc6DfR6G.s 			page 9


  60              		.align	1
  61              		.syntax unified
  62              		.thumb
  63              		.thumb_func
  65              	proc_stage_status:
  66              	.LVL1:
  67              	.LFB438:
 203:SynaptiX_FDK/lib/tinyusb/src/class/msc/msc_device.c ****   uint8_t rhport = p_msc->rhport;
  68              		.loc 1 203 56 is_stmt 1 view -0
  69              		.cfi_startproc
  70              		@ args = 0, pretend = 0, frame = 0
  71              		@ frame_needed = 0, uses_anonymous_args = 0
 203:SynaptiX_FDK/lib/tinyusb/src/class/msc/msc_device.c ****   uint8_t rhport = p_msc->rhport;
  72              		.loc 1 203 56 is_stmt 0 view .LVU15
  73 0000 70B5     		push	{r4, r5, r6, lr}
  74              	.LCFI0:
  75              		.cfi_def_cfa_offset 16
  76              		.cfi_offset 4, -16
  77              		.cfi_offset 5, -12
  78              		.cfi_offset 6, -8
  79              		.cfi_offset 14, -4
  80 0002 82B0     		sub	sp, sp, #8
  81              	.LCFI1:
  82              		.cfi_def_cfa_offset 24
  83 0004 0446     		mov	r4, r0
 204:SynaptiX_FDK/lib/tinyusb/src/class/msc/msc_device.c ****   msc_cbw_t const *p_cbw = &p_msc->cbw;
  84              		.loc 1 204 3 is_stmt 1 view .LVU16
 204:SynaptiX_FDK/lib/tinyusb/src/class/msc/msc_device.c ****   msc_cbw_t const *p_cbw = &p_msc->cbw;
  85              		.loc 1 204 11 is_stmt 0 view .LVU17
  86 0006 C67F     		ldrb	r6, [r0, #31]	@ zero_extendqisi2
  87              	.LVL2:
 205:SynaptiX_FDK/lib/tinyusb/src/class/msc/msc_device.c **** 
  88              		.loc 1 205 3 is_stmt 1 view .LVU18
 208:SynaptiX_FDK/lib/tinyusb/src/class/msc/msc_device.c ****     if ((p_cbw->total_bytes > p_msc->xferred_len) && is_data_in(p_cbw->dir)) {
  89              		.loc 1 208 3 view .LVU19
 208:SynaptiX_FDK/lib/tinyusb/src/class/msc/msc_device.c ****     if ((p_cbw->total_bytes > p_msc->xferred_len) && is_data_in(p_cbw->dir)) {
  90              		.loc 1 208 8 is_stmt 0 view .LVU20
  91 0008 90F82E10 		ldrb	r1, [r0, #46]	@ zero_extendqisi2
  92 000c 3046     		mov	r0, r6
  93              	.LVL3:
 208:SynaptiX_FDK/lib/tinyusb/src/class/msc/msc_device.c ****     if ((p_cbw->total_bytes > p_msc->xferred_len) && is_data_in(p_cbw->dir)) {
  94              		.loc 1 208 8 view .LVU21
  95 000e FFF7FEFF 		bl	usbd_edpt_stalled
  96              	.LVL4:
 208:SynaptiX_FDK/lib/tinyusb/src/class/msc/msc_device.c ****     if ((p_cbw->total_bytes > p_msc->xferred_len) && is_data_in(p_cbw->dir)) {
  97              		.loc 1 208 6 discriminator 1 view .LVU22
  98 0012 0546     		mov	r5, r0
  99 0014 F8B9     		cbnz	r0, .L3
 209:SynaptiX_FDK/lib/tinyusb/src/class/msc/msc_device.c ****       // 6.7 The 13 Cases: case 5 (Hi > Di): STALL before status
 100              		.loc 1 209 5 is_stmt 1 view .LVU23
 209:SynaptiX_FDK/lib/tinyusb/src/class/msc/msc_device.c ****       // 6.7 The 13 Cases: case 5 (Hi > Di): STALL before status
 101              		.loc 1 209 15 is_stmt 0 view .LVU24
 102 0016 A368     		ldr	r3, [r4, #8]	@ unaligned
 209:SynaptiX_FDK/lib/tinyusb/src/class/msc/msc_device.c ****       // 6.7 The 13 Cases: case 5 (Hi > Di): STALL before status
 103              		.loc 1 209 36 view .LVU25
 104 0018 626B     		ldr	r2, [r4, #52]
 209:SynaptiX_FDK/lib/tinyusb/src/class/msc/msc_device.c ****       // 6.7 The 13 Cases: case 5 (Hi > Di): STALL before status
ARM GAS  C:\Users\DELL\AppData\Local\Temp\cc6DfR6G.s 			page 10


 105              		.loc 1 209 8 view .LVU26
 106 001a 9342     		cmp	r3, r2
 107 001c 02D9     		bls	.L4
 209:SynaptiX_FDK/lib/tinyusb/src/class/msc/msc_device.c ****       // 6.7 The 13 Cases: case 5 (Hi > Di): STALL before status
 108              		.loc 1 209 70 discriminator 1 view .LVU27
 109 001e 257B     		ldrb	r5, [r4, #12]	@ zero_extendqisi2
 110              	.LVL5:
 111              	.LBB139:
 112              	.LBI139:
 108:SynaptiX_FDK/lib/tinyusb/src/class/msc/msc_device.c ****   return tu_bit_test(dir, 7);
 113              		.loc 1 108 42 is_stmt 1 view .LVU28
 114              	.LBB140:
 109:SynaptiX_FDK/lib/tinyusb/src/class/msc/msc_device.c **** }
 115              		.loc 1 109 3 view .LVU29
 116              	.LBB141:
 117              	.LBI141:
 118              		.file 2 "SynaptiX_FDK/lib/tinyusb/src/common/tusb_common.h"
   1:SynaptiX_FDK/lib/tinyusb/src/common/tusb_common.h **** /*
   2:SynaptiX_FDK/lib/tinyusb/src/common/tusb_common.h ****  * The MIT License (MIT)
   3:SynaptiX_FDK/lib/tinyusb/src/common/tusb_common.h ****  *
   4:SynaptiX_FDK/lib/tinyusb/src/common/tusb_common.h ****  * Copyright (c) 2019 Ha Thach (tinyusb.org)
   5:SynaptiX_FDK/lib/tinyusb/src/common/tusb_common.h ****  *
   6:SynaptiX_FDK/lib/tinyusb/src/common/tusb_common.h ****  * Permission is hereby granted, free of charge, to any person obtaining a copy
   7:SynaptiX_FDK/lib/tinyusb/src/common/tusb_common.h ****  * of this software and associated documentation files (the "Software"), to deal
   8:SynaptiX_FDK/lib/tinyusb/src/common/tusb_common.h ****  * in the Software without restriction, including without limitation the rights
   9:SynaptiX_FDK/lib/tinyusb/src/common/tusb_common.h ****  * to use, copy, modify, merge, publish, distribute, sublicense, and/or sell
  10:SynaptiX_FDK/lib/tinyusb/src/common/tusb_common.h ****  * copies of the Software, and to permit persons to whom the Software is
  11:SynaptiX_FDK/lib/tinyusb/src/common/tusb_common.h ****  * furnished to do so, subject to the following conditions:
  12:SynaptiX_FDK/lib/tinyusb/src/common/tusb_common.h ****  *
  13:SynaptiX_FDK/lib/tinyusb/src/common/tusb_common.h ****  * The above copyright notice and this permission notice shall be included in
  14:SynaptiX_FDK/lib/tinyusb/src/common/tusb_common.h ****  * all copies or substantial portions of the Software.
  15:SynaptiX_FDK/lib/tinyusb/src/common/tusb_common.h ****  *
  16:SynaptiX_FDK/lib/tinyusb/src/common/tusb_common.h ****  * THE SOFTWARE IS PROVIDED "AS IS", WITHOUT WARRANTY OF ANY KIND, EXPRESS OR
  17:SynaptiX_FDK/lib/tinyusb/src/common/tusb_common.h ****  * IMPLIED, INCLUDING BUT NOT LIMITED TO THE WARRANTIES OF MERCHANTABILITY,
  18:SynaptiX_FDK/lib/tinyusb/src/common/tusb_common.h ****  * FITNESS FOR A PARTICULAR PURPOSE AND NONINFRINGEMENT. IN NO EVENT SHALL THE
  19:SynaptiX_FDK/lib/tinyusb/src/common/tusb_common.h ****  * AUTHORS OR COPYRIGHT HOLDERS BE LIABLE FOR ANY CLAIM, DAMAGES OR OTHER
  20:SynaptiX_FDK/lib/tinyusb/src/common/tusb_common.h ****  * LIABILITY, WHETHER IN AN ACTION OF CONTRACT, TORT OR OTHERWISE, ARISING FROM,
  21:SynaptiX_FDK/lib/tinyusb/src/common/tusb_common.h ****  * OUT OF OR IN CONNECTION WITH THE SOFTWARE OR THE USE OR OTHER DEALINGS IN
  22:SynaptiX_FDK/lib/tinyusb/src/common/tusb_common.h ****  * THE SOFTWARE.
  23:SynaptiX_FDK/lib/tinyusb/src/common/tusb_common.h ****  *
  24:SynaptiX_FDK/lib/tinyusb/src/common/tusb_common.h ****  * This file is part of the TinyUSB stack.
  25:SynaptiX_FDK/lib/tinyusb/src/common/tusb_common.h ****  */
  26:SynaptiX_FDK/lib/tinyusb/src/common/tusb_common.h **** 
  27:SynaptiX_FDK/lib/tinyusb/src/common/tusb_common.h **** #ifndef TUSB_COMMON_H_
  28:SynaptiX_FDK/lib/tinyusb/src/common/tusb_common.h **** #define TUSB_COMMON_H_
  29:SynaptiX_FDK/lib/tinyusb/src/common/tusb_common.h **** 
  30:SynaptiX_FDK/lib/tinyusb/src/common/tusb_common.h **** #ifdef __cplusplus
  31:SynaptiX_FDK/lib/tinyusb/src/common/tusb_common.h ****  extern "C" {
  32:SynaptiX_FDK/lib/tinyusb/src/common/tusb_common.h **** #endif
  33:SynaptiX_FDK/lib/tinyusb/src/common/tusb_common.h **** 
  34:SynaptiX_FDK/lib/tinyusb/src/common/tusb_common.h **** //--------------------------------------------------------------------+
  35:SynaptiX_FDK/lib/tinyusb/src/common/tusb_common.h **** // Macros Helper
  36:SynaptiX_FDK/lib/tinyusb/src/common/tusb_common.h **** //--------------------------------------------------------------------+
  37:SynaptiX_FDK/lib/tinyusb/src/common/tusb_common.h **** #define TU_ARRAY_SIZE(_arr)           ( sizeof(_arr) / sizeof(_arr[0]) )
  38:SynaptiX_FDK/lib/tinyusb/src/common/tusb_common.h **** #define TU_FIELD_SIZE(_type, _field)  (sizeof(((_type *)0)->_field))
  39:SynaptiX_FDK/lib/tinyusb/src/common/tusb_common.h **** #define TU_MIN(_x, _y)                ( ( (_x) < (_y) ) ? (_x) : (_y) )
  40:SynaptiX_FDK/lib/tinyusb/src/common/tusb_common.h **** #define TU_MAX(_x, _y)                ( ( (_x) > (_y) ) ? (_x) : (_y) )
ARM GAS  C:\Users\DELL\AppData\Local\Temp\cc6DfR6G.s 			page 11


  41:SynaptiX_FDK/lib/tinyusb/src/common/tusb_common.h **** #define TU_DIV_CEIL(n, d)             (((n) + (d) - 1) / (d))
  42:SynaptiX_FDK/lib/tinyusb/src/common/tusb_common.h **** #define TU_DIV_ROUND_NEAREST(v, d)    (((v) + (d)/2) / (d) ) // round to nearest integer
  43:SynaptiX_FDK/lib/tinyusb/src/common/tusb_common.h **** 
  44:SynaptiX_FDK/lib/tinyusb/src/common/tusb_common.h **** #define TU_U16(_high, _low)           ((uint16_t) ((((uint16_t) (_high)) << 8) | ((uint16_t) (_low)
  45:SynaptiX_FDK/lib/tinyusb/src/common/tusb_common.h **** #define TU_U16_HIGH(_u16)             ((uint8_t) (((uint16_t) (_u16) >> 8) & 0x00ffu))
  46:SynaptiX_FDK/lib/tinyusb/src/common/tusb_common.h **** #define TU_U16_LOW(_u16)              ((uint8_t) ((uint16_t) (_u16) & 0x00ffu))
  47:SynaptiX_FDK/lib/tinyusb/src/common/tusb_common.h **** #define U16_TO_U8S_BE(_u16)           TU_U16_HIGH(_u16), TU_U16_LOW(_u16)
  48:SynaptiX_FDK/lib/tinyusb/src/common/tusb_common.h **** #define U16_TO_U8S_LE(_u16)           TU_U16_LOW(_u16), TU_U16_HIGH(_u16)
  49:SynaptiX_FDK/lib/tinyusb/src/common/tusb_common.h **** 
  50:SynaptiX_FDK/lib/tinyusb/src/common/tusb_common.h **** #define TU_U24(_high, _mid, _low)     ((uint32_t) ((((uint32_t) (_high)) << 16) | (((uint32_t) (_mi
  51:SynaptiX_FDK/lib/tinyusb/src/common/tusb_common.h **** #define TU_U24_HIGH(_u24)             ((uint8_t) (((uint32_t) (_u24) >> 16) & 0x0000ffu))
  52:SynaptiX_FDK/lib/tinyusb/src/common/tusb_common.h **** #define TU_U24_MID(_u24)              ((uint8_t) (((uint32_t) (_u24) >>  8) & 0x0000ffu))
  53:SynaptiX_FDK/lib/tinyusb/src/common/tusb_common.h **** #define TU_U24_LOW(_u24)              ((uint8_t) ((uint32_t) (_u24) & 0x0000ffu))
  54:SynaptiX_FDK/lib/tinyusb/src/common/tusb_common.h **** #define U24_TO_U8S_BE(_u24)           TU_U24_HIGH(_u24), TU_U24_MID(_u24), TU_U24_LOW(_u24)
  55:SynaptiX_FDK/lib/tinyusb/src/common/tusb_common.h **** #define U24_TO_U8S_LE(_u24)           TU_U24_LOW(_u24), TU_U24_MID(_u24), TU_U24_HIGH(_u24)
  56:SynaptiX_FDK/lib/tinyusb/src/common/tusb_common.h **** 
  57:SynaptiX_FDK/lib/tinyusb/src/common/tusb_common.h **** #define TU_U32_BYTE3(_u32)            ((uint8_t) ((((uint32_t) _u32) >> 24) & 0x000000ff)) // MSB
  58:SynaptiX_FDK/lib/tinyusb/src/common/tusb_common.h **** #define TU_U32_BYTE2(_u32)            ((uint8_t) ((((uint32_t) _u32) >> 16) & 0x000000ff))
  59:SynaptiX_FDK/lib/tinyusb/src/common/tusb_common.h **** #define TU_U32_BYTE1(_u32)            ((uint8_t) ((((uint32_t) _u32) >>  8) & 0x000000ff))
  60:SynaptiX_FDK/lib/tinyusb/src/common/tusb_common.h **** #define TU_U32_BYTE0(_u32)            ((uint8_t) (((uint32_t)  _u32)        & 0x000000ff)) // LSB
  61:SynaptiX_FDK/lib/tinyusb/src/common/tusb_common.h **** 
  62:SynaptiX_FDK/lib/tinyusb/src/common/tusb_common.h **** #define U32_TO_U8S_BE(_u32)           TU_U32_BYTE3(_u32), TU_U32_BYTE2(_u32), TU_U32_BYTE1(_u32), T
  63:SynaptiX_FDK/lib/tinyusb/src/common/tusb_common.h **** #define U32_TO_U8S_LE(_u32)           TU_U32_BYTE0(_u32), TU_U32_BYTE1(_u32), TU_U32_BYTE2(_u32), T
  64:SynaptiX_FDK/lib/tinyusb/src/common/tusb_common.h **** 
  65:SynaptiX_FDK/lib/tinyusb/src/common/tusb_common.h **** #define TU_BIT(n)                     (1UL << (n))
  66:SynaptiX_FDK/lib/tinyusb/src/common/tusb_common.h **** 
  67:SynaptiX_FDK/lib/tinyusb/src/common/tusb_common.h **** // Generate a mask with bit from high (31) to low (0) set, e.g TU_GENMASK(3, 0) = 0b1111
  68:SynaptiX_FDK/lib/tinyusb/src/common/tusb_common.h **** #define TU_GENMASK(h, l)              ( (UINT32_MAX << (l)) & (UINT32_MAX >> (31 - (h))) )
  69:SynaptiX_FDK/lib/tinyusb/src/common/tusb_common.h **** 
  70:SynaptiX_FDK/lib/tinyusb/src/common/tusb_common.h **** //--------------------------------------------------------------------+
  71:SynaptiX_FDK/lib/tinyusb/src/common/tusb_common.h **** // Includes
  72:SynaptiX_FDK/lib/tinyusb/src/common/tusb_common.h **** //--------------------------------------------------------------------+
  73:SynaptiX_FDK/lib/tinyusb/src/common/tusb_common.h **** 
  74:SynaptiX_FDK/lib/tinyusb/src/common/tusb_common.h **** // Standard Headers
  75:SynaptiX_FDK/lib/tinyusb/src/common/tusb_common.h **** #include <stdbool.h>
  76:SynaptiX_FDK/lib/tinyusb/src/common/tusb_common.h **** #include <stdint.h>
  77:SynaptiX_FDK/lib/tinyusb/src/common/tusb_common.h **** #include <inttypes.h>
  78:SynaptiX_FDK/lib/tinyusb/src/common/tusb_common.h **** #include <stddef.h>
  79:SynaptiX_FDK/lib/tinyusb/src/common/tusb_common.h **** #include <string.h>
  80:SynaptiX_FDK/lib/tinyusb/src/common/tusb_common.h **** 
  81:SynaptiX_FDK/lib/tinyusb/src/common/tusb_common.h **** // Tinyusb Common Headers
  82:SynaptiX_FDK/lib/tinyusb/src/common/tusb_common.h **** #include "tusb_option.h"
  83:SynaptiX_FDK/lib/tinyusb/src/common/tusb_common.h **** #include "tusb_compiler.h"
  84:SynaptiX_FDK/lib/tinyusb/src/common/tusb_common.h **** #include "tusb_verify.h"
  85:SynaptiX_FDK/lib/tinyusb/src/common/tusb_common.h **** #include "tusb_types.h"
  86:SynaptiX_FDK/lib/tinyusb/src/common/tusb_common.h **** #include "tusb_debug.h"
  87:SynaptiX_FDK/lib/tinyusb/src/common/tusb_common.h **** 
  88:SynaptiX_FDK/lib/tinyusb/src/common/tusb_common.h **** //--------------------------------------------------------------------+
  89:SynaptiX_FDK/lib/tinyusb/src/common/tusb_common.h **** // API implemented by application if needed
  90:SynaptiX_FDK/lib/tinyusb/src/common/tusb_common.h **** // TODO move to a more obvious place/file
  91:SynaptiX_FDK/lib/tinyusb/src/common/tusb_common.h **** //--------------------------------------------------------------------+
  92:SynaptiX_FDK/lib/tinyusb/src/common/tusb_common.h **** 
  93:SynaptiX_FDK/lib/tinyusb/src/common/tusb_common.h **** // Get current milliseconds, required by some port/configuration without RTOS
  94:SynaptiX_FDK/lib/tinyusb/src/common/tusb_common.h **** extern uint32_t tusb_time_millis_api(void);
  95:SynaptiX_FDK/lib/tinyusb/src/common/tusb_common.h **** 
  96:SynaptiX_FDK/lib/tinyusb/src/common/tusb_common.h **** // Delay in milliseconds, use tusb_time_millis_api() by default. required by some port/configuratio
  97:SynaptiX_FDK/lib/tinyusb/src/common/tusb_common.h **** extern void tusb_time_delay_ms_api(uint32_t ms);
ARM GAS  C:\Users\DELL\AppData\Local\Temp\cc6DfR6G.s 			page 12


  98:SynaptiX_FDK/lib/tinyusb/src/common/tusb_common.h **** 
  99:SynaptiX_FDK/lib/tinyusb/src/common/tusb_common.h **** // flush data cache
 100:SynaptiX_FDK/lib/tinyusb/src/common/tusb_common.h **** extern void tusb_app_dcache_flush(uintptr_t addr, uint32_t data_size);
 101:SynaptiX_FDK/lib/tinyusb/src/common/tusb_common.h **** 
 102:SynaptiX_FDK/lib/tinyusb/src/common/tusb_common.h **** // invalidate data cache
 103:SynaptiX_FDK/lib/tinyusb/src/common/tusb_common.h **** extern void tusb_app_dcache_invalidate(uintptr_t addr, uint32_t data_size);
 104:SynaptiX_FDK/lib/tinyusb/src/common/tusb_common.h **** 
 105:SynaptiX_FDK/lib/tinyusb/src/common/tusb_common.h **** // Optional physical <-> virtual address translation
 106:SynaptiX_FDK/lib/tinyusb/src/common/tusb_common.h **** extern void* tusb_app_virt_to_phys(void *virt_addr);
 107:SynaptiX_FDK/lib/tinyusb/src/common/tusb_common.h **** extern void* tusb_app_phys_to_virt(void *phys_addr);
 108:SynaptiX_FDK/lib/tinyusb/src/common/tusb_common.h **** 
 109:SynaptiX_FDK/lib/tinyusb/src/common/tusb_common.h **** //--------------------------------------------------------------------+
 110:SynaptiX_FDK/lib/tinyusb/src/common/tusb_common.h **** // Internal Inline Functions
 111:SynaptiX_FDK/lib/tinyusb/src/common/tusb_common.h **** //--------------------------------------------------------------------+
 112:SynaptiX_FDK/lib/tinyusb/src/common/tusb_common.h **** 
 113:SynaptiX_FDK/lib/tinyusb/src/common/tusb_common.h **** //------------- Mem -------------//
 114:SynaptiX_FDK/lib/tinyusb/src/common/tusb_common.h **** #define tu_memclr(buffer, size)  (void) memset((buffer), 0, (size))
 115:SynaptiX_FDK/lib/tinyusb/src/common/tusb_common.h **** #define tu_varclr(_var)          tu_memclr(_var, sizeof(*(_var)))
 116:SynaptiX_FDK/lib/tinyusb/src/common/tusb_common.h **** 
 117:SynaptiX_FDK/lib/tinyusb/src/common/tusb_common.h **** // This is a backport of memset_s from c11
 118:SynaptiX_FDK/lib/tinyusb/src/common/tusb_common.h **** TU_ATTR_ALWAYS_INLINE static inline int tu_memset_s(void *dest, size_t destsz, int ch, size_t count
 119:SynaptiX_FDK/lib/tinyusb/src/common/tusb_common.h ****   // Validate parameters
 120:SynaptiX_FDK/lib/tinyusb/src/common/tusb_common.h ****   if (dest == NULL) {
 121:SynaptiX_FDK/lib/tinyusb/src/common/tusb_common.h ****     return -1;
 122:SynaptiX_FDK/lib/tinyusb/src/common/tusb_common.h ****   }
 123:SynaptiX_FDK/lib/tinyusb/src/common/tusb_common.h **** 
 124:SynaptiX_FDK/lib/tinyusb/src/common/tusb_common.h ****   if (count == 0u) {
 125:SynaptiX_FDK/lib/tinyusb/src/common/tusb_common.h ****     return 0;
 126:SynaptiX_FDK/lib/tinyusb/src/common/tusb_common.h ****   }
 127:SynaptiX_FDK/lib/tinyusb/src/common/tusb_common.h **** 
 128:SynaptiX_FDK/lib/tinyusb/src/common/tusb_common.h ****   if (count > destsz) {
 129:SynaptiX_FDK/lib/tinyusb/src/common/tusb_common.h ****     return -1;
 130:SynaptiX_FDK/lib/tinyusb/src/common/tusb_common.h ****   }
 131:SynaptiX_FDK/lib/tinyusb/src/common/tusb_common.h **** 
 132:SynaptiX_FDK/lib/tinyusb/src/common/tusb_common.h ****   (void) memset(dest, ch, count);
 133:SynaptiX_FDK/lib/tinyusb/src/common/tusb_common.h ****   return 0;
 134:SynaptiX_FDK/lib/tinyusb/src/common/tusb_common.h **** }
 135:SynaptiX_FDK/lib/tinyusb/src/common/tusb_common.h **** 
 136:SynaptiX_FDK/lib/tinyusb/src/common/tusb_common.h **** // This is a backport of memcpy_s from c11
 137:SynaptiX_FDK/lib/tinyusb/src/common/tusb_common.h **** TU_ATTR_ALWAYS_INLINE static inline int tu_memcpy_s(void *dest, size_t destsz, const void *src, siz
 138:SynaptiX_FDK/lib/tinyusb/src/common/tusb_common.h ****   if (dest == NULL) {
 139:SynaptiX_FDK/lib/tinyusb/src/common/tusb_common.h ****     return -1;
 140:SynaptiX_FDK/lib/tinyusb/src/common/tusb_common.h ****   }
 141:SynaptiX_FDK/lib/tinyusb/src/common/tusb_common.h **** 
 142:SynaptiX_FDK/lib/tinyusb/src/common/tusb_common.h ****   if (count == 0u) {
 143:SynaptiX_FDK/lib/tinyusb/src/common/tusb_common.h ****     return 0;
 144:SynaptiX_FDK/lib/tinyusb/src/common/tusb_common.h ****   }
 145:SynaptiX_FDK/lib/tinyusb/src/common/tusb_common.h **** 
 146:SynaptiX_FDK/lib/tinyusb/src/common/tusb_common.h ****   if (src == NULL) {
 147:SynaptiX_FDK/lib/tinyusb/src/common/tusb_common.h ****     return -1;
 148:SynaptiX_FDK/lib/tinyusb/src/common/tusb_common.h ****   }
 149:SynaptiX_FDK/lib/tinyusb/src/common/tusb_common.h **** 
 150:SynaptiX_FDK/lib/tinyusb/src/common/tusb_common.h ****   if (count > destsz) {
 151:SynaptiX_FDK/lib/tinyusb/src/common/tusb_common.h ****     return -1;
 152:SynaptiX_FDK/lib/tinyusb/src/common/tusb_common.h ****   }
 153:SynaptiX_FDK/lib/tinyusb/src/common/tusb_common.h **** 
 154:SynaptiX_FDK/lib/tinyusb/src/common/tusb_common.h ****   (void) memcpy(dest, src, count);
ARM GAS  C:\Users\DELL\AppData\Local\Temp\cc6DfR6G.s 			page 13


 155:SynaptiX_FDK/lib/tinyusb/src/common/tusb_common.h ****   return 0;
 156:SynaptiX_FDK/lib/tinyusb/src/common/tusb_common.h **** }
 157:SynaptiX_FDK/lib/tinyusb/src/common/tusb_common.h **** 
 158:SynaptiX_FDK/lib/tinyusb/src/common/tusb_common.h **** TU_ATTR_ALWAYS_INLINE static inline bool tu_mem_is_zero(const void *buffer, size_t size) {
 159:SynaptiX_FDK/lib/tinyusb/src/common/tusb_common.h ****   const uint8_t* buf8 = (const uint8_t*) buffer;
 160:SynaptiX_FDK/lib/tinyusb/src/common/tusb_common.h ****   for (size_t i = 0; i < size; i++) {
 161:SynaptiX_FDK/lib/tinyusb/src/common/tusb_common.h ****     if (buf8[i] != 0) { return false; }
 162:SynaptiX_FDK/lib/tinyusb/src/common/tusb_common.h ****   }
 163:SynaptiX_FDK/lib/tinyusb/src/common/tusb_common.h ****   return true;
 164:SynaptiX_FDK/lib/tinyusb/src/common/tusb_common.h **** }
 165:SynaptiX_FDK/lib/tinyusb/src/common/tusb_common.h **** 
 166:SynaptiX_FDK/lib/tinyusb/src/common/tusb_common.h **** TU_ATTR_ALWAYS_INLINE static inline bool tu_mem_is_ff(const void *buffer, size_t size) {
 167:SynaptiX_FDK/lib/tinyusb/src/common/tusb_common.h ****   const uint8_t* buf8 = (const uint8_t*) buffer;
 168:SynaptiX_FDK/lib/tinyusb/src/common/tusb_common.h ****   for (size_t i = 0; i < size; i++) {
 169:SynaptiX_FDK/lib/tinyusb/src/common/tusb_common.h ****     if (buf8[i] != 0xff) { return false; }
 170:SynaptiX_FDK/lib/tinyusb/src/common/tusb_common.h ****   }
 171:SynaptiX_FDK/lib/tinyusb/src/common/tusb_common.h ****   return true;
 172:SynaptiX_FDK/lib/tinyusb/src/common/tusb_common.h **** }
 173:SynaptiX_FDK/lib/tinyusb/src/common/tusb_common.h **** 
 174:SynaptiX_FDK/lib/tinyusb/src/common/tusb_common.h **** 
 175:SynaptiX_FDK/lib/tinyusb/src/common/tusb_common.h **** //------------- Bytes -------------//
 176:SynaptiX_FDK/lib/tinyusb/src/common/tusb_common.h **** TU_ATTR_ALWAYS_INLINE static inline uint32_t tu_u32(uint8_t b3, uint8_t b2, uint8_t b1, uint8_t b0)
 177:SynaptiX_FDK/lib/tinyusb/src/common/tusb_common.h ****   return (((uint32_t)b3) << 24) | (((uint32_t)b2) << 16) | (((uint32_t)b1) << 8) | b0;
 178:SynaptiX_FDK/lib/tinyusb/src/common/tusb_common.h **** }
 179:SynaptiX_FDK/lib/tinyusb/src/common/tusb_common.h **** 
 180:SynaptiX_FDK/lib/tinyusb/src/common/tusb_common.h **** TU_ATTR_ALWAYS_INLINE static inline uint32_t tu_u32_from_u16(uint16_t high, uint16_t low) {
 181:SynaptiX_FDK/lib/tinyusb/src/common/tusb_common.h ****   return (((uint32_t)high) << 16) | low;
 182:SynaptiX_FDK/lib/tinyusb/src/common/tusb_common.h **** }
 183:SynaptiX_FDK/lib/tinyusb/src/common/tusb_common.h **** 
 184:SynaptiX_FDK/lib/tinyusb/src/common/tusb_common.h **** TU_ATTR_ALWAYS_INLINE static inline uint16_t tu_u16(uint8_t high, uint8_t low) {
 185:SynaptiX_FDK/lib/tinyusb/src/common/tusb_common.h ****   return (uint16_t)((((uint16_t)high) << 8) | low);
 186:SynaptiX_FDK/lib/tinyusb/src/common/tusb_common.h **** }
 187:SynaptiX_FDK/lib/tinyusb/src/common/tusb_common.h **** 
 188:SynaptiX_FDK/lib/tinyusb/src/common/tusb_common.h **** TU_ATTR_ALWAYS_INLINE static inline uint8_t tu_u32_byte3(uint32_t ui32) { return TU_U32_BYTE3(ui32)
 189:SynaptiX_FDK/lib/tinyusb/src/common/tusb_common.h **** TU_ATTR_ALWAYS_INLINE static inline uint8_t tu_u32_byte2(uint32_t ui32) { return TU_U32_BYTE2(ui32)
 190:SynaptiX_FDK/lib/tinyusb/src/common/tusb_common.h **** TU_ATTR_ALWAYS_INLINE static inline uint8_t tu_u32_byte1(uint32_t ui32) { return TU_U32_BYTE1(ui32)
 191:SynaptiX_FDK/lib/tinyusb/src/common/tusb_common.h **** TU_ATTR_ALWAYS_INLINE static inline uint8_t tu_u32_byte0(uint32_t ui32) { return TU_U32_BYTE0(ui32)
 192:SynaptiX_FDK/lib/tinyusb/src/common/tusb_common.h **** 
 193:SynaptiX_FDK/lib/tinyusb/src/common/tusb_common.h **** TU_ATTR_ALWAYS_INLINE static inline uint16_t tu_u32_high16(uint32_t ui32) { return (uint16_t) (ui32
 194:SynaptiX_FDK/lib/tinyusb/src/common/tusb_common.h **** TU_ATTR_ALWAYS_INLINE static inline uint16_t tu_u32_low16 (uint32_t ui32) { return (uint16_t) (ui32
 195:SynaptiX_FDK/lib/tinyusb/src/common/tusb_common.h **** 
 196:SynaptiX_FDK/lib/tinyusb/src/common/tusb_common.h **** TU_ATTR_ALWAYS_INLINE static inline uint8_t tu_u16_high(uint16_t ui16) { return TU_U16_HIGH(ui16); 
 197:SynaptiX_FDK/lib/tinyusb/src/common/tusb_common.h **** TU_ATTR_ALWAYS_INLINE static inline uint8_t tu_u16_low (uint16_t ui16) { return TU_U16_LOW(ui16); }
 198:SynaptiX_FDK/lib/tinyusb/src/common/tusb_common.h **** 
 199:SynaptiX_FDK/lib/tinyusb/src/common/tusb_common.h **** //------------- Bits -------------//
 200:SynaptiX_FDK/lib/tinyusb/src/common/tusb_common.h **** TU_ATTR_ALWAYS_INLINE static inline uint32_t tu_bit_set  (uint32_t value, uint8_t pos) { return val
 201:SynaptiX_FDK/lib/tinyusb/src/common/tusb_common.h **** TU_ATTR_ALWAYS_INLINE static inline uint32_t tu_bit_clear(uint32_t value, uint8_t pos) { return val
 202:SynaptiX_FDK/lib/tinyusb/src/common/tusb_common.h **** TU_ATTR_ALWAYS_INLINE static inline bool     tu_bit_test (uint32_t value, uint8_t pos) { return (va
 119              		.loc 2 202 46 view .LVU30
 120              	.LBB142:
 121              		.loc 2 202 90 view .LVU31
 122              		.loc 2 202 90 is_stmt 0 view .LVU32
 123              	.LBE142:
 124              	.LBE141:
 125              	.LBE140:
 126              	.LBE139:
 209:SynaptiX_FDK/lib/tinyusb/src/class/msc/msc_device.c ****       // 6.7 The 13 Cases: case 5 (Hi > Di): STALL before status
ARM GAS  C:\Users\DELL\AppData\Local\Temp\cc6DfR6G.s 			page 14


 127              		.loc 1 209 51 discriminator 1 view .LVU33
 128 0020 ED09     		lsrs	r5, r5, #7
 129 0022 1BD1     		bne	.L7
 130              	.L4:
 214:SynaptiX_FDK/lib/tinyusb/src/class/msc/msc_device.c ****     }
 131              		.loc 1 214 7 is_stmt 1 view .LVU34
 214:SynaptiX_FDK/lib/tinyusb/src/class/msc/msc_device.c ****     }
 132              		.loc 1 214 7 view .LVU35
 133              	.LVL6:
 134              	.LBB143:
 135              	.LBI143:
 112:SynaptiX_FDK/lib/tinyusb/src/class/msc/msc_device.c ****   // Data residue is always = host expect - actual transferred
 136              		.loc 1 112 42 view .LVU36
 137              	.LBB144:
 114:SynaptiX_FDK/lib/tinyusb/src/class/msc/msc_device.c ****   p_msc->csw.data_residue = p_msc->cbw.total_bytes - p_msc->xferred_len;
 138              		.loc 1 114 3 view .LVU37
 115:SynaptiX_FDK/lib/tinyusb/src/class/msc/msc_device.c ****   p_msc->stage = MSC_STAGE_STATUS_SENT;
 139              		.loc 1 115 3 view .LVU38
 115:SynaptiX_FDK/lib/tinyusb/src/class/msc/msc_device.c ****   p_msc->stage = MSC_STAGE_STATUS_SENT;
 140              		.loc 1 115 52 is_stmt 0 view .LVU39
 141 0024 9B1A     		subs	r3, r3, r2
 115:SynaptiX_FDK/lib/tinyusb/src/class/msc/msc_device.c ****   p_msc->stage = MSC_STAGE_STATUS_SENT;
 142              		.loc 1 115 27 view .LVU40
 143 0026 A362     		str	r3, [r4, #40]
 116:SynaptiX_FDK/lib/tinyusb/src/class/msc/msc_device.c ****   memcpy(_mscd_epbuf.buf, &p_msc->csw, sizeof(msc_csw_t)); //-V1086
 144              		.loc 1 116 3 is_stmt 1 view .LVU41
 116:SynaptiX_FDK/lib/tinyusb/src/class/msc/msc_device.c ****   memcpy(_mscd_epbuf.buf, &p_msc->csw, sizeof(msc_csw_t)); //-V1086
 145              		.loc 1 116 16 is_stmt 0 view .LVU42
 146 0028 0323     		movs	r3, #3
 147 002a 84F83830 		strb	r3, [r4, #56]
 117:SynaptiX_FDK/lib/tinyusb/src/class/msc/msc_device.c ****   return usbd_edpt_xfer(rhport, p_msc->ep_in , _mscd_epbuf.buf, sizeof(msc_csw_t), false);
 148              		.loc 1 117 3 is_stmt 1 view .LVU43
 149 002e 134D     		ldr	r5, .L9
 150 0030 2B46     		mov	r3, r5
 151 0032 206A     		ldr	r0, [r4, #32]	@ unaligned
 152 0034 616A     		ldr	r1, [r4, #36]	@ unaligned
 153 0036 A26A     		ldr	r2, [r4, #40]	@ unaligned
 154 0038 07C3     		stmia	r3!, {r0, r1, r2}
 155 003a 94F82C20 		ldrb	r2, [r4, #44]	@ zero_extendqisi2
 156 003e 1A70     		strb	r2, [r3]
 118:SynaptiX_FDK/lib/tinyusb/src/class/msc/msc_device.c **** }
 157              		.loc 1 118 3 view .LVU44
 118:SynaptiX_FDK/lib/tinyusb/src/class/msc/msc_device.c **** }
 158              		.loc 1 118 10 is_stmt 0 view .LVU45
 159 0040 0023     		movs	r3, #0
 160 0042 0093     		str	r3, [sp]
 161              	.LVL7:
 118:SynaptiX_FDK/lib/tinyusb/src/class/msc/msc_device.c **** }
 162              		.loc 1 118 10 view .LVU46
 163 0044 0D23     		movs	r3, #13
 164 0046 2A46     		mov	r2, r5
 165 0048 94F82E10 		ldrb	r1, [r4, #46]	@ zero_extendqisi2
 166 004c E07F     		ldrb	r0, [r4, #31]	@ zero_extendqisi2
 167              	.LVL8:
 118:SynaptiX_FDK/lib/tinyusb/src/class/msc/msc_device.c **** }
 168              		.loc 1 118 10 view .LVU47
 169 004e FFF7FEFF 		bl	usbd_edpt_xfer
ARM GAS  C:\Users\DELL\AppData\Local\Temp\cc6DfR6G.s 			page 15


 170              	.LVL9:
 118:SynaptiX_FDK/lib/tinyusb/src/class/msc/msc_device.c **** }
 171              		.loc 1 118 10 view .LVU48
 172              	.LBE144:
 173              	.LBE143:
 214:SynaptiX_FDK/lib/tinyusb/src/class/msc/msc_device.c ****     }
 174              		.loc 1 214 7 discriminator 1 view .LVU49
 175 0052 0546     		mov	r5, r0
 176 0054 40B1     		cbz	r0, .L8
 177              	.L3:
 228:SynaptiX_FDK/lib/tinyusb/src/class/msc/msc_device.c **** 
 178              		.loc 1 228 1 view .LVU50
 179 0056 2846     		mov	r0, r5
 180 0058 02B0     		add	sp, sp, #8
 181              	.LCFI2:
 182              		.cfi_remember_state
 183              		.cfi_def_cfa_offset 16
 184              		@ sp needed
 185 005a 70BD     		pop	{r4, r5, r6, pc}
 186              	.LVL10:
 187              	.L7:
 188              	.LCFI3:
 189              		.cfi_restore_state
 212:SynaptiX_FDK/lib/tinyusb/src/class/msc/msc_device.c ****     } else {
 190              		.loc 1 212 7 is_stmt 1 view .LVU51
 191 005c 94F82E10 		ldrb	r1, [r4, #46]	@ zero_extendqisi2
 192 0060 3046     		mov	r0, r6
 193 0062 FFF7FEFF 		bl	usbd_edpt_stall
 194              	.LVL11:
 195 0066 F6E7     		b	.L3
 196              	.L8:
 214:SynaptiX_FDK/lib/tinyusb/src/class/msc/msc_device.c ****     }
 197              		.loc 1 214 7 discriminator 1 view .LVU52
 214:SynaptiX_FDK/lib/tinyusb/src/class/msc/msc_device.c ****     }
 198              		.loc 1 214 7 discriminator 1 view .LVU53
 214:SynaptiX_FDK/lib/tinyusb/src/class/msc/msc_device.c ****     }
 199              		.loc 1 214 7 discriminator 1 view .LVU54
 214:SynaptiX_FDK/lib/tinyusb/src/class/msc/msc_device.c ****     }
 200              		.loc 1 214 7 discriminator 1 view .LVU55
 201              	.LBB145:
 214:SynaptiX_FDK/lib/tinyusb/src/class/msc/msc_device.c ****     }
 202              		.loc 1 214 7 discriminator 1 view .LVU56
 203              	.LVL12:
 214:SynaptiX_FDK/lib/tinyusb/src/class/msc/msc_device.c ****     }
 204              		.loc 1 214 7 view .LVU57
 214:SynaptiX_FDK/lib/tinyusb/src/class/msc/msc_device.c ****     }
 205              		.loc 1 214 7 is_stmt 0 discriminator 1 view .LVU58
 206 0068 4FF0E023 		mov	r3, #-536813568
 207 006c D3F8F03D 		ldr	r3, [r3, #3568]
 208 0070 13F0010F 		tst	r3, #1
 209 0074 EFD0     		beq	.L3
 214:SynaptiX_FDK/lib/tinyusb/src/class/msc/msc_device.c ****     }
 210              		.loc 1 214 7 is_stmt 1 discriminator 2 view .LVU59
 211              		.syntax unified
 212              	@ 214 "SynaptiX_FDK/lib/tinyusb/src/class/msc/msc_device.c" 1
 213 0076 00BE     		BKPT #0
 214              	
ARM GAS  C:\Users\DELL\AppData\Local\Temp\cc6DfR6G.s 			page 16


 215              	@ 0 "" 2
 216              		.thumb
 217              		.syntax unified
 218              	.LBE145:
 214:SynaptiX_FDK/lib/tinyusb/src/class/msc/msc_device.c ****     }
 219              		.loc 1 214 7 discriminator 4 view .LVU60
 214:SynaptiX_FDK/lib/tinyusb/src/class/msc/msc_device.c ****     }
 220              		.loc 1 214 7 discriminator 4 view .LVU61
 214:SynaptiX_FDK/lib/tinyusb/src/class/msc/msc_device.c ****     }
 221              		.loc 1 214 7 is_stmt 0 view .LVU62
 222 0078 EDE7     		b	.L3
 223              	.L10:
 224 007a 00BF     		.align	2
 225              	.L9:
 226 007c 00000000 		.word	_mscd_epbuf
 227              		.cfi_endproc
 228              	.LFE438:
 230              		.section	.text.rdwr10_validate_cmd,"ax",%progbits
 231              		.align	1
 232              		.syntax unified
 233              		.thumb
 234              		.thumb_func
 236              	rdwr10_validate_cmd:
 237              	.LVL13:
 238              	.LFB437:
 171:SynaptiX_FDK/lib/tinyusb/src/class/msc/msc_device.c ****   uint8_t status = MSC_CSW_STATUS_PASSED;
 239              		.loc 1 171 58 is_stmt 1 view -0
 240              		.cfi_startproc
 241              		@ args = 0, pretend = 0, frame = 0
 242              		@ frame_needed = 0, uses_anonymous_args = 0
 172:SynaptiX_FDK/lib/tinyusb/src/class/msc/msc_device.c ****   uint16_t const block_count = rdwr10_get_blockcount(cbw);
 243              		.loc 1 172 3 view .LVU64
 173:SynaptiX_FDK/lib/tinyusb/src/class/msc/msc_device.c **** 
 244              		.loc 1 173 3 view .LVU65
 245              	.LBB146:
 246              	.LBI146:
 157:SynaptiX_FDK/lib/tinyusb/src/class/msc/msc_device.c ****   uint16_t const block_count = tu_unaligned_read16(cbw->command + offsetof(scsi_write10_t, block_co
 247              		.loc 1 157 46 view .LVU66
 248              	.LBB147:
 158:SynaptiX_FDK/lib/tinyusb/src/class/msc/msc_device.c ****   return tu_ntohs(block_count);
 249              		.loc 1 158 3 view .LVU67
 250              	.LBB148:
 251              	.LBI148:
 203:SynaptiX_FDK/lib/tinyusb/src/common/tusb_common.h **** 
 204:SynaptiX_FDK/lib/tinyusb/src/common/tusb_common.h **** //------------- Min -------------//
 205:SynaptiX_FDK/lib/tinyusb/src/common/tusb_common.h **** TU_ATTR_ALWAYS_INLINE static inline uint8_t  tu_min8  (uint8_t  x, uint8_t y ) { return (x < y) ? x
 206:SynaptiX_FDK/lib/tinyusb/src/common/tusb_common.h **** TU_ATTR_ALWAYS_INLINE static inline uint16_t tu_min16 (uint16_t x, uint16_t y) { return (x < y) ? x
 207:SynaptiX_FDK/lib/tinyusb/src/common/tusb_common.h **** TU_ATTR_ALWAYS_INLINE static inline uint32_t tu_min32 (uint32_t x, uint32_t y) { return (x < y) ? x
 208:SynaptiX_FDK/lib/tinyusb/src/common/tusb_common.h **** 
 209:SynaptiX_FDK/lib/tinyusb/src/common/tusb_common.h **** //------------- Max -------------//
 210:SynaptiX_FDK/lib/tinyusb/src/common/tusb_common.h **** TU_ATTR_ALWAYS_INLINE static inline uint8_t  tu_max8  (uint8_t  x, uint8_t y ) { return (x > y) ? x
 211:SynaptiX_FDK/lib/tinyusb/src/common/tusb_common.h **** TU_ATTR_ALWAYS_INLINE static inline uint16_t tu_max16 (uint16_t x, uint16_t y) { return (x > y) ? x
 212:SynaptiX_FDK/lib/tinyusb/src/common/tusb_common.h **** TU_ATTR_ALWAYS_INLINE static inline uint32_t tu_max32 (uint32_t x, uint32_t y) { return (x > y) ? x
 213:SynaptiX_FDK/lib/tinyusb/src/common/tusb_common.h **** 
 214:SynaptiX_FDK/lib/tinyusb/src/common/tusb_common.h **** //------------- Align -------------//
 215:SynaptiX_FDK/lib/tinyusb/src/common/tusb_common.h **** TU_ATTR_ALWAYS_INLINE static inline uint32_t tu_align(uint32_t value, uint32_t alignment) {
 216:SynaptiX_FDK/lib/tinyusb/src/common/tusb_common.h ****   return value & ((uint32_t) ~(alignment-1));
ARM GAS  C:\Users\DELL\AppData\Local\Temp\cc6DfR6G.s 			page 17


 217:SynaptiX_FDK/lib/tinyusb/src/common/tusb_common.h **** }
 218:SynaptiX_FDK/lib/tinyusb/src/common/tusb_common.h **** 
 219:SynaptiX_FDK/lib/tinyusb/src/common/tusb_common.h **** TU_ATTR_ALWAYS_INLINE static inline uint32_t tu_align4  (uint32_t value) { return (value & 0xFFFFFF
 220:SynaptiX_FDK/lib/tinyusb/src/common/tusb_common.h **** TU_ATTR_ALWAYS_INLINE static inline uint32_t tu_align8  (uint32_t value) { return (value & 0xFFFFFF
 221:SynaptiX_FDK/lib/tinyusb/src/common/tusb_common.h **** TU_ATTR_ALWAYS_INLINE static inline uint32_t tu_align16 (uint32_t value) { return (value & 0xFFFFFF
 222:SynaptiX_FDK/lib/tinyusb/src/common/tusb_common.h **** TU_ATTR_ALWAYS_INLINE static inline uint32_t tu_align32 (uint32_t value) { return (value & 0xFFFFFF
 223:SynaptiX_FDK/lib/tinyusb/src/common/tusb_common.h **** TU_ATTR_ALWAYS_INLINE static inline uint32_t tu_align4k (uint32_t value) { return (value & 0xFFFFF0
 224:SynaptiX_FDK/lib/tinyusb/src/common/tusb_common.h **** TU_ATTR_ALWAYS_INLINE static inline uint32_t tu_offset4k(uint32_t value) { return (value & 0xFFFUL)
 225:SynaptiX_FDK/lib/tinyusb/src/common/tusb_common.h **** 
 226:SynaptiX_FDK/lib/tinyusb/src/common/tusb_common.h **** TU_ATTR_ALWAYS_INLINE static inline bool tu_is_aligned32(uint32_t value) { return (value & 0x1FUL) 
 227:SynaptiX_FDK/lib/tinyusb/src/common/tusb_common.h **** TU_ATTR_ALWAYS_INLINE static inline bool tu_is_aligned64(uint64_t value) { return (value & 0x3FUL) 
 228:SynaptiX_FDK/lib/tinyusb/src/common/tusb_common.h **** 
 229:SynaptiX_FDK/lib/tinyusb/src/common/tusb_common.h **** //------------- Mathematics -------------//
 230:SynaptiX_FDK/lib/tinyusb/src/common/tusb_common.h **** TU_ATTR_ALWAYS_INLINE static inline uint32_t tu_div_ceil(uint32_t v, uint32_t d) { return TU_DIV_CE
 231:SynaptiX_FDK/lib/tinyusb/src/common/tusb_common.h **** TU_ATTR_ALWAYS_INLINE static inline uint32_t tu_div_round_nearest(uint32_t v, uint32_t d) { return 
 232:SynaptiX_FDK/lib/tinyusb/src/common/tusb_common.h **** 
 233:SynaptiX_FDK/lib/tinyusb/src/common/tusb_common.h **** TU_ATTR_ALWAYS_INLINE static inline uint32_t tu_round_up(uint32_t v, uint32_t f) { return tu_div_ce
 234:SynaptiX_FDK/lib/tinyusb/src/common/tusb_common.h **** 
 235:SynaptiX_FDK/lib/tinyusb/src/common/tusb_common.h **** // log2 of a value is its MSB's position
 236:SynaptiX_FDK/lib/tinyusb/src/common/tusb_common.h **** // TODO use clz TODO remove
 237:SynaptiX_FDK/lib/tinyusb/src/common/tusb_common.h **** TU_ATTR_ALWAYS_INLINE static inline uint8_t tu_log2(uint32_t value) {
 238:SynaptiX_FDK/lib/tinyusb/src/common/tusb_common.h ****   uint8_t result = 0;
 239:SynaptiX_FDK/lib/tinyusb/src/common/tusb_common.h ****   while ((value >>= 1u) != 0u) {
 240:SynaptiX_FDK/lib/tinyusb/src/common/tusb_common.h ****     result++;
 241:SynaptiX_FDK/lib/tinyusb/src/common/tusb_common.h ****   }
 242:SynaptiX_FDK/lib/tinyusb/src/common/tusb_common.h ****   return result;
 243:SynaptiX_FDK/lib/tinyusb/src/common/tusb_common.h **** }
 244:SynaptiX_FDK/lib/tinyusb/src/common/tusb_common.h **** 
 245:SynaptiX_FDK/lib/tinyusb/src/common/tusb_common.h **** //static inline uint8_t tu_log2(uint32_t value)
 246:SynaptiX_FDK/lib/tinyusb/src/common/tusb_common.h **** //{
 247:SynaptiX_FDK/lib/tinyusb/src/common/tusb_common.h **** //   return sizeof(uint32_t) * CHAR_BIT - __builtin_clz(x) - 1;
 248:SynaptiX_FDK/lib/tinyusb/src/common/tusb_common.h **** //}
 249:SynaptiX_FDK/lib/tinyusb/src/common/tusb_common.h **** 
 250:SynaptiX_FDK/lib/tinyusb/src/common/tusb_common.h **** TU_ATTR_ALWAYS_INLINE static inline bool tu_is_power_of_two(uint32_t value) {
 251:SynaptiX_FDK/lib/tinyusb/src/common/tusb_common.h ****    return (value != 0) && ((value & (value - 1)) == 0);
 252:SynaptiX_FDK/lib/tinyusb/src/common/tusb_common.h **** }
 253:SynaptiX_FDK/lib/tinyusb/src/common/tusb_common.h **** 
 254:SynaptiX_FDK/lib/tinyusb/src/common/tusb_common.h **** //------------- Unaligned Access -------------//
 255:SynaptiX_FDK/lib/tinyusb/src/common/tusb_common.h **** #if TUP_ARCH_STRICT_ALIGN
 256:SynaptiX_FDK/lib/tinyusb/src/common/tusb_common.h **** 
 257:SynaptiX_FDK/lib/tinyusb/src/common/tusb_common.h **** // Rely on compiler to generate correct code for unaligned access
 258:SynaptiX_FDK/lib/tinyusb/src/common/tusb_common.h **** typedef struct { uint16_t val; } TU_ATTR_PACKED tu_unaligned_uint16_t;
 259:SynaptiX_FDK/lib/tinyusb/src/common/tusb_common.h **** typedef struct { uint32_t val; } TU_ATTR_PACKED tu_unaligned_uint32_t;
 260:SynaptiX_FDK/lib/tinyusb/src/common/tusb_common.h **** 
 261:SynaptiX_FDK/lib/tinyusb/src/common/tusb_common.h **** TU_ATTR_ALWAYS_INLINE static inline uint32_t tu_unaligned_read32(const void *mem) {
 262:SynaptiX_FDK/lib/tinyusb/src/common/tusb_common.h ****   tu_unaligned_uint32_t const *ua32 = (tu_unaligned_uint32_t const *) mem;
 263:SynaptiX_FDK/lib/tinyusb/src/common/tusb_common.h ****   return ua32->val;
 264:SynaptiX_FDK/lib/tinyusb/src/common/tusb_common.h **** }
 265:SynaptiX_FDK/lib/tinyusb/src/common/tusb_common.h **** 
 266:SynaptiX_FDK/lib/tinyusb/src/common/tusb_common.h **** TU_ATTR_ALWAYS_INLINE static inline void tu_unaligned_write32(void *mem, uint32_t value) {
 267:SynaptiX_FDK/lib/tinyusb/src/common/tusb_common.h ****   tu_unaligned_uint32_t *ua32 = (tu_unaligned_uint32_t *) mem;
 268:SynaptiX_FDK/lib/tinyusb/src/common/tusb_common.h ****   ua32->val = value;
 269:SynaptiX_FDK/lib/tinyusb/src/common/tusb_common.h **** }
 270:SynaptiX_FDK/lib/tinyusb/src/common/tusb_common.h **** 
 271:SynaptiX_FDK/lib/tinyusb/src/common/tusb_common.h **** TU_ATTR_ALWAYS_INLINE static inline uint16_t tu_unaligned_read16(const void *mem) {
 272:SynaptiX_FDK/lib/tinyusb/src/common/tusb_common.h ****   tu_unaligned_uint16_t const *ua16 = (tu_unaligned_uint16_t const *) mem;
 273:SynaptiX_FDK/lib/tinyusb/src/common/tusb_common.h ****   return ua16->val;
ARM GAS  C:\Users\DELL\AppData\Local\Temp\cc6DfR6G.s 			page 18


 274:SynaptiX_FDK/lib/tinyusb/src/common/tusb_common.h **** }
 275:SynaptiX_FDK/lib/tinyusb/src/common/tusb_common.h **** 
 276:SynaptiX_FDK/lib/tinyusb/src/common/tusb_common.h **** TU_ATTR_ALWAYS_INLINE static inline void tu_unaligned_write16(void *mem, uint16_t value) {
 277:SynaptiX_FDK/lib/tinyusb/src/common/tusb_common.h ****   tu_unaligned_uint16_t *ua16 = (tu_unaligned_uint16_t *) mem;
 278:SynaptiX_FDK/lib/tinyusb/src/common/tusb_common.h ****   ua16->val = value;
 279:SynaptiX_FDK/lib/tinyusb/src/common/tusb_common.h **** }
 280:SynaptiX_FDK/lib/tinyusb/src/common/tusb_common.h **** 
 281:SynaptiX_FDK/lib/tinyusb/src/common/tusb_common.h **** #elif TUP_MCU_STRICT_ALIGN
 282:SynaptiX_FDK/lib/tinyusb/src/common/tusb_common.h **** 
 283:SynaptiX_FDK/lib/tinyusb/src/common/tusb_common.h **** // MCU such as LPC_IP3511 Highspeed cannot access unaligned memory on USB_RAM although it is ARM M4
 284:SynaptiX_FDK/lib/tinyusb/src/common/tusb_common.h **** // We have to manually pick up bytes since tu_unaligned_uint32_t will still generate unaligned code
 285:SynaptiX_FDK/lib/tinyusb/src/common/tusb_common.h **** // NOTE: volatile cast to memory to prevent compiler to optimize and generate unaligned code
 286:SynaptiX_FDK/lib/tinyusb/src/common/tusb_common.h **** // TODO Big Endian may need minor changes
 287:SynaptiX_FDK/lib/tinyusb/src/common/tusb_common.h **** TU_ATTR_ALWAYS_INLINE static inline uint32_t tu_unaligned_read32(const void* mem) {
 288:SynaptiX_FDK/lib/tinyusb/src/common/tusb_common.h ****   volatile uint8_t const* buf8 = (uint8_t const*) mem;
 289:SynaptiX_FDK/lib/tinyusb/src/common/tusb_common.h ****   return tu_u32(buf8[3], buf8[2], buf8[1], buf8[0]);
 290:SynaptiX_FDK/lib/tinyusb/src/common/tusb_common.h **** }
 291:SynaptiX_FDK/lib/tinyusb/src/common/tusb_common.h **** 
 292:SynaptiX_FDK/lib/tinyusb/src/common/tusb_common.h **** TU_ATTR_ALWAYS_INLINE static inline void tu_unaligned_write32(void* mem, uint32_t value) {
 293:SynaptiX_FDK/lib/tinyusb/src/common/tusb_common.h ****   volatile uint8_t* buf8 = (uint8_t*) mem;
 294:SynaptiX_FDK/lib/tinyusb/src/common/tusb_common.h ****   buf8[0] = tu_u32_byte0(value);
 295:SynaptiX_FDK/lib/tinyusb/src/common/tusb_common.h ****   buf8[1] = tu_u32_byte1(value);
 296:SynaptiX_FDK/lib/tinyusb/src/common/tusb_common.h ****   buf8[2] = tu_u32_byte2(value);
 297:SynaptiX_FDK/lib/tinyusb/src/common/tusb_common.h ****   buf8[3] = tu_u32_byte3(value);
 298:SynaptiX_FDK/lib/tinyusb/src/common/tusb_common.h **** }
 299:SynaptiX_FDK/lib/tinyusb/src/common/tusb_common.h **** 
 300:SynaptiX_FDK/lib/tinyusb/src/common/tusb_common.h **** TU_ATTR_ALWAYS_INLINE static inline uint16_t tu_unaligned_read16(const void* mem) {
 301:SynaptiX_FDK/lib/tinyusb/src/common/tusb_common.h ****   volatile uint8_t const* buf8 = (uint8_t const*) mem;
 302:SynaptiX_FDK/lib/tinyusb/src/common/tusb_common.h ****   return tu_u16(buf8[1], buf8[0]);
 303:SynaptiX_FDK/lib/tinyusb/src/common/tusb_common.h **** }
 304:SynaptiX_FDK/lib/tinyusb/src/common/tusb_common.h **** 
 305:SynaptiX_FDK/lib/tinyusb/src/common/tusb_common.h **** TU_ATTR_ALWAYS_INLINE static inline void tu_unaligned_write16(void* mem, uint16_t value) {
 306:SynaptiX_FDK/lib/tinyusb/src/common/tusb_common.h ****   volatile uint8_t* buf8 = (uint8_t*) mem;
 307:SynaptiX_FDK/lib/tinyusb/src/common/tusb_common.h ****   buf8[0] = tu_u16_low(value);
 308:SynaptiX_FDK/lib/tinyusb/src/common/tusb_common.h ****   buf8[1] = tu_u16_high(value);
 309:SynaptiX_FDK/lib/tinyusb/src/common/tusb_common.h **** }
 310:SynaptiX_FDK/lib/tinyusb/src/common/tusb_common.h **** 
 311:SynaptiX_FDK/lib/tinyusb/src/common/tusb_common.h **** #else
 312:SynaptiX_FDK/lib/tinyusb/src/common/tusb_common.h **** 
 313:SynaptiX_FDK/lib/tinyusb/src/common/tusb_common.h **** // MCU that could access unaligned memory natively
 314:SynaptiX_FDK/lib/tinyusb/src/common/tusb_common.h **** TU_ATTR_ALWAYS_INLINE static inline uint32_t tu_unaligned_read32(const void *mem) {
 315:SynaptiX_FDK/lib/tinyusb/src/common/tusb_common.h ****   return *((uint32_t const *) mem);
 316:SynaptiX_FDK/lib/tinyusb/src/common/tusb_common.h **** }
 317:SynaptiX_FDK/lib/tinyusb/src/common/tusb_common.h **** 
 318:SynaptiX_FDK/lib/tinyusb/src/common/tusb_common.h **** TU_ATTR_ALWAYS_INLINE static inline uint16_t tu_unaligned_read16(const void *mem) {
 252              		.loc 2 318 46 view .LVU68
 253              	.LBB149:
 319:SynaptiX_FDK/lib/tinyusb/src/common/tusb_common.h ****   return *((uint16_t const *) mem);
 254              		.loc 2 319 3 view .LVU69
 255              		.loc 2 319 10 is_stmt 0 view .LVU70
 256 0000 C28A     		ldrh	r2, [r0, #22]
 257              	.LVL14:
 258              		.loc 2 319 10 view .LVU71
 259              	.LBE149:
 260              	.LBE148:
 159:SynaptiX_FDK/lib/tinyusb/src/class/msc/msc_device.c **** }
 261              		.loc 1 159 3 is_stmt 1 view .LVU72
ARM GAS  C:\Users\DELL\AppData\Local\Temp\cc6DfR6G.s 			page 19


 159:SynaptiX_FDK/lib/tinyusb/src/class/msc/msc_device.c **** }
 262              		.loc 1 159 3 is_stmt 0 view .LVU73
 263              	.LBE147:
 264              	.LBE146:
 175:SynaptiX_FDK/lib/tinyusb/src/class/msc/msc_device.c ****     if (block_count > 0) {
 265              		.loc 1 175 3 is_stmt 1 view .LVU74
 175:SynaptiX_FDK/lib/tinyusb/src/class/msc/msc_device.c ****     if (block_count > 0) {
 266              		.loc 1 175 10 is_stmt 0 view .LVU75
 267 0002 8168     		ldr	r1, [r0, #8]	@ unaligned
 175:SynaptiX_FDK/lib/tinyusb/src/class/msc/msc_device.c ****     if (block_count > 0) {
 268              		.loc 1 175 6 view .LVU76
 269 0004 11B9     		cbnz	r1, .L12
 176:SynaptiX_FDK/lib/tinyusb/src/class/msc/msc_device.c ****       TU_LOG_DRV("  SCSI case 2 (Hn < Di) or case 3 (Hn < Do) \r\n");
 270              		.loc 1 176 5 is_stmt 1 view .LVU77
 176:SynaptiX_FDK/lib/tinyusb/src/class/msc/msc_device.c ****       TU_LOG_DRV("  SCSI case 2 (Hn < Di) or case 3 (Hn < Do) \r\n");
 271              		.loc 1 176 8 is_stmt 0 view .LVU78
 272 0006 1ABB     		cbnz	r2, .L16
 172:SynaptiX_FDK/lib/tinyusb/src/class/msc/msc_device.c ****   uint16_t const block_count = rdwr10_get_blockcount(cbw);
 273              		.loc 1 172 11 view .LVU79
 274 0008 0020     		movs	r0, #0
 275              	.LVL15:
 172:SynaptiX_FDK/lib/tinyusb/src/class/msc/msc_device.c ****   uint16_t const block_count = rdwr10_get_blockcount(cbw);
 276              		.loc 1 172 11 view .LVU80
 277 000a 7047     		bx	lr
 278              	.LVL16:
 279              	.L12:
 172:SynaptiX_FDK/lib/tinyusb/src/class/msc/msc_device.c ****   uint16_t const block_count = rdwr10_get_blockcount(cbw);
 280              		.loc 1 172 11 view .LVU81
 281 000c 53BA     		rev16	r3, r2
 282 000e 9BB2     		uxth	r3, r3
 183:SynaptiX_FDK/lib/tinyusb/src/class/msc/msc_device.c ****       TU_LOG_DRV("  SCSI case 10 (Ho <> Di)\r\n");
 283              		.loc 1 183 5 is_stmt 1 view .LVU82
 183:SynaptiX_FDK/lib/tinyusb/src/class/msc/msc_device.c ****       TU_LOG_DRV("  SCSI case 10 (Ho <> Di)\r\n");
 284              		.loc 1 183 41 is_stmt 0 view .LVU83
 285 0010 90F80FC0 		ldrb	ip, [r0, #15]	@ zero_extendqisi2
 183:SynaptiX_FDK/lib/tinyusb/src/class/msc/msc_device.c ****       TU_LOG_DRV("  SCSI case 10 (Ho <> Di)\r\n");
 286              		.loc 1 183 8 view .LVU84
 287 0014 BCF1280F 		cmp	ip, #40
 288 0018 07D0     		beq	.L33
 186:SynaptiX_FDK/lib/tinyusb/src/class/msc/msc_device.c ****       TU_LOG_DRV("  SCSI case 8 (Hi <> Do)\r\n");
 289              		.loc 1 186 12 is_stmt 1 view .LVU85
 186:SynaptiX_FDK/lib/tinyusb/src/class/msc/msc_device.c ****       TU_LOG_DRV("  SCSI case 8 (Hi <> Do)\r\n");
 290              		.loc 1 186 15 is_stmt 0 view .LVU86
 291 001a BCF12A0F 		cmp	ip, #42
 292 001e 1FD0     		beq	.L34
 293              	.LVL17:
 294              	.L25:
 189:SynaptiX_FDK/lib/tinyusb/src/class/msc/msc_device.c ****       TU_LOG_DRV("  SCSI case 4 Hi > Dn (READ10) or case 9 Ho > Dn (WRITE10) \r\n");
 295              		.loc 1 189 12 is_stmt 1 view .LVU87
 189:SynaptiX_FDK/lib/tinyusb/src/class/msc/msc_device.c ****       TU_LOG_DRV("  SCSI case 4 Hi > Dn (READ10) or case 9 Ho > Dn (WRITE10) \r\n");
 296              		.loc 1 189 15 is_stmt 0 view .LVU88
 297 0020 1AB3     		cbz	r2, .L27
 192:SynaptiX_FDK/lib/tinyusb/src/class/msc/msc_device.c ****       TU_LOG_DRV(" Computed block size = 0. SCSI case 7 Hi < Di (READ10) or case 13 Ho < Do (WRIT10
 298              		.loc 1 192 12 is_stmt 1 view .LVU89
 192:SynaptiX_FDK/lib/tinyusb/src/class/msc/msc_device.c ****       TU_LOG_DRV(" Computed block size = 0. SCSI case 7 Hi < Di (READ10) or case 13 Ho < Do (WRIT10
 299              		.loc 1 192 15 is_stmt 0 view .LVU90
 300 0022 9942     		cmp	r1, r3
ARM GAS  C:\Users\DELL\AppData\Local\Temp\cc6DfR6G.s 			page 20


 301 0024 23D3     		bcc	.L29
 172:SynaptiX_FDK/lib/tinyusb/src/class/msc/msc_device.c ****   uint16_t const block_count = rdwr10_get_blockcount(cbw);
 302              		.loc 1 172 11 view .LVU91
 303 0026 0020     		movs	r0, #0
 304 0028 7047     		bx	lr
 305              	.LVL18:
 306              	.L33:
 171:SynaptiX_FDK/lib/tinyusb/src/class/msc/msc_device.c ****   uint8_t status = MSC_CSW_STATUS_PASSED;
 307              		.loc 1 171 58 view .LVU92
 308 002a 00B5     		push	{lr}
 309              	.LCFI4:
 310              		.cfi_def_cfa_offset 4
 311              		.cfi_offset 14, -4
 183:SynaptiX_FDK/lib/tinyusb/src/class/msc/msc_device.c ****       TU_LOG_DRV("  SCSI case 10 (Ho <> Di)\r\n");
 312              		.loc 1 183 63 discriminator 1 view .LVU93
 313 002c 90F80CE0 		ldrb	lr, [r0, #12]	@ zero_extendqisi2
 314              	.LVL19:
 315              	.LBB150:
 316              	.LBI150:
 108:SynaptiX_FDK/lib/tinyusb/src/class/msc/msc_device.c ****   return tu_bit_test(dir, 7);
 317              		.loc 1 108 42 is_stmt 1 view .LVU94
 318              	.LBB151:
 109:SynaptiX_FDK/lib/tinyusb/src/class/msc/msc_device.c **** }
 319              		.loc 1 109 3 view .LVU95
 320              	.LBB152:
 321              	.LBI152:
 202:SynaptiX_FDK/lib/tinyusb/src/common/tusb_common.h **** 
 322              		.loc 2 202 46 view .LVU96
 323              	.LBB153:
 202:SynaptiX_FDK/lib/tinyusb/src/common/tusb_common.h **** 
 324              		.loc 2 202 90 view .LVU97
 202:SynaptiX_FDK/lib/tinyusb/src/common/tusb_common.h **** 
 325              		.loc 2 202 90 is_stmt 0 view .LVU98
 326              	.LBE153:
 327              	.LBE152:
 328              	.LBE151:
 329              	.LBE150:
 183:SynaptiX_FDK/lib/tinyusb/src/class/msc/msc_device.c ****       TU_LOG_DRV("  SCSI case 10 (Ho <> Di)\r\n");
 330              		.loc 1 183 45 discriminator 1 view .LVU99
 331 0030 5FEADE1E 		lsrs	lr, lr, #7
 332 0034 0ED0     		beq	.L17
 186:SynaptiX_FDK/lib/tinyusb/src/class/msc/msc_device.c ****       TU_LOG_DRV("  SCSI case 8 (Hi <> Do)\r\n");
 333              		.loc 1 186 12 is_stmt 1 view .LVU100
 186:SynaptiX_FDK/lib/tinyusb/src/class/msc/msc_device.c ****       TU_LOG_DRV("  SCSI case 8 (Hi <> Do)\r\n");
 334              		.loc 1 186 15 is_stmt 0 view .LVU101
 335 0036 BCF12A0F 		cmp	ip, #42
 336 003a 04D0     		beq	.L35
 337              	.LVL20:
 338              	.L15:
 189:SynaptiX_FDK/lib/tinyusb/src/class/msc/msc_device.c ****       TU_LOG_DRV("  SCSI case 4 Hi > Dn (READ10) or case 9 Ho > Dn (WRITE10) \r\n");
 339              		.loc 1 189 12 is_stmt 1 view .LVU102
 189:SynaptiX_FDK/lib/tinyusb/src/class/msc/msc_device.c ****       TU_LOG_DRV("  SCSI case 4 Hi > Dn (READ10) or case 9 Ho > Dn (WRITE10) \r\n");
 340              		.loc 1 189 15 is_stmt 0 view .LVU103
 341 003c 62B1     		cbz	r2, .L19
 192:SynaptiX_FDK/lib/tinyusb/src/class/msc/msc_device.c ****       TU_LOG_DRV(" Computed block size = 0. SCSI case 7 Hi < Di (READ10) or case 13 Ho < Do (WRIT10
 342              		.loc 1 192 12 is_stmt 1 view .LVU104
 192:SynaptiX_FDK/lib/tinyusb/src/class/msc/msc_device.c ****       TU_LOG_DRV(" Computed block size = 0. SCSI case 7 Hi < Di (READ10) or case 13 Ho < Do (WRIT10
ARM GAS  C:\Users\DELL\AppData\Local\Temp\cc6DfR6G.s 			page 21


 343              		.loc 1 192 15 is_stmt 0 view .LVU105
 344 003e 9942     		cmp	r1, r3
 345 0040 0CD3     		bcc	.L20
 172:SynaptiX_FDK/lib/tinyusb/src/class/msc/msc_device.c ****   uint16_t const block_count = rdwr10_get_blockcount(cbw);
 346              		.loc 1 172 11 view .LVU106
 347 0042 0020     		movs	r0, #0
 348 0044 09E0     		b	.L13
 349              	.LVL21:
 350              	.L35:
 186:SynaptiX_FDK/lib/tinyusb/src/class/msc/msc_device.c ****       TU_LOG_DRV("  SCSI case 8 (Hi <> Do)\r\n");
 351              		.loc 1 186 70 discriminator 1 view .LVU107
 352 0046 007B     		ldrb	r0, [r0, #12]	@ zero_extendqisi2
 353              	.LVL22:
 354              	.LBB154:
 355              	.LBI154:
 108:SynaptiX_FDK/lib/tinyusb/src/class/msc/msc_device.c ****   return tu_bit_test(dir, 7);
 356              		.loc 1 108 42 is_stmt 1 view .LVU108
 357              	.LBB155:
 109:SynaptiX_FDK/lib/tinyusb/src/class/msc/msc_device.c **** }
 358              		.loc 1 109 3 view .LVU109
 359              	.LBB156:
 360              	.LBI156:
 202:SynaptiX_FDK/lib/tinyusb/src/common/tusb_common.h **** 
 361              		.loc 2 202 46 view .LVU110
 362              	.LBB157:
 202:SynaptiX_FDK/lib/tinyusb/src/common/tusb_common.h **** 
 363              		.loc 2 202 90 view .LVU111
 202:SynaptiX_FDK/lib/tinyusb/src/common/tusb_common.h **** 
 364              		.loc 2 202 90 is_stmt 0 view .LVU112
 365              	.LBE157:
 366              	.LBE156:
 367              	.LBE155:
 368              	.LBE154:
 186:SynaptiX_FDK/lib/tinyusb/src/class/msc/msc_device.c ****       TU_LOG_DRV("  SCSI case 8 (Hi <> Do)\r\n");
 369              		.loc 1 186 53 discriminator 1 view .LVU113
 370 0048 C009     		lsrs	r0, r0, #7
 371 004a F7D0     		beq	.L15
 188:SynaptiX_FDK/lib/tinyusb/src/class/msc/msc_device.c ****     } else if (0 == block_count) {
 372              		.loc 1 188 14 view .LVU114
 373 004c 0220     		movs	r0, #2
 374 004e 04E0     		b	.L13
 375              	.LVL23:
 376              	.L16:
 377              	.LCFI5:
 378              		.cfi_def_cfa_offset 0
 379              		.cfi_restore 14
 178:SynaptiX_FDK/lib/tinyusb/src/class/msc/msc_device.c ****     } else {
 380              		.loc 1 178 14 view .LVU115
 381 0050 0220     		movs	r0, #2
 382              	.LVL24:
 178:SynaptiX_FDK/lib/tinyusb/src/class/msc/msc_device.c ****     } else {
 383              		.loc 1 178 14 view .LVU116
 384 0052 7047     		bx	lr
 385              	.LVL25:
 386              	.L17:
 387              	.LCFI6:
 388              		.cfi_def_cfa_offset 4
ARM GAS  C:\Users\DELL\AppData\Local\Temp\cc6DfR6G.s 			page 22


 389              		.cfi_offset 14, -4
 185:SynaptiX_FDK/lib/tinyusb/src/class/msc/msc_device.c ****     } else if (SCSI_CMD_WRITE_10 == cbw->command[0] && is_data_in(cbw->dir)) {
 390              		.loc 1 185 14 view .LVU117
 391 0054 0220     		movs	r0, #2
 392              	.LVL26:
 185:SynaptiX_FDK/lib/tinyusb/src/class/msc/msc_device.c ****     } else if (SCSI_CMD_WRITE_10 == cbw->command[0] && is_data_in(cbw->dir)) {
 393              		.loc 1 185 14 view .LVU118
 394 0056 00E0     		b	.L13
 395              	.L19:
 191:SynaptiX_FDK/lib/tinyusb/src/class/msc/msc_device.c ****     } else if (cbw->total_bytes / block_count == 0) {
 396              		.loc 1 191 14 view .LVU119
 397 0058 0120     		movs	r0, #1
 398              	.L13:
 399              	.LVL27:
 197:SynaptiX_FDK/lib/tinyusb/src/class/msc/msc_device.c ****   }
 400              		.loc 1 197 5 is_stmt 1 view .LVU120
 200:SynaptiX_FDK/lib/tinyusb/src/class/msc/msc_device.c **** }
 401              		.loc 1 200 3 view .LVU121
 201:SynaptiX_FDK/lib/tinyusb/src/class/msc/msc_device.c **** 
 402              		.loc 1 201 1 is_stmt 0 view .LVU122
 403 005a 00BD     		pop	{pc}
 404              	.LVL28:
 405              	.L20:
 194:SynaptiX_FDK/lib/tinyusb/src/class/msc/msc_device.c ****     } else {
 406              		.loc 1 194 14 view .LVU123
 407 005c 0220     		movs	r0, #2
 408 005e FCE7     		b	.L13
 409              	.LVL29:
 410              	.L34:
 411              	.LCFI7:
 412              		.cfi_def_cfa_offset 0
 413              		.cfi_restore 14
 186:SynaptiX_FDK/lib/tinyusb/src/class/msc/msc_device.c ****       TU_LOG_DRV("  SCSI case 8 (Hi <> Do)\r\n");
 414              		.loc 1 186 70 discriminator 1 view .LVU124
 415 0060 007B     		ldrb	r0, [r0, #12]	@ zero_extendqisi2
 416              	.LVL30:
 417              	.LBB161:
 108:SynaptiX_FDK/lib/tinyusb/src/class/msc/msc_device.c ****   return tu_bit_test(dir, 7);
 418              		.loc 1 108 42 is_stmt 1 view .LVU125
 419              	.LBB160:
 109:SynaptiX_FDK/lib/tinyusb/src/class/msc/msc_device.c **** }
 420              		.loc 1 109 3 view .LVU126
 421              	.LBB159:
 202:SynaptiX_FDK/lib/tinyusb/src/common/tusb_common.h **** 
 422              		.loc 2 202 46 view .LVU127
 423              	.LBB158:
 202:SynaptiX_FDK/lib/tinyusb/src/common/tusb_common.h **** 
 424              		.loc 2 202 90 view .LVU128
 202:SynaptiX_FDK/lib/tinyusb/src/common/tusb_common.h **** 
 425              		.loc 2 202 90 is_stmt 0 view .LVU129
 426              	.LBE158:
 427              	.LBE159:
 428              	.LBE160:
 429              	.LBE161:
 186:SynaptiX_FDK/lib/tinyusb/src/class/msc/msc_device.c ****       TU_LOG_DRV("  SCSI case 8 (Hi <> Do)\r\n");
 430              		.loc 1 186 53 discriminator 1 view .LVU130
 431 0062 C009     		lsrs	r0, r0, #7
ARM GAS  C:\Users\DELL\AppData\Local\Temp\cc6DfR6G.s 			page 23


 432 0064 DCD0     		beq	.L25
 188:SynaptiX_FDK/lib/tinyusb/src/class/msc/msc_device.c ****     } else if (0 == block_count) {
 433              		.loc 1 188 14 view .LVU131
 434 0066 0220     		movs	r0, #2
 435 0068 7047     		bx	lr
 436              	.L27:
 191:SynaptiX_FDK/lib/tinyusb/src/class/msc/msc_device.c ****     } else if (cbw->total_bytes / block_count == 0) {
 437              		.loc 1 191 14 view .LVU132
 438 006a 0120     		movs	r0, #1
 439 006c 7047     		bx	lr
 440              	.L29:
 194:SynaptiX_FDK/lib/tinyusb/src/class/msc/msc_device.c ****     } else {
 441              		.loc 1 194 14 view .LVU133
 442 006e 0220     		movs	r0, #2
 443              	.LVL31:
 197:SynaptiX_FDK/lib/tinyusb/src/class/msc/msc_device.c ****   }
 444              		.loc 1 197 5 is_stmt 1 view .LVU134
 200:SynaptiX_FDK/lib/tinyusb/src/class/msc/msc_device.c **** }
 445              		.loc 1 200 3 view .LVU135
 201:SynaptiX_FDK/lib/tinyusb/src/class/msc/msc_device.c **** 
 446              		.loc 1 201 1 is_stmt 0 view .LVU136
 447 0070 7047     		bx	lr
 448              		.cfi_endproc
 449              	.LFE437:
 451              		.section	.text.tud_msc_inquiry_cb,"ax",%progbits
 452              		.align	1
 453              		.weak	tud_msc_inquiry_cb
 454              		.syntax unified
 455              		.thumb
 456              		.thumb_func
 458              	tud_msc_inquiry_cb:
 459              	.LVL32:
 460              	.LFB428:
  47:SynaptiX_FDK/lib/tinyusb/src/class/msc/msc_device.c ****   (void) lun; (void) vendor_id; (void) product_id; (void) product_rev;
 461              		.loc 1 47 121 is_stmt 1 view -0
 462              		.cfi_startproc
 463              		@ args = 0, pretend = 0, frame = 0
 464              		@ frame_needed = 0, uses_anonymous_args = 0
 465              		@ link register save eliminated.
  48:SynaptiX_FDK/lib/tinyusb/src/class/msc/msc_device.c **** }
 466              		.loc 1 48 3 view .LVU138
  48:SynaptiX_FDK/lib/tinyusb/src/class/msc/msc_device.c **** }
 467              		.loc 1 48 15 view .LVU139
  48:SynaptiX_FDK/lib/tinyusb/src/class/msc/msc_device.c **** }
 468              		.loc 1 48 33 view .LVU140
  48:SynaptiX_FDK/lib/tinyusb/src/class/msc/msc_device.c **** }
 469              		.loc 1 48 52 view .LVU141
  49:SynaptiX_FDK/lib/tinyusb/src/class/msc/msc_device.c **** TU_ATTR_WEAK uint32_t tud_msc_inquiry2_cb(uint8_t lun, scsi_inquiry_resp_t *inquiry_resp, uint32_t 
 470              		.loc 1 49 1 is_stmt 0 view .LVU142
 471 0000 7047     		bx	lr
 472              		.cfi_endproc
 473              	.LFE428:
 475              		.section	.text.tud_msc_inquiry2_cb,"ax",%progbits
 476              		.align	1
 477              		.weak	tud_msc_inquiry2_cb
 478              		.syntax unified
 479              		.thumb
ARM GAS  C:\Users\DELL\AppData\Local\Temp\cc6DfR6G.s 			page 24


 480              		.thumb_func
 482              	tud_msc_inquiry2_cb:
 483              	.LVL33:
 484              	.LFB429:
  50:SynaptiX_FDK/lib/tinyusb/src/class/msc/msc_device.c ****   (void) lun; (void) inquiry_resp; (void) bufsize;
 485              		.loc 1 50 109 is_stmt 1 view -0
 486              		.cfi_startproc
 487              		@ args = 0, pretend = 0, frame = 0
 488              		@ frame_needed = 0, uses_anonymous_args = 0
 489              		@ link register save eliminated.
  51:SynaptiX_FDK/lib/tinyusb/src/class/msc/msc_device.c ****   return 0;
 490              		.loc 1 51 3 view .LVU144
  51:SynaptiX_FDK/lib/tinyusb/src/class/msc/msc_device.c ****   return 0;
 491              		.loc 1 51 15 view .LVU145
  51:SynaptiX_FDK/lib/tinyusb/src/class/msc/msc_device.c ****   return 0;
 492              		.loc 1 51 36 view .LVU146
  52:SynaptiX_FDK/lib/tinyusb/src/class/msc/msc_device.c **** }
 493              		.loc 1 52 3 view .LVU147
  53:SynaptiX_FDK/lib/tinyusb/src/class/msc/msc_device.c **** 
 494              		.loc 1 53 1 is_stmt 0 view .LVU148
 495 0000 0020     		movs	r0, #0
 496              	.LVL34:
  53:SynaptiX_FDK/lib/tinyusb/src/class/msc/msc_device.c **** 
 497              		.loc 1 53 1 view .LVU149
 498 0002 7047     		bx	lr
 499              		.cfi_endproc
 500              	.LFE429:
 502              		.section	.text.tud_msc_read10_complete_cb,"ax",%progbits
 503              		.align	1
 504              		.weak	tud_msc_read10_complete_cb
 505              		.syntax unified
 506              		.thumb
 507              		.thumb_func
 509              	tud_msc_read10_complete_cb:
 510              	.LVL35:
 511              	.LFB439:
 233:SynaptiX_FDK/lib/tinyusb/src/class/msc/msc_device.c ****   (void) lun;
 512              		.loc 1 233 59 is_stmt 1 view -0
 513              		.cfi_startproc
 514              		@ args = 0, pretend = 0, frame = 0
 515              		@ frame_needed = 0, uses_anonymous_args = 0
 516              		@ link register save eliminated.
 234:SynaptiX_FDK/lib/tinyusb/src/class/msc/msc_device.c **** }
 517              		.loc 1 234 3 view .LVU151
 235:SynaptiX_FDK/lib/tinyusb/src/class/msc/msc_device.c **** 
 518              		.loc 1 235 1 is_stmt 0 view .LVU152
 519 0000 7047     		bx	lr
 520              		.cfi_endproc
 521              	.LFE439:
 523              		.section	.text.tud_msc_write10_complete_cb,"ax",%progbits
 524              		.align	1
 525              		.weak	tud_msc_write10_complete_cb
 526              		.syntax unified
 527              		.thumb
 528              		.thumb_func
 530              	tud_msc_write10_complete_cb:
 531              	.LVL36:
ARM GAS  C:\Users\DELL\AppData\Local\Temp\cc6DfR6G.s 			page 25


 532              	.LFB440:
 237:SynaptiX_FDK/lib/tinyusb/src/class/msc/msc_device.c ****   (void) lun;
 533              		.loc 1 237 60 is_stmt 1 view -0
 534              		.cfi_startproc
 535              		@ args = 0, pretend = 0, frame = 0
 536              		@ frame_needed = 0, uses_anonymous_args = 0
 537              		@ link register save eliminated.
 238:SynaptiX_FDK/lib/tinyusb/src/class/msc/msc_device.c **** }
 538              		.loc 1 238 3 view .LVU154
 239:SynaptiX_FDK/lib/tinyusb/src/class/msc/msc_device.c **** 
 539              		.loc 1 239 1 is_stmt 0 view .LVU155
 540 0000 7047     		bx	lr
 541              		.cfi_endproc
 542              	.LFE440:
 544              		.section	.text.tud_msc_scsi_complete_cb,"ax",%progbits
 545              		.align	1
 546              		.weak	tud_msc_scsi_complete_cb
 547              		.syntax unified
 548              		.thumb
 549              		.thumb_func
 551              	tud_msc_scsi_complete_cb:
 552              	.LVL37:
 553              	.LFB441:
 241:SynaptiX_FDK/lib/tinyusb/src/class/msc/msc_device.c ****   (void) lun;
 554              		.loc 1 241 85 is_stmt 1 view -0
 555              		.cfi_startproc
 556              		@ args = 0, pretend = 0, frame = 0
 557              		@ frame_needed = 0, uses_anonymous_args = 0
 558              		@ link register save eliminated.
 242:SynaptiX_FDK/lib/tinyusb/src/class/msc/msc_device.c ****   (void) scsi_cmd;
 559              		.loc 1 242 3 view .LVU157
 243:SynaptiX_FDK/lib/tinyusb/src/class/msc/msc_device.c **** }
 560              		.loc 1 243 3 view .LVU158
 244:SynaptiX_FDK/lib/tinyusb/src/class/msc/msc_device.c **** 
 561              		.loc 1 244 1 is_stmt 0 view .LVU159
 562 0000 7047     		bx	lr
 563              		.cfi_endproc
 564              	.LFE441:
 566              		.section	.text.tud_msc_get_maxlun_cb,"ax",%progbits
 567              		.align	1
 568              		.weak	tud_msc_get_maxlun_cb
 569              		.syntax unified
 570              		.thumb
 571              		.thumb_func
 573              	tud_msc_get_maxlun_cb:
 574              	.LFB442:
 246:SynaptiX_FDK/lib/tinyusb/src/class/msc/msc_device.c ****   return 1;
 575              		.loc 1 246 50 is_stmt 1 view -0
 576              		.cfi_startproc
 577              		@ args = 0, pretend = 0, frame = 0
 578              		@ frame_needed = 0, uses_anonymous_args = 0
 579              		@ link register save eliminated.
 247:SynaptiX_FDK/lib/tinyusb/src/class/msc/msc_device.c **** }
 580              		.loc 1 247 3 view .LVU161
 248:SynaptiX_FDK/lib/tinyusb/src/class/msc/msc_device.c **** 
 581              		.loc 1 248 1 is_stmt 0 view .LVU162
 582 0000 0120     		movs	r0, #1
ARM GAS  C:\Users\DELL\AppData\Local\Temp\cc6DfR6G.s 			page 26


 583 0002 7047     		bx	lr
 584              		.cfi_endproc
 585              	.LFE442:
 587              		.section	.text.tud_msc_start_stop_cb,"ax",%progbits
 588              		.align	1
 589              		.weak	tud_msc_start_stop_cb
 590              		.syntax unified
 591              		.thumb
 592              		.thumb_func
 594              	tud_msc_start_stop_cb:
 595              	.LVL38:
 596              	.LFB443:
 250:SynaptiX_FDK/lib/tinyusb/src/class/msc/msc_device.c ****   (void) lun;
 597              		.loc 1 250 108 is_stmt 1 view -0
 598              		.cfi_startproc
 599              		@ args = 0, pretend = 0, frame = 0
 600              		@ frame_needed = 0, uses_anonymous_args = 0
 601              		@ link register save eliminated.
 251:SynaptiX_FDK/lib/tinyusb/src/class/msc/msc_device.c ****   (void) power_condition;
 602              		.loc 1 251 3 view .LVU164
 252:SynaptiX_FDK/lib/tinyusb/src/class/msc/msc_device.c ****   (void) start;
 603              		.loc 1 252 3 view .LVU165
 253:SynaptiX_FDK/lib/tinyusb/src/class/msc/msc_device.c ****   (void) load_eject;
 604              		.loc 1 253 3 view .LVU166
 254:SynaptiX_FDK/lib/tinyusb/src/class/msc/msc_device.c ****   return true;
 605              		.loc 1 254 3 view .LVU167
 255:SynaptiX_FDK/lib/tinyusb/src/class/msc/msc_device.c **** }
 606              		.loc 1 255 3 view .LVU168
 256:SynaptiX_FDK/lib/tinyusb/src/class/msc/msc_device.c **** 
 607              		.loc 1 256 1 is_stmt 0 view .LVU169
 608 0000 0120     		movs	r0, #1
 609              	.LVL39:
 256:SynaptiX_FDK/lib/tinyusb/src/class/msc/msc_device.c **** 
 610              		.loc 1 256 1 view .LVU170
 611 0002 7047     		bx	lr
 612              		.cfi_endproc
 613              	.LFE443:
 615              		.section	.text.tud_msc_prevent_allow_medium_removal_cb,"ax",%progbits
 616              		.align	1
 617              		.weak	tud_msc_prevent_allow_medium_removal_cb
 618              		.syntax unified
 619              		.thumb
 620              		.thumb_func
 622              	tud_msc_prevent_allow_medium_removal_cb:
 623              	.LVL40:
 624              	.LFB444:
 258:SynaptiX_FDK/lib/tinyusb/src/class/msc/msc_device.c ****   (void) lun;
 625              		.loc 1 258 115 is_stmt 1 view -0
 626              		.cfi_startproc
 627              		@ args = 0, pretend = 0, frame = 0
 628              		@ frame_needed = 0, uses_anonymous_args = 0
 629              		@ link register save eliminated.
 259:SynaptiX_FDK/lib/tinyusb/src/class/msc/msc_device.c ****   (void) prohibit_removal;
 630              		.loc 1 259 3 view .LVU172
 260:SynaptiX_FDK/lib/tinyusb/src/class/msc/msc_device.c ****   (void) control;
 631              		.loc 1 260 3 view .LVU173
 261:SynaptiX_FDK/lib/tinyusb/src/class/msc/msc_device.c ****   return true;
ARM GAS  C:\Users\DELL\AppData\Local\Temp\cc6DfR6G.s 			page 27


 632              		.loc 1 261 3 view .LVU174
 262:SynaptiX_FDK/lib/tinyusb/src/class/msc/msc_device.c **** }
 633              		.loc 1 262 3 view .LVU175
 263:SynaptiX_FDK/lib/tinyusb/src/class/msc/msc_device.c **** 
 634              		.loc 1 263 1 is_stmt 0 view .LVU176
 635 0000 0120     		movs	r0, #1
 636              	.LVL41:
 263:SynaptiX_FDK/lib/tinyusb/src/class/msc/msc_device.c **** 
 637              		.loc 1 263 1 view .LVU177
 638 0002 7047     		bx	lr
 639              		.cfi_endproc
 640              	.LFE444:
 642              		.section	.text.tud_msc_request_sense_cb,"ax",%progbits
 643              		.align	1
 644              		.weak	tud_msc_request_sense_cb
 645              		.syntax unified
 646              		.thumb
 647              		.thumb_func
 649              	tud_msc_request_sense_cb:
 650              	.LVL42:
 651              	.LFB445:
 265:SynaptiX_FDK/lib/tinyusb/src/class/msc/msc_device.c ****   (void) lun;
 652              		.loc 1 265 92 is_stmt 1 view -0
 653              		.cfi_startproc
 654              		@ args = 0, pretend = 0, frame = 0
 655              		@ frame_needed = 0, uses_anonymous_args = 0
 656              		@ link register save eliminated.
 266:SynaptiX_FDK/lib/tinyusb/src/class/msc/msc_device.c ****   (void) buffer;
 657              		.loc 1 266 3 view .LVU179
 267:SynaptiX_FDK/lib/tinyusb/src/class/msc/msc_device.c ****   (void) bufsize;
 658              		.loc 1 267 3 view .LVU180
 268:SynaptiX_FDK/lib/tinyusb/src/class/msc/msc_device.c ****   return sizeof(scsi_sense_fixed_resp_t);
 659              		.loc 1 268 3 view .LVU181
 269:SynaptiX_FDK/lib/tinyusb/src/class/msc/msc_device.c **** }
 660              		.loc 1 269 3 view .LVU182
 270:SynaptiX_FDK/lib/tinyusb/src/class/msc/msc_device.c **** 
 661              		.loc 1 270 1 is_stmt 0 view .LVU183
 662 0000 1220     		movs	r0, #18
 663              	.LVL43:
 270:SynaptiX_FDK/lib/tinyusb/src/class/msc/msc_device.c **** 
 664              		.loc 1 270 1 view .LVU184
 665 0002 7047     		bx	lr
 666              		.cfi_endproc
 667              	.LFE445:
 669              		.section	.text.tud_msc_is_writable_cb,"ax",%progbits
 670              		.align	1
 671              		.weak	tud_msc_is_writable_cb
 672              		.syntax unified
 673              		.thumb
 674              		.thumb_func
 676              	tud_msc_is_writable_cb:
 677              	.LVL44:
 678              	.LFB446:
 272:SynaptiX_FDK/lib/tinyusb/src/class/msc/msc_device.c ****   (void) lun;
 679              		.loc 1 272 55 is_stmt 1 view -0
 680              		.cfi_startproc
 681              		@ args = 0, pretend = 0, frame = 0
ARM GAS  C:\Users\DELL\AppData\Local\Temp\cc6DfR6G.s 			page 28


 682              		@ frame_needed = 0, uses_anonymous_args = 0
 683              		@ link register save eliminated.
 273:SynaptiX_FDK/lib/tinyusb/src/class/msc/msc_device.c ****   return true;
 684              		.loc 1 273 3 view .LVU186
 274:SynaptiX_FDK/lib/tinyusb/src/class/msc/msc_device.c **** }
 685              		.loc 1 274 3 view .LVU187
 275:SynaptiX_FDK/lib/tinyusb/src/class/msc/msc_device.c **** 
 686              		.loc 1 275 1 is_stmt 0 view .LVU188
 687 0000 0120     		movs	r0, #1
 688              	.LVL45:
 275:SynaptiX_FDK/lib/tinyusb/src/class/msc/msc_device.c **** 
 689              		.loc 1 275 1 view .LVU189
 690 0002 7047     		bx	lr
 691              		.cfi_endproc
 692              	.LFE446:
 694              		.section	.text.tud_msc_set_sense,"ax",%progbits
 695              		.align	1
 696              		.global	tud_msc_set_sense
 697              		.syntax unified
 698              		.thumb
 699              		.thumb_func
 701              	tud_msc_set_sense:
 702              	.LVL46:
 703              	.LFB447:
 306:SynaptiX_FDK/lib/tinyusb/src/class/msc/msc_device.c ****   (void) lun;
 704              		.loc 1 306 109 is_stmt 1 view -0
 705              		.cfi_startproc
 706              		@ args = 0, pretend = 0, frame = 0
 707              		@ frame_needed = 0, uses_anonymous_args = 0
 708              		@ link register save eliminated.
 307:SynaptiX_FDK/lib/tinyusb/src/class/msc/msc_device.c ****   _mscd_itf.sense_key           = sense_key;
 709              		.loc 1 307 3 view .LVU191
 308:SynaptiX_FDK/lib/tinyusb/src/class/msc/msc_device.c ****   _mscd_itf.add_sense_code      = add_sense_code;
 710              		.loc 1 308 3 view .LVU192
 308:SynaptiX_FDK/lib/tinyusb/src/class/msc/msc_device.c ****   _mscd_itf.add_sense_code      = add_sense_code;
 711              		.loc 1 308 33 is_stmt 0 view .LVU193
 712 0000 0448     		ldr	r0, .L47
 713              	.LVL47:
 308:SynaptiX_FDK/lib/tinyusb/src/class/msc/msc_device.c ****   _mscd_itf.add_sense_code      = add_sense_code;
 714              		.loc 1 308 33 view .LVU194
 715 0002 80F83910 		strb	r1, [r0, #57]
 309:SynaptiX_FDK/lib/tinyusb/src/class/msc/msc_device.c ****   _mscd_itf.add_sense_qualifier = add_sense_qualifier;
 716              		.loc 1 309 3 is_stmt 1 view .LVU195
 309:SynaptiX_FDK/lib/tinyusb/src/class/msc/msc_device.c ****   _mscd_itf.add_sense_qualifier = add_sense_qualifier;
 717              		.loc 1 309 33 is_stmt 0 view .LVU196
 718 0006 80F83A20 		strb	r2, [r0, #58]
 310:SynaptiX_FDK/lib/tinyusb/src/class/msc/msc_device.c ****   return true;
 719              		.loc 1 310 3 is_stmt 1 view .LVU197
 310:SynaptiX_FDK/lib/tinyusb/src/class/msc/msc_device.c ****   return true;
 720              		.loc 1 310 33 is_stmt 0 view .LVU198
 721 000a 80F83B30 		strb	r3, [r0, #59]
 311:SynaptiX_FDK/lib/tinyusb/src/class/msc/msc_device.c **** }
 722              		.loc 1 311 3 is_stmt 1 view .LVU199
 312:SynaptiX_FDK/lib/tinyusb/src/class/msc/msc_device.c **** 
 723              		.loc 1 312 1 is_stmt 0 view .LVU200
 724 000e 0120     		movs	r0, #1
 725 0010 7047     		bx	lr
ARM GAS  C:\Users\DELL\AppData\Local\Temp\cc6DfR6G.s 			page 29


 726              	.L48:
 727 0012 00BF     		.align	2
 728              	.L47:
 729 0014 00000000 		.word	_mscd_itf
 730              		.cfi_endproc
 731              	.LFE447:
 733              		.section	.text.fail_scsi_op,"ax",%progbits
 734              		.align	1
 735              		.syntax unified
 736              		.thumb
 737              		.thumb_func
 739              	fail_scsi_op:
 740              	.LVL48:
 741              	.LFB433:
 127:SynaptiX_FDK/lib/tinyusb/src/class/msc/msc_device.c ****   msc_cbw_t const * p_cbw = &p_msc->cbw;
 742              		.loc 1 127 67 is_stmt 1 view -0
 743              		.cfi_startproc
 744              		@ args = 0, pretend = 0, frame = 0
 745              		@ frame_needed = 0, uses_anonymous_args = 0
 127:SynaptiX_FDK/lib/tinyusb/src/class/msc/msc_device.c ****   msc_cbw_t const * p_cbw = &p_msc->cbw;
 746              		.loc 1 127 67 is_stmt 0 view .LVU202
 747 0000 38B5     		push	{r3, r4, r5, lr}
 748              	.LCFI8:
 749              		.cfi_def_cfa_offset 16
 750              		.cfi_offset 3, -16
 751              		.cfi_offset 4, -12
 752              		.cfi_offset 5, -8
 753              		.cfi_offset 14, -4
 754 0002 0446     		mov	r4, r0
 128:SynaptiX_FDK/lib/tinyusb/src/class/msc/msc_device.c ****   msc_csw_t       * p_csw = &p_msc->csw;
 755              		.loc 1 128 3 is_stmt 1 view .LVU203
 756              	.LVL49:
 129:SynaptiX_FDK/lib/tinyusb/src/class/msc/msc_device.c ****   uint8_t rhport = p_msc->rhport;
 757              		.loc 1 129 3 view .LVU204
 130:SynaptiX_FDK/lib/tinyusb/src/class/msc/msc_device.c **** 
 758              		.loc 1 130 3 view .LVU205
 130:SynaptiX_FDK/lib/tinyusb/src/class/msc/msc_device.c **** 
 759              		.loc 1 130 11 is_stmt 0 view .LVU206
 760 0004 C57F     		ldrb	r5, [r0, #31]	@ zero_extendqisi2
 761              	.LVL50:
 132:SynaptiX_FDK/lib/tinyusb/src/class/msc/msc_device.c ****   p_csw->data_residue = p_msc->cbw.total_bytes - p_msc->xferred_len;
 762              		.loc 1 132 3 is_stmt 1 view .LVU207
 132:SynaptiX_FDK/lib/tinyusb/src/class/msc/msc_device.c ****   p_csw->data_residue = p_msc->cbw.total_bytes - p_msc->xferred_len;
 763              		.loc 1 132 23 is_stmt 0 view .LVU208
 764 0006 80F82C10 		strb	r1, [r0, #44]
 133:SynaptiX_FDK/lib/tinyusb/src/class/msc/msc_device.c ****   p_msc->stage        = MSC_STAGE_STATUS;
 765              		.loc 1 133 3 is_stmt 1 view .LVU209
 133:SynaptiX_FDK/lib/tinyusb/src/class/msc/msc_device.c ****   p_msc->stage        = MSC_STAGE_STATUS;
 766              		.loc 1 133 35 is_stmt 0 view .LVU210
 767 000a 8368     		ldr	r3, [r0, #8]
 133:SynaptiX_FDK/lib/tinyusb/src/class/msc/msc_device.c ****   p_msc->stage        = MSC_STAGE_STATUS;
 768              		.loc 1 133 55 view .LVU211
 769 000c 426B     		ldr	r2, [r0, #52]
 133:SynaptiX_FDK/lib/tinyusb/src/class/msc/msc_device.c ****   p_msc->stage        = MSC_STAGE_STATUS;
 770              		.loc 1 133 48 view .LVU212
 771 000e 9B1A     		subs	r3, r3, r2
 133:SynaptiX_FDK/lib/tinyusb/src/class/msc/msc_device.c ****   p_msc->stage        = MSC_STAGE_STATUS;
ARM GAS  C:\Users\DELL\AppData\Local\Temp\cc6DfR6G.s 			page 30


 772              		.loc 1 133 23 view .LVU213
 773 0010 8362     		str	r3, [r0, #40]	@ unaligned
 134:SynaptiX_FDK/lib/tinyusb/src/class/msc/msc_device.c **** 
 774              		.loc 1 134 3 is_stmt 1 view .LVU214
 134:SynaptiX_FDK/lib/tinyusb/src/class/msc/msc_device.c **** 
 775              		.loc 1 134 23 is_stmt 0 view .LVU215
 776 0012 0223     		movs	r3, #2
 777 0014 80F83830 		strb	r3, [r0, #56]
 137:SynaptiX_FDK/lib/tinyusb/src/class/msc/msc_device.c ****     (void) tud_msc_set_sense(p_cbw->lun, SCSI_SENSE_ILLEGAL_REQUEST, 0x20, 0x00);
 778              		.loc 1 137 3 is_stmt 1 view .LVU216
 137:SynaptiX_FDK/lib/tinyusb/src/class/msc/msc_device.c ****     (void) tud_msc_set_sense(p_cbw->lun, SCSI_SENSE_ILLEGAL_REQUEST, 0x20, 0x00);
 779              		.loc 1 137 12 is_stmt 0 view .LVU217
 780 0018 90F83930 		ldrb	r3, [r0, #57]	@ zero_extendqisi2
 137:SynaptiX_FDK/lib/tinyusb/src/class/msc/msc_device.c ****     (void) tud_msc_set_sense(p_cbw->lun, SCSI_SENSE_ILLEGAL_REQUEST, 0x20, 0x00);
 781              		.loc 1 137 6 view .LVU218
 782 001c 63B1     		cbz	r3, .L54
 783              	.LVL51:
 784              	.L50:
 142:SynaptiX_FDK/lib/tinyusb/src/class/msc/msc_device.c ****     if (is_data_in(p_cbw->dir)) {
 785              		.loc 1 142 3 is_stmt 1 view .LVU219
 142:SynaptiX_FDK/lib/tinyusb/src/class/msc/msc_device.c ****     if (is_data_in(p_cbw->dir)) {
 786              		.loc 1 142 12 is_stmt 0 view .LVU220
 787 001e A368     		ldr	r3, [r4, #8]	@ unaligned
 142:SynaptiX_FDK/lib/tinyusb/src/class/msc/msc_device.c ****     if (is_data_in(p_cbw->dir)) {
 788              		.loc 1 142 6 view .LVU221
 789 0020 4BB1     		cbz	r3, .L49
 142:SynaptiX_FDK/lib/tinyusb/src/class/msc/msc_device.c ****     if (is_data_in(p_cbw->dir)) {
 790              		.loc 1 142 34 discriminator 1 view .LVU222
 791 0022 A36A     		ldr	r3, [r4, #40]	@ unaligned
 142:SynaptiX_FDK/lib/tinyusb/src/class/msc/msc_device.c ****     if (is_data_in(p_cbw->dir)) {
 792              		.loc 1 142 26 discriminator 1 view .LVU223
 793 0024 3BB1     		cbz	r3, .L49
 143:SynaptiX_FDK/lib/tinyusb/src/class/msc/msc_device.c ****       usbd_edpt_stall(rhport, p_msc->ep_in);
 794              		.loc 1 143 5 is_stmt 1 view .LVU224
 143:SynaptiX_FDK/lib/tinyusb/src/class/msc/msc_device.c ****       usbd_edpt_stall(rhport, p_msc->ep_in);
 795              		.loc 1 143 25 is_stmt 0 view .LVU225
 796 0026 237B     		ldrb	r3, [r4, #12]	@ zero_extendqisi2
 797              	.LVL52:
 798              	.LBB162:
 799              	.LBI162:
 108:SynaptiX_FDK/lib/tinyusb/src/class/msc/msc_device.c ****   return tu_bit_test(dir, 7);
 800              		.loc 1 108 42 is_stmt 1 view .LVU226
 801              	.LBB163:
 109:SynaptiX_FDK/lib/tinyusb/src/class/msc/msc_device.c **** }
 802              		.loc 1 109 3 view .LVU227
 803              	.LBB164:
 804              	.LBI164:
 202:SynaptiX_FDK/lib/tinyusb/src/common/tusb_common.h **** 
 805              		.loc 2 202 46 view .LVU228
 806              	.LBB165:
 202:SynaptiX_FDK/lib/tinyusb/src/common/tusb_common.h **** 
 807              		.loc 2 202 90 view .LVU229
 202:SynaptiX_FDK/lib/tinyusb/src/common/tusb_common.h **** 
 808              		.loc 2 202 90 is_stmt 0 view .LVU230
 809              	.LBE165:
 810              	.LBE164:
 811              	.LBE163:
ARM GAS  C:\Users\DELL\AppData\Local\Temp\cc6DfR6G.s 			page 31


 812              	.LBE162:
 143:SynaptiX_FDK/lib/tinyusb/src/class/msc/msc_device.c ****       usbd_edpt_stall(rhport, p_msc->ep_in);
 813              		.loc 1 143 8 discriminator 1 view .LVU231
 814 0028 DB09     		lsrs	r3, r3, #7
 815 002a 0BD0     		beq	.L52
 144:SynaptiX_FDK/lib/tinyusb/src/class/msc/msc_device.c ****     } else {
 816              		.loc 1 144 7 is_stmt 1 view .LVU232
 817 002c 94F82E10 		ldrb	r1, [r4, #46]	@ zero_extendqisi2
 818 0030 2846     		mov	r0, r5
 819 0032 FFF7FEFF 		bl	usbd_edpt_stall
 820              	.LVL53:
 821              	.L49:
 149:SynaptiX_FDK/lib/tinyusb/src/class/msc/msc_device.c **** 
 822              		.loc 1 149 1 is_stmt 0 view .LVU233
 823 0036 38BD     		pop	{r3, r4, r5, pc}
 824              	.LVL54:
 825              	.L54:
 138:SynaptiX_FDK/lib/tinyusb/src/class/msc/msc_device.c ****   }
 826              		.loc 1 138 5 is_stmt 1 view .LVU234
 138:SynaptiX_FDK/lib/tinyusb/src/class/msc/msc_device.c ****   }
 827              		.loc 1 138 12 is_stmt 0 view .LVU235
 828 0038 2022     		movs	r2, #32
 829 003a 0521     		movs	r1, #5
 830              	.LVL55:
 138:SynaptiX_FDK/lib/tinyusb/src/class/msc/msc_device.c ****   }
 831              		.loc 1 138 12 view .LVU236
 832 003c 407B     		ldrb	r0, [r0, #13]	@ zero_extendqisi2
 833              	.LVL56:
 138:SynaptiX_FDK/lib/tinyusb/src/class/msc/msc_device.c ****   }
 834              		.loc 1 138 12 view .LVU237
 835 003e FFF7FEFF 		bl	tud_msc_set_sense
 836              	.LVL57:
 138:SynaptiX_FDK/lib/tinyusb/src/class/msc/msc_device.c ****   }
 837              		.loc 1 138 12 view .LVU238
 838 0042 ECE7     		b	.L50
 839              	.L52:
 146:SynaptiX_FDK/lib/tinyusb/src/class/msc/msc_device.c ****     }
 840              		.loc 1 146 7 is_stmt 1 view .LVU239
 841 0044 94F82F10 		ldrb	r1, [r4, #47]	@ zero_extendqisi2
 842 0048 2846     		mov	r0, r5
 843 004a FFF7FEFF 		bl	usbd_edpt_stall
 844              	.LVL58:
 149:SynaptiX_FDK/lib/tinyusb/src/class/msc/msc_device.c **** 
 845              		.loc 1 149 1 is_stmt 0 view .LVU240
 846 004e F2E7     		b	.L49
 847              		.cfi_endproc
 848              	.LFE433:
 850              		.section	.text.proc_read_io_data,"ax",%progbits
 851              		.align	1
 852              		.syntax unified
 853              		.thumb
 854              		.thumb_func
 856              	proc_read_io_data:
 857              	.LVL59:
 858              	.LFB460:
 400:SynaptiX_FDK/lib/tinyusb/src/class/msc/msc_device.c **** 
 401:SynaptiX_FDK/lib/tinyusb/src/class/msc/msc_device.c **** // Invoked when a control transfer occurred on an interface of this class
ARM GAS  C:\Users\DELL\AppData\Local\Temp\cc6DfR6G.s 			page 32


 402:SynaptiX_FDK/lib/tinyusb/src/class/msc/msc_device.c **** // Driver response accordingly to the request and the transfer stage (setup/data/ack)
 403:SynaptiX_FDK/lib/tinyusb/src/class/msc/msc_device.c **** // return false to stall control endpoint (e.g unsupported request)
 404:SynaptiX_FDK/lib/tinyusb/src/class/msc/msc_device.c **** bool mscd_control_xfer_cb(uint8_t rhport, uint8_t stage, tusb_control_request_t const * request) {
 405:SynaptiX_FDK/lib/tinyusb/src/class/msc/msc_device.c ****   if (stage != CONTROL_STAGE_SETUP) {
 406:SynaptiX_FDK/lib/tinyusb/src/class/msc/msc_device.c ****     return true; // nothing to do with DATA & ACK stage
 407:SynaptiX_FDK/lib/tinyusb/src/class/msc/msc_device.c ****   }
 408:SynaptiX_FDK/lib/tinyusb/src/class/msc/msc_device.c **** 
 409:SynaptiX_FDK/lib/tinyusb/src/class/msc/msc_device.c ****   mscd_interface_t* p_msc = &_mscd_itf;
 410:SynaptiX_FDK/lib/tinyusb/src/class/msc/msc_device.c **** 
 411:SynaptiX_FDK/lib/tinyusb/src/class/msc/msc_device.c ****   // Clear Endpoint Feature (stall) for recovery
 412:SynaptiX_FDK/lib/tinyusb/src/class/msc/msc_device.c ****   if ( TUSB_REQ_TYPE_STANDARD     == request->bmRequestType_bit.type      &&
 413:SynaptiX_FDK/lib/tinyusb/src/class/msc/msc_device.c ****        TUSB_REQ_RCPT_ENDPOINT     == request->bmRequestType_bit.recipient &&
 414:SynaptiX_FDK/lib/tinyusb/src/class/msc/msc_device.c ****        TUSB_REQ_CLEAR_FEATURE     == request->bRequest                    &&
 415:SynaptiX_FDK/lib/tinyusb/src/class/msc/msc_device.c ****        TUSB_REQ_FEATURE_EDPT_HALT == request->wValue ) {
 416:SynaptiX_FDK/lib/tinyusb/src/class/msc/msc_device.c ****     uint8_t const ep_addr = tu_u16_low(request->wIndex);
 417:SynaptiX_FDK/lib/tinyusb/src/class/msc/msc_device.c **** 
 418:SynaptiX_FDK/lib/tinyusb/src/class/msc/msc_device.c ****     if (p_msc->stage == MSC_STAGE_NEED_RESET) {
 419:SynaptiX_FDK/lib/tinyusb/src/class/msc/msc_device.c ****       // reset recovery is required to recover from this stage
 420:SynaptiX_FDK/lib/tinyusb/src/class/msc/msc_device.c ****       // Clear Stall request cannot resolve this -> continue to stall endpoint
 421:SynaptiX_FDK/lib/tinyusb/src/class/msc/msc_device.c ****       usbd_edpt_stall(rhport, ep_addr);
 422:SynaptiX_FDK/lib/tinyusb/src/class/msc/msc_device.c ****     } else {
 423:SynaptiX_FDK/lib/tinyusb/src/class/msc/msc_device.c ****       if (ep_addr == p_msc->ep_in) {
 424:SynaptiX_FDK/lib/tinyusb/src/class/msc/msc_device.c ****         if (p_msc->stage == MSC_STAGE_STATUS) {
 425:SynaptiX_FDK/lib/tinyusb/src/class/msc/msc_device.c ****           // resume sending SCSI status if we are in this stage previously before stalled
 426:SynaptiX_FDK/lib/tinyusb/src/class/msc/msc_device.c ****           TU_ASSERT(send_csw(p_msc));
 427:SynaptiX_FDK/lib/tinyusb/src/class/msc/msc_device.c ****         }
 428:SynaptiX_FDK/lib/tinyusb/src/class/msc/msc_device.c ****       } else if (ep_addr == p_msc->ep_out) {
 429:SynaptiX_FDK/lib/tinyusb/src/class/msc/msc_device.c ****         if (p_msc->stage == MSC_STAGE_CMD) {
 430:SynaptiX_FDK/lib/tinyusb/src/class/msc/msc_device.c ****           // part of reset recovery (probably due to invalid CBW) -> prepare for new command
 431:SynaptiX_FDK/lib/tinyusb/src/class/msc/msc_device.c ****           // Note: skip if already queued previously
 432:SynaptiX_FDK/lib/tinyusb/src/class/msc/msc_device.c ****           if (usbd_edpt_ready(rhport, p_msc->ep_out)) {
 433:SynaptiX_FDK/lib/tinyusb/src/class/msc/msc_device.c ****             TU_ASSERT(prepare_cbw(p_msc));
 434:SynaptiX_FDK/lib/tinyusb/src/class/msc/msc_device.c ****           }
 435:SynaptiX_FDK/lib/tinyusb/src/class/msc/msc_device.c ****         }
 436:SynaptiX_FDK/lib/tinyusb/src/class/msc/msc_device.c ****       } else {
 437:SynaptiX_FDK/lib/tinyusb/src/class/msc/msc_device.c ****         // nothing to do
 438:SynaptiX_FDK/lib/tinyusb/src/class/msc/msc_device.c ****       }
 439:SynaptiX_FDK/lib/tinyusb/src/class/msc/msc_device.c ****     }
 440:SynaptiX_FDK/lib/tinyusb/src/class/msc/msc_device.c **** 
 441:SynaptiX_FDK/lib/tinyusb/src/class/msc/msc_device.c ****     return true;
 442:SynaptiX_FDK/lib/tinyusb/src/class/msc/msc_device.c ****   }
 443:SynaptiX_FDK/lib/tinyusb/src/class/msc/msc_device.c **** 
 444:SynaptiX_FDK/lib/tinyusb/src/class/msc/msc_device.c ****   // From this point only handle class request only
 445:SynaptiX_FDK/lib/tinyusb/src/class/msc/msc_device.c ****   TU_VERIFY(request->bmRequestType_bit.type == TUSB_REQ_TYPE_CLASS);
 446:SynaptiX_FDK/lib/tinyusb/src/class/msc/msc_device.c **** 
 447:SynaptiX_FDK/lib/tinyusb/src/class/msc/msc_device.c ****   switch ( request->bRequest ) {
 448:SynaptiX_FDK/lib/tinyusb/src/class/msc/msc_device.c ****     case MSC_REQ_RESET:
 449:SynaptiX_FDK/lib/tinyusb/src/class/msc/msc_device.c ****       TU_LOG_DRV("  MSC BOT Reset\r\n");
 450:SynaptiX_FDK/lib/tinyusb/src/class/msc/msc_device.c ****       TU_VERIFY(request->wValue == 0 && request->wLength == 0);
 451:SynaptiX_FDK/lib/tinyusb/src/class/msc/msc_device.c ****       proc_bot_reset(p_msc); // driver state reset
 452:SynaptiX_FDK/lib/tinyusb/src/class/msc/msc_device.c ****       tud_control_status(rhport, request);
 453:SynaptiX_FDK/lib/tinyusb/src/class/msc/msc_device.c ****     break;
 454:SynaptiX_FDK/lib/tinyusb/src/class/msc/msc_device.c **** 
 455:SynaptiX_FDK/lib/tinyusb/src/class/msc/msc_device.c ****     case MSC_REQ_GET_MAX_LUN: {
 456:SynaptiX_FDK/lib/tinyusb/src/class/msc/msc_device.c ****       TU_LOG_DRV("  MSC Get Max Lun\r\n");
 457:SynaptiX_FDK/lib/tinyusb/src/class/msc/msc_device.c ****       TU_VERIFY(request->wValue == 0 && request->wLength == 1);
 458:SynaptiX_FDK/lib/tinyusb/src/class/msc/msc_device.c **** 
ARM GAS  C:\Users\DELL\AppData\Local\Temp\cc6DfR6G.s 			page 33


 459:SynaptiX_FDK/lib/tinyusb/src/class/msc/msc_device.c ****       uint8_t maxlun = tud_msc_get_maxlun_cb();
 460:SynaptiX_FDK/lib/tinyusb/src/class/msc/msc_device.c ****       TU_VERIFY(maxlun != 0);
 461:SynaptiX_FDK/lib/tinyusb/src/class/msc/msc_device.c ****       maxlun--; // MAX LUN is minus 1 by specs
 462:SynaptiX_FDK/lib/tinyusb/src/class/msc/msc_device.c ****       tud_control_xfer(rhport, request, &maxlun, 1);
 463:SynaptiX_FDK/lib/tinyusb/src/class/msc/msc_device.c ****       break;
 464:SynaptiX_FDK/lib/tinyusb/src/class/msc/msc_device.c ****     }
 465:SynaptiX_FDK/lib/tinyusb/src/class/msc/msc_device.c **** 
 466:SynaptiX_FDK/lib/tinyusb/src/class/msc/msc_device.c ****     default: return false; // stall unsupported request
 467:SynaptiX_FDK/lib/tinyusb/src/class/msc/msc_device.c ****   }
 468:SynaptiX_FDK/lib/tinyusb/src/class/msc/msc_device.c **** 
 469:SynaptiX_FDK/lib/tinyusb/src/class/msc/msc_device.c ****   return true;
 470:SynaptiX_FDK/lib/tinyusb/src/class/msc/msc_device.c **** }
 471:SynaptiX_FDK/lib/tinyusb/src/class/msc/msc_device.c **** 
 472:SynaptiX_FDK/lib/tinyusb/src/class/msc/msc_device.c **** bool mscd_xfer_cb(uint8_t rhport, uint8_t ep_addr, xfer_result_t event, uint32_t xferred_bytes) {
 473:SynaptiX_FDK/lib/tinyusb/src/class/msc/msc_device.c ****   (void) event;
 474:SynaptiX_FDK/lib/tinyusb/src/class/msc/msc_device.c **** 
 475:SynaptiX_FDK/lib/tinyusb/src/class/msc/msc_device.c ****   mscd_interface_t* p_msc = &_mscd_itf;
 476:SynaptiX_FDK/lib/tinyusb/src/class/msc/msc_device.c ****   msc_cbw_t * p_cbw = &p_msc->cbw;
 477:SynaptiX_FDK/lib/tinyusb/src/class/msc/msc_device.c ****   msc_csw_t * p_csw = &p_msc->csw;
 478:SynaptiX_FDK/lib/tinyusb/src/class/msc/msc_device.c **** 
 479:SynaptiX_FDK/lib/tinyusb/src/class/msc/msc_device.c ****   switch (p_msc->stage) {
 480:SynaptiX_FDK/lib/tinyusb/src/class/msc/msc_device.c ****     case MSC_STAGE_CMD: {
 481:SynaptiX_FDK/lib/tinyusb/src/class/msc/msc_device.c ****       //------------- new CBW received -------------//
 482:SynaptiX_FDK/lib/tinyusb/src/class/msc/msc_device.c ****       // Complete IN while waiting for CMD is usually Status of previous SCSI op, ignore it
 483:SynaptiX_FDK/lib/tinyusb/src/class/msc/msc_device.c ****       if (ep_addr != p_msc->ep_out) {
 484:SynaptiX_FDK/lib/tinyusb/src/class/msc/msc_device.c ****         return true;
 485:SynaptiX_FDK/lib/tinyusb/src/class/msc/msc_device.c ****       }
 486:SynaptiX_FDK/lib/tinyusb/src/class/msc/msc_device.c **** 
 487:SynaptiX_FDK/lib/tinyusb/src/class/msc/msc_device.c ****       const uint32_t signature = tu_le32toh(tu_unaligned_read32(_mscd_epbuf.buf));
 488:SynaptiX_FDK/lib/tinyusb/src/class/msc/msc_device.c **** 
 489:SynaptiX_FDK/lib/tinyusb/src/class/msc/msc_device.c ****       if (!(xferred_bytes == sizeof(msc_cbw_t) && signature == MSC_CBW_SIGNATURE)) {
 490:SynaptiX_FDK/lib/tinyusb/src/class/msc/msc_device.c ****         // BOT 6.6.1 If CBW is not valid stall both endpoints until reset recovery
 491:SynaptiX_FDK/lib/tinyusb/src/class/msc/msc_device.c ****         TU_LOG_DRV("  SCSI CBW is not valid\r\n");
 492:SynaptiX_FDK/lib/tinyusb/src/class/msc/msc_device.c ****         p_msc->stage = MSC_STAGE_NEED_RESET;
 493:SynaptiX_FDK/lib/tinyusb/src/class/msc/msc_device.c ****         usbd_edpt_stall(rhport, p_msc->ep_in);
 494:SynaptiX_FDK/lib/tinyusb/src/class/msc/msc_device.c ****         usbd_edpt_stall(rhport, p_msc->ep_out);
 495:SynaptiX_FDK/lib/tinyusb/src/class/msc/msc_device.c ****         return false;
 496:SynaptiX_FDK/lib/tinyusb/src/class/msc/msc_device.c ****       }
 497:SynaptiX_FDK/lib/tinyusb/src/class/msc/msc_device.c **** 
 498:SynaptiX_FDK/lib/tinyusb/src/class/msc/msc_device.c ****       memcpy(p_cbw, _mscd_epbuf.buf, sizeof(msc_cbw_t));
 499:SynaptiX_FDK/lib/tinyusb/src/class/msc/msc_device.c **** 
 500:SynaptiX_FDK/lib/tinyusb/src/class/msc/msc_device.c ****       TU_LOG_DRV("  SCSI Command [Lun%u]: %s\r\n", p_cbw->lun, tu_lookup_find(&_msc_scsi_cmd_table,
 501:SynaptiX_FDK/lib/tinyusb/src/class/msc/msc_device.c ****       // TU_LOG_MEM(CFG_TUD_MSC_LOG_LEVEL, p_cbw, xferred_bytes, 2);
 502:SynaptiX_FDK/lib/tinyusb/src/class/msc/msc_device.c **** 
 503:SynaptiX_FDK/lib/tinyusb/src/class/msc/msc_device.c ****       p_csw->signature    = MSC_CSW_SIGNATURE;
 504:SynaptiX_FDK/lib/tinyusb/src/class/msc/msc_device.c ****       p_csw->tag          = p_cbw->tag;
 505:SynaptiX_FDK/lib/tinyusb/src/class/msc/msc_device.c ****       p_csw->data_residue = 0;
 506:SynaptiX_FDK/lib/tinyusb/src/class/msc/msc_device.c ****       p_csw->status       = MSC_CSW_STATUS_PASSED;
 507:SynaptiX_FDK/lib/tinyusb/src/class/msc/msc_device.c **** 
 508:SynaptiX_FDK/lib/tinyusb/src/class/msc/msc_device.c ****       /*------------- Parse command and prepare DATA -------------*/
 509:SynaptiX_FDK/lib/tinyusb/src/class/msc/msc_device.c ****       p_msc->stage = MSC_STAGE_DATA;
 510:SynaptiX_FDK/lib/tinyusb/src/class/msc/msc_device.c ****       p_msc->total_len = p_cbw->total_bytes;
 511:SynaptiX_FDK/lib/tinyusb/src/class/msc/msc_device.c ****       p_msc->xferred_len = 0;
 512:SynaptiX_FDK/lib/tinyusb/src/class/msc/msc_device.c **** 
 513:SynaptiX_FDK/lib/tinyusb/src/class/msc/msc_device.c ****       // Read10 or Write10
 514:SynaptiX_FDK/lib/tinyusb/src/class/msc/msc_device.c ****       if ((SCSI_CMD_READ_10 == p_cbw->command[0]) || (SCSI_CMD_WRITE_10 == p_cbw->command[0])) {
 515:SynaptiX_FDK/lib/tinyusb/src/class/msc/msc_device.c ****         uint8_t const status = rdwr10_validate_cmd(p_cbw);
ARM GAS  C:\Users\DELL\AppData\Local\Temp\cc6DfR6G.s 			page 34


 516:SynaptiX_FDK/lib/tinyusb/src/class/msc/msc_device.c **** 
 517:SynaptiX_FDK/lib/tinyusb/src/class/msc/msc_device.c ****         if (status != MSC_CSW_STATUS_PASSED) {
 518:SynaptiX_FDK/lib/tinyusb/src/class/msc/msc_device.c ****           fail_scsi_op(p_msc, status);
 519:SynaptiX_FDK/lib/tinyusb/src/class/msc/msc_device.c ****         } else if (p_cbw->total_bytes > 0) {
 520:SynaptiX_FDK/lib/tinyusb/src/class/msc/msc_device.c ****           if (SCSI_CMD_READ_10 == p_cbw->command[0]) {
 521:SynaptiX_FDK/lib/tinyusb/src/class/msc/msc_device.c ****             proc_read10_cmd(p_msc);
 522:SynaptiX_FDK/lib/tinyusb/src/class/msc/msc_device.c ****           } else {
 523:SynaptiX_FDK/lib/tinyusb/src/class/msc/msc_device.c ****             proc_write10_cmd(p_msc);
 524:SynaptiX_FDK/lib/tinyusb/src/class/msc/msc_device.c ****           }
 525:SynaptiX_FDK/lib/tinyusb/src/class/msc/msc_device.c ****         } else {
 526:SynaptiX_FDK/lib/tinyusb/src/class/msc/msc_device.c ****           // no data transfer, only exist in complaint test suite
 527:SynaptiX_FDK/lib/tinyusb/src/class/msc/msc_device.c ****           p_msc->stage = MSC_STAGE_STATUS;
 528:SynaptiX_FDK/lib/tinyusb/src/class/msc/msc_device.c ****         }
 529:SynaptiX_FDK/lib/tinyusb/src/class/msc/msc_device.c ****       } else {
 530:SynaptiX_FDK/lib/tinyusb/src/class/msc/msc_device.c ****         // For other SCSI commands
 531:SynaptiX_FDK/lib/tinyusb/src/class/msc/msc_device.c ****         // 1. OUT : queue transfer (invoke app callback after done)
 532:SynaptiX_FDK/lib/tinyusb/src/class/msc/msc_device.c ****         // 2. IN & Zero: Process if is built-in, else Invoke app callback. Skip DATA if zero length
 533:SynaptiX_FDK/lib/tinyusb/src/class/msc/msc_device.c ****         if ((p_cbw->total_bytes > 0) && !is_data_in(p_cbw->dir)) {
 534:SynaptiX_FDK/lib/tinyusb/src/class/msc/msc_device.c ****           if (p_cbw->total_bytes > CFG_TUD_MSC_EP_BUFSIZE) {
 535:SynaptiX_FDK/lib/tinyusb/src/class/msc/msc_device.c ****             TU_LOG_DRV("  SCSI reject non READ10/WRITE10 with large data\r\n");
 536:SynaptiX_FDK/lib/tinyusb/src/class/msc/msc_device.c ****             fail_scsi_op(p_msc, MSC_CSW_STATUS_FAILED);
 537:SynaptiX_FDK/lib/tinyusb/src/class/msc/msc_device.c ****           } else {
 538:SynaptiX_FDK/lib/tinyusb/src/class/msc/msc_device.c ****             // Didn't check for case 9 (Ho > Dn), which requires examining scsi command first
 539:SynaptiX_FDK/lib/tinyusb/src/class/msc/msc_device.c ****             // but it is OK to just receive data then responded with failed status
 540:SynaptiX_FDK/lib/tinyusb/src/class/msc/msc_device.c ****             TU_ASSERT(usbd_edpt_xfer(rhport, p_msc->ep_out, _mscd_epbuf.buf, (uint16_t) p_msc->tota
 541:SynaptiX_FDK/lib/tinyusb/src/class/msc/msc_device.c ****           }
 542:SynaptiX_FDK/lib/tinyusb/src/class/msc/msc_device.c ****         } else {
 543:SynaptiX_FDK/lib/tinyusb/src/class/msc/msc_device.c ****           // First process if it is a built-in commands
 544:SynaptiX_FDK/lib/tinyusb/src/class/msc/msc_device.c ****           int32_t resplen = proc_builtin_scsi(p_cbw->lun, p_cbw->command, _mscd_epbuf.buf, CFG_TUD_
 545:SynaptiX_FDK/lib/tinyusb/src/class/msc/msc_device.c **** 
 546:SynaptiX_FDK/lib/tinyusb/src/class/msc/msc_device.c ****           // Invoke user callback if not built-in
 547:SynaptiX_FDK/lib/tinyusb/src/class/msc/msc_device.c ****           if ((resplen < 0) && (p_msc->sense_key == 0)) {
 548:SynaptiX_FDK/lib/tinyusb/src/class/msc/msc_device.c ****             resplen = tud_msc_scsi_cb(p_cbw->lun, p_cbw->command, _mscd_epbuf.buf, (uint16_t)p_msc-
 549:SynaptiX_FDK/lib/tinyusb/src/class/msc/msc_device.c ****           }
 550:SynaptiX_FDK/lib/tinyusb/src/class/msc/msc_device.c **** 
 551:SynaptiX_FDK/lib/tinyusb/src/class/msc/msc_device.c ****           if (resplen < 0) {
 552:SynaptiX_FDK/lib/tinyusb/src/class/msc/msc_device.c ****             // unsupported command
 553:SynaptiX_FDK/lib/tinyusb/src/class/msc/msc_device.c ****             TU_LOG_DRV("  SCSI unsupported or failed command\r\n");
 554:SynaptiX_FDK/lib/tinyusb/src/class/msc/msc_device.c ****             fail_scsi_op(p_msc, MSC_CSW_STATUS_FAILED);
 555:SynaptiX_FDK/lib/tinyusb/src/class/msc/msc_device.c ****           } else if (resplen == 0) {
 556:SynaptiX_FDK/lib/tinyusb/src/class/msc/msc_device.c ****             if (p_cbw->total_bytes > 0) {
 557:SynaptiX_FDK/lib/tinyusb/src/class/msc/msc_device.c ****               // 6.7 The 13 Cases: case 4 (Hi > Dn)
 558:SynaptiX_FDK/lib/tinyusb/src/class/msc/msc_device.c ****               // TU_LOG_DRV("  SCSI case 4 (Hi > Dn): %lu\r\n", p_cbw->total_bytes);
 559:SynaptiX_FDK/lib/tinyusb/src/class/msc/msc_device.c ****               fail_scsi_op(p_msc, MSC_CSW_STATUS_FAILED);
 560:SynaptiX_FDK/lib/tinyusb/src/class/msc/msc_device.c ****             } else {
 561:SynaptiX_FDK/lib/tinyusb/src/class/msc/msc_device.c ****               // case 1 Hn = Dn: all good
 562:SynaptiX_FDK/lib/tinyusb/src/class/msc/msc_device.c ****               p_msc->stage = MSC_STAGE_STATUS;
 563:SynaptiX_FDK/lib/tinyusb/src/class/msc/msc_device.c ****             }
 564:SynaptiX_FDK/lib/tinyusb/src/class/msc/msc_device.c ****           } else {
 565:SynaptiX_FDK/lib/tinyusb/src/class/msc/msc_device.c ****             if (p_cbw->total_bytes == 0) {
 566:SynaptiX_FDK/lib/tinyusb/src/class/msc/msc_device.c ****               // 6.7 The 13 Cases: case 2 (Hn < Di)
 567:SynaptiX_FDK/lib/tinyusb/src/class/msc/msc_device.c ****               // TU_LOG_DRV("  SCSI case 2 (Hn < Di): %lu\r\n", p_cbw->total_bytes);
 568:SynaptiX_FDK/lib/tinyusb/src/class/msc/msc_device.c ****               fail_scsi_op(p_msc, MSC_CSW_STATUS_FAILED);
 569:SynaptiX_FDK/lib/tinyusb/src/class/msc/msc_device.c ****             } else {
 570:SynaptiX_FDK/lib/tinyusb/src/class/msc/msc_device.c ****               // cannot return more than host expect
 571:SynaptiX_FDK/lib/tinyusb/src/class/msc/msc_device.c ****               p_msc->total_len = tu_min32((uint32_t)resplen, p_cbw->total_bytes);
 572:SynaptiX_FDK/lib/tinyusb/src/class/msc/msc_device.c ****               TU_ASSERT(usbd_edpt_xfer(rhport, p_msc->ep_in, _mscd_epbuf.buf, (uint16_t) p_msc->tot
ARM GAS  C:\Users\DELL\AppData\Local\Temp\cc6DfR6G.s 			page 35


 573:SynaptiX_FDK/lib/tinyusb/src/class/msc/msc_device.c ****             }
 574:SynaptiX_FDK/lib/tinyusb/src/class/msc/msc_device.c ****           }
 575:SynaptiX_FDK/lib/tinyusb/src/class/msc/msc_device.c ****         }
 576:SynaptiX_FDK/lib/tinyusb/src/class/msc/msc_device.c ****       }
 577:SynaptiX_FDK/lib/tinyusb/src/class/msc/msc_device.c ****       break;
 578:SynaptiX_FDK/lib/tinyusb/src/class/msc/msc_device.c ****     }
 579:SynaptiX_FDK/lib/tinyusb/src/class/msc/msc_device.c **** 
 580:SynaptiX_FDK/lib/tinyusb/src/class/msc/msc_device.c ****     case MSC_STAGE_DATA:
 581:SynaptiX_FDK/lib/tinyusb/src/class/msc/msc_device.c ****       TU_LOG_DRV("  SCSI Data [Lun%u]\r\n", p_cbw->lun);
 582:SynaptiX_FDK/lib/tinyusb/src/class/msc/msc_device.c ****       TU_ASSERT(xferred_bytes <= CFG_TUD_MSC_EP_BUFSIZE); // sanity check to avoid buffer overflow
 583:SynaptiX_FDK/lib/tinyusb/src/class/msc/msc_device.c ****       // TU_LOG_MEM(CFG_TUD_MSC_LOG_LEVEL, _mscd_epbuf.buf, xferred_bytes, 2);
 584:SynaptiX_FDK/lib/tinyusb/src/class/msc/msc_device.c **** 
 585:SynaptiX_FDK/lib/tinyusb/src/class/msc/msc_device.c ****       if (SCSI_CMD_READ_10 == p_cbw->command[0]) {
 586:SynaptiX_FDK/lib/tinyusb/src/class/msc/msc_device.c ****         p_msc->xferred_len += xferred_bytes;
 587:SynaptiX_FDK/lib/tinyusb/src/class/msc/msc_device.c **** 
 588:SynaptiX_FDK/lib/tinyusb/src/class/msc/msc_device.c ****         if ( p_msc->xferred_len >= p_msc->total_len ) {
 589:SynaptiX_FDK/lib/tinyusb/src/class/msc/msc_device.c ****           // Data Stage is complete
 590:SynaptiX_FDK/lib/tinyusb/src/class/msc/msc_device.c ****           p_msc->stage = MSC_STAGE_STATUS;
 591:SynaptiX_FDK/lib/tinyusb/src/class/msc/msc_device.c ****         }else {
 592:SynaptiX_FDK/lib/tinyusb/src/class/msc/msc_device.c ****           proc_read10_cmd(p_msc);
 593:SynaptiX_FDK/lib/tinyusb/src/class/msc/msc_device.c ****         }
 594:SynaptiX_FDK/lib/tinyusb/src/class/msc/msc_device.c ****       } else if (SCSI_CMD_WRITE_10 == p_cbw->command[0]) {
 595:SynaptiX_FDK/lib/tinyusb/src/class/msc/msc_device.c ****         proc_write10_host_data(p_msc, xferred_bytes);
 596:SynaptiX_FDK/lib/tinyusb/src/class/msc/msc_device.c ****       } else {
 597:SynaptiX_FDK/lib/tinyusb/src/class/msc/msc_device.c ****         p_msc->xferred_len += xferred_bytes;
 598:SynaptiX_FDK/lib/tinyusb/src/class/msc/msc_device.c **** 
 599:SynaptiX_FDK/lib/tinyusb/src/class/msc/msc_device.c ****         // OUT transfer, invoke callback if needed
 600:SynaptiX_FDK/lib/tinyusb/src/class/msc/msc_device.c ****         if ( !is_data_in(p_cbw->dir) ) {
 601:SynaptiX_FDK/lib/tinyusb/src/class/msc/msc_device.c ****           int32_t cb_result = tud_msc_scsi_cb(p_cbw->lun, p_cbw->command, _mscd_epbuf.buf, (uint16_
 602:SynaptiX_FDK/lib/tinyusb/src/class/msc/msc_device.c **** 
 603:SynaptiX_FDK/lib/tinyusb/src/class/msc/msc_device.c ****           if ( cb_result < 0 ) {
 604:SynaptiX_FDK/lib/tinyusb/src/class/msc/msc_device.c ****             // unsupported command
 605:SynaptiX_FDK/lib/tinyusb/src/class/msc/msc_device.c ****             TU_LOG_DRV("  SCSI unsupported command\r\n");
 606:SynaptiX_FDK/lib/tinyusb/src/class/msc/msc_device.c ****             fail_scsi_op(p_msc, MSC_CSW_STATUS_FAILED);
 607:SynaptiX_FDK/lib/tinyusb/src/class/msc/msc_device.c ****           }else {
 608:SynaptiX_FDK/lib/tinyusb/src/class/msc/msc_device.c ****             // TODO haven't implement this scenario any further yet
 609:SynaptiX_FDK/lib/tinyusb/src/class/msc/msc_device.c ****           }
 610:SynaptiX_FDK/lib/tinyusb/src/class/msc/msc_device.c ****         }
 611:SynaptiX_FDK/lib/tinyusb/src/class/msc/msc_device.c **** 
 612:SynaptiX_FDK/lib/tinyusb/src/class/msc/msc_device.c ****         if ( p_msc->xferred_len >= p_msc->total_len ) {
 613:SynaptiX_FDK/lib/tinyusb/src/class/msc/msc_device.c ****           // Data Stage is complete
 614:SynaptiX_FDK/lib/tinyusb/src/class/msc/msc_device.c ****           p_msc->stage = MSC_STAGE_STATUS;
 615:SynaptiX_FDK/lib/tinyusb/src/class/msc/msc_device.c ****         } else {
 616:SynaptiX_FDK/lib/tinyusb/src/class/msc/msc_device.c ****           // This scenario with command that take more than one transfer is already rejected at Com
 617:SynaptiX_FDK/lib/tinyusb/src/class/msc/msc_device.c ****           TU_BREAKPOINT();
 618:SynaptiX_FDK/lib/tinyusb/src/class/msc/msc_device.c ****         }
 619:SynaptiX_FDK/lib/tinyusb/src/class/msc/msc_device.c ****       }
 620:SynaptiX_FDK/lib/tinyusb/src/class/msc/msc_device.c ****     break;
 621:SynaptiX_FDK/lib/tinyusb/src/class/msc/msc_device.c **** 
 622:SynaptiX_FDK/lib/tinyusb/src/class/msc/msc_device.c ****     case MSC_STAGE_STATUS:
 623:SynaptiX_FDK/lib/tinyusb/src/class/msc/msc_device.c ****       // processed immediately after this switch, supposedly to be empty
 624:SynaptiX_FDK/lib/tinyusb/src/class/msc/msc_device.c ****     break;
 625:SynaptiX_FDK/lib/tinyusb/src/class/msc/msc_device.c **** 
 626:SynaptiX_FDK/lib/tinyusb/src/class/msc/msc_device.c ****     case MSC_STAGE_STATUS_SENT:
 627:SynaptiX_FDK/lib/tinyusb/src/class/msc/msc_device.c ****       // Status phase is complete
 628:SynaptiX_FDK/lib/tinyusb/src/class/msc/msc_device.c ****       if ((ep_addr == p_msc->ep_in) && (xferred_bytes == sizeof(msc_csw_t))) {
 629:SynaptiX_FDK/lib/tinyusb/src/class/msc/msc_device.c ****         TU_LOG_DRV("  SCSI Status [Lun%u] = %u\r\n", p_cbw->lun, p_csw->status);
ARM GAS  C:\Users\DELL\AppData\Local\Temp\cc6DfR6G.s 			page 36


 630:SynaptiX_FDK/lib/tinyusb/src/class/msc/msc_device.c ****         // TU_LOG_MEM(CFG_TUD_MSC_LOG_LEVEL, p_csw, xferred_bytes, 2);
 631:SynaptiX_FDK/lib/tinyusb/src/class/msc/msc_device.c **** 
 632:SynaptiX_FDK/lib/tinyusb/src/class/msc/msc_device.c ****         // Invoke complete callback if defined
 633:SynaptiX_FDK/lib/tinyusb/src/class/msc/msc_device.c ****         // Note: There is racing issue with samd51 + qspi flash testing with arduino
 634:SynaptiX_FDK/lib/tinyusb/src/class/msc/msc_device.c ****         // if complete_cb() is invoked after queuing the status.
 635:SynaptiX_FDK/lib/tinyusb/src/class/msc/msc_device.c ****         switch (p_cbw->command[0]) {
 636:SynaptiX_FDK/lib/tinyusb/src/class/msc/msc_device.c ****           case SCSI_CMD_READ_10:
 637:SynaptiX_FDK/lib/tinyusb/src/class/msc/msc_device.c ****             tud_msc_read10_complete_cb(p_cbw->lun);
 638:SynaptiX_FDK/lib/tinyusb/src/class/msc/msc_device.c ****             break;
 639:SynaptiX_FDK/lib/tinyusb/src/class/msc/msc_device.c **** 
 640:SynaptiX_FDK/lib/tinyusb/src/class/msc/msc_device.c ****           case SCSI_CMD_WRITE_10:
 641:SynaptiX_FDK/lib/tinyusb/src/class/msc/msc_device.c ****             tud_msc_write10_complete_cb(p_cbw->lun);
 642:SynaptiX_FDK/lib/tinyusb/src/class/msc/msc_device.c ****             break;
 643:SynaptiX_FDK/lib/tinyusb/src/class/msc/msc_device.c **** 
 644:SynaptiX_FDK/lib/tinyusb/src/class/msc/msc_device.c ****           default:
 645:SynaptiX_FDK/lib/tinyusb/src/class/msc/msc_device.c ****             tud_msc_scsi_complete_cb(p_cbw->lun, p_cbw->command);
 646:SynaptiX_FDK/lib/tinyusb/src/class/msc/msc_device.c ****             break;
 647:SynaptiX_FDK/lib/tinyusb/src/class/msc/msc_device.c ****         }
 648:SynaptiX_FDK/lib/tinyusb/src/class/msc/msc_device.c **** 
 649:SynaptiX_FDK/lib/tinyusb/src/class/msc/msc_device.c ****         if (!usbd_edpt_stalled(rhport, p_msc->ep_out)) {
 650:SynaptiX_FDK/lib/tinyusb/src/class/msc/msc_device.c ****           TU_ASSERT(prepare_cbw(p_msc));
 651:SynaptiX_FDK/lib/tinyusb/src/class/msc/msc_device.c ****         } else {
 652:SynaptiX_FDK/lib/tinyusb/src/class/msc/msc_device.c ****           p_msc->stage = MSC_STAGE_CMD;
 653:SynaptiX_FDK/lib/tinyusb/src/class/msc/msc_device.c ****         }
 654:SynaptiX_FDK/lib/tinyusb/src/class/msc/msc_device.c ****       } else {
 655:SynaptiX_FDK/lib/tinyusb/src/class/msc/msc_device.c ****         // Any xfer ended here is considered unknown error, ignore it
 656:SynaptiX_FDK/lib/tinyusb/src/class/msc/msc_device.c ****         TU_LOG1("  Warning expect SCSI Status but received unknown data\r\n");
 657:SynaptiX_FDK/lib/tinyusb/src/class/msc/msc_device.c ****       }
 658:SynaptiX_FDK/lib/tinyusb/src/class/msc/msc_device.c ****       break;
 659:SynaptiX_FDK/lib/tinyusb/src/class/msc/msc_device.c **** 
 660:SynaptiX_FDK/lib/tinyusb/src/class/msc/msc_device.c ****     default: break; // nothing to do
 661:SynaptiX_FDK/lib/tinyusb/src/class/msc/msc_device.c ****   }
 662:SynaptiX_FDK/lib/tinyusb/src/class/msc/msc_device.c **** 
 663:SynaptiX_FDK/lib/tinyusb/src/class/msc/msc_device.c ****   if (p_msc->stage == MSC_STAGE_STATUS) {
 664:SynaptiX_FDK/lib/tinyusb/src/class/msc/msc_device.c ****     TU_ASSERT(proc_stage_status(p_msc));
 665:SynaptiX_FDK/lib/tinyusb/src/class/msc/msc_device.c ****   }
 666:SynaptiX_FDK/lib/tinyusb/src/class/msc/msc_device.c **** 
 667:SynaptiX_FDK/lib/tinyusb/src/class/msc/msc_device.c ****   return true;
 668:SynaptiX_FDK/lib/tinyusb/src/class/msc/msc_device.c **** }
 669:SynaptiX_FDK/lib/tinyusb/src/class/msc/msc_device.c **** 
 670:SynaptiX_FDK/lib/tinyusb/src/class/msc/msc_device.c **** /*------------------------------------------------------------------*/
 671:SynaptiX_FDK/lib/tinyusb/src/class/msc/msc_device.c **** /* SCSI Command Process
 672:SynaptiX_FDK/lib/tinyusb/src/class/msc/msc_device.c ****  *------------------------------------------------------------------*/
 673:SynaptiX_FDK/lib/tinyusb/src/class/msc/msc_device.c **** 
 674:SynaptiX_FDK/lib/tinyusb/src/class/msc/msc_device.c **** // return response's length (copied to buffer). Negative if it is not an built-in command or indica
 675:SynaptiX_FDK/lib/tinyusb/src/class/msc/msc_device.c **** // In case of a failed status, sense key must be set for reason of failure
 676:SynaptiX_FDK/lib/tinyusb/src/class/msc/msc_device.c **** static int32_t proc_builtin_scsi(uint8_t lun, uint8_t const scsi_cmd[16], uint8_t* buffer, uint32_t
 677:SynaptiX_FDK/lib/tinyusb/src/class/msc/msc_device.c ****   (void)bufsize; // TODO refractor later
 678:SynaptiX_FDK/lib/tinyusb/src/class/msc/msc_device.c ****   int32_t resplen;
 679:SynaptiX_FDK/lib/tinyusb/src/class/msc/msc_device.c **** 
 680:SynaptiX_FDK/lib/tinyusb/src/class/msc/msc_device.c ****   mscd_interface_t* p_msc = &_mscd_itf;
 681:SynaptiX_FDK/lib/tinyusb/src/class/msc/msc_device.c **** 
 682:SynaptiX_FDK/lib/tinyusb/src/class/msc/msc_device.c ****   switch (scsi_cmd[0]) {
 683:SynaptiX_FDK/lib/tinyusb/src/class/msc/msc_device.c ****     case SCSI_CMD_TEST_UNIT_READY:
 684:SynaptiX_FDK/lib/tinyusb/src/class/msc/msc_device.c ****       resplen = 0;
 685:SynaptiX_FDK/lib/tinyusb/src/class/msc/msc_device.c ****       if (!tud_msc_test_unit_ready_cb(lun)) {
 686:SynaptiX_FDK/lib/tinyusb/src/class/msc/msc_device.c ****         // Failed status response
ARM GAS  C:\Users\DELL\AppData\Local\Temp\cc6DfR6G.s 			page 37


 687:SynaptiX_FDK/lib/tinyusb/src/class/msc/msc_device.c ****         resplen = -1;
 688:SynaptiX_FDK/lib/tinyusb/src/class/msc/msc_device.c **** 
 689:SynaptiX_FDK/lib/tinyusb/src/class/msc/msc_device.c ****         // set default sense if not set by callback
 690:SynaptiX_FDK/lib/tinyusb/src/class/msc/msc_device.c ****         if (p_msc->sense_key == 0) {
 691:SynaptiX_FDK/lib/tinyusb/src/class/msc/msc_device.c ****           set_sense_medium_not_present(lun);
 692:SynaptiX_FDK/lib/tinyusb/src/class/msc/msc_device.c ****         }
 693:SynaptiX_FDK/lib/tinyusb/src/class/msc/msc_device.c ****       }
 694:SynaptiX_FDK/lib/tinyusb/src/class/msc/msc_device.c ****       break;
 695:SynaptiX_FDK/lib/tinyusb/src/class/msc/msc_device.c **** 
 696:SynaptiX_FDK/lib/tinyusb/src/class/msc/msc_device.c ****     case SCSI_CMD_START_STOP_UNIT: {
 697:SynaptiX_FDK/lib/tinyusb/src/class/msc/msc_device.c ****       resplen = 0;
 698:SynaptiX_FDK/lib/tinyusb/src/class/msc/msc_device.c ****       scsi_start_stop_unit_t const* start_stop = (scsi_start_stop_unit_t const*)scsi_cmd;
 699:SynaptiX_FDK/lib/tinyusb/src/class/msc/msc_device.c ****       if (!tud_msc_start_stop_cb(lun, start_stop->power_condition, start_stop->start, start_stop->l
 700:SynaptiX_FDK/lib/tinyusb/src/class/msc/msc_device.c ****         // Failed status response
 701:SynaptiX_FDK/lib/tinyusb/src/class/msc/msc_device.c ****         resplen = -1;
 702:SynaptiX_FDK/lib/tinyusb/src/class/msc/msc_device.c **** 
 703:SynaptiX_FDK/lib/tinyusb/src/class/msc/msc_device.c ****         // set default sense if not set by callback
 704:SynaptiX_FDK/lib/tinyusb/src/class/msc/msc_device.c ****         if (p_msc->sense_key == 0) {
 705:SynaptiX_FDK/lib/tinyusb/src/class/msc/msc_device.c ****           set_sense_medium_not_present(lun);
 706:SynaptiX_FDK/lib/tinyusb/src/class/msc/msc_device.c ****         }
 707:SynaptiX_FDK/lib/tinyusb/src/class/msc/msc_device.c ****       }
 708:SynaptiX_FDK/lib/tinyusb/src/class/msc/msc_device.c ****       break;
 709:SynaptiX_FDK/lib/tinyusb/src/class/msc/msc_device.c ****     }
 710:SynaptiX_FDK/lib/tinyusb/src/class/msc/msc_device.c **** 
 711:SynaptiX_FDK/lib/tinyusb/src/class/msc/msc_device.c ****     case SCSI_CMD_PREVENT_ALLOW_MEDIUM_REMOVAL: {
 712:SynaptiX_FDK/lib/tinyusb/src/class/msc/msc_device.c ****       resplen = 0;
 713:SynaptiX_FDK/lib/tinyusb/src/class/msc/msc_device.c ****       scsi_prevent_allow_medium_removal_t const* prevent_allow = (scsi_prevent_allow_medium_removal
 714:SynaptiX_FDK/lib/tinyusb/src/class/msc/msc_device.c ****       if (!tud_msc_prevent_allow_medium_removal_cb(lun, prevent_allow->prohibit_removal, prevent_al
 715:SynaptiX_FDK/lib/tinyusb/src/class/msc/msc_device.c ****         // Failed status response
 716:SynaptiX_FDK/lib/tinyusb/src/class/msc/msc_device.c ****         resplen = -1;
 717:SynaptiX_FDK/lib/tinyusb/src/class/msc/msc_device.c **** 
 718:SynaptiX_FDK/lib/tinyusb/src/class/msc/msc_device.c ****         // set default sense if not set by callback
 719:SynaptiX_FDK/lib/tinyusb/src/class/msc/msc_device.c ****         if (p_msc->sense_key == 0) {
 720:SynaptiX_FDK/lib/tinyusb/src/class/msc/msc_device.c ****           set_sense_medium_not_present(lun);
 721:SynaptiX_FDK/lib/tinyusb/src/class/msc/msc_device.c ****         }
 722:SynaptiX_FDK/lib/tinyusb/src/class/msc/msc_device.c ****       }
 723:SynaptiX_FDK/lib/tinyusb/src/class/msc/msc_device.c ****       break;
 724:SynaptiX_FDK/lib/tinyusb/src/class/msc/msc_device.c ****     }
 725:SynaptiX_FDK/lib/tinyusb/src/class/msc/msc_device.c **** 
 726:SynaptiX_FDK/lib/tinyusb/src/class/msc/msc_device.c ****     case SCSI_CMD_READ_CAPACITY_10: {
 727:SynaptiX_FDK/lib/tinyusb/src/class/msc/msc_device.c ****       uint32_t block_count;
 728:SynaptiX_FDK/lib/tinyusb/src/class/msc/msc_device.c ****       uint32_t block_size;
 729:SynaptiX_FDK/lib/tinyusb/src/class/msc/msc_device.c ****       uint16_t block_size_u16;
 730:SynaptiX_FDK/lib/tinyusb/src/class/msc/msc_device.c **** 
 731:SynaptiX_FDK/lib/tinyusb/src/class/msc/msc_device.c ****       tud_msc_capacity_cb(lun, &block_count, &block_size_u16);
 732:SynaptiX_FDK/lib/tinyusb/src/class/msc/msc_device.c ****       block_size = (uint32_t)block_size_u16;
 733:SynaptiX_FDK/lib/tinyusb/src/class/msc/msc_device.c **** 
 734:SynaptiX_FDK/lib/tinyusb/src/class/msc/msc_device.c ****       // Invalid block size/count from callback, possibly unit is not ready
 735:SynaptiX_FDK/lib/tinyusb/src/class/msc/msc_device.c ****       // stall this request, set sense key to NOT READY
 736:SynaptiX_FDK/lib/tinyusb/src/class/msc/msc_device.c ****       if (block_count == 0 || block_size == 0) {
 737:SynaptiX_FDK/lib/tinyusb/src/class/msc/msc_device.c ****         resplen = -1;
 738:SynaptiX_FDK/lib/tinyusb/src/class/msc/msc_device.c **** 
 739:SynaptiX_FDK/lib/tinyusb/src/class/msc/msc_device.c ****         // set default sense if not set by callback
 740:SynaptiX_FDK/lib/tinyusb/src/class/msc/msc_device.c ****         if (p_msc->sense_key == 0) {
 741:SynaptiX_FDK/lib/tinyusb/src/class/msc/msc_device.c ****           set_sense_medium_not_present(lun);
 742:SynaptiX_FDK/lib/tinyusb/src/class/msc/msc_device.c ****         }
 743:SynaptiX_FDK/lib/tinyusb/src/class/msc/msc_device.c ****       } else {
ARM GAS  C:\Users\DELL\AppData\Local\Temp\cc6DfR6G.s 			page 38


 744:SynaptiX_FDK/lib/tinyusb/src/class/msc/msc_device.c ****         scsi_read_capacity10_resp_t read_capa10;
 745:SynaptiX_FDK/lib/tinyusb/src/class/msc/msc_device.c **** 
 746:SynaptiX_FDK/lib/tinyusb/src/class/msc/msc_device.c ****         read_capa10.last_lba = tu_htonl(block_count-1);
 747:SynaptiX_FDK/lib/tinyusb/src/class/msc/msc_device.c ****         read_capa10.block_size = tu_htonl(block_size);
 748:SynaptiX_FDK/lib/tinyusb/src/class/msc/msc_device.c **** 
 749:SynaptiX_FDK/lib/tinyusb/src/class/msc/msc_device.c ****         resplen = sizeof(read_capa10);
 750:SynaptiX_FDK/lib/tinyusb/src/class/msc/msc_device.c ****         TU_VERIFY(0 == tu_memcpy_s(buffer, bufsize, &read_capa10, (size_t) resplen));
 751:SynaptiX_FDK/lib/tinyusb/src/class/msc/msc_device.c ****       }
 752:SynaptiX_FDK/lib/tinyusb/src/class/msc/msc_device.c ****       break;
 753:SynaptiX_FDK/lib/tinyusb/src/class/msc/msc_device.c ****     }
 754:SynaptiX_FDK/lib/tinyusb/src/class/msc/msc_device.c **** 
 755:SynaptiX_FDK/lib/tinyusb/src/class/msc/msc_device.c ****     case SCSI_CMD_READ_FORMAT_CAPACITY: {
 756:SynaptiX_FDK/lib/tinyusb/src/class/msc/msc_device.c ****       scsi_read_format_capacity_data_t read_fmt_capa = {
 757:SynaptiX_FDK/lib/tinyusb/src/class/msc/msc_device.c ****         .list_length = 8,
 758:SynaptiX_FDK/lib/tinyusb/src/class/msc/msc_device.c ****         .block_num = 0,
 759:SynaptiX_FDK/lib/tinyusb/src/class/msc/msc_device.c ****         .descriptor_type = 2, // formatted media
 760:SynaptiX_FDK/lib/tinyusb/src/class/msc/msc_device.c ****         .block_size_u16 = 0
 761:SynaptiX_FDK/lib/tinyusb/src/class/msc/msc_device.c ****       };
 762:SynaptiX_FDK/lib/tinyusb/src/class/msc/msc_device.c **** 
 763:SynaptiX_FDK/lib/tinyusb/src/class/msc/msc_device.c ****       uint32_t block_count;
 764:SynaptiX_FDK/lib/tinyusb/src/class/msc/msc_device.c ****       uint16_t block_size;
 765:SynaptiX_FDK/lib/tinyusb/src/class/msc/msc_device.c **** 
 766:SynaptiX_FDK/lib/tinyusb/src/class/msc/msc_device.c ****       tud_msc_capacity_cb(lun, &block_count, &block_size);
 767:SynaptiX_FDK/lib/tinyusb/src/class/msc/msc_device.c **** 
 768:SynaptiX_FDK/lib/tinyusb/src/class/msc/msc_device.c ****       // Invalid block size/count from callback, possibly unit is not ready
 769:SynaptiX_FDK/lib/tinyusb/src/class/msc/msc_device.c ****       // stall this request, set sense key to NOT READY
 770:SynaptiX_FDK/lib/tinyusb/src/class/msc/msc_device.c ****       if (block_count == 0 || block_size == 0) {
 771:SynaptiX_FDK/lib/tinyusb/src/class/msc/msc_device.c ****         resplen = -1;
 772:SynaptiX_FDK/lib/tinyusb/src/class/msc/msc_device.c **** 
 773:SynaptiX_FDK/lib/tinyusb/src/class/msc/msc_device.c ****         // set default sense if not set by callback
 774:SynaptiX_FDK/lib/tinyusb/src/class/msc/msc_device.c ****         if (p_msc->sense_key == 0) {
 775:SynaptiX_FDK/lib/tinyusb/src/class/msc/msc_device.c ****           set_sense_medium_not_present(lun);
 776:SynaptiX_FDK/lib/tinyusb/src/class/msc/msc_device.c ****         }
 777:SynaptiX_FDK/lib/tinyusb/src/class/msc/msc_device.c ****       } else {
 778:SynaptiX_FDK/lib/tinyusb/src/class/msc/msc_device.c ****         read_fmt_capa.block_num = tu_htonl(block_count);
 779:SynaptiX_FDK/lib/tinyusb/src/class/msc/msc_device.c ****         read_fmt_capa.block_size_u16 = tu_htons(block_size);
 780:SynaptiX_FDK/lib/tinyusb/src/class/msc/msc_device.c **** 
 781:SynaptiX_FDK/lib/tinyusb/src/class/msc/msc_device.c ****         resplen = sizeof(read_fmt_capa);
 782:SynaptiX_FDK/lib/tinyusb/src/class/msc/msc_device.c ****         TU_VERIFY(0 == tu_memcpy_s(buffer, bufsize, &read_fmt_capa, (size_t) resplen));
 783:SynaptiX_FDK/lib/tinyusb/src/class/msc/msc_device.c ****       }
 784:SynaptiX_FDK/lib/tinyusb/src/class/msc/msc_device.c ****       break;
 785:SynaptiX_FDK/lib/tinyusb/src/class/msc/msc_device.c ****     }
 786:SynaptiX_FDK/lib/tinyusb/src/class/msc/msc_device.c **** 
 787:SynaptiX_FDK/lib/tinyusb/src/class/msc/msc_device.c ****     case SCSI_CMD_INQUIRY: {
 788:SynaptiX_FDK/lib/tinyusb/src/class/msc/msc_device.c ****       scsi_inquiry_resp_t *inquiry_rsp = (scsi_inquiry_resp_t *) buffer;
 789:SynaptiX_FDK/lib/tinyusb/src/class/msc/msc_device.c ****       tu_memclr(inquiry_rsp, sizeof(scsi_inquiry_resp_t));
 790:SynaptiX_FDK/lib/tinyusb/src/class/msc/msc_device.c ****       inquiry_rsp->is_removable = 1;
 791:SynaptiX_FDK/lib/tinyusb/src/class/msc/msc_device.c ****       inquiry_rsp->version = 2;
 792:SynaptiX_FDK/lib/tinyusb/src/class/msc/msc_device.c ****       inquiry_rsp->response_data_format = 2;
 793:SynaptiX_FDK/lib/tinyusb/src/class/msc/msc_device.c ****       inquiry_rsp->additional_length = sizeof(scsi_inquiry_resp_t) - 5;
 794:SynaptiX_FDK/lib/tinyusb/src/class/msc/msc_device.c **** 
 795:SynaptiX_FDK/lib/tinyusb/src/class/msc/msc_device.c ****       resplen = (int32_t) tud_msc_inquiry2_cb(lun, inquiry_rsp, bufsize);
 796:SynaptiX_FDK/lib/tinyusb/src/class/msc/msc_device.c ****       if (resplen == 0) {
 797:SynaptiX_FDK/lib/tinyusb/src/class/msc/msc_device.c ****         // stub callback with no response, use v1 callback
 798:SynaptiX_FDK/lib/tinyusb/src/class/msc/msc_device.c ****         tud_msc_inquiry_cb(lun, inquiry_rsp->vendor_id, inquiry_rsp->product_id, inquiry_rsp->produ
 799:SynaptiX_FDK/lib/tinyusb/src/class/msc/msc_device.c ****         resplen = sizeof(scsi_inquiry_resp_t);
 800:SynaptiX_FDK/lib/tinyusb/src/class/msc/msc_device.c ****       }
ARM GAS  C:\Users\DELL\AppData\Local\Temp\cc6DfR6G.s 			page 39


 801:SynaptiX_FDK/lib/tinyusb/src/class/msc/msc_device.c ****       break;
 802:SynaptiX_FDK/lib/tinyusb/src/class/msc/msc_device.c ****     }
 803:SynaptiX_FDK/lib/tinyusb/src/class/msc/msc_device.c **** 
 804:SynaptiX_FDK/lib/tinyusb/src/class/msc/msc_device.c ****     case SCSI_CMD_MODE_SENSE_6: {
 805:SynaptiX_FDK/lib/tinyusb/src/class/msc/msc_device.c ****       scsi_mode_sense6_resp_t mode_resp = {
 806:SynaptiX_FDK/lib/tinyusb/src/class/msc/msc_device.c ****         .data_len = 3,
 807:SynaptiX_FDK/lib/tinyusb/src/class/msc/msc_device.c ****         .medium_type = 0,
 808:SynaptiX_FDK/lib/tinyusb/src/class/msc/msc_device.c ****         .write_protected = false,
 809:SynaptiX_FDK/lib/tinyusb/src/class/msc/msc_device.c ****         .reserved = 0,
 810:SynaptiX_FDK/lib/tinyusb/src/class/msc/msc_device.c ****         .block_descriptor_len = 0 // no block descriptor are included
 811:SynaptiX_FDK/lib/tinyusb/src/class/msc/msc_device.c ****       };
 812:SynaptiX_FDK/lib/tinyusb/src/class/msc/msc_device.c **** 
 813:SynaptiX_FDK/lib/tinyusb/src/class/msc/msc_device.c ****       bool writable = tud_msc_is_writable_cb(lun);
 814:SynaptiX_FDK/lib/tinyusb/src/class/msc/msc_device.c **** 
 815:SynaptiX_FDK/lib/tinyusb/src/class/msc/msc_device.c ****       mode_resp.write_protected = !writable;
 816:SynaptiX_FDK/lib/tinyusb/src/class/msc/msc_device.c **** 
 817:SynaptiX_FDK/lib/tinyusb/src/class/msc/msc_device.c ****       resplen = sizeof(mode_resp);
 818:SynaptiX_FDK/lib/tinyusb/src/class/msc/msc_device.c ****       TU_VERIFY(0 == tu_memcpy_s(buffer, bufsize, &mode_resp, (size_t) resplen));
 819:SynaptiX_FDK/lib/tinyusb/src/class/msc/msc_device.c ****       break;
 820:SynaptiX_FDK/lib/tinyusb/src/class/msc/msc_device.c ****     }
 821:SynaptiX_FDK/lib/tinyusb/src/class/msc/msc_device.c **** 
 822:SynaptiX_FDK/lib/tinyusb/src/class/msc/msc_device.c ****     case SCSI_CMD_REQUEST_SENSE: {
 823:SynaptiX_FDK/lib/tinyusb/src/class/msc/msc_device.c ****       scsi_sense_fixed_resp_t sense_rsp = {
 824:SynaptiX_FDK/lib/tinyusb/src/class/msc/msc_device.c ****         .response_code = 0x70, // current, fixed format
 825:SynaptiX_FDK/lib/tinyusb/src/class/msc/msc_device.c ****         .valid = 1
 826:SynaptiX_FDK/lib/tinyusb/src/class/msc/msc_device.c ****       };
 827:SynaptiX_FDK/lib/tinyusb/src/class/msc/msc_device.c **** 
 828:SynaptiX_FDK/lib/tinyusb/src/class/msc/msc_device.c ****       sense_rsp.add_sense_len = sizeof(scsi_sense_fixed_resp_t) - 8;
 829:SynaptiX_FDK/lib/tinyusb/src/class/msc/msc_device.c ****       sense_rsp.sense_key = (uint8_t)(p_msc->sense_key & 0x0F);
 830:SynaptiX_FDK/lib/tinyusb/src/class/msc/msc_device.c ****       sense_rsp.add_sense_code = p_msc->add_sense_code;
 831:SynaptiX_FDK/lib/tinyusb/src/class/msc/msc_device.c ****       sense_rsp.add_sense_qualifier = p_msc->add_sense_qualifier;
 832:SynaptiX_FDK/lib/tinyusb/src/class/msc/msc_device.c **** 
 833:SynaptiX_FDK/lib/tinyusb/src/class/msc/msc_device.c ****       resplen = sizeof(sense_rsp);
 834:SynaptiX_FDK/lib/tinyusb/src/class/msc/msc_device.c ****       TU_VERIFY(0 == tu_memcpy_s(buffer, bufsize, &sense_rsp, (size_t) resplen));
 835:SynaptiX_FDK/lib/tinyusb/src/class/msc/msc_device.c **** 
 836:SynaptiX_FDK/lib/tinyusb/src/class/msc/msc_device.c ****       // request sense callback could overwrite the sense data
 837:SynaptiX_FDK/lib/tinyusb/src/class/msc/msc_device.c ****       resplen = tud_msc_request_sense_cb(lun, buffer, (uint16_t)bufsize);
 838:SynaptiX_FDK/lib/tinyusb/src/class/msc/msc_device.c **** 
 839:SynaptiX_FDK/lib/tinyusb/src/class/msc/msc_device.c ****       // Clear sense data after copy
 840:SynaptiX_FDK/lib/tinyusb/src/class/msc/msc_device.c ****       (void) tud_msc_set_sense(lun, 0, 0, 0);
 841:SynaptiX_FDK/lib/tinyusb/src/class/msc/msc_device.c ****       break;
 842:SynaptiX_FDK/lib/tinyusb/src/class/msc/msc_device.c ****     }
 843:SynaptiX_FDK/lib/tinyusb/src/class/msc/msc_device.c **** 
 844:SynaptiX_FDK/lib/tinyusb/src/class/msc/msc_device.c ****     default: resplen = -1;
 845:SynaptiX_FDK/lib/tinyusb/src/class/msc/msc_device.c ****       break;
 846:SynaptiX_FDK/lib/tinyusb/src/class/msc/msc_device.c ****   }
 847:SynaptiX_FDK/lib/tinyusb/src/class/msc/msc_device.c **** 
 848:SynaptiX_FDK/lib/tinyusb/src/class/msc/msc_device.c ****   return resplen;
 849:SynaptiX_FDK/lib/tinyusb/src/class/msc/msc_device.c **** }
 850:SynaptiX_FDK/lib/tinyusb/src/class/msc/msc_device.c **** 
 851:SynaptiX_FDK/lib/tinyusb/src/class/msc/msc_device.c **** static void proc_read10_cmd(mscd_interface_t* p_msc) {
 852:SynaptiX_FDK/lib/tinyusb/src/class/msc/msc_device.c ****   msc_cbw_t const* p_cbw = &p_msc->cbw;
 853:SynaptiX_FDK/lib/tinyusb/src/class/msc/msc_device.c ****   uint16_t const block_sz = rdwr10_get_blocksize(p_cbw); // already verified non-zero
 854:SynaptiX_FDK/lib/tinyusb/src/class/msc/msc_device.c ****   TU_VERIFY(block_sz != 0, );
 855:SynaptiX_FDK/lib/tinyusb/src/class/msc/msc_device.c ****   // Adjust lba & offset with transferred bytes
 856:SynaptiX_FDK/lib/tinyusb/src/class/msc/msc_device.c ****   uint32_t const lba = rdwr10_get_lba(p_cbw->command) + (p_msc->xferred_len / block_sz);
 857:SynaptiX_FDK/lib/tinyusb/src/class/msc/msc_device.c ****   uint32_t const offset = p_msc->xferred_len % block_sz;
ARM GAS  C:\Users\DELL\AppData\Local\Temp\cc6DfR6G.s 			page 40


 858:SynaptiX_FDK/lib/tinyusb/src/class/msc/msc_device.c **** 
 859:SynaptiX_FDK/lib/tinyusb/src/class/msc/msc_device.c ****   // remaining bytes capped at class buffer
 860:SynaptiX_FDK/lib/tinyusb/src/class/msc/msc_device.c ****   int32_t nbytes = (int32_t)tu_min32(CFG_TUD_MSC_EP_BUFSIZE, p_cbw->total_bytes - p_msc->xferred_le
 861:SynaptiX_FDK/lib/tinyusb/src/class/msc/msc_device.c **** 
 862:SynaptiX_FDK/lib/tinyusb/src/class/msc/msc_device.c ****   p_msc->pending_io = true;
 863:SynaptiX_FDK/lib/tinyusb/src/class/msc/msc_device.c ****   nbytes = tud_msc_read10_cb(p_cbw->lun, lba, offset, _mscd_epbuf.buf, (uint32_t)nbytes);
 864:SynaptiX_FDK/lib/tinyusb/src/class/msc/msc_device.c ****   if (nbytes != TUD_MSC_RET_ASYNC) {
 865:SynaptiX_FDK/lib/tinyusb/src/class/msc/msc_device.c ****     p_msc->pending_io = false;
 866:SynaptiX_FDK/lib/tinyusb/src/class/msc/msc_device.c ****     proc_read_io_data(p_msc, nbytes);
 867:SynaptiX_FDK/lib/tinyusb/src/class/msc/msc_device.c ****   }
 868:SynaptiX_FDK/lib/tinyusb/src/class/msc/msc_device.c **** }
 869:SynaptiX_FDK/lib/tinyusb/src/class/msc/msc_device.c **** 
 870:SynaptiX_FDK/lib/tinyusb/src/class/msc/msc_device.c **** static void proc_read_io_data(mscd_interface_t* p_msc, int32_t nbytes) {
 859              		.loc 1 870 72 is_stmt 1 view -0
 860              		.cfi_startproc
 861              		@ args = 0, pretend = 0, frame = 16
 862              		@ frame_needed = 0, uses_anonymous_args = 0
 863              		.loc 1 870 72 is_stmt 0 view .LVU242
 864 0000 10B5     		push	{r4, lr}
 865              	.LCFI9:
 866              		.cfi_def_cfa_offset 8
 867              		.cfi_offset 4, -8
 868              		.cfi_offset 14, -4
 869 0002 86B0     		sub	sp, sp, #24
 870              	.LCFI10:
 871              		.cfi_def_cfa_offset 32
 872 0004 0446     		mov	r4, r0
 871:SynaptiX_FDK/lib/tinyusb/src/class/msc/msc_device.c ****   const uint8_t rhport = p_msc->rhport;
 873              		.loc 1 871 3 is_stmt 1 view .LVU243
 874              		.loc 1 871 17 is_stmt 0 view .LVU244
 875 0006 C07F     		ldrb	r0, [r0, #31]	@ zero_extendqisi2
 876              	.LVL60:
 872:SynaptiX_FDK/lib/tinyusb/src/class/msc/msc_device.c ****   if (nbytes > 0) {
 877              		.loc 1 872 3 is_stmt 1 view .LVU245
 878              		.loc 1 872 6 is_stmt 0 view .LVU246
 879 0008 0029     		cmp	r1, #0
 880              		.loc 1 872 6 view .LVU247
 881 000a 14DC     		bgt	.L62
 873:SynaptiX_FDK/lib/tinyusb/src/class/msc/msc_device.c ****     TU_ASSERT(usbd_edpt_xfer(rhport, p_msc->ep_in, _mscd_epbuf.buf, (uint16_t) nbytes, false),);
 874:SynaptiX_FDK/lib/tinyusb/src/class/msc/msc_device.c ****   } else {
 875:SynaptiX_FDK/lib/tinyusb/src/class/msc/msc_device.c ****     // nbytes is status
 876:SynaptiX_FDK/lib/tinyusb/src/class/msc/msc_device.c ****     switch (nbytes) {
 882              		.loc 1 876 5 is_stmt 1 view .LVU248
 883 000c B1F1FF3F 		cmp	r1, #-1
 884 0010 25D0     		beq	.L59
 885 0012 C9B9     		cbnz	r1, .L55
 877:SynaptiX_FDK/lib/tinyusb/src/class/msc/msc_device.c ****       case TUD_MSC_RET_ERROR:
 878:SynaptiX_FDK/lib/tinyusb/src/class/msc/msc_device.c ****         // error -> endpoint is stalled & status in CSW set to failed
 879:SynaptiX_FDK/lib/tinyusb/src/class/msc/msc_device.c ****         TU_LOG_DRV("  IO read() failed\r\n");
 880:SynaptiX_FDK/lib/tinyusb/src/class/msc/msc_device.c ****         set_sense_medium_not_present(p_msc->cbw.lun);
 881:SynaptiX_FDK/lib/tinyusb/src/class/msc/msc_device.c ****         fail_scsi_op(p_msc, MSC_CSW_STATUS_FAILED);
 882:SynaptiX_FDK/lib/tinyusb/src/class/msc/msc_device.c ****         break;
 883:SynaptiX_FDK/lib/tinyusb/src/class/msc/msc_device.c **** 
 884:SynaptiX_FDK/lib/tinyusb/src/class/msc/msc_device.c ****       case TUD_MSC_RET_BUSY:
 885:SynaptiX_FDK/lib/tinyusb/src/class/msc/msc_device.c ****         // not ready yet -> fake a transfer complete so that this driver callback will fire again
 886:SynaptiX_FDK/lib/tinyusb/src/class/msc/msc_device.c ****         dcd_event_xfer_complete(rhport, p_msc->ep_in, 0, XFER_RESULT_SUCCESS, false);
 886              		.loc 1 886 9 view .LVU249
ARM GAS  C:\Users\DELL\AppData\Local\Temp\cc6DfR6G.s 			page 41


 887 0014 94F82E30 		ldrb	r3, [r4, #46]	@ zero_extendqisi2
 888              	.LVL61:
 889              	.LBB166:
 890              	.LBI166:
 891              		.file 3 "SynaptiX_FDK/lib/tinyusb/src/device/dcd.h"
   1:SynaptiX_FDK/lib/tinyusb/src/device/dcd.h **** /*
   2:SynaptiX_FDK/lib/tinyusb/src/device/dcd.h ****  * The MIT License (MIT)
   3:SynaptiX_FDK/lib/tinyusb/src/device/dcd.h ****  *
   4:SynaptiX_FDK/lib/tinyusb/src/device/dcd.h ****  * Copyright (c) 2019 Ha Thach (tinyusb.org)
   5:SynaptiX_FDK/lib/tinyusb/src/device/dcd.h ****  *
   6:SynaptiX_FDK/lib/tinyusb/src/device/dcd.h ****  * Permission is hereby granted, free of charge, to any person obtaining a copy
   7:SynaptiX_FDK/lib/tinyusb/src/device/dcd.h ****  * of this software and associated documentation files (the "Software"), to deal
   8:SynaptiX_FDK/lib/tinyusb/src/device/dcd.h ****  * in the Software without restriction, including without limitation the rights
   9:SynaptiX_FDK/lib/tinyusb/src/device/dcd.h ****  * to use, copy, modify, merge, publish, distribute, sublicense, and/or sell
  10:SynaptiX_FDK/lib/tinyusb/src/device/dcd.h ****  * copies of the Software, and to permit persons to whom the Software is
  11:SynaptiX_FDK/lib/tinyusb/src/device/dcd.h ****  * furnished to do so, subject to the following conditions:
  12:SynaptiX_FDK/lib/tinyusb/src/device/dcd.h ****  *
  13:SynaptiX_FDK/lib/tinyusb/src/device/dcd.h ****  * The above copyright notice and this permission notice shall be included in
  14:SynaptiX_FDK/lib/tinyusb/src/device/dcd.h ****  * all copies or substantial portions of the Software.
  15:SynaptiX_FDK/lib/tinyusb/src/device/dcd.h ****  *
  16:SynaptiX_FDK/lib/tinyusb/src/device/dcd.h ****  * THE SOFTWARE IS PROVIDED "AS IS", WITHOUT WARRANTY OF ANY KIND, EXPRESS OR
  17:SynaptiX_FDK/lib/tinyusb/src/device/dcd.h ****  * IMPLIED, INCLUDING BUT NOT LIMITED TO THE WARRANTIES OF MERCHANTABILITY,
  18:SynaptiX_FDK/lib/tinyusb/src/device/dcd.h ****  * FITNESS FOR A PARTICULAR PURPOSE AND NONINFRINGEMENT. IN NO EVENT SHALL THE
  19:SynaptiX_FDK/lib/tinyusb/src/device/dcd.h ****  * AUTHORS OR COPYRIGHT HOLDERS BE LIABLE FOR ANY CLAIM, DAMAGES OR OTHER
  20:SynaptiX_FDK/lib/tinyusb/src/device/dcd.h ****  * LIABILITY, WHETHER IN AN ACTION OF CONTRACT, TORT OR OTHERWISE, ARISING FROM,
  21:SynaptiX_FDK/lib/tinyusb/src/device/dcd.h ****  * OUT OF OR IN CONNECTION WITH THE SOFTWARE OR THE USE OR OTHER DEALINGS IN
  22:SynaptiX_FDK/lib/tinyusb/src/device/dcd.h ****  * THE SOFTWARE.
  23:SynaptiX_FDK/lib/tinyusb/src/device/dcd.h ****  *
  24:SynaptiX_FDK/lib/tinyusb/src/device/dcd.h ****  * This file is part of the TinyUSB stack.
  25:SynaptiX_FDK/lib/tinyusb/src/device/dcd.h ****  */
  26:SynaptiX_FDK/lib/tinyusb/src/device/dcd.h **** 
  27:SynaptiX_FDK/lib/tinyusb/src/device/dcd.h **** #ifndef TUSB_DCD_H_
  28:SynaptiX_FDK/lib/tinyusb/src/device/dcd.h **** #define TUSB_DCD_H_
  29:SynaptiX_FDK/lib/tinyusb/src/device/dcd.h **** 
  30:SynaptiX_FDK/lib/tinyusb/src/device/dcd.h **** #include "common/tusb_common.h"
  31:SynaptiX_FDK/lib/tinyusb/src/device/dcd.h **** #include "osal/osal.h"
  32:SynaptiX_FDK/lib/tinyusb/src/device/dcd.h **** #include "common/tusb_fifo.h"
  33:SynaptiX_FDK/lib/tinyusb/src/device/dcd.h **** 
  34:SynaptiX_FDK/lib/tinyusb/src/device/dcd.h **** #ifdef __cplusplus
  35:SynaptiX_FDK/lib/tinyusb/src/device/dcd.h ****  extern "C" {
  36:SynaptiX_FDK/lib/tinyusb/src/device/dcd.h **** #endif
  37:SynaptiX_FDK/lib/tinyusb/src/device/dcd.h **** 
  38:SynaptiX_FDK/lib/tinyusb/src/device/dcd.h **** //--------------------------------------------------------------------+
  39:SynaptiX_FDK/lib/tinyusb/src/device/dcd.h **** // MACRO CONSTANT TYPEDEF PROTYPES
  40:SynaptiX_FDK/lib/tinyusb/src/device/dcd.h **** //--------------------------------------------------------------------+
  41:SynaptiX_FDK/lib/tinyusb/src/device/dcd.h **** 
  42:SynaptiX_FDK/lib/tinyusb/src/device/dcd.h **** typedef enum {
  43:SynaptiX_FDK/lib/tinyusb/src/device/dcd.h ****   DCD_EVENT_INVALID = 0,    // 0
  44:SynaptiX_FDK/lib/tinyusb/src/device/dcd.h ****   DCD_EVENT_BUS_RESET,      // 1
  45:SynaptiX_FDK/lib/tinyusb/src/device/dcd.h ****   DCD_EVENT_UNPLUGGED,      // 2
  46:SynaptiX_FDK/lib/tinyusb/src/device/dcd.h ****   DCD_EVENT_SOF,            // 3
  47:SynaptiX_FDK/lib/tinyusb/src/device/dcd.h ****   DCD_EVENT_SUSPEND,        // 4 TODO LPM Sleep L1 support
  48:SynaptiX_FDK/lib/tinyusb/src/device/dcd.h ****   DCD_EVENT_RESUME,         // 5
  49:SynaptiX_FDK/lib/tinyusb/src/device/dcd.h ****   DCD_EVENT_SETUP_RECEIVED, // 6
  50:SynaptiX_FDK/lib/tinyusb/src/device/dcd.h ****   DCD_EVENT_XFER_COMPLETE,  // 7
  51:SynaptiX_FDK/lib/tinyusb/src/device/dcd.h ****   USBD_EVENT_FUNC_CALL,     // 8 Not an DCD event, just a convenient way to defer ISR function
  52:SynaptiX_FDK/lib/tinyusb/src/device/dcd.h ****   DCD_EVENT_COUNT
ARM GAS  C:\Users\DELL\AppData\Local\Temp\cc6DfR6G.s 			page 42


  53:SynaptiX_FDK/lib/tinyusb/src/device/dcd.h **** } dcd_eventid_t;
  54:SynaptiX_FDK/lib/tinyusb/src/device/dcd.h **** 
  55:SynaptiX_FDK/lib/tinyusb/src/device/dcd.h **** typedef struct TU_ATTR_ALIGNED(4) {
  56:SynaptiX_FDK/lib/tinyusb/src/device/dcd.h ****   uint8_t rhport;
  57:SynaptiX_FDK/lib/tinyusb/src/device/dcd.h ****   uint8_t event_id;
  58:SynaptiX_FDK/lib/tinyusb/src/device/dcd.h **** 
  59:SynaptiX_FDK/lib/tinyusb/src/device/dcd.h ****   union {
  60:SynaptiX_FDK/lib/tinyusb/src/device/dcd.h ****     // BUS RESET
  61:SynaptiX_FDK/lib/tinyusb/src/device/dcd.h ****     struct {
  62:SynaptiX_FDK/lib/tinyusb/src/device/dcd.h ****       tusb_speed_t speed;
  63:SynaptiX_FDK/lib/tinyusb/src/device/dcd.h ****     } bus_reset;
  64:SynaptiX_FDK/lib/tinyusb/src/device/dcd.h **** 
  65:SynaptiX_FDK/lib/tinyusb/src/device/dcd.h ****     // SOF
  66:SynaptiX_FDK/lib/tinyusb/src/device/dcd.h ****     struct {
  67:SynaptiX_FDK/lib/tinyusb/src/device/dcd.h ****       uint32_t frame_count;
  68:SynaptiX_FDK/lib/tinyusb/src/device/dcd.h ****     }sof;
  69:SynaptiX_FDK/lib/tinyusb/src/device/dcd.h **** 
  70:SynaptiX_FDK/lib/tinyusb/src/device/dcd.h ****     // SETUP_RECEIVED
  71:SynaptiX_FDK/lib/tinyusb/src/device/dcd.h ****     tusb_control_request_t setup_received;
  72:SynaptiX_FDK/lib/tinyusb/src/device/dcd.h **** 
  73:SynaptiX_FDK/lib/tinyusb/src/device/dcd.h ****     // XFER_COMPLETE
  74:SynaptiX_FDK/lib/tinyusb/src/device/dcd.h ****     struct {
  75:SynaptiX_FDK/lib/tinyusb/src/device/dcd.h ****       uint8_t  ep_addr;
  76:SynaptiX_FDK/lib/tinyusb/src/device/dcd.h ****       uint8_t  result;
  77:SynaptiX_FDK/lib/tinyusb/src/device/dcd.h ****       uint32_t len;
  78:SynaptiX_FDK/lib/tinyusb/src/device/dcd.h ****     }xfer_complete;
  79:SynaptiX_FDK/lib/tinyusb/src/device/dcd.h **** 
  80:SynaptiX_FDK/lib/tinyusb/src/device/dcd.h ****     // FUNC_CALL
  81:SynaptiX_FDK/lib/tinyusb/src/device/dcd.h ****     struct {
  82:SynaptiX_FDK/lib/tinyusb/src/device/dcd.h ****       void (*func) (void* param);
  83:SynaptiX_FDK/lib/tinyusb/src/device/dcd.h ****       void* param;
  84:SynaptiX_FDK/lib/tinyusb/src/device/dcd.h ****     }func_call;
  85:SynaptiX_FDK/lib/tinyusb/src/device/dcd.h ****   };
  86:SynaptiX_FDK/lib/tinyusb/src/device/dcd.h **** } dcd_event_t;
  87:SynaptiX_FDK/lib/tinyusb/src/device/dcd.h **** 
  88:SynaptiX_FDK/lib/tinyusb/src/device/dcd.h **** //TU_VERIFY_STATIC(sizeof(dcd_event_t) <= 12, "size is not correct");
  89:SynaptiX_FDK/lib/tinyusb/src/device/dcd.h **** 
  90:SynaptiX_FDK/lib/tinyusb/src/device/dcd.h **** //--------------------------------------------------------------------+
  91:SynaptiX_FDK/lib/tinyusb/src/device/dcd.h **** // Memory API
  92:SynaptiX_FDK/lib/tinyusb/src/device/dcd.h **** //--------------------------------------------------------------------+
  93:SynaptiX_FDK/lib/tinyusb/src/device/dcd.h **** 
  94:SynaptiX_FDK/lib/tinyusb/src/device/dcd.h **** // clean/flush data cache: write cache -> memory.
  95:SynaptiX_FDK/lib/tinyusb/src/device/dcd.h **** // Required before an DMA TX transfer to make sure data is in memory
  96:SynaptiX_FDK/lib/tinyusb/src/device/dcd.h **** bool dcd_dcache_clean(const void* addr, uint32_t data_size);
  97:SynaptiX_FDK/lib/tinyusb/src/device/dcd.h **** 
  98:SynaptiX_FDK/lib/tinyusb/src/device/dcd.h **** // invalidate data cache: mark cache as invalid, next read will read from memory
  99:SynaptiX_FDK/lib/tinyusb/src/device/dcd.h **** // Required BOTH before and after an DMA RX transfer
 100:SynaptiX_FDK/lib/tinyusb/src/device/dcd.h **** bool dcd_dcache_invalidate(const void* addr, uint32_t data_size);
 101:SynaptiX_FDK/lib/tinyusb/src/device/dcd.h **** 
 102:SynaptiX_FDK/lib/tinyusb/src/device/dcd.h **** // clean and invalidate data cache
 103:SynaptiX_FDK/lib/tinyusb/src/device/dcd.h **** // Required before an DMA transfer where memory is both read/write by DMA
 104:SynaptiX_FDK/lib/tinyusb/src/device/dcd.h **** bool dcd_dcache_clean_invalidate(const void* addr, uint32_t data_size);
 105:SynaptiX_FDK/lib/tinyusb/src/device/dcd.h **** 
 106:SynaptiX_FDK/lib/tinyusb/src/device/dcd.h **** //--------------------------------------------------------------------+
 107:SynaptiX_FDK/lib/tinyusb/src/device/dcd.h **** // Controller API
 108:SynaptiX_FDK/lib/tinyusb/src/device/dcd.h **** //--------------------------------------------------------------------+
 109:SynaptiX_FDK/lib/tinyusb/src/device/dcd.h **** 
ARM GAS  C:\Users\DELL\AppData\Local\Temp\cc6DfR6G.s 			page 43


 110:SynaptiX_FDK/lib/tinyusb/src/device/dcd.h **** // optional dcd configuration, called by tud_configure()
 111:SynaptiX_FDK/lib/tinyusb/src/device/dcd.h **** bool dcd_configure(uint8_t rhport, uint32_t cfg_id, const void* cfg_param);
 112:SynaptiX_FDK/lib/tinyusb/src/device/dcd.h **** 
 113:SynaptiX_FDK/lib/tinyusb/src/device/dcd.h **** // Initialize controller to device mode
 114:SynaptiX_FDK/lib/tinyusb/src/device/dcd.h **** bool dcd_init(uint8_t rhport, const tusb_rhport_init_t* rh_init);
 115:SynaptiX_FDK/lib/tinyusb/src/device/dcd.h **** 
 116:SynaptiX_FDK/lib/tinyusb/src/device/dcd.h **** // Deinitialize controller, unset device mode.
 117:SynaptiX_FDK/lib/tinyusb/src/device/dcd.h **** bool dcd_deinit(uint8_t rhport);
 118:SynaptiX_FDK/lib/tinyusb/src/device/dcd.h **** 
 119:SynaptiX_FDK/lib/tinyusb/src/device/dcd.h **** // Interrupt Handler
 120:SynaptiX_FDK/lib/tinyusb/src/device/dcd.h **** void dcd_int_handler(uint8_t rhport);
 121:SynaptiX_FDK/lib/tinyusb/src/device/dcd.h **** 
 122:SynaptiX_FDK/lib/tinyusb/src/device/dcd.h **** // Enable device interrupt
 123:SynaptiX_FDK/lib/tinyusb/src/device/dcd.h **** void dcd_int_enable (uint8_t rhport);
 124:SynaptiX_FDK/lib/tinyusb/src/device/dcd.h **** 
 125:SynaptiX_FDK/lib/tinyusb/src/device/dcd.h **** // Disable device interrupt
 126:SynaptiX_FDK/lib/tinyusb/src/device/dcd.h **** void dcd_int_disable(uint8_t rhport);
 127:SynaptiX_FDK/lib/tinyusb/src/device/dcd.h **** 
 128:SynaptiX_FDK/lib/tinyusb/src/device/dcd.h **** // Receive Set Address request, mcu port must also include status IN response
 129:SynaptiX_FDK/lib/tinyusb/src/device/dcd.h **** void dcd_set_address(uint8_t rhport, uint8_t dev_addr);
 130:SynaptiX_FDK/lib/tinyusb/src/device/dcd.h **** 
 131:SynaptiX_FDK/lib/tinyusb/src/device/dcd.h **** // Wake up host
 132:SynaptiX_FDK/lib/tinyusb/src/device/dcd.h **** void dcd_remote_wakeup(uint8_t rhport);
 133:SynaptiX_FDK/lib/tinyusb/src/device/dcd.h **** 
 134:SynaptiX_FDK/lib/tinyusb/src/device/dcd.h **** // Connect by enabling internal pull-up resistor on D+/D-
 135:SynaptiX_FDK/lib/tinyusb/src/device/dcd.h **** void dcd_connect(uint8_t rhport);
 136:SynaptiX_FDK/lib/tinyusb/src/device/dcd.h **** 
 137:SynaptiX_FDK/lib/tinyusb/src/device/dcd.h **** // Disconnect by disabling internal pull-up resistor on D+/D-
 138:SynaptiX_FDK/lib/tinyusb/src/device/dcd.h **** void dcd_disconnect(uint8_t rhport);
 139:SynaptiX_FDK/lib/tinyusb/src/device/dcd.h **** 
 140:SynaptiX_FDK/lib/tinyusb/src/device/dcd.h **** // Enable/Disable Start-of-frame interrupt. Default is disabled
 141:SynaptiX_FDK/lib/tinyusb/src/device/dcd.h **** void dcd_sof_enable(uint8_t rhport, bool en);
 142:SynaptiX_FDK/lib/tinyusb/src/device/dcd.h **** 
 143:SynaptiX_FDK/lib/tinyusb/src/device/dcd.h **** #if CFG_TUD_TEST_MODE
 144:SynaptiX_FDK/lib/tinyusb/src/device/dcd.h **** // Put device into a test mode (needs power cycle to quit)
 145:SynaptiX_FDK/lib/tinyusb/src/device/dcd.h **** void dcd_enter_test_mode(uint8_t rhport, tusb_feature_test_mode_t test_selector);
 146:SynaptiX_FDK/lib/tinyusb/src/device/dcd.h **** #endif
 147:SynaptiX_FDK/lib/tinyusb/src/device/dcd.h **** //--------------------------------------------------------------------+
 148:SynaptiX_FDK/lib/tinyusb/src/device/dcd.h **** // Endpoint API
 149:SynaptiX_FDK/lib/tinyusb/src/device/dcd.h **** //--------------------------------------------------------------------+
 150:SynaptiX_FDK/lib/tinyusb/src/device/dcd.h **** 
 151:SynaptiX_FDK/lib/tinyusb/src/device/dcd.h **** // Invoked when a control transfer's status stage is complete.
 152:SynaptiX_FDK/lib/tinyusb/src/device/dcd.h **** // May help DCD to prepare for next control transfer, this API is optional.
 153:SynaptiX_FDK/lib/tinyusb/src/device/dcd.h **** void dcd_edpt0_status_complete(uint8_t rhport, tusb_control_request_t const * request);
 154:SynaptiX_FDK/lib/tinyusb/src/device/dcd.h **** 
 155:SynaptiX_FDK/lib/tinyusb/src/device/dcd.h **** // Configure endpoint's registers according to descriptor
 156:SynaptiX_FDK/lib/tinyusb/src/device/dcd.h **** bool dcd_edpt_open            (uint8_t rhport, tusb_desc_endpoint_t const * desc_ep);
 157:SynaptiX_FDK/lib/tinyusb/src/device/dcd.h **** 
 158:SynaptiX_FDK/lib/tinyusb/src/device/dcd.h **** // Close all non-control endpoints, cancel all pending transfers if any.
 159:SynaptiX_FDK/lib/tinyusb/src/device/dcd.h **** // Invoked when switching from a non-zero Configuration by SET_CONFIGURE therefore
 160:SynaptiX_FDK/lib/tinyusb/src/device/dcd.h **** // required for multiple configuration support.
 161:SynaptiX_FDK/lib/tinyusb/src/device/dcd.h **** void dcd_edpt_close_all       (uint8_t rhport);
 162:SynaptiX_FDK/lib/tinyusb/src/device/dcd.h **** 
 163:SynaptiX_FDK/lib/tinyusb/src/device/dcd.h **** // Submit a transfer, When complete dcd_event_xfer_complete() is invoked to notify the stack
 164:SynaptiX_FDK/lib/tinyusb/src/device/dcd.h **** bool dcd_edpt_xfer            (uint8_t rhport, uint8_t ep_addr, uint8_t * buffer, uint16_t total_by
 165:SynaptiX_FDK/lib/tinyusb/src/device/dcd.h **** 
 166:SynaptiX_FDK/lib/tinyusb/src/device/dcd.h **** // Submit an transfer using fifo, When complete dcd_event_xfer_complete() is invoked to notify the 
ARM GAS  C:\Users\DELL\AppData\Local\Temp\cc6DfR6G.s 			page 44


 167:SynaptiX_FDK/lib/tinyusb/src/device/dcd.h **** // This API is optional, may be useful for register-based for transferring data.
 168:SynaptiX_FDK/lib/tinyusb/src/device/dcd.h **** bool dcd_edpt_xfer_fifo       (uint8_t rhport, uint8_t ep_addr, tu_fifo_t * ff, uint16_t total_byte
 169:SynaptiX_FDK/lib/tinyusb/src/device/dcd.h **** 
 170:SynaptiX_FDK/lib/tinyusb/src/device/dcd.h **** // Stall endpoint, any queuing transfer should be removed from endpoint
 171:SynaptiX_FDK/lib/tinyusb/src/device/dcd.h **** void dcd_edpt_stall           (uint8_t rhport, uint8_t ep_addr);
 172:SynaptiX_FDK/lib/tinyusb/src/device/dcd.h **** 
 173:SynaptiX_FDK/lib/tinyusb/src/device/dcd.h **** // clear stall, data toggle is also reset to DATA0
 174:SynaptiX_FDK/lib/tinyusb/src/device/dcd.h **** // This API never calls with control endpoints, since it is auto cleared when receiving setup packe
 175:SynaptiX_FDK/lib/tinyusb/src/device/dcd.h **** void dcd_edpt_clear_stall     (uint8_t rhport, uint8_t ep_addr);
 176:SynaptiX_FDK/lib/tinyusb/src/device/dcd.h **** 
 177:SynaptiX_FDK/lib/tinyusb/src/device/dcd.h **** #ifdef TUP_DCD_EDPT_CLOSE_API
 178:SynaptiX_FDK/lib/tinyusb/src/device/dcd.h **** // Close an endpoint.
 179:SynaptiX_FDK/lib/tinyusb/src/device/dcd.h **** void dcd_edpt_close(uint8_t rhport, uint8_t ep_addr);
 180:SynaptiX_FDK/lib/tinyusb/src/device/dcd.h **** 
 181:SynaptiX_FDK/lib/tinyusb/src/device/dcd.h **** #else
 182:SynaptiX_FDK/lib/tinyusb/src/device/dcd.h **** 
 183:SynaptiX_FDK/lib/tinyusb/src/device/dcd.h **** // Allocate packet buffer used by ISO endpoints
 184:SynaptiX_FDK/lib/tinyusb/src/device/dcd.h **** // Some MCU need manual packet buffer allocation, we allocate the largest size to avoid clustering
 185:SynaptiX_FDK/lib/tinyusb/src/device/dcd.h **** bool dcd_edpt_iso_alloc(uint8_t rhport, uint8_t ep_addr, uint16_t largest_packet_size);
 186:SynaptiX_FDK/lib/tinyusb/src/device/dcd.h **** 
 187:SynaptiX_FDK/lib/tinyusb/src/device/dcd.h **** // Configure and enable an ISO endpoint according to descriptor
 188:SynaptiX_FDK/lib/tinyusb/src/device/dcd.h **** bool dcd_edpt_iso_activate(uint8_t rhport, tusb_desc_endpoint_t const * desc_ep);
 189:SynaptiX_FDK/lib/tinyusb/src/device/dcd.h **** 
 190:SynaptiX_FDK/lib/tinyusb/src/device/dcd.h **** #endif
 191:SynaptiX_FDK/lib/tinyusb/src/device/dcd.h **** 
 192:SynaptiX_FDK/lib/tinyusb/src/device/dcd.h **** //--------------------------------------------------------------------+
 193:SynaptiX_FDK/lib/tinyusb/src/device/dcd.h **** // Event API (implemented by stack)
 194:SynaptiX_FDK/lib/tinyusb/src/device/dcd.h **** //--------------------------------------------------------------------+
 195:SynaptiX_FDK/lib/tinyusb/src/device/dcd.h **** 
 196:SynaptiX_FDK/lib/tinyusb/src/device/dcd.h **** // Called by DCD to notify device stack
 197:SynaptiX_FDK/lib/tinyusb/src/device/dcd.h **** extern void dcd_event_handler(dcd_event_t const * event, bool in_isr);
 198:SynaptiX_FDK/lib/tinyusb/src/device/dcd.h **** 
 199:SynaptiX_FDK/lib/tinyusb/src/device/dcd.h **** // helper to send bus signal event
 200:SynaptiX_FDK/lib/tinyusb/src/device/dcd.h **** TU_ATTR_ALWAYS_INLINE static inline void dcd_event_bus_signal (uint8_t rhport, dcd_eventid_t eid, b
 201:SynaptiX_FDK/lib/tinyusb/src/device/dcd.h ****   dcd_event_t event;
 202:SynaptiX_FDK/lib/tinyusb/src/device/dcd.h ****   event.rhport = rhport;
 203:SynaptiX_FDK/lib/tinyusb/src/device/dcd.h ****   event.event_id = eid;
 204:SynaptiX_FDK/lib/tinyusb/src/device/dcd.h ****   dcd_event_handler(&event, in_isr);
 205:SynaptiX_FDK/lib/tinyusb/src/device/dcd.h **** }
 206:SynaptiX_FDK/lib/tinyusb/src/device/dcd.h **** 
 207:SynaptiX_FDK/lib/tinyusb/src/device/dcd.h **** // helper to send bus reset event
 208:SynaptiX_FDK/lib/tinyusb/src/device/dcd.h **** TU_ATTR_ALWAYS_INLINE static inline  void dcd_event_bus_reset (uint8_t rhport, tusb_speed_t speed, 
 209:SynaptiX_FDK/lib/tinyusb/src/device/dcd.h ****   dcd_event_t event;
 210:SynaptiX_FDK/lib/tinyusb/src/device/dcd.h ****   event.rhport = rhport;
 211:SynaptiX_FDK/lib/tinyusb/src/device/dcd.h ****   event.event_id = DCD_EVENT_BUS_RESET;
 212:SynaptiX_FDK/lib/tinyusb/src/device/dcd.h ****   event.bus_reset.speed = speed;
 213:SynaptiX_FDK/lib/tinyusb/src/device/dcd.h ****   dcd_event_handler(&event, in_isr);
 214:SynaptiX_FDK/lib/tinyusb/src/device/dcd.h **** }
 215:SynaptiX_FDK/lib/tinyusb/src/device/dcd.h **** 
 216:SynaptiX_FDK/lib/tinyusb/src/device/dcd.h **** // helper to send setup received
 217:SynaptiX_FDK/lib/tinyusb/src/device/dcd.h **** TU_ATTR_ALWAYS_INLINE static inline void dcd_event_setup_received(uint8_t rhport, uint8_t const * s
 218:SynaptiX_FDK/lib/tinyusb/src/device/dcd.h ****   dcd_event_t event;
 219:SynaptiX_FDK/lib/tinyusb/src/device/dcd.h ****   event.rhport = rhport;
 220:SynaptiX_FDK/lib/tinyusb/src/device/dcd.h ****   event.event_id = DCD_EVENT_SETUP_RECEIVED;
 221:SynaptiX_FDK/lib/tinyusb/src/device/dcd.h ****   (void) memcpy(&event.setup_received, setup, sizeof(tusb_control_request_t));
 222:SynaptiX_FDK/lib/tinyusb/src/device/dcd.h ****   dcd_event_handler(&event, in_isr);
 223:SynaptiX_FDK/lib/tinyusb/src/device/dcd.h **** }
ARM GAS  C:\Users\DELL\AppData\Local\Temp\cc6DfR6G.s 			page 45


 224:SynaptiX_FDK/lib/tinyusb/src/device/dcd.h **** 
 225:SynaptiX_FDK/lib/tinyusb/src/device/dcd.h **** // helper to send transfer complete event
 226:SynaptiX_FDK/lib/tinyusb/src/device/dcd.h **** TU_ATTR_ALWAYS_INLINE static inline void dcd_event_xfer_complete (uint8_t rhport, uint8_t ep_addr, 
 892              		.loc 3 226 42 view .LVU250
 893              	.LBB167:
 227:SynaptiX_FDK/lib/tinyusb/src/device/dcd.h ****   dcd_event_t event;
 894              		.loc 3 227 3 view .LVU251
 228:SynaptiX_FDK/lib/tinyusb/src/device/dcd.h ****   event.rhport = rhport;
 895              		.loc 3 228 3 view .LVU252
 896              		.loc 3 228 16 is_stmt 0 view .LVU253
 897 0018 8DF80C00 		strb	r0, [sp, #12]
 229:SynaptiX_FDK/lib/tinyusb/src/device/dcd.h ****   event.event_id = DCD_EVENT_XFER_COMPLETE;
 898              		.loc 3 229 3 is_stmt 1 view .LVU254
 899              		.loc 3 229 18 is_stmt 0 view .LVU255
 900 001c 0722     		movs	r2, #7
 901 001e 8DF80D20 		strb	r2, [sp, #13]
 230:SynaptiX_FDK/lib/tinyusb/src/device/dcd.h ****   event.xfer_complete.ep_addr = ep_addr;
 902              		.loc 3 230 3 is_stmt 1 view .LVU256
 903              		.loc 3 230 31 is_stmt 0 view .LVU257
 904 0022 8DF81030 		strb	r3, [sp, #16]
 231:SynaptiX_FDK/lib/tinyusb/src/device/dcd.h ****   event.xfer_complete.len     = xferred_bytes;
 905              		.loc 3 231 3 is_stmt 1 view .LVU258
 906              		.loc 3 231 31 is_stmt 0 view .LVU259
 907 0026 0021     		movs	r1, #0
 908              	.LVL62:
 909              		.loc 3 231 31 view .LVU260
 910 0028 0591     		str	r1, [sp, #20]
 232:SynaptiX_FDK/lib/tinyusb/src/device/dcd.h ****   event.xfer_complete.result  = result;
 911              		.loc 3 232 3 is_stmt 1 view .LVU261
 912              		.loc 3 232 31 is_stmt 0 view .LVU262
 913 002a 8DF81110 		strb	r1, [sp, #17]
 233:SynaptiX_FDK/lib/tinyusb/src/device/dcd.h ****   dcd_event_handler(&event, in_isr);
 914              		.loc 3 233 3 is_stmt 1 view .LVU263
 915 002e 03A8     		add	r0, sp, #12
 916              	.LVL63:
 917              		.loc 3 233 3 is_stmt 0 view .LVU264
 918 0030 FFF7FEFF 		bl	dcd_event_handler
 919              	.LVL64:
 920              		.loc 3 233 3 view .LVU265
 921              	.LBE167:
 922              	.LBE166:
 887:SynaptiX_FDK/lib/tinyusb/src/class/msc/msc_device.c ****         break;
 923              		.loc 1 887 9 is_stmt 1 view .LVU266
 924              	.LBB169:
 925              	.LBB168:
 234:SynaptiX_FDK/lib/tinyusb/src/device/dcd.h **** }
 926              		.loc 3 234 1 is_stmt 0 view .LVU267
 927 0034 08E0     		b	.L55
 928              	.LVL65:
 929              	.L62:
 930              		.loc 3 234 1 view .LVU268
 931              	.LBE168:
 932              	.LBE169:
 873:SynaptiX_FDK/lib/tinyusb/src/class/msc/msc_device.c ****   } else {
 933              		.loc 1 873 5 is_stmt 1 view .LVU269
 873:SynaptiX_FDK/lib/tinyusb/src/class/msc/msc_device.c ****   } else {
 934              		.loc 1 873 5 view .LVU270
ARM GAS  C:\Users\DELL\AppData\Local\Temp\cc6DfR6G.s 			page 46


 935 0036 0023     		movs	r3, #0
 936 0038 0093     		str	r3, [sp]
 937 003a 8BB2     		uxth	r3, r1
 938 003c 0D4A     		ldr	r2, .L64
 939 003e 94F82E10 		ldrb	r1, [r4, #46]	@ zero_extendqisi2
 940              	.LVL66:
 873:SynaptiX_FDK/lib/tinyusb/src/class/msc/msc_device.c ****   } else {
 941              		.loc 1 873 5 is_stmt 0 view .LVU271
 942 0042 FFF7FEFF 		bl	usbd_edpt_xfer
 943              	.LVL67:
 873:SynaptiX_FDK/lib/tinyusb/src/class/msc/msc_device.c ****   } else {
 944              		.loc 1 873 5 discriminator 1 view .LVU272
 945 0046 08B1     		cbz	r0, .L63
 946              	.L55:
 888:SynaptiX_FDK/lib/tinyusb/src/class/msc/msc_device.c **** 
 889:SynaptiX_FDK/lib/tinyusb/src/class/msc/msc_device.c ****       default: break; // nothing to do
 890:SynaptiX_FDK/lib/tinyusb/src/class/msc/msc_device.c ****     }
 891:SynaptiX_FDK/lib/tinyusb/src/class/msc/msc_device.c ****   }
 892:SynaptiX_FDK/lib/tinyusb/src/class/msc/msc_device.c **** }
 947              		.loc 1 892 1 view .LVU273
 948 0048 06B0     		add	sp, sp, #24
 949              	.LCFI11:
 950              		.cfi_remember_state
 951              		.cfi_def_cfa_offset 8
 952              		@ sp needed
 953 004a 10BD     		pop	{r4, pc}
 954              	.LVL68:
 955              	.L63:
 956              	.LCFI12:
 957              		.cfi_restore_state
 873:SynaptiX_FDK/lib/tinyusb/src/class/msc/msc_device.c ****   } else {
 958              		.loc 1 873 5 is_stmt 1 discriminator 1 view .LVU274
 873:SynaptiX_FDK/lib/tinyusb/src/class/msc/msc_device.c ****   } else {
 959              		.loc 1 873 5 discriminator 1 view .LVU275
 873:SynaptiX_FDK/lib/tinyusb/src/class/msc/msc_device.c ****   } else {
 960              		.loc 1 873 5 discriminator 1 view .LVU276
 873:SynaptiX_FDK/lib/tinyusb/src/class/msc/msc_device.c ****   } else {
 961              		.loc 1 873 5 discriminator 1 view .LVU277
 962              	.LBB170:
 873:SynaptiX_FDK/lib/tinyusb/src/class/msc/msc_device.c ****   } else {
 963              		.loc 1 873 5 discriminator 1 view .LVU278
 873:SynaptiX_FDK/lib/tinyusb/src/class/msc/msc_device.c ****   } else {
 964              		.loc 1 873 5 view .LVU279
 873:SynaptiX_FDK/lib/tinyusb/src/class/msc/msc_device.c ****   } else {
 965              		.loc 1 873 5 is_stmt 0 discriminator 1 view .LVU280
 966 004c 4FF0E023 		mov	r3, #-536813568
 967 0050 D3F8F03D 		ldr	r3, [r3, #3568]
 968 0054 13F0010F 		tst	r3, #1
 969 0058 F6D0     		beq	.L55
 873:SynaptiX_FDK/lib/tinyusb/src/class/msc/msc_device.c ****   } else {
 970              		.loc 1 873 5 is_stmt 1 discriminator 2 view .LVU281
 971              		.syntax unified
 972              	@ 873 "SynaptiX_FDK/lib/tinyusb/src/class/msc/msc_device.c" 1
 973 005a 00BE     		BKPT #0
 974              	
 975              	@ 0 "" 2
 976              		.thumb
ARM GAS  C:\Users\DELL\AppData\Local\Temp\cc6DfR6G.s 			page 47


 977              		.syntax unified
 978              	.LBE170:
 873:SynaptiX_FDK/lib/tinyusb/src/class/msc/msc_device.c ****   } else {
 979              		.loc 1 873 5 discriminator 4 view .LVU282
 873:SynaptiX_FDK/lib/tinyusb/src/class/msc/msc_device.c ****   } else {
 980              		.loc 1 873 5 discriminator 4 view .LVU283
 873:SynaptiX_FDK/lib/tinyusb/src/class/msc/msc_device.c ****   } else {
 981              		.loc 1 873 5 is_stmt 0 view .LVU284
 982 005c F4E7     		b	.L55
 983              	.LVL69:
 984              	.L59:
 879:SynaptiX_FDK/lib/tinyusb/src/class/msc/msc_device.c ****         set_sense_medium_not_present(p_msc->cbw.lun);
 985              		.loc 1 879 45 is_stmt 1 view .LVU285
 880:SynaptiX_FDK/lib/tinyusb/src/class/msc/msc_device.c ****         fail_scsi_op(p_msc, MSC_CSW_STATUS_FAILED);
 986              		.loc 1 880 9 view .LVU286
 987              	.LBB171:
 988              	.LBI171:
 314:SynaptiX_FDK/lib/tinyusb/src/class/msc/msc_device.c ****   // default sense is NOT READY, MEDIUM NOT PRESENT
 989              		.loc 1 314 42 view .LVU287
 990              	.LBB172:
 316:SynaptiX_FDK/lib/tinyusb/src/class/msc/msc_device.c **** }
 991              		.loc 1 316 3 view .LVU288
 316:SynaptiX_FDK/lib/tinyusb/src/class/msc/msc_device.c **** }
 992              		.loc 1 316 10 is_stmt 0 view .LVU289
 993 005e 0023     		movs	r3, #0
 994 0060 3A22     		movs	r2, #58
 995 0062 0221     		movs	r1, #2
 996              	.LVL70:
 316:SynaptiX_FDK/lib/tinyusb/src/class/msc/msc_device.c **** }
 997              		.loc 1 316 10 view .LVU290
 998 0064 607B     		ldrb	r0, [r4, #13]	@ zero_extendqisi2
 999              	.LVL71:
 316:SynaptiX_FDK/lib/tinyusb/src/class/msc/msc_device.c **** }
 1000              		.loc 1 316 10 view .LVU291
 1001 0066 FFF7FEFF 		bl	tud_msc_set_sense
 1002              	.LVL72:
 316:SynaptiX_FDK/lib/tinyusb/src/class/msc/msc_device.c **** }
 1003              		.loc 1 316 10 view .LVU292
 1004              	.LBE172:
 1005              	.LBE171:
 881:SynaptiX_FDK/lib/tinyusb/src/class/msc/msc_device.c ****         break;
 1006              		.loc 1 881 9 is_stmt 1 view .LVU293
 1007 006a 0121     		movs	r1, #1
 1008 006c 2046     		mov	r0, r4
 1009 006e FFF7FEFF 		bl	fail_scsi_op
 1010              	.LVL73:
 882:SynaptiX_FDK/lib/tinyusb/src/class/msc/msc_device.c **** 
 1011              		.loc 1 882 9 view .LVU294
 1012 0072 E9E7     		b	.L55
 1013              	.L65:
 1014              		.align	2
 1015              	.L64:
 1016 0074 00000000 		.word	_mscd_epbuf
 1017              		.cfi_endproc
 1018              	.LFE460:
 1020              		.section	.text.proc_read10_cmd,"ax",%progbits
 1021              		.align	1
ARM GAS  C:\Users\DELL\AppData\Local\Temp\cc6DfR6G.s 			page 48


 1022              		.syntax unified
 1023              		.thumb
 1024              		.thumb_func
 1026              	proc_read10_cmd:
 1027              	.LVL74:
 1028              	.LFB459:
 851:SynaptiX_FDK/lib/tinyusb/src/class/msc/msc_device.c ****   msc_cbw_t const* p_cbw = &p_msc->cbw;
 1029              		.loc 1 851 54 view -0
 1030              		.cfi_startproc
 1031              		@ args = 0, pretend = 0, frame = 0
 1032              		@ frame_needed = 0, uses_anonymous_args = 0
 852:SynaptiX_FDK/lib/tinyusb/src/class/msc/msc_device.c ****   uint16_t const block_sz = rdwr10_get_blocksize(p_cbw); // already verified non-zero
 1033              		.loc 1 852 3 view .LVU296
 853:SynaptiX_FDK/lib/tinyusb/src/class/msc/msc_device.c ****   TU_VERIFY(block_sz != 0, );
 1034              		.loc 1 853 3 view .LVU297
 1035              	.LBB173:
 1036              	.LBI173:
 162:SynaptiX_FDK/lib/tinyusb/src/class/msc/msc_device.c ****   // first extract block count in the command
 1037              		.loc 1 162 46 view .LVU298
 1038              	.LBB174:
 164:SynaptiX_FDK/lib/tinyusb/src/class/msc/msc_device.c ****   if (block_count == 0) {
 1039              		.loc 1 164 3 view .LVU299
 1040              	.LBB175:
 1041              	.LBI175:
 157:SynaptiX_FDK/lib/tinyusb/src/class/msc/msc_device.c ****   uint16_t const block_count = tu_unaligned_read16(cbw->command + offsetof(scsi_write10_t, block_co
 1042              		.loc 1 157 46 view .LVU300
 1043              	.LBB176:
 158:SynaptiX_FDK/lib/tinyusb/src/class/msc/msc_device.c ****   return tu_ntohs(block_count);
 1044              		.loc 1 158 3 view .LVU301
 1045              	.LBB177:
 1046              	.LBI177:
 318:SynaptiX_FDK/lib/tinyusb/src/common/tusb_common.h ****   return *((uint16_t const *) mem);
 1047              		.loc 2 318 46 view .LVU302
 1048              	.LBB178:
 1049              		.loc 2 319 3 view .LVU303
 1050              		.loc 2 319 10 is_stmt 0 view .LVU304
 1051 0000 C38A     		ldrh	r3, [r0, #22]
 1052              	.LVL75:
 1053              		.loc 2 319 10 view .LVU305
 1054              	.LBE178:
 1055              	.LBE177:
 159:SynaptiX_FDK/lib/tinyusb/src/class/msc/msc_device.c **** }
 1056              		.loc 1 159 3 is_stmt 1 view .LVU306
 159:SynaptiX_FDK/lib/tinyusb/src/class/msc/msc_device.c **** }
 1057              		.loc 1 159 3 is_stmt 0 view .LVU307
 1058              	.LBE176:
 1059              	.LBE175:
 165:SynaptiX_FDK/lib/tinyusb/src/class/msc/msc_device.c ****     return 0; // invalid block count
 1060              		.loc 1 165 3 is_stmt 1 view .LVU308
 165:SynaptiX_FDK/lib/tinyusb/src/class/msc/msc_device.c ****     return 0; // invalid block count
 1061              		.loc 1 165 6 is_stmt 0 view .LVU309
 1062 0002 63B3     		cbz	r3, .L69
 1063              	.LBE174:
 1064              	.LBE173:
 851:SynaptiX_FDK/lib/tinyusb/src/class/msc/msc_device.c ****   msc_cbw_t const* p_cbw = &p_msc->cbw;
 1065              		.loc 1 851 54 view .LVU310
 1066 0004 10B5     		push	{r4, lr}
ARM GAS  C:\Users\DELL\AppData\Local\Temp\cc6DfR6G.s 			page 49


 1067              	.LCFI13:
 1068              		.cfi_def_cfa_offset 8
 1069              		.cfi_offset 4, -8
 1070              		.cfi_offset 14, -4
 1071 0006 82B0     		sub	sp, sp, #8
 1072              	.LCFI14:
 1073              		.cfi_def_cfa_offset 16
 1074 0008 0446     		mov	r4, r0
 1075 000a 5ABA     		rev16	r2, r3
 1076              	.LVL76:
 851:SynaptiX_FDK/lib/tinyusb/src/class/msc/msc_device.c ****   msc_cbw_t const* p_cbw = &p_msc->cbw;
 1077              		.loc 1 851 54 view .LVU311
 1078 000c 92B2     		uxth	r2, r2
 1079              	.LBB180:
 1080              	.LBB179:
 168:SynaptiX_FDK/lib/tinyusb/src/class/msc/msc_device.c **** }
 1081              		.loc 1 168 3 is_stmt 1 view .LVU312
 168:SynaptiX_FDK/lib/tinyusb/src/class/msc/msc_device.c **** }
 1082              		.loc 1 168 25 is_stmt 0 view .LVU313
 1083 000e 8368     		ldr	r3, [r0, #8]	@ unaligned
 1084              	.LVL77:
 168:SynaptiX_FDK/lib/tinyusb/src/class/msc/msc_device.c **** }
 1085              		.loc 1 168 39 view .LVU314
 1086 0010 B3FBF2F2 		udiv	r2, r3, r2
 1087              	.LVL78:
 168:SynaptiX_FDK/lib/tinyusb/src/class/msc/msc_device.c **** }
 1088              		.loc 1 168 10 view .LVU315
 1089 0014 92B2     		uxth	r2, r2
 1090              	.LVL79:
 168:SynaptiX_FDK/lib/tinyusb/src/class/msc/msc_device.c **** }
 1091              		.loc 1 168 10 view .LVU316
 1092              	.LBE179:
 1093              	.LBE180:
 854:SynaptiX_FDK/lib/tinyusb/src/class/msc/msc_device.c ****   // Adjust lba & offset with transferred bytes
 1094              		.loc 1 854 3 is_stmt 1 view .LVU317
 854:SynaptiX_FDK/lib/tinyusb/src/class/msc/msc_device.c ****   // Adjust lba & offset with transferred bytes
 1095              		.loc 1 854 3 view .LVU318
 1096 0016 0AB9     		cbnz	r2, .L72
 1097              	.LVL80:
 1098              	.L66:
 868:SynaptiX_FDK/lib/tinyusb/src/class/msc/msc_device.c **** 
 1099              		.loc 1 868 1 is_stmt 0 view .LVU319
 1100 0018 02B0     		add	sp, sp, #8
 1101              	.LCFI15:
 1102              		.cfi_remember_state
 1103              		.cfi_def_cfa_offset 8
 1104              		@ sp needed
 1105 001a 10BD     		pop	{r4, pc}
 1106              	.LVL81:
 1107              	.L72:
 1108              	.LCFI16:
 1109              		.cfi_restore_state
 854:SynaptiX_FDK/lib/tinyusb/src/class/msc/msc_device.c ****   // Adjust lba & offset with transferred bytes
 1110              		.loc 1 854 3 is_stmt 1 view .LVU320
 856:SynaptiX_FDK/lib/tinyusb/src/class/msc/msc_device.c ****   uint32_t const offset = p_msc->xferred_len % block_sz;
 1111              		.loc 1 856 3 view .LVU321
 1112              	.LBB181:
ARM GAS  C:\Users\DELL\AppData\Local\Temp\cc6DfR6G.s 			page 50


 1113              	.LBI181:
 151:SynaptiX_FDK/lib/tinyusb/src/class/msc/msc_device.c ****   // use offsetof to avoid pointer to the odd/unaligned address
 1114              		.loc 1 151 46 view .LVU322
 1115              	.LBB182:
 153:SynaptiX_FDK/lib/tinyusb/src/class/msc/msc_device.c ****   return tu_ntohl(lba); // lba is in Big Endian
 1116              		.loc 1 153 3 view .LVU323
 1117              	.LBB183:
 1118              	.LBI183:
 314:SynaptiX_FDK/lib/tinyusb/src/common/tusb_common.h ****   return *((uint32_t const *) mem);
 1119              		.loc 2 314 46 view .LVU324
 1120              	.LBB184:
 315:SynaptiX_FDK/lib/tinyusb/src/common/tusb_common.h **** }
 1121              		.loc 2 315 3 view .LVU325
 315:SynaptiX_FDK/lib/tinyusb/src/common/tusb_common.h **** }
 1122              		.loc 2 315 10 is_stmt 0 view .LVU326
 1123 001c D0F81110 		ldr	r1, [r0, #17]
 1124              	.LVL82:
 315:SynaptiX_FDK/lib/tinyusb/src/common/tusb_common.h **** }
 1125              		.loc 2 315 10 view .LVU327
 1126              	.LBE184:
 1127              	.LBE183:
 154:SynaptiX_FDK/lib/tinyusb/src/class/msc/msc_device.c **** }
 1128              		.loc 1 154 3 is_stmt 1 view .LVU328
 154:SynaptiX_FDK/lib/tinyusb/src/class/msc/msc_device.c **** }
 1129              		.loc 1 154 10 is_stmt 0 view .LVU329
 1130 0020 09BA     		rev	r1, r1
 1131              	.LVL83:
 154:SynaptiX_FDK/lib/tinyusb/src/class/msc/msc_device.c **** }
 1132              		.loc 1 154 10 view .LVU330
 1133              	.LBE182:
 1134              	.LBE181:
 856:SynaptiX_FDK/lib/tinyusb/src/class/msc/msc_device.c ****   uint32_t const offset = p_msc->xferred_len % block_sz;
 1135              		.loc 1 856 63 discriminator 1 view .LVU331
 1136 0022 406B     		ldr	r0, [r0, #52]
 1137              	.LVL84:
 856:SynaptiX_FDK/lib/tinyusb/src/class/msc/msc_device.c ****   uint32_t const offset = p_msc->xferred_len % block_sz;
 1138              		.loc 1 856 77 discriminator 1 view .LVU332
 1139 0024 B0FBF2FC 		udiv	ip, r0, r2
 1140              	.LVL85:
 857:SynaptiX_FDK/lib/tinyusb/src/class/msc/msc_device.c **** 
 1141              		.loc 1 857 3 is_stmt 1 view .LVU333
 860:SynaptiX_FDK/lib/tinyusb/src/class/msc/msc_device.c **** 
 1142              		.loc 1 860 3 view .LVU334
 860:SynaptiX_FDK/lib/tinyusb/src/class/msc/msc_device.c **** 
 1143              		.loc 1 860 29 is_stmt 0 view .LVU335
 1144 0028 1B1A     		subs	r3, r3, r0
 1145              	.LVL86:
 1146              	.LBB185:
 1147              	.LBI185:
 207:SynaptiX_FDK/lib/tinyusb/src/common/tusb_common.h **** 
 1148              		.loc 2 207 46 is_stmt 1 view .LVU336
 1149              	.LBB186:
 207:SynaptiX_FDK/lib/tinyusb/src/common/tusb_common.h **** 
 1150              		.loc 2 207 82 view .LVU337
 207:SynaptiX_FDK/lib/tinyusb/src/common/tusb_common.h **** 
 1151              		.loc 2 207 101 is_stmt 0 view .LVU338
 1152 002a 402B     		cmp	r3, #64
ARM GAS  C:\Users\DELL\AppData\Local\Temp\cc6DfR6G.s 			page 51


 1153 002c 28BF     		it	cs
 1154 002e 4023     		movcs	r3, #64
 1155              	.LVL87:
 207:SynaptiX_FDK/lib/tinyusb/src/common/tusb_common.h **** 
 1156              		.loc 2 207 101 view .LVU339
 1157              	.LBE186:
 1158              	.LBE185:
 862:SynaptiX_FDK/lib/tinyusb/src/class/msc/msc_device.c ****   nbytes = tud_msc_read10_cb(p_cbw->lun, lba, offset, _mscd_epbuf.buf, (uint32_t)nbytes);
 1159              		.loc 1 862 3 is_stmt 1 view .LVU340
 862:SynaptiX_FDK/lib/tinyusb/src/class/msc/msc_device.c ****   nbytes = tud_msc_read10_cb(p_cbw->lun, lba, offset, _mscd_epbuf.buf, (uint32_t)nbytes);
 1160              		.loc 1 862 21 is_stmt 0 view .LVU341
 1161 0030 4FF0010E 		mov	lr, #1
 1162 0034 84F83CE0 		strb	lr, [r4, #60]
 863:SynaptiX_FDK/lib/tinyusb/src/class/msc/msc_device.c ****   if (nbytes != TUD_MSC_RET_ASYNC) {
 1163              		.loc 1 863 3 is_stmt 1 view .LVU342
 863:SynaptiX_FDK/lib/tinyusb/src/class/msc/msc_device.c ****   if (nbytes != TUD_MSC_RET_ASYNC) {
 1164              		.loc 1 863 12 is_stmt 0 view .LVU343
 1165 0038 0093     		str	r3, [sp]
 1166              	.LVL88:
 863:SynaptiX_FDK/lib/tinyusb/src/class/msc/msc_device.c ****   if (nbytes != TUD_MSC_RET_ASYNC) {
 1167              		.loc 1 863 12 view .LVU344
 1168 003a 094B     		ldr	r3, .L73
 1169              	.LVL89:
 863:SynaptiX_FDK/lib/tinyusb/src/class/msc/msc_device.c ****   if (nbytes != TUD_MSC_RET_ASYNC) {
 1170              		.loc 1 863 12 view .LVU345
 1171 003c 02FB1C02 		mls	r2, r2, ip, r0
 1172              	.LVL90:
 863:SynaptiX_FDK/lib/tinyusb/src/class/msc/msc_device.c ****   if (nbytes != TUD_MSC_RET_ASYNC) {
 1173              		.loc 1 863 12 view .LVU346
 1174 0040 6144     		add	r1, r1, ip
 1175              	.LVL91:
 863:SynaptiX_FDK/lib/tinyusb/src/class/msc/msc_device.c ****   if (nbytes != TUD_MSC_RET_ASYNC) {
 1176              		.loc 1 863 12 view .LVU347
 1177 0042 607B     		ldrb	r0, [r4, #13]	@ zero_extendqisi2
 1178 0044 FFF7FEFF 		bl	tud_msc_read10_cb
 1179              	.LVL92:
 864:SynaptiX_FDK/lib/tinyusb/src/class/msc/msc_device.c ****     p_msc->pending_io = false;
 1180              		.loc 1 864 3 is_stmt 1 view .LVU348
 864:SynaptiX_FDK/lib/tinyusb/src/class/msc/msc_device.c ****     p_msc->pending_io = false;
 1181              		.loc 1 864 6 is_stmt 0 view .LVU349
 1182 0048 10F1020F 		cmn	r0, #2
 1183 004c E4D0     		beq	.L66
 865:SynaptiX_FDK/lib/tinyusb/src/class/msc/msc_device.c ****     proc_read_io_data(p_msc, nbytes);
 1184              		.loc 1 865 5 is_stmt 1 view .LVU350
 865:SynaptiX_FDK/lib/tinyusb/src/class/msc/msc_device.c ****     proc_read_io_data(p_msc, nbytes);
 1185              		.loc 1 865 23 is_stmt 0 view .LVU351
 1186 004e 0023     		movs	r3, #0
 1187 0050 84F83C30 		strb	r3, [r4, #60]
 866:SynaptiX_FDK/lib/tinyusb/src/class/msc/msc_device.c ****   }
 1188              		.loc 1 866 5 is_stmt 1 view .LVU352
 1189 0054 0146     		mov	r1, r0
 1190 0056 2046     		mov	r0, r4
 1191              	.LVL93:
 866:SynaptiX_FDK/lib/tinyusb/src/class/msc/msc_device.c ****   }
 1192              		.loc 1 866 5 is_stmt 0 view .LVU353
 1193 0058 FFF7FEFF 		bl	proc_read_io_data
 1194              	.LVL94:
ARM GAS  C:\Users\DELL\AppData\Local\Temp\cc6DfR6G.s 			page 52


 866:SynaptiX_FDK/lib/tinyusb/src/class/msc/msc_device.c ****   }
 1195              		.loc 1 866 5 view .LVU354
 1196 005c DCE7     		b	.L66
 1197              	.LVL95:
 1198              	.L69:
 1199              	.LCFI17:
 1200              		.cfi_def_cfa_offset 0
 1201              		.cfi_restore 4
 1202              		.cfi_restore 14
 866:SynaptiX_FDK/lib/tinyusb/src/class/msc/msc_device.c ****   }
 1203              		.loc 1 866 5 view .LVU355
 1204 005e 7047     		bx	lr
 1205              	.L74:
 1206              		.align	2
 1207              	.L73:
 1208 0060 00000000 		.word	_mscd_epbuf
 1209              		.cfi_endproc
 1210              	.LFE459:
 1212              		.section	.text.proc_write10_cmd,"ax",%progbits
 1213              		.align	1
 1214              		.syntax unified
 1215              		.thumb
 1216              		.thumb_func
 1218              	proc_write10_cmd:
 1219              	.LVL96:
 1220              	.LFB461:
 893:SynaptiX_FDK/lib/tinyusb/src/class/msc/msc_device.c **** 
 894:SynaptiX_FDK/lib/tinyusb/src/class/msc/msc_device.c **** static void proc_write10_cmd(mscd_interface_t* p_msc) {
 1221              		.loc 1 894 55 is_stmt 1 view -0
 1222              		.cfi_startproc
 1223              		@ args = 0, pretend = 0, frame = 0
 1224              		@ frame_needed = 0, uses_anonymous_args = 0
 1225              		.loc 1 894 55 is_stmt 0 view .LVU357
 1226 0000 10B5     		push	{r4, lr}
 1227              	.LCFI18:
 1228              		.cfi_def_cfa_offset 8
 1229              		.cfi_offset 4, -8
 1230              		.cfi_offset 14, -4
 1231 0002 82B0     		sub	sp, sp, #8
 1232              	.LCFI19:
 1233              		.cfi_def_cfa_offset 16
 1234 0004 0446     		mov	r4, r0
 895:SynaptiX_FDK/lib/tinyusb/src/class/msc/msc_device.c ****   msc_cbw_t const* p_cbw = &p_msc->cbw;
 1235              		.loc 1 895 3 is_stmt 1 view .LVU358
 1236              	.LVL97:
 896:SynaptiX_FDK/lib/tinyusb/src/class/msc/msc_device.c ****   const bool writable = tud_msc_is_writable_cb(p_cbw->lun);
 1237              		.loc 1 896 3 view .LVU359
 1238              		.loc 1 896 25 is_stmt 0 view .LVU360
 1239 0006 407B     		ldrb	r0, [r0, #13]	@ zero_extendqisi2
 1240              	.LVL98:
 1241              		.loc 1 896 25 view .LVU361
 1242 0008 FFF7FEFF 		bl	tud_msc_is_writable_cb
 1243              	.LVL99:
 897:SynaptiX_FDK/lib/tinyusb/src/class/msc/msc_device.c **** 
 898:SynaptiX_FDK/lib/tinyusb/src/class/msc/msc_device.c ****   if (!writable) {
 1244              		.loc 1 898 3 is_stmt 1 view .LVU362
 1245              		.loc 1 898 6 is_stmt 0 view .LVU363
ARM GAS  C:\Users\DELL\AppData\Local\Temp\cc6DfR6G.s 			page 53


 1246 000c 88B1     		cbz	r0, .L80
 899:SynaptiX_FDK/lib/tinyusb/src/class/msc/msc_device.c ****     // Not writable, complete this SCSI op with error
 900:SynaptiX_FDK/lib/tinyusb/src/class/msc/msc_device.c ****     // Sense = Write protected
 901:SynaptiX_FDK/lib/tinyusb/src/class/msc/msc_device.c ****     (void) tud_msc_set_sense(p_cbw->lun, SCSI_SENSE_DATA_PROTECT, 0x27, 0x00);
 902:SynaptiX_FDK/lib/tinyusb/src/class/msc/msc_device.c ****     fail_scsi_op(p_msc, MSC_CSW_STATUS_FAILED);
 903:SynaptiX_FDK/lib/tinyusb/src/class/msc/msc_device.c ****     return;
 904:SynaptiX_FDK/lib/tinyusb/src/class/msc/msc_device.c ****   }
 905:SynaptiX_FDK/lib/tinyusb/src/class/msc/msc_device.c **** 
 906:SynaptiX_FDK/lib/tinyusb/src/class/msc/msc_device.c ****   // remaining bytes capped at class buffer
 907:SynaptiX_FDK/lib/tinyusb/src/class/msc/msc_device.c ****   uint16_t nbytes = (uint16_t)tu_min32(CFG_TUD_MSC_EP_BUFSIZE, p_cbw->total_bytes - p_msc->xferred_
 1247              		.loc 1 907 3 is_stmt 1 view .LVU364
 1248              		.loc 1 907 69 is_stmt 0 view .LVU365
 1249 000e A368     		ldr	r3, [r4, #8]	@ unaligned
 1250              		.loc 1 907 90 view .LVU366
 1251 0010 626B     		ldr	r2, [r4, #52]
 1252              		.loc 1 907 31 view .LVU367
 1253 0012 9B1A     		subs	r3, r3, r2
 1254              	.LVL100:
 1255              	.LBB187:
 1256              	.LBI187:
 207:SynaptiX_FDK/lib/tinyusb/src/common/tusb_common.h **** 
 1257              		.loc 2 207 46 is_stmt 1 view .LVU368
 1258              	.LBB188:
 207:SynaptiX_FDK/lib/tinyusb/src/common/tusb_common.h **** 
 1259              		.loc 2 207 82 view .LVU369
 207:SynaptiX_FDK/lib/tinyusb/src/common/tusb_common.h **** 
 1260              		.loc 2 207 101 is_stmt 0 view .LVU370
 1261 0014 402B     		cmp	r3, #64
 1262 0016 28BF     		it	cs
 1263 0018 4023     		movcs	r3, #64
 1264              	.LVL101:
 207:SynaptiX_FDK/lib/tinyusb/src/common/tusb_common.h **** 
 1265              		.loc 2 207 101 view .LVU371
 1266              	.LBE188:
 1267              	.LBE187:
 908:SynaptiX_FDK/lib/tinyusb/src/class/msc/msc_device.c ****   // Write10 callback will be called later when usb transfer complete
 909:SynaptiX_FDK/lib/tinyusb/src/class/msc/msc_device.c ****   TU_ASSERT(usbd_edpt_xfer(p_msc->rhport, p_msc->ep_out, _mscd_epbuf.buf, nbytes, false),);
 1268              		.loc 1 909 3 is_stmt 1 view .LVU372
 1269              		.loc 1 909 3 view .LVU373
 1270 001a 0022     		movs	r2, #0
 1271 001c 0092     		str	r2, [sp]
 1272 001e 9BB2     		uxth	r3, r3
 1273              		.loc 1 909 3 is_stmt 0 view .LVU374
 1274 0020 0E4A     		ldr	r2, .L82
 1275 0022 94F82F10 		ldrb	r1, [r4, #47]	@ zero_extendqisi2
 1276 0026 E07F     		ldrb	r0, [r4, #31]	@ zero_extendqisi2
 1277              	.LVL102:
 1278              		.loc 1 909 3 view .LVU375
 1279 0028 FFF7FEFF 		bl	usbd_edpt_xfer
 1280              	.LVL103:
 1281              		.loc 1 909 3 discriminator 1 view .LVU376
 1282 002c 60B1     		cbz	r0, .L81
 1283              	.LVL104:
 1284              	.L75:
 910:SynaptiX_FDK/lib/tinyusb/src/class/msc/msc_device.c **** }
 1285              		.loc 1 910 1 view .LVU377
 1286 002e 02B0     		add	sp, sp, #8
ARM GAS  C:\Users\DELL\AppData\Local\Temp\cc6DfR6G.s 			page 54


 1287              	.LCFI20:
 1288              		.cfi_remember_state
 1289              		.cfi_def_cfa_offset 8
 1290              		@ sp needed
 1291 0030 10BD     		pop	{r4, pc}
 1292              	.LVL105:
 1293              	.L80:
 1294              	.LCFI21:
 1295              		.cfi_restore_state
 901:SynaptiX_FDK/lib/tinyusb/src/class/msc/msc_device.c ****     fail_scsi_op(p_msc, MSC_CSW_STATUS_FAILED);
 1296              		.loc 1 901 5 is_stmt 1 view .LVU378
 901:SynaptiX_FDK/lib/tinyusb/src/class/msc/msc_device.c ****     fail_scsi_op(p_msc, MSC_CSW_STATUS_FAILED);
 1297              		.loc 1 901 12 is_stmt 0 view .LVU379
 1298 0032 0023     		movs	r3, #0
 1299 0034 2722     		movs	r2, #39
 1300 0036 0721     		movs	r1, #7
 1301 0038 607B     		ldrb	r0, [r4, #13]	@ zero_extendqisi2
 1302              	.LVL106:
 901:SynaptiX_FDK/lib/tinyusb/src/class/msc/msc_device.c ****     fail_scsi_op(p_msc, MSC_CSW_STATUS_FAILED);
 1303              		.loc 1 901 12 view .LVU380
 1304 003a FFF7FEFF 		bl	tud_msc_set_sense
 1305              	.LVL107:
 902:SynaptiX_FDK/lib/tinyusb/src/class/msc/msc_device.c ****     return;
 1306              		.loc 1 902 5 is_stmt 1 view .LVU381
 1307 003e 0121     		movs	r1, #1
 1308 0040 2046     		mov	r0, r4
 1309 0042 FFF7FEFF 		bl	fail_scsi_op
 1310              	.LVL108:
 903:SynaptiX_FDK/lib/tinyusb/src/class/msc/msc_device.c ****   }
 1311              		.loc 1 903 5 view .LVU382
 1312 0046 F2E7     		b	.L75
 1313              	.LVL109:
 1314              	.L81:
 909:SynaptiX_FDK/lib/tinyusb/src/class/msc/msc_device.c **** }
 1315              		.loc 1 909 3 discriminator 1 view .LVU383
 909:SynaptiX_FDK/lib/tinyusb/src/class/msc/msc_device.c **** }
 1316              		.loc 1 909 3 discriminator 1 view .LVU384
 909:SynaptiX_FDK/lib/tinyusb/src/class/msc/msc_device.c **** }
 1317              		.loc 1 909 3 discriminator 1 view .LVU385
 909:SynaptiX_FDK/lib/tinyusb/src/class/msc/msc_device.c **** }
 1318              		.loc 1 909 3 discriminator 1 view .LVU386
 1319              	.LBB189:
 909:SynaptiX_FDK/lib/tinyusb/src/class/msc/msc_device.c **** }
 1320              		.loc 1 909 3 discriminator 1 view .LVU387
 909:SynaptiX_FDK/lib/tinyusb/src/class/msc/msc_device.c **** }
 1321              		.loc 1 909 3 view .LVU388
 909:SynaptiX_FDK/lib/tinyusb/src/class/msc/msc_device.c **** }
 1322              		.loc 1 909 3 is_stmt 0 discriminator 1 view .LVU389
 1323 0048 4FF0E023 		mov	r3, #-536813568
 1324 004c D3F8F03D 		ldr	r3, [r3, #3568]
 1325 0050 13F0010F 		tst	r3, #1
 1326 0054 EBD0     		beq	.L75
 909:SynaptiX_FDK/lib/tinyusb/src/class/msc/msc_device.c **** }
 1327              		.loc 1 909 3 is_stmt 1 discriminator 2 view .LVU390
 1328              		.syntax unified
 1329              	@ 909 "SynaptiX_FDK/lib/tinyusb/src/class/msc/msc_device.c" 1
 1330 0056 00BE     		BKPT #0
ARM GAS  C:\Users\DELL\AppData\Local\Temp\cc6DfR6G.s 			page 55


 1331              	
 1332              	@ 0 "" 2
 1333              		.thumb
 1334              		.syntax unified
 1335              	.LBE189:
 909:SynaptiX_FDK/lib/tinyusb/src/class/msc/msc_device.c **** }
 1336              		.loc 1 909 3 discriminator 4 view .LVU391
 909:SynaptiX_FDK/lib/tinyusb/src/class/msc/msc_device.c **** }
 1337              		.loc 1 909 3 discriminator 4 view .LVU392
 909:SynaptiX_FDK/lib/tinyusb/src/class/msc/msc_device.c **** }
 1338              		.loc 1 909 3 view .LVU393
 1339 0058 E9E7     		b	.L75
 1340              	.L83:
 1341 005a 00BF     		.align	2
 1342              	.L82:
 1343 005c 00000000 		.word	_mscd_epbuf
 1344              		.cfi_endproc
 1345              	.LFE461:
 1347              		.section	.text.proc_write_io_data,"ax",%progbits
 1348              		.align	1
 1349              		.syntax unified
 1350              		.thumb
 1351              		.thumb_func
 1353              	proc_write_io_data:
 1354              	.LVL110:
 1355              	.LFB463:
 911:SynaptiX_FDK/lib/tinyusb/src/class/msc/msc_device.c **** 
 912:SynaptiX_FDK/lib/tinyusb/src/class/msc/msc_device.c **** // process new data arrived from WRITE10
 913:SynaptiX_FDK/lib/tinyusb/src/class/msc/msc_device.c **** static void proc_write10_host_data(mscd_interface_t* p_msc, uint32_t xferred_bytes) {
 914:SynaptiX_FDK/lib/tinyusb/src/class/msc/msc_device.c ****   msc_cbw_t const* p_cbw = &p_msc->cbw;
 915:SynaptiX_FDK/lib/tinyusb/src/class/msc/msc_device.c ****   uint16_t const block_sz = rdwr10_get_blocksize(p_cbw); // already verified non-zero
 916:SynaptiX_FDK/lib/tinyusb/src/class/msc/msc_device.c ****   TU_VERIFY(block_sz != 0, );
 917:SynaptiX_FDK/lib/tinyusb/src/class/msc/msc_device.c **** 
 918:SynaptiX_FDK/lib/tinyusb/src/class/msc/msc_device.c ****   // Adjust lba & offset with transferred bytes
 919:SynaptiX_FDK/lib/tinyusb/src/class/msc/msc_device.c ****   uint32_t const lba = rdwr10_get_lba(p_cbw->command) + (p_msc->xferred_len / block_sz);
 920:SynaptiX_FDK/lib/tinyusb/src/class/msc/msc_device.c ****   uint32_t const offset = p_msc->xferred_len % block_sz;
 921:SynaptiX_FDK/lib/tinyusb/src/class/msc/msc_device.c **** 
 922:SynaptiX_FDK/lib/tinyusb/src/class/msc/msc_device.c ****   p_msc->pending_io = true;
 923:SynaptiX_FDK/lib/tinyusb/src/class/msc/msc_device.c ****   int32_t nbytes =  tud_msc_write10_cb(p_cbw->lun, lba, offset, _mscd_epbuf.buf, xferred_bytes);
 924:SynaptiX_FDK/lib/tinyusb/src/class/msc/msc_device.c ****   if (nbytes != TUD_MSC_RET_ASYNC) {
 925:SynaptiX_FDK/lib/tinyusb/src/class/msc/msc_device.c ****     p_msc->pending_io = false;
 926:SynaptiX_FDK/lib/tinyusb/src/class/msc/msc_device.c ****     proc_write_io_data(p_msc, xferred_bytes, nbytes);
 927:SynaptiX_FDK/lib/tinyusb/src/class/msc/msc_device.c ****   }
 928:SynaptiX_FDK/lib/tinyusb/src/class/msc/msc_device.c **** }
 929:SynaptiX_FDK/lib/tinyusb/src/class/msc/msc_device.c **** 
 930:SynaptiX_FDK/lib/tinyusb/src/class/msc/msc_device.c **** static void proc_write_io_data(mscd_interface_t* p_msc, uint32_t xferred_bytes, int32_t nbytes) {
 1356              		.loc 1 930 97 view -0
 1357              		.cfi_startproc
 1358              		@ args = 0, pretend = 0, frame = 16
 1359              		@ frame_needed = 0, uses_anonymous_args = 0
 1360              		.loc 1 930 97 is_stmt 0 view .LVU395
 1361 0000 30B5     		push	{r4, r5, lr}
 1362              	.LCFI22:
 1363              		.cfi_def_cfa_offset 12
 1364              		.cfi_offset 4, -12
 1365              		.cfi_offset 5, -8
 1366              		.cfi_offset 14, -4
ARM GAS  C:\Users\DELL\AppData\Local\Temp\cc6DfR6G.s 			page 56


 1367 0002 85B0     		sub	sp, sp, #20
 1368              	.LCFI23:
 1369              		.cfi_def_cfa_offset 32
 1370 0004 0446     		mov	r4, r0
 931:SynaptiX_FDK/lib/tinyusb/src/class/msc/msc_device.c ****   if (nbytes < 0) {
 1371              		.loc 1 931 3 is_stmt 1 view .LVU396
 1372              		.loc 1 931 6 is_stmt 0 view .LVU397
 1373 0006 131E     		subs	r3, r2, #0
 1374 0008 16DB     		blt	.L91
 932:SynaptiX_FDK/lib/tinyusb/src/class/msc/msc_device.c ****     // nbytes is status
 933:SynaptiX_FDK/lib/tinyusb/src/class/msc/msc_device.c ****     switch (nbytes) {
 934:SynaptiX_FDK/lib/tinyusb/src/class/msc/msc_device.c ****       case TUD_MSC_RET_ERROR:
 935:SynaptiX_FDK/lib/tinyusb/src/class/msc/msc_device.c ****         // IO error -> failed this scsi op
 936:SynaptiX_FDK/lib/tinyusb/src/class/msc/msc_device.c ****         TU_LOG_DRV("  IO write() failed\r\n");
 937:SynaptiX_FDK/lib/tinyusb/src/class/msc/msc_device.c ****         set_sense_medium_not_present(p_msc->cbw.lun);
 938:SynaptiX_FDK/lib/tinyusb/src/class/msc/msc_device.c ****         fail_scsi_op(p_msc, MSC_CSW_STATUS_FAILED);
 939:SynaptiX_FDK/lib/tinyusb/src/class/msc/msc_device.c ****         break;
 940:SynaptiX_FDK/lib/tinyusb/src/class/msc/msc_device.c **** 
 941:SynaptiX_FDK/lib/tinyusb/src/class/msc/msc_device.c ****       default: break; // nothing to do
 942:SynaptiX_FDK/lib/tinyusb/src/class/msc/msc_device.c ****     }
 943:SynaptiX_FDK/lib/tinyusb/src/class/msc/msc_device.c ****   } else {
 944:SynaptiX_FDK/lib/tinyusb/src/class/msc/msc_device.c ****     if ((uint32_t)nbytes < xferred_bytes) {
 1375              		.loc 1 944 5 is_stmt 1 view .LVU398
 1376              		.loc 1 944 8 is_stmt 0 view .LVU399
 1377 000a 8B42     		cmp	r3, r1
 1378 000c 2AD2     		bcs	.L87
 1379              	.LBB190:
 945:SynaptiX_FDK/lib/tinyusb/src/class/msc/msc_device.c ****       // Application consume less than what we got including TUD_MSC_RET_BUSY (0)
 946:SynaptiX_FDK/lib/tinyusb/src/class/msc/msc_device.c ****       const uint32_t left_over = xferred_bytes - (uint32_t)nbytes;
 1380              		.loc 1 946 7 is_stmt 1 view .LVU400
 1381              		.loc 1 946 22 is_stmt 0 view .LVU401
 1382 000e CD1A     		subs	r5, r1, r3
 1383              	.LVL111:
 947:SynaptiX_FDK/lib/tinyusb/src/class/msc/msc_device.c ****       if (nbytes > 0) {
 1384              		.loc 1 947 7 is_stmt 1 view .LVU402
 1385              		.loc 1 947 10 is_stmt 0 view .LVU403
 1386 0010 002B     		cmp	r3, #0
 1387 0012 21DC     		bgt	.L92
 1388              	.LVL112:
 1389              	.L88:
 948:SynaptiX_FDK/lib/tinyusb/src/class/msc/msc_device.c ****         memmove(_mscd_epbuf.buf, _mscd_epbuf.buf + nbytes, left_over);
 949:SynaptiX_FDK/lib/tinyusb/src/class/msc/msc_device.c ****       }
 950:SynaptiX_FDK/lib/tinyusb/src/class/msc/msc_device.c **** 
 951:SynaptiX_FDK/lib/tinyusb/src/class/msc/msc_device.c ****       // fake a transfer complete with adjusted parameters --> callback will be invoked with adjust
 952:SynaptiX_FDK/lib/tinyusb/src/class/msc/msc_device.c ****       dcd_event_xfer_complete(p_msc->rhport, p_msc->ep_out, left_over, XFER_RESULT_SUCCESS, false);
 1390              		.loc 1 952 7 is_stmt 1 view .LVU404
 1391 0014 E27F     		ldrb	r2, [r4, #31]	@ zero_extendqisi2
 1392 0016 94F82F30 		ldrb	r3, [r4, #47]	@ zero_extendqisi2
 1393              	.LVL113:
 1394              	.LBB191:
 1395              	.LBI191:
 226:SynaptiX_FDK/lib/tinyusb/src/device/dcd.h ****   dcd_event_t event;
 1396              		.loc 3 226 42 view .LVU405
 1397              	.LBB192:
 227:SynaptiX_FDK/lib/tinyusb/src/device/dcd.h ****   event.rhport = rhport;
 1398              		.loc 3 227 3 view .LVU406
 228:SynaptiX_FDK/lib/tinyusb/src/device/dcd.h ****   event.event_id = DCD_EVENT_XFER_COMPLETE;
ARM GAS  C:\Users\DELL\AppData\Local\Temp\cc6DfR6G.s 			page 57


 1399              		.loc 3 228 3 view .LVU407
 228:SynaptiX_FDK/lib/tinyusb/src/device/dcd.h ****   event.event_id = DCD_EVENT_XFER_COMPLETE;
 1400              		.loc 3 228 16 is_stmt 0 view .LVU408
 1401 001a 8DF80420 		strb	r2, [sp, #4]
 229:SynaptiX_FDK/lib/tinyusb/src/device/dcd.h ****   event.xfer_complete.ep_addr = ep_addr;
 1402              		.loc 3 229 3 is_stmt 1 view .LVU409
 229:SynaptiX_FDK/lib/tinyusb/src/device/dcd.h ****   event.xfer_complete.ep_addr = ep_addr;
 1403              		.loc 3 229 18 is_stmt 0 view .LVU410
 1404 001e 0722     		movs	r2, #7
 1405              	.LVL114:
 229:SynaptiX_FDK/lib/tinyusb/src/device/dcd.h ****   event.xfer_complete.ep_addr = ep_addr;
 1406              		.loc 3 229 18 view .LVU411
 1407 0020 8DF80520 		strb	r2, [sp, #5]
 230:SynaptiX_FDK/lib/tinyusb/src/device/dcd.h ****   event.xfer_complete.len     = xferred_bytes;
 1408              		.loc 3 230 3 is_stmt 1 view .LVU412
 230:SynaptiX_FDK/lib/tinyusb/src/device/dcd.h ****   event.xfer_complete.len     = xferred_bytes;
 1409              		.loc 3 230 31 is_stmt 0 view .LVU413
 1410 0024 8DF80830 		strb	r3, [sp, #8]
 231:SynaptiX_FDK/lib/tinyusb/src/device/dcd.h ****   event.xfer_complete.result  = result;
 1411              		.loc 3 231 3 is_stmt 1 view .LVU414
 231:SynaptiX_FDK/lib/tinyusb/src/device/dcd.h ****   event.xfer_complete.result  = result;
 1412              		.loc 3 231 31 is_stmt 0 view .LVU415
 1413 0028 0395     		str	r5, [sp, #12]
 232:SynaptiX_FDK/lib/tinyusb/src/device/dcd.h ****   dcd_event_handler(&event, in_isr);
 1414              		.loc 3 232 3 is_stmt 1 view .LVU416
 232:SynaptiX_FDK/lib/tinyusb/src/device/dcd.h ****   dcd_event_handler(&event, in_isr);
 1415              		.loc 3 232 31 is_stmt 0 view .LVU417
 1416 002a 0021     		movs	r1, #0
 1417 002c 8DF80910 		strb	r1, [sp, #9]
 233:SynaptiX_FDK/lib/tinyusb/src/device/dcd.h **** }
 1418              		.loc 3 233 3 is_stmt 1 view .LVU418
 1419 0030 01A8     		add	r0, sp, #4
 1420              	.LVL115:
 233:SynaptiX_FDK/lib/tinyusb/src/device/dcd.h **** }
 1421              		.loc 3 233 3 is_stmt 0 view .LVU419
 1422 0032 FFF7FEFF 		bl	dcd_event_handler
 1423              	.LVL116:
 1424              		.loc 3 234 1 view .LVU420
 1425 0036 02E0     		b	.L84
 1426              	.LVL117:
 1427              	.L91:
 1428              		.loc 3 234 1 view .LVU421
 1429              	.LBE192:
 1430              	.LBE191:
 1431              	.LBE190:
 933:SynaptiX_FDK/lib/tinyusb/src/class/msc/msc_device.c ****       case TUD_MSC_RET_ERROR:
 1432              		.loc 1 933 5 is_stmt 1 view .LVU422
 1433 0038 B3F1FF3F 		cmp	r3, #-1
 1434 003c 01D0     		beq	.L93
 1435              	.LVL118:
 1436              	.L84:
 953:SynaptiX_FDK/lib/tinyusb/src/class/msc/msc_device.c ****     } else {
 954:SynaptiX_FDK/lib/tinyusb/src/class/msc/msc_device.c ****       // Application consume all bytes in our buffer
 955:SynaptiX_FDK/lib/tinyusb/src/class/msc/msc_device.c ****       p_msc->xferred_len += xferred_bytes;
 956:SynaptiX_FDK/lib/tinyusb/src/class/msc/msc_device.c **** 
 957:SynaptiX_FDK/lib/tinyusb/src/class/msc/msc_device.c ****       if (p_msc->xferred_len >= p_msc->total_len) {
 958:SynaptiX_FDK/lib/tinyusb/src/class/msc/msc_device.c ****         // Data Stage is complete
ARM GAS  C:\Users\DELL\AppData\Local\Temp\cc6DfR6G.s 			page 58


 959:SynaptiX_FDK/lib/tinyusb/src/class/msc/msc_device.c ****         p_msc->stage = MSC_STAGE_STATUS;
 960:SynaptiX_FDK/lib/tinyusb/src/class/msc/msc_device.c ****       } else {
 961:SynaptiX_FDK/lib/tinyusb/src/class/msc/msc_device.c ****         // prepare to receive more data from host
 962:SynaptiX_FDK/lib/tinyusb/src/class/msc/msc_device.c ****         proc_write10_cmd(p_msc);
 963:SynaptiX_FDK/lib/tinyusb/src/class/msc/msc_device.c ****       }
 964:SynaptiX_FDK/lib/tinyusb/src/class/msc/msc_device.c ****     }
 965:SynaptiX_FDK/lib/tinyusb/src/class/msc/msc_device.c ****   }
 966:SynaptiX_FDK/lib/tinyusb/src/class/msc/msc_device.c **** }
 1437              		.loc 1 966 1 is_stmt 0 view .LVU423
 1438 003e 05B0     		add	sp, sp, #20
 1439              	.LCFI24:
 1440              		.cfi_remember_state
 1441              		.cfi_def_cfa_offset 12
 1442              		@ sp needed
 1443 0040 30BD     		pop	{r4, r5, pc}
 1444              	.LVL119:
 1445              	.L93:
 1446              	.LCFI25:
 1447              		.cfi_restore_state
 936:SynaptiX_FDK/lib/tinyusb/src/class/msc/msc_device.c ****         set_sense_medium_not_present(p_msc->cbw.lun);
 1448              		.loc 1 936 46 is_stmt 1 view .LVU424
 937:SynaptiX_FDK/lib/tinyusb/src/class/msc/msc_device.c ****         fail_scsi_op(p_msc, MSC_CSW_STATUS_FAILED);
 1449              		.loc 1 937 9 view .LVU425
 1450              	.LBB193:
 1451              	.LBI193:
 314:SynaptiX_FDK/lib/tinyusb/src/class/msc/msc_device.c ****   // default sense is NOT READY, MEDIUM NOT PRESENT
 1452              		.loc 1 314 42 view .LVU426
 1453              	.LBB194:
 316:SynaptiX_FDK/lib/tinyusb/src/class/msc/msc_device.c **** }
 1454              		.loc 1 316 3 view .LVU427
 316:SynaptiX_FDK/lib/tinyusb/src/class/msc/msc_device.c **** }
 1455              		.loc 1 316 10 is_stmt 0 view .LVU428
 1456 0042 0023     		movs	r3, #0
 1457 0044 3A22     		movs	r2, #58
 1458              	.LVL120:
 316:SynaptiX_FDK/lib/tinyusb/src/class/msc/msc_device.c **** }
 1459              		.loc 1 316 10 view .LVU429
 1460 0046 0221     		movs	r1, #2
 1461              	.LVL121:
 316:SynaptiX_FDK/lib/tinyusb/src/class/msc/msc_device.c **** }
 1462              		.loc 1 316 10 view .LVU430
 1463 0048 407B     		ldrb	r0, [r0, #13]	@ zero_extendqisi2
 1464              	.LVL122:
 316:SynaptiX_FDK/lib/tinyusb/src/class/msc/msc_device.c **** }
 1465              		.loc 1 316 10 view .LVU431
 1466 004a FFF7FEFF 		bl	tud_msc_set_sense
 1467              	.LVL123:
 316:SynaptiX_FDK/lib/tinyusb/src/class/msc/msc_device.c **** }
 1468              		.loc 1 316 10 view .LVU432
 1469              	.LBE194:
 1470              	.LBE193:
 938:SynaptiX_FDK/lib/tinyusb/src/class/msc/msc_device.c ****         break;
 1471              		.loc 1 938 9 is_stmt 1 view .LVU433
 1472 004e 0121     		movs	r1, #1
 1473 0050 2046     		mov	r0, r4
 1474 0052 FFF7FEFF 		bl	fail_scsi_op
 1475              	.LVL124:
ARM GAS  C:\Users\DELL\AppData\Local\Temp\cc6DfR6G.s 			page 59


 939:SynaptiX_FDK/lib/tinyusb/src/class/msc/msc_device.c **** 
 1476              		.loc 1 939 9 view .LVU434
 1477 0056 F2E7     		b	.L84
 1478              	.LVL125:
 1479              	.L92:
 1480              	.LBB195:
 948:SynaptiX_FDK/lib/tinyusb/src/class/msc/msc_device.c ****       }
 1481              		.loc 1 948 9 view .LVU435
 1482 0058 0948     		ldr	r0, .L94
 1483              	.LVL126:
 948:SynaptiX_FDK/lib/tinyusb/src/class/msc/msc_device.c ****       }
 1484              		.loc 1 948 9 is_stmt 0 view .LVU436
 1485 005a 2A46     		mov	r2, r5
 1486              	.LVL127:
 948:SynaptiX_FDK/lib/tinyusb/src/class/msc/msc_device.c ****       }
 1487              		.loc 1 948 9 view .LVU437
 1488 005c C118     		adds	r1, r0, r3
 1489              	.LVL128:
 948:SynaptiX_FDK/lib/tinyusb/src/class/msc/msc_device.c ****       }
 1490              		.loc 1 948 9 view .LVU438
 1491 005e FFF7FEFF 		bl	memmove
 1492              	.LVL129:
 948:SynaptiX_FDK/lib/tinyusb/src/class/msc/msc_device.c ****       }
 1493              		.loc 1 948 9 view .LVU439
 1494 0062 D7E7     		b	.L88
 1495              	.LVL130:
 1496              	.L87:
 948:SynaptiX_FDK/lib/tinyusb/src/class/msc/msc_device.c ****       }
 1497              		.loc 1 948 9 view .LVU440
 1498              	.LBE195:
 955:SynaptiX_FDK/lib/tinyusb/src/class/msc/msc_device.c **** 
 1499              		.loc 1 955 7 is_stmt 1 view .LVU441
 955:SynaptiX_FDK/lib/tinyusb/src/class/msc/msc_device.c **** 
 1500              		.loc 1 955 12 is_stmt 0 view .LVU442
 1501 0064 436B     		ldr	r3, [r0, #52]
 955:SynaptiX_FDK/lib/tinyusb/src/class/msc/msc_device.c **** 
 1502              		.loc 1 955 26 view .LVU443
 1503 0066 0B44     		add	r3, r3, r1
 1504 0068 4363     		str	r3, [r0, #52]
 957:SynaptiX_FDK/lib/tinyusb/src/class/msc/msc_device.c ****         // Data Stage is complete
 1505              		.loc 1 957 7 is_stmt 1 view .LVU444
 957:SynaptiX_FDK/lib/tinyusb/src/class/msc/msc_device.c ****         // Data Stage is complete
 1506              		.loc 1 957 38 is_stmt 0 view .LVU445
 1507 006a 026B     		ldr	r2, [r0, #48]
 1508              	.LVL131:
 957:SynaptiX_FDK/lib/tinyusb/src/class/msc/msc_device.c ****         // Data Stage is complete
 1509              		.loc 1 957 10 view .LVU446
 1510 006c 9342     		cmp	r3, r2
 1511 006e 03D3     		bcc	.L89
 959:SynaptiX_FDK/lib/tinyusb/src/class/msc/msc_device.c ****       } else {
 1512              		.loc 1 959 9 is_stmt 1 view .LVU447
 959:SynaptiX_FDK/lib/tinyusb/src/class/msc/msc_device.c ****       } else {
 1513              		.loc 1 959 22 is_stmt 0 view .LVU448
 1514 0070 0223     		movs	r3, #2
 1515 0072 80F83830 		strb	r3, [r0, #56]
 1516 0076 E2E7     		b	.L84
 1517              	.L89:
ARM GAS  C:\Users\DELL\AppData\Local\Temp\cc6DfR6G.s 			page 60


 962:SynaptiX_FDK/lib/tinyusb/src/class/msc/msc_device.c ****       }
 1518              		.loc 1 962 9 is_stmt 1 view .LVU449
 1519 0078 FFF7FEFF 		bl	proc_write10_cmd
 1520              	.LVL132:
 1521              		.loc 1 966 1 is_stmt 0 view .LVU450
 1522 007c DFE7     		b	.L84
 1523              	.L95:
 1524 007e 00BF     		.align	2
 1525              	.L94:
 1526 0080 00000000 		.word	_mscd_epbuf
 1527              		.cfi_endproc
 1528              	.LFE463:
 1530              		.section	.text.proc_async_io_done,"ax",%progbits
 1531              		.align	1
 1532              		.syntax unified
 1533              		.thumb
 1534              		.thumb_func
 1536              	proc_async_io_done:
 1537              	.LVL133:
 1538              	.LFB449:
 319:SynaptiX_FDK/lib/tinyusb/src/class/msc/msc_device.c ****   mscd_interface_t *p_msc = &_mscd_itf;
 1539              		.loc 1 319 48 is_stmt 1 view -0
 1540              		.cfi_startproc
 1541              		@ args = 0, pretend = 0, frame = 0
 1542              		@ frame_needed = 0, uses_anonymous_args = 0
 319:SynaptiX_FDK/lib/tinyusb/src/class/msc/msc_device.c ****   mscd_interface_t *p_msc = &_mscd_itf;
 1543              		.loc 1 319 48 is_stmt 0 view .LVU452
 1544 0000 08B5     		push	{r3, lr}
 1545              	.LCFI26:
 1546              		.cfi_def_cfa_offset 8
 1547              		.cfi_offset 3, -8
 1548              		.cfi_offset 14, -4
 320:SynaptiX_FDK/lib/tinyusb/src/class/msc/msc_device.c ****   TU_VERIFY(p_msc->pending_io, );
 1549              		.loc 1 320 3 is_stmt 1 view .LVU453
 1550              	.LVL134:
 321:SynaptiX_FDK/lib/tinyusb/src/class/msc/msc_device.c ****   const int32_t nbytes = (int32_t) (intptr_t) bytes_io;
 1551              		.loc 1 321 3 view .LVU454
 321:SynaptiX_FDK/lib/tinyusb/src/class/msc/msc_device.c ****   const int32_t nbytes = (int32_t) (intptr_t) bytes_io;
 1552              		.loc 1 321 3 view .LVU455
 1553 0002 104B     		ldr	r3, .L103
 1554 0004 93F83C30 		ldrb	r3, [r3, #60]	@ zero_extendqisi2
 1555 0008 BBB1     		cbz	r3, .L96
 321:SynaptiX_FDK/lib/tinyusb/src/class/msc/msc_device.c ****   const int32_t nbytes = (int32_t) (intptr_t) bytes_io;
 1556              		.loc 1 321 3 view .LVU456
 322:SynaptiX_FDK/lib/tinyusb/src/class/msc/msc_device.c ****   const uint8_t cmd = p_msc->cbw.command[0];
 1557              		.loc 1 322 3 view .LVU457
 1558              	.LVL135:
 323:SynaptiX_FDK/lib/tinyusb/src/class/msc/msc_device.c **** 
 1559              		.loc 1 323 3 view .LVU458
 323:SynaptiX_FDK/lib/tinyusb/src/class/msc/msc_device.c **** 
 1560              		.loc 1 323 17 is_stmt 0 view .LVU459
 1561 000a 0E4B     		ldr	r3, .L103
 1562 000c DA7B     		ldrb	r2, [r3, #15]	@ zero_extendqisi2
 1563              	.LVL136:
 325:SynaptiX_FDK/lib/tinyusb/src/class/msc/msc_device.c ****   switch (cmd) {
 1564              		.loc 1 325 3 is_stmt 1 view .LVU460
 325:SynaptiX_FDK/lib/tinyusb/src/class/msc/msc_device.c ****   switch (cmd) {
ARM GAS  C:\Users\DELL\AppData\Local\Temp\cc6DfR6G.s 			page 61


 1565              		.loc 1 325 21 is_stmt 0 view .LVU461
 1566 000e 0021     		movs	r1, #0
 1567 0010 83F83C10 		strb	r1, [r3, #60]
 326:SynaptiX_FDK/lib/tinyusb/src/class/msc/msc_device.c ****     case SCSI_CMD_READ_10:
 1568              		.loc 1 326 3 is_stmt 1 view .LVU462
 1569 0014 282A     		cmp	r2, #40
 1570 0016 07D0     		beq	.L98
 1571 0018 2A2A     		cmp	r2, #42
 1572 001a 09D1     		bne	.L100
 332:SynaptiX_FDK/lib/tinyusb/src/class/msc/msc_device.c ****       break;
 1573              		.loc 1 332 7 view .LVU463
 1574 001c 0246     		mov	r2, r0
 1575              	.LVL137:
 332:SynaptiX_FDK/lib/tinyusb/src/class/msc/msc_device.c ****       break;
 1576              		.loc 1 332 7 is_stmt 0 view .LVU464
 1577 001e 0146     		mov	r1, r0
 1578 0020 0848     		ldr	r0, .L103
 1579              	.LVL138:
 332:SynaptiX_FDK/lib/tinyusb/src/class/msc/msc_device.c ****       break;
 1580              		.loc 1 332 7 view .LVU465
 1581 0022 FFF7FEFF 		bl	proc_write_io_data
 1582              	.LVL139:
 333:SynaptiX_FDK/lib/tinyusb/src/class/msc/msc_device.c **** 
 1583              		.loc 1 333 7 is_stmt 1 view .LVU466
 1584 0026 03E0     		b	.L100
 1585              	.LVL140:
 1586              	.L98:
 328:SynaptiX_FDK/lib/tinyusb/src/class/msc/msc_device.c ****       break;
 1587              		.loc 1 328 7 view .LVU467
 1588 0028 0146     		mov	r1, r0
 1589 002a 0648     		ldr	r0, .L103
 1590              	.LVL141:
 328:SynaptiX_FDK/lib/tinyusb/src/class/msc/msc_device.c ****       break;
 1591              		.loc 1 328 7 is_stmt 0 view .LVU468
 1592 002c FFF7FEFF 		bl	proc_read_io_data
 1593              	.LVL142:
 329:SynaptiX_FDK/lib/tinyusb/src/class/msc/msc_device.c **** 
 1594              		.loc 1 329 7 is_stmt 1 view .LVU469
 1595              	.L100:
 339:SynaptiX_FDK/lib/tinyusb/src/class/msc/msc_device.c ****     proc_stage_status(p_msc);
 1596              		.loc 1 339 3 view .LVU470
 339:SynaptiX_FDK/lib/tinyusb/src/class/msc/msc_device.c ****     proc_stage_status(p_msc);
 1597              		.loc 1 339 12 is_stmt 0 view .LVU471
 1598 0030 044B     		ldr	r3, .L103
 1599 0032 93F83830 		ldrb	r3, [r3, #56]	@ zero_extendqisi2
 339:SynaptiX_FDK/lib/tinyusb/src/class/msc/msc_device.c ****     proc_stage_status(p_msc);
 1600              		.loc 1 339 6 view .LVU472
 1601 0036 022B     		cmp	r3, #2
 1602 0038 00D0     		beq	.L102
 1603              	.LVL143:
 1604              	.L96:
 342:SynaptiX_FDK/lib/tinyusb/src/class/msc/msc_device.c **** 
 1605              		.loc 1 342 1 view .LVU473
 1606 003a 08BD     		pop	{r3, pc}
 1607              	.LVL144:
 1608              	.L102:
 340:SynaptiX_FDK/lib/tinyusb/src/class/msc/msc_device.c ****   }
ARM GAS  C:\Users\DELL\AppData\Local\Temp\cc6DfR6G.s 			page 62


 1609              		.loc 1 340 5 is_stmt 1 view .LVU474
 1610 003c 0148     		ldr	r0, .L103
 1611 003e FFF7FEFF 		bl	proc_stage_status
 1612              	.LVL145:
 1613 0042 FAE7     		b	.L96
 1614              	.L104:
 1615              		.align	2
 1616              	.L103:
 1617 0044 00000000 		.word	_mscd_itf
 1618              		.cfi_endproc
 1619              	.LFE449:
 1621              		.section	.text.proc_write10_host_data,"ax",%progbits
 1622              		.align	1
 1623              		.syntax unified
 1624              		.thumb
 1625              		.thumb_func
 1627              	proc_write10_host_data:
 1628              	.LVL146:
 1629              	.LFB462:
 913:SynaptiX_FDK/lib/tinyusb/src/class/msc/msc_device.c ****   msc_cbw_t const* p_cbw = &p_msc->cbw;
 1630              		.loc 1 913 85 view -0
 1631              		.cfi_startproc
 1632              		@ args = 0, pretend = 0, frame = 0
 1633              		@ frame_needed = 0, uses_anonymous_args = 0
