ARM GAS  C:\Users\DELL\AppData\Local\Temp\cc4hhM2z.s 			page 1


   1              		.cpu cortex-m33
   2              		.arch armv8-m.main
   3              		.fpu fpv5-sp-d16
   4              		.arch_extension dsp
   5              		.eabi_attribute 27, 1
   6              		.eabi_attribute 28, 1
   7              		.eabi_attribute 20, 1
   8              		.eabi_attribute 21, 1
   9              		.eabi_attribute 23, 3
  10              		.eabi_attribute 24, 1
  11              		.eabi_attribute 25, 1
  12              		.eabi_attribute 26, 1
  13              		.eabi_attribute 30, 1
  14              		.eabi_attribute 34, 1
  15              		.eabi_attribute 18, 4
  16              		.file	"sensirion_streaming.c"
  17              		.text
  18              	.Ltext0:
  19              		.cfi_sections	.debug_frame
  20              		.file 1 "SynaptiX_FDK/components/modules/sps30/sensirion_streaming.c"
  21              		.section	.text.sensirion_add_uint8_t_argument,"ax",%progbits
  22              		.align	1
  23              		.global	sensirion_add_uint8_t_argument
  24              		.syntax unified
  25              		.thumb
  26              		.thumb_func
  28              	sensirion_add_uint8_t_argument:
  29              	.LVL0:
  30              	.LFB0:
   1:SynaptiX_FDK/components/modules/sps30/sensirion_streaming.c **** /*
   2:SynaptiX_FDK/components/modules/sps30/sensirion_streaming.c ****  * Copyright (c) 2024, Sensirion AG
   3:SynaptiX_FDK/components/modules/sps30/sensirion_streaming.c ****  * All rights reserved.
   4:SynaptiX_FDK/components/modules/sps30/sensirion_streaming.c ****  *
   5:SynaptiX_FDK/components/modules/sps30/sensirion_streaming.c ****  * Redistribution and use in source and binary forms, with or without
   6:SynaptiX_FDK/components/modules/sps30/sensirion_streaming.c ****  * modification, are permitted provided that the following conditions are met:
   7:SynaptiX_FDK/components/modules/sps30/sensirion_streaming.c ****  *
   8:SynaptiX_FDK/components/modules/sps30/sensirion_streaming.c ****  * * Redistributions of source code must retain the above copyright notice, this
   9:SynaptiX_FDK/components/modules/sps30/sensirion_streaming.c ****  *   list of conditions and the following disclaimer.
  10:SynaptiX_FDK/components/modules/sps30/sensirion_streaming.c ****  *
  11:SynaptiX_FDK/components/modules/sps30/sensirion_streaming.c ****  * * Redistributions in binary form must reproduce the above copyright notice,
  12:SynaptiX_FDK/components/modules/sps30/sensirion_streaming.c ****  *   this list of conditions and the following disclaimer in the documentation
  13:SynaptiX_FDK/components/modules/sps30/sensirion_streaming.c ****  *   and/or other materials provided with the distribution.
  14:SynaptiX_FDK/components/modules/sps30/sensirion_streaming.c ****  *
  15:SynaptiX_FDK/components/modules/sps30/sensirion_streaming.c ****  * * Neither the name of Sensirion AG nor the names of its
  16:SynaptiX_FDK/components/modules/sps30/sensirion_streaming.c ****  *   contributors may be used to endorse or promote products derived from
  17:SynaptiX_FDK/components/modules/sps30/sensirion_streaming.c ****  *   this software without specific prior written permission.
  18:SynaptiX_FDK/components/modules/sps30/sensirion_streaming.c ****  *
  19:SynaptiX_FDK/components/modules/sps30/sensirion_streaming.c ****  * THIS SOFTWARE IS PROVIDED BY THE COPYRIGHT HOLDERS AND CONTRIBUTORS "AS IS"
  20:SynaptiX_FDK/components/modules/sps30/sensirion_streaming.c ****  * AND ANY EXPRESS OR IMPLIED WARRANTIES, INCLUDING, BUT NOT LIMITED TO, THE
  21:SynaptiX_FDK/components/modules/sps30/sensirion_streaming.c ****  * IMPLIED WARRANTIES OF MERCHANTABILITY AND FITNESS FOR A PARTICULAR PURPOSE
  22:SynaptiX_FDK/components/modules/sps30/sensirion_streaming.c ****  * ARE DISCLAIMED. IN NO EVENT SHALL THE COPYRIGHT HOLDER OR CONTRIBUTORS BE
  23:SynaptiX_FDK/components/modules/sps30/sensirion_streaming.c ****  * LIABLE FOR ANY DIRECT, INDIRECT, INCIDENTAL, SPECIAL, EXEMPLARY, OR
  24:SynaptiX_FDK/components/modules/sps30/sensirion_streaming.c ****  * CONSEQUENTIAL DAMAGES (INCLUDING, BUT NOT LIMITED TO, PROCUREMENT OF
  25:SynaptiX_FDK/components/modules/sps30/sensirion_streaming.c ****  * SUBSTITUTE GOODS OR SERVICES; LOSS OF USE, DATA, OR PROFITS; OR BUSINESS
  26:SynaptiX_FDK/components/modules/sps30/sensirion_streaming.c ****  * INTERRUPTION) HOWEVER CAUSED AND ON ANY THEORY OF LIABILITY, WHETHER IN
  27:SynaptiX_FDK/components/modules/sps30/sensirion_streaming.c ****  * CONTRACT, STRICT LIABILITY, OR TORT (INCLUDING NEGLIGENCE OR OTHERWISE)
  28:SynaptiX_FDK/components/modules/sps30/sensirion_streaming.c ****  * ARISING IN ANY WAY OUT OF THE USE OF THIS SOFTWARE, EVEN IF ADVISED OF THE
ARM GAS  C:\Users\DELL\AppData\Local\Temp\cc4hhM2z.s 			page 2


  29:SynaptiX_FDK/components/modules/sps30/sensirion_streaming.c ****  * POSSIBILITY OF SUCH DAMAGE.
  30:SynaptiX_FDK/components/modules/sps30/sensirion_streaming.c ****  */
  31:SynaptiX_FDK/components/modules/sps30/sensirion_streaming.c **** 
  32:SynaptiX_FDK/components/modules/sps30/sensirion_streaming.c **** /**
  33:SynaptiX_FDK/components/modules/sps30/sensirion_streaming.c ****  *  @file sensirion_streaming.c
  34:SynaptiX_FDK/components/modules/sps30/sensirion_streaming.c ****  */
  35:SynaptiX_FDK/components/modules/sps30/sensirion_streaming.c **** 
  36:SynaptiX_FDK/components/modules/sps30/sensirion_streaming.c **** #include "sensirion_streaming.h"
  37:SynaptiX_FDK/components/modules/sps30/sensirion_streaming.c **** 
  38:SynaptiX_FDK/components/modules/sps30/sensirion_streaming.c **** #define SHDLC_MOSI_ADDR_POS 0
  39:SynaptiX_FDK/components/modules/sps30/sensirion_streaming.c **** #define SHDLC_MOSI_CMD_POS 1
  40:SynaptiX_FDK/components/modules/sps30/sensirion_streaming.c **** #define SHDLC_MOSI_LEN_POS 2
  41:SynaptiX_FDK/components/modules/sps30/sensirion_streaming.c **** 
  42:SynaptiX_FDK/components/modules/sps30/sensirion_streaming.c **** void sensirion_add_uint8_t_argument(sensirion_streaming_state* stream,
  43:SynaptiX_FDK/components/modules/sps30/sensirion_streaming.c ****                                     uint8_t data) {
  31              		.loc 1 43 51 view -0
  32              		.cfi_startproc
  33              		@ args = 0, pretend = 0, frame = 0
  34              		@ frame_needed = 0, uses_anonymous_args = 0
  35              		@ link register save eliminated.
  44:SynaptiX_FDK/components/modules/sps30/sensirion_streaming.c ****     stream->data[stream->offset++] = data;
  36              		.loc 1 44 5 view .LVU1
  37              		.loc 1 44 11 is_stmt 0 view .LVU2
  38 0000 0268     		ldr	r2, [r0]
  39              		.loc 1 44 24 view .LVU3
  40 0002 8388     		ldrh	r3, [r0, #4]
  41              		.loc 1 44 32 view .LVU4
  42 0004 03F1010C 		add	ip, r3, #1
  43 0008 A0F804C0 		strh	ip, [r0, #4]	@ movhi
  44              		.loc 1 44 36 view .LVU5
  45 000c D154     		strb	r1, [r2, r3]
  45:SynaptiX_FDK/components/modules/sps30/sensirion_streaming.c **** }
  46              		.loc 1 45 1 view .LVU6
  47 000e 7047     		bx	lr
  48              		.cfi_endproc
  49              	.LFE0:
  51              		.section	.text.sensirion_add_bool_argument,"ax",%progbits
  52              		.align	1
  53              		.global	sensirion_add_bool_argument
  54              		.syntax unified
  55              		.thumb
  56              		.thumb_func
  58              	sensirion_add_bool_argument:
  59              	.LVL1:
  60              	.LFB1:
  46:SynaptiX_FDK/components/modules/sps30/sensirion_streaming.c **** 
  47:SynaptiX_FDK/components/modules/sps30/sensirion_streaming.c **** void sensirion_add_bool_argument(sensirion_streaming_state* stream, bool data) {
  61              		.loc 1 47 80 is_stmt 1 view -0
  62              		.cfi_startproc
  63              		@ args = 0, pretend = 0, frame = 0
  64              		@ frame_needed = 0, uses_anonymous_args = 0
  65              		.loc 1 47 80 is_stmt 0 view .LVU8
  66 0000 08B5     		push	{r3, lr}
  67              	.LCFI0:
  68              		.cfi_def_cfa_offset 8
  69              		.cfi_offset 3, -8
  70              		.cfi_offset 14, -4
ARM GAS  C:\Users\DELL\AppData\Local\Temp\cc4hhM2z.s 			page 3


  48:SynaptiX_FDK/components/modules/sps30/sensirion_streaming.c ****     sensirion_add_uint8_t_argument(stream, (uint8_t)data);
  71              		.loc 1 48 5 is_stmt 1 view .LVU9
  72 0002 FFF7FEFF 		bl	sensirion_add_uint8_t_argument
  73              	.LVL2:
  49:SynaptiX_FDK/components/modules/sps30/sensirion_streaming.c **** }
  74              		.loc 1 49 1 is_stmt 0 view .LVU10
  75 0006 08BD     		pop	{r3, pc}
  76              		.cfi_endproc
  77              	.LFE1:
  79              		.section	.text.sensirion_add_uint32_t_argument,"ax",%progbits
  80              		.align	1
  81              		.global	sensirion_add_uint32_t_argument
  82              		.syntax unified
  83              		.thumb
  84              		.thumb_func
  86              	sensirion_add_uint32_t_argument:
  87              	.LVL3:
  88              	.LFB2:
  50:SynaptiX_FDK/components/modules/sps30/sensirion_streaming.c **** 
  51:SynaptiX_FDK/components/modules/sps30/sensirion_streaming.c **** void sensirion_add_uint32_t_argument(sensirion_streaming_state* stream,
  52:SynaptiX_FDK/components/modules/sps30/sensirion_streaming.c ****                                      uint32_t data) {
  89              		.loc 1 52 53 is_stmt 1 view -0
  90              		.cfi_startproc
  91              		@ args = 0, pretend = 0, frame = 0
  92              		@ frame_needed = 0, uses_anonymous_args = 0
  93              		.loc 1 52 53 is_stmt 0 view .LVU12
  94 0000 10B5     		push	{r4, lr}
  95              	.LCFI1:
  96              		.cfi_def_cfa_offset 8
  97              		.cfi_offset 4, -8
  98              		.cfi_offset 14, -4
  99 0002 0446     		mov	r4, r0
 100 0004 0846     		mov	r0, r1
 101              	.LVL4:
  53:SynaptiX_FDK/components/modules/sps30/sensirion_streaming.c ****     sensirion_common_uint32_t_to_bytes(data, &stream->data[stream->offset]);
 102              		.loc 1 53 5 is_stmt 1 view .LVU13
 103              		.loc 1 53 53 is_stmt 0 view .LVU14
 104 0006 2168     		ldr	r1, [r4]
 105              	.LVL5:
 106              		.loc 1 53 66 view .LVU15
 107 0008 A388     		ldrh	r3, [r4, #4]
 108              		.loc 1 53 5 view .LVU16
 109 000a 1944     		add	r1, r1, r3
 110 000c FFF7FEFF 		bl	sensirion_common_uint32_t_to_bytes
 111              	.LVL6:
  54:SynaptiX_FDK/components/modules/sps30/sensirion_streaming.c ****     stream->offset += sizeof(data);
 112              		.loc 1 54 5 is_stmt 1 view .LVU17
 113              		.loc 1 54 11 is_stmt 0 view .LVU18
 114 0010 A388     		ldrh	r3, [r4, #4]
 115              		.loc 1 54 20 view .LVU19
 116 0012 0433     		adds	r3, r3, #4
 117 0014 A380     		strh	r3, [r4, #4]	@ movhi
  55:SynaptiX_FDK/components/modules/sps30/sensirion_streaming.c **** }
 118              		.loc 1 55 1 view .LVU20
 119 0016 10BD     		pop	{r4, pc}
 120              		.loc 1 55 1 view .LVU21
 121              		.cfi_endproc
ARM GAS  C:\Users\DELL\AppData\Local\Temp\cc4hhM2z.s 			page 4


 122              	.LFE2:
 124              		.section	.text.sensirion_add_int32_t_argument,"ax",%progbits
 125              		.align	1
 126              		.global	sensirion_add_int32_t_argument
 127              		.syntax unified
 128              		.thumb
 129              		.thumb_func
 131              	sensirion_add_int32_t_argument:
 132              	.LVL7:
 133              	.LFB3:
  56:SynaptiX_FDK/components/modules/sps30/sensirion_streaming.c **** 
  57:SynaptiX_FDK/components/modules/sps30/sensirion_streaming.c **** void sensirion_add_int32_t_argument(sensirion_streaming_state* stream,
  58:SynaptiX_FDK/components/modules/sps30/sensirion_streaming.c ****                                     int32_t data) {
 134              		.loc 1 58 51 is_stmt 1 view -0
 135              		.cfi_startproc
 136              		@ args = 0, pretend = 0, frame = 0
 137              		@ frame_needed = 0, uses_anonymous_args = 0
 138              		.loc 1 58 51 is_stmt 0 view .LVU23
 139 0000 10B5     		push	{r4, lr}
 140              	.LCFI2:
 141              		.cfi_def_cfa_offset 8
 142              		.cfi_offset 4, -8
 143              		.cfi_offset 14, -4
 144 0002 0446     		mov	r4, r0
 145 0004 0846     		mov	r0, r1
 146              	.LVL8:
  59:SynaptiX_FDK/components/modules/sps30/sensirion_streaming.c ****     sensirion_common_int32_t_to_bytes(data, &stream->data[stream->offset]);
 147              		.loc 1 59 5 is_stmt 1 view .LVU24
 148              		.loc 1 59 52 is_stmt 0 view .LVU25
 149 0006 2168     		ldr	r1, [r4]
 150              	.LVL9:
 151              		.loc 1 59 65 view .LVU26
 152 0008 A388     		ldrh	r3, [r4, #4]
 153              		.loc 1 59 5 view .LVU27
 154 000a 1944     		add	r1, r1, r3
 155 000c FFF7FEFF 		bl	sensirion_common_int32_t_to_bytes
 156              	.LVL10:
  60:SynaptiX_FDK/components/modules/sps30/sensirion_streaming.c ****     stream->offset += sizeof(data);
 157              		.loc 1 60 5 is_stmt 1 view .LVU28
 158              		.loc 1 60 11 is_stmt 0 view .LVU29
 159 0010 A388     		ldrh	r3, [r4, #4]
 160              		.loc 1 60 20 view .LVU30
 161 0012 0433     		adds	r3, r3, #4
 162 0014 A380     		strh	r3, [r4, #4]	@ movhi
  61:SynaptiX_FDK/components/modules/sps30/sensirion_streaming.c **** }
 163              		.loc 1 61 1 view .LVU31
 164 0016 10BD     		pop	{r4, pc}
 165              		.loc 1 61 1 view .LVU32
 166              		.cfi_endproc
 167              	.LFE3:
 169              		.section	.text.sensirion_add_uint16_t_argument,"ax",%progbits
 170              		.align	1
 171              		.global	sensirion_add_uint16_t_argument
 172              		.syntax unified
 173              		.thumb
 174              		.thumb_func
 176              	sensirion_add_uint16_t_argument:
ARM GAS  C:\Users\DELL\AppData\Local\Temp\cc4hhM2z.s 			page 5


 177              	.LVL11:
 178              	.LFB4:
  62:SynaptiX_FDK/components/modules/sps30/sensirion_streaming.c **** 
  63:SynaptiX_FDK/components/modules/sps30/sensirion_streaming.c **** void sensirion_add_uint16_t_argument(sensirion_streaming_state* stream,
  64:SynaptiX_FDK/components/modules/sps30/sensirion_streaming.c ****                                      uint16_t data) {
 179              		.loc 1 64 53 is_stmt 1 view -0
 180              		.cfi_startproc
 181              		@ args = 0, pretend = 0, frame = 0
 182              		@ frame_needed = 0, uses_anonymous_args = 0
 183              		.loc 1 64 53 is_stmt 0 view .LVU34
 184 0000 10B5     		push	{r4, lr}
 185              	.LCFI3:
 186              		.cfi_def_cfa_offset 8
 187              		.cfi_offset 4, -8
 188              		.cfi_offset 14, -4
 189 0002 0446     		mov	r4, r0
 190 0004 0846     		mov	r0, r1
 191              	.LVL12:
  65:SynaptiX_FDK/components/modules/sps30/sensirion_streaming.c ****     sensirion_common_uint16_t_to_bytes(data, &stream->data[stream->offset]);
 192              		.loc 1 65 5 is_stmt 1 view .LVU35
 193              		.loc 1 65 53 is_stmt 0 view .LVU36
 194 0006 2168     		ldr	r1, [r4]
 195              	.LVL13:
 196              		.loc 1 65 66 view .LVU37
 197 0008 A388     		ldrh	r3, [r4, #4]
 198              		.loc 1 65 5 view .LVU38
 199 000a 1944     		add	r1, r1, r3
 200 000c FFF7FEFF 		bl	sensirion_common_uint16_t_to_bytes
 201              	.LVL14:
  66:SynaptiX_FDK/components/modules/sps30/sensirion_streaming.c ****     stream->offset += sizeof(data);
 202              		.loc 1 66 5 is_stmt 1 view .LVU39
 203              		.loc 1 66 11 is_stmt 0 view .LVU40
 204 0010 A388     		ldrh	r3, [r4, #4]
 205              		.loc 1 66 20 view .LVU41
 206 0012 0233     		adds	r3, r3, #2
 207 0014 A380     		strh	r3, [r4, #4]	@ movhi
  67:SynaptiX_FDK/components/modules/sps30/sensirion_streaming.c **** }
 208              		.loc 1 67 1 view .LVU42
 209 0016 10BD     		pop	{r4, pc}
 210              		.loc 1 67 1 view .LVU43
 211              		.cfi_endproc
 212              	.LFE4:
 214              		.section	.text.sensirion_add_int16_t_argument,"ax",%progbits
 215              		.align	1
 216              		.global	sensirion_add_int16_t_argument
 217              		.syntax unified
 218              		.thumb
 219              		.thumb_func
 221              	sensirion_add_int16_t_argument:
 222              	.LVL15:
 223              	.LFB5:
  68:SynaptiX_FDK/components/modules/sps30/sensirion_streaming.c **** 
  69:SynaptiX_FDK/components/modules/sps30/sensirion_streaming.c **** void sensirion_add_int16_t_argument(sensirion_streaming_state* stream,
  70:SynaptiX_FDK/components/modules/sps30/sensirion_streaming.c ****                                     int16_t data) {
 224              		.loc 1 70 51 is_stmt 1 view -0
 225              		.cfi_startproc
 226              		@ args = 0, pretend = 0, frame = 0
ARM GAS  C:\Users\DELL\AppData\Local\Temp\cc4hhM2z.s 			page 6


 227              		@ frame_needed = 0, uses_anonymous_args = 0
 228              		.loc 1 70 51 is_stmt 0 view .LVU45
 229 0000 10B5     		push	{r4, lr}
 230              	.LCFI4:
 231              		.cfi_def_cfa_offset 8
 232              		.cfi_offset 4, -8
 233              		.cfi_offset 14, -4
 234 0002 0446     		mov	r4, r0
 235 0004 0846     		mov	r0, r1
 236              	.LVL16:
  71:SynaptiX_FDK/components/modules/sps30/sensirion_streaming.c ****     sensirion_common_int16_t_to_bytes(data, &stream->data[stream->offset]);
 237              		.loc 1 71 5 is_stmt 1 view .LVU46
 238              		.loc 1 71 52 is_stmt 0 view .LVU47
 239 0006 2168     		ldr	r1, [r4]
 240              	.LVL17:
 241              		.loc 1 71 65 view .LVU48
 242 0008 A388     		ldrh	r3, [r4, #4]
 243              		.loc 1 71 5 view .LVU49
 244 000a 1944     		add	r1, r1, r3
 245 000c FFF7FEFF 		bl	sensirion_common_int16_t_to_bytes
 246              	.LVL18:
  72:SynaptiX_FDK/components/modules/sps30/sensirion_streaming.c ****     stream->offset += sizeof(data);
 247              		.loc 1 72 5 is_stmt 1 view .LVU50
 248              		.loc 1 72 11 is_stmt 0 view .LVU51
 249 0010 A388     		ldrh	r3, [r4, #4]
 250              		.loc 1 72 20 view .LVU52
 251 0012 0233     		adds	r3, r3, #2
 252 0014 A380     		strh	r3, [r4, #4]	@ movhi
  73:SynaptiX_FDK/components/modules/sps30/sensirion_streaming.c **** }
 253              		.loc 1 73 1 view .LVU53
 254 0016 10BD     		pop	{r4, pc}
 255              		.loc 1 73 1 view .LVU54
 256              		.cfi_endproc
 257              	.LFE5:
 259              		.section	.text.sensirion_add_float_argument,"ax",%progbits
 260              		.align	1
 261              		.global	sensirion_add_float_argument
 262              		.syntax unified
 263              		.thumb
 264              		.thumb_func
 266              	sensirion_add_float_argument:
 267              	.LVL19:
 268              	.LFB6:
  74:SynaptiX_FDK/components/modules/sps30/sensirion_streaming.c **** 
  75:SynaptiX_FDK/components/modules/sps30/sensirion_streaming.c **** void sensirion_add_float_argument(sensirion_streaming_state* stream,
  76:SynaptiX_FDK/components/modules/sps30/sensirion_streaming.c ****                                   float data) {
 269              		.loc 1 76 47 is_stmt 1 view -0
 270              		.cfi_startproc
 271              		@ args = 0, pretend = 0, frame = 0
 272              		@ frame_needed = 0, uses_anonymous_args = 0
 273              		.loc 1 76 47 is_stmt 0 view .LVU56
 274 0000 10B5     		push	{r4, lr}
 275              	.LCFI5:
 276              		.cfi_def_cfa_offset 8
 277              		.cfi_offset 4, -8
 278              		.cfi_offset 14, -4
 279 0002 0446     		mov	r4, r0
ARM GAS  C:\Users\DELL\AppData\Local\Temp\cc4hhM2z.s 			page 7


  77:SynaptiX_FDK/components/modules/sps30/sensirion_streaming.c ****     sensirion_common_float_to_bytes(data, &stream->data[stream->offset]);
 280              		.loc 1 77 5 is_stmt 1 view .LVU57
 281              		.loc 1 77 50 is_stmt 0 view .LVU58
 282 0004 0068     		ldr	r0, [r0]
 283              	.LVL20:
 284              		.loc 1 77 63 view .LVU59
 285 0006 A388     		ldrh	r3, [r4, #4]
 286              		.loc 1 77 5 view .LVU60
 287 0008 1844     		add	r0, r0, r3
 288 000a FFF7FEFF 		bl	sensirion_common_float_to_bytes
 289              	.LVL21:
  78:SynaptiX_FDK/components/modules/sps30/sensirion_streaming.c ****     stream->offset += sizeof(data);
 290              		.loc 1 78 5 is_stmt 1 view .LVU61
 291              		.loc 1 78 11 is_stmt 0 view .LVU62
 292 000e A388     		ldrh	r3, [r4, #4]
 293              		.loc 1 78 20 view .LVU63
 294 0010 0433     		adds	r3, r3, #4
 295 0012 A380     		strh	r3, [r4, #4]	@ movhi
  79:SynaptiX_FDK/components/modules/sps30/sensirion_streaming.c **** }
 296              		.loc 1 79 1 view .LVU64
 297 0014 10BD     		pop	{r4, pc}
 298              		.loc 1 79 1 view .LVU65
 299              		.cfi_endproc
 300              	.LFE6:
 302              		.section	.text.sensirion_add_bytes_argument,"ax",%progbits
 303              		.align	1
 304              		.global	sensirion_add_bytes_argument
 305              		.syntax unified
 306              		.thumb
 307              		.thumb_func
 309              	sensirion_add_bytes_argument:
 310              	.LVL22:
 311              	.LFB7:
  80:SynaptiX_FDK/components/modules/sps30/sensirion_streaming.c **** 
  81:SynaptiX_FDK/components/modules/sps30/sensirion_streaming.c **** void sensirion_add_bytes_argument(sensirion_streaming_state* stream,
  82:SynaptiX_FDK/components/modules/sps30/sensirion_streaming.c ****                                   const uint8_t* data, uint16_t data_length) {
 312              		.loc 1 82 78 is_stmt 1 view -0
 313              		.cfi_startproc
 314              		@ args = 0, pretend = 0, frame = 0
 315              		@ frame_needed = 0, uses_anonymous_args = 0
 316              		.loc 1 82 78 is_stmt 0 view .LVU67
 317 0000 38B5     		push	{r3, r4, r5, lr}
 318              	.LCFI6:
 319              		.cfi_def_cfa_offset 16
 320              		.cfi_offset 3, -16
 321              		.cfi_offset 4, -12
 322              		.cfi_offset 5, -8
 323              		.cfi_offset 14, -4
 324 0002 0446     		mov	r4, r0
 325 0004 0846     		mov	r0, r1
 326              	.LVL23:
 327              		.loc 1 82 78 view .LVU68
 328 0006 1546     		mov	r5, r2
  83:SynaptiX_FDK/components/modules/sps30/sensirion_streaming.c ****     sensirion_common_copy_bytes(data, &stream->data[stream->offset],
 329              		.loc 1 83 5 is_stmt 1 view .LVU69
 330              		.loc 1 83 46 is_stmt 0 view .LVU70
 331 0008 2168     		ldr	r1, [r4]
ARM GAS  C:\Users\DELL\AppData\Local\Temp\cc4hhM2z.s 			page 8


 332              	.LVL24:
 333              		.loc 1 83 59 view .LVU71
 334 000a A388     		ldrh	r3, [r4, #4]
 335              		.loc 1 83 5 view .LVU72
 336 000c 1944     		add	r1, r1, r3
 337 000e FFF7FEFF 		bl	sensirion_common_copy_bytes
 338              	.LVL25:
  84:SynaptiX_FDK/components/modules/sps30/sensirion_streaming.c ****                                 data_length);
  85:SynaptiX_FDK/components/modules/sps30/sensirion_streaming.c ****     stream->offset += data_length;
 339              		.loc 1 85 5 is_stmt 1 view .LVU73
 340              		.loc 1 85 11 is_stmt 0 view .LVU74
 341 0012 A388     		ldrh	r3, [r4, #4]
 342              		.loc 1 85 20 view .LVU75
 343 0014 5A19     		adds	r2, r3, r5
 344 0016 A280     		strh	r2, [r4, #4]	@ movhi
  86:SynaptiX_FDK/components/modules/sps30/sensirion_streaming.c **** }...
 345              		.loc 1 86 1 view .LVU76
 346 0018 38BD     		pop	{r3, r4, r5, pc}
 347              		.loc 1 86 1 view .LVU77
 348              		.cfi_endproc
 349              	.LFE7:
 351              		.text
 352              	.Letext0:
 353              		.file 2 "D:\\stm32cubeclt\\STM32CubeCLT_1.21.0\\GNU-tools-for-STM32\\bin\\../lib/gcc/arm-none-eabi
 354              		.file 3 "D:\\stm32cubeclt\\STM32CubeCLT_1.21.0\\GNU-tools-for-STM32\\bin\\../lib/gcc/arm-none-eabi
 355              		.file 4 "SynaptiX_FDK/components/modules/sps30/sensirion_streaming.h"
 356              		.file 5 "SynaptiX_FDK/components/modules/sps30/sensirion_common.h"
ARM GAS  C:\Users\DELL\AppData\Local\Temp\cc4hhM2z.s 			page 9

