ARM GAS  C:\Users\DELL\AppData\Local\Temp\cciZUf5O.s 			page 1


   1              		.cpu cortex-m33
   2              		.arch armv8-m.main
   3              		.fpu fpv5-sp-d16
   4              		.arch_extension dsp
   5              		.eabi_attribute 27, 1
   6              		.eabi_attribute 28, 1
   7              		.eabi_attribute 20, 1
   8              		.eabi_attribute 21, 1
   9              		.eabi_attribute 23, 3
  10              		.eabi_attribute 24, 1
  11              		.eabi_attribute 25, 1
  12              		.eabi_attribute 26, 1
  13              		.eabi_attribute 30, 1
  14              		.eabi_attribute 34, 1
  15              		.eabi_attribute 18, 4
  16              		.file	"sensirion_uart_hal.c"
  17              		.text
  18              	.Ltext0:
  19              		.cfi_sections	.debug_frame
  20              		.file 1 "SynaptiX_FDK/components/modules/sps30/sensirion_uart_hal.c"
  21              		.section	.text.sensirion_uart_hal_init,"ax",%progbits
  22              		.align	1
  23              		.global	sensirion_uart_hal_init
  24              		.syntax unified
  25              		.thumb
  26              		.thumb_func
  28              	sensirion_uart_hal_init:
  29              	.LVL0:
  30              	.LFB3:
   1:SynaptiX_FDK/components/modules/sps30/sensirion_uart_hal.c **** /*
   2:SynaptiX_FDK/components/modules/sps30/sensirion_uart_hal.c ****  * Platform glue between Sensirion's SHDLC/streaming layer (unmodified,
   3:SynaptiX_FDK/components/modules/sps30/sensirion_uart_hal.c ****  * copied from the reference driver) and this project's own non-blocking
   4:SynaptiX_FDK/components/modules/sps30/sensirion_uart_hal.c ****  * UART peripheral driver (sx_uart.h).
   5:SynaptiX_FDK/components/modules/sps30/sensirion_uart_hal.c ****  *
   6:SynaptiX_FDK/components/modules/sps30/sensirion_uart_hal.c ****  * This file replaces v0's sensirion_uart_hal.c, which implemented these
   7:SynaptiX_FDK/components/modules/sps30/sensirion_uart_hal.c ****  * same functions using a dedicated FreeRTOS TX task plus busy-wait RX
   8:SynaptiX_FDK/components/modules/sps30/sensirion_uart_hal.c ****  * polling via bsp_delay_us(). This project is bare-metal (no RTOS), so
   9:SynaptiX_FDK/components/modules/sps30/sensirion_uart_hal.c ****  * that implementation cannot be reused as-is.
  10:SynaptiX_FDK/components/modules/sps30/sensirion_uart_hal.c ****  *
  11:SynaptiX_FDK/components/modules/sps30/sensirion_uart_hal.c ****  * Design note on blocking behavior:
  12:SynaptiX_FDK/components/modules/sps30/sensirion_uart_hal.c ****  * - sx_uart_write() calls HAL_UART_Transmit() directly, which is already
  13:SynaptiX_FDK/components/modules/sps30/sensirion_uart_hal.c ****  *   blocking (up to 1000ms internal HAL timeout). sensirion_uart_hal_tx()
  14:SynaptiX_FDK/components/modules/sps30/sensirion_uart_hal.c ****  *   therefore also blocks for the (very short, a few dozen bytes at
  15:SynaptiX_FDK/components/modules/sps30/sensirion_uart_hal.c ****  *   9600-115200 baud) duration of the frame. This matches the reference
  16:SynaptiX_FDK/components/modules/sps30/sensirion_uart_hal.c ****  *   driver's behavior and is acceptable because SPS30 commands are sent
  17:SynaptiX_FDK/components/modules/sps30/sensirion_uart_hal.c ****  *   only occasionally (once per second at most in normal operation), not
  18:SynaptiX_FDK/components/modules/sps30/sensirion_uart_hal.c ****  *   from a tight polling loop.
  19:SynaptiX_FDK/components/modules/sps30/sensirion_uart_hal.c ****  * - sx_uart_read() does NOT block: it returns immediately with however
  20:SynaptiX_FDK/components/modules/sps30/sensirion_uart_hal.c ****  *   many bytes are already queued (possibly zero), matching how gps.c
  21:SynaptiX_FDK/components/modules/sps30/sensirion_uart_hal.c ****  *   already uses it elsewhere in this project. sensirion_uart_hal_rx()
  22:SynaptiX_FDK/components/modules/sps30/sensirion_uart_hal.c ****  *   preserves that non-blocking behavior by doing a single read attempt
  23:SynaptiX_FDK/components/modules/sps30/sensirion_uart_hal.c ****  *   and returning immediately. The retry/timeout loop that decides how
  24:SynaptiX_FDK/components/modules/sps30/sensirion_uart_hal.c ****  *   long to keep waiting for a full SHDLC response already exists one
  25:SynaptiX_FDK/components/modules/sps30/sensirion_uart_hal.c ****  *   layer up, in sensirion_streaming_shdlc.c's sensirion_shdlc_read_
  26:SynaptiX_FDK/components/modules/sps30/sensirion_uart_hal.c ****  *   response() (see its "retries" / sensirion_uart_hal_sleep_usec loop) -
  27:SynaptiX_FDK/components/modules/sps30/sensirion_uart_hal.c ****  *   this HAL layer must not duplicate that waiting logic, only provide
  28:SynaptiX_FDK/components/modules/sps30/sensirion_uart_hal.c ****  *   the raw non-blocking read primitive it polls against.
ARM GAS  C:\Users\DELL\AppData\Local\Temp\cciZUf5O.s 			page 2


  29:SynaptiX_FDK/components/modules/sps30/sensirion_uart_hal.c ****  */
  30:SynaptiX_FDK/components/modules/sps30/sensirion_uart_hal.c **** 
  31:SynaptiX_FDK/components/modules/sps30/sensirion_uart_hal.c **** #include "sensirion_uart_hal.h"
  32:SynaptiX_FDK/components/modules/sps30/sensirion_uart_hal.c **** #include "sx_uart.h"
  33:SynaptiX_FDK/components/modules/sps30/sensirion_uart_hal.c **** #include "sx_delay.h"
  34:SynaptiX_FDK/components/modules/sps30/sensirion_uart_hal.c **** 
  35:SynaptiX_FDK/components/modules/sps30/sensirion_uart_hal.c **** static sx_uart_t *s_port = NULL;
  36:SynaptiX_FDK/components/modules/sps30/sensirion_uart_hal.c **** 
  37:SynaptiX_FDK/components/modules/sps30/sensirion_uart_hal.c **** int16_t sensirion_uart_hal_init(UartDescr port) {
  31              		.loc 1 37 49 view -0
  32              		.cfi_startproc
  33              		@ args = 0, pretend = 0, frame = 0
  34              		@ frame_needed = 0, uses_anonymous_args = 0
  35              		@ link register save eliminated.
  38:SynaptiX_FDK/components/modules/sps30/sensirion_uart_hal.c ****     s_port = port;
  36              		.loc 1 38 5 view .LVU1
  37              		.loc 1 38 12 is_stmt 0 view .LVU2
  38 0000 014B     		ldr	r3, .L2
  39 0002 1860     		str	r0, [r3]
  39:SynaptiX_FDK/components/modules/sps30/sensirion_uart_hal.c ****     return 0;
  40              		.loc 1 39 5 is_stmt 1 view .LVU3
  40:SynaptiX_FDK/components/modules/sps30/sensirion_uart_hal.c **** }
  41              		.loc 1 40 1 is_stmt 0 view .LVU4
  42 0004 0020     		movs	r0, #0
  43              	.LVL1:
  44              		.loc 1 40 1 view .LVU5
  45 0006 7047     		bx	lr
  46              	.L3:
  47              		.align	2
  48              	.L2:
  49 0008 00000000 		.word	s_port
  50              		.cfi_endproc
  51              	.LFE3:
  53              		.section	.text.sensirion_uart_hal_free,"ax",%progbits
  54              		.align	1
  55              		.global	sensirion_uart_hal_free
  56              		.syntax unified
  57              		.thumb
  58              		.thumb_func
  60              	sensirion_uart_hal_free:
  61              	.LFB4:
  41:SynaptiX_FDK/components/modules/sps30/sensirion_uart_hal.c **** 
  42:SynaptiX_FDK/components/modules/sps30/sensirion_uart_hal.c **** int16_t sensirion_uart_hal_free(void) {
  62              		.loc 1 42 39 is_stmt 1 view -0
  63              		.cfi_startproc
  64              		@ args = 0, pretend = 0, frame = 0
  65              		@ frame_needed = 0, uses_anonymous_args = 0
  66              		@ link register save eliminated.
  43:SynaptiX_FDK/components/modules/sps30/sensirion_uart_hal.c ****     s_port = NULL;
  67              		.loc 1 43 5 view .LVU7
  68              		.loc 1 43 12 is_stmt 0 view .LVU8
  69 0000 0020     		movs	r0, #0
  70 0002 014B     		ldr	r3, .L5
  71 0004 1860     		str	r0, [r3]
  44:SynaptiX_FDK/components/modules/sps30/sensirion_uart_hal.c ****     return 0;
  72              		.loc 1 44 5 is_stmt 1 view .LVU9
  45:SynaptiX_FDK/components/modules/sps30/sensirion_uart_hal.c **** }
ARM GAS  C:\Users\DELL\AppData\Local\Temp\cciZUf5O.s 			page 3


  73              		.loc 1 45 1 is_stmt 0 view .LVU10
  74 0006 7047     		bx	lr
  75              	.L6:
  76              		.align	2
  77              	.L5:
  78 0008 00000000 		.word	s_port
  79              		.cfi_endproc
  80              	.LFE4:
  82              		.section	.text.sensirion_uart_hal_tx,"ax",%progbits
  83              		.align	1
  84              		.global	sensirion_uart_hal_tx
  85              		.syntax unified
  86              		.thumb
  87              		.thumb_func
  89              	sensirion_uart_hal_tx:
  90              	.LVL2:
  91              	.LFB5:
  46:SynaptiX_FDK/components/modules/sps30/sensirion_uart_hal.c **** 
  47:SynaptiX_FDK/components/modules/sps30/sensirion_uart_hal.c **** int16_t sensirion_uart_hal_tx(uint16_t data_len, const uint8_t *data) {
  92              		.loc 1 47 71 is_stmt 1 view -0
  93              		.cfi_startproc
  94              		@ args = 0, pretend = 0, frame = 0
  95              		@ frame_needed = 0, uses_anonymous_args = 0
  96              		.loc 1 47 71 is_stmt 0 view .LVU12
  97 0000 10B5     		push	{r4, lr}
  98              	.LCFI0:
  99              		.cfi_def_cfa_offset 8
 100              		.cfi_offset 4, -8
 101              		.cfi_offset 14, -4
 102 0002 0446     		mov	r4, r0
  48:SynaptiX_FDK/components/modules/sps30/sensirion_uart_hal.c ****     if (s_port == NULL) {
 103              		.loc 1 48 5 is_stmt 1 view .LVU13
 104              		.loc 1 48 16 is_stmt 0 view .LVU14
 105 0004 054B     		ldr	r3, .L11
 106 0006 1868     		ldr	r0, [r3]
 107              	.LVL3:
 108              		.loc 1 48 8 view .LVU15
 109 0008 20B1     		cbz	r0, .L9
  49:SynaptiX_FDK/components/modules/sps30/sensirion_uart_hal.c ****         return -1;
  50:SynaptiX_FDK/components/modules/sps30/sensirion_uart_hal.c ****     }
  51:SynaptiX_FDK/components/modules/sps30/sensirion_uart_hal.c ****     /* sx_uart_write() has no failure return path in this project's
  52:SynaptiX_FDK/components/modules/sps30/sensirion_uart_hal.c ****      * driver (HAL errors are not surfaced past it); if it returns at all,
  53:SynaptiX_FDK/components/modules/sps30/sensirion_uart_hal.c ****      * the whole frame was handed to the HAL transmit call. */
  54:SynaptiX_FDK/components/modules/sps30/sensirion_uart_hal.c ****     sx_uart_write(s_port, data, (int)data_len);
 110              		.loc 1 54 5 is_stmt 1 view .LVU16
 111 000a 2246     		mov	r2, r4
 112 000c FFF7FEFF 		bl	sx_uart_write
 113              	.LVL4:
  55:SynaptiX_FDK/components/modules/sps30/sensirion_uart_hal.c ****     return (int16_t)data_len;
 114              		.loc 1 55 5 view .LVU17
 115              		.loc 1 55 12 is_stmt 0 view .LVU18
 116 0010 20B2     		sxth	r0, r4
 117              	.L8:
  56:SynaptiX_FDK/components/modules/sps30/sensirion_uart_hal.c **** }
 118              		.loc 1 56 1 view .LVU19
 119 0012 10BD     		pop	{r4, pc}
 120              	.LVL5:
ARM GAS  C:\Users\DELL\AppData\Local\Temp\cciZUf5O.s 			page 4


 121              	.L9:
  49:SynaptiX_FDK/components/modules/sps30/sensirion_uart_hal.c ****         return -1;
 122              		.loc 1 49 16 view .LVU20
 123 0014 4FF0FF30 		mov	r0, #-1
 124 0018 FBE7     		b	.L8
 125              	.L12:
 126 001a 00BF     		.align	2
 127              	.L11:
 128 001c 00000000 		.word	s_port
 129              		.cfi_endproc
 130              	.LFE5:
 132              		.section	.text.sensirion_uart_hal_rx,"ax",%progbits
 133              		.align	1
 134              		.global	sensirion_uart_hal_rx
 135              		.syntax unified
 136              		.thumb
 137              		.thumb_func
 139              	sensirion_uart_hal_rx:
 140              	.LVL6:
 141              	.LFB6:
  57:SynaptiX_FDK/components/modules/sps30/sensirion_uart_hal.c **** 
  58:SynaptiX_FDK/components/modules/sps30/sensirion_uart_hal.c **** int16_t sensirion_uart_hal_rx(uint16_t max_data_len, uint8_t *data) {
 142              		.loc 1 58 69 is_stmt 1 view -0
 143              		.cfi_startproc
 144              		@ args = 0, pretend = 0, frame = 0
 145              		@ frame_needed = 0, uses_anonymous_args = 0
 146              		.loc 1 58 69 is_stmt 0 view .LVU22
 147 0000 08B5     		push	{r3, lr}
 148              	.LCFI1:
 149              		.cfi_def_cfa_offset 8
 150              		.cfi_offset 3, -8
 151              		.cfi_offset 14, -4
 152 0002 0246     		mov	r2, r0
  59:SynaptiX_FDK/components/modules/sps30/sensirion_uart_hal.c ****     if (s_port == NULL) {
 153              		.loc 1 59 5 is_stmt 1 view .LVU23
 154              		.loc 1 59 16 is_stmt 0 view .LVU24
 155 0004 054B     		ldr	r3, .L17
 156 0006 1868     		ldr	r0, [r3]
 157              	.LVL7:
 158              		.loc 1 59 8 view .LVU25
 159 0008 20B1     		cbz	r0, .L15
  60:SynaptiX_FDK/components/modules/sps30/sensirion_uart_hal.c ****         return -1;
  61:SynaptiX_FDK/components/modules/sps30/sensirion_uart_hal.c ****     }
  62:SynaptiX_FDK/components/modules/sps30/sensirion_uart_hal.c ****     /* Single non-blocking attempt: read whatever is already queued (may
  63:SynaptiX_FDK/components/modules/sps30/sensirion_uart_hal.c ****      * be 0 bytes), with a 0ms timeout so sx_uart_read() cannot itself
  64:SynaptiX_FDK/components/modules/sps30/sensirion_uart_hal.c ****      * wait. The caller (sensirion_streaming_shdlc.c) is responsible for
  65:SynaptiX_FDK/components/modules/sps30/sensirion_uart_hal.c ****      * calling this repeatedly with its own retry/backoff loop. */
  66:SynaptiX_FDK/components/modules/sps30/sensirion_uart_hal.c ****     int received = sx_uart_read(s_port, data, (int)max_data_len, 0);
 160              		.loc 1 66 5 is_stmt 1 view .LVU26
 161              		.loc 1 66 20 is_stmt 0 view .LVU27
 162 000a 0023     		movs	r3, #0
 163 000c FFF7FEFF 		bl	sx_uart_read
 164              	.LVL8:
  67:SynaptiX_FDK/components/modules/sps30/sensirion_uart_hal.c ****     return (int16_t)received;
 165              		.loc 1 67 5 is_stmt 1 view .LVU28
 166              		.loc 1 67 12 is_stmt 0 view .LVU29
 167 0010 00B2     		sxth	r0, r0
ARM GAS  C:\Users\DELL\AppData\Local\Temp\cciZUf5O.s 			page 5


 168              	.LVL9:
 169              	.L14:
  68:SynaptiX_FDK/components/modules/sps30/sensirion_uart_hal.c **** }
 170              		.loc 1 68 1 view .LVU30
 171 0012 08BD     		pop	{r3, pc}
 172              	.LVL10:
 173              	.L15:
  60:SynaptiX_FDK/components/modules/sps30/sensirion_uart_hal.c ****         return -1;
 174              		.loc 1 60 16 view .LVU31
 175 0014 4FF0FF30 		mov	r0, #-1
 176 0018 FBE7     		b	.L14
 177              	.L18:
 178 001a 00BF     		.align	2
 179              	.L17:
 180 001c 00000000 		.word	s_port
 181              		.cfi_endproc
 182              	.LFE6:
 184              		.section	.text.sensirion_uart_hal_sleep_usec,"ax",%progbits
 185              		.align	1
 186              		.global	sensirion_uart_hal_sleep_usec
 187              		.syntax unified
 188              		.thumb
 189              		.thumb_func
 191              	sensirion_uart_hal_sleep_usec:
 192              	.LVL11:
 193              	.LFB7:
  69:SynaptiX_FDK/components/modules/sps30/sensirion_uart_hal.c **** 
  70:SynaptiX_FDK/components/modules/sps30/sensirion_uart_hal.c **** void sensirion_uart_hal_sleep_usec(uint32_t useconds) {
 194              		.loc 1 70 55 is_stmt 1 view -0
 195              		.cfi_startproc
 196              		@ args = 0, pretend = 0, frame = 0
 197              		@ frame_needed = 0, uses_anonymous_args = 0
 198              		.loc 1 70 55 is_stmt 0 view .LVU33
 199 0000 08B5     		push	{r3, lr}
 200              	.LCFI2:
 201              		.cfi_def_cfa_offset 8
 202              		.cfi_offset 3, -8
 203              		.cfi_offset 14, -4
  71:SynaptiX_FDK/components/modules/sps30/sensirion_uart_hal.c ****     /* This project only exposes millisecond-granularity delay. The
  72:SynaptiX_FDK/components/modules/sps30/sensirion_uart_hal.c ****      * Sensirion HAL contract explicitly allows this (see
  73:SynaptiX_FDK/components/modules/sps30/sensirion_uart_hal.c ****      * sensirion_uart_hal.h: "a <10 millisecond precision is sufficient"),
  74:SynaptiX_FDK/components/modules/sps30/sensirion_uart_hal.c ****      * so rounding up to the nearest millisecond is within spec. Round up
  75:SynaptiX_FDK/components/modules/sps30/sensirion_uart_hal.c ****      * rather than down so a caller requesting e.g. 100us still gets a
  76:SynaptiX_FDK/components/modules/sps30/sensirion_uart_hal.c ****      * non-zero delay instead of being silently skipped. */
  77:SynaptiX_FDK/components/modules/sps30/sensirion_uart_hal.c ****     uint32_t ms = (useconds + 999U) / 1000U;
 204              		.loc 1 77 5 is_stmt 1 view .LVU34
 205              		.loc 1 77 29 is_stmt 0 view .LVU35
 206 0002 00F2E732 		addw	r2, r0, #999
 207              		.loc 1 77 14 view .LVU36
 208 0006 054B     		ldr	r3, .L23
 209 0008 A3FB0213 		umull	r1, r3, r3, r2
 210              	.LVL12:
  78:SynaptiX_FDK/components/modules/sps30/sensirion_uart_hal.c ****     if (ms > 0U) {
 211              		.loc 1 78 5 is_stmt 1 view .LVU37
 212              		.loc 1 78 8 is_stmt 0 view .LVU38
 213 000c B2F57A7F 		cmp	r2, #1000
 214 0010 00D2     		bcs	.L22
ARM GAS  C:\Users\DELL\AppData\Local\Temp\cciZUf5O.s 			page 6


 215              	.LVL13:
 216              	.L19:
  79:SynaptiX_FDK/components/modules/sps30/sensirion_uart_hal.c ****         sx_delay_ms(ms);
  80:SynaptiX_FDK/components/modules/sps30/sensirion_uart_hal.c ****     }
  81:SynaptiX_FDK/components/modules/sps30/sensirion_uart_hal.c **** }...
 217              		.loc 1 81 1 view .LVU39
 218 0012 08BD     		pop	{r3, pc}
 219              	.LVL14:
 220              	.L22:
 221              		.loc 1 81 1 view .LVU40
 222 0014 9809     		lsrs	r0, r3, #6
 223              	.LVL15:
  79:SynaptiX_FDK/components/modules/sps30/sensirion_uart_hal.c ****         sx_delay_ms(ms);
 224              		.loc 1 79 9 is_stmt 1 view .LVU41
 225 0016 FFF7FEFF 		bl	sx_delay_ms
 226              	.LVL16:
 227              		.loc 1 81 1 is_stmt 0 view .LVU42
 228 001a FAE7     		b	.L19
 229              	.L24:
 230              		.align	2
 231              	.L23:
 232 001c D34D6210 		.word	274877907
 233              		.cfi_endproc
 234              	.LFE7:
 236              		.section	.bss.s_port,"aw",%nobits
 237              		.align	2
 240              	s_port:
 241 0000 00000000 		.space	4
 242              		.text
 243              	.Letext0:
 244              		.file 2 "D:\\stm32cubeclt\\STM32CubeCLT_1.21.0\\GNU-tools-for-STM32\\bin\\../lib/gcc/arm-none-eabi
 245              		.file 3 "D:\\stm32cubeclt\\STM32CubeCLT_1.21.0\\GNU-tools-for-STM32\\bin\\../lib/gcc/arm-none-eabi
 246              		.file 4 "D:\\stm32cubeclt\\STM32CubeCLT_1.21.0\\GNU-tools-for-STM32\\bin\\../lib/gcc/arm-none-eabi
 247              		.file 5 "SynaptiX_FDK/utils/cqueue/cqueue.h"
 248              		.file 6 "SynaptiX_FDK/components/peripherals/uart/sx_uart.h"
 249              		.file 7 "SynaptiX_FDK/components/modules/sps30/sensirion_uart_portdescriptor.h"
 250              		.file 8 "SynaptiX_FDK/utils/delay/sx_delay.h"
ARM GAS  C:\Users\DELL\AppData\Local\Temp\cciZUf5O.s 			page 7

