ARM GAS  C:\Users\DELL\AppData\Local\Temp\cclPfjLB.s 			page 1


   1              		.cpu cortex-m33
   2              		.arch armv8-m.main
   3              		.fpu fpv5-sp-d16
   4              		.arch_extension dsp
   5              		.eabi_attribute 27, 1
   6              		.eabi_attribute 28, 1
   7              		.eabi_attribute 20, 1
   8              		.eabi_attribute 21, 1
   9              		.eabi_attribute 23, 3
  10              		.eabi_attribute 24, 1
  11              		.eabi_attribute 25, 1
  12              		.eabi_attribute 26, 1
  13              		.eabi_attribute 30, 1
  14              		.eabi_attribute 34, 1
  15              		.eabi_attribute 18, 4
  16              		.file	"sht3x.c"
  17              		.text
  18              	.Ltext0:
  19              		.cfi_sections	.debug_frame
  20              		.file 1 "SynaptiX_FDK/components/modules/sht3x/sht3x.c"
  21              		.section	.text.sx_i2c_write,"ax",%progbits
  22              		.align	1
  23              		.syntax unified
  24              		.thumb
  25              		.thumb_func
  27              	sx_i2c_write:
  28              	.LVL0:
  29              	.LFB1:
  30              		.file 2 "SynaptiX_FDK/components/peripherals/i2c/sx_i2c.h"
   1:SynaptiX_FDK/components/peripherals/i2c/sx_i2c.h **** #ifndef SX_I2C_H
   2:SynaptiX_FDK/components/peripherals/i2c/sx_i2c.h **** #define SX_I2C_H
   3:SynaptiX_FDK/components/peripherals/i2c/sx_i2c.h **** #ifdef __cplusplus
   4:SynaptiX_FDK/components/peripherals/i2c/sx_i2c.h **** extern "C" {
   5:SynaptiX_FDK/components/peripherals/i2c/sx_i2c.h **** #endif
   6:SynaptiX_FDK/components/peripherals/i2c/sx_i2c.h **** 
   7:SynaptiX_FDK/components/peripherals/i2c/sx_i2c.h **** #include <stdint.h>
   8:SynaptiX_FDK/components/peripherals/i2c/sx_i2c.h **** 
   9:SynaptiX_FDK/components/peripherals/i2c/sx_i2c.h **** typedef struct sx_i2c sx_i2c_t;
  10:SynaptiX_FDK/components/peripherals/i2c/sx_i2c.h **** 
  11:SynaptiX_FDK/components/peripherals/i2c/sx_i2c.h **** typedef struct sx_i2c_ops{
  12:SynaptiX_FDK/components/peripherals/i2c/sx_i2c.h ****     int (*write)(sx_i2c_t *i2c, uint16_t dev_addr, const uint8_t *data, uint32_t len);
  13:SynaptiX_FDK/components/peripherals/i2c/sx_i2c.h ****     int (*read)(sx_i2c_t *i2c, uint16_t dev_addr, uint8_t *data, uint32_t len);
  14:SynaptiX_FDK/components/peripherals/i2c/sx_i2c.h ****     int (*mem_write)(sx_i2c_t *i2c, uint16_t dev_addr, uint16_t mem_addr, uint16_t mem_addr_size, c
  15:SynaptiX_FDK/components/peripherals/i2c/sx_i2c.h ****     int (*mem_read)(sx_i2c_t *i2c, uint16_t dev_addr, uint16_t mem_addr, uint16_t mem_addr_size, ui
  16:SynaptiX_FDK/components/peripherals/i2c/sx_i2c.h ****     int (*is_device_ready)(sx_i2c_t *i2c, uint16_t dev_addr, uint8_t num_trial, uint32_t timeout);
  17:SynaptiX_FDK/components/peripherals/i2c/sx_i2c.h **** } sx_i2c_ops_t;
  18:SynaptiX_FDK/components/peripherals/i2c/sx_i2c.h **** 
  19:SynaptiX_FDK/components/peripherals/i2c/sx_i2c.h **** struct sx_i2c{
  20:SynaptiX_FDK/components/peripherals/i2c/sx_i2c.h ****     sx_i2c_ops_t *ops;
  21:SynaptiX_FDK/components/peripherals/i2c/sx_i2c.h ****     void *pDriver;
  22:SynaptiX_FDK/components/peripherals/i2c/sx_i2c.h **** };
  23:SynaptiX_FDK/components/peripherals/i2c/sx_i2c.h **** 
  24:SynaptiX_FDK/components/peripherals/i2c/sx_i2c.h **** static inline void sx_i2c_init(sx_i2c_t *i2c, sx_i2c_ops_t *ops, void *pDriver){
  25:SynaptiX_FDK/components/peripherals/i2c/sx_i2c.h ****     i2c->ops = ops;
  26:SynaptiX_FDK/components/peripherals/i2c/sx_i2c.h ****     i2c->pDriver = pDriver;
  27:SynaptiX_FDK/components/peripherals/i2c/sx_i2c.h **** }
  28:SynaptiX_FDK/components/peripherals/i2c/sx_i2c.h **** 
ARM GAS  C:\Users\DELL\AppData\Local\Temp\cclPfjLB.s 			page 2


  29:SynaptiX_FDK/components/peripherals/i2c/sx_i2c.h **** static inline int sx_i2c_write(sx_i2c_t *i2c, uint16_t dev_addr, const uint8_t *data, uint32_t len)
  31              		.loc 2 29 100 view -0
  32              		.cfi_startproc
  33              		@ args = 0, pretend = 0, frame = 0
  34              		@ frame_needed = 0, uses_anonymous_args = 0
  35              		.loc 2 29 100 is_stmt 0 view .LVU1
  36 0000 10B5     		push	{r4, lr}
  37              	.LCFI0:
  38              		.cfi_def_cfa_offset 8
  39              		.cfi_offset 4, -8
  40              		.cfi_offset 14, -4
  30:SynaptiX_FDK/components/peripherals/i2c/sx_i2c.h ****     if(i2c->ops && i2c->ops->write)
  41              		.loc 2 30 5 is_stmt 1 view .LVU2
  42              		.loc 2 30 11 is_stmt 0 view .LVU3
  43 0002 0468     		ldr	r4, [r0]
  44              		.loc 2 30 7 view .LVU4
  45 0004 1CB1     		cbz	r4, .L3
  46              		.loc 2 30 28 discriminator 1 view .LVU5
  47 0006 2468     		ldr	r4, [r4]
  48              		.loc 2 30 17 discriminator 1 view .LVU6
  49 0008 24B1     		cbz	r4, .L4
  31:SynaptiX_FDK/components/peripherals/i2c/sx_i2c.h ****         return i2c->ops->write(i2c, dev_addr, data, len);
  50              		.loc 2 31 9 is_stmt 1 view .LVU7
  51              		.loc 2 31 16 is_stmt 0 view .LVU8
  52 000a A047     		blx	r4
  53              	.LVL1:
  54              	.L1:
  32:SynaptiX_FDK/components/peripherals/i2c/sx_i2c.h ****     return -1;
  33:SynaptiX_FDK/components/peripherals/i2c/sx_i2c.h **** }
  55              		.loc 2 33 1 view .LVU9
  56 000c 10BD     		pop	{r4, pc}
  57              	.LVL2:
  58              	.L3:
  32:SynaptiX_FDK/components/peripherals/i2c/sx_i2c.h ****     return -1;
  59              		.loc 2 32 12 view .LVU10
  60 000e 4FF0FF30 		mov	r0, #-1
  61              	.LVL3:
  32:SynaptiX_FDK/components/peripherals/i2c/sx_i2c.h ****     return -1;
  62              		.loc 2 32 12 view .LVU11
  63 0012 FBE7     		b	.L1
  64              	.LVL4:
  65              	.L4:
  32:SynaptiX_FDK/components/peripherals/i2c/sx_i2c.h ****     return -1;
  66              		.loc 2 32 12 view .LVU12
  67 0014 4FF0FF30 		mov	r0, #-1
  68              	.LVL5:
  32:SynaptiX_FDK/components/peripherals/i2c/sx_i2c.h ****     return -1;
  69              		.loc 2 32 12 view .LVU13
  70 0018 F8E7     		b	.L1
  71              		.cfi_endproc
  72              	.LFE1:
  74              		.section	.text.sx_i2c_read,"ax",%progbits
  75              		.align	1
  76              		.syntax unified
  77              		.thumb
  78              		.thumb_func
  80              	sx_i2c_read:
ARM GAS  C:\Users\DELL\AppData\Local\Temp\cclPfjLB.s 			page 3


  81              	.LVL6:
  82              	.LFB2:
  34:SynaptiX_FDK/components/peripherals/i2c/sx_i2c.h **** 
  35:SynaptiX_FDK/components/peripherals/i2c/sx_i2c.h **** static inline int sx_i2c_read(sx_i2c_t *i2c, uint16_t dev_addr, uint8_t *data, uint32_t len){
  83              		.loc 2 35 93 is_stmt 1 view -0
  84              		.cfi_startproc
  85              		@ args = 0, pretend = 0, frame = 0
  86              		@ frame_needed = 0, uses_anonymous_args = 0
  87              		.loc 2 35 93 is_stmt 0 view .LVU15
  88 0000 10B5     		push	{r4, lr}
  89              	.LCFI1:
  90              		.cfi_def_cfa_offset 8
  91              		.cfi_offset 4, -8
  92              		.cfi_offset 14, -4
  36:SynaptiX_FDK/components/peripherals/i2c/sx_i2c.h ****     if(i2c->ops && i2c->ops->read)
  93              		.loc 2 36 5 is_stmt 1 view .LVU16
  94              		.loc 2 36 11 is_stmt 0 view .LVU17
  95 0002 0468     		ldr	r4, [r0]
  96              		.loc 2 36 7 view .LVU18
  97 0004 1CB1     		cbz	r4, .L8
  98              		.loc 2 36 28 discriminator 1 view .LVU19
  99 0006 6468     		ldr	r4, [r4, #4]
 100              		.loc 2 36 17 discriminator 1 view .LVU20
 101 0008 24B1     		cbz	r4, .L9
  37:SynaptiX_FDK/components/peripherals/i2c/sx_i2c.h ****         return i2c->ops->read(i2c, dev_addr, data, len);
 102              		.loc 2 37 9 is_stmt 1 view .LVU21
 103              		.loc 2 37 16 is_stmt 0 view .LVU22
 104 000a A047     		blx	r4
 105              	.LVL7:
 106              	.L6:
  38:SynaptiX_FDK/components/peripherals/i2c/sx_i2c.h ****     return -1;
  39:SynaptiX_FDK/components/peripherals/i2c/sx_i2c.h **** }
 107              		.loc 2 39 1 view .LVU23
 108 000c 10BD     		pop	{r4, pc}
 109              	.LVL8:
 110              	.L8:
  38:SynaptiX_FDK/components/peripherals/i2c/sx_i2c.h ****     return -1;
 111              		.loc 2 38 12 view .LVU24
 112 000e 4FF0FF30 		mov	r0, #-1
 113              	.LVL9:
  38:SynaptiX_FDK/components/peripherals/i2c/sx_i2c.h ****     return -1;
 114              		.loc 2 38 12 view .LVU25
 115 0012 FBE7     		b	.L6
 116              	.LVL10:
 117              	.L9:
  38:SynaptiX_FDK/components/peripherals/i2c/sx_i2c.h ****     return -1;
 118              		.loc 2 38 12 view .LVU26
 119 0014 4FF0FF30 		mov	r0, #-1
 120              	.LVL11:
  38:SynaptiX_FDK/components/peripherals/i2c/sx_i2c.h ****     return -1;
 121              		.loc 2 38 12 view .LVU27
 122 0018 F8E7     		b	.L6
 123              		.cfi_endproc
 124              	.LFE2:
 126              		.section	.text.calculate_crc,"ax",%progbits
 127              		.align	1
 128              		.syntax unified
ARM GAS  C:\Users\DELL\AppData\Local\Temp\cclPfjLB.s 			page 4


 129              		.thumb
 130              		.thumb_func
 132              	calculate_crc:
 133              	.LVL12:
 134              	.LFB335:
   1:SynaptiX_FDK/components/modules/sht3x/sht3x.c **** #include "sht3x.h"
   2:SynaptiX_FDK/components/modules/sht3x/sht3x.c **** #include "sx_board.h"
   3:SynaptiX_FDK/components/modules/sht3x/sht3x.c **** #include <string.h>
   4:SynaptiX_FDK/components/modules/sht3x/sht3x.c **** #include "sx_delay.h"
   5:SynaptiX_FDK/components/modules/sht3x/sht3x.c **** 
   6:SynaptiX_FDK/components/modules/sht3x/sht3x.c **** static uint8_t calculate_crc(const uint8_t *data, uint8_t length)
   7:SynaptiX_FDK/components/modules/sht3x/sht3x.c **** {
 135              		.loc 1 7 1 is_stmt 1 view -0
 136              		.cfi_startproc
 137              		@ args = 0, pretend = 0, frame = 0
 138              		@ frame_needed = 0, uses_anonymous_args = 0
 139              		.loc 1 7 1 is_stmt 0 view .LVU29
 140 0000 00B5     		push	{lr}
 141              	.LCFI2:
 142              		.cfi_def_cfa_offset 4
 143              		.cfi_offset 14, -4
 144 0002 8646     		mov	lr, r0
   8:SynaptiX_FDK/components/modules/sht3x/sht3x.c ****     uint8_t crc = 0xFF;
 145              		.loc 1 8 5 is_stmt 1 view .LVU30
 146              	.LVL13:
   9:SynaptiX_FDK/components/modules/sht3x/sht3x.c ****     for (uint8_t i = 0; i < length; i++) {
 147              		.loc 1 9 5 view .LVU31
 148              	.LBB2:
 149              		.loc 1 9 10 view .LVU32
 150              		.loc 1 9 18 is_stmt 0 view .LVU33
 151 0004 4FF0000C 		mov	ip, #0
 152              	.LBE2:
   8:SynaptiX_FDK/components/modules/sht3x/sht3x.c ****     uint8_t crc = 0xFF;
 153              		.loc 1 8 13 view .LVU34
 154 0008 FF20     		movs	r0, #255
 155              	.LVL14:
 156              	.LBB5:
 157              		.loc 1 9 5 view .LVU35
 158 000a 11E0     		b	.L12
 159              	.LVL15:
 160              	.L20:
 161              	.LBB3:
  10:SynaptiX_FDK/components/modules/sht3x/sht3x.c ****         crc ^= data[i];
  11:SynaptiX_FDK/components/modules/sht3x/sht3x.c ****         for (uint8_t j = 0; j < 8; j++) {
  12:SynaptiX_FDK/components/modules/sht3x/sht3x.c ****             if (crc & 0x80) {
  13:SynaptiX_FDK/components/modules/sht3x/sht3x.c ****                 crc = (crc << 1) ^ 0x31;
 162              		.loc 1 13 17 is_stmt 1 view .LVU36
 163              		.loc 1 13 34 is_stmt 0 view .LVU37
 164 000c 5200     		lsls	r2, r2, #1
 165 000e 82F03102 		eor	r2, r2, #49
 166              		.loc 1 13 21 view .LVU38
 167 0012 D0B2     		uxtb	r0, r2
 168              	.LVL16:
 169              	.L15:
  11:SynaptiX_FDK/components/modules/sht3x/sht3x.c ****             if (crc & 0x80) {
 170              		.loc 1 11 37 is_stmt 1 discriminator 2 view .LVU39
 171 0014 0133     		adds	r3, r3, #1
ARM GAS  C:\Users\DELL\AppData\Local\Temp\cclPfjLB.s 			page 5


 172              	.LVL17:
  11:SynaptiX_FDK/components/modules/sht3x/sht3x.c ****             if (crc & 0x80) {
 173              		.loc 1 11 37 is_stmt 0 discriminator 2 view .LVU40
 174 0016 DBB2     		uxtb	r3, r3
 175              	.LVL18:
 176              	.L13:
  11:SynaptiX_FDK/components/modules/sht3x/sht3x.c ****             if (crc & 0x80) {
 177              		.loc 1 11 31 is_stmt 1 discriminator 1 view .LVU41
 178 0018 072B     		cmp	r3, #7
 179 001a 05D8     		bhi	.L19
  12:SynaptiX_FDK/components/modules/sht3x/sht3x.c ****                 crc = (crc << 1) ^ 0x31;
 180              		.loc 1 12 13 view .LVU42
  12:SynaptiX_FDK/components/modules/sht3x/sht3x.c ****                 crc = (crc << 1) ^ 0x31;
 181              		.loc 1 12 17 is_stmt 0 view .LVU43
 182 001c 42B2     		sxtb	r2, r0
  12:SynaptiX_FDK/components/modules/sht3x/sht3x.c ****                 crc = (crc << 1) ^ 0x31;
 183              		.loc 1 12 16 view .LVU44
 184 001e 002A     		cmp	r2, #0
 185 0020 F4DB     		blt	.L20
  14:SynaptiX_FDK/components/modules/sht3x/sht3x.c ****             } else {
  15:SynaptiX_FDK/components/modules/sht3x/sht3x.c ****                 crc <<= 1;
 186              		.loc 1 15 17 is_stmt 1 view .LVU45
 187              		.loc 1 15 21 is_stmt 0 view .LVU46
 188 0022 4000     		lsls	r0, r0, #1
 189              	.LVL19:
 190              		.loc 1 15 21 view .LVU47
 191 0024 C0B2     		uxtb	r0, r0
 192 0026 F5E7     		b	.L15
 193              	.LVL20:
 194              	.L19:
 195              		.loc 1 15 21 view .LVU48
 196              	.LBE3:
   9:SynaptiX_FDK/components/modules/sht3x/sht3x.c ****         crc ^= data[i];
 197              		.loc 1 9 38 is_stmt 1 discriminator 2 view .LVU49
 198 0028 0CF1010C 		add	ip, ip, #1
 199              	.LVL21:
   9:SynaptiX_FDK/components/modules/sht3x/sht3x.c ****         crc ^= data[i];
 200              		.loc 1 9 38 is_stmt 0 discriminator 2 view .LVU50
 201 002c 5FFA8CFC 		uxtb	ip, ip
 202              	.LVL22:
 203              	.L12:
   9:SynaptiX_FDK/components/modules/sht3x/sht3x.c ****         crc ^= data[i];
 204              		.loc 1 9 27 is_stmt 1 discriminator 1 view .LVU51
 205 0030 8C45     		cmp	ip, r1
 206 0032 04D2     		bcs	.L21
  10:SynaptiX_FDK/components/modules/sht3x/sht3x.c ****         for (uint8_t j = 0; j < 8; j++) {
 207              		.loc 1 10 9 view .LVU52
  10:SynaptiX_FDK/components/modules/sht3x/sht3x.c ****         for (uint8_t j = 0; j < 8; j++) {
 208              		.loc 1 10 20 is_stmt 0 view .LVU53
 209 0034 1EF80C30 		ldrb	r3, [lr, ip]	@ zero_extendqisi2
  10:SynaptiX_FDK/components/modules/sht3x/sht3x.c ****         for (uint8_t j = 0; j < 8; j++) {
 210              		.loc 1 10 13 view .LVU54
 211 0038 5840     		eors	r0, r0, r3
 212              	.LVL23:
  11:SynaptiX_FDK/components/modules/sht3x/sht3x.c ****             if (crc & 0x80) {
 213              		.loc 1 11 9 is_stmt 1 view .LVU55
 214              	.LBB4:
ARM GAS  C:\Users\DELL\AppData\Local\Temp\cclPfjLB.s 			page 6


  11:SynaptiX_FDK/components/modules/sht3x/sht3x.c ****             if (crc & 0x80) {
 215              		.loc 1 11 14 view .LVU56
  11:SynaptiX_FDK/components/modules/sht3x/sht3x.c ****             if (crc & 0x80) {
 216              		.loc 1 11 22 is_stmt 0 view .LVU57
 217 003a 0023     		movs	r3, #0
  11:SynaptiX_FDK/components/modules/sht3x/sht3x.c ****             if (crc & 0x80) {
 218              		.loc 1 11 9 view .LVU58
 219 003c ECE7     		b	.L13
 220              	.LVL24:
 221              	.L21:
  11:SynaptiX_FDK/components/modules/sht3x/sht3x.c ****             if (crc & 0x80) {
 222              		.loc 1 11 9 view .LVU59
 223              	.LBE4:
 224              	.LBE5:
  16:SynaptiX_FDK/components/modules/sht3x/sht3x.c ****             }
  17:SynaptiX_FDK/components/modules/sht3x/sht3x.c ****         }
  18:SynaptiX_FDK/components/modules/sht3x/sht3x.c ****     }
  19:SynaptiX_FDK/components/modules/sht3x/sht3x.c ****     return crc;
 225              		.loc 1 19 5 is_stmt 1 view .LVU60
  20:SynaptiX_FDK/components/modules/sht3x/sht3x.c **** }
 226              		.loc 1 20 1 is_stmt 0 view .LVU61
 227 003e 00BD     		pop	{pc}
 228              		.cfi_endproc
 229              	.LFE335:
 231              		.section	.text.sht3x_send_cmd,"ax",%progbits
 232              		.align	1
 233              		.syntax unified
 234              		.thumb
 235              		.thumb_func
 237              	sht3x_send_cmd:
 238              	.LVL25:
 239              	.LFB336:
  21:SynaptiX_FDK/components/modules/sht3x/sht3x.c **** 
  22:SynaptiX_FDK/components/modules/sht3x/sht3x.c **** /* Send 2 bytes command */
  23:SynaptiX_FDK/components/modules/sht3x/sht3x.c **** static SHT3X_STATUS_T sht3x_send_cmd(SHT3X_T *sht3x, SHT3X_COMMAND_T cmd)
  24:SynaptiX_FDK/components/modules/sht3x/sht3x.c **** {
 240              		.loc 1 24 1 is_stmt 1 view -0
 241              		.cfi_startproc
 242              		@ args = 0, pretend = 0, frame = 8
 243              		@ frame_needed = 0, uses_anonymous_args = 0
 244              		.loc 1 24 1 is_stmt 0 view .LVU63
 245 0000 00B5     		push	{lr}
 246              	.LCFI3:
 247              		.cfi_def_cfa_offset 4
 248              		.cfi_offset 14, -4
 249 0002 83B0     		sub	sp, sp, #12
 250              	.LCFI4:
 251              		.cfi_def_cfa_offset 16
  25:SynaptiX_FDK/components/modules/sht3x/sht3x.c ****     uint8_t buf[2] = {(cmd >> 8) & 0xFF, cmd & 0xFF};
 252              		.loc 1 25 5 is_stmt 1 view .LVU64
 253              		.loc 1 25 13 is_stmt 0 view .LVU65
 254 0004 0B0A     		lsrs	r3, r1, #8
 255 0006 8DF80430 		strb	r3, [sp, #4]
 256 000a 8DF80510 		strb	r1, [sp, #5]
  26:SynaptiX_FDK/components/modules/sht3x/sht3x.c ****     return sx_i2c_write(sht3x->i2c, SHT3X_DEVICE_ADDR, buf, 2) == 0 ? SHT3X_OK : SHT3X_ERR;
 257              		.loc 1 26 5 is_stmt 1 view .LVU66
 258              		.loc 1 26 12 is_stmt 0 view .LVU67
ARM GAS  C:\Users\DELL\AppData\Local\Temp\cclPfjLB.s 			page 7


 259 000e 0223     		movs	r3, #2
 260 0010 01AA     		add	r2, sp, #4
 261 0012 8821     		movs	r1, #136
 262              	.LVL26:
 263              		.loc 1 26 12 view .LVU68
 264 0014 0068     		ldr	r0, [r0]
 265              	.LVL27:
 266              		.loc 1 26 12 view .LVU69
 267 0016 FFF7FEFF 		bl	sx_i2c_write
 268              	.LVL28:
  27:SynaptiX_FDK/components/modules/sht3x/sht3x.c **** }
 269              		.loc 1 27 1 view .LVU70
 270 001a 0038     		subs	r0, r0, #0
 271 001c 18BF     		it	ne
 272 001e 0120     		movne	r0, #1
 273 0020 03B0     		add	sp, sp, #12
 274              	.LCFI5:
 275              		.cfi_def_cfa_offset 4
 276              		@ sp needed
 277 0022 00BD     		pop	{pc}
 278              		.cfi_endproc
 279              	.LFE336:
 281              		.section	.text.sht3x_soft_reset,"ax",%progbits
 282              		.align	1
 283              		.global	sht3x_soft_reset
 284              		.syntax unified
 285              		.thumb
 286              		.thumb_func
 288              	sht3x_soft_reset:
 289              	.LVL29:
 290              	.LFB338:
  28:SynaptiX_FDK/components/modules/sht3x/sht3x.c **** 
  29:SynaptiX_FDK/components/modules/sht3x/sht3x.c **** SHT3X_STATUS_T sht3x_init(SHT3X_T *sht3x, sx_i2c_t *i2c)
  30:SynaptiX_FDK/components/modules/sht3x/sht3x.c **** {
  31:SynaptiX_FDK/components/modules/sht3x/sht3x.c ****     if (sht3x == NULL || i2c == NULL) return SHT3X_ERR;
  32:SynaptiX_FDK/components/modules/sht3x/sht3x.c **** 
  33:SynaptiX_FDK/components/modules/sht3x/sht3x.c ****     sht3x->i2c = i2c;
  34:SynaptiX_FDK/components/modules/sht3x/sht3x.c ****     sht3x->humidity = 0.0f;
  35:SynaptiX_FDK/components/modules/sht3x/sht3x.c ****     sht3x->temperature = 0.0f;
  36:SynaptiX_FDK/components/modules/sht3x/sht3x.c **** 
  37:SynaptiX_FDK/components/modules/sht3x/sht3x.c ****     // Soft reset
  38:SynaptiX_FDK/components/modules/sht3x/sht3x.c ****     if (sht3x_soft_reset(sht3x) != SHT3X_OK) {
  39:SynaptiX_FDK/components/modules/sht3x/sht3x.c ****         return SHT3X_ERR;
  40:SynaptiX_FDK/components/modules/sht3x/sht3x.c ****     }
  41:SynaptiX_FDK/components/modules/sht3x/sht3x.c **** 
  42:SynaptiX_FDK/components/modules/sht3x/sht3x.c ****     sx_delay_ms(20);  
  43:SynaptiX_FDK/components/modules/sht3x/sht3x.c **** 
  44:SynaptiX_FDK/components/modules/sht3x/sht3x.c ****     return SHT3X_OK;
  45:SynaptiX_FDK/components/modules/sht3x/sht3x.c **** }
  46:SynaptiX_FDK/components/modules/sht3x/sht3x.c **** 
  47:SynaptiX_FDK/components/modules/sht3x/sht3x.c **** SHT3X_STATUS_T sht3x_soft_reset(SHT3X_T *sht3x)
  48:SynaptiX_FDK/components/modules/sht3x/sht3x.c **** {
 291              		.loc 1 48 1 is_stmt 1 view -0
 292              		.cfi_startproc
 293              		@ args = 0, pretend = 0, frame = 0
 294              		@ frame_needed = 0, uses_anonymous_args = 0
 295              		.loc 1 48 1 is_stmt 0 view .LVU72
ARM GAS  C:\Users\DELL\AppData\Local\Temp\cclPfjLB.s 			page 8


 296 0000 08B5     		push	{r3, lr}
 297              	.LCFI6:
 298              		.cfi_def_cfa_offset 8
 299              		.cfi_offset 3, -8
 300              		.cfi_offset 14, -4
  49:SynaptiX_FDK/components/modules/sht3x/sht3x.c ****     return sht3x_send_cmd(sht3x, SHT3X_CMD_SOFT_RESET);
 301              		.loc 1 49 5 is_stmt 1 view .LVU73
 302              		.loc 1 49 12 is_stmt 0 view .LVU74
 303 0002 43F2A201 		movw	r1, #12450
 304 0006 FFF7FEFF 		bl	sht3x_send_cmd
 305              	.LVL30:
  50:SynaptiX_FDK/components/modules/sht3x/sht3x.c **** }
 306              		.loc 1 50 1 view .LVU75
 307 000a 08BD     		pop	{r3, pc}
 308              		.cfi_endproc
 309              	.LFE338:
 311              		.section	.text.sht3x_init,"ax",%progbits
 312              		.align	1
 313              		.global	sht3x_init
 314              		.syntax unified
 315              		.thumb
 316              		.thumb_func
 318              	sht3x_init:
 319              	.LVL31:
 320              	.LFB337:
  30:SynaptiX_FDK/components/modules/sht3x/sht3x.c ****     if (sht3x == NULL || i2c == NULL) return SHT3X_ERR;
 321              		.loc 1 30 1 is_stmt 1 view -0
 322              		.cfi_startproc
 323              		@ args = 0, pretend = 0, frame = 0
 324              		@ frame_needed = 0, uses_anonymous_args = 0
  30:SynaptiX_FDK/components/modules/sht3x/sht3x.c ****     if (sht3x == NULL || i2c == NULL) return SHT3X_ERR;
 325              		.loc 1 30 1 is_stmt 0 view .LVU77
 326 0000 10B5     		push	{r4, lr}
 327              	.LCFI7:
 328              		.cfi_def_cfa_offset 8
 329              		.cfi_offset 4, -8
 330              		.cfi_offset 14, -4
  31:SynaptiX_FDK/components/modules/sht3x/sht3x.c **** 
 331              		.loc 1 31 5 is_stmt 1 view .LVU78
  31:SynaptiX_FDK/components/modules/sht3x/sht3x.c **** 
 332              		.loc 1 31 8 is_stmt 0 view .LVU79
 333 0002 78B1     		cbz	r0, .L28
  31:SynaptiX_FDK/components/modules/sht3x/sht3x.c **** 
 334              		.loc 1 31 23 discriminator 2 view .LVU80
 335 0004 81B1     		cbz	r1, .L29
  33:SynaptiX_FDK/components/modules/sht3x/sht3x.c ****     sht3x->humidity = 0.0f;
 336              		.loc 1 33 5 is_stmt 1 view .LVU81
  33:SynaptiX_FDK/components/modules/sht3x/sht3x.c ****     sht3x->humidity = 0.0f;
 337              		.loc 1 33 16 is_stmt 0 view .LVU82
 338 0006 0160     		str	r1, [r0]
  34:SynaptiX_FDK/components/modules/sht3x/sht3x.c ****     sht3x->temperature = 0.0f;
 339              		.loc 1 34 5 is_stmt 1 view .LVU83
  34:SynaptiX_FDK/components/modules/sht3x/sht3x.c ****     sht3x->temperature = 0.0f;
 340              		.loc 1 34 21 is_stmt 0 view .LVU84
 341 0008 0022     		movs	r2, #0
 342 000a 4260     		str	r2, [r0, #4]	@ float
  35:SynaptiX_FDK/components/modules/sht3x/sht3x.c **** 
ARM GAS  C:\Users\DELL\AppData\Local\Temp\cclPfjLB.s 			page 9


 343              		.loc 1 35 5 is_stmt 1 view .LVU85
  35:SynaptiX_FDK/components/modules/sht3x/sht3x.c **** 
 344              		.loc 1 35 24 is_stmt 0 view .LVU86
 345 000c 8260     		str	r2, [r0, #8]	@ float
  38:SynaptiX_FDK/components/modules/sht3x/sht3x.c ****         return SHT3X_ERR;
 346              		.loc 1 38 5 is_stmt 1 view .LVU87
  38:SynaptiX_FDK/components/modules/sht3x/sht3x.c ****         return SHT3X_ERR;
 347              		.loc 1 38 9 is_stmt 0 view .LVU88
 348 000e FFF7FEFF 		bl	sht3x_soft_reset
 349              	.LVL32:
  38:SynaptiX_FDK/components/modules/sht3x/sht3x.c ****         return SHT3X_ERR;
 350              		.loc 1 38 8 discriminator 1 view .LVU89
 351 0012 0446     		mov	r4, r0
 352 0014 10B1     		cbz	r0, .L32
  39:SynaptiX_FDK/components/modules/sht3x/sht3x.c ****     }
 353              		.loc 1 39 16 view .LVU90
 354 0016 0124     		movs	r4, #1
 355              	.L27:
  45:SynaptiX_FDK/components/modules/sht3x/sht3x.c **** 
 356              		.loc 1 45 1 view .LVU91
 357 0018 2046     		mov	r0, r4
 358 001a 10BD     		pop	{r4, pc}
 359              	.L32:
  42:SynaptiX_FDK/components/modules/sht3x/sht3x.c **** 
 360              		.loc 1 42 5 is_stmt 1 view .LVU92
 361 001c 1420     		movs	r0, #20
 362 001e FFF7FEFF 		bl	sx_delay_ms
 363              	.LVL33:
  44:SynaptiX_FDK/components/modules/sht3x/sht3x.c **** }
 364              		.loc 1 44 5 view .LVU93
  44:SynaptiX_FDK/components/modules/sht3x/sht3x.c **** }
 365              		.loc 1 44 12 is_stmt 0 view .LVU94
 366 0022 F9E7     		b	.L27
 367              	.LVL34:
 368              	.L28:
  31:SynaptiX_FDK/components/modules/sht3x/sht3x.c **** 
 369              		.loc 1 31 46 discriminator 3 view .LVU95
 370 0024 0124     		movs	r4, #1
 371 0026 F7E7     		b	.L27
 372              	.L29:
 373 0028 0124     		movs	r4, #1
 374 002a F5E7     		b	.L27
 375              		.cfi_endproc
 376              	.LFE337:
 378              		.section	.text.sht3x_read_status,"ax",%progbits
 379              		.align	1
 380              		.global	sht3x_read_status
 381              		.syntax unified
 382              		.thumb
 383              		.thumb_func
 385              	sht3x_read_status:
 386              	.LVL35:
 387              	.LFB339:
  51:SynaptiX_FDK/components/modules/sht3x/sht3x.c **** 
  52:SynaptiX_FDK/components/modules/sht3x/sht3x.c **** SHT3X_STATUS_T sht3x_read_status(SHT3X_T *sht3x, uint16_t *status)
  53:SynaptiX_FDK/components/modules/sht3x/sht3x.c **** {
 388              		.loc 1 53 1 is_stmt 1 view -0
ARM GAS  C:\Users\DELL\AppData\Local\Temp\cclPfjLB.s 			page 10


 389              		.cfi_startproc
 390              		@ args = 0, pretend = 0, frame = 8
 391              		@ frame_needed = 0, uses_anonymous_args = 0
 392              		.loc 1 53 1 is_stmt 0 view .LVU97
 393 0000 70B5     		push	{r4, r5, r6, lr}
 394              	.LCFI8:
 395              		.cfi_def_cfa_offset 16
 396              		.cfi_offset 4, -16
 397              		.cfi_offset 5, -12
 398              		.cfi_offset 6, -8
 399              		.cfi_offset 14, -4
 400 0002 82B0     		sub	sp, sp, #8
 401              	.LCFI9:
 402              		.cfi_def_cfa_offset 24
 403 0004 0446     		mov	r4, r0
 404 0006 0E46     		mov	r6, r1
  54:SynaptiX_FDK/components/modules/sht3x/sht3x.c ****     uint8_t buf[3];
 405              		.loc 1 54 5 is_stmt 1 view .LVU98
  55:SynaptiX_FDK/components/modules/sht3x/sht3x.c ****     if (sht3x_send_cmd(sht3x, SHT3X_CMD_READ_STATUS) != SHT3X_OK) {
 406              		.loc 1 55 5 view .LVU99
 407              		.loc 1 55 9 is_stmt 0 view .LVU100
 408 0008 4FF22D31 		movw	r1, #62253
 409              	.LVL36:
 410              		.loc 1 55 9 view .LVU101
 411 000c FFF7FEFF 		bl	sht3x_send_cmd
 412              	.LVL37:
 413              		.loc 1 55 8 discriminator 1 view .LVU102
 414 0010 18B1     		cbz	r0, .L39
  56:SynaptiX_FDK/components/modules/sht3x/sht3x.c ****         return SHT3X_ERR;
 415              		.loc 1 56 16 view .LVU103
 416 0012 0125     		movs	r5, #1
 417              	.LVL38:
 418              	.L34:
  57:SynaptiX_FDK/components/modules/sht3x/sht3x.c ****     }
  58:SynaptiX_FDK/components/modules/sht3x/sht3x.c **** 
  59:SynaptiX_FDK/components/modules/sht3x/sht3x.c ****     sx_delay_ms(1);
  60:SynaptiX_FDK/components/modules/sht3x/sht3x.c **** 
  61:SynaptiX_FDK/components/modules/sht3x/sht3x.c ****     if (sx_i2c_read(sht3x->i2c, SHT3X_DEVICE_ADDR, buf, 3) != 0) {
  62:SynaptiX_FDK/components/modules/sht3x/sht3x.c ****         return SHT3X_ERR;
  63:SynaptiX_FDK/components/modules/sht3x/sht3x.c ****     }
  64:SynaptiX_FDK/components/modules/sht3x/sht3x.c **** 
  65:SynaptiX_FDK/components/modules/sht3x/sht3x.c ****     if (buf[2] != calculate_crc(buf, 2)) {
  66:SynaptiX_FDK/components/modules/sht3x/sht3x.c ****         return SHT3X_ERR_CRC;
  67:SynaptiX_FDK/components/modules/sht3x/sht3x.c ****     }
  68:SynaptiX_FDK/components/modules/sht3x/sht3x.c **** 
  69:SynaptiX_FDK/components/modules/sht3x/sht3x.c ****     *status = (buf[0] << 8) | buf[1];
  70:SynaptiX_FDK/components/modules/sht3x/sht3x.c ****     return SHT3X_OK;
  71:SynaptiX_FDK/components/modules/sht3x/sht3x.c **** }
 419              		.loc 1 71 1 view .LVU104
 420 0014 2846     		mov	r0, r5
 421 0016 02B0     		add	sp, sp, #8
 422              	.LCFI10:
 423              		.cfi_remember_state
 424              		.cfi_def_cfa_offset 16
 425              		@ sp needed
 426 0018 70BD     		pop	{r4, r5, r6, pc}
 427              	.LVL39:
ARM GAS  C:\Users\DELL\AppData\Local\Temp\cclPfjLB.s 			page 11


 428              	.L39:
 429              	.LCFI11:
 430              		.cfi_restore_state
 431              		.loc 1 71 1 view .LVU105
 432 001a 0546     		mov	r5, r0
  59:SynaptiX_FDK/components/modules/sht3x/sht3x.c **** 
 433              		.loc 1 59 5 is_stmt 1 view .LVU106
 434 001c 0120     		movs	r0, #1
 435 001e FFF7FEFF 		bl	sx_delay_ms
 436              	.LVL40:
  61:SynaptiX_FDK/components/modules/sht3x/sht3x.c ****         return SHT3X_ERR;
 437              		.loc 1 61 5 view .LVU107
  61:SynaptiX_FDK/components/modules/sht3x/sht3x.c ****         return SHT3X_ERR;
 438              		.loc 1 61 9 is_stmt 0 view .LVU108
 439 0022 0323     		movs	r3, #3
 440 0024 01AA     		add	r2, sp, #4
 441 0026 8821     		movs	r1, #136
 442 0028 2068     		ldr	r0, [r4]
 443 002a FFF7FEFF 		bl	sx_i2c_read
 444              	.LVL41:
  61:SynaptiX_FDK/components/modules/sht3x/sht3x.c ****         return SHT3X_ERR;
 445              		.loc 1 61 8 discriminator 1 view .LVU109
 446 002e 78B9     		cbnz	r0, .L36
  65:SynaptiX_FDK/components/modules/sht3x/sht3x.c ****         return SHT3X_ERR_CRC;
 447              		.loc 1 65 5 is_stmt 1 view .LVU110
  65:SynaptiX_FDK/components/modules/sht3x/sht3x.c ****         return SHT3X_ERR_CRC;
 448              		.loc 1 65 12 is_stmt 0 view .LVU111
 449 0030 9DF80640 		ldrb	r4, [sp, #6]	@ zero_extendqisi2
 450              	.LVL42:
  65:SynaptiX_FDK/components/modules/sht3x/sht3x.c ****         return SHT3X_ERR_CRC;
 451              		.loc 1 65 19 view .LVU112
 452 0034 0221     		movs	r1, #2
 453 0036 01A8     		add	r0, sp, #4
 454 0038 FFF7FEFF 		bl	calculate_crc
 455              	.LVL43:
  65:SynaptiX_FDK/components/modules/sht3x/sht3x.c ****         return SHT3X_ERR_CRC;
 456              		.loc 1 65 8 discriminator 1 view .LVU113
 457 003c 8442     		cmp	r4, r0
 458 003e 09D1     		bne	.L37
  69:SynaptiX_FDK/components/modules/sht3x/sht3x.c ****     return SHT3X_OK;
 459              		.loc 1 69 5 is_stmt 1 view .LVU114
  69:SynaptiX_FDK/components/modules/sht3x/sht3x.c ****     return SHT3X_OK;
 460              		.loc 1 69 19 is_stmt 0 view .LVU115
 461 0040 9DF80420 		ldrb	r2, [sp, #4]	@ zero_extendqisi2
  69:SynaptiX_FDK/components/modules/sht3x/sht3x.c ****     return SHT3X_OK;
 462              		.loc 1 69 34 view .LVU116
 463 0044 9DF80530 		ldrb	r3, [sp, #5]	@ zero_extendqisi2
  69:SynaptiX_FDK/components/modules/sht3x/sht3x.c ****     return SHT3X_OK;
 464              		.loc 1 69 29 view .LVU117
 465 0048 43EA0223 		orr	r3, r3, r2, lsl #8
  69:SynaptiX_FDK/components/modules/sht3x/sht3x.c ****     return SHT3X_OK;
 466              		.loc 1 69 13 view .LVU118
 467 004c 3380     		strh	r3, [r6]	@ movhi
  70:SynaptiX_FDK/components/modules/sht3x/sht3x.c **** }
 468              		.loc 1 70 5 is_stmt 1 view .LVU119
  70:SynaptiX_FDK/components/modules/sht3x/sht3x.c **** }
 469              		.loc 1 70 12 is_stmt 0 view .LVU120
ARM GAS  C:\Users\DELL\AppData\Local\Temp\cclPfjLB.s 			page 12


 470 004e E1E7     		b	.L34
 471              	.LVL44:
 472              	.L36:
  62:SynaptiX_FDK/components/modules/sht3x/sht3x.c ****     }
 473              		.loc 1 62 16 view .LVU121
 474 0050 0125     		movs	r5, #1
 475 0052 DFE7     		b	.L34
 476              	.LVL45:
 477              	.L37:
  66:SynaptiX_FDK/components/modules/sht3x/sht3x.c ****     }
 478              		.loc 1 66 16 view .LVU122
 479 0054 0225     		movs	r5, #2
 480 0056 DDE7     		b	.L34
 481              		.cfi_endproc
 482              	.LFE339:
 484              		.section	.text.sht3x_measure_single_shot,"ax",%progbits
 485              		.align	1
 486              		.global	sht3x_measure_single_shot
 487              		.syntax unified
 488              		.thumb
 489              		.thumb_func
 491              	sht3x_measure_single_shot:
 492              	.LVL46:
 493              	.LFB340:
  72:SynaptiX_FDK/components/modules/sht3x/sht3x.c **** 
  73:SynaptiX_FDK/components/modules/sht3x/sht3x.c **** SHT3X_STATUS_T sht3x_measure_single_shot(SHT3X_T *sht3x, SHT3X_COMMAND_T cmd)
  74:SynaptiX_FDK/components/modules/sht3x/sht3x.c **** {
 494              		.loc 1 74 1 is_stmt 1 view -0
 495              		.cfi_startproc
 496              		@ args = 0, pretend = 0, frame = 0
 497              		@ frame_needed = 0, uses_anonymous_args = 0
 498              		.loc 1 74 1 is_stmt 0 view .LVU124
 499 0000 08B5     		push	{r3, lr}
 500              	.LCFI12:
 501              		.cfi_def_cfa_offset 8
 502              		.cfi_offset 3, -8
 503              		.cfi_offset 14, -4
  75:SynaptiX_FDK/components/modules/sht3x/sht3x.c ****     return sht3x_send_cmd(sht3x, cmd);
 504              		.loc 1 75 5 is_stmt 1 view .LVU125
 505              		.loc 1 75 12 is_stmt 0 view .LVU126
 506 0002 FFF7FEFF 		bl	sht3x_send_cmd
 507              	.LVL47:
  76:SynaptiX_FDK/components/modules/sht3x/sht3x.c **** }
 508              		.loc 1 76 1 view .LVU127
 509 0006 08BD     		pop	{r3, pc}
 510              		.cfi_endproc
 511              	.LFE340:
 513              		.section	.text.sht3x_read_measurement,"ax",%progbits
 514              		.align	1
 515              		.global	sht3x_read_measurement
 516              		.syntax unified
 517              		.thumb
 518              		.thumb_func
 520              	sht3x_read_measurement:
 521              	.LVL48:
 522              	.LFB341:
  77:SynaptiX_FDK/components/modules/sht3x/sht3x.c **** 
ARM GAS  C:\Users\DELL\AppData\Local\Temp\cclPfjLB.s 			page 13


  78:SynaptiX_FDK/components/modules/sht3x/sht3x.c **** SHT3X_STATUS_T sht3x_read_measurement(SHT3X_T *sht3x)
  79:SynaptiX_FDK/components/modules/sht3x/sht3x.c **** {
 523              		.loc 1 79 1 is_stmt 1 view -0
 524              		.cfi_startproc
 525              		@ args = 0, pretend = 0, frame = 8
 526              		@ frame_needed = 0, uses_anonymous_args = 0
 527              		.loc 1 79 1 is_stmt 0 view .LVU129
 528 0000 30B5     		push	{r4, r5, lr}
 529              	.LCFI13:
 530              		.cfi_def_cfa_offset 12
 531              		.cfi_offset 4, -12
 532              		.cfi_offset 5, -8
 533              		.cfi_offset 14, -4
 534 0002 83B0     		sub	sp, sp, #12
 535              	.LCFI14:
 536              		.cfi_def_cfa_offset 24
 537 0004 0446     		mov	r4, r0
  80:SynaptiX_FDK/components/modules/sht3x/sht3x.c ****     uint8_t buf[6];
 538              		.loc 1 80 5 is_stmt 1 view .LVU130
  81:SynaptiX_FDK/components/modules/sht3x/sht3x.c ****     if (sx_i2c_read(sht3x->i2c, SHT3X_DEVICE_ADDR, buf, 6) != 0) {
 539              		.loc 1 81 5 view .LVU131
 540              		.loc 1 81 9 is_stmt 0 view .LVU132
 541 0006 0623     		movs	r3, #6
 542 0008 6A46     		mov	r2, sp
 543 000a 8821     		movs	r1, #136
 544 000c 0068     		ldr	r0, [r0]
 545              	.LVL49:
 546              		.loc 1 81 9 view .LVU133
 547 000e FFF7FEFF 		bl	sx_i2c_read
 548              	.LVL50:
 549              		.loc 1 81 8 discriminator 1 view .LVU134
 550 0012 E0BB     		cbnz	r0, .L44
  82:SynaptiX_FDK/components/modules/sht3x/sht3x.c ****         return SHT3X_ERR;
  83:SynaptiX_FDK/components/modules/sht3x/sht3x.c ****     }
  84:SynaptiX_FDK/components/modules/sht3x/sht3x.c **** 
  85:SynaptiX_FDK/components/modules/sht3x/sht3x.c ****     //Check CRC
  86:SynaptiX_FDK/components/modules/sht3x/sht3x.c ****     if (buf[2] != calculate_crc(buf, 2) || buf[5] != calculate_crc(buf + 3, 2)) {
 551              		.loc 1 86 5 is_stmt 1 view .LVU135
 552              		.loc 1 86 12 is_stmt 0 view .LVU136
 553 0014 9DF80250 		ldrb	r5, [sp, #2]	@ zero_extendqisi2
 554              		.loc 1 86 19 view .LVU137
 555 0018 0221     		movs	r1, #2
 556 001a 6846     		mov	r0, sp
 557 001c FFF7FEFF 		bl	calculate_crc
 558              	.LVL51:
 559              		.loc 1 86 8 discriminator 1 view .LVU138
 560 0020 8542     		cmp	r5, r0
 561 0022 37D1     		bne	.L45
 562              		.loc 1 86 47 discriminator 1 view .LVU139
 563 0024 9DF80550 		ldrb	r5, [sp, #5]	@ zero_extendqisi2
 564              		.loc 1 86 54 discriminator 1 view .LVU140
 565 0028 0221     		movs	r1, #2
 566 002a 0DF10300 		add	r0, sp, #3
 567 002e FFF7FEFF 		bl	calculate_crc
 568              	.LVL52:
 569              		.loc 1 86 41 discriminator 1 view .LVU141
 570 0032 8542     		cmp	r5, r0
ARM GAS  C:\Users\DELL\AppData\Local\Temp\cclPfjLB.s 			page 14


 571 0034 30D1     		bne	.L46
  87:SynaptiX_FDK/components/modules/sht3x/sht3x.c ****         return SHT3X_ERR_CRC;
  88:SynaptiX_FDK/components/modules/sht3x/sht3x.c ****     }
  89:SynaptiX_FDK/components/modules/sht3x/sht3x.c **** 
  90:SynaptiX_FDK/components/modules/sht3x/sht3x.c ****     uint16_t raw_temp = (buf[0] << 8) | buf[1];
 572              		.loc 1 90 5 is_stmt 1 view .LVU142
 573              		.loc 1 90 29 is_stmt 0 view .LVU143
 574 0036 9DF80020 		ldrb	r2, [sp]	@ zero_extendqisi2
 575              		.loc 1 90 44 view .LVU144
 576 003a 9DF80130 		ldrb	r3, [sp, #1]	@ zero_extendqisi2
 577              		.loc 1 90 14 view .LVU145
 578 003e 43EA0223 		orr	r3, r3, r2, lsl #8
 579 0042 07EE103A 		vmov	s14, r3	@ int
 580              	.LVL53:
  91:SynaptiX_FDK/components/modules/sht3x/sht3x.c ****     uint16_t raw_hum  = (buf[3] << 8) | buf[4];
 581              		.loc 1 91 5 is_stmt 1 view .LVU146
 582              		.loc 1 91 29 is_stmt 0 view .LVU147
 583 0046 9DF80320 		ldrb	r2, [sp, #3]	@ zero_extendqisi2
 584              		.loc 1 91 44 view .LVU148
 585 004a 9DF80430 		ldrb	r3, [sp, #4]	@ zero_extendqisi2
 586              		.loc 1 91 14 view .LVU149
 587 004e 43EA0223 		orr	r3, r3, r2, lsl #8
 588              	.LVL54:
  92:SynaptiX_FDK/components/modules/sht3x/sht3x.c **** 
  93:SynaptiX_FDK/components/modules/sht3x/sht3x.c ****     sht3x->temperature = -45.0f + 175.0f * (raw_temp / 65535.0f);
 589              		.loc 1 93 5 is_stmt 1 view .LVU150
 590              		.loc 1 93 54 is_stmt 0 view .LVU151
 591 0052 B8EEC77A 		vcvt.f32.s32	s14, s14
 592              	.LVL55:
 593              		.loc 1 93 54 view .LVU152
 594 0056 DFED116A 		vldr.32	s13, .L48
 595 005a C7EE267A 		vdiv.f32	s15, s14, s13
 596              		.loc 1 93 42 view .LVU153
 597 005e 9FED107A 		vldr.32	s14, .L48+4
 598 0062 67EE877A 		vmul.f32	s15, s15, s14
 599              		.loc 1 93 33 view .LVU154
 600 0066 9FED0F7A 		vldr.32	s14, .L48+8
 601 006a 77EEC77A 		vsub.f32	s15, s15, s14
 602              		.loc 1 93 24 view .LVU155
 603 006e C4ED027A 		vstr.32	s15, [r4, #8]
  94:SynaptiX_FDK/components/modules/sht3x/sht3x.c ****     sht3x->humidity    = 100.0f * (raw_hum / 65535.0f);
 604              		.loc 1 94 5 is_stmt 1 view .LVU156
 605              		.loc 1 94 44 is_stmt 0 view .LVU157
 606 0072 07EE903A 		vmov	s15, r3	@ int
 607 0076 F8EEE77A 		vcvt.f32.s32	s15, s15
 608 007a 87EEA67A 		vdiv.f32	s14, s15, s13
 609              		.loc 1 94 33 view .LVU158
 610 007e DFED0A7A 		vldr.32	s15, .L48+12
 611 0082 67EE277A 		vmul.f32	s15, s14, s15
 612              		.loc 1 94 24 view .LVU159
 613 0086 C4ED017A 		vstr.32	s15, [r4, #4]
  95:SynaptiX_FDK/components/modules/sht3x/sht3x.c **** 
  96:SynaptiX_FDK/components/modules/sht3x/sht3x.c ****     return SHT3X_OK;
 614              		.loc 1 96 5 is_stmt 1 view .LVU160
 615              		.loc 1 96 12 is_stmt 0 view .LVU161
 616 008a 0020     		movs	r0, #0
 617 008c 00E0     		b	.L43
ARM GAS  C:\Users\DELL\AppData\Local\Temp\cclPfjLB.s 			page 15


 618              	.LVL56:
 619              	.L44:
  82:SynaptiX_FDK/components/modules/sht3x/sht3x.c ****     }
 620              		.loc 1 82 16 view .LVU162
 621 008e 0120     		movs	r0, #1
 622              	.L43:
  97:SynaptiX_FDK/components/modules/sht3x/sht3x.c **** }...
 623              		.loc 1 97 1 view .LVU163
 624 0090 03B0     		add	sp, sp, #12
 625              	.LCFI15:
 626              		.cfi_remember_state
 627              		.cfi_def_cfa_offset 12
 628              		@ sp needed
 629 0092 30BD     		pop	{r4, r5, pc}
 630              	.LVL57:
 631              	.L45:
 632              	.LCFI16:
 633              		.cfi_restore_state
  87:SynaptiX_FDK/components/modules/sht3x/sht3x.c ****         return SHT3X_ERR_CRC;
 634              		.loc 1 87 16 view .LVU164
 635 0094 0220     		movs	r0, #2
 636 0096 FBE7     		b	.L43
 637              	.L46:
 638 0098 0220     		movs	r0, #2
 639 009a F9E7     		b	.L43
 640              	.L49:
 641              		.align	2
 642              	.L48:
 643 009c 00FF7F47 		.word	1199570688
 644 00a0 00002F43 		.word	1127153664
 645 00a4 00003442 		.word	1110704128
 646 00a8 0000C842 		.word	1120403456
 647              		.cfi_endproc
 648              	.LFE341:
 650              		.text
 651              	.Letext0:
 652              		.file 3 "D:\\stm32cubeclt\\STM32CubeCLT_1.21.0\\GNU-tools-for-STM32\\bin\\../lib/gcc/arm-none-eabi
 653              		.file 4 "D:\\stm32cubeclt\\STM32CubeCLT_1.21.0\\GNU-tools-for-STM32\\bin\\../lib/gcc/arm-none-eabi
 654              		.file 5 "SynaptiX_FDK/components/modules/sht3x/sht3x.h"
 655              		.file 6 "Drivers/STM32H5xx_HAL_Driver/Inc/stm32h5xx_ll_lptim.h"
 656              		.file 7 "SynaptiX_FDK/utils/delay/sx_delay.h"
ARM GAS  C:\Users\DELL\AppData\Local\Temp\cclPfjLB.s 			page 16

