ARM GAS  C:\Users\DELL\AppData\Local\Temp\ccVJgh0c.s 			page 1


   1              		.cpu cortex-m33
   2              		.arch armv8-m.main
   3              		.fpu fpv5-sp-d16
   4              		.arch_extension dsp
   5              		.eabi_attribute 27, 1
   6              		.eabi_attribute 28, 1
   7              		.eabi_attribute 20, 1
   8              		.eabi_attribute 21, 1
   9              		.eabi_attribute 23, 3
  10              		.eabi_attribute 24, 1
  11              		.eabi_attribute 25, 1
  12              		.eabi_attribute 26, 1
  13              		.eabi_attribute 30, 1
  14              		.eabi_attribute 34, 1
  15              		.eabi_attribute 18, 4
  16              		.file	"stm32h5xx_hal_pwr_ex.c"
  17              		.text
  18              	.Ltext0:
  19              		.cfi_sections	.debug_frame
  20              		.file 1 "Drivers/STM32H5xx_HAL_Driver/Src/stm32h5xx_hal_pwr_ex.c"
  21              		.section	.text.HAL_PWREx_ConfigSupply,"ax",%progbits
  22              		.align	1
  23              		.global	HAL_PWREx_ConfigSupply
  24              		.syntax unified
  25              		.thumb
  26              		.thumb_func
  28              	HAL_PWREx_ConfigSupply:
  29              	.LVL0:
  30              	.LFB297:
   1:Drivers/STM32H5xx_HAL_Driver/Src/stm32h5xx_hal_pwr_ex.c **** /**
   2:Drivers/STM32H5xx_HAL_Driver/Src/stm32h5xx_hal_pwr_ex.c ****   ******************************************************************************
   3:Drivers/STM32H5xx_HAL_Driver/Src/stm32h5xx_hal_pwr_ex.c ****   * @file    stm32h5xx_hal_pwr_ex.c
   4:Drivers/STM32H5xx_HAL_Driver/Src/stm32h5xx_hal_pwr_ex.c ****   * @author  MCD Application Team
   5:Drivers/STM32H5xx_HAL_Driver/Src/stm32h5xx_hal_pwr_ex.c ****   * @brief   Extended PWR HAL module driver.
   6:Drivers/STM32H5xx_HAL_Driver/Src/stm32h5xx_hal_pwr_ex.c ****   *          This file provides firmware functions to manage the following
   7:Drivers/STM32H5xx_HAL_Driver/Src/stm32h5xx_hal_pwr_ex.c ****   *          functionalities of the Power Controller extension peripheral :
   8:Drivers/STM32H5xx_HAL_Driver/Src/stm32h5xx_hal_pwr_ex.c ****   *           + Power Supply Control Functions
   9:Drivers/STM32H5xx_HAL_Driver/Src/stm32h5xx_hal_pwr_ex.c ****   *           + Voltage Monitoring Functions
  10:Drivers/STM32H5xx_HAL_Driver/Src/stm32h5xx_hal_pwr_ex.c ****   *           + Wakeup Pins configuration Functions
  11:Drivers/STM32H5xx_HAL_Driver/Src/stm32h5xx_hal_pwr_ex.c ****   *           + Memories Retention Functions
  12:Drivers/STM32H5xx_HAL_Driver/Src/stm32h5xx_hal_pwr_ex.c ****   *           + IO and JTAG Retention Functions
  13:Drivers/STM32H5xx_HAL_Driver/Src/stm32h5xx_hal_pwr_ex.c ****   ******************************************************************************
  14:Drivers/STM32H5xx_HAL_Driver/Src/stm32h5xx_hal_pwr_ex.c ****   * @attention
  15:Drivers/STM32H5xx_HAL_Driver/Src/stm32h5xx_hal_pwr_ex.c ****   *
  16:Drivers/STM32H5xx_HAL_Driver/Src/stm32h5xx_hal_pwr_ex.c ****   * Copyright (c) 2023 STMicroelectronics.
  17:Drivers/STM32H5xx_HAL_Driver/Src/stm32h5xx_hal_pwr_ex.c ****   * All rights reserved.
  18:Drivers/STM32H5xx_HAL_Driver/Src/stm32h5xx_hal_pwr_ex.c ****   *
  19:Drivers/STM32H5xx_HAL_Driver/Src/stm32h5xx_hal_pwr_ex.c ****   * This software is licensed under terms that can be found in the LICENSE file
  20:Drivers/STM32H5xx_HAL_Driver/Src/stm32h5xx_hal_pwr_ex.c ****   * in the root directory of this software component.
  21:Drivers/STM32H5xx_HAL_Driver/Src/stm32h5xx_hal_pwr_ex.c ****   * If no LICENSE file comes with this software, it is provided AS-IS.
  22:Drivers/STM32H5xx_HAL_Driver/Src/stm32h5xx_hal_pwr_ex.c ****   *
  23:Drivers/STM32H5xx_HAL_Driver/Src/stm32h5xx_hal_pwr_ex.c ****   ******************************************************************************
  24:Drivers/STM32H5xx_HAL_Driver/Src/stm32h5xx_hal_pwr_ex.c ****   */
  25:Drivers/STM32H5xx_HAL_Driver/Src/stm32h5xx_hal_pwr_ex.c **** 
  26:Drivers/STM32H5xx_HAL_Driver/Src/stm32h5xx_hal_pwr_ex.c **** /* Includes ------------------------------------------------------------------*/
  27:Drivers/STM32H5xx_HAL_Driver/Src/stm32h5xx_hal_pwr_ex.c **** #include "stm32h5xx_hal.h"
  28:Drivers/STM32H5xx_HAL_Driver/Src/stm32h5xx_hal_pwr_ex.c **** 
ARM GAS  C:\Users\DELL\AppData\Local\Temp\ccVJgh0c.s 			page 2


  29:Drivers/STM32H5xx_HAL_Driver/Src/stm32h5xx_hal_pwr_ex.c **** /** @addtogroup STM32H5xx_HAL_Driver
  30:Drivers/STM32H5xx_HAL_Driver/Src/stm32h5xx_hal_pwr_ex.c ****   * @{
  31:Drivers/STM32H5xx_HAL_Driver/Src/stm32h5xx_hal_pwr_ex.c ****   */
  32:Drivers/STM32H5xx_HAL_Driver/Src/stm32h5xx_hal_pwr_ex.c **** 
  33:Drivers/STM32H5xx_HAL_Driver/Src/stm32h5xx_hal_pwr_ex.c **** /** @defgroup PWREx PWREx
  34:Drivers/STM32H5xx_HAL_Driver/Src/stm32h5xx_hal_pwr_ex.c ****   * @brief    PWR Extended HAL module driver
  35:Drivers/STM32H5xx_HAL_Driver/Src/stm32h5xx_hal_pwr_ex.c ****   * @{
  36:Drivers/STM32H5xx_HAL_Driver/Src/stm32h5xx_hal_pwr_ex.c ****   */
  37:Drivers/STM32H5xx_HAL_Driver/Src/stm32h5xx_hal_pwr_ex.c **** 
  38:Drivers/STM32H5xx_HAL_Driver/Src/stm32h5xx_hal_pwr_ex.c **** #if defined (HAL_PWR_MODULE_ENABLED)
  39:Drivers/STM32H5xx_HAL_Driver/Src/stm32h5xx_hal_pwr_ex.c **** 
  40:Drivers/STM32H5xx_HAL_Driver/Src/stm32h5xx_hal_pwr_ex.c **** /* Private typedef -----------------------------------------------------------*/
  41:Drivers/STM32H5xx_HAL_Driver/Src/stm32h5xx_hal_pwr_ex.c **** /* Private define ------------------------------------------------------------*/
  42:Drivers/STM32H5xx_HAL_Driver/Src/stm32h5xx_hal_pwr_ex.c **** 
  43:Drivers/STM32H5xx_HAL_Driver/Src/stm32h5xx_hal_pwr_ex.c **** /** @defgroup PWR_Extended_Private_Defines PWR Extended Private Defines
  44:Drivers/STM32H5xx_HAL_Driver/Src/stm32h5xx_hal_pwr_ex.c ****   * @{
  45:Drivers/STM32H5xx_HAL_Driver/Src/stm32h5xx_hal_pwr_ex.c ****   */
  46:Drivers/STM32H5xx_HAL_Driver/Src/stm32h5xx_hal_pwr_ex.c **** /* PORTI pins mask */
  47:Drivers/STM32H5xx_HAL_Driver/Src/stm32h5xx_hal_pwr_ex.c **** #define PWR_PORTI_AVAILABLE_PINS  (0xFFU)
  48:Drivers/STM32H5xx_HAL_Driver/Src/stm32h5xx_hal_pwr_ex.c **** /*!< Time out value of flags setting */
  49:Drivers/STM32H5xx_HAL_Driver/Src/stm32h5xx_hal_pwr_ex.c **** #define PWR_FLAG_SETTING_DELAY    (0x32U)
  50:Drivers/STM32H5xx_HAL_Driver/Src/stm32h5xx_hal_pwr_ex.c **** 
  51:Drivers/STM32H5xx_HAL_Driver/Src/stm32h5xx_hal_pwr_ex.c **** /** @defgroup PWR_PVM_Mode_Mask PWR PVM Mode Mask
  52:Drivers/STM32H5xx_HAL_Driver/Src/stm32h5xx_hal_pwr_ex.c ****   * @{
  53:Drivers/STM32H5xx_HAL_Driver/Src/stm32h5xx_hal_pwr_ex.c ****   */
  54:Drivers/STM32H5xx_HAL_Driver/Src/stm32h5xx_hal_pwr_ex.c **** #define PVM_RISING_EDGE  (0x01U)  /*!< Mask for rising edge set as PVM trigger                     
  55:Drivers/STM32H5xx_HAL_Driver/Src/stm32h5xx_hal_pwr_ex.c **** #define PVM_FALLING_EDGE (0x02U)  /*!< Mask for falling edge set as PVM trigger                    
  56:Drivers/STM32H5xx_HAL_Driver/Src/stm32h5xx_hal_pwr_ex.c **** #define PVM_MODE_IT      (0x04U)  /*!< Mask for interruption yielded by PVM threshold crossing     
  57:Drivers/STM32H5xx_HAL_Driver/Src/stm32h5xx_hal_pwr_ex.c **** #define PVM_MODE_EVT     (0x08U)  /*!< Mask for event yielded by PVM threshold crossing            
  58:Drivers/STM32H5xx_HAL_Driver/Src/stm32h5xx_hal_pwr_ex.c **** /**
  59:Drivers/STM32H5xx_HAL_Driver/Src/stm32h5xx_hal_pwr_ex.c ****   * @}
  60:Drivers/STM32H5xx_HAL_Driver/Src/stm32h5xx_hal_pwr_ex.c ****   */
  61:Drivers/STM32H5xx_HAL_Driver/Src/stm32h5xx_hal_pwr_ex.c **** 
  62:Drivers/STM32H5xx_HAL_Driver/Src/stm32h5xx_hal_pwr_ex.c **** /** @defgroup PWREx_WakeUp_Pins_Offsets PWREx Wake-Up Pins offsets
  63:Drivers/STM32H5xx_HAL_Driver/Src/stm32h5xx_hal_pwr_ex.c ****   * @{
  64:Drivers/STM32H5xx_HAL_Driver/Src/stm32h5xx_hal_pwr_ex.c ****   */
  65:Drivers/STM32H5xx_HAL_Driver/Src/stm32h5xx_hal_pwr_ex.c **** 
  66:Drivers/STM32H5xx_HAL_Driver/Src/stm32h5xx_hal_pwr_ex.c **** /* Wake-Up Pins PWR Pin Pull shift offsets */
  67:Drivers/STM32H5xx_HAL_Driver/Src/stm32h5xx_hal_pwr_ex.c **** #define PWR_WAKEUP_PINS_PULL_SHIFT_OFFSET (2U)
  68:Drivers/STM32H5xx_HAL_Driver/Src/stm32h5xx_hal_pwr_ex.c **** 
  69:Drivers/STM32H5xx_HAL_Driver/Src/stm32h5xx_hal_pwr_ex.c **** /**
  70:Drivers/STM32H5xx_HAL_Driver/Src/stm32h5xx_hal_pwr_ex.c ****   * @}
  71:Drivers/STM32H5xx_HAL_Driver/Src/stm32h5xx_hal_pwr_ex.c ****   */
  72:Drivers/STM32H5xx_HAL_Driver/Src/stm32h5xx_hal_pwr_ex.c **** 
  73:Drivers/STM32H5xx_HAL_Driver/Src/stm32h5xx_hal_pwr_ex.c **** /**
  74:Drivers/STM32H5xx_HAL_Driver/Src/stm32h5xx_hal_pwr_ex.c ****   * @}
  75:Drivers/STM32H5xx_HAL_Driver/Src/stm32h5xx_hal_pwr_ex.c ****   */
  76:Drivers/STM32H5xx_HAL_Driver/Src/stm32h5xx_hal_pwr_ex.c **** 
  77:Drivers/STM32H5xx_HAL_Driver/Src/stm32h5xx_hal_pwr_ex.c **** /* Private macro -------------------------------------------------------------*/
  78:Drivers/STM32H5xx_HAL_Driver/Src/stm32h5xx_hal_pwr_ex.c **** /* Private variables ---------------------------------------------------------*/
  79:Drivers/STM32H5xx_HAL_Driver/Src/stm32h5xx_hal_pwr_ex.c **** /* Private function prototypes -----------------------------------------------*/
  80:Drivers/STM32H5xx_HAL_Driver/Src/stm32h5xx_hal_pwr_ex.c **** /* Exported functions --------------------------------------------------------*/
  81:Drivers/STM32H5xx_HAL_Driver/Src/stm32h5xx_hal_pwr_ex.c **** 
  82:Drivers/STM32H5xx_HAL_Driver/Src/stm32h5xx_hal_pwr_ex.c **** /** @defgroup PWREx_Exported_Functions PWR Extended Exported Functions
  83:Drivers/STM32H5xx_HAL_Driver/Src/stm32h5xx_hal_pwr_ex.c ****   * @{
  84:Drivers/STM32H5xx_HAL_Driver/Src/stm32h5xx_hal_pwr_ex.c ****   */
  85:Drivers/STM32H5xx_HAL_Driver/Src/stm32h5xx_hal_pwr_ex.c **** 
ARM GAS  C:\Users\DELL\AppData\Local\Temp\ccVJgh0c.s 			page 3


  86:Drivers/STM32H5xx_HAL_Driver/Src/stm32h5xx_hal_pwr_ex.c **** /** @defgroup PWREx_Exported_Functions_Group1 Power Supply Control Functions
  87:Drivers/STM32H5xx_HAL_Driver/Src/stm32h5xx_hal_pwr_ex.c ****   * @brief    Power supply control functions
  88:Drivers/STM32H5xx_HAL_Driver/Src/stm32h5xx_hal_pwr_ex.c ****   *
  89:Drivers/STM32H5xx_HAL_Driver/Src/stm32h5xx_hal_pwr_ex.c **** @verbatim
  90:Drivers/STM32H5xx_HAL_Driver/Src/stm32h5xx_hal_pwr_ex.c ****  ===============================================================================
  91:Drivers/STM32H5xx_HAL_Driver/Src/stm32h5xx_hal_pwr_ex.c ****                   ##### Power supply control functions #####
  92:Drivers/STM32H5xx_HAL_Driver/Src/stm32h5xx_hal_pwr_ex.c ****  ===============================================================================
  93:Drivers/STM32H5xx_HAL_Driver/Src/stm32h5xx_hal_pwr_ex.c ****     [..]
  94:Drivers/STM32H5xx_HAL_Driver/Src/stm32h5xx_hal_pwr_ex.c **** @endverbatim
  95:Drivers/STM32H5xx_HAL_Driver/Src/stm32h5xx_hal_pwr_ex.c ****   * @{
  96:Drivers/STM32H5xx_HAL_Driver/Src/stm32h5xx_hal_pwr_ex.c ****   */
  97:Drivers/STM32H5xx_HAL_Driver/Src/stm32h5xx_hal_pwr_ex.c **** 
  98:Drivers/STM32H5xx_HAL_Driver/Src/stm32h5xx_hal_pwr_ex.c **** /**
  99:Drivers/STM32H5xx_HAL_Driver/Src/stm32h5xx_hal_pwr_ex.c ****   * @brief Configure the system Power Supply.
 100:Drivers/STM32H5xx_HAL_Driver/Src/stm32h5xx_hal_pwr_ex.c ****   * @param  SupplySource : Specifies the Power Supply source to set after a
 101:Drivers/STM32H5xx_HAL_Driver/Src/stm32h5xx_hal_pwr_ex.c ****   *                        system startup.
 102:Drivers/STM32H5xx_HAL_Driver/Src/stm32h5xx_hal_pwr_ex.c ****   *         This parameter can be one of the following values :
 103:Drivers/STM32H5xx_HAL_Driver/Src/stm32h5xx_hal_pwr_ex.c ****   *            @arg PWR_EXTERNAL_SOURCE_SUPPLY : The SMPS and the LDO are
 104:Drivers/STM32H5xx_HAL_Driver/Src/stm32h5xx_hal_pwr_ex.c ****   *                                              Bypassed. The Vcore Power
 105:Drivers/STM32H5xx_HAL_Driver/Src/stm32h5xx_hal_pwr_ex.c ****   *                                              Domains are supplied from
 106:Drivers/STM32H5xx_HAL_Driver/Src/stm32h5xx_hal_pwr_ex.c ****   *                                              external source.
 107:Drivers/STM32H5xx_HAL_Driver/Src/stm32h5xx_hal_pwr_ex.c ****   * @retval HAL status.
 108:Drivers/STM32H5xx_HAL_Driver/Src/stm32h5xx_hal_pwr_ex.c ****   */
 109:Drivers/STM32H5xx_HAL_Driver/Src/stm32h5xx_hal_pwr_ex.c **** HAL_StatusTypeDef HAL_PWREx_ConfigSupply(uint32_t SupplySource)
 110:Drivers/STM32H5xx_HAL_Driver/Src/stm32h5xx_hal_pwr_ex.c **** {
  31              		.loc 1 110 1 view -0
  32              		.cfi_startproc
  33              		@ args = 0, pretend = 0, frame = 0
  34              		@ frame_needed = 0, uses_anonymous_args = 0
 111:Drivers/STM32H5xx_HAL_Driver/Src/stm32h5xx_hal_pwr_ex.c ****   uint32_t tickstart;
  35              		.loc 1 111 3 view .LVU1
 112:Drivers/STM32H5xx_HAL_Driver/Src/stm32h5xx_hal_pwr_ex.c **** 
 113:Drivers/STM32H5xx_HAL_Driver/Src/stm32h5xx_hal_pwr_ex.c ****   /* Check the parameters */
 114:Drivers/STM32H5xx_HAL_Driver/Src/stm32h5xx_hal_pwr_ex.c ****   assert_param(IS_PWR_SUPPLY(SupplySource));
  36              		.loc 1 114 3 view .LVU2
 115:Drivers/STM32H5xx_HAL_Driver/Src/stm32h5xx_hal_pwr_ex.c **** 
 116:Drivers/STM32H5xx_HAL_Driver/Src/stm32h5xx_hal_pwr_ex.c ****   if ((PWR->SCCR & PWR_SCCR_BYPASS) != (PWR_SCCR_BYPASS))
  37              		.loc 1 116 3 view .LVU3
  38              		.loc 1 116 11 is_stmt 0 view .LVU4
  39 0000 104B     		ldr	r3, .L13
  40 0002 1B6B     		ldr	r3, [r3, #48]
  41              		.loc 1 116 6 view .LVU5
  42 0004 13F0010F 		tst	r3, #1
  43 0008 01D0     		beq	.L11
 117:Drivers/STM32H5xx_HAL_Driver/Src/stm32h5xx_hal_pwr_ex.c ****   {
 118:Drivers/STM32H5xx_HAL_Driver/Src/stm32h5xx_hal_pwr_ex.c ****     /* Set the power supply configuration */
 119:Drivers/STM32H5xx_HAL_Driver/Src/stm32h5xx_hal_pwr_ex.c ****     MODIFY_REG(PWR->SCCR, PWR_SUPPLY_CONFIG_MASK, SupplySource);
 120:Drivers/STM32H5xx_HAL_Driver/Src/stm32h5xx_hal_pwr_ex.c **** 
 121:Drivers/STM32H5xx_HAL_Driver/Src/stm32h5xx_hal_pwr_ex.c ****     /* Get tick */
 122:Drivers/STM32H5xx_HAL_Driver/Src/stm32h5xx_hal_pwr_ex.c ****     tickstart = HAL_GetTick();
 123:Drivers/STM32H5xx_HAL_Driver/Src/stm32h5xx_hal_pwr_ex.c **** 
 124:Drivers/STM32H5xx_HAL_Driver/Src/stm32h5xx_hal_pwr_ex.c ****     /* Wait till voltage level flag is set */
 125:Drivers/STM32H5xx_HAL_Driver/Src/stm32h5xx_hal_pwr_ex.c ****     while (__HAL_PWR_GET_FLAG(PWR_FLAG_ACTVOSRDY) == 0U)
 126:Drivers/STM32H5xx_HAL_Driver/Src/stm32h5xx_hal_pwr_ex.c ****     {
 127:Drivers/STM32H5xx_HAL_Driver/Src/stm32h5xx_hal_pwr_ex.c ****       if ((HAL_GetTick() - tickstart) > PWR_FLAG_SETTING_DELAY)
 128:Drivers/STM32H5xx_HAL_Driver/Src/stm32h5xx_hal_pwr_ex.c ****       {
 129:Drivers/STM32H5xx_HAL_Driver/Src/stm32h5xx_hal_pwr_ex.c ****         return HAL_ERROR;
ARM GAS  C:\Users\DELL\AppData\Local\Temp\ccVJgh0c.s 			page 4


 130:Drivers/STM32H5xx_HAL_Driver/Src/stm32h5xx_hal_pwr_ex.c ****       }
 131:Drivers/STM32H5xx_HAL_Driver/Src/stm32h5xx_hal_pwr_ex.c ****     }
 132:Drivers/STM32H5xx_HAL_Driver/Src/stm32h5xx_hal_pwr_ex.c ****   }
 133:Drivers/STM32H5xx_HAL_Driver/Src/stm32h5xx_hal_pwr_ex.c **** 
 134:Drivers/STM32H5xx_HAL_Driver/Src/stm32h5xx_hal_pwr_ex.c ****   return HAL_OK;
  44              		.loc 1 134 10 view .LVU6
  45 000a 0020     		movs	r0, #0
  46              	.LVL1:
 135:Drivers/STM32H5xx_HAL_Driver/Src/stm32h5xx_hal_pwr_ex.c **** }
  47              		.loc 1 135 1 view .LVU7
  48 000c 7047     		bx	lr
  49              	.LVL2:
  50              	.L11:
 110:Drivers/STM32H5xx_HAL_Driver/Src/stm32h5xx_hal_pwr_ex.c ****   uint32_t tickstart;
  51              		.loc 1 110 1 view .LVU8
  52 000e 10B5     		push	{r4, lr}
  53              	.LCFI0:
  54              		.cfi_def_cfa_offset 8
  55              		.cfi_offset 4, -8
  56              		.cfi_offset 14, -4
 119:Drivers/STM32H5xx_HAL_Driver/Src/stm32h5xx_hal_pwr_ex.c **** 
  57              		.loc 1 119 5 is_stmt 1 view .LVU9
  58 0010 0C4A     		ldr	r2, .L13
  59 0012 136B     		ldr	r3, [r2, #48]
  60 0014 23F44073 		bic	r3, r3, #768
  61 0018 23F00103 		bic	r3, r3, #1
  62 001c 0343     		orrs	r3, r3, r0
  63 001e 1363     		str	r3, [r2, #48]
 122:Drivers/STM32H5xx_HAL_Driver/Src/stm32h5xx_hal_pwr_ex.c **** 
  64              		.loc 1 122 5 view .LVU10
 122:Drivers/STM32H5xx_HAL_Driver/Src/stm32h5xx_hal_pwr_ex.c **** 
  65              		.loc 1 122 17 is_stmt 0 view .LVU11
  66 0020 FFF7FEFF 		bl	HAL_GetTick
  67              	.LVL3:
 122:Drivers/STM32H5xx_HAL_Driver/Src/stm32h5xx_hal_pwr_ex.c **** 
  68              		.loc 1 122 17 view .LVU12
  69 0024 0446     		mov	r4, r0
  70              	.LVL4:
 125:Drivers/STM32H5xx_HAL_Driver/Src/stm32h5xx_hal_pwr_ex.c ****     {
  71              		.loc 1 125 5 is_stmt 1 view .LVU13
  72              	.L3:
 125:Drivers/STM32H5xx_HAL_Driver/Src/stm32h5xx_hal_pwr_ex.c ****     {
  73              		.loc 1 125 51 view .LVU14
 125:Drivers/STM32H5xx_HAL_Driver/Src/stm32h5xx_hal_pwr_ex.c ****     {
  74              		.loc 1 125 12 is_stmt 0 view .LVU15
  75 0026 074B     		ldr	r3, .L13
  76 0028 5B69     		ldr	r3, [r3, #20]
 125:Drivers/STM32H5xx_HAL_Driver/Src/stm32h5xx_hal_pwr_ex.c ****     {
  77              		.loc 1 125 51 view .LVU16
  78 002a 13F4005F 		tst	r3, #8192
  79 002e 06D1     		bne	.L12
 127:Drivers/STM32H5xx_HAL_Driver/Src/stm32h5xx_hal_pwr_ex.c ****       {
  80              		.loc 1 127 7 is_stmt 1 view .LVU17
 127:Drivers/STM32H5xx_HAL_Driver/Src/stm32h5xx_hal_pwr_ex.c ****       {
  81              		.loc 1 127 12 is_stmt 0 view .LVU18
  82 0030 FFF7FEFF 		bl	HAL_GetTick
  83              	.LVL5:
ARM GAS  C:\Users\DELL\AppData\Local\Temp\ccVJgh0c.s 			page 5


 127:Drivers/STM32H5xx_HAL_Driver/Src/stm32h5xx_hal_pwr_ex.c ****       {
  84              		.loc 1 127 26 discriminator 1 view .LVU19
  85 0034 001B     		subs	r0, r0, r4
 127:Drivers/STM32H5xx_HAL_Driver/Src/stm32h5xx_hal_pwr_ex.c ****       {
  86              		.loc 1 127 10 discriminator 1 view .LVU20
  87 0036 3228     		cmp	r0, #50
  88 0038 F5D9     		bls	.L3
 129:Drivers/STM32H5xx_HAL_Driver/Src/stm32h5xx_hal_pwr_ex.c ****       }
  89              		.loc 1 129 16 view .LVU21
  90 003a 0120     		movs	r0, #1
  91 003c 00E0     		b	.L2
  92              	.L12:
 134:Drivers/STM32H5xx_HAL_Driver/Src/stm32h5xx_hal_pwr_ex.c **** }
  93              		.loc 1 134 10 view .LVU22
  94 003e 0020     		movs	r0, #0
  95              	.L2:
  96              		.loc 1 135 1 view .LVU23
  97 0040 10BD     		pop	{r4, pc}
  98              	.LVL6:
  99              	.L14:
 100              		.loc 1 135 1 view .LVU24
 101 0042 00BF     		.align	2
 102              	.L13:
 103 0044 00080244 		.word	1140983808
 104              		.cfi_endproc
 105              	.LFE297:
 107              		.section	.text.HAL_PWREx_GetSupplyConfig,"ax",%progbits
 108              		.align	1
 109              		.global	HAL_PWREx_GetSupplyConfig
 110              		.syntax unified
 111              		.thumb
 112              		.thumb_func
 114              	HAL_PWREx_GetSupplyConfig:
 115              	.LFB298:
 136:Drivers/STM32H5xx_HAL_Driver/Src/stm32h5xx_hal_pwr_ex.c **** 
 137:Drivers/STM32H5xx_HAL_Driver/Src/stm32h5xx_hal_pwr_ex.c **** /**
 138:Drivers/STM32H5xx_HAL_Driver/Src/stm32h5xx_hal_pwr_ex.c ****   * @brief Get the power supply configuration.
 139:Drivers/STM32H5xx_HAL_Driver/Src/stm32h5xx_hal_pwr_ex.c ****   * @retval The supply configuration.
 140:Drivers/STM32H5xx_HAL_Driver/Src/stm32h5xx_hal_pwr_ex.c ****   */
 141:Drivers/STM32H5xx_HAL_Driver/Src/stm32h5xx_hal_pwr_ex.c **** uint32_t HAL_PWREx_GetSupplyConfig(void)
 142:Drivers/STM32H5xx_HAL_Driver/Src/stm32h5xx_hal_pwr_ex.c **** {
 116              		.loc 1 142 1 is_stmt 1 view -0
 117              		.cfi_startproc
 118              		@ args = 0, pretend = 0, frame = 0
 119              		@ frame_needed = 0, uses_anonymous_args = 0
 120              		@ link register save eliminated.
 143:Drivers/STM32H5xx_HAL_Driver/Src/stm32h5xx_hal_pwr_ex.c ****   return (PWR->SCCR & PWR_SUPPLY_CONFIG_MASK);
 121              		.loc 1 143 3 view .LVU26
 122              		.loc 1 143 14 is_stmt 0 view .LVU27
 123 0000 034B     		ldr	r3, .L16
 124 0002 186B     		ldr	r0, [r3, #48]
 144:Drivers/STM32H5xx_HAL_Driver/Src/stm32h5xx_hal_pwr_ex.c **** }
 125              		.loc 1 144 1 view .LVU28
 126 0004 20F0FE00 		bic	r0, r0, #254
 127 0008 8005     		lsls	r0, r0, #22
 128 000a 800D     		lsrs	r0, r0, #22
 129 000c 7047     		bx	lr
ARM GAS  C:\Users\DELL\AppData\Local\Temp\ccVJgh0c.s 			page 6


 130              	.L17:
 131 000e 00BF     		.align	2
 132              	.L16:
 133 0010 00080244 		.word	1140983808
 134              		.cfi_endproc
 135              	.LFE298:
 137              		.section	.text.HAL_PWREx_ControlVoltageScaling,"ax",%progbits
 138              		.align	1
 139              		.global	HAL_PWREx_ControlVoltageScaling
 140              		.syntax unified
 141              		.thumb
 142              		.thumb_func
 144              	HAL_PWREx_ControlVoltageScaling:
 145              	.LVL7:
 146              	.LFB299:
 145:Drivers/STM32H5xx_HAL_Driver/Src/stm32h5xx_hal_pwr_ex.c **** 
 146:Drivers/STM32H5xx_HAL_Driver/Src/stm32h5xx_hal_pwr_ex.c **** /**
 147:Drivers/STM32H5xx_HAL_Driver/Src/stm32h5xx_hal_pwr_ex.c ****   * @brief Configure the main internal regulator output voltage.
 148:Drivers/STM32H5xx_HAL_Driver/Src/stm32h5xx_hal_pwr_ex.c ****   * @param  VoltageScaling : Specifies the regulator output voltage to achieve
 149:Drivers/STM32H5xx_HAL_Driver/Src/stm32h5xx_hal_pwr_ex.c ****   *                          a tradeoff between performance and power
 150:Drivers/STM32H5xx_HAL_Driver/Src/stm32h5xx_hal_pwr_ex.c ****   *                          consumption.
 151:Drivers/STM32H5xx_HAL_Driver/Src/stm32h5xx_hal_pwr_ex.c ****   *          This parameter can be one of the following values :
 152:Drivers/STM32H5xx_HAL_Driver/Src/stm32h5xx_hal_pwr_ex.c ****   *            @arg PWR_REGULATOR_VOLTAGE_SCALE0 : Regulator voltage output
 153:Drivers/STM32H5xx_HAL_Driver/Src/stm32h5xx_hal_pwr_ex.c ****   *                                                Scale 0 mode.
 154:Drivers/STM32H5xx_HAL_Driver/Src/stm32h5xx_hal_pwr_ex.c ****   *            @arg PWR_REGULATOR_VOLTAGE_SCALE1 : Regulator voltage output
 155:Drivers/STM32H5xx_HAL_Driver/Src/stm32h5xx_hal_pwr_ex.c ****   *                                                range 1 mode.
 156:Drivers/STM32H5xx_HAL_Driver/Src/stm32h5xx_hal_pwr_ex.c ****   *            @arg PWR_REGULATOR_VOLTAGE_SCALE2 : Regulator voltage output
 157:Drivers/STM32H5xx_HAL_Driver/Src/stm32h5xx_hal_pwr_ex.c ****   *                                                range 2 mode.
 158:Drivers/STM32H5xx_HAL_Driver/Src/stm32h5xx_hal_pwr_ex.c ****   *            @arg PWR_REGULATOR_VOLTAGE_SCALE3 : Regulator voltage output
 159:Drivers/STM32H5xx_HAL_Driver/Src/stm32h5xx_hal_pwr_ex.c ****   *                                                range 3 mode.
 160:Drivers/STM32H5xx_HAL_Driver/Src/stm32h5xx_hal_pwr_ex.c ****   * @retval HAL Status
 161:Drivers/STM32H5xx_HAL_Driver/Src/stm32h5xx_hal_pwr_ex.c ****   */
 162:Drivers/STM32H5xx_HAL_Driver/Src/stm32h5xx_hal_pwr_ex.c **** HAL_StatusTypeDef HAL_PWREx_ControlVoltageScaling(uint32_t VoltageScaling)
 163:Drivers/STM32H5xx_HAL_Driver/Src/stm32h5xx_hal_pwr_ex.c **** {
 147              		.loc 1 163 1 is_stmt 1 view -0
 148              		.cfi_startproc
 149              		@ args = 0, pretend = 0, frame = 0
 150              		@ frame_needed = 0, uses_anonymous_args = 0
 151              		.loc 1 163 1 is_stmt 0 view .LVU30
 152 0000 38B5     		push	{r3, r4, r5, lr}
 153              	.LCFI1:
 154              		.cfi_def_cfa_offset 16
 155              		.cfi_offset 3, -16
 156              		.cfi_offset 4, -12
 157              		.cfi_offset 5, -8
 158              		.cfi_offset 14, -4
 159 0002 0546     		mov	r5, r0
 164:Drivers/STM32H5xx_HAL_Driver/Src/stm32h5xx_hal_pwr_ex.c ****   uint32_t tickstart = HAL_GetTick();
 160              		.loc 1 164 3 is_stmt 1 view .LVU31
 161              		.loc 1 164 24 is_stmt 0 view .LVU32
 162 0004 FFF7FEFF 		bl	HAL_GetTick
 163              	.LVL8:
 165:Drivers/STM32H5xx_HAL_Driver/Src/stm32h5xx_hal_pwr_ex.c **** 
 166:Drivers/STM32H5xx_HAL_Driver/Src/stm32h5xx_hal_pwr_ex.c ****   /* Check the parameters */
 167:Drivers/STM32H5xx_HAL_Driver/Src/stm32h5xx_hal_pwr_ex.c ****   assert_param(IS_PWR_VOLTAGE_SCALING_RANGE(VoltageScaling));
 164              		.loc 1 167 3 is_stmt 1 view .LVU33
 168:Drivers/STM32H5xx_HAL_Driver/Src/stm32h5xx_hal_pwr_ex.c **** 
ARM GAS  C:\Users\DELL\AppData\Local\Temp\ccVJgh0c.s 			page 7


 169:Drivers/STM32H5xx_HAL_Driver/Src/stm32h5xx_hal_pwr_ex.c ****   /* Get the voltage scaling  */
 170:Drivers/STM32H5xx_HAL_Driver/Src/stm32h5xx_hal_pwr_ex.c ****   if ((PWR->VOSSR & PWR_VOSSR_ACTVOS) == (VoltageScaling << 10U))
 165              		.loc 1 170 3 view .LVU34
 166              		.loc 1 170 11 is_stmt 0 view .LVU35
 167 0008 0E4B     		ldr	r3, .L26
 168 000a 5B69     		ldr	r3, [r3, #20]
 169              		.loc 1 170 19 view .LVU36
 170 000c 03F44043 		and	r3, r3, #49152
 171              		.loc 1 170 6 view .LVU37
 172 0010 B3EB852F 		cmp	r3, r5, lsl #10
 173 0014 14D0     		beq	.L22
 174 0016 0446     		mov	r4, r0
 171:Drivers/STM32H5xx_HAL_Driver/Src/stm32h5xx_hal_pwr_ex.c ****   {
 172:Drivers/STM32H5xx_HAL_Driver/Src/stm32h5xx_hal_pwr_ex.c ****     /* Old and new voltage scaling configuration match : nothing to do */
 173:Drivers/STM32H5xx_HAL_Driver/Src/stm32h5xx_hal_pwr_ex.c ****     return HAL_OK;
 174:Drivers/STM32H5xx_HAL_Driver/Src/stm32h5xx_hal_pwr_ex.c ****   }
 175:Drivers/STM32H5xx_HAL_Driver/Src/stm32h5xx_hal_pwr_ex.c **** 
 176:Drivers/STM32H5xx_HAL_Driver/Src/stm32h5xx_hal_pwr_ex.c ****   /* Set the voltage range */
 177:Drivers/STM32H5xx_HAL_Driver/Src/stm32h5xx_hal_pwr_ex.c ****   MODIFY_REG(PWR->VOSCR, PWR_VOSCR_VOS, VoltageScaling);
 175              		.loc 1 177 3 is_stmt 1 view .LVU38
 176 0018 0A4A     		ldr	r2, .L26
 177 001a 1369     		ldr	r3, [r2, #16]
 178 001c 23F03003 		bic	r3, r3, #48
 179 0020 2B43     		orrs	r3, r3, r5
 180 0022 1361     		str	r3, [r2, #16]
 178:Drivers/STM32H5xx_HAL_Driver/Src/stm32h5xx_hal_pwr_ex.c **** 
 179:Drivers/STM32H5xx_HAL_Driver/Src/stm32h5xx_hal_pwr_ex.c ****   /* Wait till voltage level flag is set */
 180:Drivers/STM32H5xx_HAL_Driver/Src/stm32h5xx_hal_pwr_ex.c ****   while (__HAL_PWR_GET_FLAG(PWR_FLAG_VOSRDY) == 0U)
 181              		.loc 1 180 3 view .LVU39
 182              	.LVL9:
 183              	.L20:
 184              		.loc 1 180 46 view .LVU40
 185              		.loc 1 180 10 is_stmt 0 view .LVU41
 186 0024 074B     		ldr	r3, .L26
 187 0026 5B69     		ldr	r3, [r3, #20]
 188              		.loc 1 180 46 view .LVU42
 189 0028 13F0080F 		tst	r3, #8
 190 002c 06D1     		bne	.L25
 181:Drivers/STM32H5xx_HAL_Driver/Src/stm32h5xx_hal_pwr_ex.c ****   {
 182:Drivers/STM32H5xx_HAL_Driver/Src/stm32h5xx_hal_pwr_ex.c ****     if ((HAL_GetTick() - tickstart) > PWR_FLAG_SETTING_DELAY)
 191              		.loc 1 182 5 is_stmt 1 view .LVU43
 192              		.loc 1 182 10 is_stmt 0 view .LVU44
 193 002e FFF7FEFF 		bl	HAL_GetTick
 194              	.LVL10:
 195              		.loc 1 182 24 discriminator 1 view .LVU45
 196 0032 001B     		subs	r0, r0, r4
 197              		.loc 1 182 8 discriminator 1 view .LVU46
 198 0034 3228     		cmp	r0, #50
 199 0036 F5D9     		bls	.L20
 183:Drivers/STM32H5xx_HAL_Driver/Src/stm32h5xx_hal_pwr_ex.c ****     {
 184:Drivers/STM32H5xx_HAL_Driver/Src/stm32h5xx_hal_pwr_ex.c ****       return HAL_ERROR;
 200              		.loc 1 184 14 view .LVU47
 201 0038 0120     		movs	r0, #1
 202 003a 00E0     		b	.L19
 203              	.L25:
 185:Drivers/STM32H5xx_HAL_Driver/Src/stm32h5xx_hal_pwr_ex.c ****     }
 186:Drivers/STM32H5xx_HAL_Driver/Src/stm32h5xx_hal_pwr_ex.c ****   }
ARM GAS  C:\Users\DELL\AppData\Local\Temp\ccVJgh0c.s 			page 8


 187:Drivers/STM32H5xx_HAL_Driver/Src/stm32h5xx_hal_pwr_ex.c **** 
 188:Drivers/STM32H5xx_HAL_Driver/Src/stm32h5xx_hal_pwr_ex.c ****   return HAL_OK;
 204              		.loc 1 188 10 view .LVU48
 205 003c 0020     		movs	r0, #0
 206              	.LVL11:
 207              	.L19:
 189:Drivers/STM32H5xx_HAL_Driver/Src/stm32h5xx_hal_pwr_ex.c **** }
 208              		.loc 1 189 1 view .LVU49
 209 003e 38BD     		pop	{r3, r4, r5, pc}
 210              	.LVL12:
 211              	.L22:
 173:Drivers/STM32H5xx_HAL_Driver/Src/stm32h5xx_hal_pwr_ex.c ****   }
 212              		.loc 1 173 12 view .LVU50
 213 0040 0020     		movs	r0, #0
 214              	.LVL13:
 173:Drivers/STM32H5xx_HAL_Driver/Src/stm32h5xx_hal_pwr_ex.c ****   }
 215              		.loc 1 173 12 view .LVU51
 216 0042 FCE7     		b	.L19
 217              	.L27:
 218              		.align	2
 219              	.L26:
 220 0044 00080244 		.word	1140983808
 221              		.cfi_endproc
 222              	.LFE299:
 224              		.section	.text.HAL_PWREx_GetVoltageRange,"ax",%progbits
 225              		.align	1
 226              		.global	HAL_PWREx_GetVoltageRange
 227              		.syntax unified
 228              		.thumb
 229              		.thumb_func
 231              	HAL_PWREx_GetVoltageRange:
 232              	.LFB300:
 190:Drivers/STM32H5xx_HAL_Driver/Src/stm32h5xx_hal_pwr_ex.c **** 
 191:Drivers/STM32H5xx_HAL_Driver/Src/stm32h5xx_hal_pwr_ex.c **** /**
 192:Drivers/STM32H5xx_HAL_Driver/Src/stm32h5xx_hal_pwr_ex.c ****   * @brief Get the main internal regulator output voltage. Reflecting the last
 193:Drivers/STM32H5xx_HAL_Driver/Src/stm32h5xx_hal_pwr_ex.c ****   *        VOS value applied to the PMU.
 194:Drivers/STM32H5xx_HAL_Driver/Src/stm32h5xx_hal_pwr_ex.c ****   * @retval The current applied VOS selection.
 195:Drivers/STM32H5xx_HAL_Driver/Src/stm32h5xx_hal_pwr_ex.c ****   */
 196:Drivers/STM32H5xx_HAL_Driver/Src/stm32h5xx_hal_pwr_ex.c **** uint32_t HAL_PWREx_GetVoltageRange(void)
 197:Drivers/STM32H5xx_HAL_Driver/Src/stm32h5xx_hal_pwr_ex.c **** {
 233              		.loc 1 197 1 is_stmt 1 view -0
 234              		.cfi_startproc
 235              		@ args = 0, pretend = 0, frame = 0
 236              		@ frame_needed = 0, uses_anonymous_args = 0
 237              		@ link register save eliminated.
 198:Drivers/STM32H5xx_HAL_Driver/Src/stm32h5xx_hal_pwr_ex.c ****   /* Get the active voltage scaling */
 199:Drivers/STM32H5xx_HAL_Driver/Src/stm32h5xx_hal_pwr_ex.c ****   return (PWR->VOSSR & PWR_VOSSR_ACTVOS);
 238              		.loc 1 199 3 view .LVU53
 239              		.loc 1 199 14 is_stmt 0 view .LVU54
 240 0000 024B     		ldr	r3, .L29
 241 0002 5869     		ldr	r0, [r3, #20]
 200:Drivers/STM32H5xx_HAL_Driver/Src/stm32h5xx_hal_pwr_ex.c **** }
 242              		.loc 1 200 1 view .LVU55
 243 0004 00F44040 		and	r0, r0, #49152
 244 0008 7047     		bx	lr
 245              	.L30:
 246 000a 00BF     		.align	2
ARM GAS  C:\Users\DELL\AppData\Local\Temp\ccVJgh0c.s 			page 9


 247              	.L29:
 248 000c 00080244 		.word	1140983808
 249              		.cfi_endproc
 250              	.LFE300:
 252              		.section	.text.HAL_PWREx_ControlStopModeVoltageScaling,"ax",%progbits
 253              		.align	1
 254              		.global	HAL_PWREx_ControlStopModeVoltageScaling
 255              		.syntax unified
 256              		.thumb
 257              		.thumb_func
 259              	HAL_PWREx_ControlStopModeVoltageScaling:
 260              	.LVL14:
 261              	.LFB301:
 201:Drivers/STM32H5xx_HAL_Driver/Src/stm32h5xx_hal_pwr_ex.c **** 
 202:Drivers/STM32H5xx_HAL_Driver/Src/stm32h5xx_hal_pwr_ex.c **** /**
 203:Drivers/STM32H5xx_HAL_Driver/Src/stm32h5xx_hal_pwr_ex.c ****   * @brief Configure the main internal regulator output voltage in STOP mode.
 204:Drivers/STM32H5xx_HAL_Driver/Src/stm32h5xx_hal_pwr_ex.c ****   * @param  VoltageScaling : Specifies the regulator output voltage when the
 205:Drivers/STM32H5xx_HAL_Driver/Src/stm32h5xx_hal_pwr_ex.c ****   *         system enters Stop mode to achieve a tradeoff between performance
 206:Drivers/STM32H5xx_HAL_Driver/Src/stm32h5xx_hal_pwr_ex.c ****   *         and power consumption.
 207:Drivers/STM32H5xx_HAL_Driver/Src/stm32h5xx_hal_pwr_ex.c ****   *          This parameter can be one of the following values:
 208:Drivers/STM32H5xx_HAL_Driver/Src/stm32h5xx_hal_pwr_ex.c ****   *            @arg PWR_REGULATOR_SVOS_SCALE3 : Regulator voltage output range
 209:Drivers/STM32H5xx_HAL_Driver/Src/stm32h5xx_hal_pwr_ex.c ****   *                                             3 mode.
 210:Drivers/STM32H5xx_HAL_Driver/Src/stm32h5xx_hal_pwr_ex.c ****   *            @arg PWR_REGULATOR_SVOS_SCALE4 : Regulator voltage output range
 211:Drivers/STM32H5xx_HAL_Driver/Src/stm32h5xx_hal_pwr_ex.c ****   *                                             4 mode.
 212:Drivers/STM32H5xx_HAL_Driver/Src/stm32h5xx_hal_pwr_ex.c ****   *            @arg PWR_REGULATOR_SVOS_SCALE5 : Regulator voltage output range
 213:Drivers/STM32H5xx_HAL_Driver/Src/stm32h5xx_hal_pwr_ex.c ****   *                                             5 mode.
 214:Drivers/STM32H5xx_HAL_Driver/Src/stm32h5xx_hal_pwr_ex.c ****   * @note   The Stop mode voltage scaling for SVOS4 and SVOS5 sets the voltage
 215:Drivers/STM32H5xx_HAL_Driver/Src/stm32h5xx_hal_pwr_ex.c ****   *         regulator in Low-power (LP) mode to further reduce power consumption.
 216:Drivers/STM32H5xx_HAL_Driver/Src/stm32h5xx_hal_pwr_ex.c ****   *         When preselecting SVOS3, the use of the voltage regulator low-power
 217:Drivers/STM32H5xx_HAL_Driver/Src/stm32h5xx_hal_pwr_ex.c ****   *         mode (LP) can be selected by LPDS register bit.
 218:Drivers/STM32H5xx_HAL_Driver/Src/stm32h5xx_hal_pwr_ex.c ****   * @note   The selected SVOS4 and SVOS5 levels add an additional startup delay
 219:Drivers/STM32H5xx_HAL_Driver/Src/stm32h5xx_hal_pwr_ex.c ****   *         when exiting from system Stop mode.
 220:Drivers/STM32H5xx_HAL_Driver/Src/stm32h5xx_hal_pwr_ex.c ****   * @retval HAL Status.
 221:Drivers/STM32H5xx_HAL_Driver/Src/stm32h5xx_hal_pwr_ex.c ****   */
 222:Drivers/STM32H5xx_HAL_Driver/Src/stm32h5xx_hal_pwr_ex.c **** HAL_StatusTypeDef HAL_PWREx_ControlStopModeVoltageScaling(uint32_t VoltageScaling)
 223:Drivers/STM32H5xx_HAL_Driver/Src/stm32h5xx_hal_pwr_ex.c **** {
 262              		.loc 1 223 1 is_stmt 1 view -0
 263              		.cfi_startproc
 264              		@ args = 0, pretend = 0, frame = 0
 265              		@ frame_needed = 0, uses_anonymous_args = 0
 266              		@ link register save eliminated.
 224:Drivers/STM32H5xx_HAL_Driver/Src/stm32h5xx_hal_pwr_ex.c ****   /* Check the parameters */
 225:Drivers/STM32H5xx_HAL_Driver/Src/stm32h5xx_hal_pwr_ex.c ****   assert_param(IS_PWR_STOP_MODE_REGULATOR_VOLTAGE(VoltageScaling));
 267              		.loc 1 225 3 view .LVU57
 226:Drivers/STM32H5xx_HAL_Driver/Src/stm32h5xx_hal_pwr_ex.c **** 
 227:Drivers/STM32H5xx_HAL_Driver/Src/stm32h5xx_hal_pwr_ex.c ****   /* Return the stop mode voltage range */
 228:Drivers/STM32H5xx_HAL_Driver/Src/stm32h5xx_hal_pwr_ex.c ****   MODIFY_REG(PWR->PMCR, PWR_PMCR_SVOS, VoltageScaling);
 268              		.loc 1 228 3 view .LVU58
 269 0000 034A     		ldr	r2, .L32
 270 0002 1368     		ldr	r3, [r2]
 271 0004 23F00C03 		bic	r3, r3, #12
 272 0008 0343     		orrs	r3, r3, r0
 273 000a 1360     		str	r3, [r2]
 229:Drivers/STM32H5xx_HAL_Driver/Src/stm32h5xx_hal_pwr_ex.c **** 
 230:Drivers/STM32H5xx_HAL_Driver/Src/stm32h5xx_hal_pwr_ex.c ****   return HAL_OK;
 274              		.loc 1 230 3 view .LVU59
 231:Drivers/STM32H5xx_HAL_Driver/Src/stm32h5xx_hal_pwr_ex.c **** }
ARM GAS  C:\Users\DELL\AppData\Local\Temp\ccVJgh0c.s 			page 10


 275              		.loc 1 231 1 is_stmt 0 view .LVU60
 276 000c 0020     		movs	r0, #0
 277              	.LVL15:
 278              		.loc 1 231 1 view .LVU61
 279 000e 7047     		bx	lr
 280              	.L33:
 281              		.align	2
 282              	.L32:
 283 0010 00080244 		.word	1140983808
 284              		.cfi_endproc
 285              	.LFE301:
 287              		.section	.text.HAL_PWREx_GetStopModeVoltageRange,"ax",%progbits
 288              		.align	1
 289              		.global	HAL_PWREx_GetStopModeVoltageRange
 290              		.syntax unified
 291              		.thumb
 292              		.thumb_func
 294              	HAL_PWREx_GetStopModeVoltageRange:
 295              	.LFB302:
 232:Drivers/STM32H5xx_HAL_Driver/Src/stm32h5xx_hal_pwr_ex.c **** 
 233:Drivers/STM32H5xx_HAL_Driver/Src/stm32h5xx_hal_pwr_ex.c **** /**
 234:Drivers/STM32H5xx_HAL_Driver/Src/stm32h5xx_hal_pwr_ex.c ****   * @brief Get the main internal regulator output voltage in STOP mode.
 235:Drivers/STM32H5xx_HAL_Driver/Src/stm32h5xx_hal_pwr_ex.c ****   * @retval The actual applied VOS selection.
 236:Drivers/STM32H5xx_HAL_Driver/Src/stm32h5xx_hal_pwr_ex.c ****   */
 237:Drivers/STM32H5xx_HAL_Driver/Src/stm32h5xx_hal_pwr_ex.c **** uint32_t HAL_PWREx_GetStopModeVoltageRange(void)
 238:Drivers/STM32H5xx_HAL_Driver/Src/stm32h5xx_hal_pwr_ex.c **** {
 296              		.loc 1 238 1 is_stmt 1 view -0
 297              		.cfi_startproc
 298              		@ args = 0, pretend = 0, frame = 0
 299              		@ frame_needed = 0, uses_anonymous_args = 0
 300              		@ link register save eliminated.
 239:Drivers/STM32H5xx_HAL_Driver/Src/stm32h5xx_hal_pwr_ex.c ****   /* Return the stop voltage scaling */
 240:Drivers/STM32H5xx_HAL_Driver/Src/stm32h5xx_hal_pwr_ex.c ****   return (PWR->PMCR & PWR_PMCR_SVOS);
 301              		.loc 1 240 3 view .LVU63
 302              		.loc 1 240 14 is_stmt 0 view .LVU64
 303 0000 024B     		ldr	r3, .L35
 304 0002 1868     		ldr	r0, [r3]
 241:Drivers/STM32H5xx_HAL_Driver/Src/stm32h5xx_hal_pwr_ex.c **** }
 305              		.loc 1 241 1 view .LVU65
 306 0004 00F00C00 		and	r0, r0, #12
 307 0008 7047     		bx	lr
 308              	.L36:
 309 000a 00BF     		.align	2
 310              	.L35:
 311 000c 00080244 		.word	1140983808
 312              		.cfi_endproc
 313              	.LFE302:
 315              		.section	.text.HAL_PWREx_ConfigAVD,"ax",%progbits
 316              		.align	1
 317              		.global	HAL_PWREx_ConfigAVD
 318              		.syntax unified
 319              		.thumb
 320              		.thumb_func
 322              	HAL_PWREx_ConfigAVD:
 323              	.LVL16:
 324              	.LFB303:
 242:Drivers/STM32H5xx_HAL_Driver/Src/stm32h5xx_hal_pwr_ex.c **** /**
ARM GAS  C:\Users\DELL\AppData\Local\Temp\ccVJgh0c.s 			page 11


 243:Drivers/STM32H5xx_HAL_Driver/Src/stm32h5xx_hal_pwr_ex.c ****   * @}
 244:Drivers/STM32H5xx_HAL_Driver/Src/stm32h5xx_hal_pwr_ex.c ****   */
 245:Drivers/STM32H5xx_HAL_Driver/Src/stm32h5xx_hal_pwr_ex.c **** 
 246:Drivers/STM32H5xx_HAL_Driver/Src/stm32h5xx_hal_pwr_ex.c **** /** @defgroup PWREx_Exported_Functions_Group2 Voltage Monitoring Functions
 247:Drivers/STM32H5xx_HAL_Driver/Src/stm32h5xx_hal_pwr_ex.c ****   * @brief    Voltage monitoring functions
 248:Drivers/STM32H5xx_HAL_Driver/Src/stm32h5xx_hal_pwr_ex.c ****   *
 249:Drivers/STM32H5xx_HAL_Driver/Src/stm32h5xx_hal_pwr_ex.c **** @verbatim
 250:Drivers/STM32H5xx_HAL_Driver/Src/stm32h5xx_hal_pwr_ex.c ****  ===============================================================================
 251:Drivers/STM32H5xx_HAL_Driver/Src/stm32h5xx_hal_pwr_ex.c ****                      ##### Voltage Monitoring Functions #####
 252:Drivers/STM32H5xx_HAL_Driver/Src/stm32h5xx_hal_pwr_ex.c ****  ===============================================================================
 253:Drivers/STM32H5xx_HAL_Driver/Src/stm32h5xx_hal_pwr_ex.c ****     [..]
 254:Drivers/STM32H5xx_HAL_Driver/Src/stm32h5xx_hal_pwr_ex.c **** @endverbatim
 255:Drivers/STM32H5xx_HAL_Driver/Src/stm32h5xx_hal_pwr_ex.c ****   * @{
 256:Drivers/STM32H5xx_HAL_Driver/Src/stm32h5xx_hal_pwr_ex.c ****   */
 257:Drivers/STM32H5xx_HAL_Driver/Src/stm32h5xx_hal_pwr_ex.c **** 
 258:Drivers/STM32H5xx_HAL_Driver/Src/stm32h5xx_hal_pwr_ex.c **** /**
 259:Drivers/STM32H5xx_HAL_Driver/Src/stm32h5xx_hal_pwr_ex.c ****   * @brief  Configure the event mode and the voltage threshold detected by the
 260:Drivers/STM32H5xx_HAL_Driver/Src/stm32h5xx_hal_pwr_ex.c ****   *         Analog Voltage Detector (AVD).
 261:Drivers/STM32H5xx_HAL_Driver/Src/stm32h5xx_hal_pwr_ex.c ****   * @param  sConfigAVD : Pointer to an PWREx_AVDTypeDef structure that contains
 262:Drivers/STM32H5xx_HAL_Driver/Src/stm32h5xx_hal_pwr_ex.c ****   *                      the configuration information for the AVD.
 263:Drivers/STM32H5xx_HAL_Driver/Src/stm32h5xx_hal_pwr_ex.c ****   * @note   Refer to the electrical characteristics of your device datasheet for
 264:Drivers/STM32H5xx_HAL_Driver/Src/stm32h5xx_hal_pwr_ex.c ****   *         more details about the voltage threshold corresponding to each
 265:Drivers/STM32H5xx_HAL_Driver/Src/stm32h5xx_hal_pwr_ex.c ****   *         detection level.
 266:Drivers/STM32H5xx_HAL_Driver/Src/stm32h5xx_hal_pwr_ex.c ****   * @retval None.
 267:Drivers/STM32H5xx_HAL_Driver/Src/stm32h5xx_hal_pwr_ex.c ****   */
 268:Drivers/STM32H5xx_HAL_Driver/Src/stm32h5xx_hal_pwr_ex.c **** void HAL_PWREx_ConfigAVD(const PWREx_AVDTypeDef *sConfigAVD)
 269:Drivers/STM32H5xx_HAL_Driver/Src/stm32h5xx_hal_pwr_ex.c **** {
 325              		.loc 1 269 1 is_stmt 1 view -0
 326              		.cfi_startproc
 327              		@ args = 0, pretend = 0, frame = 0
 328              		@ frame_needed = 0, uses_anonymous_args = 0
 329              		@ link register save eliminated.
 270:Drivers/STM32H5xx_HAL_Driver/Src/stm32h5xx_hal_pwr_ex.c ****   /* Check the parameters */
 271:Drivers/STM32H5xx_HAL_Driver/Src/stm32h5xx_hal_pwr_ex.c ****   assert_param(IS_PWR_AVD_LEVEL(sConfigAVD->AVDLevel));
 330              		.loc 1 271 3 view .LVU67
 272:Drivers/STM32H5xx_HAL_Driver/Src/stm32h5xx_hal_pwr_ex.c ****   assert_param(IS_PWR_AVD_MODE(sConfigAVD->Mode));
 331              		.loc 1 272 3 view .LVU68
 273:Drivers/STM32H5xx_HAL_Driver/Src/stm32h5xx_hal_pwr_ex.c **** 
 274:Drivers/STM32H5xx_HAL_Driver/Src/stm32h5xx_hal_pwr_ex.c ****   /* Set the ALS[10:9] bits according to AVDLevel value */
 275:Drivers/STM32H5xx_HAL_Driver/Src/stm32h5xx_hal_pwr_ex.c ****   MODIFY_REG(PWR->VMCR, PWR_VMCR_ALS, sConfigAVD->AVDLevel);
 332              		.loc 1 275 3 view .LVU69
 333 0000 224A     		ldr	r2, .L42
 334 0002 536B     		ldr	r3, [r2, #52]
 335 0004 23F4C063 		bic	r3, r3, #1536
 336 0008 0168     		ldr	r1, [r0]
 337 000a 0B43     		orrs	r3, r3, r1
 338 000c 5363     		str	r3, [r2, #52]
 276:Drivers/STM32H5xx_HAL_Driver/Src/stm32h5xx_hal_pwr_ex.c **** 
 277:Drivers/STM32H5xx_HAL_Driver/Src/stm32h5xx_hal_pwr_ex.c ****   /* Clear any previous config */
 278:Drivers/STM32H5xx_HAL_Driver/Src/stm32h5xx_hal_pwr_ex.c ****   __HAL_PWR_AVD_EXTI_DISABLE_EVENT();
 339              		.loc 1 278 3 view .LVU70
 340 000e 204B     		ldr	r3, .L42+4
 341 0010 D3F88420 		ldr	r2, [r3, #132]
 342 0014 22F48032 		bic	r2, r2, #65536
 343 0018 C3F88420 		str	r2, [r3, #132]
 279:Drivers/STM32H5xx_HAL_Driver/Src/stm32h5xx_hal_pwr_ex.c ****   __HAL_PWR_AVD_EXTI_DISABLE_IT();
 344              		.loc 1 279 3 view .LVU71
ARM GAS  C:\Users\DELL\AppData\Local\Temp\ccVJgh0c.s 			page 12


 345 001c D3F88020 		ldr	r2, [r3, #128]
 346 0020 22F48032 		bic	r2, r2, #65536
 347 0024 C3F88020 		str	r2, [r3, #128]
 280:Drivers/STM32H5xx_HAL_Driver/Src/stm32h5xx_hal_pwr_ex.c ****   __HAL_PWR_AVD_EXTI_DISABLE_RISING_EDGE();
 348              		.loc 1 280 3 view .LVU72
 349 0028 1A68     		ldr	r2, [r3]
 350 002a 22F48032 		bic	r2, r2, #65536
 351 002e 1A60     		str	r2, [r3]
 281:Drivers/STM32H5xx_HAL_Driver/Src/stm32h5xx_hal_pwr_ex.c ****   __HAL_PWR_AVD_EXTI_DISABLE_FALLING_EDGE();
 352              		.loc 1 281 3 view .LVU73
 353 0030 5A68     		ldr	r2, [r3, #4]
 354 0032 22F48032 		bic	r2, r2, #65536
 355 0036 5A60     		str	r2, [r3, #4]
 282:Drivers/STM32H5xx_HAL_Driver/Src/stm32h5xx_hal_pwr_ex.c **** 
 283:Drivers/STM32H5xx_HAL_Driver/Src/stm32h5xx_hal_pwr_ex.c ****   /* Configure the interrupt mode */
 284:Drivers/STM32H5xx_HAL_Driver/Src/stm32h5xx_hal_pwr_ex.c ****   if ((sConfigAVD->Mode & AVD_MODE_IT) == AVD_MODE_IT)
 356              		.loc 1 284 3 view .LVU74
 357              		.loc 1 284 18 is_stmt 0 view .LVU75
 358 0038 4368     		ldr	r3, [r0, #4]
 359              		.loc 1 284 6 view .LVU76
 360 003a 13F4803F 		tst	r3, #65536
 361 003e 06D0     		beq	.L38
 285:Drivers/STM32H5xx_HAL_Driver/Src/stm32h5xx_hal_pwr_ex.c ****   {
 286:Drivers/STM32H5xx_HAL_Driver/Src/stm32h5xx_hal_pwr_ex.c ****     __HAL_PWR_AVD_EXTI_ENABLE_IT();
 362              		.loc 1 286 5 is_stmt 1 view .LVU77
 363 0040 134A     		ldr	r2, .L42+4
 364 0042 D2F88030 		ldr	r3, [r2, #128]
 365 0046 43F48033 		orr	r3, r3, #65536
 366 004a C2F88030 		str	r3, [r2, #128]
 367              	.L38:
 287:Drivers/STM32H5xx_HAL_Driver/Src/stm32h5xx_hal_pwr_ex.c ****   }
 288:Drivers/STM32H5xx_HAL_Driver/Src/stm32h5xx_hal_pwr_ex.c **** 
 289:Drivers/STM32H5xx_HAL_Driver/Src/stm32h5xx_hal_pwr_ex.c ****   /* Configure the event mode */
 290:Drivers/STM32H5xx_HAL_Driver/Src/stm32h5xx_hal_pwr_ex.c ****   if ((sConfigAVD->Mode & AVD_MODE_EVT) == AVD_MODE_EVT)
 368              		.loc 1 290 3 view .LVU78
 369              		.loc 1 290 18 is_stmt 0 view .LVU79
 370 004e 4368     		ldr	r3, [r0, #4]
 371              		.loc 1 290 6 view .LVU80
 372 0050 13F4003F 		tst	r3, #131072
 373 0054 06D0     		beq	.L39
 291:Drivers/STM32H5xx_HAL_Driver/Src/stm32h5xx_hal_pwr_ex.c ****   {
 292:Drivers/STM32H5xx_HAL_Driver/Src/stm32h5xx_hal_pwr_ex.c ****     __HAL_PWR_AVD_EXTI_ENABLE_EVENT();
 374              		.loc 1 292 5 is_stmt 1 view .LVU81
 375 0056 0E4A     		ldr	r2, .L42+4
 376 0058 D2F88430 		ldr	r3, [r2, #132]
 377 005c 43F48033 		orr	r3, r3, #65536
 378 0060 C2F88430 		str	r3, [r2, #132]
 379              	.L39:
 293:Drivers/STM32H5xx_HAL_Driver/Src/stm32h5xx_hal_pwr_ex.c ****   }
 294:Drivers/STM32H5xx_HAL_Driver/Src/stm32h5xx_hal_pwr_ex.c **** 
 295:Drivers/STM32H5xx_HAL_Driver/Src/stm32h5xx_hal_pwr_ex.c ****   /* Rising edge configuration */
 296:Drivers/STM32H5xx_HAL_Driver/Src/stm32h5xx_hal_pwr_ex.c ****   if ((sConfigAVD->Mode & AVD_RISING_EDGE) == AVD_RISING_EDGE)
 380              		.loc 1 296 3 view .LVU82
 381              		.loc 1 296 18 is_stmt 0 view .LVU83
 382 0064 4368     		ldr	r3, [r0, #4]
 383              		.loc 1 296 6 view .LVU84
 384 0066 13F0010F 		tst	r3, #1
ARM GAS  C:\Users\DELL\AppData\Local\Temp\ccVJgh0c.s 			page 13


 385 006a 04D0     		beq	.L40
 297:Drivers/STM32H5xx_HAL_Driver/Src/stm32h5xx_hal_pwr_ex.c ****   {
 298:Drivers/STM32H5xx_HAL_Driver/Src/stm32h5xx_hal_pwr_ex.c ****     __HAL_PWR_AVD_EXTI_ENABLE_RISING_EDGE();
 386              		.loc 1 298 5 is_stmt 1 view .LVU85
 387 006c 084A     		ldr	r2, .L42+4
 388 006e 1368     		ldr	r3, [r2]
 389 0070 43F48033 		orr	r3, r3, #65536
 390 0074 1360     		str	r3, [r2]
 391              	.L40:
 299:Drivers/STM32H5xx_HAL_Driver/Src/stm32h5xx_hal_pwr_ex.c ****   }
 300:Drivers/STM32H5xx_HAL_Driver/Src/stm32h5xx_hal_pwr_ex.c **** 
 301:Drivers/STM32H5xx_HAL_Driver/Src/stm32h5xx_hal_pwr_ex.c ****   /* Falling edge configuration */
 302:Drivers/STM32H5xx_HAL_Driver/Src/stm32h5xx_hal_pwr_ex.c ****   if ((sConfigAVD->Mode & AVD_FALLING_EDGE) == AVD_FALLING_EDGE)
 392              		.loc 1 302 3 view .LVU86
 393              		.loc 1 302 18 is_stmt 0 view .LVU87
 394 0076 4368     		ldr	r3, [r0, #4]
 395              		.loc 1 302 6 view .LVU88
 396 0078 13F0020F 		tst	r3, #2
 397 007c 04D0     		beq	.L37
 303:Drivers/STM32H5xx_HAL_Driver/Src/stm32h5xx_hal_pwr_ex.c ****   {
 304:Drivers/STM32H5xx_HAL_Driver/Src/stm32h5xx_hal_pwr_ex.c ****     __HAL_PWR_AVD_EXTI_ENABLE_FALLING_EDGE();
 398              		.loc 1 304 5 is_stmt 1 view .LVU89
 399 007e 044A     		ldr	r2, .L42+4
 400 0080 5368     		ldr	r3, [r2, #4]
 401 0082 43F48033 		orr	r3, r3, #65536
 402 0086 5360     		str	r3, [r2, #4]
 403              	.L37:
 305:Drivers/STM32H5xx_HAL_Driver/Src/stm32h5xx_hal_pwr_ex.c ****   }
 306:Drivers/STM32H5xx_HAL_Driver/Src/stm32h5xx_hal_pwr_ex.c **** }
 404              		.loc 1 306 1 is_stmt 0 view .LVU90
 405 0088 7047     		bx	lr
 406              	.L43:
 407 008a 00BF     		.align	2
 408              	.L42:
 409 008c 00080244 		.word	1140983808
 410 0090 00200244 		.word	1140989952
 411              		.cfi_endproc
 412              	.LFE303:
 414              		.section	.text.HAL_PWREx_EnableAVD,"ax",%progbits
 415              		.align	1
 416              		.global	HAL_PWREx_EnableAVD
 417              		.syntax unified
 418              		.thumb
 419              		.thumb_func
 421              	HAL_PWREx_EnableAVD:
 422              	.LFB304:
 307:Drivers/STM32H5xx_HAL_Driver/Src/stm32h5xx_hal_pwr_ex.c **** 
 308:Drivers/STM32H5xx_HAL_Driver/Src/stm32h5xx_hal_pwr_ex.c **** /**
 309:Drivers/STM32H5xx_HAL_Driver/Src/stm32h5xx_hal_pwr_ex.c ****   * @brief Enable the Analog Voltage Detector (AVD).
 310:Drivers/STM32H5xx_HAL_Driver/Src/stm32h5xx_hal_pwr_ex.c ****   * @retval None.
 311:Drivers/STM32H5xx_HAL_Driver/Src/stm32h5xx_hal_pwr_ex.c ****   */
 312:Drivers/STM32H5xx_HAL_Driver/Src/stm32h5xx_hal_pwr_ex.c **** void HAL_PWREx_EnableAVD(void)
 313:Drivers/STM32H5xx_HAL_Driver/Src/stm32h5xx_hal_pwr_ex.c **** {
 423              		.loc 1 313 1 is_stmt 1 view -0
 424              		.cfi_startproc
 425              		@ args = 0, pretend = 0, frame = 0
 426              		@ frame_needed = 0, uses_anonymous_args = 0
ARM GAS  C:\Users\DELL\AppData\Local\Temp\ccVJgh0c.s 			page 14


 427              		@ link register save eliminated.
 314:Drivers/STM32H5xx_HAL_Driver/Src/stm32h5xx_hal_pwr_ex.c ****   /* Enable the Analog Voltage Detector */
 315:Drivers/STM32H5xx_HAL_Driver/Src/stm32h5xx_hal_pwr_ex.c ****   SET_BIT(PWR->VMCR, PWR_VMCR_AVDEN);
 428              		.loc 1 315 3 view .LVU92
 429 0000 024A     		ldr	r2, .L45
 430 0002 536B     		ldr	r3, [r2, #52]
 431 0004 43F48073 		orr	r3, r3, #256
 432 0008 5363     		str	r3, [r2, #52]
 316:Drivers/STM32H5xx_HAL_Driver/Src/stm32h5xx_hal_pwr_ex.c **** }
 433              		.loc 1 316 1 is_stmt 0 view .LVU93
 434 000a 7047     		bx	lr
 435              	.L46:
 436              		.align	2
 437              	.L45:
 438 000c 00080244 		.word	1140983808
 439              		.cfi_endproc
 440              	.LFE304:
 442              		.section	.text.HAL_PWREx_DisableAVD,"ax",%progbits
 443              		.align	1
 444              		.global	HAL_PWREx_DisableAVD
 445              		.syntax unified
 446              		.thumb
 447              		.thumb_func
 449              	HAL_PWREx_DisableAVD:
 450              	.LFB305:
 317:Drivers/STM32H5xx_HAL_Driver/Src/stm32h5xx_hal_pwr_ex.c **** 
 318:Drivers/STM32H5xx_HAL_Driver/Src/stm32h5xx_hal_pwr_ex.c **** /**
 319:Drivers/STM32H5xx_HAL_Driver/Src/stm32h5xx_hal_pwr_ex.c ****   * @brief Disable the Analog Voltage Detector(AVD).
 320:Drivers/STM32H5xx_HAL_Driver/Src/stm32h5xx_hal_pwr_ex.c ****   * @retval None.
 321:Drivers/STM32H5xx_HAL_Driver/Src/stm32h5xx_hal_pwr_ex.c ****   */
 322:Drivers/STM32H5xx_HAL_Driver/Src/stm32h5xx_hal_pwr_ex.c **** void HAL_PWREx_DisableAVD(void)
 323:Drivers/STM32H5xx_HAL_Driver/Src/stm32h5xx_hal_pwr_ex.c **** {
 451              		.loc 1 323 1 is_stmt 1 view -0
 452              		.cfi_startproc
 453              		@ args = 0, pretend = 0, frame = 0
 454              		@ frame_needed = 0, uses_anonymous_args = 0
 455              		@ link register save eliminated.
 324:Drivers/STM32H5xx_HAL_Driver/Src/stm32h5xx_hal_pwr_ex.c ****   /* Disable the Analog Voltage Detector */
 325:Drivers/STM32H5xx_HAL_Driver/Src/stm32h5xx_hal_pwr_ex.c ****   CLEAR_BIT(PWR->VMCR, PWR_VMCR_AVDEN);
 456              		.loc 1 325 3 view .LVU95
 457 0000 024A     		ldr	r2, .L48
 458 0002 536B     		ldr	r3, [r2, #52]
 459 0004 23F48073 		bic	r3, r3, #256
 460 0008 5363     		str	r3, [r2, #52]
 326:Drivers/STM32H5xx_HAL_Driver/Src/stm32h5xx_hal_pwr_ex.c **** }
 461              		.loc 1 326 1 is_stmt 0 view .LVU96
 462 000a 7047     		bx	lr
 463              	.L49:
 464              		.align	2
 465              	.L48:
 466 000c 00080244 		.word	1140983808
 467              		.cfi_endproc
 468              	.LFE305:
 470              		.section	.text.HAL_PWREx_EnableUSBVoltageDetector,"ax",%progbits
 471              		.align	1
 472              		.global	HAL_PWREx_EnableUSBVoltageDetector
 473              		.syntax unified
ARM GAS  C:\Users\DELL\AppData\Local\Temp\ccVJgh0c.s 			page 15


 474              		.thumb
 475              		.thumb_func
 477              	HAL_PWREx_EnableUSBVoltageDetector:
 478              	.LFB306:
 327:Drivers/STM32H5xx_HAL_Driver/Src/stm32h5xx_hal_pwr_ex.c **** 
 328:Drivers/STM32H5xx_HAL_Driver/Src/stm32h5xx_hal_pwr_ex.c **** #if defined (PWR_USBSCR_USB33DEN)
 329:Drivers/STM32H5xx_HAL_Driver/Src/stm32h5xx_hal_pwr_ex.c **** /**
 330:Drivers/STM32H5xx_HAL_Driver/Src/stm32h5xx_hal_pwr_ex.c ****   * @brief Enable the USB voltage level detector.
 331:Drivers/STM32H5xx_HAL_Driver/Src/stm32h5xx_hal_pwr_ex.c ****   * @retval None.
 332:Drivers/STM32H5xx_HAL_Driver/Src/stm32h5xx_hal_pwr_ex.c ****   */
 333:Drivers/STM32H5xx_HAL_Driver/Src/stm32h5xx_hal_pwr_ex.c **** void HAL_PWREx_EnableUSBVoltageDetector(void)
 334:Drivers/STM32H5xx_HAL_Driver/Src/stm32h5xx_hal_pwr_ex.c **** {
 479              		.loc 1 334 1 is_stmt 1 view -0
 480              		.cfi_startproc
 481              		@ args = 0, pretend = 0, frame = 0
 482              		@ frame_needed = 0, uses_anonymous_args = 0
 483              		@ link register save eliminated.
 335:Drivers/STM32H5xx_HAL_Driver/Src/stm32h5xx_hal_pwr_ex.c ****   /* Enable the USB voltage detector */
 336:Drivers/STM32H5xx_HAL_Driver/Src/stm32h5xx_hal_pwr_ex.c ****   SET_BIT(PWR->USBSCR, PWR_USBSCR_USB33DEN);
 484              		.loc 1 336 3 view .LVU98
 485 0000 024A     		ldr	r2, .L51
 486 0002 936B     		ldr	r3, [r2, #56]
 487 0004 43F08073 		orr	r3, r3, #16777216
 488 0008 9363     		str	r3, [r2, #56]
 337:Drivers/STM32H5xx_HAL_Driver/Src/stm32h5xx_hal_pwr_ex.c **** }
 489              		.loc 1 337 1 is_stmt 0 view .LVU99
 490 000a 7047     		bx	lr
 491              	.L52:
 492              		.align	2
 493              	.L51:
 494 000c 00080244 		.word	1140983808
 495              		.cfi_endproc
 496              	.LFE306:
 498              		.section	.text.HAL_PWREx_DisableUSBVoltageDetector,"ax",%progbits
 499              		.align	1
 500              		.global	HAL_PWREx_DisableUSBVoltageDetector
 501              		.syntax unified
 502              		.thumb
 503              		.thumb_func
 505              	HAL_PWREx_DisableUSBVoltageDetector:
 506              	.LFB307:
 338:Drivers/STM32H5xx_HAL_Driver/Src/stm32h5xx_hal_pwr_ex.c **** 
 339:Drivers/STM32H5xx_HAL_Driver/Src/stm32h5xx_hal_pwr_ex.c **** /**
 340:Drivers/STM32H5xx_HAL_Driver/Src/stm32h5xx_hal_pwr_ex.c ****   * @brief Disable the USB voltage level detector.
 341:Drivers/STM32H5xx_HAL_Driver/Src/stm32h5xx_hal_pwr_ex.c ****   * @retval None.
 342:Drivers/STM32H5xx_HAL_Driver/Src/stm32h5xx_hal_pwr_ex.c ****   */
 343:Drivers/STM32H5xx_HAL_Driver/Src/stm32h5xx_hal_pwr_ex.c **** void HAL_PWREx_DisableUSBVoltageDetector(void)
 344:Drivers/STM32H5xx_HAL_Driver/Src/stm32h5xx_hal_pwr_ex.c **** {
 507              		.loc 1 344 1 is_stmt 1 view -0
 508              		.cfi_startproc
 509              		@ args = 0, pretend = 0, frame = 0
 510              		@ frame_needed = 0, uses_anonymous_args = 0
 511              		@ link register save eliminated.
 345:Drivers/STM32H5xx_HAL_Driver/Src/stm32h5xx_hal_pwr_ex.c ****   /* Disable the USB voltage detector */
 346:Drivers/STM32H5xx_HAL_Driver/Src/stm32h5xx_hal_pwr_ex.c ****   CLEAR_BIT(PWR->USBSCR, PWR_USBSCR_USB33DEN);
 512              		.loc 1 346 3 view .LVU101
 513 0000 024A     		ldr	r2, .L54
ARM GAS  C:\Users\DELL\AppData\Local\Temp\ccVJgh0c.s 			page 16


 514 0002 936B     		ldr	r3, [r2, #56]
 515 0004 23F08073 		bic	r3, r3, #16777216
 516 0008 9363     		str	r3, [r2, #56]
 347:Drivers/STM32H5xx_HAL_Driver/Src/stm32h5xx_hal_pwr_ex.c **** }
 517              		.loc 1 347 1 is_stmt 0 view .LVU102
 518 000a 7047     		bx	lr
 519              	.L55:
 520              		.align	2
 521              	.L54:
 522 000c 00080244 		.word	1140983808
 523              		.cfi_endproc
 524              	.LFE307:
 526              		.section	.text.HAL_PWREx_EnableVddUSB,"ax",%progbits
 527              		.align	1
 528              		.global	HAL_PWREx_EnableVddUSB
 529              		.syntax unified
 530              		.thumb
 531              		.thumb_func
 533              	HAL_PWREx_EnableVddUSB:
 534              	.LFB308:
 348:Drivers/STM32H5xx_HAL_Driver/Src/stm32h5xx_hal_pwr_ex.c **** 
 349:Drivers/STM32H5xx_HAL_Driver/Src/stm32h5xx_hal_pwr_ex.c **** /**
 350:Drivers/STM32H5xx_HAL_Driver/Src/stm32h5xx_hal_pwr_ex.c ****   * @brief  Enable VDDUSB supply.
 351:Drivers/STM32H5xx_HAL_Driver/Src/stm32h5xx_hal_pwr_ex.c ****   * @note   Remove VDDUSB electrical and logical isolation, once VDDUSB supply
 352:Drivers/STM32H5xx_HAL_Driver/Src/stm32h5xx_hal_pwr_ex.c ****   *         is present for consumption saving.
 353:Drivers/STM32H5xx_HAL_Driver/Src/stm32h5xx_hal_pwr_ex.c ****   * @retval None.
 354:Drivers/STM32H5xx_HAL_Driver/Src/stm32h5xx_hal_pwr_ex.c ****   */
 355:Drivers/STM32H5xx_HAL_Driver/Src/stm32h5xx_hal_pwr_ex.c **** void HAL_PWREx_EnableVddUSB(void)
 356:Drivers/STM32H5xx_HAL_Driver/Src/stm32h5xx_hal_pwr_ex.c **** {
 535              		.loc 1 356 1 is_stmt 1 view -0
 536              		.cfi_startproc
 537              		@ args = 0, pretend = 0, frame = 0
 538              		@ frame_needed = 0, uses_anonymous_args = 0
 539              		@ link register save eliminated.
 357:Drivers/STM32H5xx_HAL_Driver/Src/stm32h5xx_hal_pwr_ex.c ****   SET_BIT(PWR->USBSCR, PWR_USBSCR_USB33SV);
 540              		.loc 1 357 3 view .LVU104
 541 0000 024A     		ldr	r2, .L57
 542 0002 936B     		ldr	r3, [r2, #56]
 543 0004 43F00073 		orr	r3, r3, #33554432
 544 0008 9363     		str	r3, [r2, #56]
 358:Drivers/STM32H5xx_HAL_Driver/Src/stm32h5xx_hal_pwr_ex.c **** }
 545              		.loc 1 358 1 is_stmt 0 view .LVU105
 546 000a 7047     		bx	lr
 547              	.L58:
 548              		.align	2
 549              	.L57:
 550 000c 00080244 		.word	1140983808
 551              		.cfi_endproc
 552              	.LFE308:
 554              		.section	.text.HAL_PWREx_DisableVddUSB,"ax",%progbits
 555              		.align	1
 556              		.global	HAL_PWREx_DisableVddUSB
 557              		.syntax unified
 558              		.thumb
 559              		.thumb_func
 561              	HAL_PWREx_DisableVddUSB:
 562              	.LFB309:
ARM GAS  C:\Users\DELL\AppData\Local\Temp\ccVJgh0c.s 			page 17


 359:Drivers/STM32H5xx_HAL_Driver/Src/stm32h5xx_hal_pwr_ex.c **** 
 360:Drivers/STM32H5xx_HAL_Driver/Src/stm32h5xx_hal_pwr_ex.c **** /**
 361:Drivers/STM32H5xx_HAL_Driver/Src/stm32h5xx_hal_pwr_ex.c ****   * @brief  Disable VDDUSB supply.
 362:Drivers/STM32H5xx_HAL_Driver/Src/stm32h5xx_hal_pwr_ex.c ****   * @retval None.
 363:Drivers/STM32H5xx_HAL_Driver/Src/stm32h5xx_hal_pwr_ex.c ****   */
 364:Drivers/STM32H5xx_HAL_Driver/Src/stm32h5xx_hal_pwr_ex.c **** void HAL_PWREx_DisableVddUSB(void)
 365:Drivers/STM32H5xx_HAL_Driver/Src/stm32h5xx_hal_pwr_ex.c **** {
 563              		.loc 1 365 1 is_stmt 1 view -0
 564              		.cfi_startproc
 565              		@ args = 0, pretend = 0, frame = 0
 566              		@ frame_needed = 0, uses_anonymous_args = 0
 567              		@ link register save eliminated.
 366:Drivers/STM32H5xx_HAL_Driver/Src/stm32h5xx_hal_pwr_ex.c ****   CLEAR_BIT(PWR->USBSCR, PWR_USBSCR_USB33SV);
 568              		.loc 1 366 3 view .LVU107
 569 0000 024A     		ldr	r2, .L60
 570 0002 936B     		ldr	r3, [r2, #56]
 571 0004 23F00073 		bic	r3, r3, #33554432
 572 0008 9363     		str	r3, [r2, #56]
 367:Drivers/STM32H5xx_HAL_Driver/Src/stm32h5xx_hal_pwr_ex.c **** }
 573              		.loc 1 367 1 is_stmt 0 view .LVU108
 574 000a 7047     		bx	lr
 575              	.L61:
 576              		.align	2
 577              	.L60:
 578 000c 00080244 		.word	1140983808
 579              		.cfi_endproc
 580              	.LFE309:
 582              		.section	.text.HAL_PWREx_EnableMonitoring,"ax",%progbits
 583              		.align	1
 584              		.global	HAL_PWREx_EnableMonitoring
 585              		.syntax unified
 586              		.thumb
 587              		.thumb_func
 589              	HAL_PWREx_EnableMonitoring:
 590              	.LFB310:
 368:Drivers/STM32H5xx_HAL_Driver/Src/stm32h5xx_hal_pwr_ex.c **** #endif /* PWR_USBSCR_USB33DEN */
 369:Drivers/STM32H5xx_HAL_Driver/Src/stm32h5xx_hal_pwr_ex.c **** 
 370:Drivers/STM32H5xx_HAL_Driver/Src/stm32h5xx_hal_pwr_ex.c **** /**
 371:Drivers/STM32H5xx_HAL_Driver/Src/stm32h5xx_hal_pwr_ex.c ****   * @brief  Enable the VBAT and temperature monitoring.
 372:Drivers/STM32H5xx_HAL_Driver/Src/stm32h5xx_hal_pwr_ex.c ****   * @retval None.
 373:Drivers/STM32H5xx_HAL_Driver/Src/stm32h5xx_hal_pwr_ex.c ****   */
 374:Drivers/STM32H5xx_HAL_Driver/Src/stm32h5xx_hal_pwr_ex.c **** void HAL_PWREx_EnableMonitoring(void)
 375:Drivers/STM32H5xx_HAL_Driver/Src/stm32h5xx_hal_pwr_ex.c **** {
 591              		.loc 1 375 1 is_stmt 1 view -0
 592              		.cfi_startproc
 593              		@ args = 0, pretend = 0, frame = 0
 594              		@ frame_needed = 0, uses_anonymous_args = 0
 595              		@ link register save eliminated.
 376:Drivers/STM32H5xx_HAL_Driver/Src/stm32h5xx_hal_pwr_ex.c ****   SET_BIT(PWR->BDCR, PWR_BDCR_MONEN);
 596              		.loc 1 376 3 view .LVU110
 597 0000 024A     		ldr	r2, .L63
 598 0002 136A     		ldr	r3, [r2, #32]
 599 0004 43F00203 		orr	r3, r3, #2
 600 0008 1362     		str	r3, [r2, #32]
 377:Drivers/STM32H5xx_HAL_Driver/Src/stm32h5xx_hal_pwr_ex.c **** }
 601              		.loc 1 377 1 is_stmt 0 view .LVU111
 602 000a 7047     		bx	lr
ARM GAS  C:\Users\DELL\AppData\Local\Temp\ccVJgh0c.s 			page 18


 603              	.L64:
 604              		.align	2
 605              	.L63:
 606 000c 00080244 		.word	1140983808
 607              		.cfi_endproc
 608              	.LFE310:
 610              		.section	.text.HAL_PWREx_DisableMonitoring,"ax",%progbits
 611              		.align	1
 612              		.global	HAL_PWREx_DisableMonitoring
 613              		.syntax unified
 614              		.thumb
 615              		.thumb_func
 617              	HAL_PWREx_DisableMonitoring:
 618              	.LFB311:
 378:Drivers/STM32H5xx_HAL_Driver/Src/stm32h5xx_hal_pwr_ex.c **** 
 379:Drivers/STM32H5xx_HAL_Driver/Src/stm32h5xx_hal_pwr_ex.c **** /**
 380:Drivers/STM32H5xx_HAL_Driver/Src/stm32h5xx_hal_pwr_ex.c ****   * @brief  Disable the VBAT and temperature monitoring.
 381:Drivers/STM32H5xx_HAL_Driver/Src/stm32h5xx_hal_pwr_ex.c ****   * @retval None.
 382:Drivers/STM32H5xx_HAL_Driver/Src/stm32h5xx_hal_pwr_ex.c ****   */
 383:Drivers/STM32H5xx_HAL_Driver/Src/stm32h5xx_hal_pwr_ex.c **** void HAL_PWREx_DisableMonitoring(void)
 384:Drivers/STM32H5xx_HAL_Driver/Src/stm32h5xx_hal_pwr_ex.c **** {
 619              		.loc 1 384 1 is_stmt 1 view -0
 620              		.cfi_startproc
 621              		@ args = 0, pretend = 0, frame = 0
 622              		@ frame_needed = 0, uses_anonymous_args = 0
 623              		@ link register save eliminated.
 385:Drivers/STM32H5xx_HAL_Driver/Src/stm32h5xx_hal_pwr_ex.c ****   CLEAR_BIT(PWR->BDCR, PWR_BDCR_MONEN);
 624              		.loc 1 385 3 view .LVU113
 625 0000 024A     		ldr	r2, .L66
 626 0002 136A     		ldr	r3, [r2, #32]
 627 0004 23F00203 		bic	r3, r3, #2
 628 0008 1362     		str	r3, [r2, #32]
 386:Drivers/STM32H5xx_HAL_Driver/Src/stm32h5xx_hal_pwr_ex.c **** }
 629              		.loc 1 386 1 is_stmt 0 view .LVU114
 630 000a 7047     		bx	lr
 631              	.L67:
 632              		.align	2
 633              	.L66:
 634 000c 00080244 		.word	1140983808
 635              		.cfi_endproc
 636              	.LFE311:
 638              		.section	.text.HAL_PWREx_EnableUCPDStandbyMode,"ax",%progbits
 639              		.align	1
 640              		.global	HAL_PWREx_EnableUCPDStandbyMode
 641              		.syntax unified
 642              		.thumb
 643              		.thumb_func
 645              	HAL_PWREx_EnableUCPDStandbyMode:
 646              	.LFB312:
 387:Drivers/STM32H5xx_HAL_Driver/Src/stm32h5xx_hal_pwr_ex.c **** 
 388:Drivers/STM32H5xx_HAL_Driver/Src/stm32h5xx_hal_pwr_ex.c **** #if defined (PWR_UCPDR_UCPD_STBY)
 389:Drivers/STM32H5xx_HAL_Driver/Src/stm32h5xx_hal_pwr_ex.c **** /**
 390:Drivers/STM32H5xx_HAL_Driver/Src/stm32h5xx_hal_pwr_ex.c ****   * @brief  Enable UCPD configuration memorization in Standby mode.
 391:Drivers/STM32H5xx_HAL_Driver/Src/stm32h5xx_hal_pwr_ex.c ****   * @retval None.
 392:Drivers/STM32H5xx_HAL_Driver/Src/stm32h5xx_hal_pwr_ex.c ****   */
 393:Drivers/STM32H5xx_HAL_Driver/Src/stm32h5xx_hal_pwr_ex.c **** void HAL_PWREx_EnableUCPDStandbyMode(void)
 394:Drivers/STM32H5xx_HAL_Driver/Src/stm32h5xx_hal_pwr_ex.c **** {
ARM GAS  C:\Users\DELL\AppData\Local\Temp\ccVJgh0c.s 			page 19


 647              		.loc 1 394 1 is_stmt 1 view -0
 648              		.cfi_startproc
 649              		@ args = 0, pretend = 0, frame = 0
 650              		@ frame_needed = 0, uses_anonymous_args = 0
 651              		@ link register save eliminated.
 395:Drivers/STM32H5xx_HAL_Driver/Src/stm32h5xx_hal_pwr_ex.c ****   SET_BIT(PWR->UCPDR, PWR_UCPDR_UCPD_STBY);
 652              		.loc 1 395 3 view .LVU116
 653 0000 024A     		ldr	r2, .L69
 654 0002 D36A     		ldr	r3, [r2, #44]
 655 0004 43F00203 		orr	r3, r3, #2
 656 0008 D362     		str	r3, [r2, #44]
 396:Drivers/STM32H5xx_HAL_Driver/Src/stm32h5xx_hal_pwr_ex.c **** }
 657              		.loc 1 396 1 is_stmt 0 view .LVU117
 658 000a 7047     		bx	lr
 659              	.L70:
 660              		.align	2
 661              	.L69:
 662 000c 00080244 		.word	1140983808
 663              		.cfi_endproc
 664              	.LFE312:
 666              		.section	.text.HAL_PWREx_DisableUCPDStandbyMode,"ax",%progbits
 667              		.align	1
 668              		.global	HAL_PWREx_DisableUCPDStandbyMode
 669              		.syntax unified
 670              		.thumb
 671              		.thumb_func
 673              	HAL_PWREx_DisableUCPDStandbyMode:
 674              	.LFB313:
 397:Drivers/STM32H5xx_HAL_Driver/Src/stm32h5xx_hal_pwr_ex.c **** 
 398:Drivers/STM32H5xx_HAL_Driver/Src/stm32h5xx_hal_pwr_ex.c **** /**
 399:Drivers/STM32H5xx_HAL_Driver/Src/stm32h5xx_hal_pwr_ex.c ****   * @brief  Disable UCPD configuration memorization in Standby mode.
 400:Drivers/STM32H5xx_HAL_Driver/Src/stm32h5xx_hal_pwr_ex.c ****   * @note   This function must be called on exiting the Standby mode and before
 401:Drivers/STM32H5xx_HAL_Driver/Src/stm32h5xx_hal_pwr_ex.c ****   *         any UCPD configuration update.
 402:Drivers/STM32H5xx_HAL_Driver/Src/stm32h5xx_hal_pwr_ex.c ****   * @retval None.
 403:Drivers/STM32H5xx_HAL_Driver/Src/stm32h5xx_hal_pwr_ex.c ****   */
 404:Drivers/STM32H5xx_HAL_Driver/Src/stm32h5xx_hal_pwr_ex.c **** void HAL_PWREx_DisableUCPDStandbyMode(void)
 405:Drivers/STM32H5xx_HAL_Driver/Src/stm32h5xx_hal_pwr_ex.c **** {
 675              		.loc 1 405 1 is_stmt 1 view -0
 676              		.cfi_startproc
 677              		@ args = 0, pretend = 0, frame = 0
 678              		@ frame_needed = 0, uses_anonymous_args = 0
 679              		@ link register save eliminated.
 406:Drivers/STM32H5xx_HAL_Driver/Src/stm32h5xx_hal_pwr_ex.c ****   CLEAR_BIT(PWR->UCPDR, PWR_UCPDR_UCPD_STBY);
 680              		.loc 1 406 3 view .LVU119
 681 0000 024A     		ldr	r2, .L72
 682 0002 D36A     		ldr	r3, [r2, #44]
 683 0004 23F00203 		bic	r3, r3, #2
 684 0008 D362     		str	r3, [r2, #44]
 407:Drivers/STM32H5xx_HAL_Driver/Src/stm32h5xx_hal_pwr_ex.c **** }
 685              		.loc 1 407 1 is_stmt 0 view .LVU120
 686 000a 7047     		bx	lr
 687              	.L73:
 688              		.align	2
 689              	.L72:
 690 000c 00080244 		.word	1140983808
 691              		.cfi_endproc
 692              	.LFE313:
ARM GAS  C:\Users\DELL\AppData\Local\Temp\ccVJgh0c.s 			page 20


 694              		.section	.text.HAL_PWREx_EnableUCPDDeadBattery,"ax",%progbits
 695              		.align	1
 696              		.global	HAL_PWREx_EnableUCPDDeadBattery
 697              		.syntax unified
 698              		.thumb
 699              		.thumb_func
 701              	HAL_PWREx_EnableUCPDDeadBattery:
 702              	.LFB314:
 408:Drivers/STM32H5xx_HAL_Driver/Src/stm32h5xx_hal_pwr_ex.c **** #endif /* PWR_UCPDR_UCPD_STBY */
 409:Drivers/STM32H5xx_HAL_Driver/Src/stm32h5xx_hal_pwr_ex.c **** 
 410:Drivers/STM32H5xx_HAL_Driver/Src/stm32h5xx_hal_pwr_ex.c **** #if defined (PWR_UCPDR_UCPD_DBDIS)
 411:Drivers/STM32H5xx_HAL_Driver/Src/stm32h5xx_hal_pwr_ex.c **** /**
 412:Drivers/STM32H5xx_HAL_Driver/Src/stm32h5xx_hal_pwr_ex.c ****   * @brief  Enable dead battery behavior.
 413:Drivers/STM32H5xx_HAL_Driver/Src/stm32h5xx_hal_pwr_ex.c ****   * @note   After exiting reset, the USB Type-C (dead battery) behavior is
 414:Drivers/STM32H5xx_HAL_Driver/Src/stm32h5xx_hal_pwr_ex.c ****   *         enabled, which may have a pull-down effect on CC1 and CC2 pins.
 415:Drivers/STM32H5xx_HAL_Driver/Src/stm32h5xx_hal_pwr_ex.c ****   *         It is recommended to disable it in all cases, either to stop this
 416:Drivers/STM32H5xx_HAL_Driver/Src/stm32h5xx_hal_pwr_ex.c ****   *         pull-down or to handover control to the UCPD (the UCPD must be
 417:Drivers/STM32H5xx_HAL_Driver/Src/stm32h5xx_hal_pwr_ex.c ****   *         initialized before doing the disable).
 418:Drivers/STM32H5xx_HAL_Driver/Src/stm32h5xx_hal_pwr_ex.c ****   * @retval None.
 419:Drivers/STM32H5xx_HAL_Driver/Src/stm32h5xx_hal_pwr_ex.c ****   */
 420:Drivers/STM32H5xx_HAL_Driver/Src/stm32h5xx_hal_pwr_ex.c **** void HAL_PWREx_EnableUCPDDeadBattery(void)
 421:Drivers/STM32H5xx_HAL_Driver/Src/stm32h5xx_hal_pwr_ex.c **** {
 703              		.loc 1 421 1 is_stmt 1 view -0
 704              		.cfi_startproc
 705              		@ args = 0, pretend = 0, frame = 0
 706              		@ frame_needed = 0, uses_anonymous_args = 0
 707              		@ link register save eliminated.
 422:Drivers/STM32H5xx_HAL_Driver/Src/stm32h5xx_hal_pwr_ex.c ****   CLEAR_BIT(PWR->UCPDR, PWR_UCPDR_UCPD_DBDIS);
 708              		.loc 1 422 3 view .LVU122
 709 0000 024A     		ldr	r2, .L75
 710 0002 D36A     		ldr	r3, [r2, #44]
 711 0004 23F00103 		bic	r3, r3, #1
 712 0008 D362     		str	r3, [r2, #44]
 423:Drivers/STM32H5xx_HAL_Driver/Src/stm32h5xx_hal_pwr_ex.c **** }
 713              		.loc 1 423 1 is_stmt 0 view .LVU123
 714 000a 7047     		bx	lr
 715              	.L76:
 716              		.align	2
 717              	.L75:
 718 000c 00080244 		.word	1140983808
 719              		.cfi_endproc
 720              	.LFE314:
 722              		.section	.text.HAL_PWREx_DisableUCPDDeadBattery,"ax",%progbits
 723              		.align	1
 724              		.global	HAL_PWREx_DisableUCPDDeadBattery
 725              		.syntax unified
 726              		.thumb
 727              		.thumb_func
 729              	HAL_PWREx_DisableUCPDDeadBattery:
 730              	.LFB315:
 424:Drivers/STM32H5xx_HAL_Driver/Src/stm32h5xx_hal_pwr_ex.c **** 
 425:Drivers/STM32H5xx_HAL_Driver/Src/stm32h5xx_hal_pwr_ex.c **** /**
 426:Drivers/STM32H5xx_HAL_Driver/Src/stm32h5xx_hal_pwr_ex.c ****   * @brief  Disable dead battery behavior.
 427:Drivers/STM32H5xx_HAL_Driver/Src/stm32h5xx_hal_pwr_ex.c ****   * @note   After exiting reset, the USB Type-C (dead battery) behavior is
 428:Drivers/STM32H5xx_HAL_Driver/Src/stm32h5xx_hal_pwr_ex.c ****   *         enabled, which may have a pull-down effect on CC1 and CC2 pins.
 429:Drivers/STM32H5xx_HAL_Driver/Src/stm32h5xx_hal_pwr_ex.c ****   *         It is recommended to disable it in all cases, either to stop this
 430:Drivers/STM32H5xx_HAL_Driver/Src/stm32h5xx_hal_pwr_ex.c ****   *         pull-down or to handover control to the UCPD (the UCPD must be
ARM GAS  C:\Users\DELL\AppData\Local\Temp\ccVJgh0c.s 			page 21


 431:Drivers/STM32H5xx_HAL_Driver/Src/stm32h5xx_hal_pwr_ex.c ****   *         initialized before doing the disable).
 432:Drivers/STM32H5xx_HAL_Driver/Src/stm32h5xx_hal_pwr_ex.c ****   * @retval None.
 433:Drivers/STM32H5xx_HAL_Driver/Src/stm32h5xx_hal_pwr_ex.c ****   */
 434:Drivers/STM32H5xx_HAL_Driver/Src/stm32h5xx_hal_pwr_ex.c **** void HAL_PWREx_DisableUCPDDeadBattery(void)
 435:Drivers/STM32H5xx_HAL_Driver/Src/stm32h5xx_hal_pwr_ex.c **** {
 731              		.loc 1 435 1 is_stmt 1 view -0
 732              		.cfi_startproc
 733              		@ args = 0, pretend = 0, frame = 0
 734              		@ frame_needed = 0, uses_anonymous_args = 0
 735              		@ link register save eliminated.
 436:Drivers/STM32H5xx_HAL_Driver/Src/stm32h5xx_hal_pwr_ex.c ****   SET_BIT(PWR->UCPDR, PWR_UCPDR_UCPD_DBDIS);
 736              		.loc 1 436 3 view .LVU125
 737 0000 024A     		ldr	r2, .L78
 738 0002 D36A     		ldr	r3, [r2, #44]
 739 0004 43F00103 		orr	r3, r3, #1
 740 0008 D362     		str	r3, [r2, #44]
 437:Drivers/STM32H5xx_HAL_Driver/Src/stm32h5xx_hal_pwr_ex.c **** }
 741              		.loc 1 437 1 is_stmt 0 view .LVU126
 742 000a 7047     		bx	lr
 743              	.L79:
 744              		.align	2
 745              	.L78:
 746 000c 00080244 		.word	1140983808
 747              		.cfi_endproc
 748              	.LFE315:
 750              		.section	.text.HAL_PWREx_EnableBatteryCharging,"ax",%progbits
 751              		.align	1
 752              		.global	HAL_PWREx_EnableBatteryCharging
 753              		.syntax unified
 754              		.thumb
 755              		.thumb_func
 757              	HAL_PWREx_EnableBatteryCharging:
 758              	.LVL17:
 759              	.LFB316:
 438:Drivers/STM32H5xx_HAL_Driver/Src/stm32h5xx_hal_pwr_ex.c **** #endif /* PWR_UCPDR_UCPD_DBDIS */
 439:Drivers/STM32H5xx_HAL_Driver/Src/stm32h5xx_hal_pwr_ex.c **** 
 440:Drivers/STM32H5xx_HAL_Driver/Src/stm32h5xx_hal_pwr_ex.c **** /**
 441:Drivers/STM32H5xx_HAL_Driver/Src/stm32h5xx_hal_pwr_ex.c ****   * @brief  Enable the Battery charging.
 442:Drivers/STM32H5xx_HAL_Driver/Src/stm32h5xx_hal_pwr_ex.c ****   * @note   When VDD is present, charge the external battery through an internal
 443:Drivers/STM32H5xx_HAL_Driver/Src/stm32h5xx_hal_pwr_ex.c ****   *         resistor.
 444:Drivers/STM32H5xx_HAL_Driver/Src/stm32h5xx_hal_pwr_ex.c ****   * @param  ResistorValue : Specifies the charging resistor.
 445:Drivers/STM32H5xx_HAL_Driver/Src/stm32h5xx_hal_pwr_ex.c ****   *                         This parameter can be one of the following values :
 446:Drivers/STM32H5xx_HAL_Driver/Src/stm32h5xx_hal_pwr_ex.c ****   *                         @arg PWR_BATTERY_CHARGING_RESISTOR_5   : 5 KOhm resistor.
 447:Drivers/STM32H5xx_HAL_Driver/Src/stm32h5xx_hal_pwr_ex.c ****   *                         @arg PWR_BATTERY_CHARGING_RESISTOR_1_5 : 1.5 KOhm resistor.
 448:Drivers/STM32H5xx_HAL_Driver/Src/stm32h5xx_hal_pwr_ex.c ****   * @retval None.
 449:Drivers/STM32H5xx_HAL_Driver/Src/stm32h5xx_hal_pwr_ex.c ****   */
 450:Drivers/STM32H5xx_HAL_Driver/Src/stm32h5xx_hal_pwr_ex.c **** void HAL_PWREx_EnableBatteryCharging(uint32_t ResistorValue)
 451:Drivers/STM32H5xx_HAL_Driver/Src/stm32h5xx_hal_pwr_ex.c **** {
 760              		.loc 1 451 1 is_stmt 1 view -0
 761              		.cfi_startproc
 762              		@ args = 0, pretend = 0, frame = 0
 763              		@ frame_needed = 0, uses_anonymous_args = 0
 764              		@ link register save eliminated.
 452:Drivers/STM32H5xx_HAL_Driver/Src/stm32h5xx_hal_pwr_ex.c ****   /* Check the parameter */
 453:Drivers/STM32H5xx_HAL_Driver/Src/stm32h5xx_hal_pwr_ex.c ****   assert_param(IS_PWR_BATTERY_RESISTOR_SELECT(ResistorValue));
 765              		.loc 1 453 3 view .LVU128
 454:Drivers/STM32H5xx_HAL_Driver/Src/stm32h5xx_hal_pwr_ex.c **** 
ARM GAS  C:\Users\DELL\AppData\Local\Temp\ccVJgh0c.s 			page 22


 455:Drivers/STM32H5xx_HAL_Driver/Src/stm32h5xx_hal_pwr_ex.c ****   /* Specify the charging resistor */
 456:Drivers/STM32H5xx_HAL_Driver/Src/stm32h5xx_hal_pwr_ex.c ****   MODIFY_REG(PWR->BDCR, PWR_BDCR_VBRS, ResistorValue);
 766              		.loc 1 456 3 view .LVU129
 767 0000 054A     		ldr	r2, .L81
 768 0002 136A     		ldr	r3, [r2, #32]
 769 0004 23F40073 		bic	r3, r3, #512
 770 0008 0343     		orrs	r3, r3, r0
 771 000a 1362     		str	r3, [r2, #32]
 457:Drivers/STM32H5xx_HAL_Driver/Src/stm32h5xx_hal_pwr_ex.c **** 
 458:Drivers/STM32H5xx_HAL_Driver/Src/stm32h5xx_hal_pwr_ex.c ****   /* Enable the Battery charging */
 459:Drivers/STM32H5xx_HAL_Driver/Src/stm32h5xx_hal_pwr_ex.c ****   SET_BIT(PWR->BDCR, PWR_BDCR_VBE);
 772              		.loc 1 459 3 view .LVU130
 773 000c 136A     		ldr	r3, [r2, #32]
 774 000e 43F48073 		orr	r3, r3, #256
 775 0012 1362     		str	r3, [r2, #32]
 460:Drivers/STM32H5xx_HAL_Driver/Src/stm32h5xx_hal_pwr_ex.c **** }
 776              		.loc 1 460 1 is_stmt 0 view .LVU131
 777 0014 7047     		bx	lr
 778              	.L82:
 779 0016 00BF     		.align	2
 780              	.L81:
 781 0018 00080244 		.word	1140983808
 782              		.cfi_endproc
 783              	.LFE316:
 785              		.section	.text.HAL_PWREx_DisableBatteryCharging,"ax",%progbits
 786              		.align	1
 787              		.global	HAL_PWREx_DisableBatteryCharging
 788              		.syntax unified
 789              		.thumb
 790              		.thumb_func
 792              	HAL_PWREx_DisableBatteryCharging:
 793              	.LFB317:
 461:Drivers/STM32H5xx_HAL_Driver/Src/stm32h5xx_hal_pwr_ex.c **** 
 462:Drivers/STM32H5xx_HAL_Driver/Src/stm32h5xx_hal_pwr_ex.c **** /**
 463:Drivers/STM32H5xx_HAL_Driver/Src/stm32h5xx_hal_pwr_ex.c ****   * @brief  Disable the Battery charging.
 464:Drivers/STM32H5xx_HAL_Driver/Src/stm32h5xx_hal_pwr_ex.c ****   * @retval None.
 465:Drivers/STM32H5xx_HAL_Driver/Src/stm32h5xx_hal_pwr_ex.c ****   */
 466:Drivers/STM32H5xx_HAL_Driver/Src/stm32h5xx_hal_pwr_ex.c **** void HAL_PWREx_DisableBatteryCharging(void)
 467:Drivers/STM32H5xx_HAL_Driver/Src/stm32h5xx_hal_pwr_ex.c **** {
 794              		.loc 1 467 1 is_stmt 1 view -0
 795              		.cfi_startproc
 796              		@ args = 0, pretend = 0, frame = 0
 797              		@ frame_needed = 0, uses_anonymous_args = 0
 798              		@ link register save eliminated.
 468:Drivers/STM32H5xx_HAL_Driver/Src/stm32h5xx_hal_pwr_ex.c ****   CLEAR_BIT(PWR->BDCR, PWR_BDCR_VBE);
 799              		.loc 1 468 3 view .LVU133
 800 0000 024A     		ldr	r2, .L84
 801 0002 136A     		ldr	r3, [r2, #32]
 802 0004 23F48073 		bic	r3, r3, #256
 803 0008 1362     		str	r3, [r2, #32]
 469:Drivers/STM32H5xx_HAL_Driver/Src/stm32h5xx_hal_pwr_ex.c **** }
 804              		.loc 1 469 1 is_stmt 0 view .LVU134
 805 000a 7047     		bx	lr
 806              	.L85:
 807              		.align	2
 808              	.L84:
 809 000c 00080244 		.word	1140983808
ARM GAS  C:\Users\DELL\AppData\Local\Temp\ccVJgh0c.s 			page 23


 810              		.cfi_endproc
 811              	.LFE317:
 813              		.section	.text.HAL_PWREx_EnableAnalogBooster,"ax",%progbits
 814              		.align	1
 815              		.global	HAL_PWREx_EnableAnalogBooster
 816              		.syntax unified
 817              		.thumb
 818              		.thumb_func
 820              	HAL_PWREx_EnableAnalogBooster:
 821              	.LFB318:
 470:Drivers/STM32H5xx_HAL_Driver/Src/stm32h5xx_hal_pwr_ex.c **** 
 471:Drivers/STM32H5xx_HAL_Driver/Src/stm32h5xx_hal_pwr_ex.c **** /**
 472:Drivers/STM32H5xx_HAL_Driver/Src/stm32h5xx_hal_pwr_ex.c ****   * @brief Enable the booster to guarantee the analog switch AC performance when
 473:Drivers/STM32H5xx_HAL_Driver/Src/stm32h5xx_hal_pwr_ex.c ****   *        the VDD supply voltage is below 2V7.
 474:Drivers/STM32H5xx_HAL_Driver/Src/stm32h5xx_hal_pwr_ex.c ****   * @note   The VDD supply voltage can be monitored through the PVD and the PLS
 475:Drivers/STM32H5xx_HAL_Driver/Src/stm32h5xx_hal_pwr_ex.c ****   *         field bits.
 476:Drivers/STM32H5xx_HAL_Driver/Src/stm32h5xx_hal_pwr_ex.c ****   * @retval None.
 477:Drivers/STM32H5xx_HAL_Driver/Src/stm32h5xx_hal_pwr_ex.c ****   */
 478:Drivers/STM32H5xx_HAL_Driver/Src/stm32h5xx_hal_pwr_ex.c **** void HAL_PWREx_EnableAnalogBooster(void)
 479:Drivers/STM32H5xx_HAL_Driver/Src/stm32h5xx_hal_pwr_ex.c **** {
 822              		.loc 1 479 1 is_stmt 1 view -0
 823              		.cfi_startproc
 824              		@ args = 0, pretend = 0, frame = 0
 825              		@ frame_needed = 0, uses_anonymous_args = 0
 826              		@ link register save eliminated.
 480:Drivers/STM32H5xx_HAL_Driver/Src/stm32h5xx_hal_pwr_ex.c ****   /* Enable the Analog voltage */
 481:Drivers/STM32H5xx_HAL_Driver/Src/stm32h5xx_hal_pwr_ex.c ****   SET_BIT(PWR->PMCR, PWR_PMCR_AVD_READY);
 827              		.loc 1 481 3 view .LVU136
 828 0000 044B     		ldr	r3, .L87
 829 0002 1A68     		ldr	r2, [r3]
 830 0004 42F40052 		orr	r2, r2, #8192
 831 0008 1A60     		str	r2, [r3]
 482:Drivers/STM32H5xx_HAL_Driver/Src/stm32h5xx_hal_pwr_ex.c **** 
 483:Drivers/STM32H5xx_HAL_Driver/Src/stm32h5xx_hal_pwr_ex.c ****   /* Enable VDDA booster */
 484:Drivers/STM32H5xx_HAL_Driver/Src/stm32h5xx_hal_pwr_ex.c ****   SET_BIT(PWR->PMCR, PWR_PMCR_BOOSTE);
 832              		.loc 1 484 3 view .LVU137
 833 000a 1A68     		ldr	r2, [r3]
 834 000c 42F48052 		orr	r2, r2, #4096
 835 0010 1A60     		str	r2, [r3]
 485:Drivers/STM32H5xx_HAL_Driver/Src/stm32h5xx_hal_pwr_ex.c **** }
 836              		.loc 1 485 1 is_stmt 0 view .LVU138
 837 0012 7047     		bx	lr
 838              	.L88:
 839              		.align	2
 840              	.L87:
 841 0014 00080244 		.word	1140983808
 842              		.cfi_endproc
 843              	.LFE318:
 845              		.section	.text.HAL_PWREx_DisableAnalogBooster,"ax",%progbits
 846              		.align	1
 847              		.global	HAL_PWREx_DisableAnalogBooster
 848              		.syntax unified
 849              		.thumb
 850              		.thumb_func
 852              	HAL_PWREx_DisableAnalogBooster:
 853              	.LFB319:
 486:Drivers/STM32H5xx_HAL_Driver/Src/stm32h5xx_hal_pwr_ex.c **** 
ARM GAS  C:\Users\DELL\AppData\Local\Temp\ccVJgh0c.s 			page 24


 487:Drivers/STM32H5xx_HAL_Driver/Src/stm32h5xx_hal_pwr_ex.c **** /**
 488:Drivers/STM32H5xx_HAL_Driver/Src/stm32h5xx_hal_pwr_ex.c ****   * @brief Disable the analog booster.
 489:Drivers/STM32H5xx_HAL_Driver/Src/stm32h5xx_hal_pwr_ex.c ****   * @retval None.
 490:Drivers/STM32H5xx_HAL_Driver/Src/stm32h5xx_hal_pwr_ex.c ****   */
 491:Drivers/STM32H5xx_HAL_Driver/Src/stm32h5xx_hal_pwr_ex.c **** void HAL_PWREx_DisableAnalogBooster(void)
 492:Drivers/STM32H5xx_HAL_Driver/Src/stm32h5xx_hal_pwr_ex.c **** {
 854              		.loc 1 492 1 is_stmt 1 view -0
 855              		.cfi_startproc
 856              		@ args = 0, pretend = 0, frame = 0
 857              		@ frame_needed = 0, uses_anonymous_args = 0
 858              		@ link register save eliminated.
 493:Drivers/STM32H5xx_HAL_Driver/Src/stm32h5xx_hal_pwr_ex.c ****   /* Disable VDDA booster */
 494:Drivers/STM32H5xx_HAL_Driver/Src/stm32h5xx_hal_pwr_ex.c ****   CLEAR_BIT(PWR->PMCR, PWR_PMCR_BOOSTE);
 859              		.loc 1 494 3 view .LVU140
 860 0000 044B     		ldr	r3, .L90
 861 0002 1A68     		ldr	r2, [r3]
 862 0004 22F48052 		bic	r2, r2, #4096
 863 0008 1A60     		str	r2, [r3]
 495:Drivers/STM32H5xx_HAL_Driver/Src/stm32h5xx_hal_pwr_ex.c **** 
 496:Drivers/STM32H5xx_HAL_Driver/Src/stm32h5xx_hal_pwr_ex.c ****   /* Disable the Analog voltage */
 497:Drivers/STM32H5xx_HAL_Driver/Src/stm32h5xx_hal_pwr_ex.c ****   CLEAR_BIT(PWR->PMCR, PWR_PMCR_AVD_READY);
 864              		.loc 1 497 3 view .LVU141
 865 000a 1A68     		ldr	r2, [r3]
 866 000c 22F40052 		bic	r2, r2, #8192
 867 0010 1A60     		str	r2, [r3]
 498:Drivers/STM32H5xx_HAL_Driver/Src/stm32h5xx_hal_pwr_ex.c **** }
 868              		.loc 1 498 1 is_stmt 0 view .LVU142
 869 0012 7047     		bx	lr
 870              	.L91:
 871              		.align	2
 872              	.L90:
 873 0014 00080244 		.word	1140983808
 874              		.cfi_endproc
 875              	.LFE319:
 877              		.section	.text.HAL_PWREx_PVD_AVD_Rising_Callback,"ax",%progbits
 878              		.align	1
 879              		.weak	HAL_PWREx_PVD_AVD_Rising_Callback
 880              		.syntax unified
 881              		.thumb
 882              		.thumb_func
 884              	HAL_PWREx_PVD_AVD_Rising_Callback:
 885              	.LFB321:
 499:Drivers/STM32H5xx_HAL_Driver/Src/stm32h5xx_hal_pwr_ex.c **** 
 500:Drivers/STM32H5xx_HAL_Driver/Src/stm32h5xx_hal_pwr_ex.c **** /**
 501:Drivers/STM32H5xx_HAL_Driver/Src/stm32h5xx_hal_pwr_ex.c ****   * @brief  This function handles the PWR PVD/AVD interrupt request.
 502:Drivers/STM32H5xx_HAL_Driver/Src/stm32h5xx_hal_pwr_ex.c ****   * @note   This API should be called under the PVD_AVD_IRQHandler().
 503:Drivers/STM32H5xx_HAL_Driver/Src/stm32h5xx_hal_pwr_ex.c ****   * @note   The use of this API is when the PVD and AVD are activated at the same time.
 504:Drivers/STM32H5xx_HAL_Driver/Src/stm32h5xx_hal_pwr_ex.c ****   * @retval None
 505:Drivers/STM32H5xx_HAL_Driver/Src/stm32h5xx_hal_pwr_ex.c ****   */
 506:Drivers/STM32H5xx_HAL_Driver/Src/stm32h5xx_hal_pwr_ex.c **** void HAL_PWREx_PVD_AVD_IRQHandler(void)
 507:Drivers/STM32H5xx_HAL_Driver/Src/stm32h5xx_hal_pwr_ex.c **** {
 508:Drivers/STM32H5xx_HAL_Driver/Src/stm32h5xx_hal_pwr_ex.c ****   /* Check PWR PVD AVD EXTI Rising flag */
 509:Drivers/STM32H5xx_HAL_Driver/Src/stm32h5xx_hal_pwr_ex.c ****   if (__HAL_PWR_PVD_AVD_EXTI_GET_RISING_FLAG() != 0U)
 510:Drivers/STM32H5xx_HAL_Driver/Src/stm32h5xx_hal_pwr_ex.c ****   {
 511:Drivers/STM32H5xx_HAL_Driver/Src/stm32h5xx_hal_pwr_ex.c ****     /* Clear PWR PVD AVD EXTI Rising pending bit */
 512:Drivers/STM32H5xx_HAL_Driver/Src/stm32h5xx_hal_pwr_ex.c ****     WRITE_REG(EXTI->RPR1, PWR_EXTI_LINE_AVD);
 513:Drivers/STM32H5xx_HAL_Driver/Src/stm32h5xx_hal_pwr_ex.c **** 
ARM GAS  C:\Users\DELL\AppData\Local\Temp\ccVJgh0c.s 			page 25


 514:Drivers/STM32H5xx_HAL_Driver/Src/stm32h5xx_hal_pwr_ex.c ****     /* PWR PVD AVD Rising interrupt user callback */
 515:Drivers/STM32H5xx_HAL_Driver/Src/stm32h5xx_hal_pwr_ex.c ****     HAL_PWREx_PVD_AVD_Rising_Callback();
 516:Drivers/STM32H5xx_HAL_Driver/Src/stm32h5xx_hal_pwr_ex.c ****   }
 517:Drivers/STM32H5xx_HAL_Driver/Src/stm32h5xx_hal_pwr_ex.c **** 
 518:Drivers/STM32H5xx_HAL_Driver/Src/stm32h5xx_hal_pwr_ex.c ****   /* Check PWR PVD AVD EXTI Falling flag */
 519:Drivers/STM32H5xx_HAL_Driver/Src/stm32h5xx_hal_pwr_ex.c ****   if (__HAL_PWR_PVD_AVD_EXTI_GET_FALLING_FLAG() != 0U)
 520:Drivers/STM32H5xx_HAL_Driver/Src/stm32h5xx_hal_pwr_ex.c ****   {
 521:Drivers/STM32H5xx_HAL_Driver/Src/stm32h5xx_hal_pwr_ex.c ****     /* Clear PWR PVD AVD EXTI Falling pending bit */
 522:Drivers/STM32H5xx_HAL_Driver/Src/stm32h5xx_hal_pwr_ex.c ****     WRITE_REG(EXTI->FPR1, PWR_EXTI_LINE_AVD);
 523:Drivers/STM32H5xx_HAL_Driver/Src/stm32h5xx_hal_pwr_ex.c **** 
 524:Drivers/STM32H5xx_HAL_Driver/Src/stm32h5xx_hal_pwr_ex.c ****     /* PWR PVD AVD Falling interrupt user callback */
 525:Drivers/STM32H5xx_HAL_Driver/Src/stm32h5xx_hal_pwr_ex.c ****     HAL_PWREx_PVD_AVD_Falling_Callback();
 526:Drivers/STM32H5xx_HAL_Driver/Src/stm32h5xx_hal_pwr_ex.c ****   }
 527:Drivers/STM32H5xx_HAL_Driver/Src/stm32h5xx_hal_pwr_ex.c **** }
 528:Drivers/STM32H5xx_HAL_Driver/Src/stm32h5xx_hal_pwr_ex.c **** 
 529:Drivers/STM32H5xx_HAL_Driver/Src/stm32h5xx_hal_pwr_ex.c **** /**
 530:Drivers/STM32H5xx_HAL_Driver/Src/stm32h5xx_hal_pwr_ex.c ****   * @brief PWR PVD AVD Rising interrupt callback.
 531:Drivers/STM32H5xx_HAL_Driver/Src/stm32h5xx_hal_pwr_ex.c ****   * @retval None.
 532:Drivers/STM32H5xx_HAL_Driver/Src/stm32h5xx_hal_pwr_ex.c ****   */
 533:Drivers/STM32H5xx_HAL_Driver/Src/stm32h5xx_hal_pwr_ex.c **** __weak void HAL_PWREx_PVD_AVD_Rising_Callback(void)
 534:Drivers/STM32H5xx_HAL_Driver/Src/stm32h5xx_hal_pwr_ex.c **** {
 886              		.loc 1 534 1 is_stmt 1 view -0
 887              		.cfi_startproc
 888              		@ args = 0, pretend = 0, frame = 0
 889              		@ frame_needed = 0, uses_anonymous_args = 0
 890              		@ link register save eliminated.
 535:Drivers/STM32H5xx_HAL_Driver/Src/stm32h5xx_hal_pwr_ex.c ****   /* NOTE : This function should not be modified, when the callback is needed,
 536:Drivers/STM32H5xx_HAL_Driver/Src/stm32h5xx_hal_pwr_ex.c ****             the HAL_PWR_AVDCallback can be implemented in the user file
 537:Drivers/STM32H5xx_HAL_Driver/Src/stm32h5xx_hal_pwr_ex.c ****   */
 538:Drivers/STM32H5xx_HAL_Driver/Src/stm32h5xx_hal_pwr_ex.c **** }
 891              		.loc 1 538 1 view .LVU144
 892 0000 7047     		bx	lr
 893              		.cfi_endproc
 894              	.LFE321:
 896              		.section	.text.HAL_PWREx_PVD_AVD_Falling_Callback,"ax",%progbits
 897              		.align	1
 898              		.weak	HAL_PWREx_PVD_AVD_Falling_Callback
 899              		.syntax unified
 900              		.thumb
 901              		.thumb_func
 903              	HAL_PWREx_PVD_AVD_Falling_Callback:
 904              	.LFB322:
 539:Drivers/STM32H5xx_HAL_Driver/Src/stm32h5xx_hal_pwr_ex.c **** 
 540:Drivers/STM32H5xx_HAL_Driver/Src/stm32h5xx_hal_pwr_ex.c **** /**
 541:Drivers/STM32H5xx_HAL_Driver/Src/stm32h5xx_hal_pwr_ex.c ****   * @brief PWR PVD AVD Falling interrupt callback.
 542:Drivers/STM32H5xx_HAL_Driver/Src/stm32h5xx_hal_pwr_ex.c ****   * @retval None.
 543:Drivers/STM32H5xx_HAL_Driver/Src/stm32h5xx_hal_pwr_ex.c ****   */
 544:Drivers/STM32H5xx_HAL_Driver/Src/stm32h5xx_hal_pwr_ex.c **** __weak void HAL_PWREx_PVD_AVD_Falling_Callback(void)
 545:Drivers/STM32H5xx_HAL_Driver/Src/stm32h5xx_hal_pwr_ex.c **** {
 905              		.loc 1 545 1 view -0
 906              		.cfi_startproc
 907              		@ args = 0, pretend = 0, frame = 0
 908              		@ frame_needed = 0, uses_anonymous_args = 0
 909              		@ link register save eliminated.
 546:Drivers/STM32H5xx_HAL_Driver/Src/stm32h5xx_hal_pwr_ex.c ****   /* NOTE : This function should not be modified, when the callback is needed,
 547:Drivers/STM32H5xx_HAL_Driver/Src/stm32h5xx_hal_pwr_ex.c ****             the HAL_PWR_AVDCallback can be implemented in the user file
 548:Drivers/STM32H5xx_HAL_Driver/Src/stm32h5xx_hal_pwr_ex.c ****   */
ARM GAS  C:\Users\DELL\AppData\Local\Temp\ccVJgh0c.s 			page 26


 549:Drivers/STM32H5xx_HAL_Driver/Src/stm32h5xx_hal_pwr_ex.c **** }
 910              		.loc 1 549 1 view .LVU146
 911 0000 7047     		bx	lr
 912              		.cfi_endproc
 913              	.LFE322:
 915              		.section	.text.HAL_PWREx_PVD_AVD_IRQHandler,"ax",%progbits
 916              		.align	1
 917              		.global	HAL_PWREx_PVD_AVD_IRQHandler
 918              		.syntax unified
 919              		.thumb
 920              		.thumb_func
 922              	HAL_PWREx_PVD_AVD_IRQHandler:
 923              	.LFB320:
 507:Drivers/STM32H5xx_HAL_Driver/Src/stm32h5xx_hal_pwr_ex.c ****   /* Check PWR PVD AVD EXTI Rising flag */
 924              		.loc 1 507 1 view -0
 925              		.cfi_startproc
 926              		@ args = 0, pretend = 0, frame = 0
 927              		@ frame_needed = 0, uses_anonymous_args = 0
 928 0000 08B5     		push	{r3, lr}
 929              	.LCFI2:
 930              		.cfi_def_cfa_offset 8
 931              		.cfi_offset 3, -8
 932              		.cfi_offset 14, -4
 509:Drivers/STM32H5xx_HAL_Driver/Src/stm32h5xx_hal_pwr_ex.c ****   {
 933              		.loc 1 509 3 view .LVU148
 509:Drivers/STM32H5xx_HAL_Driver/Src/stm32h5xx_hal_pwr_ex.c ****   {
 934              		.loc 1 509 7 is_stmt 0 view .LVU149
 935 0002 0C4B     		ldr	r3, .L100
 936 0004 DB68     		ldr	r3, [r3, #12]
 509:Drivers/STM32H5xx_HAL_Driver/Src/stm32h5xx_hal_pwr_ex.c ****   {
 937              		.loc 1 509 6 view .LVU150
 938 0006 13F4803F 		tst	r3, #65536
 939 000a 05D1     		bne	.L98
 940              	.L95:
 519:Drivers/STM32H5xx_HAL_Driver/Src/stm32h5xx_hal_pwr_ex.c ****   {
 941              		.loc 1 519 3 is_stmt 1 view .LVU151
 519:Drivers/STM32H5xx_HAL_Driver/Src/stm32h5xx_hal_pwr_ex.c ****   {
 942              		.loc 1 519 7 is_stmt 0 view .LVU152
 943 000c 094B     		ldr	r3, .L100
 944 000e 1B69     		ldr	r3, [r3, #16]
 519:Drivers/STM32H5xx_HAL_Driver/Src/stm32h5xx_hal_pwr_ex.c ****   {
 945              		.loc 1 519 6 view .LVU153
 946 0010 13F4803F 		tst	r3, #65536
 947 0014 07D1     		bne	.L99
 948              	.L94:
 527:Drivers/STM32H5xx_HAL_Driver/Src/stm32h5xx_hal_pwr_ex.c **** 
 949              		.loc 1 527 1 view .LVU154
 950 0016 08BD     		pop	{r3, pc}
 951              	.L98:
 512:Drivers/STM32H5xx_HAL_Driver/Src/stm32h5xx_hal_pwr_ex.c **** 
 952              		.loc 1 512 5 is_stmt 1 view .LVU155
 953 0018 064B     		ldr	r3, .L100
 954 001a 4FF48032 		mov	r2, #65536
 955 001e DA60     		str	r2, [r3, #12]
 515:Drivers/STM32H5xx_HAL_Driver/Src/stm32h5xx_hal_pwr_ex.c ****   }
 956              		.loc 1 515 5 view .LVU156
 957 0020 FFF7FEFF 		bl	HAL_PWREx_PVD_AVD_Rising_Callback
ARM GAS  C:\Users\DELL\AppData\Local\Temp\ccVJgh0c.s 			page 27


 958              	.LVL18:
 959 0024 F2E7     		b	.L95
 960              	.L99:
 522:Drivers/STM32H5xx_HAL_Driver/Src/stm32h5xx_hal_pwr_ex.c **** 
 961              		.loc 1 522 5 view .LVU157
 962 0026 034B     		ldr	r3, .L100
 963 0028 4FF48032 		mov	r2, #65536
 964 002c 1A61     		str	r2, [r3, #16]
 525:Drivers/STM32H5xx_HAL_Driver/Src/stm32h5xx_hal_pwr_ex.c ****   }
 965              		.loc 1 525 5 view .LVU158
 966 002e FFF7FEFF 		bl	HAL_PWREx_PVD_AVD_Falling_Callback
 967              	.LVL19:
 527:Drivers/STM32H5xx_HAL_Driver/Src/stm32h5xx_hal_pwr_ex.c **** 
 968              		.loc 1 527 1 is_stmt 0 view .LVU159
 969 0032 F0E7     		b	.L94
 970              	.L101:
 971              		.align	2
 972              	.L100:
 973 0034 00200244 		.word	1140989952
 974              		.cfi_endproc
 975              	.LFE320:
 977              		.section	.text.HAL_PWREx_EnableWakeUpPin,"ax",%progbits
 978              		.align	1
 979              		.global	HAL_PWREx_EnableWakeUpPin
 980              		.syntax unified
 981              		.thumb
 982              		.thumb_func
 984              	HAL_PWREx_EnableWakeUpPin:
 985              	.LVL20:
 986              	.LFB323:
 550:Drivers/STM32H5xx_HAL_Driver/Src/stm32h5xx_hal_pwr_ex.c **** /**
 551:Drivers/STM32H5xx_HAL_Driver/Src/stm32h5xx_hal_pwr_ex.c ****   * @}
 552:Drivers/STM32H5xx_HAL_Driver/Src/stm32h5xx_hal_pwr_ex.c ****   */
 553:Drivers/STM32H5xx_HAL_Driver/Src/stm32h5xx_hal_pwr_ex.c **** 
 554:Drivers/STM32H5xx_HAL_Driver/Src/stm32h5xx_hal_pwr_ex.c **** /** @defgroup PWREx_Exported_Functions_Group3 Wakeup Pins configuration Functions
 555:Drivers/STM32H5xx_HAL_Driver/Src/stm32h5xx_hal_pwr_ex.c ****   * @brief    Wakeup Pins configuration functions
 556:Drivers/STM32H5xx_HAL_Driver/Src/stm32h5xx_hal_pwr_ex.c ****   *
 557:Drivers/STM32H5xx_HAL_Driver/Src/stm32h5xx_hal_pwr_ex.c **** @verbatim
 558:Drivers/STM32H5xx_HAL_Driver/Src/stm32h5xx_hal_pwr_ex.c ****  ===============================================================================
 559:Drivers/STM32H5xx_HAL_Driver/Src/stm32h5xx_hal_pwr_ex.c ****                      ##### Wakeup Pins configuration Functions #####
 560:Drivers/STM32H5xx_HAL_Driver/Src/stm32h5xx_hal_pwr_ex.c ****  ===============================================================================
 561:Drivers/STM32H5xx_HAL_Driver/Src/stm32h5xx_hal_pwr_ex.c ****     [..]
 562:Drivers/STM32H5xx_HAL_Driver/Src/stm32h5xx_hal_pwr_ex.c **** @endverbatim
 563:Drivers/STM32H5xx_HAL_Driver/Src/stm32h5xx_hal_pwr_ex.c ****   * @{
 564:Drivers/STM32H5xx_HAL_Driver/Src/stm32h5xx_hal_pwr_ex.c ****   */
 565:Drivers/STM32H5xx_HAL_Driver/Src/stm32h5xx_hal_pwr_ex.c **** 
 566:Drivers/STM32H5xx_HAL_Driver/Src/stm32h5xx_hal_pwr_ex.c **** /**
 567:Drivers/STM32H5xx_HAL_Driver/Src/stm32h5xx_hal_pwr_ex.c ****   * @brief Enable the Wake-up PINx functionality.
 568:Drivers/STM32H5xx_HAL_Driver/Src/stm32h5xx_hal_pwr_ex.c ****   * @param  sPinParams : Pointer to a PWREx_WakeupPinTypeDef structure that
 569:Drivers/STM32H5xx_HAL_Driver/Src/stm32h5xx_hal_pwr_ex.c ****   *                      contains the configuration information for the wake-up
 570:Drivers/STM32H5xx_HAL_Driver/Src/stm32h5xx_hal_pwr_ex.c ****   *                      Pin.
 571:Drivers/STM32H5xx_HAL_Driver/Src/stm32h5xx_hal_pwr_ex.c ****   * @retval None.
 572:Drivers/STM32H5xx_HAL_Driver/Src/stm32h5xx_hal_pwr_ex.c ****   */
 573:Drivers/STM32H5xx_HAL_Driver/Src/stm32h5xx_hal_pwr_ex.c **** void HAL_PWREx_EnableWakeUpPin(const PWREx_WakeupPinTypeDef *sPinParams)
 574:Drivers/STM32H5xx_HAL_Driver/Src/stm32h5xx_hal_pwr_ex.c **** {
 987              		.loc 1 574 1 is_stmt 1 view -0
 988              		.cfi_startproc
ARM GAS  C:\Users\DELL\AppData\Local\Temp\ccVJgh0c.s 			page 28


 989              		@ args = 0, pretend = 0, frame = 0
 990              		@ frame_needed = 0, uses_anonymous_args = 0
 991              		@ link register save eliminated.
 575:Drivers/STM32H5xx_HAL_Driver/Src/stm32h5xx_hal_pwr_ex.c ****   uint32_t pinConfig;
 992              		.loc 1 575 3 view .LVU161
 576:Drivers/STM32H5xx_HAL_Driver/Src/stm32h5xx_hal_pwr_ex.c ****   uint32_t regMask;
 993              		.loc 1 576 3 view .LVU162
 577:Drivers/STM32H5xx_HAL_Driver/Src/stm32h5xx_hal_pwr_ex.c ****   const uint32_t pullMask = PWR_WUCR_WUPPUPD1;
 994              		.loc 1 577 3 view .LVU163
 578:Drivers/STM32H5xx_HAL_Driver/Src/stm32h5xx_hal_pwr_ex.c **** 
 579:Drivers/STM32H5xx_HAL_Driver/Src/stm32h5xx_hal_pwr_ex.c ****   /* Check the parameters */
 580:Drivers/STM32H5xx_HAL_Driver/Src/stm32h5xx_hal_pwr_ex.c ****   assert_param(IS_PWR_WAKEUP_PIN(sPinParams->WakeUpPin));
 995              		.loc 1 580 3 view .LVU164
 581:Drivers/STM32H5xx_HAL_Driver/Src/stm32h5xx_hal_pwr_ex.c ****   assert_param(IS_PWR_WAKEUP_PIN_POLARITY(sPinParams->PinPolarity));
 996              		.loc 1 581 3 view .LVU165
 582:Drivers/STM32H5xx_HAL_Driver/Src/stm32h5xx_hal_pwr_ex.c ****   assert_param(IS_PWR_WAKEUP_PIN_PULL(sPinParams->PinPull));
 997              		.loc 1 582 3 view .LVU166
 583:Drivers/STM32H5xx_HAL_Driver/Src/stm32h5xx_hal_pwr_ex.c **** 
 584:Drivers/STM32H5xx_HAL_Driver/Src/stm32h5xx_hal_pwr_ex.c ****   pinConfig = sPinParams->WakeUpPin | \
 998              		.loc 1 584 3 view .LVU167
 999              		.loc 1 584 25 is_stmt 0 view .LVU168
 1000 0000 0368     		ldr	r3, [r0]
 585:Drivers/STM32H5xx_HAL_Driver/Src/stm32h5xx_hal_pwr_ex.c ****               (sPinParams->PinPolarity << ((POSITION_VAL(sPinParams->WakeUpPin) + PWR_WUCR_WUPP1_Po
 1001              		.loc 1 585 26 view .LVU169
 1002 0002 4168     		ldr	r1, [r0, #4]
 1003              	.LVL21:
 1004              	.LBB18:
 1005              	.LBI18:
 1006              		.file 2 "Drivers/CMSIS/Include/cmsis_gcc.h"
   1:Drivers/CMSIS/Include/cmsis_gcc.h **** /**************************************************************************//**
   2:Drivers/CMSIS/Include/cmsis_gcc.h ****  * @file     cmsis_gcc.h
   3:Drivers/CMSIS/Include/cmsis_gcc.h ****  * @brief    CMSIS compiler GCC header file
   4:Drivers/CMSIS/Include/cmsis_gcc.h ****  * @version  V5.4.1
   5:Drivers/CMSIS/Include/cmsis_gcc.h ****  * @date     27. May 2021
   6:Drivers/CMSIS/Include/cmsis_gcc.h ****  ******************************************************************************/
   7:Drivers/CMSIS/Include/cmsis_gcc.h **** /*
   8:Drivers/CMSIS/Include/cmsis_gcc.h ****  * Copyright (c) 2009-2021 Arm Limited. All rights reserved.
   9:Drivers/CMSIS/Include/cmsis_gcc.h ****  *
  10:Drivers/CMSIS/Include/cmsis_gcc.h ****  * SPDX-License-Identifier: Apache-2.0
  11:Drivers/CMSIS/Include/cmsis_gcc.h ****  *
  12:Drivers/CMSIS/Include/cmsis_gcc.h ****  * Licensed under the Apache License, Version 2.0 (the License); you may
  13:Drivers/CMSIS/Include/cmsis_gcc.h ****  * not use this file except in compliance with the License.
  14:Drivers/CMSIS/Include/cmsis_gcc.h ****  * You may obtain a copy of the License at
  15:Drivers/CMSIS/Include/cmsis_gcc.h ****  *
  16:Drivers/CMSIS/Include/cmsis_gcc.h ****  * www.apache.org/licenses/LICENSE-2.0
  17:Drivers/CMSIS/Include/cmsis_gcc.h ****  *
  18:Drivers/CMSIS/Include/cmsis_gcc.h ****  * Unless required by applicable law or agreed to in writing, software
  19:Drivers/CMSIS/Include/cmsis_gcc.h ****  * distributed under the License is distributed on an AS IS BASIS, WITHOUT
  20:Drivers/CMSIS/Include/cmsis_gcc.h ****  * WARRANTIES OR CONDITIONS OF ANY KIND, either express or implied.
  21:Drivers/CMSIS/Include/cmsis_gcc.h ****  * See the License for the specific language governing permissions and
  22:Drivers/CMSIS/Include/cmsis_gcc.h ****  * limitations under the License.
  23:Drivers/CMSIS/Include/cmsis_gcc.h ****  */
  24:Drivers/CMSIS/Include/cmsis_gcc.h **** 
  25:Drivers/CMSIS/Include/cmsis_gcc.h **** #ifndef __CMSIS_GCC_H
  26:Drivers/CMSIS/Include/cmsis_gcc.h **** #define __CMSIS_GCC_H
  27:Drivers/CMSIS/Include/cmsis_gcc.h **** 
  28:Drivers/CMSIS/Include/cmsis_gcc.h **** /* ignore some GCC warnings */
ARM GAS  C:\Users\DELL\AppData\Local\Temp\ccVJgh0c.s 			page 29


  29:Drivers/CMSIS/Include/cmsis_gcc.h **** #pragma GCC diagnostic push
  30:Drivers/CMSIS/Include/cmsis_gcc.h **** #pragma GCC diagnostic ignored "-Wsign-conversion"
  31:Drivers/CMSIS/Include/cmsis_gcc.h **** #pragma GCC diagnostic ignored "-Wconversion"
  32:Drivers/CMSIS/Include/cmsis_gcc.h **** #pragma GCC diagnostic ignored "-Wunused-parameter"
  33:Drivers/CMSIS/Include/cmsis_gcc.h **** 
  34:Drivers/CMSIS/Include/cmsis_gcc.h **** /* Fallback for __has_builtin */
  35:Drivers/CMSIS/Include/cmsis_gcc.h **** #ifndef __has_builtin
  36:Drivers/CMSIS/Include/cmsis_gcc.h ****   #define __has_builtin(x) (0)
  37:Drivers/CMSIS/Include/cmsis_gcc.h **** #endif
  38:Drivers/CMSIS/Include/cmsis_gcc.h **** 
  39:Drivers/CMSIS/Include/cmsis_gcc.h **** /* CMSIS compiler specific defines */
  40:Drivers/CMSIS/Include/cmsis_gcc.h **** #ifndef   __ASM
  41:Drivers/CMSIS/Include/cmsis_gcc.h ****   #define __ASM                                  __asm
  42:Drivers/CMSIS/Include/cmsis_gcc.h **** #endif
  43:Drivers/CMSIS/Include/cmsis_gcc.h **** #ifndef   __INLINE
  44:Drivers/CMSIS/Include/cmsis_gcc.h ****   #define __INLINE                               inline
  45:Drivers/CMSIS/Include/cmsis_gcc.h **** #endif
  46:Drivers/CMSIS/Include/cmsis_gcc.h **** #ifndef   __STATIC_INLINE
  47:Drivers/CMSIS/Include/cmsis_gcc.h ****   #define __STATIC_INLINE                        static inline
  48:Drivers/CMSIS/Include/cmsis_gcc.h **** #endif
  49:Drivers/CMSIS/Include/cmsis_gcc.h **** #ifndef   __STATIC_FORCEINLINE
  50:Drivers/CMSIS/Include/cmsis_gcc.h ****   #define __STATIC_FORCEINLINE                   __attribute__((always_inline)) static inline
  51:Drivers/CMSIS/Include/cmsis_gcc.h **** #endif
  52:Drivers/CMSIS/Include/cmsis_gcc.h **** #ifndef   __NO_RETURN
  53:Drivers/CMSIS/Include/cmsis_gcc.h ****   #define __NO_RETURN                            __attribute__((__noreturn__))
  54:Drivers/CMSIS/Include/cmsis_gcc.h **** #endif
  55:Drivers/CMSIS/Include/cmsis_gcc.h **** #ifndef   __USED
  56:Drivers/CMSIS/Include/cmsis_gcc.h ****   #define __USED                                 __attribute__((used))
  57:Drivers/CMSIS/Include/cmsis_gcc.h **** #endif
  58:Drivers/CMSIS/Include/cmsis_gcc.h **** #ifndef   __WEAK
  59:Drivers/CMSIS/Include/cmsis_gcc.h ****   #define __WEAK                                 __attribute__((weak))
  60:Drivers/CMSIS/Include/cmsis_gcc.h **** #endif
  61:Drivers/CMSIS/Include/cmsis_gcc.h **** #ifndef   __PACKED
  62:Drivers/CMSIS/Include/cmsis_gcc.h ****   #define __PACKED                               __attribute__((packed, aligned(1)))
  63:Drivers/CMSIS/Include/cmsis_gcc.h **** #endif
  64:Drivers/CMSIS/Include/cmsis_gcc.h **** #ifndef   __PACKED_STRUCT
  65:Drivers/CMSIS/Include/cmsis_gcc.h ****   #define __PACKED_STRUCT                        struct __attribute__((packed, aligned(1)))
  66:Drivers/CMSIS/Include/cmsis_gcc.h **** #endif
  67:Drivers/CMSIS/Include/cmsis_gcc.h **** #ifndef   __PACKED_UNION
  68:Drivers/CMSIS/Include/cmsis_gcc.h ****   #define __PACKED_UNION                         union __attribute__((packed, aligned(1)))
  69:Drivers/CMSIS/Include/cmsis_gcc.h **** #endif
  70:Drivers/CMSIS/Include/cmsis_gcc.h **** #ifndef   __UNALIGNED_UINT32        /* deprecated */
  71:Drivers/CMSIS/Include/cmsis_gcc.h ****   #pragma GCC diagnostic push
  72:Drivers/CMSIS/Include/cmsis_gcc.h ****   #pragma GCC diagnostic ignored "-Wpacked"
  73:Drivers/CMSIS/Include/cmsis_gcc.h ****   #pragma GCC diagnostic ignored "-Wattributes"
  74:Drivers/CMSIS/Include/cmsis_gcc.h ****   struct __attribute__((packed)) T_UINT32 { uint32_t v; };
  75:Drivers/CMSIS/Include/cmsis_gcc.h ****   #pragma GCC diagnostic pop
  76:Drivers/CMSIS/Include/cmsis_gcc.h ****   #define __UNALIGNED_UINT32(x)                  (((struct T_UINT32 *)(x))->v)
  77:Drivers/CMSIS/Include/cmsis_gcc.h **** #endif
  78:Drivers/CMSIS/Include/cmsis_gcc.h **** #ifndef   __UNALIGNED_UINT16_WRITE
  79:Drivers/CMSIS/Include/cmsis_gcc.h ****   #pragma GCC diagnostic push
  80:Drivers/CMSIS/Include/cmsis_gcc.h ****   #pragma GCC diagnostic ignored "-Wpacked"
  81:Drivers/CMSIS/Include/cmsis_gcc.h ****   #pragma GCC diagnostic ignored "-Wattributes"
  82:Drivers/CMSIS/Include/cmsis_gcc.h ****   __PACKED_STRUCT T_UINT16_WRITE { uint16_t v; };
  83:Drivers/CMSIS/Include/cmsis_gcc.h ****   #pragma GCC diagnostic pop
  84:Drivers/CMSIS/Include/cmsis_gcc.h ****   #define __UNALIGNED_UINT16_WRITE(addr, val)    (void)((((struct T_UINT16_WRITE *)(void *)(addr))-
  85:Drivers/CMSIS/Include/cmsis_gcc.h **** #endif
ARM GAS  C:\Users\DELL\AppData\Local\Temp\ccVJgh0c.s 			page 30


  86:Drivers/CMSIS/Include/cmsis_gcc.h **** #ifndef   __UNALIGNED_UINT16_READ
  87:Drivers/CMSIS/Include/cmsis_gcc.h ****   #pragma GCC diagnostic push
  88:Drivers/CMSIS/Include/cmsis_gcc.h ****   #pragma GCC diagnostic ignored "-Wpacked"
  89:Drivers/CMSIS/Include/cmsis_gcc.h ****   #pragma GCC diagnostic ignored "-Wattributes"
  90:Drivers/CMSIS/Include/cmsis_gcc.h ****   __PACKED_STRUCT T_UINT16_READ { uint16_t v; };
  91:Drivers/CMSIS/Include/cmsis_gcc.h ****   #pragma GCC diagnostic pop
  92:Drivers/CMSIS/Include/cmsis_gcc.h ****   #define __UNALIGNED_UINT16_READ(addr)          (((const struct T_UINT16_READ *)(const void *)(add
  93:Drivers/CMSIS/Include/cmsis_gcc.h **** #endif
  94:Drivers/CMSIS/Include/cmsis_gcc.h **** #ifndef   __UNALIGNED_UINT32_WRITE
  95:Drivers/CMSIS/Include/cmsis_gcc.h ****   #pragma GCC diagnostic push
  96:Drivers/CMSIS/Include/cmsis_gcc.h ****   #pragma GCC diagnostic ignored "-Wpacked"
  97:Drivers/CMSIS/Include/cmsis_gcc.h ****   #pragma GCC diagnostic ignored "-Wattributes"
  98:Drivers/CMSIS/Include/cmsis_gcc.h ****   __PACKED_STRUCT T_UINT32_WRITE { uint32_t v; };
  99:Drivers/CMSIS/Include/cmsis_gcc.h ****   #pragma GCC diagnostic pop
 100:Drivers/CMSIS/Include/cmsis_gcc.h ****   #define __UNALIGNED_UINT32_WRITE(addr, val)    (void)((((struct T_UINT32_WRITE *)(void *)(addr))-
 101:Drivers/CMSIS/Include/cmsis_gcc.h **** #endif
 102:Drivers/CMSIS/Include/cmsis_gcc.h **** #ifndef   __UNALIGNED_UINT32_READ
 103:Drivers/CMSIS/Include/cmsis_gcc.h ****   #pragma GCC diagnostic push
 104:Drivers/CMSIS/Include/cmsis_gcc.h ****   #pragma GCC diagnostic ignored "-Wpacked"
 105:Drivers/CMSIS/Include/cmsis_gcc.h ****   #pragma GCC diagnostic ignored "-Wattributes"
 106:Drivers/CMSIS/Include/cmsis_gcc.h ****   __PACKED_STRUCT T_UINT32_READ { uint32_t v; };
 107:Drivers/CMSIS/Include/cmsis_gcc.h ****   #pragma GCC diagnostic pop
 108:Drivers/CMSIS/Include/cmsis_gcc.h ****   #define __UNALIGNED_UINT32_READ(addr)          (((const struct T_UINT32_READ *)(const void *)(add
 109:Drivers/CMSIS/Include/cmsis_gcc.h **** #endif
 110:Drivers/CMSIS/Include/cmsis_gcc.h **** #ifndef   __ALIGNED
 111:Drivers/CMSIS/Include/cmsis_gcc.h ****   #define __ALIGNED(x)                           __attribute__((aligned(x)))
 112:Drivers/CMSIS/Include/cmsis_gcc.h **** #endif
 113:Drivers/CMSIS/Include/cmsis_gcc.h **** #ifndef   __RESTRICT
 114:Drivers/CMSIS/Include/cmsis_gcc.h ****   #define __RESTRICT                             __restrict
 115:Drivers/CMSIS/Include/cmsis_gcc.h **** #endif
 116:Drivers/CMSIS/Include/cmsis_gcc.h **** #ifndef   __COMPILER_BARRIER
 117:Drivers/CMSIS/Include/cmsis_gcc.h ****   #define __COMPILER_BARRIER()                   __ASM volatile("":::"memory")
 118:Drivers/CMSIS/Include/cmsis_gcc.h **** #endif
 119:Drivers/CMSIS/Include/cmsis_gcc.h **** 
 120:Drivers/CMSIS/Include/cmsis_gcc.h **** /* #########################  Startup and Lowlevel Init  ######################## */
 121:Drivers/CMSIS/Include/cmsis_gcc.h **** 
 122:Drivers/CMSIS/Include/cmsis_gcc.h **** #ifndef __PROGRAM_START
 123:Drivers/CMSIS/Include/cmsis_gcc.h **** 
 124:Drivers/CMSIS/Include/cmsis_gcc.h **** /**
 125:Drivers/CMSIS/Include/cmsis_gcc.h ****   \brief   Initializes data and bss sections
 126:Drivers/CMSIS/Include/cmsis_gcc.h ****   \details This default implementations initialized all data and additional bss
 127:Drivers/CMSIS/Include/cmsis_gcc.h ****            sections relying on .copy.table and .zero.table specified properly
 128:Drivers/CMSIS/Include/cmsis_gcc.h ****            in the used linker script.
 129:Drivers/CMSIS/Include/cmsis_gcc.h **** 
 130:Drivers/CMSIS/Include/cmsis_gcc.h ****  */
 131:Drivers/CMSIS/Include/cmsis_gcc.h **** __STATIC_FORCEINLINE __NO_RETURN void __cmsis_start(void)
 132:Drivers/CMSIS/Include/cmsis_gcc.h **** {
 133:Drivers/CMSIS/Include/cmsis_gcc.h ****   extern void _start(void) __NO_RETURN;
 134:Drivers/CMSIS/Include/cmsis_gcc.h **** 
 135:Drivers/CMSIS/Include/cmsis_gcc.h ****   typedef struct {
 136:Drivers/CMSIS/Include/cmsis_gcc.h ****     uint32_t const* src;
 137:Drivers/CMSIS/Include/cmsis_gcc.h ****     uint32_t* dest;
 138:Drivers/CMSIS/Include/cmsis_gcc.h ****     uint32_t  wlen;
 139:Drivers/CMSIS/Include/cmsis_gcc.h ****   } __copy_table_t;
 140:Drivers/CMSIS/Include/cmsis_gcc.h **** 
 141:Drivers/CMSIS/Include/cmsis_gcc.h ****   typedef struct {
 142:Drivers/CMSIS/Include/cmsis_gcc.h ****     uint32_t* dest;
ARM GAS  C:\Users\DELL\AppData\Local\Temp\ccVJgh0c.s 			page 31


 143:Drivers/CMSIS/Include/cmsis_gcc.h ****     uint32_t  wlen;
 144:Drivers/CMSIS/Include/cmsis_gcc.h ****   } __zero_table_t;
 145:Drivers/CMSIS/Include/cmsis_gcc.h **** 
 146:Drivers/CMSIS/Include/cmsis_gcc.h ****   extern const __copy_table_t __copy_table_start__;
 147:Drivers/CMSIS/Include/cmsis_gcc.h ****   extern const __copy_table_t __copy_table_end__;
 148:Drivers/CMSIS/Include/cmsis_gcc.h ****   extern const __zero_table_t __zero_table_start__;
 149:Drivers/CMSIS/Include/cmsis_gcc.h ****   extern const __zero_table_t __zero_table_end__;
 150:Drivers/CMSIS/Include/cmsis_gcc.h **** 
 151:Drivers/CMSIS/Include/cmsis_gcc.h ****   for (__copy_table_t const* pTable = &__copy_table_start__; pTable < &__copy_table_end__; ++pTable
 152:Drivers/CMSIS/Include/cmsis_gcc.h ****     for(uint32_t i=0u; i<pTable->wlen; ++i) {
 153:Drivers/CMSIS/Include/cmsis_gcc.h ****       pTable->dest[i] = pTable->src[i];
 154:Drivers/CMSIS/Include/cmsis_gcc.h ****     }
 155:Drivers/CMSIS/Include/cmsis_gcc.h ****   }
 156:Drivers/CMSIS/Include/cmsis_gcc.h **** 
 157:Drivers/CMSIS/Include/cmsis_gcc.h ****   for (__zero_table_t const* pTable = &__zero_table_start__; pTable < &__zero_table_end__; ++pTable
 158:Drivers/CMSIS/Include/cmsis_gcc.h ****     for(uint32_t i=0u; i<pTable->wlen; ++i) {
 159:Drivers/CMSIS/Include/cmsis_gcc.h ****       pTable->dest[i] = 0u;
 160:Drivers/CMSIS/Include/cmsis_gcc.h ****     }
 161:Drivers/CMSIS/Include/cmsis_gcc.h ****   }
 162:Drivers/CMSIS/Include/cmsis_gcc.h **** 
 163:Drivers/CMSIS/Include/cmsis_gcc.h ****   _start();
 164:Drivers/CMSIS/Include/cmsis_gcc.h **** }
 165:Drivers/CMSIS/Include/cmsis_gcc.h **** 
 166:Drivers/CMSIS/Include/cmsis_gcc.h **** #define __PROGRAM_START           __cmsis_start
 167:Drivers/CMSIS/Include/cmsis_gcc.h **** #endif
 168:Drivers/CMSIS/Include/cmsis_gcc.h **** 
 169:Drivers/CMSIS/Include/cmsis_gcc.h **** #ifndef __INITIAL_SP
 170:Drivers/CMSIS/Include/cmsis_gcc.h **** #define __INITIAL_SP              __StackTop
 171:Drivers/CMSIS/Include/cmsis_gcc.h **** #endif
 172:Drivers/CMSIS/Include/cmsis_gcc.h **** 
 173:Drivers/CMSIS/Include/cmsis_gcc.h **** #ifndef __STACK_LIMIT
 174:Drivers/CMSIS/Include/cmsis_gcc.h **** #define __STACK_LIMIT             __StackLimit
 175:Drivers/CMSIS/Include/cmsis_gcc.h **** #endif
 176:Drivers/CMSIS/Include/cmsis_gcc.h **** 
 177:Drivers/CMSIS/Include/cmsis_gcc.h **** #ifndef __VECTOR_TABLE
 178:Drivers/CMSIS/Include/cmsis_gcc.h **** #define __VECTOR_TABLE            __Vectors
 179:Drivers/CMSIS/Include/cmsis_gcc.h **** #endif
 180:Drivers/CMSIS/Include/cmsis_gcc.h **** 
 181:Drivers/CMSIS/Include/cmsis_gcc.h **** #ifndef __VECTOR_TABLE_ATTRIBUTE
 182:Drivers/CMSIS/Include/cmsis_gcc.h **** #define __VECTOR_TABLE_ATTRIBUTE  __attribute__((used, section(".vectors")))
 183:Drivers/CMSIS/Include/cmsis_gcc.h **** #endif
 184:Drivers/CMSIS/Include/cmsis_gcc.h **** 
 185:Drivers/CMSIS/Include/cmsis_gcc.h **** #if defined (__ARM_FEATURE_CMSE) && (__ARM_FEATURE_CMSE == 3U)
 186:Drivers/CMSIS/Include/cmsis_gcc.h **** #ifndef __STACK_SEAL
 187:Drivers/CMSIS/Include/cmsis_gcc.h **** #define __STACK_SEAL              __StackSeal
 188:Drivers/CMSIS/Include/cmsis_gcc.h **** #endif
 189:Drivers/CMSIS/Include/cmsis_gcc.h **** 
 190:Drivers/CMSIS/Include/cmsis_gcc.h **** #ifndef __TZ_STACK_SEAL_SIZE
 191:Drivers/CMSIS/Include/cmsis_gcc.h **** #define __TZ_STACK_SEAL_SIZE      8U
 192:Drivers/CMSIS/Include/cmsis_gcc.h **** #endif
 193:Drivers/CMSIS/Include/cmsis_gcc.h **** 
 194:Drivers/CMSIS/Include/cmsis_gcc.h **** #ifndef __TZ_STACK_SEAL_VALUE
 195:Drivers/CMSIS/Include/cmsis_gcc.h **** #define __TZ_STACK_SEAL_VALUE     0xFEF5EDA5FEF5EDA5ULL
 196:Drivers/CMSIS/Include/cmsis_gcc.h **** #endif
 197:Drivers/CMSIS/Include/cmsis_gcc.h **** 
 198:Drivers/CMSIS/Include/cmsis_gcc.h **** 
 199:Drivers/CMSIS/Include/cmsis_gcc.h **** __STATIC_FORCEINLINE void __TZ_set_STACKSEAL_S (uint32_t* stackTop) {
ARM GAS  C:\Users\DELL\AppData\Local\Temp\ccVJgh0c.s 			page 32


 200:Drivers/CMSIS/Include/cmsis_gcc.h ****   *((uint64_t *)stackTop) = __TZ_STACK_SEAL_VALUE;
 201:Drivers/CMSIS/Include/cmsis_gcc.h **** }
 202:Drivers/CMSIS/Include/cmsis_gcc.h **** #endif
 203:Drivers/CMSIS/Include/cmsis_gcc.h **** 
 204:Drivers/CMSIS/Include/cmsis_gcc.h **** 
 205:Drivers/CMSIS/Include/cmsis_gcc.h **** /* ##########################  Core Instruction Access  ######################### */
 206:Drivers/CMSIS/Include/cmsis_gcc.h **** /** \defgroup CMSIS_Core_InstructionInterface CMSIS Core Instruction Interface
 207:Drivers/CMSIS/Include/cmsis_gcc.h ****   Access to dedicated instructions
 208:Drivers/CMSIS/Include/cmsis_gcc.h ****   @{
 209:Drivers/CMSIS/Include/cmsis_gcc.h **** */
 210:Drivers/CMSIS/Include/cmsis_gcc.h **** 
 211:Drivers/CMSIS/Include/cmsis_gcc.h **** /* Define macros for porting to both thumb1 and thumb2.
 212:Drivers/CMSIS/Include/cmsis_gcc.h ****  * For thumb1, use low register (r0-r7), specified by constraint "l"
 213:Drivers/CMSIS/Include/cmsis_gcc.h ****  * Otherwise, use general registers, specified by constraint "r" */
 214:Drivers/CMSIS/Include/cmsis_gcc.h **** #if defined (__thumb__) && !defined (__thumb2__)
 215:Drivers/CMSIS/Include/cmsis_gcc.h **** #define __CMSIS_GCC_OUT_REG(r) "=l" (r)
 216:Drivers/CMSIS/Include/cmsis_gcc.h **** #define __CMSIS_GCC_RW_REG(r) "+l" (r)
 217:Drivers/CMSIS/Include/cmsis_gcc.h **** #define __CMSIS_GCC_USE_REG(r) "l" (r)
 218:Drivers/CMSIS/Include/cmsis_gcc.h **** #else
 219:Drivers/CMSIS/Include/cmsis_gcc.h **** #define __CMSIS_GCC_OUT_REG(r) "=r" (r)
 220:Drivers/CMSIS/Include/cmsis_gcc.h **** #define __CMSIS_GCC_RW_REG(r) "+r" (r)
 221:Drivers/CMSIS/Include/cmsis_gcc.h **** #define __CMSIS_GCC_USE_REG(r) "r" (r)
 222:Drivers/CMSIS/Include/cmsis_gcc.h **** #endif
 223:Drivers/CMSIS/Include/cmsis_gcc.h **** 
 224:Drivers/CMSIS/Include/cmsis_gcc.h **** /**
 225:Drivers/CMSIS/Include/cmsis_gcc.h ****   \brief   No Operation
 226:Drivers/CMSIS/Include/cmsis_gcc.h ****   \details No Operation does nothing. This instruction can be used for code alignment purposes.
 227:Drivers/CMSIS/Include/cmsis_gcc.h ****  */
 228:Drivers/CMSIS/Include/cmsis_gcc.h **** #define __NOP()                             __ASM volatile ("nop")
 229:Drivers/CMSIS/Include/cmsis_gcc.h **** 
 230:Drivers/CMSIS/Include/cmsis_gcc.h **** /**
 231:Drivers/CMSIS/Include/cmsis_gcc.h ****   \brief   Wait For Interrupt
 232:Drivers/CMSIS/Include/cmsis_gcc.h ****   \details Wait For Interrupt is a hint instruction that suspends execution until one of a number o
 233:Drivers/CMSIS/Include/cmsis_gcc.h ****  */
 234:Drivers/CMSIS/Include/cmsis_gcc.h **** #define __WFI()                             __ASM volatile ("wfi":::"memory")
 235:Drivers/CMSIS/Include/cmsis_gcc.h **** 
 236:Drivers/CMSIS/Include/cmsis_gcc.h **** 
 237:Drivers/CMSIS/Include/cmsis_gcc.h **** /**
 238:Drivers/CMSIS/Include/cmsis_gcc.h ****   \brief   Wait For Event
 239:Drivers/CMSIS/Include/cmsis_gcc.h ****   \details Wait For Event is a hint instruction that permits the processor to enter
 240:Drivers/CMSIS/Include/cmsis_gcc.h ****            a low-power state until one of a number of events occurs.
 241:Drivers/CMSIS/Include/cmsis_gcc.h ****  */
 242:Drivers/CMSIS/Include/cmsis_gcc.h **** #define __WFE()                             __ASM volatile ("wfe":::"memory")
 243:Drivers/CMSIS/Include/cmsis_gcc.h **** 
 244:Drivers/CMSIS/Include/cmsis_gcc.h **** 
 245:Drivers/CMSIS/Include/cmsis_gcc.h **** /**
 246:Drivers/CMSIS/Include/cmsis_gcc.h ****   \brief   Send Event
 247:Drivers/CMSIS/Include/cmsis_gcc.h ****   \details Send Event is a hint instruction. It causes an event to be signaled to the CPU.
 248:Drivers/CMSIS/Include/cmsis_gcc.h ****  */
 249:Drivers/CMSIS/Include/cmsis_gcc.h **** #define __SEV()                             __ASM volatile ("sev")
 250:Drivers/CMSIS/Include/cmsis_gcc.h **** 
 251:Drivers/CMSIS/Include/cmsis_gcc.h **** 
 252:Drivers/CMSIS/Include/cmsis_gcc.h **** /**
 253:Drivers/CMSIS/Include/cmsis_gcc.h ****   \brief   Instruction Synchronization Barrier
 254:Drivers/CMSIS/Include/cmsis_gcc.h ****   \details Instruction Synchronization Barrier flushes the pipeline in the processor,
 255:Drivers/CMSIS/Include/cmsis_gcc.h ****            so that all instructions following the ISB are fetched from cache or memory,
 256:Drivers/CMSIS/Include/cmsis_gcc.h ****            after the instruction has been completed.
ARM GAS  C:\Users\DELL\AppData\Local\Temp\ccVJgh0c.s 			page 33


 257:Drivers/CMSIS/Include/cmsis_gcc.h ****  */
 258:Drivers/CMSIS/Include/cmsis_gcc.h **** __STATIC_FORCEINLINE void __ISB(void)
 259:Drivers/CMSIS/Include/cmsis_gcc.h **** {
 260:Drivers/CMSIS/Include/cmsis_gcc.h ****   __ASM volatile ("isb 0xF":::"memory");
 261:Drivers/CMSIS/Include/cmsis_gcc.h **** }
 262:Drivers/CMSIS/Include/cmsis_gcc.h **** 
 263:Drivers/CMSIS/Include/cmsis_gcc.h **** 
 264:Drivers/CMSIS/Include/cmsis_gcc.h **** /**
 265:Drivers/CMSIS/Include/cmsis_gcc.h ****   \brief   Data Synchronization Barrier
 266:Drivers/CMSIS/Include/cmsis_gcc.h ****   \details Acts as a special kind of Data Memory Barrier.
 267:Drivers/CMSIS/Include/cmsis_gcc.h ****            It completes when all explicit memory accesses before this instruction complete.
 268:Drivers/CMSIS/Include/cmsis_gcc.h ****  */
 269:Drivers/CMSIS/Include/cmsis_gcc.h **** __STATIC_FORCEINLINE void __DSB(void)
 270:Drivers/CMSIS/Include/cmsis_gcc.h **** {
 271:Drivers/CMSIS/Include/cmsis_gcc.h ****   __ASM volatile ("dsb 0xF":::"memory");
 272:Drivers/CMSIS/Include/cmsis_gcc.h **** }
 273:Drivers/CMSIS/Include/cmsis_gcc.h **** 
 274:Drivers/CMSIS/Include/cmsis_gcc.h **** 
 275:Drivers/CMSIS/Include/cmsis_gcc.h **** /**
 276:Drivers/CMSIS/Include/cmsis_gcc.h ****   \brief   Data Memory Barrier
 277:Drivers/CMSIS/Include/cmsis_gcc.h ****   \details Ensures the apparent order of the explicit memory operations before
 278:Drivers/CMSIS/Include/cmsis_gcc.h ****            and after the instruction, without ensuring their completion.
 279:Drivers/CMSIS/Include/cmsis_gcc.h ****  */
 280:Drivers/CMSIS/Include/cmsis_gcc.h **** __STATIC_FORCEINLINE void __DMB(void)
 281:Drivers/CMSIS/Include/cmsis_gcc.h **** {
 282:Drivers/CMSIS/Include/cmsis_gcc.h ****   __ASM volatile ("dmb 0xF":::"memory");
 283:Drivers/CMSIS/Include/cmsis_gcc.h **** }
 284:Drivers/CMSIS/Include/cmsis_gcc.h **** 
 285:Drivers/CMSIS/Include/cmsis_gcc.h **** 
 286:Drivers/CMSIS/Include/cmsis_gcc.h **** /**
 287:Drivers/CMSIS/Include/cmsis_gcc.h ****   \brief   Reverse byte order (32 bit)
 288:Drivers/CMSIS/Include/cmsis_gcc.h ****   \details Reverses the byte order in unsigned integer value. For example, 0x12345678 becomes 0x785
 289:Drivers/CMSIS/Include/cmsis_gcc.h ****   \param [in]    value  Value to reverse
 290:Drivers/CMSIS/Include/cmsis_gcc.h ****   \return               Reversed value
 291:Drivers/CMSIS/Include/cmsis_gcc.h ****  */
 292:Drivers/CMSIS/Include/cmsis_gcc.h **** __STATIC_FORCEINLINE uint32_t __REV(uint32_t value)
 293:Drivers/CMSIS/Include/cmsis_gcc.h **** {
 294:Drivers/CMSIS/Include/cmsis_gcc.h **** #if (__GNUC__ > 4) || (__GNUC__ == 4 && __GNUC_MINOR__ >= 5)
 295:Drivers/CMSIS/Include/cmsis_gcc.h ****   return __builtin_bswap32(value);
 296:Drivers/CMSIS/Include/cmsis_gcc.h **** #else
 297:Drivers/CMSIS/Include/cmsis_gcc.h ****   uint32_t result;
 298:Drivers/CMSIS/Include/cmsis_gcc.h **** 
 299:Drivers/CMSIS/Include/cmsis_gcc.h ****   __ASM ("rev %0, %1" : __CMSIS_GCC_OUT_REG (result) : __CMSIS_GCC_USE_REG (value) );
 300:Drivers/CMSIS/Include/cmsis_gcc.h ****   return result;
 301:Drivers/CMSIS/Include/cmsis_gcc.h **** #endif
 302:Drivers/CMSIS/Include/cmsis_gcc.h **** }
 303:Drivers/CMSIS/Include/cmsis_gcc.h **** 
 304:Drivers/CMSIS/Include/cmsis_gcc.h **** 
 305:Drivers/CMSIS/Include/cmsis_gcc.h **** /**
 306:Drivers/CMSIS/Include/cmsis_gcc.h ****   \brief   Reverse byte order (16 bit)
 307:Drivers/CMSIS/Include/cmsis_gcc.h ****   \details Reverses the byte order within each halfword of a word. For example, 0x12345678 becomes 
 308:Drivers/CMSIS/Include/cmsis_gcc.h ****   \param [in]    value  Value to reverse
 309:Drivers/CMSIS/Include/cmsis_gcc.h ****   \return               Reversed value
 310:Drivers/CMSIS/Include/cmsis_gcc.h ****  */
 311:Drivers/CMSIS/Include/cmsis_gcc.h **** __STATIC_FORCEINLINE uint32_t __REV16(uint32_t value)
 312:Drivers/CMSIS/Include/cmsis_gcc.h **** {
 313:Drivers/CMSIS/Include/cmsis_gcc.h ****   uint32_t result;
ARM GAS  C:\Users\DELL\AppData\Local\Temp\ccVJgh0c.s 			page 34


 314:Drivers/CMSIS/Include/cmsis_gcc.h **** 
 315:Drivers/CMSIS/Include/cmsis_gcc.h ****   __ASM ("rev16 %0, %1" : __CMSIS_GCC_OUT_REG (result) : __CMSIS_GCC_USE_REG (value) );
 316:Drivers/CMSIS/Include/cmsis_gcc.h ****   return result;
 317:Drivers/CMSIS/Include/cmsis_gcc.h **** }
 318:Drivers/CMSIS/Include/cmsis_gcc.h **** 
 319:Drivers/CMSIS/Include/cmsis_gcc.h **** 
 320:Drivers/CMSIS/Include/cmsis_gcc.h **** /**
 321:Drivers/CMSIS/Include/cmsis_gcc.h ****   \brief   Reverse byte order (16 bit)
 322:Drivers/CMSIS/Include/cmsis_gcc.h ****   \details Reverses the byte order in a 16-bit value and returns the signed 16-bit result. For exam
 323:Drivers/CMSIS/Include/cmsis_gcc.h ****   \param [in]    value  Value to reverse
 324:Drivers/CMSIS/Include/cmsis_gcc.h ****   \return               Reversed value
 325:Drivers/CMSIS/Include/cmsis_gcc.h ****  */
 326:Drivers/CMSIS/Include/cmsis_gcc.h **** __STATIC_FORCEINLINE int16_t __REVSH(int16_t value)
 327:Drivers/CMSIS/Include/cmsis_gcc.h **** {
 328:Drivers/CMSIS/Include/cmsis_gcc.h **** #if (__GNUC__ > 4) || (__GNUC__ == 4 && __GNUC_MINOR__ >= 8)
 329:Drivers/CMSIS/Include/cmsis_gcc.h ****   return (int16_t)__builtin_bswap16(value);
 330:Drivers/CMSIS/Include/cmsis_gcc.h **** #else
 331:Drivers/CMSIS/Include/cmsis_gcc.h ****   int16_t result;
 332:Drivers/CMSIS/Include/cmsis_gcc.h **** 
 333:Drivers/CMSIS/Include/cmsis_gcc.h ****   __ASM ("revsh %0, %1" : __CMSIS_GCC_OUT_REG (result) : __CMSIS_GCC_USE_REG (value) );
 334:Drivers/CMSIS/Include/cmsis_gcc.h ****   return result;
 335:Drivers/CMSIS/Include/cmsis_gcc.h **** #endif
 336:Drivers/CMSIS/Include/cmsis_gcc.h **** }
 337:Drivers/CMSIS/Include/cmsis_gcc.h **** 
 338:Drivers/CMSIS/Include/cmsis_gcc.h **** 
 339:Drivers/CMSIS/Include/cmsis_gcc.h **** /**
 340:Drivers/CMSIS/Include/cmsis_gcc.h ****   \brief   Rotate Right in unsigned value (32 bit)
 341:Drivers/CMSIS/Include/cmsis_gcc.h ****   \details Rotate Right (immediate) provides the value of the contents of a register rotated by a v
 342:Drivers/CMSIS/Include/cmsis_gcc.h ****   \param [in]    op1  Value to rotate
 343:Drivers/CMSIS/Include/cmsis_gcc.h ****   \param [in]    op2  Number of Bits to rotate
 344:Drivers/CMSIS/Include/cmsis_gcc.h ****   \return               Rotated value
 345:Drivers/CMSIS/Include/cmsis_gcc.h ****  */
 346:Drivers/CMSIS/Include/cmsis_gcc.h **** __STATIC_FORCEINLINE uint32_t __ROR(uint32_t op1, uint32_t op2)
 347:Drivers/CMSIS/Include/cmsis_gcc.h **** {
 348:Drivers/CMSIS/Include/cmsis_gcc.h ****   op2 %= 32U;
 349:Drivers/CMSIS/Include/cmsis_gcc.h ****   if (op2 == 0U)
 350:Drivers/CMSIS/Include/cmsis_gcc.h ****   {
 351:Drivers/CMSIS/Include/cmsis_gcc.h ****     return op1;
 352:Drivers/CMSIS/Include/cmsis_gcc.h ****   }
 353:Drivers/CMSIS/Include/cmsis_gcc.h ****   return (op1 >> op2) | (op1 << (32U - op2));
 354:Drivers/CMSIS/Include/cmsis_gcc.h **** }
 355:Drivers/CMSIS/Include/cmsis_gcc.h **** 
 356:Drivers/CMSIS/Include/cmsis_gcc.h **** 
 357:Drivers/CMSIS/Include/cmsis_gcc.h **** /**
 358:Drivers/CMSIS/Include/cmsis_gcc.h ****   \brief   Breakpoint
 359:Drivers/CMSIS/Include/cmsis_gcc.h ****   \details Causes the processor to enter Debug state.
 360:Drivers/CMSIS/Include/cmsis_gcc.h ****            Debug tools can use this to investigate system state when the instruction at a particula
 361:Drivers/CMSIS/Include/cmsis_gcc.h ****   \param [in]    value  is ignored by the processor.
 362:Drivers/CMSIS/Include/cmsis_gcc.h ****                  If required, a debugger can use it to store additional information about the break
 363:Drivers/CMSIS/Include/cmsis_gcc.h ****  */
 364:Drivers/CMSIS/Include/cmsis_gcc.h **** #define __BKPT(value)                       __ASM volatile ("bkpt "#value)
 365:Drivers/CMSIS/Include/cmsis_gcc.h **** 
 366:Drivers/CMSIS/Include/cmsis_gcc.h **** 
 367:Drivers/CMSIS/Include/cmsis_gcc.h **** /**
 368:Drivers/CMSIS/Include/cmsis_gcc.h ****   \brief   Reverse bit order of value
 369:Drivers/CMSIS/Include/cmsis_gcc.h ****   \details Reverses the bit order of the given value.
 370:Drivers/CMSIS/Include/cmsis_gcc.h ****   \param [in]    value  Value to reverse
ARM GAS  C:\Users\DELL\AppData\Local\Temp\ccVJgh0c.s 			page 35


 371:Drivers/CMSIS/Include/cmsis_gcc.h ****   \return               Reversed value
 372:Drivers/CMSIS/Include/cmsis_gcc.h ****  */
 373:Drivers/CMSIS/Include/cmsis_gcc.h **** __STATIC_FORCEINLINE uint32_t __RBIT(uint32_t value)
 1007              		.loc 2 373 31 is_stmt 1 view .LVU170
 1008              	.LBB19:
 374:Drivers/CMSIS/Include/cmsis_gcc.h **** {
 375:Drivers/CMSIS/Include/cmsis_gcc.h ****   uint32_t result;
 1009              		.loc 2 375 3 view .LVU171
 376:Drivers/CMSIS/Include/cmsis_gcc.h **** 
 377:Drivers/CMSIS/Include/cmsis_gcc.h **** #if ((defined (__ARM_ARCH_7M__      ) && (__ARM_ARCH_7M__      == 1)) || \
 378:Drivers/CMSIS/Include/cmsis_gcc.h ****      (defined (__ARM_ARCH_7EM__     ) && (__ARM_ARCH_7EM__     == 1)) || \
 379:Drivers/CMSIS/Include/cmsis_gcc.h ****      (defined (__ARM_ARCH_8M_MAIN__ ) && (__ARM_ARCH_8M_MAIN__ == 1))    )
 380:Drivers/CMSIS/Include/cmsis_gcc.h ****    __ASM ("rbit %0, %1" : "=r" (result) : "r" (value) );
 1010              		.loc 2 380 4 view .LVU172
 1011              		.syntax unified
 1012              	@ 380 "Drivers/CMSIS/Include/cmsis_gcc.h" 1
 1013 0004 93FAA3F2 		rbit r2, r3
 1014              	@ 0 "" 2
 1015              	.LVL22:
 381:Drivers/CMSIS/Include/cmsis_gcc.h **** #else
 382:Drivers/CMSIS/Include/cmsis_gcc.h ****   uint32_t s = (4U /*sizeof(v)*/ * 8U) - 1U; /* extra shift needed at end */
 383:Drivers/CMSIS/Include/cmsis_gcc.h **** 
 384:Drivers/CMSIS/Include/cmsis_gcc.h ****   result = value;                      /* r will be reversed bits of v; first get LSB of v */
 385:Drivers/CMSIS/Include/cmsis_gcc.h ****   for (value >>= 1U; value != 0U; value >>= 1U)
 386:Drivers/CMSIS/Include/cmsis_gcc.h ****   {
 387:Drivers/CMSIS/Include/cmsis_gcc.h ****     result <<= 1U;
 388:Drivers/CMSIS/Include/cmsis_gcc.h ****     result |= value & 1U;
 389:Drivers/CMSIS/Include/cmsis_gcc.h ****     s--;
 390:Drivers/CMSIS/Include/cmsis_gcc.h ****   }
 391:Drivers/CMSIS/Include/cmsis_gcc.h ****   result <<= s;                        /* shift when v's highest bits are zero */
 392:Drivers/CMSIS/Include/cmsis_gcc.h **** #endif
 393:Drivers/CMSIS/Include/cmsis_gcc.h ****   return result;
 1016              		.loc 2 393 3 view .LVU173
 1017              		.loc 2 393 3 is_stmt 0 view .LVU174
 1018              		.thumb
 1019              		.syntax unified
 1020              	.LBE19:
 1021              	.LBE18:
 1022              	.LBB20:
 1023              	.LBI20:
 394:Drivers/CMSIS/Include/cmsis_gcc.h **** }
 395:Drivers/CMSIS/Include/cmsis_gcc.h **** 
 396:Drivers/CMSIS/Include/cmsis_gcc.h **** 
 397:Drivers/CMSIS/Include/cmsis_gcc.h **** /**
 398:Drivers/CMSIS/Include/cmsis_gcc.h ****   \brief   Count leading zeros
 399:Drivers/CMSIS/Include/cmsis_gcc.h ****   \details Counts the number of leading zeros of a data value.
 400:Drivers/CMSIS/Include/cmsis_gcc.h ****   \param [in]  value  Value to count the leading zeros
 401:Drivers/CMSIS/Include/cmsis_gcc.h ****   \return             number of leading zeros in value
 402:Drivers/CMSIS/Include/cmsis_gcc.h ****  */
 403:Drivers/CMSIS/Include/cmsis_gcc.h **** __STATIC_FORCEINLINE uint8_t __CLZ(uint32_t value)
 1024              		.loc 2 403 30 is_stmt 1 view .LVU175
 1025              	.LBB21:
 404:Drivers/CMSIS/Include/cmsis_gcc.h **** {
 405:Drivers/CMSIS/Include/cmsis_gcc.h ****   /* Even though __builtin_clz produces a CLZ instruction on ARM, formally
 406:Drivers/CMSIS/Include/cmsis_gcc.h ****      __builtin_clz(0) is undefined behaviour, so handle this case specially.
 407:Drivers/CMSIS/Include/cmsis_gcc.h ****      This guarantees ARM-compatible results if happening to compile on a non-ARM
 408:Drivers/CMSIS/Include/cmsis_gcc.h ****      target, and ensures the compiler doesn't decide to activate any
ARM GAS  C:\Users\DELL\AppData\Local\Temp\ccVJgh0c.s 			page 36


 409:Drivers/CMSIS/Include/cmsis_gcc.h ****      optimisations using the logic "value was passed to __builtin_clz, so it
 410:Drivers/CMSIS/Include/cmsis_gcc.h ****      is non-zero".
 411:Drivers/CMSIS/Include/cmsis_gcc.h ****      ARM GCC 7.3 and possibly earlier will optimise this test away, leaving a
 412:Drivers/CMSIS/Include/cmsis_gcc.h ****      single CLZ instruction.
 413:Drivers/CMSIS/Include/cmsis_gcc.h ****    */
 414:Drivers/CMSIS/Include/cmsis_gcc.h ****   if (value == 0U)
 1026              		.loc 2 414 3 view .LVU176
 1027              		.loc 2 414 6 is_stmt 0 view .LVU177
 1028 0008 A2B3     		cbz	r2, .L107
 415:Drivers/CMSIS/Include/cmsis_gcc.h ****   {
 416:Drivers/CMSIS/Include/cmsis_gcc.h ****     return 32U;
 417:Drivers/CMSIS/Include/cmsis_gcc.h ****   }
 418:Drivers/CMSIS/Include/cmsis_gcc.h ****   return __builtin_clz(value);
 1029              		.loc 2 418 3 is_stmt 1 view .LVU178
 1030              		.loc 2 418 10 is_stmt 0 discriminator 1 view .LVU179
 1031 000a B2FA82F2 		clz	r2, r2
 1032              	.LVL23:
 1033              	.L103:
 1034              		.loc 2 418 10 discriminator 1 view .LVU180
 1035              	.LBE21:
 1036              	.LBE20:
 1037              		.loc 1 585 81 discriminator 2 view .LVU181
 1038 000e 0832     		adds	r2, r2, #8
 1039              		.loc 1 585 103 discriminator 2 view .LVU182
 1040 0010 02F01F02 		and	r2, r2, #31
 1041              		.loc 1 585 40 discriminator 2 view .LVU183
 1042 0014 01FA02F2 		lsl	r2, r1, r2
 584:Drivers/STM32H5xx_HAL_Driver/Src/stm32h5xx_hal_pwr_ex.c ****               (sPinParams->PinPolarity << ((POSITION_VAL(sPinParams->WakeUpPin) + PWR_WUCR_WUPP1_Po
 1043              		.loc 1 584 37 view .LVU184
 1044 0018 43EA0201 		orr	r1, r3, r2
 586:Drivers/STM32H5xx_HAL_Driver/Src/stm32h5xx_hal_pwr_ex.c ****               (sPinParams->PinPull << (((POSITION_VAL(sPinParams->WakeUpPin) * PWR_WAKEUP_PINS_PULL
 1045              		.loc 1 586 26 view .LVU185
 1046 001c 8068     		ldr	r0, [r0, #8]
 1047              	.LVL24:
 1048              	.LBB23:
 1049              	.LBI23:
 373:Drivers/CMSIS/Include/cmsis_gcc.h **** {
 1050              		.loc 2 373 31 is_stmt 1 view .LVU186
 1051              	.LBB24:
 375:Drivers/CMSIS/Include/cmsis_gcc.h **** 
 1052              		.loc 2 375 3 view .LVU187
 380:Drivers/CMSIS/Include/cmsis_gcc.h **** #else
 1053              		.loc 2 380 4 view .LVU188
 1054              		.syntax unified
 1055              	@ 380 "Drivers/CMSIS/Include/cmsis_gcc.h" 1
 1056 001e 93FAA3F2 		rbit r2, r3
 1057              	@ 0 "" 2
 1058              	.LVL25:
 393:Drivers/CMSIS/Include/cmsis_gcc.h **** }
 1059              		.loc 2 393 3 view .LVU189
 393:Drivers/CMSIS/Include/cmsis_gcc.h **** }
 1060              		.loc 2 393 3 is_stmt 0 view .LVU190
 1061              		.thumb
 1062              		.syntax unified
 1063              	.LBE24:
 1064              	.LBE23:
 1065              	.LBB25:
ARM GAS  C:\Users\DELL\AppData\Local\Temp\ccVJgh0c.s 			page 37


 1066              	.LBI25:
 403:Drivers/CMSIS/Include/cmsis_gcc.h **** {
 1067              		.loc 2 403 30 is_stmt 1 view .LVU191
 1068              	.LBB26:
 414:Drivers/CMSIS/Include/cmsis_gcc.h ****   {
 1069              		.loc 2 414 3 view .LVU192
 414:Drivers/CMSIS/Include/cmsis_gcc.h ****   {
 1070              		.loc 2 414 6 is_stmt 0 view .LVU193
 1071 0022 4AB3     		cbz	r2, .L108
 1072              		.loc 2 418 3 is_stmt 1 view .LVU194
 1073              		.loc 2 418 10 is_stmt 0 discriminator 1 view .LVU195
 1074 0024 B2FA82F2 		clz	r2, r2
 1075              	.LVL26:
 1076              	.L104:
 1077              		.loc 2 418 10 discriminator 1 view .LVU196
 1078              	.LBE26:
 1079              	.LBE25:
 587:Drivers/STM32H5xx_HAL_Driver/Src/stm32h5xx_hal_pwr_ex.c ****                                         + PWR_WUCR_WUPPUPD1_Pos) & 0x1FU));
 1080              		.loc 1 587 41 view .LVU197
 1081 0028 0832     		adds	r2, r2, #8
 1082 002a 5200     		lsls	r2, r2, #1
 1083              		.loc 1 587 66 view .LVU198
 1084 002c 02F01E02 		and	r2, r2, #30
 586:Drivers/STM32H5xx_HAL_Driver/Src/stm32h5xx_hal_pwr_ex.c ****                                         + PWR_WUCR_WUPPUPD1_Pos) & 0x1FU));
 1085              		.loc 1 586 36 view .LVU199
 1086 0030 00FA02F2 		lsl	r2, r0, r2
 584:Drivers/STM32H5xx_HAL_Driver/Src/stm32h5xx_hal_pwr_ex.c ****               (sPinParams->PinPolarity << ((POSITION_VAL(sPinParams->WakeUpPin) + PWR_WUCR_WUPP1_Po
 1087              		.loc 1 584 13 view .LVU200
 1088 0034 0A43     		orrs	r2, r2, r1
 1089              	.LVL27:
 588:Drivers/STM32H5xx_HAL_Driver/Src/stm32h5xx_hal_pwr_ex.c **** 
 589:Drivers/STM32H5xx_HAL_Driver/Src/stm32h5xx_hal_pwr_ex.c ****   regMask   = sPinParams->WakeUpPin | \
 1090              		.loc 1 589 3 is_stmt 1 view .LVU201
 1091              	.LBB28:
 1092              	.LBI28:
 373:Drivers/CMSIS/Include/cmsis_gcc.h **** {
 1093              		.loc 2 373 31 view .LVU202
 1094              	.LBB29:
 375:Drivers/CMSIS/Include/cmsis_gcc.h **** 
 1095              		.loc 2 375 3 view .LVU203
 380:Drivers/CMSIS/Include/cmsis_gcc.h **** #else
 1096              		.loc 2 380 4 view .LVU204
 1097              		.syntax unified
 1098              	@ 380 "Drivers/CMSIS/Include/cmsis_gcc.h" 1
 1099 0036 93FAA3F1 		rbit r1, r3
 1100              	@ 0 "" 2
 1101              	.LVL28:
 393:Drivers/CMSIS/Include/cmsis_gcc.h **** }
 1102              		.loc 2 393 3 view .LVU205
 393:Drivers/CMSIS/Include/cmsis_gcc.h **** }
 1103              		.loc 2 393 3 is_stmt 0 view .LVU206
 1104              		.thumb
 1105              		.syntax unified
 1106              	.LBE29:
 1107              	.LBE28:
 1108              	.LBB30:
 1109              	.LBI30:
ARM GAS  C:\Users\DELL\AppData\Local\Temp\ccVJgh0c.s 			page 38


 403:Drivers/CMSIS/Include/cmsis_gcc.h **** {
 1110              		.loc 2 403 30 is_stmt 1 view .LVU207
 1111              	.LBB31:
 414:Drivers/CMSIS/Include/cmsis_gcc.h ****   {
 1112              		.loc 2 414 3 view .LVU208
 414:Drivers/CMSIS/Include/cmsis_gcc.h ****   {
 1113              		.loc 2 414 6 is_stmt 0 view .LVU209
 1114 003a F9B1     		cbz	r1, .L109
 1115              		.loc 2 418 3 is_stmt 1 view .LVU210
 1116              		.loc 2 418 10 is_stmt 0 discriminator 1 view .LVU211
 1117 003c B1FA81F1 		clz	r1, r1
 1118              	.LVL29:
 1119              	.L105:
 1120              		.loc 2 418 10 discriminator 1 view .LVU212
 1121              	.LBE31:
 1122              	.LBE30:
 590:Drivers/STM32H5xx_HAL_Driver/Src/stm32h5xx_hal_pwr_ex.c ****               (PWR_WUCR_WUPP1 << (POSITION_VAL(sPinParams->WakeUpPin) & 0x1FU)) | \
 1123              		.loc 1 590 71 discriminator 2 view .LVU213
 1124 0040 01F01F00 		and	r0, r1, #31
 1125              		.loc 1 590 31 discriminator 2 view .LVU214
 1126 0044 4FF48071 		mov	r1, #256
 1127 0048 8140     		lsls	r1, r1, r0
 589:Drivers/STM32H5xx_HAL_Driver/Src/stm32h5xx_hal_pwr_ex.c ****               (PWR_WUCR_WUPP1 << (POSITION_VAL(sPinParams->WakeUpPin) & 0x1FU)) | \
 1128              		.loc 1 589 37 view .LVU215
 1129 004a 1943     		orrs	r1, r1, r3
 1130              	.LVL30:
 1131              	.LBB33:
 1132              	.LBI33:
 373:Drivers/CMSIS/Include/cmsis_gcc.h **** {
 1133              		.loc 2 373 31 is_stmt 1 view .LVU216
 1134              	.LBB34:
 375:Drivers/CMSIS/Include/cmsis_gcc.h **** 
 1135              		.loc 2 375 3 view .LVU217
 380:Drivers/CMSIS/Include/cmsis_gcc.h **** #else
 1136              		.loc 2 380 4 view .LVU218
 1137              		.syntax unified
 1138              	@ 380 "Drivers/CMSIS/Include/cmsis_gcc.h" 1
 1139 004c 93FAA3F3 		rbit r3, r3
 1140              	@ 0 "" 2
 1141              	.LVL31:
 393:Drivers/CMSIS/Include/cmsis_gcc.h **** }
 1142              		.loc 2 393 3 view .LVU219
 393:Drivers/CMSIS/Include/cmsis_gcc.h **** }
 1143              		.loc 2 393 3 is_stmt 0 view .LVU220
 1144              		.thumb
 1145              		.syntax unified
 1146              	.LBE34:
 1147              	.LBE33:
 1148              	.LBB35:
 1149              	.LBI35:
 403:Drivers/CMSIS/Include/cmsis_gcc.h **** {
 1150              		.loc 2 403 30 is_stmt 1 view .LVU221
 1151              	.LBB36:
 414:Drivers/CMSIS/Include/cmsis_gcc.h ****   {
 1152              		.loc 2 414 3 view .LVU222
 414:Drivers/CMSIS/Include/cmsis_gcc.h ****   {
 1153              		.loc 2 414 6 is_stmt 0 view .LVU223
ARM GAS  C:\Users\DELL\AppData\Local\Temp\ccVJgh0c.s 			page 39


 1154 0050 B3B1     		cbz	r3, .L110
 1155              		.loc 2 418 3 is_stmt 1 view .LVU224
 1156              		.loc 2 418 10 is_stmt 0 discriminator 1 view .LVU225
 1157 0052 B3FA83F3 		clz	r3, r3
 1158              	.LVL32:
 1159              	.L106:
 1160              		.loc 2 418 10 discriminator 1 view .LVU226
 1161              	.LBE36:
 1162              	.LBE35:
 591:Drivers/STM32H5xx_HAL_Driver/Src/stm32h5xx_hal_pwr_ex.c ****               (pullMask << ((POSITION_VAL(sPinParams->WakeUpPin) * PWR_WAKEUP_PINS_PULL_SHIFT_OFFSE
 1163              		.loc 1 591 66 discriminator 2 view .LVU227
 1164 0056 5B00     		lsls	r3, r3, #1
 1165              		.loc 1 591 103 discriminator 2 view .LVU228
 1166 0058 03F01E03 		and	r3, r3, #30
 1167              		.loc 1 591 25 discriminator 2 view .LVU229
 1168 005c 4FF44030 		mov	r0, #196608
 1169 0060 00FA03F3 		lsl	r3, r0, r3
 589:Drivers/STM32H5xx_HAL_Driver/Src/stm32h5xx_hal_pwr_ex.c ****               (PWR_WUCR_WUPP1 << (POSITION_VAL(sPinParams->WakeUpPin) & 0x1FU)) | \
 1170              		.loc 1 589 13 view .LVU230
 1171 0064 0B43     		orrs	r3, r3, r1
 1172              	.LVL33:
 592:Drivers/STM32H5xx_HAL_Driver/Src/stm32h5xx_hal_pwr_ex.c **** 
 593:Drivers/STM32H5xx_HAL_Driver/Src/stm32h5xx_hal_pwr_ex.c ****   /* Enable and Specify the Wake-Up pin polarity and the pull configuration
 594:Drivers/STM32H5xx_HAL_Driver/Src/stm32h5xx_hal_pwr_ex.c ****      for the event detection (rising or falling edge) */
 595:Drivers/STM32H5xx_HAL_Driver/Src/stm32h5xx_hal_pwr_ex.c ****   MODIFY_REG(PWR->WUCR, regMask, pinConfig);
 1173              		.loc 1 595 3 is_stmt 1 view .LVU231
 1174 0066 0748     		ldr	r0, .L111
 1175 0068 816C     		ldr	r1, [r0, #72]
 1176 006a 21EA0303 		bic	r3, r1, r3
 1177              	.LVL34:
 1178              		.loc 1 595 3 is_stmt 0 view .LVU232
 1179 006e 1343     		orrs	r3, r3, r2
 1180 0070 8364     		str	r3, [r0, #72]
 596:Drivers/STM32H5xx_HAL_Driver/Src/stm32h5xx_hal_pwr_ex.c **** }
 1181              		.loc 1 596 1 view .LVU233
 1182 0072 7047     		bx	lr
 1183              	.LVL35:
 1184              	.L107:
 1185              	.LBB38:
 1186              	.LBB22:
 416:Drivers/CMSIS/Include/cmsis_gcc.h ****   }
 1187              		.loc 2 416 12 view .LVU234
 1188 0074 2022     		movs	r2, #32
 1189              	.LVL36:
 416:Drivers/CMSIS/Include/cmsis_gcc.h ****   }
 1190              		.loc 2 416 12 view .LVU235
 1191 0076 CAE7     		b	.L103
 1192              	.LVL37:
 1193              	.L108:
 416:Drivers/CMSIS/Include/cmsis_gcc.h ****   }
 1194              		.loc 2 416 12 view .LVU236
 1195              	.LBE22:
 1196              	.LBE38:
 1197              	.LBB39:
 1198              	.LBB27:
 1199 0078 2022     		movs	r2, #32
 1200              	.LVL38:
ARM GAS  C:\Users\DELL\AppData\Local\Temp\ccVJgh0c.s 			page 40


 416:Drivers/CMSIS/Include/cmsis_gcc.h ****   }
 1201              		.loc 2 416 12 view .LVU237
 1202 007a D5E7     		b	.L104
 1203              	.LVL39:
 1204              	.L109:
 416:Drivers/CMSIS/Include/cmsis_gcc.h ****   }
 1205              		.loc 2 416 12 view .LVU238
 1206              	.LBE27:
 1207              	.LBE39:
 1208              	.LBB40:
 1209              	.LBB32:
 1210 007c 2021     		movs	r1, #32
 1211              	.LVL40:
 416:Drivers/CMSIS/Include/cmsis_gcc.h ****   }
 1212              		.loc 2 416 12 view .LVU239
 1213 007e DFE7     		b	.L105
 1214              	.LVL41:
 1215              	.L110:
 416:Drivers/CMSIS/Include/cmsis_gcc.h ****   }
 1216              		.loc 2 416 12 view .LVU240
 1217              	.LBE32:
 1218              	.LBE40:
 1219              	.LBB41:
 1220              	.LBB37:
 1221 0080 2023     		movs	r3, #32
 1222              	.LVL42:
 416:Drivers/CMSIS/Include/cmsis_gcc.h ****   }
 1223              		.loc 2 416 12 view .LVU241
 1224 0082 E8E7     		b	.L106
 1225              	.L112:
 1226              		.align	2
 1227              	.L111:
 1228 0084 00080244 		.word	1140983808
 1229              	.LBE37:
 1230              	.LBE41:
 1231              		.cfi_endproc
 1232              	.LFE323:
 1234              		.section	.text.HAL_PWREx_DisableWakeUpPin,"ax",%progbits
 1235              		.align	1
 1236              		.global	HAL_PWREx_DisableWakeUpPin
 1237              		.syntax unified
 1238              		.thumb
 1239              		.thumb_func
 1241              	HAL_PWREx_DisableWakeUpPin:
 1242              	.LVL43:
 1243              	.LFB324:
 597:Drivers/STM32H5xx_HAL_Driver/Src/stm32h5xx_hal_pwr_ex.c **** 
 598:Drivers/STM32H5xx_HAL_Driver/Src/stm32h5xx_hal_pwr_ex.c **** /**
 599:Drivers/STM32H5xx_HAL_Driver/Src/stm32h5xx_hal_pwr_ex.c ****   * @brief Disable the Wake-up PINx functionality.
 600:Drivers/STM32H5xx_HAL_Driver/Src/stm32h5xx_hal_pwr_ex.c ****   * @param  WakeUpPinx : Specifies the Wake-Up pin to be disabled.
 601:Drivers/STM32H5xx_HAL_Driver/Src/stm32h5xx_hal_pwr_ex.c ****   *          This parameter can be one of the following values:
 602:Drivers/STM32H5xx_HAL_Driver/Src/stm32h5xx_hal_pwr_ex.c ****   *           @arg PWR_WAKEUP_PIN1
 603:Drivers/STM32H5xx_HAL_Driver/Src/stm32h5xx_hal_pwr_ex.c ****   *           @arg PWR_WAKEUP_PIN2
 604:Drivers/STM32H5xx_HAL_Driver/Src/stm32h5xx_hal_pwr_ex.c ****   *           @arg PWR_WAKEUP_PIN3
 605:Drivers/STM32H5xx_HAL_Driver/Src/stm32h5xx_hal_pwr_ex.c ****   *           @arg PWR_WAKEUP_PIN4
 606:Drivers/STM32H5xx_HAL_Driver/Src/stm32h5xx_hal_pwr_ex.c ****   *           @arg PWR_WAKEUP_PIN5
 607:Drivers/STM32H5xx_HAL_Driver/Src/stm32h5xx_hal_pwr_ex.c ****   *           @arg PWR_WAKEUP_PIN6
ARM GAS  C:\Users\DELL\AppData\Local\Temp\ccVJgh0c.s 			page 41


 608:Drivers/STM32H5xx_HAL_Driver/Src/stm32h5xx_hal_pwr_ex.c ****   *           @arg PWR_WAKEUP_PIN7
 609:Drivers/STM32H5xx_HAL_Driver/Src/stm32h5xx_hal_pwr_ex.c ****   *           @arg PWR_WAKEUP_PIN8
 610:Drivers/STM32H5xx_HAL_Driver/Src/stm32h5xx_hal_pwr_ex.c ****   * @note   The PWR_WAKEUP_PIN6, PWR_WAKEUP_PIN7 and PWR_WAKEUP_PIN8 are not available for
 611:Drivers/STM32H5xx_HAL_Driver/Src/stm32h5xx_hal_pwr_ex.c ****   *         STM32H503xx devices.
 612:Drivers/STM32H5xx_HAL_Driver/Src/stm32h5xx_hal_pwr_ex.c ****   * @retval None
 613:Drivers/STM32H5xx_HAL_Driver/Src/stm32h5xx_hal_pwr_ex.c ****   */
 614:Drivers/STM32H5xx_HAL_Driver/Src/stm32h5xx_hal_pwr_ex.c **** void HAL_PWREx_DisableWakeUpPin(uint32_t WakeUpPinx)
 615:Drivers/STM32H5xx_HAL_Driver/Src/stm32h5xx_hal_pwr_ex.c **** {
 1244              		.loc 1 615 1 is_stmt 1 view -0
 1245              		.cfi_startproc
 1246              		@ args = 0, pretend = 0, frame = 0
 1247              		@ frame_needed = 0, uses_anonymous_args = 0
 1248              		@ link register save eliminated.
 616:Drivers/STM32H5xx_HAL_Driver/Src/stm32h5xx_hal_pwr_ex.c ****   /* Check the parameter */
 617:Drivers/STM32H5xx_HAL_Driver/Src/stm32h5xx_hal_pwr_ex.c ****   assert_param(IS_PWR_WAKEUP_PIN(WakeUpPinx));
 1249              		.loc 1 617 3 view .LVU243
 618:Drivers/STM32H5xx_HAL_Driver/Src/stm32h5xx_hal_pwr_ex.c **** 
 619:Drivers/STM32H5xx_HAL_Driver/Src/stm32h5xx_hal_pwr_ex.c ****   /* Disable the WakeUpPin */
 620:Drivers/STM32H5xx_HAL_Driver/Src/stm32h5xx_hal_pwr_ex.c ****   CLEAR_BIT(PWR->WUCR, (PWR_WUCR_WUPEN & WakeUpPinx));
 1250              		.loc 1 620 3 view .LVU244
 1251 0000 034A     		ldr	r2, .L114
 1252 0002 936C     		ldr	r3, [r2, #72]
 1253 0004 C0B2     		uxtb	r0, r0
 1254              	.LVL44:
 1255              		.loc 1 620 3 is_stmt 0 view .LVU245
 1256 0006 23EA0003 		bic	r3, r3, r0
 1257 000a 9364     		str	r3, [r2, #72]
 621:Drivers/STM32H5xx_HAL_Driver/Src/stm32h5xx_hal_pwr_ex.c **** }
 1258              		.loc 1 621 1 view .LVU246
 1259 000c 7047     		bx	lr
 1260              	.L115:
 1261 000e 00BF     		.align	2
 1262              	.L114:
 1263 0010 00080244 		.word	1140983808
 1264              		.cfi_endproc
 1265              	.LFE324:
 1267              		.section	.text.HAL_PWREx_EnableFlashPowerDown,"ax",%progbits
 1268              		.align	1
 1269              		.global	HAL_PWREx_EnableFlashPowerDown
 1270              		.syntax unified
 1271              		.thumb
 1272              		.thumb_func
 1274              	HAL_PWREx_EnableFlashPowerDown:
 1275              	.LFB325:
 622:Drivers/STM32H5xx_HAL_Driver/Src/stm32h5xx_hal_pwr_ex.c **** 
 623:Drivers/STM32H5xx_HAL_Driver/Src/stm32h5xx_hal_pwr_ex.c **** /**
 624:Drivers/STM32H5xx_HAL_Driver/Src/stm32h5xx_hal_pwr_ex.c ****   * @}
 625:Drivers/STM32H5xx_HAL_Driver/Src/stm32h5xx_hal_pwr_ex.c ****   */
 626:Drivers/STM32H5xx_HAL_Driver/Src/stm32h5xx_hal_pwr_ex.c **** 
 627:Drivers/STM32H5xx_HAL_Driver/Src/stm32h5xx_hal_pwr_ex.c **** /** @defgroup PWREx_Exported_Functions_Group4 Memories Retention Functions
 628:Drivers/STM32H5xx_HAL_Driver/Src/stm32h5xx_hal_pwr_ex.c ****   * @brief    Memories retention functions
 629:Drivers/STM32H5xx_HAL_Driver/Src/stm32h5xx_hal_pwr_ex.c ****   *
 630:Drivers/STM32H5xx_HAL_Driver/Src/stm32h5xx_hal_pwr_ex.c **** @verbatim
 631:Drivers/STM32H5xx_HAL_Driver/Src/stm32h5xx_hal_pwr_ex.c ****  ===============================================================================
 632:Drivers/STM32H5xx_HAL_Driver/Src/stm32h5xx_hal_pwr_ex.c ****                      ##### Memories Retention Functions #####
 633:Drivers/STM32H5xx_HAL_Driver/Src/stm32h5xx_hal_pwr_ex.c ****  ===============================================================================
 634:Drivers/STM32H5xx_HAL_Driver/Src/stm32h5xx_hal_pwr_ex.c ****     [..]
ARM GAS  C:\Users\DELL\AppData\Local\Temp\ccVJgh0c.s 			page 42


 635:Drivers/STM32H5xx_HAL_Driver/Src/stm32h5xx_hal_pwr_ex.c **** @endverbatim
 636:Drivers/STM32H5xx_HAL_Driver/Src/stm32h5xx_hal_pwr_ex.c ****   * @{
 637:Drivers/STM32H5xx_HAL_Driver/Src/stm32h5xx_hal_pwr_ex.c ****   */
 638:Drivers/STM32H5xx_HAL_Driver/Src/stm32h5xx_hal_pwr_ex.c **** 
 639:Drivers/STM32H5xx_HAL_Driver/Src/stm32h5xx_hal_pwr_ex.c **** /**
 640:Drivers/STM32H5xx_HAL_Driver/Src/stm32h5xx_hal_pwr_ex.c ****   * @brief Enable the Flash Power Down in Stop mode.
 641:Drivers/STM32H5xx_HAL_Driver/Src/stm32h5xx_hal_pwr_ex.c ****   * @note   When Flash Power Down is enabled  the Flash memory enters low-power
 642:Drivers/STM32H5xx_HAL_Driver/Src/stm32h5xx_hal_pwr_ex.c ****   *         mode. This feature allows to
 643:Drivers/STM32H5xx_HAL_Driver/Src/stm32h5xx_hal_pwr_ex.c ****   *         obtain the best trade-off between low-power consumption and restart
 644:Drivers/STM32H5xx_HAL_Driver/Src/stm32h5xx_hal_pwr_ex.c ****   *         time when exiting from Stop mode.
 645:Drivers/STM32H5xx_HAL_Driver/Src/stm32h5xx_hal_pwr_ex.c ****   * @retval None.
 646:Drivers/STM32H5xx_HAL_Driver/Src/stm32h5xx_hal_pwr_ex.c ****   */
 647:Drivers/STM32H5xx_HAL_Driver/Src/stm32h5xx_hal_pwr_ex.c **** void HAL_PWREx_EnableFlashPowerDown(void)
 648:Drivers/STM32H5xx_HAL_Driver/Src/stm32h5xx_hal_pwr_ex.c **** {
 1276              		.loc 1 648 1 is_stmt 1 view -0
 1277              		.cfi_startproc
 1278              		@ args = 0, pretend = 0, frame = 0
 1279              		@ frame_needed = 0, uses_anonymous_args = 0
 1280              		@ link register save eliminated.
 649:Drivers/STM32H5xx_HAL_Driver/Src/stm32h5xx_hal_pwr_ex.c ****   /* Enable the Flash Power Down */
 650:Drivers/STM32H5xx_HAL_Driver/Src/stm32h5xx_hal_pwr_ex.c ****   SET_BIT(PWR->PMCR, PWR_PMCR_FLPS);
 1281              		.loc 1 650 3 view .LVU248
 1282 0000 024A     		ldr	r2, .L117
 1283 0002 1368     		ldr	r3, [r2]
 1284 0004 43F40073 		orr	r3, r3, #512
 1285 0008 1360     		str	r3, [r2]
 651:Drivers/STM32H5xx_HAL_Driver/Src/stm32h5xx_hal_pwr_ex.c **** }
 1286              		.loc 1 651 1 is_stmt 0 view .LVU249
 1287 000a 7047     		bx	lr
 1288              	.L118:
 1289              		.align	2
 1290              	.L117:
 1291 000c 00080244 		.word	1140983808
 1292              		.cfi_endproc
 1293              	.LFE325:
 1295              		.section	.text.HAL_PWREx_DisableFlashPowerDown,"ax",%progbits
 1296              		.align	1
 1297              		.global	HAL_PWREx_DisableFlashPowerDown
 1298              		.syntax unified
 1299              		.thumb
 1300              		.thumb_func
 1302              	HAL_PWREx_DisableFlashPowerDown:
 1303              	.LFB326:
 652:Drivers/STM32H5xx_HAL_Driver/Src/stm32h5xx_hal_pwr_ex.c **** 
 653:Drivers/STM32H5xx_HAL_Driver/Src/stm32h5xx_hal_pwr_ex.c **** /**
 654:Drivers/STM32H5xx_HAL_Driver/Src/stm32h5xx_hal_pwr_ex.c ****   * @brief Disable the Flash Power Down in Stop mode.
 655:Drivers/STM32H5xx_HAL_Driver/Src/stm32h5xx_hal_pwr_ex.c ****   * @note   When Flash Power Down is disabled  the Flash memory is kept on
 656:Drivers/STM32H5xx_HAL_Driver/Src/stm32h5xx_hal_pwr_ex.c ****   *         normal mode. This feature allows
 657:Drivers/STM32H5xx_HAL_Driver/Src/stm32h5xx_hal_pwr_ex.c ****   *         to obtain the best trade-off between low-power consumption and
 658:Drivers/STM32H5xx_HAL_Driver/Src/stm32h5xx_hal_pwr_ex.c ****   *         restart time when exiting from Stop mode.
 659:Drivers/STM32H5xx_HAL_Driver/Src/stm32h5xx_hal_pwr_ex.c ****   * @retval None.
 660:Drivers/STM32H5xx_HAL_Driver/Src/stm32h5xx_hal_pwr_ex.c ****   */
 661:Drivers/STM32H5xx_HAL_Driver/Src/stm32h5xx_hal_pwr_ex.c **** void HAL_PWREx_DisableFlashPowerDown(void)
 662:Drivers/STM32H5xx_HAL_Driver/Src/stm32h5xx_hal_pwr_ex.c **** {
 1304              		.loc 1 662 1 is_stmt 1 view -0
 1305              		.cfi_startproc
 1306              		@ args = 0, pretend = 0, frame = 0
ARM GAS  C:\Users\DELL\AppData\Local\Temp\ccVJgh0c.s 			page 43


 1307              		@ frame_needed = 0, uses_anonymous_args = 0
 1308              		@ link register save eliminated.
 663:Drivers/STM32H5xx_HAL_Driver/Src/stm32h5xx_hal_pwr_ex.c ****   /* Disable the Flash Power Down */
 664:Drivers/STM32H5xx_HAL_Driver/Src/stm32h5xx_hal_pwr_ex.c ****   CLEAR_BIT(PWR->PMCR, PWR_PMCR_FLPS);
 1309              		.loc 1 664 3 view .LVU251
 1310 0000 024A     		ldr	r2, .L120
 1311 0002 1368     		ldr	r3, [r2]
 1312 0004 23F40073 		bic	r3, r3, #512
 1313 0008 1360     		str	r3, [r2]
 665:Drivers/STM32H5xx_HAL_Driver/Src/stm32h5xx_hal_pwr_ex.c **** }
 1314              		.loc 1 665 1 is_stmt 0 view .LVU252
 1315 000a 7047     		bx	lr
 1316              	.L121:
 1317              		.align	2
 1318              	.L120:
 1319 000c 00080244 		.word	1140983808
 1320              		.cfi_endproc
 1321              	.LFE326:
 1323              		.section	.text.HAL_PWREx_EnableMemoryShutOff,"ax",%progbits
 1324              		.align	1
 1325              		.global	HAL_PWREx_EnableMemoryShutOff
 1326              		.syntax unified
 1327              		.thumb
 1328              		.thumb_func
 1330              	HAL_PWREx_EnableMemoryShutOff:
 1331              	.LVL45:
 1332              	.LFB327:
 666:Drivers/STM32H5xx_HAL_Driver/Src/stm32h5xx_hal_pwr_ex.c **** 
 667:Drivers/STM32H5xx_HAL_Driver/Src/stm32h5xx_hal_pwr_ex.c **** /**
 668:Drivers/STM32H5xx_HAL_Driver/Src/stm32h5xx_hal_pwr_ex.c ****   * @brief Enable memory block shut-off in Stop mode
 669:Drivers/STM32H5xx_HAL_Driver/Src/stm32h5xx_hal_pwr_ex.c ****   * @note   In Stop mode, the content of the memory blocks is
 670:Drivers/STM32H5xx_HAL_Driver/Src/stm32h5xx_hal_pwr_ex.c ****   *         maintained. Further power optimization can be obtained by switching
 671:Drivers/STM32H5xx_HAL_Driver/Src/stm32h5xx_hal_pwr_ex.c ****   *         off some memory blocks. This optimization implies loss of the memory
 672:Drivers/STM32H5xx_HAL_Driver/Src/stm32h5xx_hal_pwr_ex.c ****   *         content. The user can select which memory is discarded during STOP
 673:Drivers/STM32H5xx_HAL_Driver/Src/stm32h5xx_hal_pwr_ex.c ****   *         mode by means of xxSO bits.
 674:Drivers/STM32H5xx_HAL_Driver/Src/stm32h5xx_hal_pwr_ex.c ****   * @param  MemoryBlock : Specifies the memory block to shut-off during Stop mode.
 675:Drivers/STM32H5xx_HAL_Driver/Src/stm32h5xx_hal_pwr_ex.c ****   *          This parameter can be one of the following values for STM32H573xx/STM32H563xx/STM32H56
 676:Drivers/STM32H5xx_HAL_Driver/Src/stm32h5xx_hal_pwr_ex.c ****   *            @arg PWR_ETHERNET_MEMORY_BLOCK      PWR_PMCR_ETHERNETSO    : Ethernet shut-off contr
 677:Drivers/STM32H5xx_HAL_Driver/Src/stm32h5xx_hal_pwr_ex.c ****   *            @arg PWR_RAM3_MEMORY_BLOCK          PWR_PMCR_SRAM3SO       : RAM3 shut-off control i
 678:Drivers/STM32H5xx_HAL_Driver/Src/stm32h5xx_hal_pwr_ex.c ****   *            @arg PWR_RAM2_16_MEMORY_BLOCK       PWR_PMCR_SRAM2_16SO    : RAM2 16k byte shut-off 
 679:Drivers/STM32H5xx_HAL_Driver/Src/stm32h5xx_hal_pwr_ex.c ****   *            @arg PWR_RAM2_48_MEMORY_BLOCK       PWR_PMCR_SRAM2_48SO    : RAM2 48k byte shut-off 
 680:Drivers/STM32H5xx_HAL_Driver/Src/stm32h5xx_hal_pwr_ex.c ****   *            @arg PWR_RAM1_MEMORY_BLOCK          PWR_PMCR_SRAM1SO       : RAM1 shut-off control i
 681:Drivers/STM32H5xx_HAL_Driver/Src/stm32h5xx_hal_pwr_ex.c ****   *          This parameter can be one of the following values for STM32H533xx/STM32H523xx :
 682:Drivers/STM32H5xx_HAL_Driver/Src/stm32h5xx_hal_pwr_ex.c ****   *            @arg PWR_RAM3_MEMORY_BLOCK          PWR_PMCR_SRAM3SO       : RAM3 shut-off control i
 683:Drivers/STM32H5xx_HAL_Driver/Src/stm32h5xx_hal_pwr_ex.c ****   *            @arg PWR_RAM2_LOW_16_MEMORY_BLOCK   PWR_PMCR_SRAM2_16LSO   : RAM2 Low 16k byte shut-
 684:Drivers/STM32H5xx_HAL_Driver/Src/stm32h5xx_hal_pwr_ex.c ****   *            in Stop mode
 685:Drivers/STM32H5xx_HAL_Driver/Src/stm32h5xx_hal_pwr_ex.c ****   *            @arg PWR_RAM2_HIGH_16_MEMORY_BLOCK  PWR_PMCR_SRAM2_16HSO   : RAM2 High 16k byte shut
 686:Drivers/STM32H5xx_HAL_Driver/Src/stm32h5xx_hal_pwr_ex.c ****   *            in Stop mode
 687:Drivers/STM32H5xx_HAL_Driver/Src/stm32h5xx_hal_pwr_ex.c ****   *            @arg PWR_RAM2_48_MEMORY_BLOCK       PWR_PMCR_SRAM2_48SO    : RAM2 48k byte shut-off 
 688:Drivers/STM32H5xx_HAL_Driver/Src/stm32h5xx_hal_pwr_ex.c ****   *            @arg PWR_RAM1_MEMORY_BLOCK          PWR_PMCR_SRAM1SO       : RAM1 shut-off control i
 689:Drivers/STM32H5xx_HAL_Driver/Src/stm32h5xx_hal_pwr_ex.c ****   *          This parameter can be one of the following values for STM32H503xx :
 690:Drivers/STM32H5xx_HAL_Driver/Src/stm32h5xx_hal_pwr_ex.c ****   *            @arg PWR_RAM2_MEMORY_BLOCK          PWR_PMCR_SRAM2SO       : RAM2 shut-off control i
 691:Drivers/STM32H5xx_HAL_Driver/Src/stm32h5xx_hal_pwr_ex.c ****   *            @arg PWR_RAM1_MEMORY_BLOCK          PWR_PMCR_SRAM1SO       : RAM1 shut-off control i
 692:Drivers/STM32H5xx_HAL_Driver/Src/stm32h5xx_hal_pwr_ex.c ****   * @retval None.
 693:Drivers/STM32H5xx_HAL_Driver/Src/stm32h5xx_hal_pwr_ex.c ****   */
 694:Drivers/STM32H5xx_HAL_Driver/Src/stm32h5xx_hal_pwr_ex.c **** void HAL_PWREx_EnableMemoryShutOff(uint32_t MemoryBlock)
 695:Drivers/STM32H5xx_HAL_Driver/Src/stm32h5xx_hal_pwr_ex.c **** {
ARM GAS  C:\Users\DELL\AppData\Local\Temp\ccVJgh0c.s 			page 44


 1333              		.loc 1 695 1 is_stmt 1 view -0
 1334              		.cfi_startproc
 1335              		@ args = 0, pretend = 0, frame = 0
 1336              		@ frame_needed = 0, uses_anonymous_args = 0
 1337              		@ link register save eliminated.
 696:Drivers/STM32H5xx_HAL_Driver/Src/stm32h5xx_hal_pwr_ex.c ****   /* Check the parameter */
 697:Drivers/STM32H5xx_HAL_Driver/Src/stm32h5xx_hal_pwr_ex.c ****   assert_param(IS_PWR_MEMORY_BLOCK(MemoryBlock));
 1338              		.loc 1 697 3 view .LVU254
 698:Drivers/STM32H5xx_HAL_Driver/Src/stm32h5xx_hal_pwr_ex.c **** 
 699:Drivers/STM32H5xx_HAL_Driver/Src/stm32h5xx_hal_pwr_ex.c ****   /* Enable memory block shut-off */
 700:Drivers/STM32H5xx_HAL_Driver/Src/stm32h5xx_hal_pwr_ex.c ****   SET_BIT(PWR->PMCR, MemoryBlock);
 1339              		.loc 1 700 3 view .LVU255
 1340 0000 024A     		ldr	r2, .L123
 1341 0002 1368     		ldr	r3, [r2]
 1342 0004 0343     		orrs	r3, r3, r0
 1343 0006 1360     		str	r3, [r2]
 701:Drivers/STM32H5xx_HAL_Driver/Src/stm32h5xx_hal_pwr_ex.c **** }
 1344              		.loc 1 701 1 is_stmt 0 view .LVU256
 1345 0008 7047     		bx	lr
 1346              	.L124:
 1347 000a 00BF     		.align	2
 1348              	.L123:
 1349 000c 00080244 		.word	1140983808
 1350              		.cfi_endproc
 1351              	.LFE327:
 1353              		.section	.text.HAL_PWREx_DisableMemoryShutOff,"ax",%progbits
 1354              		.align	1
 1355              		.global	HAL_PWREx_DisableMemoryShutOff
 1356              		.syntax unified
 1357              		.thumb
 1358              		.thumb_func
 1360              	HAL_PWREx_DisableMemoryShutOff:
 1361              	.LVL46:
 1362              	.LFB328:
 702:Drivers/STM32H5xx_HAL_Driver/Src/stm32h5xx_hal_pwr_ex.c **** 
 703:Drivers/STM32H5xx_HAL_Driver/Src/stm32h5xx_hal_pwr_ex.c **** /**
 704:Drivers/STM32H5xx_HAL_Driver/Src/stm32h5xx_hal_pwr_ex.c ****   * @brief Disable memory block shut-off in Stop mode
 705:Drivers/STM32H5xx_HAL_Driver/Src/stm32h5xx_hal_pwr_ex.c ****   * @param  MemoryBlock : Specifies the memory block to keep content during
 706:Drivers/STM32H5xx_HAL_Driver/Src/stm32h5xx_hal_pwr_ex.c ****   *                       Stop mode.
 707:Drivers/STM32H5xx_HAL_Driver/Src/stm32h5xx_hal_pwr_ex.c ****   *          This parameter can be one of the following values for STM32H573xx/STM32H563xx/STM32H56
 708:Drivers/STM32H5xx_HAL_Driver/Src/stm32h5xx_hal_pwr_ex.c ****   *            @arg PWR_ETHERNET_MEMORY_BLOCK      PWR_PMCR_ETHERNETSO    : Ethernet shut-off contr
 709:Drivers/STM32H5xx_HAL_Driver/Src/stm32h5xx_hal_pwr_ex.c ****   *            @arg PWR_RAM3_MEMORY_BLOCK          PWR_PMCR_SRAM3SO       : RAM3 shut-off control i
 710:Drivers/STM32H5xx_HAL_Driver/Src/stm32h5xx_hal_pwr_ex.c ****   *            @arg PWR_RAM2_16_MEMORY_BLOCK       PWR_PMCR_SRAM2_16SO    : RAM2 16k byte shut-off 
 711:Drivers/STM32H5xx_HAL_Driver/Src/stm32h5xx_hal_pwr_ex.c ****   *            @arg PWR_RAM2_48_MEMORY_BLOCK       PWR_PMCR_SRAM2_48SO    : RAM2 48k byte shut-off 
 712:Drivers/STM32H5xx_HAL_Driver/Src/stm32h5xx_hal_pwr_ex.c ****   *            @arg PWR_RAM1_MEMORY_BLOCK          PWR_PMCR_SRAM1SO       : RAM1 shut-off control i
 713:Drivers/STM32H5xx_HAL_Driver/Src/stm32h5xx_hal_pwr_ex.c ****   *          This parameter can be one of the following values for STM32H533xx/STM32H523xx :
 714:Drivers/STM32H5xx_HAL_Driver/Src/stm32h5xx_hal_pwr_ex.c ****   *            @arg PWR_RAM3_MEMORY_BLOCK          PWR_PMCR_SRAM3SO       : RAM3 shut-off control i
 715:Drivers/STM32H5xx_HAL_Driver/Src/stm32h5xx_hal_pwr_ex.c ****   *            @arg PWR_RAM2_LOW_16_MEMORY_BLOCK   PWR_PMCR_SRAM2_16LSO   : RAM2 Low 16k byte shut-
 716:Drivers/STM32H5xx_HAL_Driver/Src/stm32h5xx_hal_pwr_ex.c ****   *            in Stop mode
 717:Drivers/STM32H5xx_HAL_Driver/Src/stm32h5xx_hal_pwr_ex.c ****   *            @arg PWR_RAM2_HIGH_16_MEMORY_BLOCK  PWR_PMCR_SRAM2_16HSO   : RAM2 High 16k byte shut
 718:Drivers/STM32H5xx_HAL_Driver/Src/stm32h5xx_hal_pwr_ex.c ****   *            in Stop mode
 719:Drivers/STM32H5xx_HAL_Driver/Src/stm32h5xx_hal_pwr_ex.c ****   *            @arg PWR_RAM2_48_MEMORY_BLOCK       PWR_PMCR_SRAM2_48SO    : RAM2 48k byte shut-off 
 720:Drivers/STM32H5xx_HAL_Driver/Src/stm32h5xx_hal_pwr_ex.c ****   *            @arg PWR_RAM1_MEMORY_BLOCK          PWR_PMCR_SRAM1SO       : RAM1 shut-off control i
 721:Drivers/STM32H5xx_HAL_Driver/Src/stm32h5xx_hal_pwr_ex.c ****   *          This parameter can be one of the following values for STM32H503xx :
 722:Drivers/STM32H5xx_HAL_Driver/Src/stm32h5xx_hal_pwr_ex.c ****   *            @arg PWR_RAM2_MEMORY_BLOCK          PWR_PMCR_SRAM2SO       : RAM2 shut-off control i
 723:Drivers/STM32H5xx_HAL_Driver/Src/stm32h5xx_hal_pwr_ex.c ****   *            @arg PWR_RAM1_MEMORY_BLOCK          PWR_PMCR_SRAM1SO       : RAM1 shut-off control i
 724:Drivers/STM32H5xx_HAL_Driver/Src/stm32h5xx_hal_pwr_ex.c ****   * @retval None.
ARM GAS  C:\Users\DELL\AppData\Local\Temp\ccVJgh0c.s 			page 45


 725:Drivers/STM32H5xx_HAL_Driver/Src/stm32h5xx_hal_pwr_ex.c ****   */
 726:Drivers/STM32H5xx_HAL_Driver/Src/stm32h5xx_hal_pwr_ex.c **** void HAL_PWREx_DisableMemoryShutOff(uint32_t MemoryBlock)
 727:Drivers/STM32H5xx_HAL_Driver/Src/stm32h5xx_hal_pwr_ex.c **** {
 1363              		.loc 1 727 1 is_stmt 1 view -0
 1364              		.cfi_startproc
 1365              		@ args = 0, pretend = 0, frame = 0
 1366              		@ frame_needed = 0, uses_anonymous_args = 0
 1367              		@ link register save eliminated.
 728:Drivers/STM32H5xx_HAL_Driver/Src/stm32h5xx_hal_pwr_ex.c ****   /* Check the parameter */
 729:Drivers/STM32H5xx_HAL_Driver/Src/stm32h5xx_hal_pwr_ex.c ****   assert_param(IS_PWR_MEMORY_BLOCK(MemoryBlock));
 1368              		.loc 1 729 3 view .LVU258
 730:Drivers/STM32H5xx_HAL_Driver/Src/stm32h5xx_hal_pwr_ex.c **** 
 731:Drivers/STM32H5xx_HAL_Driver/Src/stm32h5xx_hal_pwr_ex.c ****   /* Disable memory block shut-off */
 732:Drivers/STM32H5xx_HAL_Driver/Src/stm32h5xx_hal_pwr_ex.c ****   CLEAR_BIT(PWR->PMCR, MemoryBlock);
 1369              		.loc 1 732 3 view .LVU259
 1370 0000 024A     		ldr	r2, .L126
 1371 0002 1368     		ldr	r3, [r2]
 1372 0004 23EA0003 		bic	r3, r3, r0
 1373 0008 1360     		str	r3, [r2]
 733:Drivers/STM32H5xx_HAL_Driver/Src/stm32h5xx_hal_pwr_ex.c **** }
 1374              		.loc 1 733 1 is_stmt 0 view .LVU260
 1375 000a 7047     		bx	lr
 1376              	.L127:
 1377              		.align	2
 1378              	.L126:
 1379 000c 00080244 		.word	1140983808
 1380              		.cfi_endproc
 1381              	.LFE328:
 1383              		.section	.text.HAL_PWREx_EnableBkupRAMRetention,"ax",%progbits
 1384              		.align	1
 1385              		.global	HAL_PWREx_EnableBkupRAMRetention
 1386              		.syntax unified
 1387              		.thumb
 1388              		.thumb_func
 1390              	HAL_PWREx_EnableBkupRAMRetention:
 1391              	.LFB329:
 734:Drivers/STM32H5xx_HAL_Driver/Src/stm32h5xx_hal_pwr_ex.c **** 
 735:Drivers/STM32H5xx_HAL_Driver/Src/stm32h5xx_hal_pwr_ex.c **** /**
 736:Drivers/STM32H5xx_HAL_Driver/Src/stm32h5xx_hal_pwr_ex.c ****   * @brief  Enable the Backup RAM retention in Standby and VBAT modes.
 737:Drivers/STM32H5xx_HAL_Driver/Src/stm32h5xx_hal_pwr_ex.c ****   * @note   If BREN is reset, the backup RAM can still be used in Run, Sleep and
 738:Drivers/STM32H5xx_HAL_Driver/Src/stm32h5xx_hal_pwr_ex.c ****   *         Stop modes. However, its content is lost in Standby, Shutdown and
 739:Drivers/STM32H5xx_HAL_Driver/Src/stm32h5xx_hal_pwr_ex.c ****   *         VBAT modes. This bit can be writte
 740:Drivers/STM32H5xx_HAL_Driver/Src/stm32h5xx_hal_pwr_ex.c ****   * @retval None.
 741:Drivers/STM32H5xx_HAL_Driver/Src/stm32h5xx_hal_pwr_ex.c ****   */
 742:Drivers/STM32H5xx_HAL_Driver/Src/stm32h5xx_hal_pwr_ex.c **** HAL_StatusTypeDef HAL_PWREx_EnableBkupRAMRetention(void)
 743:Drivers/STM32H5xx_HAL_Driver/Src/stm32h5xx_hal_pwr_ex.c **** {
 1392              		.loc 1 743 1 is_stmt 1 view -0
 1393              		.cfi_startproc
 1394              		@ args = 0, pretend = 0, frame = 0
 1395              		@ frame_needed = 0, uses_anonymous_args = 0
 1396              		@ link register save eliminated.
 744:Drivers/STM32H5xx_HAL_Driver/Src/stm32h5xx_hal_pwr_ex.c ****   SET_BIT(PWR->BDCR, PWR_BDCR_BREN);
 1397              		.loc 1 744 3 view .LVU262
 1398 0000 034A     		ldr	r2, .L129
 1399 0002 136A     		ldr	r3, [r2, #32]
 1400 0004 43F00103 		orr	r3, r3, #1
 1401 0008 1362     		str	r3, [r2, #32]
ARM GAS  C:\Users\DELL\AppData\Local\Temp\ccVJgh0c.s 			page 46


 745:Drivers/STM32H5xx_HAL_Driver/Src/stm32h5xx_hal_pwr_ex.c **** 
 746:Drivers/STM32H5xx_HAL_Driver/Src/stm32h5xx_hal_pwr_ex.c ****   return HAL_OK;
 1402              		.loc 1 746 3 view .LVU263
 747:Drivers/STM32H5xx_HAL_Driver/Src/stm32h5xx_hal_pwr_ex.c **** }
 1403              		.loc 1 747 1 is_stmt 0 view .LVU264
 1404 000a 0020     		movs	r0, #0
 1405 000c 7047     		bx	lr
 1406              	.L130:
 1407 000e 00BF     		.align	2
 1408              	.L129:
 1409 0010 00080244 		.word	1140983808
 1410              		.cfi_endproc
 1411              	.LFE329:
 1413              		.section	.text.HAL_PWREx_DisableBkupRAMRetention,"ax",%progbits
 1414              		.align	1
 1415              		.global	HAL_PWREx_DisableBkupRAMRetention
 1416              		.syntax unified
 1417              		.thumb
 1418              		.thumb_func
 1420              	HAL_PWREx_DisableBkupRAMRetention:
 1421              	.LFB330:
 748:Drivers/STM32H5xx_HAL_Driver/Src/stm32h5xx_hal_pwr_ex.c **** 
 749:Drivers/STM32H5xx_HAL_Driver/Src/stm32h5xx_hal_pwr_ex.c **** /**
 750:Drivers/STM32H5xx_HAL_Driver/Src/stm32h5xx_hal_pwr_ex.c ****   * @brief  Disable the Backup RAM retention in Standby and VBAT modes.
 751:Drivers/STM32H5xx_HAL_Driver/Src/stm32h5xx_hal_pwr_ex.c ****   * @note   If BREN is reset, the backup RAM can still be used in Run, Sleep and
 752:Drivers/STM32H5xx_HAL_Driver/Src/stm32h5xx_hal_pwr_ex.c ****   *         Stop modes. However, its content is lost in Standby, Shutdown and
 753:Drivers/STM32H5xx_HAL_Driver/Src/stm32h5xx_hal_pwr_ex.c ****   *         VBAT modes. This bit can be write
 754:Drivers/STM32H5xx_HAL_Driver/Src/stm32h5xx_hal_pwr_ex.c ****   * @retval None.
 755:Drivers/STM32H5xx_HAL_Driver/Src/stm32h5xx_hal_pwr_ex.c ****   */
 756:Drivers/STM32H5xx_HAL_Driver/Src/stm32h5xx_hal_pwr_ex.c **** void HAL_PWREx_DisableBkupRAMRetention(void)
 757:Drivers/STM32H5xx_HAL_Driver/Src/stm32h5xx_hal_pwr_ex.c **** {
 1422              		.loc 1 757 1 is_stmt 1 view -0
 1423              		.cfi_startproc
 1424              		@ args = 0, pretend = 0, frame = 0
 1425              		@ frame_needed = 0, uses_anonymous_args = 0
 1426              		@ link register save eliminated.
 758:Drivers/STM32H5xx_HAL_Driver/Src/stm32h5xx_hal_pwr_ex.c ****   CLEAR_BIT(PWR->BDCR, PWR_BDCR_BREN);
 1427              		.loc 1 758 3 view .LVU266
 1428 0000 024A     		ldr	r2, .L132
 1429 0002 136A     		ldr	r3, [r2, #32]
 1430 0004 23F00103 		bic	r3, r3, #1
 1431 0008 1362     		str	r3, [r2, #32]
 759:Drivers/STM32H5xx_HAL_Driver/Src/stm32h5xx_hal_pwr_ex.c **** }
 1432              		.loc 1 759 1 is_stmt 0 view .LVU267
 1433 000a 7047     		bx	lr
 1434              	.L133:
 1435              		.align	2
 1436              	.L132:
 1437 000c 00080244 		.word	1140983808
 1438              		.cfi_endproc
 1439              	.LFE330:
 1441              		.section	.text.HAL_PWREx_EnableStandbyIORetention,"ax",%progbits
 1442              		.align	1
 1443              		.global	HAL_PWREx_EnableStandbyIORetention
 1444              		.syntax unified
 1445              		.thumb
 1446              		.thumb_func
ARM GAS  C:\Users\DELL\AppData\Local\Temp\ccVJgh0c.s 			page 47


 1448              	HAL_PWREx_EnableStandbyIORetention:
 1449              	.LFB331:
 760:Drivers/STM32H5xx_HAL_Driver/Src/stm32h5xx_hal_pwr_ex.c **** /**
 761:Drivers/STM32H5xx_HAL_Driver/Src/stm32h5xx_hal_pwr_ex.c ****   * @}
 762:Drivers/STM32H5xx_HAL_Driver/Src/stm32h5xx_hal_pwr_ex.c ****   */
 763:Drivers/STM32H5xx_HAL_Driver/Src/stm32h5xx_hal_pwr_ex.c **** 
 764:Drivers/STM32H5xx_HAL_Driver/Src/stm32h5xx_hal_pwr_ex.c **** /** @defgroup PWREx_Exported_Functions_Group5 IO and JTAG Retention Functions
 765:Drivers/STM32H5xx_HAL_Driver/Src/stm32h5xx_hal_pwr_ex.c ****   * @brief    IO and JTAG Retention functions
 766:Drivers/STM32H5xx_HAL_Driver/Src/stm32h5xx_hal_pwr_ex.c ****   *
 767:Drivers/STM32H5xx_HAL_Driver/Src/stm32h5xx_hal_pwr_ex.c **** @verbatim
 768:Drivers/STM32H5xx_HAL_Driver/Src/stm32h5xx_hal_pwr_ex.c ****  ===============================================================================
 769:Drivers/STM32H5xx_HAL_Driver/Src/stm32h5xx_hal_pwr_ex.c ****                      ##### IO and JTAG Retention Functions #####
 770:Drivers/STM32H5xx_HAL_Driver/Src/stm32h5xx_hal_pwr_ex.c ****  ===============================================================================
 771:Drivers/STM32H5xx_HAL_Driver/Src/stm32h5xx_hal_pwr_ex.c ****     [..]
 772:Drivers/STM32H5xx_HAL_Driver/Src/stm32h5xx_hal_pwr_ex.c ****       In the Standby mode, the I/Os are by default in floating state. If the IORETEN bit in the
 773:Drivers/STM32H5xx_HAL_Driver/Src/stm32h5xx_hal_pwr_ex.c ****       PWR_IORETR register is set, the I/Os output state is retained. IO Retention mode is
 774:Drivers/STM32H5xx_HAL_Driver/Src/stm32h5xx_hal_pwr_ex.c ****       enabled for all IO except the IO support the standby functionality and JTAG IOs (PA13,
 775:Drivers/STM32H5xx_HAL_Driver/Src/stm32h5xx_hal_pwr_ex.c ****       PA14, PA15 and PB4). When entering into Standby mode, the state of the output is
 776:Drivers/STM32H5xx_HAL_Driver/Src/stm32h5xx_hal_pwr_ex.c ****       sampled, and pull-up or pull-down resistor are set to maintain the IO output during Standby
 777:Drivers/STM32H5xx_HAL_Driver/Src/stm32h5xx_hal_pwr_ex.c ****       mode.
 778:Drivers/STM32H5xx_HAL_Driver/Src/stm32h5xx_hal_pwr_ex.c ****       If the JTAGIORETEN bit in the PWR_IORETR register is set, the I/Os output state is
 779:Drivers/STM32H5xx_HAL_Driver/Src/stm32h5xx_hal_pwr_ex.c ****       retained. IO Retention mode is enabled for PA13, PA14, PA15 and PB4 (default JTAG pullup/
 780:Drivers/STM32H5xx_HAL_Driver/Src/stm32h5xx_hal_pwr_ex.c ****       pull-down after wakeup are not enabled).
 781:Drivers/STM32H5xx_HAL_Driver/Src/stm32h5xx_hal_pwr_ex.c **** @endverbatim
 782:Drivers/STM32H5xx_HAL_Driver/Src/stm32h5xx_hal_pwr_ex.c ****   * @{
 783:Drivers/STM32H5xx_HAL_Driver/Src/stm32h5xx_hal_pwr_ex.c ****   */
 784:Drivers/STM32H5xx_HAL_Driver/Src/stm32h5xx_hal_pwr_ex.c **** 
 785:Drivers/STM32H5xx_HAL_Driver/Src/stm32h5xx_hal_pwr_ex.c **** /**
 786:Drivers/STM32H5xx_HAL_Driver/Src/stm32h5xx_hal_pwr_ex.c ****   * @brief Enable GPIO state retention in Standby mode.
 787:Drivers/STM32H5xx_HAL_Driver/Src/stm32h5xx_hal_pwr_ex.c ****   * @note   When entering into standby mode, the output is sampled, and applied to the output IO du
 788:Drivers/STM32H5xx_HAL_Driver/Src/stm32h5xx_hal_pwr_ex.c ****   *         the standby power mode
 789:Drivers/STM32H5xx_HAL_Driver/Src/stm32h5xx_hal_pwr_ex.c ****   * @retval None.
 790:Drivers/STM32H5xx_HAL_Driver/Src/stm32h5xx_hal_pwr_ex.c ****   */
 791:Drivers/STM32H5xx_HAL_Driver/Src/stm32h5xx_hal_pwr_ex.c **** void HAL_PWREx_EnableStandbyIORetention(void)
 792:Drivers/STM32H5xx_HAL_Driver/Src/stm32h5xx_hal_pwr_ex.c **** {
 1450              		.loc 1 792 1 is_stmt 1 view -0
 1451              		.cfi_startproc
 1452              		@ args = 0, pretend = 0, frame = 0
 1453              		@ frame_needed = 0, uses_anonymous_args = 0
 1454              		@ link register save eliminated.
 793:Drivers/STM32H5xx_HAL_Driver/Src/stm32h5xx_hal_pwr_ex.c ****   /* Enable GPIO state retention */
 794:Drivers/STM32H5xx_HAL_Driver/Src/stm32h5xx_hal_pwr_ex.c ****   SET_BIT(PWR->IORETR, PWR_IORETR_IORETEN);
 1455              		.loc 1 794 3 view .LVU269
 1456 0000 024A     		ldr	r2, .L135
 1457 0002 136D     		ldr	r3, [r2, #80]
 1458 0004 43F00103 		orr	r3, r3, #1
 1459 0008 1365     		str	r3, [r2, #80]
 795:Drivers/STM32H5xx_HAL_Driver/Src/stm32h5xx_hal_pwr_ex.c **** }
 1460              		.loc 1 795 1 is_stmt 0 view .LVU270
 1461 000a 7047     		bx	lr
 1462              	.L136:
 1463              		.align	2
 1464              	.L135:
 1465 000c 00080244 		.word	1140983808
 1466              		.cfi_endproc
 1467              	.LFE331:
 1469              		.section	.text.HAL_PWREx_DisableStandbyIORetention,"ax",%progbits
ARM GAS  C:\Users\DELL\AppData\Local\Temp\ccVJgh0c.s 			page 48


 1470              		.align	1
 1471              		.global	HAL_PWREx_DisableStandbyIORetention
 1472              		.syntax unified
 1473              		.thumb
 1474              		.thumb_func
 1476              	HAL_PWREx_DisableStandbyIORetention:
 1477              	.LFB332:
 796:Drivers/STM32H5xx_HAL_Driver/Src/stm32h5xx_hal_pwr_ex.c **** 
 797:Drivers/STM32H5xx_HAL_Driver/Src/stm32h5xx_hal_pwr_ex.c **** /**
 798:Drivers/STM32H5xx_HAL_Driver/Src/stm32h5xx_hal_pwr_ex.c ****   * @brief Disable GPIO state retention in Standby mode.
 799:Drivers/STM32H5xx_HAL_Driver/Src/stm32h5xx_hal_pwr_ex.c ****   * @retval None.
 800:Drivers/STM32H5xx_HAL_Driver/Src/stm32h5xx_hal_pwr_ex.c ****   */
 801:Drivers/STM32H5xx_HAL_Driver/Src/stm32h5xx_hal_pwr_ex.c **** void HAL_PWREx_DisableStandbyIORetention(void)
 802:Drivers/STM32H5xx_HAL_Driver/Src/stm32h5xx_hal_pwr_ex.c **** {
 1478              		.loc 1 802 1 is_stmt 1 view -0
 1479              		.cfi_startproc
 1480              		@ args = 0, pretend = 0, frame = 0
 1481              		@ frame_needed = 0, uses_anonymous_args = 0
 1482              		@ link register save eliminated.
 803:Drivers/STM32H5xx_HAL_Driver/Src/stm32h5xx_hal_pwr_ex.c ****   /* Disable GPIO state retention */
 804:Drivers/STM32H5xx_HAL_Driver/Src/stm32h5xx_hal_pwr_ex.c ****   CLEAR_BIT(PWR->IORETR, PWR_IORETR_IORETEN);
 1483              		.loc 1 804 3 view .LVU272
 1484 0000 024A     		ldr	r2, .L138
 1485 0002 136D     		ldr	r3, [r2, #80]
 1486 0004 23F00103 		bic	r3, r3, #1
 1487 0008 1365     		str	r3, [r2, #80]
 805:Drivers/STM32H5xx_HAL_Driver/Src/stm32h5xx_hal_pwr_ex.c **** }
 1488              		.loc 1 805 1 is_stmt 0 view .LVU273
 1489 000a 7047     		bx	lr
 1490              	.L139:
 1491              		.align	2
 1492              	.L138:
 1493 000c 00080244 		.word	1140983808
 1494              		.cfi_endproc
 1495              	.LFE332:
 1497              		.section	.text.HAL_PWREx_EnableStandbyJTAGIORetention,"ax",%progbits
 1498              		.align	1
 1499              		.global	HAL_PWREx_EnableStandbyJTAGIORetention
 1500              		.syntax unified
 1501              		.thumb
 1502              		.thumb_func
 1504              	HAL_PWREx_EnableStandbyJTAGIORetention:
 1505              	.LFB333:
 806:Drivers/STM32H5xx_HAL_Driver/Src/stm32h5xx_hal_pwr_ex.c **** 
 807:Drivers/STM32H5xx_HAL_Driver/Src/stm32h5xx_hal_pwr_ex.c **** /**
 808:Drivers/STM32H5xx_HAL_Driver/Src/stm32h5xx_hal_pwr_ex.c ****   * @brief  Enable JTAG IOs state retention in Standby mode.
 809:Drivers/STM32H5xx_HAL_Driver/Src/stm32h5xx_hal_pwr_ex.c ****   * @note   when entering into standby mode, the output is sampled, and applied to the output IO du
 810:Drivers/STM32H5xx_HAL_Driver/Src/stm32h5xx_hal_pwr_ex.c ****   *         the standby power mode
 811:Drivers/STM32H5xx_HAL_Driver/Src/stm32h5xx_hal_pwr_ex.c ****   * @retval None.
 812:Drivers/STM32H5xx_HAL_Driver/Src/stm32h5xx_hal_pwr_ex.c ****   */
 813:Drivers/STM32H5xx_HAL_Driver/Src/stm32h5xx_hal_pwr_ex.c **** void HAL_PWREx_EnableStandbyJTAGIORetention(void)
 814:Drivers/STM32H5xx_HAL_Driver/Src/stm32h5xx_hal_pwr_ex.c **** {
 1506              		.loc 1 814 1 is_stmt 1 view -0
 1507              		.cfi_startproc
 1508              		@ args = 0, pretend = 0, frame = 0
 1509              		@ frame_needed = 0, uses_anonymous_args = 0
 1510              		@ link register save eliminated.
ARM GAS  C:\Users\DELL\AppData\Local\Temp\ccVJgh0c.s 			page 49


 815:Drivers/STM32H5xx_HAL_Driver/Src/stm32h5xx_hal_pwr_ex.c ****   /* Enable JTAG IOs state retention */
 816:Drivers/STM32H5xx_HAL_Driver/Src/stm32h5xx_hal_pwr_ex.c ****   SET_BIT(PWR->IORETR, PWR_IORETR_JTAGIORETEN);
 1511              		.loc 1 816 3 view .LVU275
 1512 0000 024A     		ldr	r2, .L141
 1513 0002 136D     		ldr	r3, [r2, #80]
 1514 0004 43F48033 		orr	r3, r3, #65536
 1515 0008 1365     		str	r3, [r2, #80]
 817:Drivers/STM32H5xx_HAL_Driver/Src/stm32h5xx_hal_pwr_ex.c **** }
 1516              		.loc 1 817 1 is_stmt 0 view .LVU276
 1517 000a 7047     		bx	lr
 1518              	.L142:
 1519              		.align	2
 1520              	.L141:
 1521 000c 00080244 		.word	1140983808
 1522              		.cfi_endproc
 1523              	.LFE333:
 1525              		.section	.text.HAL_PWREx_DisableStandbyJTAGIORetention,"ax",%progbits
 1526              		.align	1
 1527              		.global	HAL_PWREx_DisableStandbyJTAGIORetention
 1528              		.syntax unified
 1529              		.thumb
 1530              		.thumb_func
 1532              	HAL_PWREx_DisableStandbyJTAGIORetention:
 1533              	.LFB334:
 818:Drivers/STM32H5xx_HAL_Driver/Src/stm32h5xx_hal_pwr_ex.c **** 
 819:Drivers/STM32H5xx_HAL_Driver/Src/stm32h5xx_hal_pwr_ex.c **** /**
 820:Drivers/STM32H5xx_HAL_Driver/Src/stm32h5xx_hal_pwr_ex.c ****   * @brief Disable JTAG IOs state retention in Standby mode.
 821:Drivers/STM32H5xx_HAL_Driver/Src/stm32h5xx_hal_pwr_ex.c ****   * @retval None.
 822:Drivers/STM32H5xx_HAL_Driver/Src/stm32h5xx_hal_pwr_ex.c ****   */
 823:Drivers/STM32H5xx_HAL_Driver/Src/stm32h5xx_hal_pwr_ex.c **** void HAL_PWREx_DisableStandbyJTAGIORetention(void)
 824:Drivers/STM32H5xx_HAL_Driver/Src/stm32h5xx_hal_pwr_ex.c **** {
 1534              		.loc 1 824 1 is_stmt 1 view -0
 1535              		.cfi_startproc
 1536              		@ args = 0, pretend = 0, frame = 0
 1537              		@ frame_needed = 0, uses_anonymous_args = 0
 1538              		@ link register save eliminated.
 825:Drivers/STM32H5xx_HAL_Driver/Src/stm32h5xx_hal_pwr_ex.c ****   /* Enable JTAG IOs state retention */
 826:Drivers/STM32H5xx_HAL_Driver/Src/stm32h5xx_hal_pwr_ex.c ****   CLEAR_BIT(PWR->IORETR, PWR_IORETR_JTAGIORETEN);
 1539              		.loc 1 826 3 view .LVU278
 1540 0000 024A     		ldr	r2, .L144
 1541 0002 136D     		ldr	r3, [r2, #80]
 1542 0004 23F48033 		bic	r3, r3, #65536
 1543 0008 1365     		str	r3, [r2, #80]
 827:Drivers/STM32H5xx_HAL_Driver/Src/stm32h5xx_hal_pwr_ex.c **** }
 1544              		.loc 1 827 1 is_stmt 0 view .LVU279
 1545 000a 7047     		bx	lr
 1546              	.L145:
 1547              		.align	2
 1548              	.L144:
 1549 000c 00080244 		.word	1140983808
 1550              		.cfi_endproc
 1551              	.LFE334:
 1553              		.text
 1554              	.Letext0:
 1555              		.file 3 "D:\\stm32cubeclt\\STM32CubeCLT_1.21.0\\GNU-tools-for-STM32\\bin\\../lib/gcc/arm-none-eabi
 1556              		.file 4 "D:\\stm32cubeclt\\STM32CubeCLT_1.21.0\\GNU-tools-for-STM32\\bin\\../lib/gcc/arm-none-eabi
 1557              		.file 5 "Drivers/CMSIS/Device/ST/STM32H5xx/Include/stm32h563xx.h"
ARM GAS  C:\Users\DELL\AppData\Local\Temp\ccVJgh0c.s 			page 50


 1558              		.file 6 "Drivers/STM32H5xx_HAL_Driver/Inc/stm32h5xx_hal_def.h"
 1559              		.file 7 "Drivers/STM32H5xx_HAL_Driver/Inc/stm32h5xx_ll_lptim.h"
 1560              		.file 8 "Drivers/STM32H5xx_HAL_Driver/Inc/stm32h5xx_hal_pwr_ex.h"
 1561              		.file 9 "Drivers/STM32H5xx_HAL_Driver/Inc/stm32h5xx_hal.h"
ARM GAS  C:\Users\DELL\AppData\Local\Temp\ccVJgh0c.s 			page 51

