ARM GAS  C:\Users\DELL\AppData\Local\Temp\ccMtHSyM.s 			page 1


   1              		.cpu cortex-m33
   2              		.arch armv8-m.main
   3              		.fpu fpv5-sp-d16
   4              		.arch_extension dsp
   5              		.eabi_attribute 27, 1
   6              		.eabi_attribute 28, 1
   7              		.eabi_attribute 20, 1
   8              		.eabi_attribute 21, 1
   9              		.eabi_attribute 23, 3
  10              		.eabi_attribute 24, 1
  11              		.eabi_attribute 25, 1
  12              		.eabi_attribute 26, 1
  13              		.eabi_attribute 30, 1
  14              		.eabi_attribute 34, 1
  15              		.eabi_attribute 18, 4
  16              		.file	"stm32h5xx_hal_rtc_ex.c"
  17              		.text
  18              	.Ltext0:
  19              		.cfi_sections	.debug_frame
  20              		.file 1 "Drivers/STM32H5xx_HAL_Driver/Src/stm32h5xx_hal_rtc_ex.c"
  21              		.section	.text.HAL_RTCEx_SetTimeStamp,"ax",%progbits
  22              		.align	1
  23              		.global	HAL_RTCEx_SetTimeStamp
  24              		.syntax unified
  25              		.thumb
  26              		.thumb_func
  28              	HAL_RTCEx_SetTimeStamp:
  29              	.LVL0:
  30              	.LFB297:
   1:Drivers/STM32H5xx_HAL_Driver/Src/stm32h5xx_hal_rtc_ex.c **** /**
   2:Drivers/STM32H5xx_HAL_Driver/Src/stm32h5xx_hal_rtc_ex.c ****   ******************************************************************************
   3:Drivers/STM32H5xx_HAL_Driver/Src/stm32h5xx_hal_rtc_ex.c ****   * @file    stm32h5xx_hal_rtc_ex.c
   4:Drivers/STM32H5xx_HAL_Driver/Src/stm32h5xx_hal_rtc_ex.c ****   * @author  MCD Application Team
   5:Drivers/STM32H5xx_HAL_Driver/Src/stm32h5xx_hal_rtc_ex.c ****   * @brief   Extended RTC HAL module driver.
   6:Drivers/STM32H5xx_HAL_Driver/Src/stm32h5xx_hal_rtc_ex.c ****   *          This file provides firmware functions to manage the following
   7:Drivers/STM32H5xx_HAL_Driver/Src/stm32h5xx_hal_rtc_ex.c ****   *          functionalities of the Real Time Clock (RTC) Extended peripheral:
   8:Drivers/STM32H5xx_HAL_Driver/Src/stm32h5xx_hal_rtc_ex.c ****   *           + RTC Time Stamp functions
   9:Drivers/STM32H5xx_HAL_Driver/Src/stm32h5xx_hal_rtc_ex.c ****   *           + RTC Tamper functions
  10:Drivers/STM32H5xx_HAL_Driver/Src/stm32h5xx_hal_rtc_ex.c ****   *           + RTC Wake-up functions
  11:Drivers/STM32H5xx_HAL_Driver/Src/stm32h5xx_hal_rtc_ex.c ****   *           + Extended Control functions
  12:Drivers/STM32H5xx_HAL_Driver/Src/stm32h5xx_hal_rtc_ex.c ****   *           + Extended RTC features functions
  13:Drivers/STM32H5xx_HAL_Driver/Src/stm32h5xx_hal_rtc_ex.c ****   *
  14:Drivers/STM32H5xx_HAL_Driver/Src/stm32h5xx_hal_rtc_ex.c ****   ******************************************************************************
  15:Drivers/STM32H5xx_HAL_Driver/Src/stm32h5xx_hal_rtc_ex.c ****   * @attention
  16:Drivers/STM32H5xx_HAL_Driver/Src/stm32h5xx_hal_rtc_ex.c ****   *
  17:Drivers/STM32H5xx_HAL_Driver/Src/stm32h5xx_hal_rtc_ex.c ****   * Copyright (c) 2023 STMicroelectronics.
  18:Drivers/STM32H5xx_HAL_Driver/Src/stm32h5xx_hal_rtc_ex.c ****   * All rights reserved.
  19:Drivers/STM32H5xx_HAL_Driver/Src/stm32h5xx_hal_rtc_ex.c ****   *
  20:Drivers/STM32H5xx_HAL_Driver/Src/stm32h5xx_hal_rtc_ex.c ****   * This software is licensed under terms that can be found in the LICENSE file
  21:Drivers/STM32H5xx_HAL_Driver/Src/stm32h5xx_hal_rtc_ex.c ****   * in the root directory of this software component.
  22:Drivers/STM32H5xx_HAL_Driver/Src/stm32h5xx_hal_rtc_ex.c ****   * If no LICENSE file comes with this software, it is provided AS-IS.
  23:Drivers/STM32H5xx_HAL_Driver/Src/stm32h5xx_hal_rtc_ex.c ****   *
  24:Drivers/STM32H5xx_HAL_Driver/Src/stm32h5xx_hal_rtc_ex.c ****   ******************************************************************************
  25:Drivers/STM32H5xx_HAL_Driver/Src/stm32h5xx_hal_rtc_ex.c ****   @verbatim
  26:Drivers/STM32H5xx_HAL_Driver/Src/stm32h5xx_hal_rtc_ex.c ****   ==============================================================================
  27:Drivers/STM32H5xx_HAL_Driver/Src/stm32h5xx_hal_rtc_ex.c ****                   ##### How to use this driver #####
  28:Drivers/STM32H5xx_HAL_Driver/Src/stm32h5xx_hal_rtc_ex.c ****   ==============================================================================
ARM GAS  C:\Users\DELL\AppData\Local\Temp\ccMtHSyM.s 			page 2


  29:Drivers/STM32H5xx_HAL_Driver/Src/stm32h5xx_hal_rtc_ex.c ****   [..]
  30:Drivers/STM32H5xx_HAL_Driver/Src/stm32h5xx_hal_rtc_ex.c ****     (+) Enable the RTC domain access.
  31:Drivers/STM32H5xx_HAL_Driver/Src/stm32h5xx_hal_rtc_ex.c ****     (+) Configure the RTC Prescaler (Asynchronous and Synchronous) and RTC hour
  32:Drivers/STM32H5xx_HAL_Driver/Src/stm32h5xx_hal_rtc_ex.c ****         format using the HAL_RTC_Init() function.
  33:Drivers/STM32H5xx_HAL_Driver/Src/stm32h5xx_hal_rtc_ex.c **** 
  34:Drivers/STM32H5xx_HAL_Driver/Src/stm32h5xx_hal_rtc_ex.c ****   *** RTC Wakeup configuration ***
  35:Drivers/STM32H5xx_HAL_Driver/Src/stm32h5xx_hal_rtc_ex.c ****   ================================
  36:Drivers/STM32H5xx_HAL_Driver/Src/stm32h5xx_hal_rtc_ex.c ****   [..]
  37:Drivers/STM32H5xx_HAL_Driver/Src/stm32h5xx_hal_rtc_ex.c ****     (+) To configure the RTC Wakeup Clock source and Counter use the HAL_RTCEx_SetWakeUpTimer()
  38:Drivers/STM32H5xx_HAL_Driver/Src/stm32h5xx_hal_rtc_ex.c ****         function. You can also configure the RTC Wakeup timer with interrupt mode
  39:Drivers/STM32H5xx_HAL_Driver/Src/stm32h5xx_hal_rtc_ex.c ****         using the HAL_RTCEx_SetWakeUpTimer_IT() function.
  40:Drivers/STM32H5xx_HAL_Driver/Src/stm32h5xx_hal_rtc_ex.c ****     (+) To read the RTC WakeUp Counter register, use the HAL_RTCEx_GetWakeUpTimer()
  41:Drivers/STM32H5xx_HAL_Driver/Src/stm32h5xx_hal_rtc_ex.c ****         function.
  42:Drivers/STM32H5xx_HAL_Driver/Src/stm32h5xx_hal_rtc_ex.c **** 
  43:Drivers/STM32H5xx_HAL_Driver/Src/stm32h5xx_hal_rtc_ex.c ****   *** Outputs configuration ***
  44:Drivers/STM32H5xx_HAL_Driver/Src/stm32h5xx_hal_rtc_ex.c ****   =============================
  45:Drivers/STM32H5xx_HAL_Driver/Src/stm32h5xx_hal_rtc_ex.c ****   [..]  The RTC has 2 outputs pins (RTC_OUT1 & RTC_OUT2).
  46:Drivers/STM32H5xx_HAL_Driver/Src/stm32h5xx_hal_rtc_ex.c ****         To configure the outputs, use the HAL_RTC_Init() function.
  47:Drivers/STM32H5xx_HAL_Driver/Src/stm32h5xx_hal_rtc_ex.c ****     (+) RTC_OUT1 and RTC_OUT2 which select one of the following two outputs:
  48:Drivers/STM32H5xx_HAL_Driver/Src/stm32h5xx_hal_rtc_ex.c ****     (+) CALIB: 512Hz or 1Hz clock output (with an LSE frequency of 32.768kHz).
  49:Drivers/STM32H5xx_HAL_Driver/Src/stm32h5xx_hal_rtc_ex.c ****         To enable the CALIB, use the HAL_RTCEx_SetCalibrationOutPut() function.
  50:Drivers/STM32H5xx_HAL_Driver/Src/stm32h5xx_hal_rtc_ex.c ****     (+) TAMPALRM: This output is the OR between rtc_tamp_evt and ALARM signals.
  51:Drivers/STM32H5xx_HAL_Driver/Src/stm32h5xx_hal_rtc_ex.c ****         ALARM is enabled by configuring the OSEL[1:0] bits in the RTC_CR register
  52:Drivers/STM32H5xx_HAL_Driver/Src/stm32h5xx_hal_rtc_ex.c ****         which select the alarm A, alarm B or wakeup outputs.
  53:Drivers/STM32H5xx_HAL_Driver/Src/stm32h5xx_hal_rtc_ex.c ****         rtc_tamp_evt is enabled by setting the TAMPOE bit
  54:Drivers/STM32H5xx_HAL_Driver/Src/stm32h5xx_hal_rtc_ex.c ****         in the RTC_CR register which selects the tamper event outputs.
  55:Drivers/STM32H5xx_HAL_Driver/Src/stm32h5xx_hal_rtc_ex.c **** 
  56:Drivers/STM32H5xx_HAL_Driver/Src/stm32h5xx_hal_rtc_ex.c ****   *** Smooth digital Calibration configuration ***
  57:Drivers/STM32H5xx_HAL_Driver/Src/stm32h5xx_hal_rtc_ex.c ****   ================================================
  58:Drivers/STM32H5xx_HAL_Driver/Src/stm32h5xx_hal_rtc_ex.c ****   [..]
  59:Drivers/STM32H5xx_HAL_Driver/Src/stm32h5xx_hal_rtc_ex.c ****     (+) Configure the RTC Original Digital Calibration Value and the corresponding
  60:Drivers/STM32H5xx_HAL_Driver/Src/stm32h5xx_hal_rtc_ex.c ****         calibration cycle period (32s,16s and 8s) using the HAL_RTCEx_SetSmoothCalib()
  61:Drivers/STM32H5xx_HAL_Driver/Src/stm32h5xx_hal_rtc_ex.c ****         function.
  62:Drivers/STM32H5xx_HAL_Driver/Src/stm32h5xx_hal_rtc_ex.c **** 
  63:Drivers/STM32H5xx_HAL_Driver/Src/stm32h5xx_hal_rtc_ex.c ****   *** RTC synchronization ***
  64:Drivers/STM32H5xx_HAL_Driver/Src/stm32h5xx_hal_rtc_ex.c ****   ================================================
  65:Drivers/STM32H5xx_HAL_Driver/Src/stm32h5xx_hal_rtc_ex.c ****   [..]
  66:Drivers/STM32H5xx_HAL_Driver/Src/stm32h5xx_hal_rtc_ex.c ****     (+) The RTC can be finely adjusted using HAL_RTCEx_SetSynchroShift() function.
  67:Drivers/STM32H5xx_HAL_Driver/Src/stm32h5xx_hal_rtc_ex.c ****         Writing to RTC_SHIFTR can shift (either delay or advance) the clock with
  68:Drivers/STM32H5xx_HAL_Driver/Src/stm32h5xx_hal_rtc_ex.c ****         a resolution of 1 ck_apre period.
  69:Drivers/STM32H5xx_HAL_Driver/Src/stm32h5xx_hal_rtc_ex.c ****         The shift operation consists in adding the SUBFS[14:0] value to the synchronous
  70:Drivers/STM32H5xx_HAL_Driver/Src/stm32h5xx_hal_rtc_ex.c ****         prescaler counter SS[15:0]: this delays the clock.
  71:Drivers/STM32H5xx_HAL_Driver/Src/stm32h5xx_hal_rtc_ex.c **** 
  72:Drivers/STM32H5xx_HAL_Driver/Src/stm32h5xx_hal_rtc_ex.c ****   *** Bypass shadow registers ***
  73:Drivers/STM32H5xx_HAL_Driver/Src/stm32h5xx_hal_rtc_ex.c ****   ================================================
  74:Drivers/STM32H5xx_HAL_Driver/Src/stm32h5xx_hal_rtc_ex.c ****   [..]
  75:Drivers/STM32H5xx_HAL_Driver/Src/stm32h5xx_hal_rtc_ex.c ****     (+) Enable bypass shadow registers using the HAL_RTCEx_EnableBypassShadow().
  76:Drivers/STM32H5xx_HAL_Driver/Src/stm32h5xx_hal_rtc_ex.c ****         When the Bypass Shadow is enabled the calendar value are taken directly
  77:Drivers/STM32H5xx_HAL_Driver/Src/stm32h5xx_hal_rtc_ex.c ****         from the Calendar counter.
  78:Drivers/STM32H5xx_HAL_Driver/Src/stm32h5xx_hal_rtc_ex.c ****         Thus eliminating the need to wait for the RSF bit to be set.
  79:Drivers/STM32H5xx_HAL_Driver/Src/stm32h5xx_hal_rtc_ex.c ****         This is especially useful after exiting from low-power modes (Stop or Standby),
  80:Drivers/STM32H5xx_HAL_Driver/Src/stm32h5xx_hal_rtc_ex.c ****         since the shadow registers are not updated during these modes.
  81:Drivers/STM32H5xx_HAL_Driver/Src/stm32h5xx_hal_rtc_ex.c **** 
  82:Drivers/STM32H5xx_HAL_Driver/Src/stm32h5xx_hal_rtc_ex.c ****   *** RTC ultra-low-power mode ***
  83:Drivers/STM32H5xx_HAL_Driver/Src/stm32h5xx_hal_rtc_ex.c ****   ================================================
  84:Drivers/STM32H5xx_HAL_Driver/Src/stm32h5xx_hal_rtc_ex.c ****   [..]
  85:Drivers/STM32H5xx_HAL_Driver/Src/stm32h5xx_hal_rtc_ex.c ****     (+) Configure the RTC ultra-low-power mode using HAL_RTCEx_SetLowPowerCalib() function.
ARM GAS  C:\Users\DELL\AppData\Local\Temp\ccMtHSyM.s 			page 3


  86:Drivers/STM32H5xx_HAL_Driver/Src/stm32h5xx_hal_rtc_ex.c ****         In this case, the calibration mechanism is applied on ck_apre instead of RTCCLK.
  87:Drivers/STM32H5xx_HAL_Driver/Src/stm32h5xx_hal_rtc_ex.c ****         The resulting accuracy is the same, but the calibration is performed during a
  88:Drivers/STM32H5xx_HAL_Driver/Src/stm32h5xx_hal_rtc_ex.c ****         calibration cycle of about 220 x PREDIV_A x RTCCLK pulses instead of 220 RTCCLK pulses.
  89:Drivers/STM32H5xx_HAL_Driver/Src/stm32h5xx_hal_rtc_ex.c **** 
  90:Drivers/STM32H5xx_HAL_Driver/Src/stm32h5xx_hal_rtc_ex.c ****   *** RTC subsecond register underflow interruption ***
  91:Drivers/STM32H5xx_HAL_Driver/Src/stm32h5xx_hal_rtc_ex.c ****   ================================================
  92:Drivers/STM32H5xx_HAL_Driver/Src/stm32h5xx_hal_rtc_ex.c ****   [..]
  93:Drivers/STM32H5xx_HAL_Driver/Src/stm32h5xx_hal_rtc_ex.c ****     (+) Enable the RTC SSRU interruption mode using HAL_RTCEx_SetSSRU_IT() function.
  94:Drivers/STM32H5xx_HAL_Driver/Src/stm32h5xx_hal_rtc_ex.c ****         In this case, when the SSR rolls under 0, an SSRU interruption is triggered.
  95:Drivers/STM32H5xx_HAL_Driver/Src/stm32h5xx_hal_rtc_ex.c ****         Disable the RTC SSRU interruption mode using HAL_RTCEx_DeactivateSSRU() function.
  96:Drivers/STM32H5xx_HAL_Driver/Src/stm32h5xx_hal_rtc_ex.c **** 
  97:Drivers/STM32H5xx_HAL_Driver/Src/stm32h5xx_hal_rtc_ex.c ****   *** TimeStamp configuration ***
  98:Drivers/STM32H5xx_HAL_Driver/Src/stm32h5xx_hal_rtc_ex.c ****   ===============================
  99:Drivers/STM32H5xx_HAL_Driver/Src/stm32h5xx_hal_rtc_ex.c ****   [..]
 100:Drivers/STM32H5xx_HAL_Driver/Src/stm32h5xx_hal_rtc_ex.c ****     (+) Enable the RTC TimeStamp using the HAL_RTCEx_SetTimeStamp() function.
 101:Drivers/STM32H5xx_HAL_Driver/Src/stm32h5xx_hal_rtc_ex.c ****         You can also configure the RTC TimeStamp with interrupt mode using the
 102:Drivers/STM32H5xx_HAL_Driver/Src/stm32h5xx_hal_rtc_ex.c ****         HAL_RTCEx_SetTimeStamp_IT() function.
 103:Drivers/STM32H5xx_HAL_Driver/Src/stm32h5xx_hal_rtc_ex.c ****     (+) To read the RTC TimeStamp Time and Date register, use the HAL_RTCEx_GetTimeStamp()
 104:Drivers/STM32H5xx_HAL_Driver/Src/stm32h5xx_hal_rtc_ex.c ****         function.
 105:Drivers/STM32H5xx_HAL_Driver/Src/stm32h5xx_hal_rtc_ex.c **** 
 106:Drivers/STM32H5xx_HAL_Driver/Src/stm32h5xx_hal_rtc_ex.c ****   *** Internal TimeStamp configuration ***
 107:Drivers/STM32H5xx_HAL_Driver/Src/stm32h5xx_hal_rtc_ex.c ****   ===============================
 108:Drivers/STM32H5xx_HAL_Driver/Src/stm32h5xx_hal_rtc_ex.c ****   [..]
 109:Drivers/STM32H5xx_HAL_Driver/Src/stm32h5xx_hal_rtc_ex.c ****     (+) Enable the RTC internal TimeStamp using the HAL_RTCEx_SetInternalTimeStamp() function.
 110:Drivers/STM32H5xx_HAL_Driver/Src/stm32h5xx_hal_rtc_ex.c ****         User has to check internal timestamp occurrence using __HAL_RTC_INTERNAL_TIMESTAMP_GET_FLAG
 111:Drivers/STM32H5xx_HAL_Driver/Src/stm32h5xx_hal_rtc_ex.c ****     (+) To read the RTC TimeStamp Time and Date register, use the HAL_RTCEx_GetTimeStamp()
 112:Drivers/STM32H5xx_HAL_Driver/Src/stm32h5xx_hal_rtc_ex.c ****         function.
 113:Drivers/STM32H5xx_HAL_Driver/Src/stm32h5xx_hal_rtc_ex.c **** 
 114:Drivers/STM32H5xx_HAL_Driver/Src/stm32h5xx_hal_rtc_ex.c ****    *** Tamper configuration ***
 115:Drivers/STM32H5xx_HAL_Driver/Src/stm32h5xx_hal_rtc_ex.c ****    ============================
 116:Drivers/STM32H5xx_HAL_Driver/Src/stm32h5xx_hal_rtc_ex.c ****    [..]
 117:Drivers/STM32H5xx_HAL_Driver/Src/stm32h5xx_hal_rtc_ex.c ****      (+) Enable the RTC Tamper and configure the Tamper filter count, trigger Edge
 118:Drivers/STM32H5xx_HAL_Driver/Src/stm32h5xx_hal_rtc_ex.c ****          or Level according to the Tamper filter (if equal to 0 Edge else Level)
 119:Drivers/STM32H5xx_HAL_Driver/Src/stm32h5xx_hal_rtc_ex.c ****          value, sampling frequency, NoErase, MaskFlag,  precharge or discharge and
 120:Drivers/STM32H5xx_HAL_Driver/Src/stm32h5xx_hal_rtc_ex.c ****          Pull-UP using the HAL_RTCEx_SetTamper() function. You can configure RTC Tamper
 121:Drivers/STM32H5xx_HAL_Driver/Src/stm32h5xx_hal_rtc_ex.c ****          with interrupt mode using HAL_RTCEx_SetTamper_IT() function.
 122:Drivers/STM32H5xx_HAL_Driver/Src/stm32h5xx_hal_rtc_ex.c ****      (+) The default configuration of the Tamper erases the backup registers. To avoid
 123:Drivers/STM32H5xx_HAL_Driver/Src/stm32h5xx_hal_rtc_ex.c ****          erase, enable the NoErase field on the TAMP_CR2 register.
 124:Drivers/STM32H5xx_HAL_Driver/Src/stm32h5xx_hal_rtc_ex.c ****      (+) With new RTC tamper configuration, you have to call HAL_RTC_Init() in order to
 125:Drivers/STM32H5xx_HAL_Driver/Src/stm32h5xx_hal_rtc_ex.c ****          perform TAMP base address offset calculation.
 126:Drivers/STM32H5xx_HAL_Driver/Src/stm32h5xx_hal_rtc_ex.c ****      (+) Enable Internal tamper using HAL_RTCEx_SetInternalTamper. IT mode can be chosen using
 127:Drivers/STM32H5xx_HAL_Driver/Src/stm32h5xx_hal_rtc_ex.c ****          setting Interrupt field.
 128:Drivers/STM32H5xx_HAL_Driver/Src/stm32h5xx_hal_rtc_ex.c **** 
 129:Drivers/STM32H5xx_HAL_Driver/Src/stm32h5xx_hal_rtc_ex.c ****    *** Backup Data Registers and Device Secrets configuration ***
 130:Drivers/STM32H5xx_HAL_Driver/Src/stm32h5xx_hal_rtc_ex.c ****    ===========================================
 131:Drivers/STM32H5xx_HAL_Driver/Src/stm32h5xx_hal_rtc_ex.c ****    [..]
 132:Drivers/STM32H5xx_HAL_Driver/Src/stm32h5xx_hal_rtc_ex.c ****      (+) To write to the RTC Backup Data registers, use the HAL_RTCEx_BKUPWrite()
 133:Drivers/STM32H5xx_HAL_Driver/Src/stm32h5xx_hal_rtc_ex.c ****          function.
 134:Drivers/STM32H5xx_HAL_Driver/Src/stm32h5xx_hal_rtc_ex.c ****      (+) To read the RTC Backup registers, use the HAL_RTCEx_BKUPRead()
 135:Drivers/STM32H5xx_HAL_Driver/Src/stm32h5xx_hal_rtc_ex.c ****          function.
 136:Drivers/STM32H5xx_HAL_Driver/Src/stm32h5xx_hal_rtc_ex.c ****      (+) To reset the RTC Backup registers and erase the device secrets,
 137:Drivers/STM32H5xx_HAL_Driver/Src/stm32h5xx_hal_rtc_ex.c ****          use HAL_RTCEx_BKUPErase() function.
 138:Drivers/STM32H5xx_HAL_Driver/Src/stm32h5xx_hal_rtc_ex.c ****      (+) Enable the lock of the Boot hardware Key using the HAL_RTCEx_LockBootHardwareKey()
 139:Drivers/STM32H5xx_HAL_Driver/Src/stm32h5xx_hal_rtc_ex.c ****          function.
 140:Drivers/STM32H5xx_HAL_Driver/Src/stm32h5xx_hal_rtc_ex.c ****          The backup registers from TAMP_BKP0R to TAMP_BKP7R cannot be accessed neither in
 141:Drivers/STM32H5xx_HAL_Driver/Src/stm32h5xx_hal_rtc_ex.c ****          read nor in write (they are read as 0 and write ignore).
 142:Drivers/STM32H5xx_HAL_Driver/Src/stm32h5xx_hal_rtc_ex.c ****      (+) Configure the erase of the Device Secrets using HAL_RTCEx_ConfigEraseDeviceSecrets()
ARM GAS  C:\Users\DELL\AppData\Local\Temp\ccMtHSyM.s 			page 4


 143:Drivers/STM32H5xx_HAL_Driver/Src/stm32h5xx_hal_rtc_ex.c ****          function.
 144:Drivers/STM32H5xx_HAL_Driver/Src/stm32h5xx_hal_rtc_ex.c ****      (+) Block the access to the RTC Backup registers and all the device secrets
 145:Drivers/STM32H5xx_HAL_Driver/Src/stm32h5xx_hal_rtc_ex.c ****          using HAL_RTCEx_BKUPBlock() function.
 146:Drivers/STM32H5xx_HAL_Driver/Src/stm32h5xx_hal_rtc_ex.c **** 
 147:Drivers/STM32H5xx_HAL_Driver/Src/stm32h5xx_hal_rtc_ex.c ****   *** Monotonic counter ***
 148:Drivers/STM32H5xx_HAL_Driver/Src/stm32h5xx_hal_rtc_ex.c ****   ================================================
 149:Drivers/STM32H5xx_HAL_Driver/Src/stm32h5xx_hal_rtc_ex.c ****   [..]
 150:Drivers/STM32H5xx_HAL_Driver/Src/stm32h5xx_hal_rtc_ex.c ****      (+) To increment the Monotonic counter, use the HAL_RTCEx_MonotonicCounterIncrement()
 151:Drivers/STM32H5xx_HAL_Driver/Src/stm32h5xx_hal_rtc_ex.c ****          function.
 152:Drivers/STM32H5xx_HAL_Driver/Src/stm32h5xx_hal_rtc_ex.c ****      (+) To get the current value of the Monotonic counter, use the HAL_RTCEx_MonotonicCounterGet()
 153:Drivers/STM32H5xx_HAL_Driver/Src/stm32h5xx_hal_rtc_ex.c ****          function.
 154:Drivers/STM32H5xx_HAL_Driver/Src/stm32h5xx_hal_rtc_ex.c **** 
 155:Drivers/STM32H5xx_HAL_Driver/Src/stm32h5xx_hal_rtc_ex.c ****   *** RTC & TAMP secure protection modes ***
 156:Drivers/STM32H5xx_HAL_Driver/Src/stm32h5xx_hal_rtc_ex.c ****   ================================================
 157:Drivers/STM32H5xx_HAL_Driver/Src/stm32h5xx_hal_rtc_ex.c ****   [..]
 158:Drivers/STM32H5xx_HAL_Driver/Src/stm32h5xx_hal_rtc_ex.c ****      (+) Set the security level of the RTC/TAMP/Backup registers using HAL_RTCEx_SecureModeSet()
 159:Drivers/STM32H5xx_HAL_Driver/Src/stm32h5xx_hal_rtc_ex.c ****          function.
 160:Drivers/STM32H5xx_HAL_Driver/Src/stm32h5xx_hal_rtc_ex.c ****       +) Get the security level of the RTC/TAMP/Backup registers using HAL_RTCEx_SecureModeGet()
 161:Drivers/STM32H5xx_HAL_Driver/Src/stm32h5xx_hal_rtc_ex.c ****          function.
 162:Drivers/STM32H5xx_HAL_Driver/Src/stm32h5xx_hal_rtc_ex.c **** 
 163:Drivers/STM32H5xx_HAL_Driver/Src/stm32h5xx_hal_rtc_ex.c ****   *** RTC & TAMP privilege protection modes ***
 164:Drivers/STM32H5xx_HAL_Driver/Src/stm32h5xx_hal_rtc_ex.c ****   ================================================
 165:Drivers/STM32H5xx_HAL_Driver/Src/stm32h5xx_hal_rtc_ex.c ****   [..]
 166:Drivers/STM32H5xx_HAL_Driver/Src/stm32h5xx_hal_rtc_ex.c ****      (+) Set the privilege level of the RTC/TAMP/Backup registers using HAL_RTCEx_PrivilegeModeSet(
 167:Drivers/STM32H5xx_HAL_Driver/Src/stm32h5xx_hal_rtc_ex.c ****          function.
 168:Drivers/STM32H5xx_HAL_Driver/Src/stm32h5xx_hal_rtc_ex.c ****       +) Get the privilege level of the RTC/TAMP/Backup registers using HAL_RTCEx_PrivilegeModeGet(
 169:Drivers/STM32H5xx_HAL_Driver/Src/stm32h5xx_hal_rtc_ex.c ****          function.
 170:Drivers/STM32H5xx_HAL_Driver/Src/stm32h5xx_hal_rtc_ex.c **** 
 171:Drivers/STM32H5xx_HAL_Driver/Src/stm32h5xx_hal_rtc_ex.c ****   @endverbatim
 172:Drivers/STM32H5xx_HAL_Driver/Src/stm32h5xx_hal_rtc_ex.c ****   */
 173:Drivers/STM32H5xx_HAL_Driver/Src/stm32h5xx_hal_rtc_ex.c **** 
 174:Drivers/STM32H5xx_HAL_Driver/Src/stm32h5xx_hal_rtc_ex.c **** /* Includes ------------------------------------------------------------------*/
 175:Drivers/STM32H5xx_HAL_Driver/Src/stm32h5xx_hal_rtc_ex.c **** #include "stm32h5xx_hal.h"
 176:Drivers/STM32H5xx_HAL_Driver/Src/stm32h5xx_hal_rtc_ex.c **** 
 177:Drivers/STM32H5xx_HAL_Driver/Src/stm32h5xx_hal_rtc_ex.c **** /** @addtogroup STM32H5xx_HAL_Driver
 178:Drivers/STM32H5xx_HAL_Driver/Src/stm32h5xx_hal_rtc_ex.c ****   * @{
 179:Drivers/STM32H5xx_HAL_Driver/Src/stm32h5xx_hal_rtc_ex.c ****   */
 180:Drivers/STM32H5xx_HAL_Driver/Src/stm32h5xx_hal_rtc_ex.c **** 
 181:Drivers/STM32H5xx_HAL_Driver/Src/stm32h5xx_hal_rtc_ex.c **** /** @addtogroup RTCEx
 182:Drivers/STM32H5xx_HAL_Driver/Src/stm32h5xx_hal_rtc_ex.c ****   * @brief RTC Extended HAL module driver
 183:Drivers/STM32H5xx_HAL_Driver/Src/stm32h5xx_hal_rtc_ex.c ****   * @{
 184:Drivers/STM32H5xx_HAL_Driver/Src/stm32h5xx_hal_rtc_ex.c ****   */
 185:Drivers/STM32H5xx_HAL_Driver/Src/stm32h5xx_hal_rtc_ex.c **** 
 186:Drivers/STM32H5xx_HAL_Driver/Src/stm32h5xx_hal_rtc_ex.c **** #ifdef HAL_RTC_MODULE_ENABLED
 187:Drivers/STM32H5xx_HAL_Driver/Src/stm32h5xx_hal_rtc_ex.c **** 
 188:Drivers/STM32H5xx_HAL_Driver/Src/stm32h5xx_hal_rtc_ex.c **** /* Private typedef -----------------------------------------------------------*/
 189:Drivers/STM32H5xx_HAL_Driver/Src/stm32h5xx_hal_rtc_ex.c **** /* Private define ------------------------------------------------------------*/
 190:Drivers/STM32H5xx_HAL_Driver/Src/stm32h5xx_hal_rtc_ex.c **** #define TAMP_ALL RTC_TAMPER_ALL
 191:Drivers/STM32H5xx_HAL_Driver/Src/stm32h5xx_hal_rtc_ex.c **** 
 192:Drivers/STM32H5xx_HAL_Driver/Src/stm32h5xx_hal_rtc_ex.c **** /* Private macro -------------------------------------------------------------*/
 193:Drivers/STM32H5xx_HAL_Driver/Src/stm32h5xx_hal_rtc_ex.c **** /* Private variables ---------------------------------------------------------*/
 194:Drivers/STM32H5xx_HAL_Driver/Src/stm32h5xx_hal_rtc_ex.c **** /* Private function prototypes -----------------------------------------------*/
 195:Drivers/STM32H5xx_HAL_Driver/Src/stm32h5xx_hal_rtc_ex.c **** /* Exported functions --------------------------------------------------------*/
 196:Drivers/STM32H5xx_HAL_Driver/Src/stm32h5xx_hal_rtc_ex.c **** 
 197:Drivers/STM32H5xx_HAL_Driver/Src/stm32h5xx_hal_rtc_ex.c **** /** @addtogroup RTCEx_Exported_Functions
 198:Drivers/STM32H5xx_HAL_Driver/Src/stm32h5xx_hal_rtc_ex.c ****   * @{
 199:Drivers/STM32H5xx_HAL_Driver/Src/stm32h5xx_hal_rtc_ex.c ****   */
ARM GAS  C:\Users\DELL\AppData\Local\Temp\ccMtHSyM.s 			page 5


 200:Drivers/STM32H5xx_HAL_Driver/Src/stm32h5xx_hal_rtc_ex.c **** 
 201:Drivers/STM32H5xx_HAL_Driver/Src/stm32h5xx_hal_rtc_ex.c **** 
 202:Drivers/STM32H5xx_HAL_Driver/Src/stm32h5xx_hal_rtc_ex.c **** /** @addtogroup RTCEx_Exported_Functions_Group1
 203:Drivers/STM32H5xx_HAL_Driver/Src/stm32h5xx_hal_rtc_ex.c ****   *  @brief   RTC TimeStamp and Tamper functions
 204:Drivers/STM32H5xx_HAL_Driver/Src/stm32h5xx_hal_rtc_ex.c ****   *
 205:Drivers/STM32H5xx_HAL_Driver/Src/stm32h5xx_hal_rtc_ex.c **** @verbatim
 206:Drivers/STM32H5xx_HAL_Driver/Src/stm32h5xx_hal_rtc_ex.c ****  ===============================================================================
 207:Drivers/STM32H5xx_HAL_Driver/Src/stm32h5xx_hal_rtc_ex.c ****                  ##### RTC TimeStamp and Tamper functions #####
 208:Drivers/STM32H5xx_HAL_Driver/Src/stm32h5xx_hal_rtc_ex.c ****  ===============================================================================
 209:Drivers/STM32H5xx_HAL_Driver/Src/stm32h5xx_hal_rtc_ex.c **** 
 210:Drivers/STM32H5xx_HAL_Driver/Src/stm32h5xx_hal_rtc_ex.c ****  [..] This section provides functions allowing to configure TimeStamp feature
 211:Drivers/STM32H5xx_HAL_Driver/Src/stm32h5xx_hal_rtc_ex.c **** 
 212:Drivers/STM32H5xx_HAL_Driver/Src/stm32h5xx_hal_rtc_ex.c **** @endverbatim
 213:Drivers/STM32H5xx_HAL_Driver/Src/stm32h5xx_hal_rtc_ex.c ****   * @{
 214:Drivers/STM32H5xx_HAL_Driver/Src/stm32h5xx_hal_rtc_ex.c ****   */
 215:Drivers/STM32H5xx_HAL_Driver/Src/stm32h5xx_hal_rtc_ex.c **** 
 216:Drivers/STM32H5xx_HAL_Driver/Src/stm32h5xx_hal_rtc_ex.c **** #ifdef RTC_CR_TSE
 217:Drivers/STM32H5xx_HAL_Driver/Src/stm32h5xx_hal_rtc_ex.c **** /**
 218:Drivers/STM32H5xx_HAL_Driver/Src/stm32h5xx_hal_rtc_ex.c ****   * @brief  Set TimeStamp.
 219:Drivers/STM32H5xx_HAL_Driver/Src/stm32h5xx_hal_rtc_ex.c ****   * @note   This API must be called before enabling the TimeStamp feature.
 220:Drivers/STM32H5xx_HAL_Driver/Src/stm32h5xx_hal_rtc_ex.c ****   * @param  hrtc RTC handle
 221:Drivers/STM32H5xx_HAL_Driver/Src/stm32h5xx_hal_rtc_ex.c ****   * @param  TimeStampEdge Specifies the pin edge on which the TimeStamp is
 222:Drivers/STM32H5xx_HAL_Driver/Src/stm32h5xx_hal_rtc_ex.c ****   *         activated.
 223:Drivers/STM32H5xx_HAL_Driver/Src/stm32h5xx_hal_rtc_ex.c ****   *          This parameter can be one of the following values:
 224:Drivers/STM32H5xx_HAL_Driver/Src/stm32h5xx_hal_rtc_ex.c ****   *             @arg RTC_TIMESTAMPEDGE_RISING: the Time stamp event occurs on the
 225:Drivers/STM32H5xx_HAL_Driver/Src/stm32h5xx_hal_rtc_ex.c ****   *                                        rising edge of the related pin.
 226:Drivers/STM32H5xx_HAL_Driver/Src/stm32h5xx_hal_rtc_ex.c ****   *             @arg RTC_TIMESTAMPEDGE_FALLING: the Time stamp event occurs on the
 227:Drivers/STM32H5xx_HAL_Driver/Src/stm32h5xx_hal_rtc_ex.c ****   *                                         falling edge of the related pin.
 228:Drivers/STM32H5xx_HAL_Driver/Src/stm32h5xx_hal_rtc_ex.c ****   * @param  RTC_TimeStampPin specifies the RTC TimeStamp Pin.
 229:Drivers/STM32H5xx_HAL_Driver/Src/stm32h5xx_hal_rtc_ex.c ****   *          This parameter can be one of the following values:
 230:Drivers/STM32H5xx_HAL_Driver/Src/stm32h5xx_hal_rtc_ex.c ****   *             @arg RTC_TIMESTAMPPIN_DEFAULT: PC13 is selected as RTC TimeStamp Pin.
 231:Drivers/STM32H5xx_HAL_Driver/Src/stm32h5xx_hal_rtc_ex.c ****   *               The RTC TimeStamp Pin is per default PC13, but for reasons of
 232:Drivers/STM32H5xx_HAL_Driver/Src/stm32h5xx_hal_rtc_ex.c ****   *               compatibility, this parameter is required.
 233:Drivers/STM32H5xx_HAL_Driver/Src/stm32h5xx_hal_rtc_ex.c ****   * @retval HAL status
 234:Drivers/STM32H5xx_HAL_Driver/Src/stm32h5xx_hal_rtc_ex.c ****   */
 235:Drivers/STM32H5xx_HAL_Driver/Src/stm32h5xx_hal_rtc_ex.c **** HAL_StatusTypeDef HAL_RTCEx_SetTimeStamp(RTC_HandleTypeDef *hrtc, uint32_t TimeStampEdge, uint32_t 
 236:Drivers/STM32H5xx_HAL_Driver/Src/stm32h5xx_hal_rtc_ex.c **** {
  31              		.loc 1 236 1 view -0
  32              		.cfi_startproc
  33              		@ args = 0, pretend = 0, frame = 0
  34              		@ frame_needed = 0, uses_anonymous_args = 0
  35              		@ link register save eliminated.
 237:Drivers/STM32H5xx_HAL_Driver/Src/stm32h5xx_hal_rtc_ex.c ****   /* Check the parameters */
 238:Drivers/STM32H5xx_HAL_Driver/Src/stm32h5xx_hal_rtc_ex.c **** #if defined(RTC_CR_TSEDGE)
 239:Drivers/STM32H5xx_HAL_Driver/Src/stm32h5xx_hal_rtc_ex.c ****   assert_param(IS_TIMESTAMP_EDGE(TimeStampEdge));
  36              		.loc 1 239 3 view .LVU1
 240:Drivers/STM32H5xx_HAL_Driver/Src/stm32h5xx_hal_rtc_ex.c **** #endif /* RTC_CR_TSEDGE */
 241:Drivers/STM32H5xx_HAL_Driver/Src/stm32h5xx_hal_rtc_ex.c ****   assert_param(IS_RTC_TIMESTAMP_PIN(RTC_TimeStampPin));
  37              		.loc 1 241 3 view .LVU2
 242:Drivers/STM32H5xx_HAL_Driver/Src/stm32h5xx_hal_rtc_ex.c ****   UNUSED(RTC_TimeStampPin);
  38              		.loc 1 242 3 view .LVU3
 243:Drivers/STM32H5xx_HAL_Driver/Src/stm32h5xx_hal_rtc_ex.c **** 
 244:Drivers/STM32H5xx_HAL_Driver/Src/stm32h5xx_hal_rtc_ex.c ****   /* Process Locked */
 245:Drivers/STM32H5xx_HAL_Driver/Src/stm32h5xx_hal_rtc_ex.c ****   __HAL_LOCK(hrtc);
  39              		.loc 1 245 3 view .LVU4
  40              		.loc 1 245 3 view .LVU5
  41 0000 90F82C30 		ldrb	r3, [r0, #44]	@ zero_extendqisi2
ARM GAS  C:\Users\DELL\AppData\Local\Temp\ccMtHSyM.s 			page 6


  42 0004 012B     		cmp	r3, #1
  43 0006 19D0     		beq	.L3
  44              		.loc 1 245 3 discriminator 2 view .LVU6
  45 0008 4FF0010C 		mov	ip, #1
  46 000c 80F82CC0 		strb	ip, [r0, #44]
  47              		.loc 1 245 3 view .LVU7
 246:Drivers/STM32H5xx_HAL_Driver/Src/stm32h5xx_hal_rtc_ex.c **** 
 247:Drivers/STM32H5xx_HAL_Driver/Src/stm32h5xx_hal_rtc_ex.c ****   /* Change RTC state */
 248:Drivers/STM32H5xx_HAL_Driver/Src/stm32h5xx_hal_rtc_ex.c ****   hrtc->State = HAL_RTC_STATE_BUSY;
  48              		.loc 1 248 3 view .LVU8
  49              		.loc 1 248 15 is_stmt 0 view .LVU9
  50 0010 0223     		movs	r3, #2
  51 0012 80F82D30 		strb	r3, [r0, #45]
 249:Drivers/STM32H5xx_HAL_Driver/Src/stm32h5xx_hal_rtc_ex.c **** 
 250:Drivers/STM32H5xx_HAL_Driver/Src/stm32h5xx_hal_rtc_ex.c ****   /* Get the RTC_CR register and clear the bits to be configured */
 251:Drivers/STM32H5xx_HAL_Driver/Src/stm32h5xx_hal_rtc_ex.c **** #if defined(RTC_CR_TSEDGE)
 252:Drivers/STM32H5xx_HAL_Driver/Src/stm32h5xx_hal_rtc_ex.c ****   CLEAR_BIT(RTC->CR, (RTC_CR_TSEDGE | RTC_CR_TSE));
  52              		.loc 1 252 3 is_stmt 1 view .LVU10
  53 0016 0A4A     		ldr	r2, .L4
  54              	.LVL1:
  55              		.loc 1 252 3 is_stmt 0 view .LVU11
  56 0018 9369     		ldr	r3, [r2, #24]
  57 001a 23F40063 		bic	r3, r3, #2048
  58 001e 23F00803 		bic	r3, r3, #8
  59 0022 9361     		str	r3, [r2, #24]
 253:Drivers/STM32H5xx_HAL_Driver/Src/stm32h5xx_hal_rtc_ex.c **** #else
 254:Drivers/STM32H5xx_HAL_Driver/Src/stm32h5xx_hal_rtc_ex.c ****   CLEAR_BIT(RTC->CR, RTC_CR_TSE);
 255:Drivers/STM32H5xx_HAL_Driver/Src/stm32h5xx_hal_rtc_ex.c **** #endif /* RTC_CR_TSEDGE */
 256:Drivers/STM32H5xx_HAL_Driver/Src/stm32h5xx_hal_rtc_ex.c **** 
 257:Drivers/STM32H5xx_HAL_Driver/Src/stm32h5xx_hal_rtc_ex.c ****   /* Configure the Time Stamp TSEDGE and Enable bits */
 258:Drivers/STM32H5xx_HAL_Driver/Src/stm32h5xx_hal_rtc_ex.c ****   SET_BIT(RTC->CR, (uint32_t)TimeStampEdge | RTC_CR_TSE);
  60              		.loc 1 258 3 is_stmt 1 view .LVU12
  61 0024 9369     		ldr	r3, [r2, #24]
  62 0026 1943     		orrs	r1, r1, r3
  63              	.LVL2:
  64              		.loc 1 258 3 is_stmt 0 view .LVU13
  65 0028 41F40061 		orr	r1, r1, #2048
  66 002c 9161     		str	r1, [r2, #24]
 259:Drivers/STM32H5xx_HAL_Driver/Src/stm32h5xx_hal_rtc_ex.c **** 
 260:Drivers/STM32H5xx_HAL_Driver/Src/stm32h5xx_hal_rtc_ex.c ****   /* Change RTC state */
 261:Drivers/STM32H5xx_HAL_Driver/Src/stm32h5xx_hal_rtc_ex.c ****   hrtc->State = HAL_RTC_STATE_READY;
  67              		.loc 1 261 3 is_stmt 1 view .LVU14
  68              		.loc 1 261 15 is_stmt 0 view .LVU15
  69 002e 80F82DC0 		strb	ip, [r0, #45]
 262:Drivers/STM32H5xx_HAL_Driver/Src/stm32h5xx_hal_rtc_ex.c **** 
 263:Drivers/STM32H5xx_HAL_Driver/Src/stm32h5xx_hal_rtc_ex.c ****   /* Process Unlocked */
 264:Drivers/STM32H5xx_HAL_Driver/Src/stm32h5xx_hal_rtc_ex.c ****   __HAL_UNLOCK(hrtc);
  70              		.loc 1 264 3 is_stmt 1 view .LVU16
  71              		.loc 1 264 3 view .LVU17
  72 0032 0023     		movs	r3, #0
  73 0034 80F82C30 		strb	r3, [r0, #44]
  74              		.loc 1 264 3 view .LVU18
 265:Drivers/STM32H5xx_HAL_Driver/Src/stm32h5xx_hal_rtc_ex.c **** 
 266:Drivers/STM32H5xx_HAL_Driver/Src/stm32h5xx_hal_rtc_ex.c ****   return HAL_OK;
  75              		.loc 1 266 3 view .LVU19
  76              		.loc 1 266 10 is_stmt 0 view .LVU20
  77 0038 1846     		mov	r0, r3
ARM GAS  C:\Users\DELL\AppData\Local\Temp\ccMtHSyM.s 			page 7


  78              	.LVL3:
  79              		.loc 1 266 10 view .LVU21
  80 003a 7047     		bx	lr
  81              	.LVL4:
  82              	.L3:
 245:Drivers/STM32H5xx_HAL_Driver/Src/stm32h5xx_hal_rtc_ex.c **** 
  83              		.loc 1 245 3 discriminator 1 view .LVU22
  84 003c 0220     		movs	r0, #2
  85              	.LVL5:
 267:Drivers/STM32H5xx_HAL_Driver/Src/stm32h5xx_hal_rtc_ex.c **** }
  86              		.loc 1 267 1 view .LVU23
  87 003e 7047     		bx	lr
  88              	.L5:
  89              		.align	2
  90              	.L4:
  91 0040 00780044 		.word	1140881408
  92              		.cfi_endproc
  93              	.LFE297:
  95              		.section	.text.HAL_RTCEx_SetTimeStamp_IT,"ax",%progbits
  96              		.align	1
  97              		.global	HAL_RTCEx_SetTimeStamp_IT
  98              		.syntax unified
  99              		.thumb
 100              		.thumb_func
 102              	HAL_RTCEx_SetTimeStamp_IT:
 103              	.LVL6:
 104              	.LFB298:
 268:Drivers/STM32H5xx_HAL_Driver/Src/stm32h5xx_hal_rtc_ex.c **** 
 269:Drivers/STM32H5xx_HAL_Driver/Src/stm32h5xx_hal_rtc_ex.c **** /**
 270:Drivers/STM32H5xx_HAL_Driver/Src/stm32h5xx_hal_rtc_ex.c ****   * @brief  Set TimeStamp with Interrupt.
 271:Drivers/STM32H5xx_HAL_Driver/Src/stm32h5xx_hal_rtc_ex.c ****   * @note   This API must be called before enabling the TimeStamp feature.
 272:Drivers/STM32H5xx_HAL_Driver/Src/stm32h5xx_hal_rtc_ex.c ****   * @note   The application must ensure that the EXTI RTC interrupt line is enabled.
 273:Drivers/STM32H5xx_HAL_Driver/Src/stm32h5xx_hal_rtc_ex.c ****   * @param  hrtc RTC handle
 274:Drivers/STM32H5xx_HAL_Driver/Src/stm32h5xx_hal_rtc_ex.c ****   * @param  TimeStampEdge Specifies the pin edge on which the TimeStamp is
 275:Drivers/STM32H5xx_HAL_Driver/Src/stm32h5xx_hal_rtc_ex.c ****   *         activated.
 276:Drivers/STM32H5xx_HAL_Driver/Src/stm32h5xx_hal_rtc_ex.c ****   *          This parameter can be one of the following values:
 277:Drivers/STM32H5xx_HAL_Driver/Src/stm32h5xx_hal_rtc_ex.c ****   *             @arg RTC_TIMESTAMPEDGE_RISING: the Time stamp event occurs on the
 278:Drivers/STM32H5xx_HAL_Driver/Src/stm32h5xx_hal_rtc_ex.c ****   *                                        rising edge of the related pin.
 279:Drivers/STM32H5xx_HAL_Driver/Src/stm32h5xx_hal_rtc_ex.c ****   *             @arg RTC_TIMESTAMPEDGE_FALLING: the Time stamp event occurs on the
 280:Drivers/STM32H5xx_HAL_Driver/Src/stm32h5xx_hal_rtc_ex.c ****   *                                         falling edge of the related pin.
 281:Drivers/STM32H5xx_HAL_Driver/Src/stm32h5xx_hal_rtc_ex.c ****   * @param  RTC_TimeStampPin Specifies the RTC TimeStamp Pin.
 282:Drivers/STM32H5xx_HAL_Driver/Src/stm32h5xx_hal_rtc_ex.c ****   *          This parameter can be one of the following values:
 283:Drivers/STM32H5xx_HAL_Driver/Src/stm32h5xx_hal_rtc_ex.c ****   *             @arg RTC_TIMESTAMPPIN_DEFAULT: PC13 is selected as RTC TimeStamp Pin.
 284:Drivers/STM32H5xx_HAL_Driver/Src/stm32h5xx_hal_rtc_ex.c ****   *               The RTC TimeStamp Pin is per default PC13, but for reasons of
 285:Drivers/STM32H5xx_HAL_Driver/Src/stm32h5xx_hal_rtc_ex.c ****   *               compatibility, this parameter is required.
 286:Drivers/STM32H5xx_HAL_Driver/Src/stm32h5xx_hal_rtc_ex.c ****   * @retval HAL status
 287:Drivers/STM32H5xx_HAL_Driver/Src/stm32h5xx_hal_rtc_ex.c ****   */
 288:Drivers/STM32H5xx_HAL_Driver/Src/stm32h5xx_hal_rtc_ex.c **** HAL_StatusTypeDef HAL_RTCEx_SetTimeStamp_IT(RTC_HandleTypeDef *hrtc, uint32_t TimeStampEdge, uint32
 289:Drivers/STM32H5xx_HAL_Driver/Src/stm32h5xx_hal_rtc_ex.c **** {
 105              		.loc 1 289 1 is_stmt 1 view -0
 106              		.cfi_startproc
 107              		@ args = 0, pretend = 0, frame = 0
 108              		@ frame_needed = 0, uses_anonymous_args = 0
 109              		@ link register save eliminated.
 110              		.loc 1 289 1 is_stmt 0 view .LVU25
 111 0000 0346     		mov	r3, r0
 290:Drivers/STM32H5xx_HAL_Driver/Src/stm32h5xx_hal_rtc_ex.c ****   /* Check the parameters */
ARM GAS  C:\Users\DELL\AppData\Local\Temp\ccMtHSyM.s 			page 8


 291:Drivers/STM32H5xx_HAL_Driver/Src/stm32h5xx_hal_rtc_ex.c **** #if defined(RTC_CR_TSEDGE)
 292:Drivers/STM32H5xx_HAL_Driver/Src/stm32h5xx_hal_rtc_ex.c ****   assert_param(IS_TIMESTAMP_EDGE(TimeStampEdge));
 112              		.loc 1 292 3 is_stmt 1 view .LVU26
 293:Drivers/STM32H5xx_HAL_Driver/Src/stm32h5xx_hal_rtc_ex.c **** #endif /* RTC_CR_TSEDGE */
 294:Drivers/STM32H5xx_HAL_Driver/Src/stm32h5xx_hal_rtc_ex.c ****   assert_param(IS_RTC_TIMESTAMP_PIN(RTC_TimeStampPin));
 113              		.loc 1 294 3 view .LVU27
 295:Drivers/STM32H5xx_HAL_Driver/Src/stm32h5xx_hal_rtc_ex.c ****   UNUSED(RTC_TimeStampPin);
 114              		.loc 1 295 3 view .LVU28
 296:Drivers/STM32H5xx_HAL_Driver/Src/stm32h5xx_hal_rtc_ex.c **** 
 297:Drivers/STM32H5xx_HAL_Driver/Src/stm32h5xx_hal_rtc_ex.c ****   /* Process Locked */
 298:Drivers/STM32H5xx_HAL_Driver/Src/stm32h5xx_hal_rtc_ex.c ****   __HAL_LOCK(hrtc);
 115              		.loc 1 298 3 view .LVU29
 116              		.loc 1 298 3 view .LVU30
 117 0002 90F82C20 		ldrb	r2, [r0, #44]	@ zero_extendqisi2
 118              	.LVL7:
 119              		.loc 1 298 3 is_stmt 0 view .LVU31
 120 0006 012A     		cmp	r2, #1
 121 0008 1AD0     		beq	.L8
 122              		.loc 1 298 3 is_stmt 1 discriminator 2 view .LVU32
 123 000a 4FF0010C 		mov	ip, #1
 124 000e 80F82CC0 		strb	ip, [r0, #44]
 125              		.loc 1 298 3 view .LVU33
 299:Drivers/STM32H5xx_HAL_Driver/Src/stm32h5xx_hal_rtc_ex.c **** 
 300:Drivers/STM32H5xx_HAL_Driver/Src/stm32h5xx_hal_rtc_ex.c ****   /* Change RTC state */
 301:Drivers/STM32H5xx_HAL_Driver/Src/stm32h5xx_hal_rtc_ex.c ****   hrtc->State = HAL_RTC_STATE_BUSY;
 126              		.loc 1 301 3 view .LVU34
 127              		.loc 1 301 15 is_stmt 0 view .LVU35
 128 0012 0222     		movs	r2, #2
 129 0014 80F82D20 		strb	r2, [r0, #45]
 302:Drivers/STM32H5xx_HAL_Driver/Src/stm32h5xx_hal_rtc_ex.c **** 
 303:Drivers/STM32H5xx_HAL_Driver/Src/stm32h5xx_hal_rtc_ex.c ****   /* Get the RTC_CR register and clear the bits to be configured */
 304:Drivers/STM32H5xx_HAL_Driver/Src/stm32h5xx_hal_rtc_ex.c **** #if defined(RTC_CR_TSEDGE)
 305:Drivers/STM32H5xx_HAL_Driver/Src/stm32h5xx_hal_rtc_ex.c ****   CLEAR_BIT(RTC->CR, (RTC_CR_TSEDGE | RTC_CR_TSE | RTC_CR_TSIE));
 130              		.loc 1 305 3 is_stmt 1 view .LVU36
 131 0018 0A4A     		ldr	r2, .L9
 132 001a 9069     		ldr	r0, [r2, #24]
 133              	.LVL8:
 134              		.loc 1 305 3 is_stmt 0 view .LVU37
 135 001c 20F40840 		bic	r0, r0, #34816
 136 0020 20F00800 		bic	r0, r0, #8
 137 0024 9061     		str	r0, [r2, #24]
 306:Drivers/STM32H5xx_HAL_Driver/Src/stm32h5xx_hal_rtc_ex.c **** #else
 307:Drivers/STM32H5xx_HAL_Driver/Src/stm32h5xx_hal_rtc_ex.c ****   CLEAR_BIT(RTC->CR, (RTC_CR_TSE | RTC_CR_TSIE));
 308:Drivers/STM32H5xx_HAL_Driver/Src/stm32h5xx_hal_rtc_ex.c **** #endif /* RTC_CR_TSEDGE */
 309:Drivers/STM32H5xx_HAL_Driver/Src/stm32h5xx_hal_rtc_ex.c **** 
 310:Drivers/STM32H5xx_HAL_Driver/Src/stm32h5xx_hal_rtc_ex.c ****   /* Configure the Time Stamp TSEDGE before Enable bit to avoid unwanted TSF setting. */
 311:Drivers/STM32H5xx_HAL_Driver/Src/stm32h5xx_hal_rtc_ex.c ****   SET_BIT(RTC->CR, (uint32_t)TimeStampEdge);
 138              		.loc 1 311 3 is_stmt 1 view .LVU38
 139 0026 9069     		ldr	r0, [r2, #24]
 140 0028 0143     		orrs	r1, r1, r0
 141              	.LVL9:
 142              		.loc 1 311 3 is_stmt 0 view .LVU39
 143 002a 9161     		str	r1, [r2, #24]
 312:Drivers/STM32H5xx_HAL_Driver/Src/stm32h5xx_hal_rtc_ex.c **** 
 313:Drivers/STM32H5xx_HAL_Driver/Src/stm32h5xx_hal_rtc_ex.c ****   /* Enable timestamp and IT */
 314:Drivers/STM32H5xx_HAL_Driver/Src/stm32h5xx_hal_rtc_ex.c ****   SET_BIT(RTC->CR, RTC_CR_TSE | RTC_CR_TSIE);
 144              		.loc 1 314 3 is_stmt 1 view .LVU40
ARM GAS  C:\Users\DELL\AppData\Local\Temp\ccMtHSyM.s 			page 9


 145 002c 9169     		ldr	r1, [r2, #24]
 146 002e 41F40841 		orr	r1, r1, #34816
 147 0032 9161     		str	r1, [r2, #24]
 315:Drivers/STM32H5xx_HAL_Driver/Src/stm32h5xx_hal_rtc_ex.c **** 
 316:Drivers/STM32H5xx_HAL_Driver/Src/stm32h5xx_hal_rtc_ex.c ****   /* Change RTC state */
 317:Drivers/STM32H5xx_HAL_Driver/Src/stm32h5xx_hal_rtc_ex.c ****   hrtc->State = HAL_RTC_STATE_READY;
 148              		.loc 1 317 3 view .LVU41
 149              		.loc 1 317 15 is_stmt 0 view .LVU42
 150 0034 83F82DC0 		strb	ip, [r3, #45]
 318:Drivers/STM32H5xx_HAL_Driver/Src/stm32h5xx_hal_rtc_ex.c **** 
 319:Drivers/STM32H5xx_HAL_Driver/Src/stm32h5xx_hal_rtc_ex.c ****   /* Process Unlocked */
 320:Drivers/STM32H5xx_HAL_Driver/Src/stm32h5xx_hal_rtc_ex.c ****   __HAL_UNLOCK(hrtc);
 151              		.loc 1 320 3 is_stmt 1 view .LVU43
 152              		.loc 1 320 3 view .LVU44
 153 0038 0020     		movs	r0, #0
 154 003a 83F82C00 		strb	r0, [r3, #44]
 155              		.loc 1 320 3 view .LVU45
 321:Drivers/STM32H5xx_HAL_Driver/Src/stm32h5xx_hal_rtc_ex.c **** 
 322:Drivers/STM32H5xx_HAL_Driver/Src/stm32h5xx_hal_rtc_ex.c ****   return HAL_OK;
 156              		.loc 1 322 3 view .LVU46
 157              		.loc 1 322 10 is_stmt 0 view .LVU47
 158 003e 7047     		bx	lr
 159              	.LVL10:
 160              	.L8:
 298:Drivers/STM32H5xx_HAL_Driver/Src/stm32h5xx_hal_rtc_ex.c **** 
 161              		.loc 1 298 3 discriminator 1 view .LVU48
 162 0040 0220     		movs	r0, #2
 163              	.LVL11:
 323:Drivers/STM32H5xx_HAL_Driver/Src/stm32h5xx_hal_rtc_ex.c **** }
 164              		.loc 1 323 1 view .LVU49
 165 0042 7047     		bx	lr
 166              	.L10:
 167              		.align	2
 168              	.L9:
 169 0044 00780044 		.word	1140881408
 170              		.cfi_endproc
 171              	.LFE298:
 173              		.section	.text.HAL_RTCEx_DeactivateTimeStamp,"ax",%progbits
 174              		.align	1
 175              		.global	HAL_RTCEx_DeactivateTimeStamp
 176              		.syntax unified
 177              		.thumb
 178              		.thumb_func
 180              	HAL_RTCEx_DeactivateTimeStamp:
 181              	.LVL12:
 182              	.LFB299:
 324:Drivers/STM32H5xx_HAL_Driver/Src/stm32h5xx_hal_rtc_ex.c **** 
 325:Drivers/STM32H5xx_HAL_Driver/Src/stm32h5xx_hal_rtc_ex.c **** /**
 326:Drivers/STM32H5xx_HAL_Driver/Src/stm32h5xx_hal_rtc_ex.c ****   * @brief  Deactivate TimeStamp.
 327:Drivers/STM32H5xx_HAL_Driver/Src/stm32h5xx_hal_rtc_ex.c ****   * @param  hrtc RTC handle
 328:Drivers/STM32H5xx_HAL_Driver/Src/stm32h5xx_hal_rtc_ex.c ****   * @retval HAL status
 329:Drivers/STM32H5xx_HAL_Driver/Src/stm32h5xx_hal_rtc_ex.c ****   */
 330:Drivers/STM32H5xx_HAL_Driver/Src/stm32h5xx_hal_rtc_ex.c **** HAL_StatusTypeDef HAL_RTCEx_DeactivateTimeStamp(RTC_HandleTypeDef *hrtc)
 331:Drivers/STM32H5xx_HAL_Driver/Src/stm32h5xx_hal_rtc_ex.c **** {
 183              		.loc 1 331 1 is_stmt 1 view -0
 184              		.cfi_startproc
 185              		@ args = 0, pretend = 0, frame = 0
ARM GAS  C:\Users\DELL\AppData\Local\Temp\ccMtHSyM.s 			page 10


 186              		@ frame_needed = 0, uses_anonymous_args = 0
 187              		@ link register save eliminated.
 332:Drivers/STM32H5xx_HAL_Driver/Src/stm32h5xx_hal_rtc_ex.c ****   /* Process Locked */
 333:Drivers/STM32H5xx_HAL_Driver/Src/stm32h5xx_hal_rtc_ex.c ****   __HAL_LOCK(hrtc);
 188              		.loc 1 333 3 view .LVU51
 189              		.loc 1 333 3 view .LVU52
 190 0000 90F82C30 		ldrb	r3, [r0, #44]	@ zero_extendqisi2
 191 0004 012B     		cmp	r3, #1
 192 0006 13D0     		beq	.L13
 193              		.loc 1 333 3 discriminator 2 view .LVU53
 194 0008 0122     		movs	r2, #1
 195 000a 80F82C20 		strb	r2, [r0, #44]
 196              		.loc 1 333 3 view .LVU54
 334:Drivers/STM32H5xx_HAL_Driver/Src/stm32h5xx_hal_rtc_ex.c **** 
 335:Drivers/STM32H5xx_HAL_Driver/Src/stm32h5xx_hal_rtc_ex.c ****   /* Change RTC state */
 336:Drivers/STM32H5xx_HAL_Driver/Src/stm32h5xx_hal_rtc_ex.c ****   hrtc->State = HAL_RTC_STATE_BUSY;
 197              		.loc 1 336 3 view .LVU55
 198              		.loc 1 336 15 is_stmt 0 view .LVU56
 199 000e 0223     		movs	r3, #2
 200 0010 80F82D30 		strb	r3, [r0, #45]
 337:Drivers/STM32H5xx_HAL_Driver/Src/stm32h5xx_hal_rtc_ex.c **** 
 338:Drivers/STM32H5xx_HAL_Driver/Src/stm32h5xx_hal_rtc_ex.c ****   /* In case of interrupt mode is used, the interrupt source must disabled */
 339:Drivers/STM32H5xx_HAL_Driver/Src/stm32h5xx_hal_rtc_ex.c **** #if defined(RTC_CR_TSEDGE)
 340:Drivers/STM32H5xx_HAL_Driver/Src/stm32h5xx_hal_rtc_ex.c ****   CLEAR_BIT(RTC->CR, (RTC_CR_TSEDGE | RTC_CR_TSE | RTC_CR_TSIE));
 201              		.loc 1 340 3 is_stmt 1 view .LVU57
 202 0014 0749     		ldr	r1, .L14
 203 0016 8B69     		ldr	r3, [r1, #24]
 204 0018 23F40843 		bic	r3, r3, #34816
 205 001c 23F00803 		bic	r3, r3, #8
 206 0020 8B61     		str	r3, [r1, #24]
 341:Drivers/STM32H5xx_HAL_Driver/Src/stm32h5xx_hal_rtc_ex.c **** #else
 342:Drivers/STM32H5xx_HAL_Driver/Src/stm32h5xx_hal_rtc_ex.c ****   CLEAR_BIT(RTC->CR, (RTC_CR_TSE | RTC_CR_TSIE));
 343:Drivers/STM32H5xx_HAL_Driver/Src/stm32h5xx_hal_rtc_ex.c **** #endif /* RTC_CR_TSEDGE */
 344:Drivers/STM32H5xx_HAL_Driver/Src/stm32h5xx_hal_rtc_ex.c **** 
 345:Drivers/STM32H5xx_HAL_Driver/Src/stm32h5xx_hal_rtc_ex.c ****   /* Change RTC state */
 346:Drivers/STM32H5xx_HAL_Driver/Src/stm32h5xx_hal_rtc_ex.c ****   hrtc->State = HAL_RTC_STATE_READY;
 207              		.loc 1 346 3 view .LVU58
 208              		.loc 1 346 15 is_stmt 0 view .LVU59
 209 0022 80F82D20 		strb	r2, [r0, #45]
 347:Drivers/STM32H5xx_HAL_Driver/Src/stm32h5xx_hal_rtc_ex.c **** 
 348:Drivers/STM32H5xx_HAL_Driver/Src/stm32h5xx_hal_rtc_ex.c ****   /* Process Unlocked */
 349:Drivers/STM32H5xx_HAL_Driver/Src/stm32h5xx_hal_rtc_ex.c ****   __HAL_UNLOCK(hrtc);
 210              		.loc 1 349 3 is_stmt 1 view .LVU60
 211              		.loc 1 349 3 view .LVU61
 212 0026 0023     		movs	r3, #0
 213 0028 80F82C30 		strb	r3, [r0, #44]
 214              		.loc 1 349 3 view .LVU62
 350:Drivers/STM32H5xx_HAL_Driver/Src/stm32h5xx_hal_rtc_ex.c **** 
 351:Drivers/STM32H5xx_HAL_Driver/Src/stm32h5xx_hal_rtc_ex.c ****   return HAL_OK;
 215              		.loc 1 351 3 view .LVU63
 216              		.loc 1 351 10 is_stmt 0 view .LVU64
 217 002c 1846     		mov	r0, r3
 218              	.LVL13:
 219              		.loc 1 351 10 view .LVU65
 220 002e 7047     		bx	lr
 221              	.LVL14:
 222              	.L13:
ARM GAS  C:\Users\DELL\AppData\Local\Temp\ccMtHSyM.s 			page 11


 333:Drivers/STM32H5xx_HAL_Driver/Src/stm32h5xx_hal_rtc_ex.c **** 
 223              		.loc 1 333 3 discriminator 1 view .LVU66
 224 0030 0220     		movs	r0, #2
 225              	.LVL15:
 352:Drivers/STM32H5xx_HAL_Driver/Src/stm32h5xx_hal_rtc_ex.c **** }
 226              		.loc 1 352 1 view .LVU67
 227 0032 7047     		bx	lr
 228              	.L15:
 229              		.align	2
 230              	.L14:
 231 0034 00780044 		.word	1140881408
 232              		.cfi_endproc
 233              	.LFE299:
 235              		.section	.text.HAL_RTCEx_SetInternalTimeStamp,"ax",%progbits
 236              		.align	1
 237              		.global	HAL_RTCEx_SetInternalTimeStamp
 238              		.syntax unified
 239              		.thumb
 240              		.thumb_func
 242              	HAL_RTCEx_SetInternalTimeStamp:
 243              	.LVL16:
 244              	.LFB300:
 353:Drivers/STM32H5xx_HAL_Driver/Src/stm32h5xx_hal_rtc_ex.c **** #endif /* RTC_CR_TSE */
 354:Drivers/STM32H5xx_HAL_Driver/Src/stm32h5xx_hal_rtc_ex.c **** 
 355:Drivers/STM32H5xx_HAL_Driver/Src/stm32h5xx_hal_rtc_ex.c **** /**
 356:Drivers/STM32H5xx_HAL_Driver/Src/stm32h5xx_hal_rtc_ex.c ****   * @brief  Set Internal TimeStamp.
 357:Drivers/STM32H5xx_HAL_Driver/Src/stm32h5xx_hal_rtc_ex.c ****   * @note   This API must be called before enabling the internal TimeStamp feature.
 358:Drivers/STM32H5xx_HAL_Driver/Src/stm32h5xx_hal_rtc_ex.c ****   * @param  hrtc RTC handle
 359:Drivers/STM32H5xx_HAL_Driver/Src/stm32h5xx_hal_rtc_ex.c ****   * @retval HAL status
 360:Drivers/STM32H5xx_HAL_Driver/Src/stm32h5xx_hal_rtc_ex.c ****   */
 361:Drivers/STM32H5xx_HAL_Driver/Src/stm32h5xx_hal_rtc_ex.c **** HAL_StatusTypeDef HAL_RTCEx_SetInternalTimeStamp(RTC_HandleTypeDef *hrtc)
 362:Drivers/STM32H5xx_HAL_Driver/Src/stm32h5xx_hal_rtc_ex.c **** {
 245              		.loc 1 362 1 is_stmt 1 view -0
 246              		.cfi_startproc
 247              		@ args = 0, pretend = 0, frame = 0
 248              		@ frame_needed = 0, uses_anonymous_args = 0
 249              		@ link register save eliminated.
 363:Drivers/STM32H5xx_HAL_Driver/Src/stm32h5xx_hal_rtc_ex.c ****   /* Process Locked */
 364:Drivers/STM32H5xx_HAL_Driver/Src/stm32h5xx_hal_rtc_ex.c ****   __HAL_LOCK(hrtc);
 250              		.loc 1 364 3 view .LVU69
 251              		.loc 1 364 3 view .LVU70
 252 0000 90F82C30 		ldrb	r3, [r0, #44]	@ zero_extendqisi2
 253 0004 012B     		cmp	r3, #1
 254 0006 11D0     		beq	.L18
 255              		.loc 1 364 3 discriminator 2 view .LVU71
 256 0008 0122     		movs	r2, #1
 257 000a 80F82C20 		strb	r2, [r0, #44]
 258              		.loc 1 364 3 view .LVU72
 365:Drivers/STM32H5xx_HAL_Driver/Src/stm32h5xx_hal_rtc_ex.c **** 
 366:Drivers/STM32H5xx_HAL_Driver/Src/stm32h5xx_hal_rtc_ex.c ****   /* Change RTC state */
 367:Drivers/STM32H5xx_HAL_Driver/Src/stm32h5xx_hal_rtc_ex.c ****   hrtc->State = HAL_RTC_STATE_BUSY;
 259              		.loc 1 367 3 view .LVU73
 260              		.loc 1 367 15 is_stmt 0 view .LVU74
 261 000e 0223     		movs	r3, #2
 262 0010 80F82D30 		strb	r3, [r0, #45]
 368:Drivers/STM32H5xx_HAL_Driver/Src/stm32h5xx_hal_rtc_ex.c **** 
 369:Drivers/STM32H5xx_HAL_Driver/Src/stm32h5xx_hal_rtc_ex.c ****   /* Configure the internal Time Stamp Enable bits */
ARM GAS  C:\Users\DELL\AppData\Local\Temp\ccMtHSyM.s 			page 12


 370:Drivers/STM32H5xx_HAL_Driver/Src/stm32h5xx_hal_rtc_ex.c ****   SET_BIT(RTC->CR, RTC_CR_ITSE);
 263              		.loc 1 370 3 is_stmt 1 view .LVU75
 264 0014 0649     		ldr	r1, .L19
 265 0016 8B69     		ldr	r3, [r1, #24]
 266 0018 43F08073 		orr	r3, r3, #16777216
 267 001c 8B61     		str	r3, [r1, #24]
 371:Drivers/STM32H5xx_HAL_Driver/Src/stm32h5xx_hal_rtc_ex.c **** 
 372:Drivers/STM32H5xx_HAL_Driver/Src/stm32h5xx_hal_rtc_ex.c ****   /* Change RTC state */
 373:Drivers/STM32H5xx_HAL_Driver/Src/stm32h5xx_hal_rtc_ex.c ****   hrtc->State = HAL_RTC_STATE_READY;
 268              		.loc 1 373 3 view .LVU76
 269              		.loc 1 373 15 is_stmt 0 view .LVU77
 270 001e 80F82D20 		strb	r2, [r0, #45]
 374:Drivers/STM32H5xx_HAL_Driver/Src/stm32h5xx_hal_rtc_ex.c **** 
 375:Drivers/STM32H5xx_HAL_Driver/Src/stm32h5xx_hal_rtc_ex.c ****   /* Process Unlocked */
 376:Drivers/STM32H5xx_HAL_Driver/Src/stm32h5xx_hal_rtc_ex.c ****   __HAL_UNLOCK(hrtc);
 271              		.loc 1 376 3 is_stmt 1 view .LVU78
 272              		.loc 1 376 3 view .LVU79
 273 0022 0023     		movs	r3, #0
 274 0024 80F82C30 		strb	r3, [r0, #44]
 275              		.loc 1 376 3 view .LVU80
 377:Drivers/STM32H5xx_HAL_Driver/Src/stm32h5xx_hal_rtc_ex.c **** 
 378:Drivers/STM32H5xx_HAL_Driver/Src/stm32h5xx_hal_rtc_ex.c ****   return HAL_OK;
 276              		.loc 1 378 3 view .LVU81
 277              		.loc 1 378 10 is_stmt 0 view .LVU82
 278 0028 1846     		mov	r0, r3
 279              	.LVL17:
 280              		.loc 1 378 10 view .LVU83
 281 002a 7047     		bx	lr
 282              	.LVL18:
 283              	.L18:
 364:Drivers/STM32H5xx_HAL_Driver/Src/stm32h5xx_hal_rtc_ex.c **** 
 284              		.loc 1 364 3 discriminator 1 view .LVU84
 285 002c 0220     		movs	r0, #2
 286              	.LVL19:
 379:Drivers/STM32H5xx_HAL_Driver/Src/stm32h5xx_hal_rtc_ex.c **** }
 287              		.loc 1 379 1 view .LVU85
 288 002e 7047     		bx	lr
 289              	.L20:
 290              		.align	2
 291              	.L19:
 292 0030 00780044 		.word	1140881408
 293              		.cfi_endproc
 294              	.LFE300:
 296              		.section	.text.HAL_RTCEx_DeactivateInternalTimeStamp,"ax",%progbits
 297              		.align	1
 298              		.global	HAL_RTCEx_DeactivateInternalTimeStamp
 299              		.syntax unified
 300              		.thumb
 301              		.thumb_func
 303              	HAL_RTCEx_DeactivateInternalTimeStamp:
 304              	.LVL20:
 305              	.LFB301:
 380:Drivers/STM32H5xx_HAL_Driver/Src/stm32h5xx_hal_rtc_ex.c **** 
 381:Drivers/STM32H5xx_HAL_Driver/Src/stm32h5xx_hal_rtc_ex.c **** /**
 382:Drivers/STM32H5xx_HAL_Driver/Src/stm32h5xx_hal_rtc_ex.c ****   * @brief  Deactivate Internal TimeStamp.
 383:Drivers/STM32H5xx_HAL_Driver/Src/stm32h5xx_hal_rtc_ex.c ****   * @param  hrtc RTC handle
 384:Drivers/STM32H5xx_HAL_Driver/Src/stm32h5xx_hal_rtc_ex.c ****   * @retval HAL status
ARM GAS  C:\Users\DELL\AppData\Local\Temp\ccMtHSyM.s 			page 13


 385:Drivers/STM32H5xx_HAL_Driver/Src/stm32h5xx_hal_rtc_ex.c ****   */
 386:Drivers/STM32H5xx_HAL_Driver/Src/stm32h5xx_hal_rtc_ex.c **** HAL_StatusTypeDef HAL_RTCEx_DeactivateInternalTimeStamp(RTC_HandleTypeDef *hrtc)
 387:Drivers/STM32H5xx_HAL_Driver/Src/stm32h5xx_hal_rtc_ex.c **** {
 306              		.loc 1 387 1 is_stmt 1 view -0
 307              		.cfi_startproc
 308              		@ args = 0, pretend = 0, frame = 0
 309              		@ frame_needed = 0, uses_anonymous_args = 0
 310              		@ link register save eliminated.
 388:Drivers/STM32H5xx_HAL_Driver/Src/stm32h5xx_hal_rtc_ex.c ****   /* Process Locked */
 389:Drivers/STM32H5xx_HAL_Driver/Src/stm32h5xx_hal_rtc_ex.c ****   __HAL_LOCK(hrtc);
 311              		.loc 1 389 3 view .LVU87
 312              		.loc 1 389 3 view .LVU88
 313 0000 90F82C30 		ldrb	r3, [r0, #44]	@ zero_extendqisi2
 314 0004 012B     		cmp	r3, #1
 315 0006 11D0     		beq	.L23
 316              		.loc 1 389 3 discriminator 2 view .LVU89
 317 0008 0122     		movs	r2, #1
 318 000a 80F82C20 		strb	r2, [r0, #44]
 319              		.loc 1 389 3 view .LVU90
 390:Drivers/STM32H5xx_HAL_Driver/Src/stm32h5xx_hal_rtc_ex.c **** 
 391:Drivers/STM32H5xx_HAL_Driver/Src/stm32h5xx_hal_rtc_ex.c ****   /* Change RTC state */
 392:Drivers/STM32H5xx_HAL_Driver/Src/stm32h5xx_hal_rtc_ex.c ****   hrtc->State = HAL_RTC_STATE_BUSY;
 320              		.loc 1 392 3 view .LVU91
 321              		.loc 1 392 15 is_stmt 0 view .LVU92
 322 000e 0223     		movs	r3, #2
 323 0010 80F82D30 		strb	r3, [r0, #45]
 393:Drivers/STM32H5xx_HAL_Driver/Src/stm32h5xx_hal_rtc_ex.c **** 
 394:Drivers/STM32H5xx_HAL_Driver/Src/stm32h5xx_hal_rtc_ex.c ****   /* Configure the internal Time Stamp Enable bits */
 395:Drivers/STM32H5xx_HAL_Driver/Src/stm32h5xx_hal_rtc_ex.c ****   CLEAR_BIT(RTC->CR, RTC_CR_ITSE);
 324              		.loc 1 395 3 is_stmt 1 view .LVU93
 325 0014 0649     		ldr	r1, .L24
 326 0016 8B69     		ldr	r3, [r1, #24]
 327 0018 23F08073 		bic	r3, r3, #16777216
 328 001c 8B61     		str	r3, [r1, #24]
 396:Drivers/STM32H5xx_HAL_Driver/Src/stm32h5xx_hal_rtc_ex.c **** 
 397:Drivers/STM32H5xx_HAL_Driver/Src/stm32h5xx_hal_rtc_ex.c ****   hrtc->State = HAL_RTC_STATE_READY;
 329              		.loc 1 397 3 view .LVU94
 330              		.loc 1 397 15 is_stmt 0 view .LVU95
 331 001e 80F82D20 		strb	r2, [r0, #45]
 398:Drivers/STM32H5xx_HAL_Driver/Src/stm32h5xx_hal_rtc_ex.c **** 
 399:Drivers/STM32H5xx_HAL_Driver/Src/stm32h5xx_hal_rtc_ex.c ****   /* Process Unlocked */
 400:Drivers/STM32H5xx_HAL_Driver/Src/stm32h5xx_hal_rtc_ex.c ****   __HAL_UNLOCK(hrtc);
 332              		.loc 1 400 3 is_stmt 1 view .LVU96
 333              		.loc 1 400 3 view .LVU97
 334 0022 0023     		movs	r3, #0
 335 0024 80F82C30 		strb	r3, [r0, #44]
 336              		.loc 1 400 3 view .LVU98
 401:Drivers/STM32H5xx_HAL_Driver/Src/stm32h5xx_hal_rtc_ex.c **** 
 402:Drivers/STM32H5xx_HAL_Driver/Src/stm32h5xx_hal_rtc_ex.c ****   return HAL_OK;
 337              		.loc 1 402 3 view .LVU99
 338              		.loc 1 402 10 is_stmt 0 view .LVU100
 339 0028 1846     		mov	r0, r3
 340              	.LVL21:
 341              		.loc 1 402 10 view .LVU101
 342 002a 7047     		bx	lr
 343              	.LVL22:
 344              	.L23:
ARM GAS  C:\Users\DELL\AppData\Local\Temp\ccMtHSyM.s 			page 14


 389:Drivers/STM32H5xx_HAL_Driver/Src/stm32h5xx_hal_rtc_ex.c **** 
 345              		.loc 1 389 3 discriminator 1 view .LVU102
 346 002c 0220     		movs	r0, #2
 347              	.LVL23:
 403:Drivers/STM32H5xx_HAL_Driver/Src/stm32h5xx_hal_rtc_ex.c **** }
 348              		.loc 1 403 1 view .LVU103
 349 002e 7047     		bx	lr
 350              	.L25:
 351              		.align	2
 352              	.L24:
 353 0030 00780044 		.word	1140881408
 354              		.cfi_endproc
 355              	.LFE301:
 357              		.section	.text.HAL_RTCEx_GetTimeStamp,"ax",%progbits
 358              		.align	1
 359              		.global	HAL_RTCEx_GetTimeStamp
 360              		.syntax unified
 361              		.thumb
 362              		.thumb_func
 364              	HAL_RTCEx_GetTimeStamp:
 365              	.LVL24:
 366              	.LFB302:
 404:Drivers/STM32H5xx_HAL_Driver/Src/stm32h5xx_hal_rtc_ex.c **** 
 405:Drivers/STM32H5xx_HAL_Driver/Src/stm32h5xx_hal_rtc_ex.c **** /**
 406:Drivers/STM32H5xx_HAL_Driver/Src/stm32h5xx_hal_rtc_ex.c ****   * @brief  Get the RTC TimeStamp value.
 407:Drivers/STM32H5xx_HAL_Driver/Src/stm32h5xx_hal_rtc_ex.c ****   * @param  hrtc RTC handle
 408:Drivers/STM32H5xx_HAL_Driver/Src/stm32h5xx_hal_rtc_ex.c ****   * @param  sTimeStamp Pointer to Time structure
 409:Drivers/STM32H5xx_HAL_Driver/Src/stm32h5xx_hal_rtc_ex.c ****   * @param  sTimeStampDate Pointer to Date structure
 410:Drivers/STM32H5xx_HAL_Driver/Src/stm32h5xx_hal_rtc_ex.c ****   * @param  Format specifies the format of the entered parameters.
 411:Drivers/STM32H5xx_HAL_Driver/Src/stm32h5xx_hal_rtc_ex.c ****   *          This parameter can be one of the following values:
 412:Drivers/STM32H5xx_HAL_Driver/Src/stm32h5xx_hal_rtc_ex.c ****   *             @arg RTC_FORMAT_BIN: Binary data format
 413:Drivers/STM32H5xx_HAL_Driver/Src/stm32h5xx_hal_rtc_ex.c ****   *             @arg RTC_FORMAT_BCD: BCD data format
 414:Drivers/STM32H5xx_HAL_Driver/Src/stm32h5xx_hal_rtc_ex.c ****   * @retval HAL status
 415:Drivers/STM32H5xx_HAL_Driver/Src/stm32h5xx_hal_rtc_ex.c ****   */
 416:Drivers/STM32H5xx_HAL_Driver/Src/stm32h5xx_hal_rtc_ex.c **** HAL_StatusTypeDef HAL_RTCEx_GetTimeStamp(const RTC_HandleTypeDef *hrtc, RTC_TimeTypeDef *sTimeStamp
 417:Drivers/STM32H5xx_HAL_Driver/Src/stm32h5xx_hal_rtc_ex.c ****                                          RTC_DateTypeDef *sTimeStampDate, uint32_t Format)
 418:Drivers/STM32H5xx_HAL_Driver/Src/stm32h5xx_hal_rtc_ex.c **** {
 367              		.loc 1 418 1 is_stmt 1 view -0
 368              		.cfi_startproc
 369              		@ args = 0, pretend = 0, frame = 0
 370              		@ frame_needed = 0, uses_anonymous_args = 0
 371              		.loc 1 418 1 is_stmt 0 view .LVU105
 372 0000 38B5     		push	{r3, r4, r5, lr}
 373              	.LCFI0:
 374              		.cfi_def_cfa_offset 16
 375              		.cfi_offset 3, -16
 376              		.cfi_offset 4, -12
 377              		.cfi_offset 5, -8
 378              		.cfi_offset 14, -4
 379 0002 0C46     		mov	r4, r1
 380 0004 1546     		mov	r5, r2
 419:Drivers/STM32H5xx_HAL_Driver/Src/stm32h5xx_hal_rtc_ex.c ****   uint32_t tmptime;
 381              		.loc 1 419 3 is_stmt 1 view .LVU106
 420:Drivers/STM32H5xx_HAL_Driver/Src/stm32h5xx_hal_rtc_ex.c ****   uint32_t tmpdate;
 382              		.loc 1 420 3 view .LVU107
 421:Drivers/STM32H5xx_HAL_Driver/Src/stm32h5xx_hal_rtc_ex.c **** 
 422:Drivers/STM32H5xx_HAL_Driver/Src/stm32h5xx_hal_rtc_ex.c ****   /* Prevent unused argument(s) compilation warning */
ARM GAS  C:\Users\DELL\AppData\Local\Temp\ccMtHSyM.s 			page 15


 423:Drivers/STM32H5xx_HAL_Driver/Src/stm32h5xx_hal_rtc_ex.c ****   UNUSED(hrtc);
 383              		.loc 1 423 3 view .LVU108
 424:Drivers/STM32H5xx_HAL_Driver/Src/stm32h5xx_hal_rtc_ex.c **** 
 425:Drivers/STM32H5xx_HAL_Driver/Src/stm32h5xx_hal_rtc_ex.c ****   /* Check the parameters */
 426:Drivers/STM32H5xx_HAL_Driver/Src/stm32h5xx_hal_rtc_ex.c ****   assert_param(IS_RTC_FORMAT(Format));
 384              		.loc 1 426 3 view .LVU109
 427:Drivers/STM32H5xx_HAL_Driver/Src/stm32h5xx_hal_rtc_ex.c **** 
 428:Drivers/STM32H5xx_HAL_Driver/Src/stm32h5xx_hal_rtc_ex.c ****   /* Get the TimeStamp time and date registers values */
 429:Drivers/STM32H5xx_HAL_Driver/Src/stm32h5xx_hal_rtc_ex.c ****   tmptime = READ_BIT(RTC->TSTR, RTC_TR_RESERVED_MASK);
 385              		.loc 1 429 3 view .LVU110
 386              		.loc 1 429 13 is_stmt 0 view .LVU111
 387 0006 1F48     		ldr	r0, .L30
 388              	.LVL25:
 389              		.loc 1 429 13 view .LVU112
 390 0008 026B     		ldr	r2, [r0, #48]
 391              	.LVL26:
 430:Drivers/STM32H5xx_HAL_Driver/Src/stm32h5xx_hal_rtc_ex.c ****   tmpdate = READ_BIT(RTC->TSDR, RTC_DR_RESERVED_MASK);
 392              		.loc 1 430 3 is_stmt 1 view .LVU113
 393              		.loc 1 430 13 is_stmt 0 view .LVU114
 394 000a 416B     		ldr	r1, [r0, #52]
 395              	.LVL27:
 431:Drivers/STM32H5xx_HAL_Driver/Src/stm32h5xx_hal_rtc_ex.c **** 
 432:Drivers/STM32H5xx_HAL_Driver/Src/stm32h5xx_hal_rtc_ex.c ****   /* Fill the Time structure fields with the read parameters */
 433:Drivers/STM32H5xx_HAL_Driver/Src/stm32h5xx_hal_rtc_ex.c ****   sTimeStamp->Hours = (uint8_t)((tmptime & (RTC_TSTR_HT | RTC_TSTR_HU)) >> RTC_TSTR_HU_Pos);
 396              		.loc 1 433 3 is_stmt 1 view .LVU115
 397              		.loc 1 433 23 is_stmt 0 view .LVU116
 398 000c C2F3054C 		ubfx	ip, r2, #16, #6
 399              		.loc 1 433 21 view .LVU117
 400 0010 84F800C0 		strb	ip, [r4]
 434:Drivers/STM32H5xx_HAL_Driver/Src/stm32h5xx_hal_rtc_ex.c ****   sTimeStamp->Minutes = (uint8_t)((tmptime & (RTC_TSTR_MNT | RTC_TSTR_MNU)) >> RTC_TSTR_MNU_Pos);
 401              		.loc 1 434 3 is_stmt 1 view .LVU118
 402              		.loc 1 434 25 is_stmt 0 view .LVU119
 403 0014 C2F3062C 		ubfx	ip, r2, #8, #7
 404              		.loc 1 434 23 view .LVU120
 405 0018 84F801C0 		strb	ip, [r4, #1]
 435:Drivers/STM32H5xx_HAL_Driver/Src/stm32h5xx_hal_rtc_ex.c ****   sTimeStamp->Seconds = (uint8_t)((tmptime & (RTC_TSTR_ST | RTC_TSTR_SU)) >> RTC_TSTR_SU_Pos);
 406              		.loc 1 435 3 is_stmt 1 view .LVU121
 407              		.loc 1 435 25 is_stmt 0 view .LVU122
 408 001c 02F07F0C 		and	ip, r2, #127
 409              		.loc 1 435 23 view .LVU123
 410 0020 84F802C0 		strb	ip, [r4, #2]
 436:Drivers/STM32H5xx_HAL_Driver/Src/stm32h5xx_hal_rtc_ex.c ****   sTimeStamp->TimeFormat = (uint8_t)((tmptime & (RTC_TSTR_PM)) >> RTC_TSTR_PM_Pos);
 411              		.loc 1 436 3 is_stmt 1 view .LVU124
 412              		.loc 1 436 28 is_stmt 0 view .LVU125
 413 0024 C2F38052 		ubfx	r2, r2, #22, #1
 414              	.LVL28:
 415              		.loc 1 436 26 view .LVU126
 416 0028 E270     		strb	r2, [r4, #3]
 437:Drivers/STM32H5xx_HAL_Driver/Src/stm32h5xx_hal_rtc_ex.c ****   sTimeStamp->SubSeconds = READ_BIT(RTC->TSSSR, RTC_TSSSR_SS);
 417              		.loc 1 437 3 is_stmt 1 view .LVU127
 418              		.loc 1 437 28 is_stmt 0 view .LVU128
 419 002a 826B     		ldr	r2, [r0, #56]
 420              		.loc 1 437 26 view .LVU129
 421 002c 6260     		str	r2, [r4, #4]
 438:Drivers/STM32H5xx_HAL_Driver/Src/stm32h5xx_hal_rtc_ex.c **** 
 439:Drivers/STM32H5xx_HAL_Driver/Src/stm32h5xx_hal_rtc_ex.c ****   /* Fill the Date structure fields with the read parameters */
 440:Drivers/STM32H5xx_HAL_Driver/Src/stm32h5xx_hal_rtc_ex.c ****   sTimeStampDate->Year = 0U;
ARM GAS  C:\Users\DELL\AppData\Local\Temp\ccMtHSyM.s 			page 16


 422              		.loc 1 440 3 is_stmt 1 view .LVU130
 423              		.loc 1 440 24 is_stmt 0 view .LVU131
 424 002e 0022     		movs	r2, #0
 425 0030 EA70     		strb	r2, [r5, #3]
 441:Drivers/STM32H5xx_HAL_Driver/Src/stm32h5xx_hal_rtc_ex.c ****   sTimeStampDate->Month = (uint8_t)((tmpdate & (RTC_TSDR_MT | RTC_TSDR_MU)) >> RTC_TSDR_MU_Pos);
 426              		.loc 1 441 3 is_stmt 1 view .LVU132
 427              		.loc 1 441 27 is_stmt 0 view .LVU133
 428 0032 C1F30422 		ubfx	r2, r1, #8, #5
 429              		.loc 1 441 25 view .LVU134
 430 0036 6A70     		strb	r2, [r5, #1]
 442:Drivers/STM32H5xx_HAL_Driver/Src/stm32h5xx_hal_rtc_ex.c ****   sTimeStampDate->Date = (uint8_t)(tmpdate & (RTC_TSDR_DT | RTC_TSDR_DU));
 431              		.loc 1 442 3 is_stmt 1 view .LVU135
 432              		.loc 1 442 26 is_stmt 0 view .LVU136
 433 0038 01F03F02 		and	r2, r1, #63
 434              		.loc 1 442 24 view .LVU137
 435 003c AA70     		strb	r2, [r5, #2]
 443:Drivers/STM32H5xx_HAL_Driver/Src/stm32h5xx_hal_rtc_ex.c ****   sTimeStampDate->WeekDay = (uint8_t)((tmpdate & (RTC_TSDR_WDU)) >> RTC_TSDR_WDU_Pos);
 436              		.loc 1 443 3 is_stmt 1 view .LVU138
 437              		.loc 1 443 29 is_stmt 0 view .LVU139
 438 003e C1F34231 		ubfx	r1, r1, #13, #3
 439              	.LVL29:
 440              		.loc 1 443 27 view .LVU140
 441 0042 2970     		strb	r1, [r5]
 444:Drivers/STM32H5xx_HAL_Driver/Src/stm32h5xx_hal_rtc_ex.c **** 
 445:Drivers/STM32H5xx_HAL_Driver/Src/stm32h5xx_hal_rtc_ex.c ****   /* Check the input parameters format */
 446:Drivers/STM32H5xx_HAL_Driver/Src/stm32h5xx_hal_rtc_ex.c ****   if (Format == RTC_FORMAT_BIN)
 442              		.loc 1 446 3 is_stmt 1 view .LVU141
 443              		.loc 1 446 6 is_stmt 0 view .LVU142
 444 0044 23B1     		cbz	r3, .L29
 445              	.LVL30:
 446              	.L27:
 447:Drivers/STM32H5xx_HAL_Driver/Src/stm32h5xx_hal_rtc_ex.c ****   {
 448:Drivers/STM32H5xx_HAL_Driver/Src/stm32h5xx_hal_rtc_ex.c ****     /* Convert the TimeStamp structure parameters to Binary format */
 449:Drivers/STM32H5xx_HAL_Driver/Src/stm32h5xx_hal_rtc_ex.c ****     sTimeStamp->Hours = (uint8_t)RTC_Bcd2ToByte(sTimeStamp->Hours);
 450:Drivers/STM32H5xx_HAL_Driver/Src/stm32h5xx_hal_rtc_ex.c ****     sTimeStamp->Minutes = (uint8_t)RTC_Bcd2ToByte(sTimeStamp->Minutes);
 451:Drivers/STM32H5xx_HAL_Driver/Src/stm32h5xx_hal_rtc_ex.c ****     sTimeStamp->Seconds = (uint8_t)RTC_Bcd2ToByte(sTimeStamp->Seconds);
 452:Drivers/STM32H5xx_HAL_Driver/Src/stm32h5xx_hal_rtc_ex.c **** 
 453:Drivers/STM32H5xx_HAL_Driver/Src/stm32h5xx_hal_rtc_ex.c ****     /* Convert the DateTimeStamp structure parameters to Binary format */
 454:Drivers/STM32H5xx_HAL_Driver/Src/stm32h5xx_hal_rtc_ex.c ****     sTimeStampDate->Month = (uint8_t)RTC_Bcd2ToByte(sTimeStampDate->Month);
 455:Drivers/STM32H5xx_HAL_Driver/Src/stm32h5xx_hal_rtc_ex.c ****     sTimeStampDate->Date = (uint8_t)RTC_Bcd2ToByte(sTimeStampDate->Date);
 456:Drivers/STM32H5xx_HAL_Driver/Src/stm32h5xx_hal_rtc_ex.c ****     sTimeStampDate->WeekDay = (uint8_t)RTC_Bcd2ToByte(sTimeStampDate->WeekDay);
 457:Drivers/STM32H5xx_HAL_Driver/Src/stm32h5xx_hal_rtc_ex.c ****   }
 458:Drivers/STM32H5xx_HAL_Driver/Src/stm32h5xx_hal_rtc_ex.c **** 
 459:Drivers/STM32H5xx_HAL_Driver/Src/stm32h5xx_hal_rtc_ex.c ****   /* Clear the TIMESTAMP Flags */
 460:Drivers/STM32H5xx_HAL_Driver/Src/stm32h5xx_hal_rtc_ex.c ****   WRITE_REG(RTC->SCR, (RTC_SCR_CITSF | RTC_SCR_CTSF));
 447              		.loc 1 460 3 is_stmt 1 view .LVU143
 448 0046 0F4B     		ldr	r3, .L30
 449 0048 2822     		movs	r2, #40
 450 004a DA65     		str	r2, [r3, #92]
 461:Drivers/STM32H5xx_HAL_Driver/Src/stm32h5xx_hal_rtc_ex.c **** 
 462:Drivers/STM32H5xx_HAL_Driver/Src/stm32h5xx_hal_rtc_ex.c ****   return HAL_OK;
 451              		.loc 1 462 3 view .LVU144
 463:Drivers/STM32H5xx_HAL_Driver/Src/stm32h5xx_hal_rtc_ex.c **** }
 452              		.loc 1 463 1 is_stmt 0 view .LVU145
 453 004c 0020     		movs	r0, #0
 454 004e 38BD     		pop	{r3, r4, r5, pc}
 455              	.LVL31:
ARM GAS  C:\Users\DELL\AppData\Local\Temp\ccMtHSyM.s 			page 17


 456              	.L29:
 449:Drivers/STM32H5xx_HAL_Driver/Src/stm32h5xx_hal_rtc_ex.c ****     sTimeStamp->Minutes = (uint8_t)RTC_Bcd2ToByte(sTimeStamp->Minutes);
 457              		.loc 1 449 5 is_stmt 1 view .LVU146
 449:Drivers/STM32H5xx_HAL_Driver/Src/stm32h5xx_hal_rtc_ex.c ****     sTimeStamp->Minutes = (uint8_t)RTC_Bcd2ToByte(sTimeStamp->Minutes);
 458              		.loc 1 449 34 is_stmt 0 view .LVU147
 459 0050 2078     		ldrb	r0, [r4]	@ zero_extendqisi2
 460 0052 FFF7FEFF 		bl	RTC_Bcd2ToByte
 461              	.LVL32:
 449:Drivers/STM32H5xx_HAL_Driver/Src/stm32h5xx_hal_rtc_ex.c ****     sTimeStamp->Minutes = (uint8_t)RTC_Bcd2ToByte(sTimeStamp->Minutes);
 462              		.loc 1 449 23 discriminator 1 view .LVU148
 463 0056 2070     		strb	r0, [r4]
 450:Drivers/STM32H5xx_HAL_Driver/Src/stm32h5xx_hal_rtc_ex.c ****     sTimeStamp->Seconds = (uint8_t)RTC_Bcd2ToByte(sTimeStamp->Seconds);
 464              		.loc 1 450 5 is_stmt 1 view .LVU149
 450:Drivers/STM32H5xx_HAL_Driver/Src/stm32h5xx_hal_rtc_ex.c ****     sTimeStamp->Seconds = (uint8_t)RTC_Bcd2ToByte(sTimeStamp->Seconds);
 465              		.loc 1 450 36 is_stmt 0 view .LVU150
 466 0058 6078     		ldrb	r0, [r4, #1]	@ zero_extendqisi2
 467 005a FFF7FEFF 		bl	RTC_Bcd2ToByte
 468              	.LVL33:
 450:Drivers/STM32H5xx_HAL_Driver/Src/stm32h5xx_hal_rtc_ex.c ****     sTimeStamp->Seconds = (uint8_t)RTC_Bcd2ToByte(sTimeStamp->Seconds);
 469              		.loc 1 450 25 discriminator 1 view .LVU151
 470 005e 6070     		strb	r0, [r4, #1]
 451:Drivers/STM32H5xx_HAL_Driver/Src/stm32h5xx_hal_rtc_ex.c **** 
 471              		.loc 1 451 5 is_stmt 1 view .LVU152
 451:Drivers/STM32H5xx_HAL_Driver/Src/stm32h5xx_hal_rtc_ex.c **** 
 472              		.loc 1 451 36 is_stmt 0 view .LVU153
 473 0060 A078     		ldrb	r0, [r4, #2]	@ zero_extendqisi2
 474 0062 FFF7FEFF 		bl	RTC_Bcd2ToByte
 475              	.LVL34:
 451:Drivers/STM32H5xx_HAL_Driver/Src/stm32h5xx_hal_rtc_ex.c **** 
 476              		.loc 1 451 25 discriminator 1 view .LVU154
 477 0066 A070     		strb	r0, [r4, #2]
 454:Drivers/STM32H5xx_HAL_Driver/Src/stm32h5xx_hal_rtc_ex.c ****     sTimeStampDate->Date = (uint8_t)RTC_Bcd2ToByte(sTimeStampDate->Date);
 478              		.loc 1 454 5 is_stmt 1 view .LVU155
 454:Drivers/STM32H5xx_HAL_Driver/Src/stm32h5xx_hal_rtc_ex.c ****     sTimeStampDate->Date = (uint8_t)RTC_Bcd2ToByte(sTimeStampDate->Date);
 479              		.loc 1 454 38 is_stmt 0 view .LVU156
 480 0068 6878     		ldrb	r0, [r5, #1]	@ zero_extendqisi2
 481 006a FFF7FEFF 		bl	RTC_Bcd2ToByte
 482              	.LVL35:
 454:Drivers/STM32H5xx_HAL_Driver/Src/stm32h5xx_hal_rtc_ex.c ****     sTimeStampDate->Date = (uint8_t)RTC_Bcd2ToByte(sTimeStampDate->Date);
 483              		.loc 1 454 27 discriminator 1 view .LVU157
 484 006e 6870     		strb	r0, [r5, #1]
 455:Drivers/STM32H5xx_HAL_Driver/Src/stm32h5xx_hal_rtc_ex.c ****     sTimeStampDate->WeekDay = (uint8_t)RTC_Bcd2ToByte(sTimeStampDate->WeekDay);
 485              		.loc 1 455 5 is_stmt 1 view .LVU158
 455:Drivers/STM32H5xx_HAL_Driver/Src/stm32h5xx_hal_rtc_ex.c ****     sTimeStampDate->WeekDay = (uint8_t)RTC_Bcd2ToByte(sTimeStampDate->WeekDay);
 486              		.loc 1 455 37 is_stmt 0 view .LVU159
 487 0070 A878     		ldrb	r0, [r5, #2]	@ zero_extendqisi2
 488 0072 FFF7FEFF 		bl	RTC_Bcd2ToByte
 489              	.LVL36:
 455:Drivers/STM32H5xx_HAL_Driver/Src/stm32h5xx_hal_rtc_ex.c ****     sTimeStampDate->WeekDay = (uint8_t)RTC_Bcd2ToByte(sTimeStampDate->WeekDay);
 490              		.loc 1 455 26 discriminator 1 view .LVU160
 491 0076 A870     		strb	r0, [r5, #2]
 456:Drivers/STM32H5xx_HAL_Driver/Src/stm32h5xx_hal_rtc_ex.c ****   }
 492              		.loc 1 456 5 is_stmt 1 view .LVU161
 456:Drivers/STM32H5xx_HAL_Driver/Src/stm32h5xx_hal_rtc_ex.c ****   }
 493              		.loc 1 456 40 is_stmt 0 view .LVU162
 494 0078 2878     		ldrb	r0, [r5]	@ zero_extendqisi2
 495 007a FFF7FEFF 		bl	RTC_Bcd2ToByte
ARM GAS  C:\Users\DELL\AppData\Local\Temp\ccMtHSyM.s 			page 18


 496              	.LVL37:
 456:Drivers/STM32H5xx_HAL_Driver/Src/stm32h5xx_hal_rtc_ex.c ****   }
 497              		.loc 1 456 29 discriminator 1 view .LVU163
 498 007e 2870     		strb	r0, [r5]
 499 0080 E1E7     		b	.L27
 500              	.L31:
 501 0082 00BF     		.align	2
 502              	.L30:
 503 0084 00780044 		.word	1140881408
 504              		.cfi_endproc
 505              	.LFE302:
 507              		.section	.text.HAL_RTCEx_TimeStampEventCallback,"ax",%progbits
 508              		.align	1
 509              		.weak	HAL_RTCEx_TimeStampEventCallback
 510              		.syntax unified
 511              		.thumb
 512              		.thumb_func
 514              	HAL_RTCEx_TimeStampEventCallback:
 515              	.LVL38:
 516              	.LFB304:
 464:Drivers/STM32H5xx_HAL_Driver/Src/stm32h5xx_hal_rtc_ex.c **** 
 465:Drivers/STM32H5xx_HAL_Driver/Src/stm32h5xx_hal_rtc_ex.c **** /**
 466:Drivers/STM32H5xx_HAL_Driver/Src/stm32h5xx_hal_rtc_ex.c ****   * @brief  Handle TimeStamp interrupt request.
 467:Drivers/STM32H5xx_HAL_Driver/Src/stm32h5xx_hal_rtc_ex.c ****   * @param  hrtc RTC handle
 468:Drivers/STM32H5xx_HAL_Driver/Src/stm32h5xx_hal_rtc_ex.c ****   * @retval None
 469:Drivers/STM32H5xx_HAL_Driver/Src/stm32h5xx_hal_rtc_ex.c ****   */
 470:Drivers/STM32H5xx_HAL_Driver/Src/stm32h5xx_hal_rtc_ex.c **** void HAL_RTCEx_TimeStampIRQHandler(RTC_HandleTypeDef *hrtc)
 471:Drivers/STM32H5xx_HAL_Driver/Src/stm32h5xx_hal_rtc_ex.c **** {
 472:Drivers/STM32H5xx_HAL_Driver/Src/stm32h5xx_hal_rtc_ex.c ****   /* Get the pending status of the TimeStamp Interrupt */
 473:Drivers/STM32H5xx_HAL_Driver/Src/stm32h5xx_hal_rtc_ex.c **** #if defined (__ARM_FEATURE_CMSE) && (__ARM_FEATURE_CMSE == 3U)
 474:Drivers/STM32H5xx_HAL_Driver/Src/stm32h5xx_hal_rtc_ex.c ****   if (READ_BIT(RTC->SMISR, RTC_SMISR_TSMF) != 0U)
 475:Drivers/STM32H5xx_HAL_Driver/Src/stm32h5xx_hal_rtc_ex.c **** #else
 476:Drivers/STM32H5xx_HAL_Driver/Src/stm32h5xx_hal_rtc_ex.c ****   if (READ_BIT(RTC->MISR, RTC_MISR_TSMF) != 0U)
 477:Drivers/STM32H5xx_HAL_Driver/Src/stm32h5xx_hal_rtc_ex.c **** #endif /* #if defined (__ARM_FEATURE_CMSE) && (__ARM_FEATURE_CMSE == 3U) */
 478:Drivers/STM32H5xx_HAL_Driver/Src/stm32h5xx_hal_rtc_ex.c ****   {
 479:Drivers/STM32H5xx_HAL_Driver/Src/stm32h5xx_hal_rtc_ex.c **** #if (USE_HAL_RTC_REGISTER_CALLBACKS == 1)
 480:Drivers/STM32H5xx_HAL_Driver/Src/stm32h5xx_hal_rtc_ex.c ****     /* Call TimeStampEvent registered Callback */
 481:Drivers/STM32H5xx_HAL_Driver/Src/stm32h5xx_hal_rtc_ex.c ****     hrtc->TimeStampEventCallback(hrtc);
 482:Drivers/STM32H5xx_HAL_Driver/Src/stm32h5xx_hal_rtc_ex.c **** #else
 483:Drivers/STM32H5xx_HAL_Driver/Src/stm32h5xx_hal_rtc_ex.c ****     HAL_RTCEx_TimeStampEventCallback(hrtc);
 484:Drivers/STM32H5xx_HAL_Driver/Src/stm32h5xx_hal_rtc_ex.c **** #endif /* USE_HAL_RTC_REGISTER_CALLBACKS */
 485:Drivers/STM32H5xx_HAL_Driver/Src/stm32h5xx_hal_rtc_ex.c **** 
 486:Drivers/STM32H5xx_HAL_Driver/Src/stm32h5xx_hal_rtc_ex.c ****     /* Clearing flags after the Callback because the content of RTC_TSTR and RTC_TSDR are cleared w
 487:Drivers/STM32H5xx_HAL_Driver/Src/stm32h5xx_hal_rtc_ex.c ****        TSF bit is reset.*/
 488:Drivers/STM32H5xx_HAL_Driver/Src/stm32h5xx_hal_rtc_ex.c ****     WRITE_REG(RTC->SCR, RTC_SCR_CITSF | RTC_SCR_CTSF);
 489:Drivers/STM32H5xx_HAL_Driver/Src/stm32h5xx_hal_rtc_ex.c ****   }
 490:Drivers/STM32H5xx_HAL_Driver/Src/stm32h5xx_hal_rtc_ex.c **** 
 491:Drivers/STM32H5xx_HAL_Driver/Src/stm32h5xx_hal_rtc_ex.c ****   /* Change RTC state */
 492:Drivers/STM32H5xx_HAL_Driver/Src/stm32h5xx_hal_rtc_ex.c ****   hrtc->State = HAL_RTC_STATE_READY;
 493:Drivers/STM32H5xx_HAL_Driver/Src/stm32h5xx_hal_rtc_ex.c **** }
 494:Drivers/STM32H5xx_HAL_Driver/Src/stm32h5xx_hal_rtc_ex.c **** 
 495:Drivers/STM32H5xx_HAL_Driver/Src/stm32h5xx_hal_rtc_ex.c **** /**
 496:Drivers/STM32H5xx_HAL_Driver/Src/stm32h5xx_hal_rtc_ex.c ****   * @brief  TimeStamp callback.
 497:Drivers/STM32H5xx_HAL_Driver/Src/stm32h5xx_hal_rtc_ex.c ****   * @param  hrtc RTC handle
 498:Drivers/STM32H5xx_HAL_Driver/Src/stm32h5xx_hal_rtc_ex.c ****   * @retval None
 499:Drivers/STM32H5xx_HAL_Driver/Src/stm32h5xx_hal_rtc_ex.c ****   */
 500:Drivers/STM32H5xx_HAL_Driver/Src/stm32h5xx_hal_rtc_ex.c **** __weak void HAL_RTCEx_TimeStampEventCallback(RTC_HandleTypeDef *hrtc)
ARM GAS  C:\Users\DELL\AppData\Local\Temp\ccMtHSyM.s 			page 19


 501:Drivers/STM32H5xx_HAL_Driver/Src/stm32h5xx_hal_rtc_ex.c **** {
 517              		.loc 1 501 1 is_stmt 1 view -0
 518              		.cfi_startproc
 519              		@ args = 0, pretend = 0, frame = 0
 520              		@ frame_needed = 0, uses_anonymous_args = 0
 521              		@ link register save eliminated.
 502:Drivers/STM32H5xx_HAL_Driver/Src/stm32h5xx_hal_rtc_ex.c ****   /* Prevent unused argument(s) compilation warning */
 503:Drivers/STM32H5xx_HAL_Driver/Src/stm32h5xx_hal_rtc_ex.c ****   UNUSED(hrtc);
 522              		.loc 1 503 3 view .LVU165
 504:Drivers/STM32H5xx_HAL_Driver/Src/stm32h5xx_hal_rtc_ex.c **** 
 505:Drivers/STM32H5xx_HAL_Driver/Src/stm32h5xx_hal_rtc_ex.c ****   /* NOTE : This function should not be modified, when the callback is needed,
 506:Drivers/STM32H5xx_HAL_Driver/Src/stm32h5xx_hal_rtc_ex.c ****             the HAL_RTCEx_TimeStampEventCallback could be implemented in the user file
 507:Drivers/STM32H5xx_HAL_Driver/Src/stm32h5xx_hal_rtc_ex.c ****   */
 508:Drivers/STM32H5xx_HAL_Driver/Src/stm32h5xx_hal_rtc_ex.c **** }
 523              		.loc 1 508 1 is_stmt 0 view .LVU166
 524 0000 7047     		bx	lr
 525              		.cfi_endproc
 526              	.LFE304:
 528              		.section	.text.HAL_RTCEx_TimeStampIRQHandler,"ax",%progbits
 529              		.align	1
 530              		.global	HAL_RTCEx_TimeStampIRQHandler
 531              		.syntax unified
 532              		.thumb
 533              		.thumb_func
 535              	HAL_RTCEx_TimeStampIRQHandler:
 536              	.LVL39:
 537              	.LFB303:
 471:Drivers/STM32H5xx_HAL_Driver/Src/stm32h5xx_hal_rtc_ex.c ****   /* Get the pending status of the TimeStamp Interrupt */
 538              		.loc 1 471 1 is_stmt 1 view -0
 539              		.cfi_startproc
 540              		@ args = 0, pretend = 0, frame = 0
 541              		@ frame_needed = 0, uses_anonymous_args = 0
 471:Drivers/STM32H5xx_HAL_Driver/Src/stm32h5xx_hal_rtc_ex.c ****   /* Get the pending status of the TimeStamp Interrupt */
 542              		.loc 1 471 1 is_stmt 0 view .LVU168
 543 0000 10B5     		push	{r4, lr}
 544              	.LCFI1:
 545              		.cfi_def_cfa_offset 8
 546              		.cfi_offset 4, -8
 547              		.cfi_offset 14, -4
 548 0002 0446     		mov	r4, r0
 476:Drivers/STM32H5xx_HAL_Driver/Src/stm32h5xx_hal_rtc_ex.c **** #endif /* #if defined (__ARM_FEATURE_CMSE) && (__ARM_FEATURE_CMSE == 3U) */
 549              		.loc 1 476 3 is_stmt 1 view .LVU169
 476:Drivers/STM32H5xx_HAL_Driver/Src/stm32h5xx_hal_rtc_ex.c **** #endif /* #if defined (__ARM_FEATURE_CMSE) && (__ARM_FEATURE_CMSE == 3U) */
 550              		.loc 1 476 7 is_stmt 0 view .LVU170
 551 0004 074B     		ldr	r3, .L37
 552 0006 5B6D     		ldr	r3, [r3, #84]
 476:Drivers/STM32H5xx_HAL_Driver/Src/stm32h5xx_hal_rtc_ex.c **** #endif /* #if defined (__ARM_FEATURE_CMSE) && (__ARM_FEATURE_CMSE == 3U) */
 553              		.loc 1 476 6 view .LVU171
 554 0008 13F0080F 		tst	r3, #8
 555 000c 03D1     		bne	.L36
 556              	.LVL40:
 557              	.L34:
 492:Drivers/STM32H5xx_HAL_Driver/Src/stm32h5xx_hal_rtc_ex.c **** }
 558              		.loc 1 492 3 is_stmt 1 view .LVU172
 492:Drivers/STM32H5xx_HAL_Driver/Src/stm32h5xx_hal_rtc_ex.c **** }
 559              		.loc 1 492 15 is_stmt 0 view .LVU173
 560 000e 0123     		movs	r3, #1
ARM GAS  C:\Users\DELL\AppData\Local\Temp\ccMtHSyM.s 			page 20


 561 0010 84F82D30 		strb	r3, [r4, #45]
 493:Drivers/STM32H5xx_HAL_Driver/Src/stm32h5xx_hal_rtc_ex.c **** 
 562              		.loc 1 493 1 view .LVU174
 563 0014 10BD     		pop	{r4, pc}
 564              	.LVL41:
 565              	.L36:
 483:Drivers/STM32H5xx_HAL_Driver/Src/stm32h5xx_hal_rtc_ex.c **** #endif /* USE_HAL_RTC_REGISTER_CALLBACKS */
 566              		.loc 1 483 5 is_stmt 1 view .LVU175
 567 0016 FFF7FEFF 		bl	HAL_RTCEx_TimeStampEventCallback
 568              	.LVL42:
 488:Drivers/STM32H5xx_HAL_Driver/Src/stm32h5xx_hal_rtc_ex.c ****   }
 569              		.loc 1 488 5 view .LVU176
 570 001a 024B     		ldr	r3, .L37
 571 001c 2822     		movs	r2, #40
 572 001e DA65     		str	r2, [r3, #92]
 573 0020 F5E7     		b	.L34
 574              	.L38:
 575 0022 00BF     		.align	2
 576              	.L37:
 577 0024 00780044 		.word	1140881408
 578              		.cfi_endproc
 579              	.LFE303:
 581              		.section	.text.HAL_RTCEx_PollForTimeStampEvent,"ax",%progbits
 582              		.align	1
 583              		.global	HAL_RTCEx_PollForTimeStampEvent
 584              		.syntax unified
 585              		.thumb
 586              		.thumb_func
 588              	HAL_RTCEx_PollForTimeStampEvent:
 589              	.LVL43:
 590              	.LFB305:
 509:Drivers/STM32H5xx_HAL_Driver/Src/stm32h5xx_hal_rtc_ex.c **** 
 510:Drivers/STM32H5xx_HAL_Driver/Src/stm32h5xx_hal_rtc_ex.c **** /**
 511:Drivers/STM32H5xx_HAL_Driver/Src/stm32h5xx_hal_rtc_ex.c ****   * @brief  Handle TimeStamp polling request.
 512:Drivers/STM32H5xx_HAL_Driver/Src/stm32h5xx_hal_rtc_ex.c ****   * @param  hrtc RTC handle
 513:Drivers/STM32H5xx_HAL_Driver/Src/stm32h5xx_hal_rtc_ex.c ****   * @param  Timeout Timeout duration
 514:Drivers/STM32H5xx_HAL_Driver/Src/stm32h5xx_hal_rtc_ex.c ****   * @retval HAL status
 515:Drivers/STM32H5xx_HAL_Driver/Src/stm32h5xx_hal_rtc_ex.c ****   */
 516:Drivers/STM32H5xx_HAL_Driver/Src/stm32h5xx_hal_rtc_ex.c **** HAL_StatusTypeDef HAL_RTCEx_PollForTimeStampEvent(const RTC_HandleTypeDef *hrtc, uint32_t Timeout)
 517:Drivers/STM32H5xx_HAL_Driver/Src/stm32h5xx_hal_rtc_ex.c **** {
 591              		.loc 1 517 1 view -0
 592              		.cfi_startproc
 593              		@ args = 0, pretend = 0, frame = 0
 594              		@ frame_needed = 0, uses_anonymous_args = 0
 595              		.loc 1 517 1 is_stmt 0 view .LVU178
 596 0000 38B5     		push	{r3, r4, r5, lr}
 597              	.LCFI2:
 598              		.cfi_def_cfa_offset 16
 599              		.cfi_offset 3, -16
 600              		.cfi_offset 4, -12
 601              		.cfi_offset 5, -8
 602              		.cfi_offset 14, -4
 603 0002 0C46     		mov	r4, r1
 518:Drivers/STM32H5xx_HAL_Driver/Src/stm32h5xx_hal_rtc_ex.c ****   /* Prevent unused argument(s) compilation warning */
 519:Drivers/STM32H5xx_HAL_Driver/Src/stm32h5xx_hal_rtc_ex.c ****   UNUSED(hrtc);
 604              		.loc 1 519 3 is_stmt 1 view .LVU179
 520:Drivers/STM32H5xx_HAL_Driver/Src/stm32h5xx_hal_rtc_ex.c **** 
ARM GAS  C:\Users\DELL\AppData\Local\Temp\ccMtHSyM.s 			page 21


 521:Drivers/STM32H5xx_HAL_Driver/Src/stm32h5xx_hal_rtc_ex.c ****   uint32_t tickstart = HAL_GetTick();
 605              		.loc 1 521 3 view .LVU180
 606              		.loc 1 521 24 is_stmt 0 view .LVU181
 607 0004 FFF7FEFF 		bl	HAL_GetTick
 608              	.LVL44:
 609              		.loc 1 521 24 view .LVU182
 610 0008 0546     		mov	r5, r0
 611              	.LVL45:
 522:Drivers/STM32H5xx_HAL_Driver/Src/stm32h5xx_hal_rtc_ex.c **** 
 523:Drivers/STM32H5xx_HAL_Driver/Src/stm32h5xx_hal_rtc_ex.c ****   while (READ_BIT(RTC->SR, RTC_SR_TSF) == 0U)
 612              		.loc 1 523 3 is_stmt 1 view .LVU183
 613              	.L43:
 614              		.loc 1 523 40 view .LVU184
 615              		.loc 1 523 10 is_stmt 0 view .LVU185
 616 000a 124B     		ldr	r3, .L50
 617 000c 1B6D     		ldr	r3, [r3, #80]
 618              		.loc 1 523 40 view .LVU186
 619 000e 13F0080F 		tst	r3, #8
 620 0012 1AD1     		bne	.L48
 524:Drivers/STM32H5xx_HAL_Driver/Src/stm32h5xx_hal_rtc_ex.c ****   {
 525:Drivers/STM32H5xx_HAL_Driver/Src/stm32h5xx_hal_rtc_ex.c ****     if (READ_BIT(RTC->SR, RTC_SR_TSOVF) != 0U)
 621              		.loc 1 525 5 is_stmt 1 view .LVU187
 622              		.loc 1 525 9 is_stmt 0 view .LVU188
 623 0014 0F4B     		ldr	r3, .L50
 624 0016 1B6D     		ldr	r3, [r3, #80]
 625              		.loc 1 525 8 view .LVU189
 626 0018 13F0100F 		tst	r3, #16
 627 001c 10D1     		bne	.L49
 526:Drivers/STM32H5xx_HAL_Driver/Src/stm32h5xx_hal_rtc_ex.c ****     {
 527:Drivers/STM32H5xx_HAL_Driver/Src/stm32h5xx_hal_rtc_ex.c ****       /* Clear the TIMESTAMP OverRun Flag */
 528:Drivers/STM32H5xx_HAL_Driver/Src/stm32h5xx_hal_rtc_ex.c ****       WRITE_REG(RTC->SCR, RTC_SCR_CTSOVF);
 529:Drivers/STM32H5xx_HAL_Driver/Src/stm32h5xx_hal_rtc_ex.c **** 
 530:Drivers/STM32H5xx_HAL_Driver/Src/stm32h5xx_hal_rtc_ex.c ****       return HAL_ERROR;
 531:Drivers/STM32H5xx_HAL_Driver/Src/stm32h5xx_hal_rtc_ex.c ****     }
 532:Drivers/STM32H5xx_HAL_Driver/Src/stm32h5xx_hal_rtc_ex.c **** 
 533:Drivers/STM32H5xx_HAL_Driver/Src/stm32h5xx_hal_rtc_ex.c ****     if (Timeout != HAL_MAX_DELAY)
 628              		.loc 1 533 5 is_stmt 1 view .LVU190
 629              		.loc 1 533 8 is_stmt 0 view .LVU191
 630 001e B4F1FF3F 		cmp	r4, #-1
 631 0022 F2D0     		beq	.L43
 534:Drivers/STM32H5xx_HAL_Driver/Src/stm32h5xx_hal_rtc_ex.c ****     {
 535:Drivers/STM32H5xx_HAL_Driver/Src/stm32h5xx_hal_rtc_ex.c ****       if (((HAL_GetTick() - tickstart) > Timeout) || (Timeout == 0U))
 632              		.loc 1 535 7 is_stmt 1 view .LVU192
 633              		.loc 1 535 13 is_stmt 0 view .LVU193
 634 0024 FFF7FEFF 		bl	HAL_GetTick
 635              	.LVL46:
 636              		.loc 1 535 27 discriminator 1 view .LVU194
 637 0028 401B     		subs	r0, r0, r5
 638              		.loc 1 535 10 discriminator 1 view .LVU195
 639 002a A042     		cmp	r0, r4
 640 002c 01D8     		bhi	.L44
 641              		.loc 1 535 51 discriminator 1 view .LVU196
 642 002e 002C     		cmp	r4, #0
 643 0030 EBD1     		bne	.L43
 644              	.L44:
 536:Drivers/STM32H5xx_HAL_Driver/Src/stm32h5xx_hal_rtc_ex.c ****       {
 537:Drivers/STM32H5xx_HAL_Driver/Src/stm32h5xx_hal_rtc_ex.c ****         /* New check to avoid false timeout detection in case of preemption */
ARM GAS  C:\Users\DELL\AppData\Local\Temp\ccMtHSyM.s 			page 22


 538:Drivers/STM32H5xx_HAL_Driver/Src/stm32h5xx_hal_rtc_ex.c ****         if (READ_BIT(RTC->SR, RTC_SR_TSF) == 0U)
 645              		.loc 1 538 9 is_stmt 1 view .LVU197
 646              		.loc 1 538 13 is_stmt 0 view .LVU198
 647 0032 084B     		ldr	r3, .L50
 648 0034 1B6D     		ldr	r3, [r3, #80]
 649              		.loc 1 538 12 view .LVU199
 650 0036 13F0080F 		tst	r3, #8
 651 003a 08D0     		beq	.L46
 539:Drivers/STM32H5xx_HAL_Driver/Src/stm32h5xx_hal_rtc_ex.c ****         {
 540:Drivers/STM32H5xx_HAL_Driver/Src/stm32h5xx_hal_rtc_ex.c ****           return HAL_TIMEOUT;
 541:Drivers/STM32H5xx_HAL_Driver/Src/stm32h5xx_hal_rtc_ex.c ****         }
 542:Drivers/STM32H5xx_HAL_Driver/Src/stm32h5xx_hal_rtc_ex.c ****         else
 543:Drivers/STM32H5xx_HAL_Driver/Src/stm32h5xx_hal_rtc_ex.c ****         {
 544:Drivers/STM32H5xx_HAL_Driver/Src/stm32h5xx_hal_rtc_ex.c ****           break;
 545:Drivers/STM32H5xx_HAL_Driver/Src/stm32h5xx_hal_rtc_ex.c ****         }
 546:Drivers/STM32H5xx_HAL_Driver/Src/stm32h5xx_hal_rtc_ex.c ****       }
 547:Drivers/STM32H5xx_HAL_Driver/Src/stm32h5xx_hal_rtc_ex.c ****     }
 548:Drivers/STM32H5xx_HAL_Driver/Src/stm32h5xx_hal_rtc_ex.c ****   }
 549:Drivers/STM32H5xx_HAL_Driver/Src/stm32h5xx_hal_rtc_ex.c **** 
 550:Drivers/STM32H5xx_HAL_Driver/Src/stm32h5xx_hal_rtc_ex.c ****   return HAL_OK;
 652              		.loc 1 550 10 view .LVU200
 653 003c 0020     		movs	r0, #0
 654 003e 05E0     		b	.L42
 655              	.L49:
 528:Drivers/STM32H5xx_HAL_Driver/Src/stm32h5xx_hal_rtc_ex.c **** 
 656              		.loc 1 528 7 is_stmt 1 view .LVU201
 657 0040 044B     		ldr	r3, .L50
 658 0042 1022     		movs	r2, #16
 659 0044 DA65     		str	r2, [r3, #92]
 530:Drivers/STM32H5xx_HAL_Driver/Src/stm32h5xx_hal_rtc_ex.c ****     }
 660              		.loc 1 530 7 view .LVU202
 530:Drivers/STM32H5xx_HAL_Driver/Src/stm32h5xx_hal_rtc_ex.c ****     }
 661              		.loc 1 530 14 is_stmt 0 view .LVU203
 662 0046 0120     		movs	r0, #1
 663 0048 00E0     		b	.L42
 664              	.L48:
 665              		.loc 1 550 10 view .LVU204
 666 004a 0020     		movs	r0, #0
 667              	.L42:
 551:Drivers/STM32H5xx_HAL_Driver/Src/stm32h5xx_hal_rtc_ex.c **** }
 668              		.loc 1 551 1 view .LVU205
 669 004c 38BD     		pop	{r3, r4, r5, pc}
 670              	.LVL47:
 671              	.L46:
 540:Drivers/STM32H5xx_HAL_Driver/Src/stm32h5xx_hal_rtc_ex.c ****         }
 672              		.loc 1 540 18 view .LVU206
 673 004e 0320     		movs	r0, #3
 674 0050 FCE7     		b	.L42
 675              	.L51:
 676 0052 00BF     		.align	2
 677              	.L50:
 678 0054 00780044 		.word	1140881408
 679              		.cfi_endproc
 680              	.LFE305:
 682              		.section	.text.HAL_RTCEx_SetWakeUpTimer,"ax",%progbits
 683              		.align	1
 684              		.global	HAL_RTCEx_SetWakeUpTimer
ARM GAS  C:\Users\DELL\AppData\Local\Temp\ccMtHSyM.s 			page 23


 685              		.syntax unified
 686              		.thumb
 687              		.thumb_func
 689              	HAL_RTCEx_SetWakeUpTimer:
 690              	.LVL48:
 691              	.LFB306:
 552:Drivers/STM32H5xx_HAL_Driver/Src/stm32h5xx_hal_rtc_ex.c **** 
 553:Drivers/STM32H5xx_HAL_Driver/Src/stm32h5xx_hal_rtc_ex.c **** /**
 554:Drivers/STM32H5xx_HAL_Driver/Src/stm32h5xx_hal_rtc_ex.c ****   * @}
 555:Drivers/STM32H5xx_HAL_Driver/Src/stm32h5xx_hal_rtc_ex.c ****   */
 556:Drivers/STM32H5xx_HAL_Driver/Src/stm32h5xx_hal_rtc_ex.c **** 
 557:Drivers/STM32H5xx_HAL_Driver/Src/stm32h5xx_hal_rtc_ex.c **** /** @addtogroup RTCEx_Exported_Functions_Group2
 558:Drivers/STM32H5xx_HAL_Driver/Src/stm32h5xx_hal_rtc_ex.c ****   * @brief    RTC Wake-up functions
 559:Drivers/STM32H5xx_HAL_Driver/Src/stm32h5xx_hal_rtc_ex.c ****   *
 560:Drivers/STM32H5xx_HAL_Driver/Src/stm32h5xx_hal_rtc_ex.c **** @verbatim
 561:Drivers/STM32H5xx_HAL_Driver/Src/stm32h5xx_hal_rtc_ex.c ****  ===============================================================================
 562:Drivers/STM32H5xx_HAL_Driver/Src/stm32h5xx_hal_rtc_ex.c ****                         ##### RTC Wake-up functions #####
 563:Drivers/STM32H5xx_HAL_Driver/Src/stm32h5xx_hal_rtc_ex.c ****  ===============================================================================
 564:Drivers/STM32H5xx_HAL_Driver/Src/stm32h5xx_hal_rtc_ex.c **** 
 565:Drivers/STM32H5xx_HAL_Driver/Src/stm32h5xx_hal_rtc_ex.c ****  [..] This section provides functions allowing to configure Wake-up feature
 566:Drivers/STM32H5xx_HAL_Driver/Src/stm32h5xx_hal_rtc_ex.c **** 
 567:Drivers/STM32H5xx_HAL_Driver/Src/stm32h5xx_hal_rtc_ex.c **** @endverbatim
 568:Drivers/STM32H5xx_HAL_Driver/Src/stm32h5xx_hal_rtc_ex.c ****   * @{
 569:Drivers/STM32H5xx_HAL_Driver/Src/stm32h5xx_hal_rtc_ex.c ****   */
 570:Drivers/STM32H5xx_HAL_Driver/Src/stm32h5xx_hal_rtc_ex.c **** 
 571:Drivers/STM32H5xx_HAL_Driver/Src/stm32h5xx_hal_rtc_ex.c **** /**
 572:Drivers/STM32H5xx_HAL_Driver/Src/stm32h5xx_hal_rtc_ex.c ****   * @brief  Set wake up timer.
 573:Drivers/STM32H5xx_HAL_Driver/Src/stm32h5xx_hal_rtc_ex.c ****   * @param  hrtc RTC handle
 574:Drivers/STM32H5xx_HAL_Driver/Src/stm32h5xx_hal_rtc_ex.c ****   * @param  WakeUpCounter Wake up counter
 575:Drivers/STM32H5xx_HAL_Driver/Src/stm32h5xx_hal_rtc_ex.c ****   * @param  WakeUpClock Wake up clock
 576:Drivers/STM32H5xx_HAL_Driver/Src/stm32h5xx_hal_rtc_ex.c ****   * @retval HAL status
 577:Drivers/STM32H5xx_HAL_Driver/Src/stm32h5xx_hal_rtc_ex.c ****   */
 578:Drivers/STM32H5xx_HAL_Driver/Src/stm32h5xx_hal_rtc_ex.c **** HAL_StatusTypeDef HAL_RTCEx_SetWakeUpTimer(RTC_HandleTypeDef *hrtc, uint32_t WakeUpCounter, uint32_
 579:Drivers/STM32H5xx_HAL_Driver/Src/stm32h5xx_hal_rtc_ex.c **** {
 692              		.loc 1 579 1 is_stmt 1 view -0
 693              		.cfi_startproc
 694              		@ args = 0, pretend = 0, frame = 0
 695              		@ frame_needed = 0, uses_anonymous_args = 0
 696              		.loc 1 579 1 is_stmt 0 view .LVU208
 697 0000 F8B5     		push	{r3, r4, r5, r6, r7, lr}
 698              	.LCFI3:
 699              		.cfi_def_cfa_offset 24
 700              		.cfi_offset 3, -24
 701              		.cfi_offset 4, -20
 702              		.cfi_offset 5, -16
 703              		.cfi_offset 6, -12
 704              		.cfi_offset 7, -8
 705              		.cfi_offset 14, -4
 580:Drivers/STM32H5xx_HAL_Driver/Src/stm32h5xx_hal_rtc_ex.c ****   uint32_t tickstart;
 706              		.loc 1 580 3 is_stmt 1 view .LVU209
 581:Drivers/STM32H5xx_HAL_Driver/Src/stm32h5xx_hal_rtc_ex.c **** 
 582:Drivers/STM32H5xx_HAL_Driver/Src/stm32h5xx_hal_rtc_ex.c ****   /* Check the parameters */
 583:Drivers/STM32H5xx_HAL_Driver/Src/stm32h5xx_hal_rtc_ex.c ****   assert_param(IS_RTC_WAKEUP_CLOCK(WakeUpClock));
 707              		.loc 1 583 3 view .LVU210
 584:Drivers/STM32H5xx_HAL_Driver/Src/stm32h5xx_hal_rtc_ex.c ****   assert_param(IS_RTC_WAKEUP_COUNTER(WakeUpCounter));
 708              		.loc 1 584 3 view .LVU211
 585:Drivers/STM32H5xx_HAL_Driver/Src/stm32h5xx_hal_rtc_ex.c **** 
ARM GAS  C:\Users\DELL\AppData\Local\Temp\ccMtHSyM.s 			page 24


 586:Drivers/STM32H5xx_HAL_Driver/Src/stm32h5xx_hal_rtc_ex.c ****   /* Process Locked */
 587:Drivers/STM32H5xx_HAL_Driver/Src/stm32h5xx_hal_rtc_ex.c ****   __HAL_LOCK(hrtc);
 709              		.loc 1 587 3 view .LVU212
 710              		.loc 1 587 3 view .LVU213
 711 0002 90F82C30 		ldrb	r3, [r0, #44]	@ zero_extendqisi2
 712 0006 012B     		cmp	r3, #1
 713 0008 3DD0     		beq	.L57
 714 000a 0446     		mov	r4, r0
 715 000c 0D46     		mov	r5, r1
 716 000e 1646     		mov	r6, r2
 717              		.loc 1 587 3 discriminator 2 view .LVU214
 718 0010 0123     		movs	r3, #1
 719 0012 80F82C30 		strb	r3, [r0, #44]
 720              		.loc 1 587 3 view .LVU215
 588:Drivers/STM32H5xx_HAL_Driver/Src/stm32h5xx_hal_rtc_ex.c **** 
 589:Drivers/STM32H5xx_HAL_Driver/Src/stm32h5xx_hal_rtc_ex.c ****   /* Change RTC state */
 590:Drivers/STM32H5xx_HAL_Driver/Src/stm32h5xx_hal_rtc_ex.c ****   hrtc->State = HAL_RTC_STATE_BUSY;
 721              		.loc 1 590 3 view .LVU216
 722              		.loc 1 590 15 is_stmt 0 view .LVU217
 723 0016 0223     		movs	r3, #2
 724 0018 80F82D30 		strb	r3, [r0, #45]
 591:Drivers/STM32H5xx_HAL_Driver/Src/stm32h5xx_hal_rtc_ex.c **** 
 592:Drivers/STM32H5xx_HAL_Driver/Src/stm32h5xx_hal_rtc_ex.c ****   /* Clear WUTE in RTC_CR to disable the wakeup timer */
 593:Drivers/STM32H5xx_HAL_Driver/Src/stm32h5xx_hal_rtc_ex.c ****   CLEAR_BIT(RTC->CR, RTC_CR_WUTE);
 725              		.loc 1 593 3 is_stmt 1 view .LVU218
 726 001c 1B4B     		ldr	r3, .L60
 727 001e 9A69     		ldr	r2, [r3, #24]
 728              	.LVL49:
 729              		.loc 1 593 3 is_stmt 0 view .LVU219
 730 0020 22F48062 		bic	r2, r2, #1024
 731 0024 9A61     		str	r2, [r3, #24]
 594:Drivers/STM32H5xx_HAL_Driver/Src/stm32h5xx_hal_rtc_ex.c **** 
 595:Drivers/STM32H5xx_HAL_Driver/Src/stm32h5xx_hal_rtc_ex.c ****   /* Poll WUTWF until it is set in RTC_ICSR to make sure the access to wakeup autoreload
 596:Drivers/STM32H5xx_HAL_Driver/Src/stm32h5xx_hal_rtc_ex.c ****      counter and to WUCKSEL[2:0] bits is allowed. This step must be skipped in
 597:Drivers/STM32H5xx_HAL_Driver/Src/stm32h5xx_hal_rtc_ex.c ****      calendar initialization mode. */
 598:Drivers/STM32H5xx_HAL_Driver/Src/stm32h5xx_hal_rtc_ex.c ****   if (READ_BIT(RTC->ICSR, RTC_ICSR_INITF) == 0U)
 732              		.loc 1 598 3 is_stmt 1 view .LVU220
 733              		.loc 1 598 7 is_stmt 0 view .LVU221
 734 0026 DB68     		ldr	r3, [r3, #12]
 735              		.loc 1 598 6 view .LVU222
 736 0028 13F0400F 		tst	r3, #64
 737 002c 11D0     		beq	.L59
 738              	.LVL50:
 739              	.L54:
 599:Drivers/STM32H5xx_HAL_Driver/Src/stm32h5xx_hal_rtc_ex.c ****   {
 600:Drivers/STM32H5xx_HAL_Driver/Src/stm32h5xx_hal_rtc_ex.c ****     tickstart = HAL_GetTick();
 601:Drivers/STM32H5xx_HAL_Driver/Src/stm32h5xx_hal_rtc_ex.c **** 
 602:Drivers/STM32H5xx_HAL_Driver/Src/stm32h5xx_hal_rtc_ex.c ****     while (READ_BIT(RTC->ICSR, RTC_ICSR_WUTWF) == 0U)
 603:Drivers/STM32H5xx_HAL_Driver/Src/stm32h5xx_hal_rtc_ex.c ****     {
 604:Drivers/STM32H5xx_HAL_Driver/Src/stm32h5xx_hal_rtc_ex.c ****       if ((HAL_GetTick() - tickstart) > RTC_TIMEOUT_VALUE)
 605:Drivers/STM32H5xx_HAL_Driver/Src/stm32h5xx_hal_rtc_ex.c ****       {
 606:Drivers/STM32H5xx_HAL_Driver/Src/stm32h5xx_hal_rtc_ex.c ****         /* New check to avoid false timeout detection in case of preemption */
 607:Drivers/STM32H5xx_HAL_Driver/Src/stm32h5xx_hal_rtc_ex.c ****         if (READ_BIT(RTC->ICSR, RTC_ICSR_WUTWF) == 0U)
 608:Drivers/STM32H5xx_HAL_Driver/Src/stm32h5xx_hal_rtc_ex.c ****         {
 609:Drivers/STM32H5xx_HAL_Driver/Src/stm32h5xx_hal_rtc_ex.c ****           /* Change RTC state */
 610:Drivers/STM32H5xx_HAL_Driver/Src/stm32h5xx_hal_rtc_ex.c ****           hrtc->State = HAL_RTC_STATE_TIMEOUT;
 611:Drivers/STM32H5xx_HAL_Driver/Src/stm32h5xx_hal_rtc_ex.c **** 
ARM GAS  C:\Users\DELL\AppData\Local\Temp\ccMtHSyM.s 			page 25


 612:Drivers/STM32H5xx_HAL_Driver/Src/stm32h5xx_hal_rtc_ex.c ****           /* Process Unlocked */
 613:Drivers/STM32H5xx_HAL_Driver/Src/stm32h5xx_hal_rtc_ex.c ****           __HAL_UNLOCK(hrtc);
 614:Drivers/STM32H5xx_HAL_Driver/Src/stm32h5xx_hal_rtc_ex.c **** 
 615:Drivers/STM32H5xx_HAL_Driver/Src/stm32h5xx_hal_rtc_ex.c ****           return HAL_TIMEOUT;
 616:Drivers/STM32H5xx_HAL_Driver/Src/stm32h5xx_hal_rtc_ex.c ****         }
 617:Drivers/STM32H5xx_HAL_Driver/Src/stm32h5xx_hal_rtc_ex.c ****         else
 618:Drivers/STM32H5xx_HAL_Driver/Src/stm32h5xx_hal_rtc_ex.c ****         {
 619:Drivers/STM32H5xx_HAL_Driver/Src/stm32h5xx_hal_rtc_ex.c ****           break;
 620:Drivers/STM32H5xx_HAL_Driver/Src/stm32h5xx_hal_rtc_ex.c ****         }
 621:Drivers/STM32H5xx_HAL_Driver/Src/stm32h5xx_hal_rtc_ex.c ****       }
 622:Drivers/STM32H5xx_HAL_Driver/Src/stm32h5xx_hal_rtc_ex.c ****     }
 623:Drivers/STM32H5xx_HAL_Driver/Src/stm32h5xx_hal_rtc_ex.c ****   }
 624:Drivers/STM32H5xx_HAL_Driver/Src/stm32h5xx_hal_rtc_ex.c **** 
 625:Drivers/STM32H5xx_HAL_Driver/Src/stm32h5xx_hal_rtc_ex.c ****   /* Configure the clock source */
 626:Drivers/STM32H5xx_HAL_Driver/Src/stm32h5xx_hal_rtc_ex.c ****   MODIFY_REG(RTC->CR, RTC_CR_WUCKSEL, (uint32_t)WakeUpClock);
 740              		.loc 1 626 3 is_stmt 1 view .LVU223
 741 002e 174B     		ldr	r3, .L60
 742 0030 9A69     		ldr	r2, [r3, #24]
 743 0032 22F00702 		bic	r2, r2, #7
 744 0036 3243     		orrs	r2, r2, r6
 745 0038 9A61     		str	r2, [r3, #24]
 627:Drivers/STM32H5xx_HAL_Driver/Src/stm32h5xx_hal_rtc_ex.c **** 
 628:Drivers/STM32H5xx_HAL_Driver/Src/stm32h5xx_hal_rtc_ex.c ****   /* Configure the Wakeup Timer counter */
 629:Drivers/STM32H5xx_HAL_Driver/Src/stm32h5xx_hal_rtc_ex.c ****   WRITE_REG(RTC->WUTR, (uint32_t)WakeUpCounter);
 746              		.loc 1 629 3 view .LVU224
 747 003a 5D61     		str	r5, [r3, #20]
 630:Drivers/STM32H5xx_HAL_Driver/Src/stm32h5xx_hal_rtc_ex.c **** 
 631:Drivers/STM32H5xx_HAL_Driver/Src/stm32h5xx_hal_rtc_ex.c ****   /* Enable the Wakeup Timer */
 632:Drivers/STM32H5xx_HAL_Driver/Src/stm32h5xx_hal_rtc_ex.c ****   SET_BIT(RTC->CR, RTC_CR_WUTE);
 748              		.loc 1 632 3 view .LVU225
 749 003c 9A69     		ldr	r2, [r3, #24]
 750 003e 42F48062 		orr	r2, r2, #1024
 751 0042 9A61     		str	r2, [r3, #24]
 633:Drivers/STM32H5xx_HAL_Driver/Src/stm32h5xx_hal_rtc_ex.c **** 
 634:Drivers/STM32H5xx_HAL_Driver/Src/stm32h5xx_hal_rtc_ex.c ****   /* Change RTC state */
 635:Drivers/STM32H5xx_HAL_Driver/Src/stm32h5xx_hal_rtc_ex.c ****   hrtc->State = HAL_RTC_STATE_READY;
 752              		.loc 1 635 3 view .LVU226
 753              		.loc 1 635 15 is_stmt 0 view .LVU227
 754 0044 0123     		movs	r3, #1
 755 0046 84F82D30 		strb	r3, [r4, #45]
 636:Drivers/STM32H5xx_HAL_Driver/Src/stm32h5xx_hal_rtc_ex.c **** 
 637:Drivers/STM32H5xx_HAL_Driver/Src/stm32h5xx_hal_rtc_ex.c ****   /* Process Unlocked */
 638:Drivers/STM32H5xx_HAL_Driver/Src/stm32h5xx_hal_rtc_ex.c ****   __HAL_UNLOCK(hrtc);
 756              		.loc 1 638 3 is_stmt 1 view .LVU228
 757              		.loc 1 638 3 view .LVU229
 758 004a 0020     		movs	r0, #0
 759 004c 84F82C00 		strb	r0, [r4, #44]
 760              		.loc 1 638 3 view .LVU230
 639:Drivers/STM32H5xx_HAL_Driver/Src/stm32h5xx_hal_rtc_ex.c **** 
 640:Drivers/STM32H5xx_HAL_Driver/Src/stm32h5xx_hal_rtc_ex.c ****   return HAL_OK;
 761              		.loc 1 640 3 view .LVU231
 762              	.LVL51:
 763              	.L53:
 641:Drivers/STM32H5xx_HAL_Driver/Src/stm32h5xx_hal_rtc_ex.c **** }
 764              		.loc 1 641 1 is_stmt 0 view .LVU232
 765 0050 F8BD     		pop	{r3, r4, r5, r6, r7, pc}
 766              	.LVL52:
ARM GAS  C:\Users\DELL\AppData\Local\Temp\ccMtHSyM.s 			page 26


 767              	.L59:
 600:Drivers/STM32H5xx_HAL_Driver/Src/stm32h5xx_hal_rtc_ex.c **** 
 768              		.loc 1 600 5 is_stmt 1 view .LVU233
 600:Drivers/STM32H5xx_HAL_Driver/Src/stm32h5xx_hal_rtc_ex.c **** 
 769              		.loc 1 600 17 is_stmt 0 view .LVU234
 770 0052 FFF7FEFF 		bl	HAL_GetTick
 771              	.LVL53:
 600:Drivers/STM32H5xx_HAL_Driver/Src/stm32h5xx_hal_rtc_ex.c **** 
 772              		.loc 1 600 17 view .LVU235
 773 0056 0746     		mov	r7, r0
 774              	.LVL54:
 602:Drivers/STM32H5xx_HAL_Driver/Src/stm32h5xx_hal_rtc_ex.c ****     {
 775              		.loc 1 602 5 is_stmt 1 view .LVU236
 776              	.L55:
 602:Drivers/STM32H5xx_HAL_Driver/Src/stm32h5xx_hal_rtc_ex.c ****     {
 777              		.loc 1 602 48 view .LVU237
 602:Drivers/STM32H5xx_HAL_Driver/Src/stm32h5xx_hal_rtc_ex.c ****     {
 778              		.loc 1 602 12 is_stmt 0 view .LVU238
 779 0058 0C4B     		ldr	r3, .L60
 780 005a DB68     		ldr	r3, [r3, #12]
 602:Drivers/STM32H5xx_HAL_Driver/Src/stm32h5xx_hal_rtc_ex.c ****     {
 781              		.loc 1 602 48 view .LVU239
 782 005c 13F0040F 		tst	r3, #4
 783 0060 E5D1     		bne	.L54
 604:Drivers/STM32H5xx_HAL_Driver/Src/stm32h5xx_hal_rtc_ex.c ****       {
 784              		.loc 1 604 7 is_stmt 1 view .LVU240
 604:Drivers/STM32H5xx_HAL_Driver/Src/stm32h5xx_hal_rtc_ex.c ****       {
 785              		.loc 1 604 12 is_stmt 0 view .LVU241
 786 0062 FFF7FEFF 		bl	HAL_GetTick
 787              	.LVL55:
 604:Drivers/STM32H5xx_HAL_Driver/Src/stm32h5xx_hal_rtc_ex.c ****       {
 788              		.loc 1 604 26 discriminator 1 view .LVU242
 789 0066 C31B     		subs	r3, r0, r7
 604:Drivers/STM32H5xx_HAL_Driver/Src/stm32h5xx_hal_rtc_ex.c ****       {
 790              		.loc 1 604 10 discriminator 1 view .LVU243
 791 0068 B3F57A7F 		cmp	r3, #1000
 792 006c F4D9     		bls	.L55
 607:Drivers/STM32H5xx_HAL_Driver/Src/stm32h5xx_hal_rtc_ex.c ****         {
 793              		.loc 1 607 9 is_stmt 1 view .LVU244
 607:Drivers/STM32H5xx_HAL_Driver/Src/stm32h5xx_hal_rtc_ex.c ****         {
 794              		.loc 1 607 13 is_stmt 0 view .LVU245
 795 006e 074B     		ldr	r3, .L60
 796 0070 DB68     		ldr	r3, [r3, #12]
 607:Drivers/STM32H5xx_HAL_Driver/Src/stm32h5xx_hal_rtc_ex.c ****         {
 797              		.loc 1 607 12 view .LVU246
 798 0072 13F0040F 		tst	r3, #4
 799 0076 DAD1     		bne	.L54
 610:Drivers/STM32H5xx_HAL_Driver/Src/stm32h5xx_hal_rtc_ex.c **** 
 800              		.loc 1 610 11 is_stmt 1 view .LVU247
 610:Drivers/STM32H5xx_HAL_Driver/Src/stm32h5xx_hal_rtc_ex.c **** 
 801              		.loc 1 610 23 is_stmt 0 view .LVU248
 802 0078 0320     		movs	r0, #3
 803 007a 84F82D00 		strb	r0, [r4, #45]
 613:Drivers/STM32H5xx_HAL_Driver/Src/stm32h5xx_hal_rtc_ex.c **** 
 804              		.loc 1 613 11 is_stmt 1 view .LVU249
 613:Drivers/STM32H5xx_HAL_Driver/Src/stm32h5xx_hal_rtc_ex.c **** 
 805              		.loc 1 613 11 view .LVU250
ARM GAS  C:\Users\DELL\AppData\Local\Temp\ccMtHSyM.s 			page 27


 806 007e 0023     		movs	r3, #0
 807 0080 84F82C30 		strb	r3, [r4, #44]
 613:Drivers/STM32H5xx_HAL_Driver/Src/stm32h5xx_hal_rtc_ex.c **** 
 808              		.loc 1 613 11 view .LVU251
 615:Drivers/STM32H5xx_HAL_Driver/Src/stm32h5xx_hal_rtc_ex.c ****         }
 809              		.loc 1 615 11 view .LVU252
 615:Drivers/STM32H5xx_HAL_Driver/Src/stm32h5xx_hal_rtc_ex.c ****         }
 810              		.loc 1 615 18 is_stmt 0 view .LVU253
 811 0084 E4E7     		b	.L53
 812              	.LVL56:
 813              	.L57:
 587:Drivers/STM32H5xx_HAL_Driver/Src/stm32h5xx_hal_rtc_ex.c **** 
 814              		.loc 1 587 3 discriminator 1 view .LVU254
 815 0086 0220     		movs	r0, #2
 816              	.LVL57:
 587:Drivers/STM32H5xx_HAL_Driver/Src/stm32h5xx_hal_rtc_ex.c **** 
 817              		.loc 1 587 3 discriminator 1 view .LVU255
 818 0088 E2E7     		b	.L53
 819              	.L61:
 820 008a 00BF     		.align	2
 821              	.L60:
 822 008c 00780044 		.word	1140881408
 823              		.cfi_endproc
 824              	.LFE306:
 826              		.section	.text.HAL_RTCEx_SetWakeUpTimer_IT,"ax",%progbits
 827              		.align	1
 828              		.global	HAL_RTCEx_SetWakeUpTimer_IT
 829              		.syntax unified
 830              		.thumb
 831              		.thumb_func
 833              	HAL_RTCEx_SetWakeUpTimer_IT:
 834              	.LVL58:
 835              	.LFB307:
 642:Drivers/STM32H5xx_HAL_Driver/Src/stm32h5xx_hal_rtc_ex.c **** 
 643:Drivers/STM32H5xx_HAL_Driver/Src/stm32h5xx_hal_rtc_ex.c **** /**
 644:Drivers/STM32H5xx_HAL_Driver/Src/stm32h5xx_hal_rtc_ex.c ****   * @brief  Set wake up timer with interrupt.
 645:Drivers/STM32H5xx_HAL_Driver/Src/stm32h5xx_hal_rtc_ex.c ****   * @note   The application must ensure that the EXTI RTC interrupt line is enabled.
 646:Drivers/STM32H5xx_HAL_Driver/Src/stm32h5xx_hal_rtc_ex.c ****   * @param  hrtc RTC handle
 647:Drivers/STM32H5xx_HAL_Driver/Src/stm32h5xx_hal_rtc_ex.c ****   * @param  WakeUpCounter Wake up counter
 648:Drivers/STM32H5xx_HAL_Driver/Src/stm32h5xx_hal_rtc_ex.c ****   * @param  WakeUpClock Wake up clock
 649:Drivers/STM32H5xx_HAL_Driver/Src/stm32h5xx_hal_rtc_ex.c ****   * @param  WakeUpAutoClr Wake up auto clear value (look at WUTOCLR in reference manual)
 650:Drivers/STM32H5xx_HAL_Driver/Src/stm32h5xx_hal_rtc_ex.c ****   *                       - No effect if WakeUpAutoClr is set to zero
 651:Drivers/STM32H5xx_HAL_Driver/Src/stm32h5xx_hal_rtc_ex.c ****   *                       - This feature is meaningful in case of Low power mode to avoid any RTC s
 652:Drivers/STM32H5xx_HAL_Driver/Src/stm32h5xx_hal_rtc_ex.c ****   *                         after Wake Up.
 653:Drivers/STM32H5xx_HAL_Driver/Src/stm32h5xx_hal_rtc_ex.c ****   * @retval HAL status
 654:Drivers/STM32H5xx_HAL_Driver/Src/stm32h5xx_hal_rtc_ex.c ****   */
 655:Drivers/STM32H5xx_HAL_Driver/Src/stm32h5xx_hal_rtc_ex.c **** HAL_StatusTypeDef HAL_RTCEx_SetWakeUpTimer_IT(RTC_HandleTypeDef *hrtc, uint32_t WakeUpCounter, uint
 656:Drivers/STM32H5xx_HAL_Driver/Src/stm32h5xx_hal_rtc_ex.c ****                                               uint32_t WakeUpAutoClr)
 657:Drivers/STM32H5xx_HAL_Driver/Src/stm32h5xx_hal_rtc_ex.c **** {
 836              		.loc 1 657 1 is_stmt 1 view -0
 837              		.cfi_startproc
 838              		@ args = 0, pretend = 0, frame = 0
 839              		@ frame_needed = 0, uses_anonymous_args = 0
 840              		.loc 1 657 1 is_stmt 0 view .LVU257
 841 0000 2DE9F041 		push	{r4, r5, r6, r7, r8, lr}
 842              	.LCFI4:
 843              		.cfi_def_cfa_offset 24
ARM GAS  C:\Users\DELL\AppData\Local\Temp\ccMtHSyM.s 			page 28


 844              		.cfi_offset 4, -24
 845              		.cfi_offset 5, -20
 846              		.cfi_offset 6, -16
 847              		.cfi_offset 7, -12
 848              		.cfi_offset 8, -8
 849              		.cfi_offset 14, -4
 850 0004 1F46     		mov	r7, r3
 658:Drivers/STM32H5xx_HAL_Driver/Src/stm32h5xx_hal_rtc_ex.c ****   uint32_t tickstart;
 851              		.loc 1 658 3 is_stmt 1 view .LVU258
 659:Drivers/STM32H5xx_HAL_Driver/Src/stm32h5xx_hal_rtc_ex.c **** 
 660:Drivers/STM32H5xx_HAL_Driver/Src/stm32h5xx_hal_rtc_ex.c ****   /* Check the parameters */
 661:Drivers/STM32H5xx_HAL_Driver/Src/stm32h5xx_hal_rtc_ex.c ****   assert_param(IS_RTC_WAKEUP_CLOCK(WakeUpClock));
 852              		.loc 1 661 3 view .LVU259
 662:Drivers/STM32H5xx_HAL_Driver/Src/stm32h5xx_hal_rtc_ex.c ****   assert_param(IS_RTC_WAKEUP_COUNTER(WakeUpCounter));
 853              		.loc 1 662 3 view .LVU260
 663:Drivers/STM32H5xx_HAL_Driver/Src/stm32h5xx_hal_rtc_ex.c ****   /* (0x0000<=WUTOCLR<=WUT) */
 664:Drivers/STM32H5xx_HAL_Driver/Src/stm32h5xx_hal_rtc_ex.c ****   assert_param(WakeUpAutoClr <= WakeUpCounter);
 854              		.loc 1 664 3 view .LVU261
 665:Drivers/STM32H5xx_HAL_Driver/Src/stm32h5xx_hal_rtc_ex.c **** 
 666:Drivers/STM32H5xx_HAL_Driver/Src/stm32h5xx_hal_rtc_ex.c ****   /* Process Locked */
 667:Drivers/STM32H5xx_HAL_Driver/Src/stm32h5xx_hal_rtc_ex.c ****   __HAL_LOCK(hrtc);
 855              		.loc 1 667 3 view .LVU262
 856              		.loc 1 667 3 view .LVU263
 857 0006 90F82C30 		ldrb	r3, [r0, #44]	@ zero_extendqisi2
 858              	.LVL59:
 859              		.loc 1 667 3 is_stmt 0 view .LVU264
 860 000a 012B     		cmp	r3, #1
 861 000c 43D0     		beq	.L67
 862 000e 0446     		mov	r4, r0
 863 0010 0D46     		mov	r5, r1
 864 0012 1646     		mov	r6, r2
 865              		.loc 1 667 3 is_stmt 1 discriminator 2 view .LVU265
 866 0014 0123     		movs	r3, #1
 867 0016 80F82C30 		strb	r3, [r0, #44]
 868              		.loc 1 667 3 view .LVU266
 668:Drivers/STM32H5xx_HAL_Driver/Src/stm32h5xx_hal_rtc_ex.c **** 
 669:Drivers/STM32H5xx_HAL_Driver/Src/stm32h5xx_hal_rtc_ex.c ****   /* Change RTC state */
 670:Drivers/STM32H5xx_HAL_Driver/Src/stm32h5xx_hal_rtc_ex.c ****   hrtc->State = HAL_RTC_STATE_BUSY;
 869              		.loc 1 670 3 view .LVU267
 870              		.loc 1 670 15 is_stmt 0 view .LVU268
 871 001a 0223     		movs	r3, #2
 872 001c 80F82D30 		strb	r3, [r0, #45]
 671:Drivers/STM32H5xx_HAL_Driver/Src/stm32h5xx_hal_rtc_ex.c **** 
 672:Drivers/STM32H5xx_HAL_Driver/Src/stm32h5xx_hal_rtc_ex.c ****   /* Clear WUTE in RTC_CR to disable the wakeup timer */
 673:Drivers/STM32H5xx_HAL_Driver/Src/stm32h5xx_hal_rtc_ex.c ****   CLEAR_BIT(RTC->CR, RTC_CR_WUTE);
 873              		.loc 1 673 3 is_stmt 1 view .LVU269
 874 0020 1E4B     		ldr	r3, .L70
 875 0022 9A69     		ldr	r2, [r3, #24]
 876              	.LVL60:
 877              		.loc 1 673 3 is_stmt 0 view .LVU270
 878 0024 22F48062 		bic	r2, r2, #1024
 879 0028 9A61     		str	r2, [r3, #24]
 674:Drivers/STM32H5xx_HAL_Driver/Src/stm32h5xx_hal_rtc_ex.c **** 
 675:Drivers/STM32H5xx_HAL_Driver/Src/stm32h5xx_hal_rtc_ex.c ****   /* Clear flag Wake-Up */
 676:Drivers/STM32H5xx_HAL_Driver/Src/stm32h5xx_hal_rtc_ex.c ****   WRITE_REG(RTC->SCR, RTC_SCR_CWUTF);
 880              		.loc 1 676 3 is_stmt 1 view .LVU271
 881 002a 0422     		movs	r2, #4
ARM GAS  C:\Users\DELL\AppData\Local\Temp\ccMtHSyM.s 			page 29


 882 002c DA65     		str	r2, [r3, #92]
 677:Drivers/STM32H5xx_HAL_Driver/Src/stm32h5xx_hal_rtc_ex.c **** 
 678:Drivers/STM32H5xx_HAL_Driver/Src/stm32h5xx_hal_rtc_ex.c ****   /* Poll WUTWF until it is set in RTC_ICSR to make sure the access to wakeup autoreload
 679:Drivers/STM32H5xx_HAL_Driver/Src/stm32h5xx_hal_rtc_ex.c ****      counter and to WUCKSEL[2:0] bits is allowed. This step must be skipped in
 680:Drivers/STM32H5xx_HAL_Driver/Src/stm32h5xx_hal_rtc_ex.c ****      calendar initialization mode. */
 681:Drivers/STM32H5xx_HAL_Driver/Src/stm32h5xx_hal_rtc_ex.c ****   if (READ_BIT(RTC->ICSR, RTC_ICSR_INITF) == 0U)
 883              		.loc 1 681 3 view .LVU272
 884              		.loc 1 681 7 is_stmt 0 view .LVU273
 885 002e DB68     		ldr	r3, [r3, #12]
 886              		.loc 1 681 6 view .LVU274
 887 0030 13F0400F 		tst	r3, #64
 888 0034 14D0     		beq	.L69
 889              	.LVL61:
 890              	.L64:
 682:Drivers/STM32H5xx_HAL_Driver/Src/stm32h5xx_hal_rtc_ex.c ****   {
 683:Drivers/STM32H5xx_HAL_Driver/Src/stm32h5xx_hal_rtc_ex.c ****     tickstart = HAL_GetTick();
 684:Drivers/STM32H5xx_HAL_Driver/Src/stm32h5xx_hal_rtc_ex.c ****     while (READ_BIT(RTC->ICSR, RTC_ICSR_WUTWF) == 0U)
 685:Drivers/STM32H5xx_HAL_Driver/Src/stm32h5xx_hal_rtc_ex.c ****     {
 686:Drivers/STM32H5xx_HAL_Driver/Src/stm32h5xx_hal_rtc_ex.c ****       if ((HAL_GetTick() - tickstart) > RTC_TIMEOUT_VALUE)
 687:Drivers/STM32H5xx_HAL_Driver/Src/stm32h5xx_hal_rtc_ex.c ****       {
 688:Drivers/STM32H5xx_HAL_Driver/Src/stm32h5xx_hal_rtc_ex.c ****         /* New check to avoid false timeout detection in case of preemption */
 689:Drivers/STM32H5xx_HAL_Driver/Src/stm32h5xx_hal_rtc_ex.c ****         if (READ_BIT(RTC->ICSR, RTC_ICSR_WUTWF) == 0U)
 690:Drivers/STM32H5xx_HAL_Driver/Src/stm32h5xx_hal_rtc_ex.c ****         {
 691:Drivers/STM32H5xx_HAL_Driver/Src/stm32h5xx_hal_rtc_ex.c ****           /* Change RTC state */
 692:Drivers/STM32H5xx_HAL_Driver/Src/stm32h5xx_hal_rtc_ex.c ****           hrtc->State = HAL_RTC_STATE_TIMEOUT;
 693:Drivers/STM32H5xx_HAL_Driver/Src/stm32h5xx_hal_rtc_ex.c **** 
 694:Drivers/STM32H5xx_HAL_Driver/Src/stm32h5xx_hal_rtc_ex.c ****           /* Process Unlocked */
 695:Drivers/STM32H5xx_HAL_Driver/Src/stm32h5xx_hal_rtc_ex.c ****           __HAL_UNLOCK(hrtc);
 696:Drivers/STM32H5xx_HAL_Driver/Src/stm32h5xx_hal_rtc_ex.c **** 
 697:Drivers/STM32H5xx_HAL_Driver/Src/stm32h5xx_hal_rtc_ex.c ****           return HAL_TIMEOUT;
 698:Drivers/STM32H5xx_HAL_Driver/Src/stm32h5xx_hal_rtc_ex.c ****         }
 699:Drivers/STM32H5xx_HAL_Driver/Src/stm32h5xx_hal_rtc_ex.c ****         else
 700:Drivers/STM32H5xx_HAL_Driver/Src/stm32h5xx_hal_rtc_ex.c ****         {
 701:Drivers/STM32H5xx_HAL_Driver/Src/stm32h5xx_hal_rtc_ex.c ****           break;
 702:Drivers/STM32H5xx_HAL_Driver/Src/stm32h5xx_hal_rtc_ex.c ****         }
 703:Drivers/STM32H5xx_HAL_Driver/Src/stm32h5xx_hal_rtc_ex.c ****       }
 704:Drivers/STM32H5xx_HAL_Driver/Src/stm32h5xx_hal_rtc_ex.c ****     }
 705:Drivers/STM32H5xx_HAL_Driver/Src/stm32h5xx_hal_rtc_ex.c ****   }
 706:Drivers/STM32H5xx_HAL_Driver/Src/stm32h5xx_hal_rtc_ex.c **** 
 707:Drivers/STM32H5xx_HAL_Driver/Src/stm32h5xx_hal_rtc_ex.c ****   /* Configure the Wakeup Timer counter and auto clear value */
 708:Drivers/STM32H5xx_HAL_Driver/Src/stm32h5xx_hal_rtc_ex.c ****   WRITE_REG(RTC->WUTR, (uint32_t)(WakeUpCounter | (WakeUpAutoClr << RTC_WUTR_WUTOCLR_Pos)));
 891              		.loc 1 708 3 is_stmt 1 view .LVU275
 892 0036 45EA0745 		orr	r5, r5, r7, lsl #16
 893              	.LVL62:
 894              		.loc 1 708 3 is_stmt 0 view .LVU276
 895 003a 184B     		ldr	r3, .L70
 896 003c 5D61     		str	r5, [r3, #20]
 709:Drivers/STM32H5xx_HAL_Driver/Src/stm32h5xx_hal_rtc_ex.c **** 
 710:Drivers/STM32H5xx_HAL_Driver/Src/stm32h5xx_hal_rtc_ex.c ****   /* Configure the clock source */
 711:Drivers/STM32H5xx_HAL_Driver/Src/stm32h5xx_hal_rtc_ex.c ****   MODIFY_REG(RTC->CR, RTC_CR_WUCKSEL, (uint32_t)WakeUpClock);
 897              		.loc 1 711 3 is_stmt 1 view .LVU277
 898 003e 9A69     		ldr	r2, [r3, #24]
 899 0040 22F00702 		bic	r2, r2, #7
 900 0044 3243     		orrs	r2, r2, r6
 901 0046 9A61     		str	r2, [r3, #24]
 712:Drivers/STM32H5xx_HAL_Driver/Src/stm32h5xx_hal_rtc_ex.c **** 
 713:Drivers/STM32H5xx_HAL_Driver/Src/stm32h5xx_hal_rtc_ex.c ****   /* Configure the Interrupt in the RTC_CR register and Enable the Wakeup Timer*/
ARM GAS  C:\Users\DELL\AppData\Local\Temp\ccMtHSyM.s 			page 30


 714:Drivers/STM32H5xx_HAL_Driver/Src/stm32h5xx_hal_rtc_ex.c ****   SET_BIT(RTC->CR, (RTC_CR_WUTIE | RTC_CR_WUTE));
 902              		.loc 1 714 3 view .LVU278
 903 0048 9A69     		ldr	r2, [r3, #24]
 904 004a 42F48842 		orr	r2, r2, #17408
 905 004e 9A61     		str	r2, [r3, #24]
 715:Drivers/STM32H5xx_HAL_Driver/Src/stm32h5xx_hal_rtc_ex.c **** 
 716:Drivers/STM32H5xx_HAL_Driver/Src/stm32h5xx_hal_rtc_ex.c ****   /* Change RTC state */
 717:Drivers/STM32H5xx_HAL_Driver/Src/stm32h5xx_hal_rtc_ex.c ****   hrtc->State = HAL_RTC_STATE_READY;
 906              		.loc 1 717 3 view .LVU279
 907              		.loc 1 717 15 is_stmt 0 view .LVU280
 908 0050 0123     		movs	r3, #1
 909 0052 84F82D30 		strb	r3, [r4, #45]
 718:Drivers/STM32H5xx_HAL_Driver/Src/stm32h5xx_hal_rtc_ex.c **** 
 719:Drivers/STM32H5xx_HAL_Driver/Src/stm32h5xx_hal_rtc_ex.c ****   /* Process Unlocked */
 720:Drivers/STM32H5xx_HAL_Driver/Src/stm32h5xx_hal_rtc_ex.c ****   __HAL_UNLOCK(hrtc);
 910              		.loc 1 720 3 is_stmt 1 view .LVU281
 911              		.loc 1 720 3 view .LVU282
 912 0056 0020     		movs	r0, #0
 913 0058 84F82C00 		strb	r0, [r4, #44]
 914              		.loc 1 720 3 view .LVU283
 721:Drivers/STM32H5xx_HAL_Driver/Src/stm32h5xx_hal_rtc_ex.c **** 
 722:Drivers/STM32H5xx_HAL_Driver/Src/stm32h5xx_hal_rtc_ex.c ****   return HAL_OK;
 915              		.loc 1 722 3 view .LVU284
 916              	.LVL63:
 917              	.L63:
 723:Drivers/STM32H5xx_HAL_Driver/Src/stm32h5xx_hal_rtc_ex.c **** }
 918              		.loc 1 723 1 is_stmt 0 view .LVU285
 919 005c BDE8F081 		pop	{r4, r5, r6, r7, r8, pc}
 920              	.LVL64:
 921              	.L69:
 683:Drivers/STM32H5xx_HAL_Driver/Src/stm32h5xx_hal_rtc_ex.c ****     while (READ_BIT(RTC->ICSR, RTC_ICSR_WUTWF) == 0U)
 922              		.loc 1 683 5 is_stmt 1 view .LVU286
 683:Drivers/STM32H5xx_HAL_Driver/Src/stm32h5xx_hal_rtc_ex.c ****     while (READ_BIT(RTC->ICSR, RTC_ICSR_WUTWF) == 0U)
 923              		.loc 1 683 17 is_stmt 0 view .LVU287
 924 0060 FFF7FEFF 		bl	HAL_GetTick
 925              	.LVL65:
 683:Drivers/STM32H5xx_HAL_Driver/Src/stm32h5xx_hal_rtc_ex.c ****     while (READ_BIT(RTC->ICSR, RTC_ICSR_WUTWF) == 0U)
 926              		.loc 1 683 17 view .LVU288
 927 0064 8046     		mov	r8, r0
 928              	.LVL66:
 684:Drivers/STM32H5xx_HAL_Driver/Src/stm32h5xx_hal_rtc_ex.c ****     {
 929              		.loc 1 684 5 is_stmt 1 view .LVU289
 930              	.L65:
 684:Drivers/STM32H5xx_HAL_Driver/Src/stm32h5xx_hal_rtc_ex.c ****     {
 931              		.loc 1 684 48 view .LVU290
 684:Drivers/STM32H5xx_HAL_Driver/Src/stm32h5xx_hal_rtc_ex.c ****     {
 932              		.loc 1 684 12 is_stmt 0 view .LVU291
 933 0066 0D4B     		ldr	r3, .L70
 934 0068 D968     		ldr	r1, [r3, #12]
 684:Drivers/STM32H5xx_HAL_Driver/Src/stm32h5xx_hal_rtc_ex.c ****     {
 935              		.loc 1 684 48 view .LVU292
 936 006a 11F0040F 		tst	r1, #4
 937 006e E2D1     		bne	.L64
 686:Drivers/STM32H5xx_HAL_Driver/Src/stm32h5xx_hal_rtc_ex.c ****       {
 938              		.loc 1 686 7 is_stmt 1 view .LVU293
 686:Drivers/STM32H5xx_HAL_Driver/Src/stm32h5xx_hal_rtc_ex.c ****       {
 939              		.loc 1 686 12 is_stmt 0 view .LVU294
ARM GAS  C:\Users\DELL\AppData\Local\Temp\ccMtHSyM.s 			page 31


 940 0070 FFF7FEFF 		bl	HAL_GetTick
 941              	.LVL67:
 686:Drivers/STM32H5xx_HAL_Driver/Src/stm32h5xx_hal_rtc_ex.c ****       {
 942              		.loc 1 686 26 discriminator 1 view .LVU295
 943 0074 A0EB080C 		sub	ip, r0, r8
 686:Drivers/STM32H5xx_HAL_Driver/Src/stm32h5xx_hal_rtc_ex.c ****       {
 944              		.loc 1 686 10 discriminator 1 view .LVU296
 945 0078 BCF57A7F 		cmp	ip, #1000
 946 007c F3D9     		bls	.L65
 689:Drivers/STM32H5xx_HAL_Driver/Src/stm32h5xx_hal_rtc_ex.c ****         {
 947              		.loc 1 689 9 is_stmt 1 view .LVU297
 689:Drivers/STM32H5xx_HAL_Driver/Src/stm32h5xx_hal_rtc_ex.c ****         {
 948              		.loc 1 689 13 is_stmt 0 view .LVU298
 949 007e 074B     		ldr	r3, .L70
 950 0080 DB68     		ldr	r3, [r3, #12]
 689:Drivers/STM32H5xx_HAL_Driver/Src/stm32h5xx_hal_rtc_ex.c ****         {
 951              		.loc 1 689 12 view .LVU299
 952 0082 13F0040F 		tst	r3, #4
 953 0086 D6D1     		bne	.L64
 692:Drivers/STM32H5xx_HAL_Driver/Src/stm32h5xx_hal_rtc_ex.c **** 
 954              		.loc 1 692 11 is_stmt 1 view .LVU300
 692:Drivers/STM32H5xx_HAL_Driver/Src/stm32h5xx_hal_rtc_ex.c **** 
 955              		.loc 1 692 23 is_stmt 0 view .LVU301
 956 0088 0320     		movs	r0, #3
 957 008a 84F82D00 		strb	r0, [r4, #45]
 695:Drivers/STM32H5xx_HAL_Driver/Src/stm32h5xx_hal_rtc_ex.c **** 
 958              		.loc 1 695 11 is_stmt 1 view .LVU302
 695:Drivers/STM32H5xx_HAL_Driver/Src/stm32h5xx_hal_rtc_ex.c **** 
 959              		.loc 1 695 11 view .LVU303
 960 008e 0023     		movs	r3, #0
 961 0090 84F82C30 		strb	r3, [r4, #44]
 695:Drivers/STM32H5xx_HAL_Driver/Src/stm32h5xx_hal_rtc_ex.c **** 
 962              		.loc 1 695 11 view .LVU304
 697:Drivers/STM32H5xx_HAL_Driver/Src/stm32h5xx_hal_rtc_ex.c ****         }
 963              		.loc 1 697 11 view .LVU305
 697:Drivers/STM32H5xx_HAL_Driver/Src/stm32h5xx_hal_rtc_ex.c ****         }
 964              		.loc 1 697 18 is_stmt 0 view .LVU306
 965 0094 E2E7     		b	.L63
 966              	.LVL68:
 967              	.L67:
 667:Drivers/STM32H5xx_HAL_Driver/Src/stm32h5xx_hal_rtc_ex.c **** 
 968              		.loc 1 667 3 discriminator 1 view .LVU307
 969 0096 0220     		movs	r0, #2
 970              	.LVL69:
 667:Drivers/STM32H5xx_HAL_Driver/Src/stm32h5xx_hal_rtc_ex.c **** 
 971              		.loc 1 667 3 discriminator 1 view .LVU308
 972 0098 E0E7     		b	.L63
 973              	.L71:
 974 009a 00BF     		.align	2
 975              	.L70:
 976 009c 00780044 		.word	1140881408
 977              		.cfi_endproc
 978              	.LFE307:
 980              		.section	.text.HAL_RTCEx_DeactivateWakeUpTimer,"ax",%progbits
 981              		.align	1
 982              		.global	HAL_RTCEx_DeactivateWakeUpTimer
 983              		.syntax unified
ARM GAS  C:\Users\DELL\AppData\Local\Temp\ccMtHSyM.s 			page 32


 984              		.thumb
 985              		.thumb_func
 987              	HAL_RTCEx_DeactivateWakeUpTimer:
 988              	.LVL70:
 989              	.LFB308:
 724:Drivers/STM32H5xx_HAL_Driver/Src/stm32h5xx_hal_rtc_ex.c **** 
 725:Drivers/STM32H5xx_HAL_Driver/Src/stm32h5xx_hal_rtc_ex.c **** /**
 726:Drivers/STM32H5xx_HAL_Driver/Src/stm32h5xx_hal_rtc_ex.c ****   * @brief  Deactivate wake up timer counter.
 727:Drivers/STM32H5xx_HAL_Driver/Src/stm32h5xx_hal_rtc_ex.c ****   * @param  hrtc RTC handle
 728:Drivers/STM32H5xx_HAL_Driver/Src/stm32h5xx_hal_rtc_ex.c ****   * @retval HAL status
 729:Drivers/STM32H5xx_HAL_Driver/Src/stm32h5xx_hal_rtc_ex.c ****   */
 730:Drivers/STM32H5xx_HAL_Driver/Src/stm32h5xx_hal_rtc_ex.c **** HAL_StatusTypeDef HAL_RTCEx_DeactivateWakeUpTimer(RTC_HandleTypeDef *hrtc)
 731:Drivers/STM32H5xx_HAL_Driver/Src/stm32h5xx_hal_rtc_ex.c **** {
 990              		.loc 1 731 1 is_stmt 1 view -0
 991              		.cfi_startproc
 992              		@ args = 0, pretend = 0, frame = 0
 993              		@ frame_needed = 0, uses_anonymous_args = 0
 994              		@ link register save eliminated.
 732:Drivers/STM32H5xx_HAL_Driver/Src/stm32h5xx_hal_rtc_ex.c ****   /* Process Locked */
 733:Drivers/STM32H5xx_HAL_Driver/Src/stm32h5xx_hal_rtc_ex.c ****   __HAL_LOCK(hrtc);
 995              		.loc 1 733 3 view .LVU310
 996              		.loc 1 733 3 view .LVU311
 997 0000 90F82C30 		ldrb	r3, [r0, #44]	@ zero_extendqisi2
 998 0004 012B     		cmp	r3, #1
 999 0006 11D0     		beq	.L74
 1000              		.loc 1 733 3 discriminator 2 view .LVU312
 1001 0008 0122     		movs	r2, #1
 1002 000a 80F82C20 		strb	r2, [r0, #44]
 1003              		.loc 1 733 3 view .LVU313
 734:Drivers/STM32H5xx_HAL_Driver/Src/stm32h5xx_hal_rtc_ex.c **** 
 735:Drivers/STM32H5xx_HAL_Driver/Src/stm32h5xx_hal_rtc_ex.c ****   /* Change RTC state */
 736:Drivers/STM32H5xx_HAL_Driver/Src/stm32h5xx_hal_rtc_ex.c ****   hrtc->State = HAL_RTC_STATE_BUSY;
 1004              		.loc 1 736 3 view .LVU314
 1005              		.loc 1 736 15 is_stmt 0 view .LVU315
 1006 000e 0223     		movs	r3, #2
 1007 0010 80F82D30 		strb	r3, [r0, #45]
 737:Drivers/STM32H5xx_HAL_Driver/Src/stm32h5xx_hal_rtc_ex.c **** 
 738:Drivers/STM32H5xx_HAL_Driver/Src/stm32h5xx_hal_rtc_ex.c ****   /* Disable the Wakeup Timer */
 739:Drivers/STM32H5xx_HAL_Driver/Src/stm32h5xx_hal_rtc_ex.c ****   /* In case of interrupt mode is used, the interrupt source must disabled */
 740:Drivers/STM32H5xx_HAL_Driver/Src/stm32h5xx_hal_rtc_ex.c ****   CLEAR_BIT(RTC->CR, (RTC_CR_WUTE | RTC_CR_WUTIE));
 1008              		.loc 1 740 3 is_stmt 1 view .LVU316
 1009 0014 0649     		ldr	r1, .L75
 1010 0016 8B69     		ldr	r3, [r1, #24]
 1011 0018 23F48843 		bic	r3, r3, #17408
 1012 001c 8B61     		str	r3, [r1, #24]
 741:Drivers/STM32H5xx_HAL_Driver/Src/stm32h5xx_hal_rtc_ex.c **** 
 742:Drivers/STM32H5xx_HAL_Driver/Src/stm32h5xx_hal_rtc_ex.c ****   /* Change RTC state */
 743:Drivers/STM32H5xx_HAL_Driver/Src/stm32h5xx_hal_rtc_ex.c ****   hrtc->State = HAL_RTC_STATE_READY;
 1013              		.loc 1 743 3 view .LVU317
 1014              		.loc 1 743 15 is_stmt 0 view .LVU318
 1015 001e 80F82D20 		strb	r2, [r0, #45]
 744:Drivers/STM32H5xx_HAL_Driver/Src/stm32h5xx_hal_rtc_ex.c **** 
 745:Drivers/STM32H5xx_HAL_Driver/Src/stm32h5xx_hal_rtc_ex.c ****   /* Process Unlocked */
 746:Drivers/STM32H5xx_HAL_Driver/Src/stm32h5xx_hal_rtc_ex.c ****   __HAL_UNLOCK(hrtc);
 1016              		.loc 1 746 3 is_stmt 1 view .LVU319
 1017              		.loc 1 746 3 view .LVU320
 1018 0022 0023     		movs	r3, #0
ARM GAS  C:\Users\DELL\AppData\Local\Temp\ccMtHSyM.s 			page 33


 1019 0024 80F82C30 		strb	r3, [r0, #44]
 1020              		.loc 1 746 3 view .LVU321
 747:Drivers/STM32H5xx_HAL_Driver/Src/stm32h5xx_hal_rtc_ex.c **** 
 748:Drivers/STM32H5xx_HAL_Driver/Src/stm32h5xx_hal_rtc_ex.c ****   return HAL_OK;
 1021              		.loc 1 748 3 view .LVU322
 1022              		.loc 1 748 10 is_stmt 0 view .LVU323
 1023 0028 1846     		mov	r0, r3
 1024              	.LVL71:
 1025              		.loc 1 748 10 view .LVU324
 1026 002a 7047     		bx	lr
 1027              	.LVL72:
 1028              	.L74:
 733:Drivers/STM32H5xx_HAL_Driver/Src/stm32h5xx_hal_rtc_ex.c **** 
 1029              		.loc 1 733 3 discriminator 1 view .LVU325
 1030 002c 0220     		movs	r0, #2
 1031              	.LVL73:
 749:Drivers/STM32H5xx_HAL_Driver/Src/stm32h5xx_hal_rtc_ex.c **** }
 1032              		.loc 1 749 1 view .LVU326
 1033 002e 7047     		bx	lr
 1034              	.L76:
 1035              		.align	2
 1036              	.L75:
 1037 0030 00780044 		.word	1140881408
 1038              		.cfi_endproc
 1039              	.LFE308:
 1041              		.section	.text.HAL_RTCEx_GetWakeUpTimer,"ax",%progbits
 1042              		.align	1
 1043              		.global	HAL_RTCEx_GetWakeUpTimer
 1044              		.syntax unified
 1045              		.thumb
 1046              		.thumb_func
 1048              	HAL_RTCEx_GetWakeUpTimer:
 1049              	.LVL74:
 1050              	.LFB309:
 750:Drivers/STM32H5xx_HAL_Driver/Src/stm32h5xx_hal_rtc_ex.c **** 
 751:Drivers/STM32H5xx_HAL_Driver/Src/stm32h5xx_hal_rtc_ex.c **** /**
 752:Drivers/STM32H5xx_HAL_Driver/Src/stm32h5xx_hal_rtc_ex.c ****   * @brief  Get wake up timer counter.
 753:Drivers/STM32H5xx_HAL_Driver/Src/stm32h5xx_hal_rtc_ex.c ****   * @param  hrtc RTC handle
 754:Drivers/STM32H5xx_HAL_Driver/Src/stm32h5xx_hal_rtc_ex.c ****   * @retval Counter value
 755:Drivers/STM32H5xx_HAL_Driver/Src/stm32h5xx_hal_rtc_ex.c ****   */
 756:Drivers/STM32H5xx_HAL_Driver/Src/stm32h5xx_hal_rtc_ex.c **** uint32_t HAL_RTCEx_GetWakeUpTimer(const RTC_HandleTypeDef *hrtc)
 757:Drivers/STM32H5xx_HAL_Driver/Src/stm32h5xx_hal_rtc_ex.c **** {
 1051              		.loc 1 757 1 is_stmt 1 view -0
 1052              		.cfi_startproc
 1053              		@ args = 0, pretend = 0, frame = 0
 1054              		@ frame_needed = 0, uses_anonymous_args = 0
 1055              		@ link register save eliminated.
 758:Drivers/STM32H5xx_HAL_Driver/Src/stm32h5xx_hal_rtc_ex.c ****   /* Prevent unused argument(s) compilation warning */
 759:Drivers/STM32H5xx_HAL_Driver/Src/stm32h5xx_hal_rtc_ex.c ****   UNUSED(hrtc);
 1056              		.loc 1 759 3 view .LVU328
 760:Drivers/STM32H5xx_HAL_Driver/Src/stm32h5xx_hal_rtc_ex.c **** 
 761:Drivers/STM32H5xx_HAL_Driver/Src/stm32h5xx_hal_rtc_ex.c ****   /* Get the counter value */
 762:Drivers/STM32H5xx_HAL_Driver/Src/stm32h5xx_hal_rtc_ex.c ****   return (uint32_t)(READ_BIT(RTC->WUTR, RTC_WUTR_WUT));
 1057              		.loc 1 762 3 view .LVU329
 1058              		.loc 1 762 21 is_stmt 0 view .LVU330
 1059 0000 014B     		ldr	r3, .L78
 1060 0002 5869     		ldr	r0, [r3, #20]
ARM GAS  C:\Users\DELL\AppData\Local\Temp\ccMtHSyM.s 			page 34


 1061              	.LVL75:
 763:Drivers/STM32H5xx_HAL_Driver/Src/stm32h5xx_hal_rtc_ex.c **** }
 1062              		.loc 1 763 1 view .LVU331
 1063 0004 80B2     		uxth	r0, r0
 1064 0006 7047     		bx	lr
 1065              	.L79:
 1066              		.align	2
 1067              	.L78:
 1068 0008 00780044 		.word	1140881408
 1069              		.cfi_endproc
 1070              	.LFE309:
 1072              		.section	.text.HAL_RTCEx_WakeUpTimerEventCallback,"ax",%progbits
 1073              		.align	1
 1074              		.weak	HAL_RTCEx_WakeUpTimerEventCallback
 1075              		.syntax unified
 1076              		.thumb
 1077              		.thumb_func
 1079              	HAL_RTCEx_WakeUpTimerEventCallback:
 1080              	.LVL76:
 1081              	.LFB311:
 764:Drivers/STM32H5xx_HAL_Driver/Src/stm32h5xx_hal_rtc_ex.c **** 
 765:Drivers/STM32H5xx_HAL_Driver/Src/stm32h5xx_hal_rtc_ex.c **** /**
 766:Drivers/STM32H5xx_HAL_Driver/Src/stm32h5xx_hal_rtc_ex.c ****   * @brief  Handle Wake Up Timer interrupt request.
 767:Drivers/STM32H5xx_HAL_Driver/Src/stm32h5xx_hal_rtc_ex.c ****   * @param  hrtc RTC handle
 768:Drivers/STM32H5xx_HAL_Driver/Src/stm32h5xx_hal_rtc_ex.c ****   * @retval None
 769:Drivers/STM32H5xx_HAL_Driver/Src/stm32h5xx_hal_rtc_ex.c ****   */
 770:Drivers/STM32H5xx_HAL_Driver/Src/stm32h5xx_hal_rtc_ex.c **** void HAL_RTCEx_WakeUpTimerIRQHandler(RTC_HandleTypeDef *hrtc)
 771:Drivers/STM32H5xx_HAL_Driver/Src/stm32h5xx_hal_rtc_ex.c **** {
 772:Drivers/STM32H5xx_HAL_Driver/Src/stm32h5xx_hal_rtc_ex.c ****   /* Get the pending status of the Wake-Up Timer Interrupt */
 773:Drivers/STM32H5xx_HAL_Driver/Src/stm32h5xx_hal_rtc_ex.c **** #if defined (__ARM_FEATURE_CMSE) && (__ARM_FEATURE_CMSE == 3U)
 774:Drivers/STM32H5xx_HAL_Driver/Src/stm32h5xx_hal_rtc_ex.c ****   if (READ_BIT(RTC->SMISR, RTC_SMISR_WUTMF) != 0U)
 775:Drivers/STM32H5xx_HAL_Driver/Src/stm32h5xx_hal_rtc_ex.c **** #else
 776:Drivers/STM32H5xx_HAL_Driver/Src/stm32h5xx_hal_rtc_ex.c ****   if (READ_BIT(RTC->MISR, RTC_MISR_WUTMF) != 0U)
 777:Drivers/STM32H5xx_HAL_Driver/Src/stm32h5xx_hal_rtc_ex.c **** #endif /* #if defined (__ARM_FEATURE_CMSE) && (__ARM_FEATURE_CMSE == 3U) */
 778:Drivers/STM32H5xx_HAL_Driver/Src/stm32h5xx_hal_rtc_ex.c ****   {
 779:Drivers/STM32H5xx_HAL_Driver/Src/stm32h5xx_hal_rtc_ex.c ****     /* Immediately clear flags */
 780:Drivers/STM32H5xx_HAL_Driver/Src/stm32h5xx_hal_rtc_ex.c ****     WRITE_REG(RTC->SCR, RTC_SCR_CWUTF);
 781:Drivers/STM32H5xx_HAL_Driver/Src/stm32h5xx_hal_rtc_ex.c **** #if (USE_HAL_RTC_REGISTER_CALLBACKS == 1)
 782:Drivers/STM32H5xx_HAL_Driver/Src/stm32h5xx_hal_rtc_ex.c ****     /* Call wake up timer registered Callback */
 783:Drivers/STM32H5xx_HAL_Driver/Src/stm32h5xx_hal_rtc_ex.c ****     hrtc->WakeUpTimerEventCallback(hrtc);
 784:Drivers/STM32H5xx_HAL_Driver/Src/stm32h5xx_hal_rtc_ex.c **** #else
 785:Drivers/STM32H5xx_HAL_Driver/Src/stm32h5xx_hal_rtc_ex.c ****     HAL_RTCEx_WakeUpTimerEventCallback(hrtc);
 786:Drivers/STM32H5xx_HAL_Driver/Src/stm32h5xx_hal_rtc_ex.c **** #endif /* USE_HAL_RTC_REGISTER_CALLBACKS */
 787:Drivers/STM32H5xx_HAL_Driver/Src/stm32h5xx_hal_rtc_ex.c ****   }
 788:Drivers/STM32H5xx_HAL_Driver/Src/stm32h5xx_hal_rtc_ex.c **** 
 789:Drivers/STM32H5xx_HAL_Driver/Src/stm32h5xx_hal_rtc_ex.c ****   /* Change RTC state */
 790:Drivers/STM32H5xx_HAL_Driver/Src/stm32h5xx_hal_rtc_ex.c ****   hrtc->State = HAL_RTC_STATE_READY;
 791:Drivers/STM32H5xx_HAL_Driver/Src/stm32h5xx_hal_rtc_ex.c **** }
 792:Drivers/STM32H5xx_HAL_Driver/Src/stm32h5xx_hal_rtc_ex.c **** 
 793:Drivers/STM32H5xx_HAL_Driver/Src/stm32h5xx_hal_rtc_ex.c **** /**
 794:Drivers/STM32H5xx_HAL_Driver/Src/stm32h5xx_hal_rtc_ex.c ****   * @brief  Wake Up Timer callback.
 795:Drivers/STM32H5xx_HAL_Driver/Src/stm32h5xx_hal_rtc_ex.c ****   * @param  hrtc RTC handle
 796:Drivers/STM32H5xx_HAL_Driver/Src/stm32h5xx_hal_rtc_ex.c ****   * @retval None
 797:Drivers/STM32H5xx_HAL_Driver/Src/stm32h5xx_hal_rtc_ex.c ****   */
 798:Drivers/STM32H5xx_HAL_Driver/Src/stm32h5xx_hal_rtc_ex.c **** __weak void HAL_RTCEx_WakeUpTimerEventCallback(RTC_HandleTypeDef *hrtc)
 799:Drivers/STM32H5xx_HAL_Driver/Src/stm32h5xx_hal_rtc_ex.c **** {
 1082              		.loc 1 799 1 is_stmt 1 view -0
ARM GAS  C:\Users\DELL\AppData\Local\Temp\ccMtHSyM.s 			page 35


 1083              		.cfi_startproc
 1084              		@ args = 0, pretend = 0, frame = 0
 1085              		@ frame_needed = 0, uses_anonymous_args = 0
 1086              		@ link register save eliminated.
 800:Drivers/STM32H5xx_HAL_Driver/Src/stm32h5xx_hal_rtc_ex.c ****   /* Prevent unused argument(s) compilation warning */
 801:Drivers/STM32H5xx_HAL_Driver/Src/stm32h5xx_hal_rtc_ex.c ****   UNUSED(hrtc);
 1087              		.loc 1 801 3 view .LVU333
 802:Drivers/STM32H5xx_HAL_Driver/Src/stm32h5xx_hal_rtc_ex.c **** 
 803:Drivers/STM32H5xx_HAL_Driver/Src/stm32h5xx_hal_rtc_ex.c ****   /* NOTE : This function should not be modified, when the callback is needed,
 804:Drivers/STM32H5xx_HAL_Driver/Src/stm32h5xx_hal_rtc_ex.c ****             the HAL_RTCEx_WakeUpTimerEventCallback could be implemented in the user file
 805:Drivers/STM32H5xx_HAL_Driver/Src/stm32h5xx_hal_rtc_ex.c ****    */
 806:Drivers/STM32H5xx_HAL_Driver/Src/stm32h5xx_hal_rtc_ex.c **** }
 1088              		.loc 1 806 1 is_stmt 0 view .LVU334
 1089 0000 7047     		bx	lr
 1090              		.cfi_endproc
 1091              	.LFE311:
 1093              		.section	.text.HAL_RTCEx_WakeUpTimerIRQHandler,"ax",%progbits
 1094              		.align	1
 1095              		.global	HAL_RTCEx_WakeUpTimerIRQHandler
 1096              		.syntax unified
 1097              		.thumb
 1098              		.thumb_func
 1100              	HAL_RTCEx_WakeUpTimerIRQHandler:
 1101              	.LVL77:
 1102              	.LFB310:
 771:Drivers/STM32H5xx_HAL_Driver/Src/stm32h5xx_hal_rtc_ex.c ****   /* Get the pending status of the Wake-Up Timer Interrupt */
 1103              		.loc 1 771 1 is_stmt 1 view -0
 1104              		.cfi_startproc
 1105              		@ args = 0, pretend = 0, frame = 0
 1106              		@ frame_needed = 0, uses_anonymous_args = 0
 771:Drivers/STM32H5xx_HAL_Driver/Src/stm32h5xx_hal_rtc_ex.c ****   /* Get the pending status of the Wake-Up Timer Interrupt */
 1107              		.loc 1 771 1 is_stmt 0 view .LVU336
 1108 0000 10B5     		push	{r4, lr}
 1109              	.LCFI5:
 1110              		.cfi_def_cfa_offset 8
 1111              		.cfi_offset 4, -8
 1112              		.cfi_offset 14, -4
 1113 0002 0446     		mov	r4, r0
 776:Drivers/STM32H5xx_HAL_Driver/Src/stm32h5xx_hal_rtc_ex.c **** #endif /* #if defined (__ARM_FEATURE_CMSE) && (__ARM_FEATURE_CMSE == 3U) */
 1114              		.loc 1 776 3 is_stmt 1 view .LVU337
 776:Drivers/STM32H5xx_HAL_Driver/Src/stm32h5xx_hal_rtc_ex.c **** #endif /* #if defined (__ARM_FEATURE_CMSE) && (__ARM_FEATURE_CMSE == 3U) */
 1115              		.loc 1 776 7 is_stmt 0 view .LVU338
 1116 0004 074B     		ldr	r3, .L85
 1117 0006 5B6D     		ldr	r3, [r3, #84]
 776:Drivers/STM32H5xx_HAL_Driver/Src/stm32h5xx_hal_rtc_ex.c **** #endif /* #if defined (__ARM_FEATURE_CMSE) && (__ARM_FEATURE_CMSE == 3U) */
 1118              		.loc 1 776 6 view .LVU339
 1119 0008 13F0040F 		tst	r3, #4
 1120 000c 03D1     		bne	.L84
 1121              	.LVL78:
 1122              	.L82:
 790:Drivers/STM32H5xx_HAL_Driver/Src/stm32h5xx_hal_rtc_ex.c **** }
 1123              		.loc 1 790 3 is_stmt 1 view .LVU340
 790:Drivers/STM32H5xx_HAL_Driver/Src/stm32h5xx_hal_rtc_ex.c **** }
 1124              		.loc 1 790 15 is_stmt 0 view .LVU341
 1125 000e 0123     		movs	r3, #1
 1126 0010 84F82D30 		strb	r3, [r4, #45]
 791:Drivers/STM32H5xx_HAL_Driver/Src/stm32h5xx_hal_rtc_ex.c **** 
ARM GAS  C:\Users\DELL\AppData\Local\Temp\ccMtHSyM.s 			page 36


 1127              		.loc 1 791 1 view .LVU342
 1128 0014 10BD     		pop	{r4, pc}
 1129              	.LVL79:
 1130              	.L84:
 780:Drivers/STM32H5xx_HAL_Driver/Src/stm32h5xx_hal_rtc_ex.c **** #if (USE_HAL_RTC_REGISTER_CALLBACKS == 1)
 1131              		.loc 1 780 5 is_stmt 1 view .LVU343
 1132 0016 034B     		ldr	r3, .L85
 1133 0018 0422     		movs	r2, #4
 1134 001a DA65     		str	r2, [r3, #92]
 785:Drivers/STM32H5xx_HAL_Driver/Src/stm32h5xx_hal_rtc_ex.c **** #endif /* USE_HAL_RTC_REGISTER_CALLBACKS */
 1135              		.loc 1 785 5 view .LVU344
 1136 001c FFF7FEFF 		bl	HAL_RTCEx_WakeUpTimerEventCallback
 1137              	.LVL80:
 785:Drivers/STM32H5xx_HAL_Driver/Src/stm32h5xx_hal_rtc_ex.c **** #endif /* USE_HAL_RTC_REGISTER_CALLBACKS */
 1138              		.loc 1 785 5 is_stmt 0 view .LVU345
 1139 0020 F5E7     		b	.L82
 1140              	.L86:
 1141 0022 00BF     		.align	2
 1142              	.L85:
 1143 0024 00780044 		.word	1140881408
 1144              		.cfi_endproc
 1145              	.LFE310:
 1147              		.section	.text.HAL_RTCEx_PollForWakeUpTimerEvent,"ax",%progbits
 1148              		.align	1
 1149              		.global	HAL_RTCEx_PollForWakeUpTimerEvent
 1150              		.syntax unified
 1151              		.thumb
 1152              		.thumb_func
 1154              	HAL_RTCEx_PollForWakeUpTimerEvent:
 1155              	.LVL81:
 1156              	.LFB312:
 807:Drivers/STM32H5xx_HAL_Driver/Src/stm32h5xx_hal_rtc_ex.c **** 
 808:Drivers/STM32H5xx_HAL_Driver/Src/stm32h5xx_hal_rtc_ex.c **** /**
 809:Drivers/STM32H5xx_HAL_Driver/Src/stm32h5xx_hal_rtc_ex.c ****   * @brief  Handle Wake Up Timer Polling.
 810:Drivers/STM32H5xx_HAL_Driver/Src/stm32h5xx_hal_rtc_ex.c ****   * @param  hrtc RTC handle
 811:Drivers/STM32H5xx_HAL_Driver/Src/stm32h5xx_hal_rtc_ex.c ****   * @param  Timeout Timeout duration
 812:Drivers/STM32H5xx_HAL_Driver/Src/stm32h5xx_hal_rtc_ex.c ****   * @retval HAL status
 813:Drivers/STM32H5xx_HAL_Driver/Src/stm32h5xx_hal_rtc_ex.c ****   */
 814:Drivers/STM32H5xx_HAL_Driver/Src/stm32h5xx_hal_rtc_ex.c **** HAL_StatusTypeDef HAL_RTCEx_PollForWakeUpTimerEvent(const RTC_HandleTypeDef *hrtc, uint32_t Timeout
 815:Drivers/STM32H5xx_HAL_Driver/Src/stm32h5xx_hal_rtc_ex.c **** {
 1157              		.loc 1 815 1 is_stmt 1 view -0
 1158              		.cfi_startproc
 1159              		@ args = 0, pretend = 0, frame = 0
 1160              		@ frame_needed = 0, uses_anonymous_args = 0
 1161              		.loc 1 815 1 is_stmt 0 view .LVU347
 1162 0000 38B5     		push	{r3, r4, r5, lr}
 1163              	.LCFI6:
 1164              		.cfi_def_cfa_offset 16
 1165              		.cfi_offset 3, -16
 1166              		.cfi_offset 4, -12
 1167              		.cfi_offset 5, -8
 1168              		.cfi_offset 14, -4
 1169 0002 0C46     		mov	r4, r1
 816:Drivers/STM32H5xx_HAL_Driver/Src/stm32h5xx_hal_rtc_ex.c ****   /* Prevent unused argument(s) compilation warning */
 817:Drivers/STM32H5xx_HAL_Driver/Src/stm32h5xx_hal_rtc_ex.c ****   UNUSED(hrtc);
 1170              		.loc 1 817 3 is_stmt 1 view .LVU348
 818:Drivers/STM32H5xx_HAL_Driver/Src/stm32h5xx_hal_rtc_ex.c **** 
ARM GAS  C:\Users\DELL\AppData\Local\Temp\ccMtHSyM.s 			page 37


 819:Drivers/STM32H5xx_HAL_Driver/Src/stm32h5xx_hal_rtc_ex.c ****   uint32_t tickstart = HAL_GetTick();
 1171              		.loc 1 819 3 view .LVU349
 1172              		.loc 1 819 24 is_stmt 0 view .LVU350
 1173 0004 FFF7FEFF 		bl	HAL_GetTick
 1174              	.LVL82:
 1175              		.loc 1 819 24 view .LVU351
 1176 0008 0546     		mov	r5, r0
 1177              	.LVL83:
 820:Drivers/STM32H5xx_HAL_Driver/Src/stm32h5xx_hal_rtc_ex.c **** 
 821:Drivers/STM32H5xx_HAL_Driver/Src/stm32h5xx_hal_rtc_ex.c ****   while (READ_BIT(RTC->SR, RTC_SR_WUTF) == 0U)
 1178              		.loc 1 821 3 is_stmt 1 view .LVU352
 1179              	.L89:
 1180              		.loc 1 821 41 view .LVU353
 1181              		.loc 1 821 10 is_stmt 0 view .LVU354
 1182 000a 0D4B     		ldr	r3, .L97
 1183 000c 1B6D     		ldr	r3, [r3, #80]
 1184              		.loc 1 821 41 view .LVU355
 1185 000e 13F0040F 		tst	r3, #4
 1186 0012 0ED1     		bne	.L92
 822:Drivers/STM32H5xx_HAL_Driver/Src/stm32h5xx_hal_rtc_ex.c ****   {
 823:Drivers/STM32H5xx_HAL_Driver/Src/stm32h5xx_hal_rtc_ex.c ****     if (Timeout != HAL_MAX_DELAY)
 1187              		.loc 1 823 5 is_stmt 1 view .LVU356
 1188              		.loc 1 823 8 is_stmt 0 view .LVU357
 1189 0014 B4F1FF3F 		cmp	r4, #-1
 1190 0018 F7D0     		beq	.L89
 824:Drivers/STM32H5xx_HAL_Driver/Src/stm32h5xx_hal_rtc_ex.c ****     {
 825:Drivers/STM32H5xx_HAL_Driver/Src/stm32h5xx_hal_rtc_ex.c ****       if (((HAL_GetTick() - tickstart) > Timeout) || (Timeout == 0U))
 1191              		.loc 1 825 7 is_stmt 1 view .LVU358
 1192              		.loc 1 825 13 is_stmt 0 view .LVU359
 1193 001a FFF7FEFF 		bl	HAL_GetTick
 1194              	.LVL84:
 1195              		.loc 1 825 27 discriminator 1 view .LVU360
 1196 001e 401B     		subs	r0, r0, r5
 1197              		.loc 1 825 10 discriminator 1 view .LVU361
 1198 0020 A042     		cmp	r0, r4
 1199 0022 01D8     		bhi	.L90
 1200              		.loc 1 825 51 discriminator 1 view .LVU362
 1201 0024 002C     		cmp	r4, #0
 1202 0026 F0D1     		bne	.L89
 1203              	.L90:
 826:Drivers/STM32H5xx_HAL_Driver/Src/stm32h5xx_hal_rtc_ex.c ****       {
 827:Drivers/STM32H5xx_HAL_Driver/Src/stm32h5xx_hal_rtc_ex.c ****         /* New check to avoid false timeout detection in case of preemption */
 828:Drivers/STM32H5xx_HAL_Driver/Src/stm32h5xx_hal_rtc_ex.c ****         if (READ_BIT(RTC->SR, RTC_SR_WUTF) == 0U)
 1204              		.loc 1 828 9 is_stmt 1 view .LVU363
 1205              		.loc 1 828 13 is_stmt 0 view .LVU364
 1206 0028 054B     		ldr	r3, .L97
 1207 002a 1B6D     		ldr	r3, [r3, #80]
 1208              		.loc 1 828 12 view .LVU365
 1209 002c 13F0040F 		tst	r3, #4
 1210 0030 04D0     		beq	.L96
 1211              	.L92:
 829:Drivers/STM32H5xx_HAL_Driver/Src/stm32h5xx_hal_rtc_ex.c ****         {
 830:Drivers/STM32H5xx_HAL_Driver/Src/stm32h5xx_hal_rtc_ex.c ****           return HAL_TIMEOUT;
 831:Drivers/STM32H5xx_HAL_Driver/Src/stm32h5xx_hal_rtc_ex.c ****         }
 832:Drivers/STM32H5xx_HAL_Driver/Src/stm32h5xx_hal_rtc_ex.c ****         else
 833:Drivers/STM32H5xx_HAL_Driver/Src/stm32h5xx_hal_rtc_ex.c ****         {
 834:Drivers/STM32H5xx_HAL_Driver/Src/stm32h5xx_hal_rtc_ex.c ****           break;
ARM GAS  C:\Users\DELL\AppData\Local\Temp\ccMtHSyM.s 			page 38


 835:Drivers/STM32H5xx_HAL_Driver/Src/stm32h5xx_hal_rtc_ex.c ****         }
 836:Drivers/STM32H5xx_HAL_Driver/Src/stm32h5xx_hal_rtc_ex.c ****       }
 837:Drivers/STM32H5xx_HAL_Driver/Src/stm32h5xx_hal_rtc_ex.c ****     }
 838:Drivers/STM32H5xx_HAL_Driver/Src/stm32h5xx_hal_rtc_ex.c ****   }
 839:Drivers/STM32H5xx_HAL_Driver/Src/stm32h5xx_hal_rtc_ex.c **** 
 840:Drivers/STM32H5xx_HAL_Driver/Src/stm32h5xx_hal_rtc_ex.c ****   /* Clear the WAKEUPTIMER Flag */
 841:Drivers/STM32H5xx_HAL_Driver/Src/stm32h5xx_hal_rtc_ex.c ****   WRITE_REG(RTC->SCR, RTC_SCR_CWUTF);
 1212              		.loc 1 841 3 is_stmt 1 view .LVU366
 1213 0032 034B     		ldr	r3, .L97
 1214 0034 0422     		movs	r2, #4
 1215 0036 DA65     		str	r2, [r3, #92]
 842:Drivers/STM32H5xx_HAL_Driver/Src/stm32h5xx_hal_rtc_ex.c **** 
 843:Drivers/STM32H5xx_HAL_Driver/Src/stm32h5xx_hal_rtc_ex.c ****   return HAL_OK;
 1216              		.loc 1 843 3 view .LVU367
 1217              		.loc 1 843 10 is_stmt 0 view .LVU368
 1218 0038 0020     		movs	r0, #0
 1219              	.L91:
 844:Drivers/STM32H5xx_HAL_Driver/Src/stm32h5xx_hal_rtc_ex.c **** }
 1220              		.loc 1 844 1 view .LVU369
 1221 003a 38BD     		pop	{r3, r4, r5, pc}
 1222              	.LVL85:
 1223              	.L96:
 830:Drivers/STM32H5xx_HAL_Driver/Src/stm32h5xx_hal_rtc_ex.c ****         }
 1224              		.loc 1 830 18 view .LVU370
 1225 003c 0320     		movs	r0, #3
 1226 003e FCE7     		b	.L91
 1227              	.L98:
 1228              		.align	2
 1229              	.L97:
 1230 0040 00780044 		.word	1140881408
 1231              		.cfi_endproc
 1232              	.LFE312:
 1234              		.section	.text.HAL_RTCEx_SetSmoothCalib,"ax",%progbits
 1235              		.align	1
 1236              		.global	HAL_RTCEx_SetSmoothCalib
 1237              		.syntax unified
 1238              		.thumb
 1239              		.thumb_func
 1241              	HAL_RTCEx_SetSmoothCalib:
 1242              	.LVL86:
 1243              	.LFB313:
 845:Drivers/STM32H5xx_HAL_Driver/Src/stm32h5xx_hal_rtc_ex.c **** 
 846:Drivers/STM32H5xx_HAL_Driver/Src/stm32h5xx_hal_rtc_ex.c **** /**
 847:Drivers/STM32H5xx_HAL_Driver/Src/stm32h5xx_hal_rtc_ex.c ****   * @}
 848:Drivers/STM32H5xx_HAL_Driver/Src/stm32h5xx_hal_rtc_ex.c ****   */
 849:Drivers/STM32H5xx_HAL_Driver/Src/stm32h5xx_hal_rtc_ex.c **** 
 850:Drivers/STM32H5xx_HAL_Driver/Src/stm32h5xx_hal_rtc_ex.c **** /** @addtogroup RTCEx_Exported_Functions_Group3
 851:Drivers/STM32H5xx_HAL_Driver/Src/stm32h5xx_hal_rtc_ex.c ****   * @brief    Extended Peripheral Control functions
 852:Drivers/STM32H5xx_HAL_Driver/Src/stm32h5xx_hal_rtc_ex.c ****   *
 853:Drivers/STM32H5xx_HAL_Driver/Src/stm32h5xx_hal_rtc_ex.c **** @verbatim
 854:Drivers/STM32H5xx_HAL_Driver/Src/stm32h5xx_hal_rtc_ex.c ****  ===============================================================================
 855:Drivers/STM32H5xx_HAL_Driver/Src/stm32h5xx_hal_rtc_ex.c ****               ##### Extended Peripheral Control functions #####
 856:Drivers/STM32H5xx_HAL_Driver/Src/stm32h5xx_hal_rtc_ex.c ****  ===============================================================================
 857:Drivers/STM32H5xx_HAL_Driver/Src/stm32h5xx_hal_rtc_ex.c ****     [..]
 858:Drivers/STM32H5xx_HAL_Driver/Src/stm32h5xx_hal_rtc_ex.c ****     This subsection provides functions allowing to
 859:Drivers/STM32H5xx_HAL_Driver/Src/stm32h5xx_hal_rtc_ex.c ****       (+) Write a data in a specified RTC Backup data register
 860:Drivers/STM32H5xx_HAL_Driver/Src/stm32h5xx_hal_rtc_ex.c ****       (+) Read a data in a specified RTC Backup data register
ARM GAS  C:\Users\DELL\AppData\Local\Temp\ccMtHSyM.s 			page 39


 861:Drivers/STM32H5xx_HAL_Driver/Src/stm32h5xx_hal_rtc_ex.c ****       (+) Set the Coarse calibration parameters.
 862:Drivers/STM32H5xx_HAL_Driver/Src/stm32h5xx_hal_rtc_ex.c ****       (+) Deactivate the Coarse calibration parameters
 863:Drivers/STM32H5xx_HAL_Driver/Src/stm32h5xx_hal_rtc_ex.c ****       (+) Set the Smooth calibration parameters.
 864:Drivers/STM32H5xx_HAL_Driver/Src/stm32h5xx_hal_rtc_ex.c ****       (+) Set Low Power calibration parameter.
 865:Drivers/STM32H5xx_HAL_Driver/Src/stm32h5xx_hal_rtc_ex.c ****       (+) Configure the Synchronization Shift Control Settings.
 866:Drivers/STM32H5xx_HAL_Driver/Src/stm32h5xx_hal_rtc_ex.c ****       (+) Configure the Calibration Pinout (RTC_CALIB) Selection (1Hz or 512Hz).
 867:Drivers/STM32H5xx_HAL_Driver/Src/stm32h5xx_hal_rtc_ex.c ****       (+) Deactivate the Calibration Pinout (RTC_CALIB) Selection (1Hz or 512Hz).
 868:Drivers/STM32H5xx_HAL_Driver/Src/stm32h5xx_hal_rtc_ex.c ****       (+) Enable the RTC reference clock detection.
 869:Drivers/STM32H5xx_HAL_Driver/Src/stm32h5xx_hal_rtc_ex.c ****       (+) Disable the RTC reference clock detection.
 870:Drivers/STM32H5xx_HAL_Driver/Src/stm32h5xx_hal_rtc_ex.c ****       (+) Enable the Bypass Shadow feature.
 871:Drivers/STM32H5xx_HAL_Driver/Src/stm32h5xx_hal_rtc_ex.c ****       (+) Disable the Bypass Shadow feature.
 872:Drivers/STM32H5xx_HAL_Driver/Src/stm32h5xx_hal_rtc_ex.c **** 
 873:Drivers/STM32H5xx_HAL_Driver/Src/stm32h5xx_hal_rtc_ex.c **** @endverbatim
 874:Drivers/STM32H5xx_HAL_Driver/Src/stm32h5xx_hal_rtc_ex.c ****   * @{
 875:Drivers/STM32H5xx_HAL_Driver/Src/stm32h5xx_hal_rtc_ex.c ****   */
 876:Drivers/STM32H5xx_HAL_Driver/Src/stm32h5xx_hal_rtc_ex.c **** 
 877:Drivers/STM32H5xx_HAL_Driver/Src/stm32h5xx_hal_rtc_ex.c **** /**
 878:Drivers/STM32H5xx_HAL_Driver/Src/stm32h5xx_hal_rtc_ex.c ****   * @brief  Set the Smooth calibration parameters.
 879:Drivers/STM32H5xx_HAL_Driver/Src/stm32h5xx_hal_rtc_ex.c ****   * @note   To deactivate the smooth calibration, the field SmoothCalibPlusPulses
 880:Drivers/STM32H5xx_HAL_Driver/Src/stm32h5xx_hal_rtc_ex.c ****   *         must be equal to SMOOTHCALIB_PLUSPULSES_RESET and the field
 881:Drivers/STM32H5xx_HAL_Driver/Src/stm32h5xx_hal_rtc_ex.c ****   *         SmoothCalibMinusPulsesValue must be equal to 0.
 882:Drivers/STM32H5xx_HAL_Driver/Src/stm32h5xx_hal_rtc_ex.c ****   * @param  hrtc RTC handle
 883:Drivers/STM32H5xx_HAL_Driver/Src/stm32h5xx_hal_rtc_ex.c ****   * @param  SmoothCalibPeriod  Select the Smooth Calibration Period.
 884:Drivers/STM32H5xx_HAL_Driver/Src/stm32h5xx_hal_rtc_ex.c ****   *          This parameter can be one of the following values :
 885:Drivers/STM32H5xx_HAL_Driver/Src/stm32h5xx_hal_rtc_ex.c ****   *             @arg RTC_SMOOTHCALIB_PERIOD_32SEC: The smooth calibration period is 32s.
 886:Drivers/STM32H5xx_HAL_Driver/Src/stm32h5xx_hal_rtc_ex.c ****   *             @arg RTC_SMOOTHCALIB_PERIOD_16SEC: The smooth calibration period is 16s.
 887:Drivers/STM32H5xx_HAL_Driver/Src/stm32h5xx_hal_rtc_ex.c ****   *             @arg RTC_SMOOTHCALIB_PERIOD_8SEC: The smooth calibration period is 8s.
 888:Drivers/STM32H5xx_HAL_Driver/Src/stm32h5xx_hal_rtc_ex.c ****   * @param  SmoothCalibPlusPulses  Select to Set or reset the CALP bit.
 889:Drivers/STM32H5xx_HAL_Driver/Src/stm32h5xx_hal_rtc_ex.c ****   *          This parameter can be one of the following values:
 890:Drivers/STM32H5xx_HAL_Driver/Src/stm32h5xx_hal_rtc_ex.c ****   *             @arg RTC_SMOOTHCALIB_PLUSPULSES_SET: Add one RTCCLK pulse every 2*11 pulses.
 891:Drivers/STM32H5xx_HAL_Driver/Src/stm32h5xx_hal_rtc_ex.c ****   *             @arg RTC_SMOOTHCALIB_PLUSPULSES_RESET: No RTCCLK pulses are added.
 892:Drivers/STM32H5xx_HAL_Driver/Src/stm32h5xx_hal_rtc_ex.c ****   * @param  SmoothCalibMinusPulsesValue  Select the value of CALM[8:0] bits.
 893:Drivers/STM32H5xx_HAL_Driver/Src/stm32h5xx_hal_rtc_ex.c ****   *          This parameter can be one any value from 0 to 0x000001FF.
 894:Drivers/STM32H5xx_HAL_Driver/Src/stm32h5xx_hal_rtc_ex.c ****   * @retval HAL status
 895:Drivers/STM32H5xx_HAL_Driver/Src/stm32h5xx_hal_rtc_ex.c ****   */
 896:Drivers/STM32H5xx_HAL_Driver/Src/stm32h5xx_hal_rtc_ex.c **** HAL_StatusTypeDef HAL_RTCEx_SetSmoothCalib(RTC_HandleTypeDef *hrtc, uint32_t SmoothCalibPeriod,
 897:Drivers/STM32H5xx_HAL_Driver/Src/stm32h5xx_hal_rtc_ex.c ****                                            uint32_t SmoothCalibPlusPulses, uint32_t SmoothCalibMinu
 898:Drivers/STM32H5xx_HAL_Driver/Src/stm32h5xx_hal_rtc_ex.c **** {
 1244              		.loc 1 898 1 is_stmt 1 view -0
 1245              		.cfi_startproc
 1246              		@ args = 0, pretend = 0, frame = 0
 1247              		@ frame_needed = 0, uses_anonymous_args = 0
 1248              		.loc 1 898 1 is_stmt 0 view .LVU372
 1249 0000 2DE9F843 		push	{r3, r4, r5, r6, r7, r8, r9, lr}
 1250              	.LCFI7:
 1251              		.cfi_def_cfa_offset 32
 1252              		.cfi_offset 3, -32
 1253              		.cfi_offset 4, -28
 1254              		.cfi_offset 5, -24
 1255              		.cfi_offset 6, -20
 1256              		.cfi_offset 7, -16
 1257              		.cfi_offset 8, -12
 1258              		.cfi_offset 9, -8
 1259              		.cfi_offset 14, -4
 1260 0004 9846     		mov	r8, r3
 899:Drivers/STM32H5xx_HAL_Driver/Src/stm32h5xx_hal_rtc_ex.c ****   uint32_t tickstart;
 1261              		.loc 1 899 3 is_stmt 1 view .LVU373
ARM GAS  C:\Users\DELL\AppData\Local\Temp\ccMtHSyM.s 			page 40


 900:Drivers/STM32H5xx_HAL_Driver/Src/stm32h5xx_hal_rtc_ex.c **** 
 901:Drivers/STM32H5xx_HAL_Driver/Src/stm32h5xx_hal_rtc_ex.c ****   /* Check the parameters */
 902:Drivers/STM32H5xx_HAL_Driver/Src/stm32h5xx_hal_rtc_ex.c ****   assert_param(IS_RTC_SMOOTH_CALIB_PERIOD(SmoothCalibPeriod));
 1262              		.loc 1 902 3 view .LVU374
 903:Drivers/STM32H5xx_HAL_Driver/Src/stm32h5xx_hal_rtc_ex.c ****   assert_param(IS_RTC_SMOOTH_CALIB_PLUS(SmoothCalibPlusPulses));
 1263              		.loc 1 903 3 view .LVU375
 904:Drivers/STM32H5xx_HAL_Driver/Src/stm32h5xx_hal_rtc_ex.c ****   assert_param(IS_RTC_SMOOTH_CALIB_MINUS(SmoothCalibMinusPulsesValue));
 1264              		.loc 1 904 3 view .LVU376
 905:Drivers/STM32H5xx_HAL_Driver/Src/stm32h5xx_hal_rtc_ex.c **** 
 906:Drivers/STM32H5xx_HAL_Driver/Src/stm32h5xx_hal_rtc_ex.c ****   /* Process Locked */
 907:Drivers/STM32H5xx_HAL_Driver/Src/stm32h5xx_hal_rtc_ex.c ****   __HAL_LOCK(hrtc);
 1265              		.loc 1 907 3 view .LVU377
 1266              		.loc 1 907 3 view .LVU378
 1267 0006 90F82C30 		ldrb	r3, [r0, #44]	@ zero_extendqisi2
 1268              	.LVL87:
 1269              		.loc 1 907 3 is_stmt 0 view .LVU379
 1270 000a 012B     		cmp	r3, #1
 1271 000c 3DD0     		beq	.L104
 1272 000e 0646     		mov	r6, r0
 1273 0010 0F46     		mov	r7, r1
 1274 0012 9146     		mov	r9, r2
 1275              		.loc 1 907 3 is_stmt 1 discriminator 2 view .LVU380
 1276 0014 0123     		movs	r3, #1
 1277 0016 80F82C30 		strb	r3, [r0, #44]
 1278              		.loc 1 907 3 view .LVU381
 908:Drivers/STM32H5xx_HAL_Driver/Src/stm32h5xx_hal_rtc_ex.c **** 
 909:Drivers/STM32H5xx_HAL_Driver/Src/stm32h5xx_hal_rtc_ex.c ****   /* Change RTC state */
 910:Drivers/STM32H5xx_HAL_Driver/Src/stm32h5xx_hal_rtc_ex.c ****   hrtc->State = HAL_RTC_STATE_BUSY;
 1279              		.loc 1 910 3 view .LVU382
 1280              		.loc 1 910 15 is_stmt 0 view .LVU383
 1281 001a 0223     		movs	r3, #2
 1282 001c 80F82D30 		strb	r3, [r0, #45]
 911:Drivers/STM32H5xx_HAL_Driver/Src/stm32h5xx_hal_rtc_ex.c **** 
 912:Drivers/STM32H5xx_HAL_Driver/Src/stm32h5xx_hal_rtc_ex.c ****   tickstart = HAL_GetTick();
 1283              		.loc 1 912 3 is_stmt 1 view .LVU384
 1284              		.loc 1 912 15 is_stmt 0 view .LVU385
 1285 0020 FFF7FEFF 		bl	HAL_GetTick
 1286              	.LVL88:
 1287              		.loc 1 912 15 view .LVU386
 1288 0024 0546     		mov	r5, r0
 1289              	.LVL89:
 913:Drivers/STM32H5xx_HAL_Driver/Src/stm32h5xx_hal_rtc_ex.c **** 
 914:Drivers/STM32H5xx_HAL_Driver/Src/stm32h5xx_hal_rtc_ex.c ****   /* check if a calibration is pending */
 915:Drivers/STM32H5xx_HAL_Driver/Src/stm32h5xx_hal_rtc_ex.c ****   while (READ_BIT(RTC->ICSR, RTC_ICSR_RECALPF) != 0U)
 1290              		.loc 1 915 3 is_stmt 1 view .LVU387
 1291              	.L101:
 1292              		.loc 1 915 48 view .LVU388
 1293              		.loc 1 915 10 is_stmt 0 view .LVU389
 1294 0026 1A4B     		ldr	r3, .L107
 1295 0028 DC68     		ldr	r4, [r3, #12]
 1296              		.loc 1 915 48 view .LVU390
 1297 002a 14F4803F 		tst	r4, #65536
 1298 002e 0BD0     		beq	.L102
 916:Drivers/STM32H5xx_HAL_Driver/Src/stm32h5xx_hal_rtc_ex.c ****   {
 917:Drivers/STM32H5xx_HAL_Driver/Src/stm32h5xx_hal_rtc_ex.c ****     if ((HAL_GetTick() - tickstart) > RTC_TIMEOUT_VALUE)
 1299              		.loc 1 917 5 is_stmt 1 view .LVU391
 1300              		.loc 1 917 10 is_stmt 0 view .LVU392
ARM GAS  C:\Users\DELL\AppData\Local\Temp\ccMtHSyM.s 			page 41


 1301 0030 FFF7FEFF 		bl	HAL_GetTick
 1302              	.LVL90:
 1303              		.loc 1 917 24 discriminator 1 view .LVU393
 1304 0034 A0EB050C 		sub	ip, r0, r5
 1305              		.loc 1 917 8 discriminator 1 view .LVU394
 1306 0038 BCF57A7F 		cmp	ip, #1000
 1307 003c F3D9     		bls	.L101
 918:Drivers/STM32H5xx_HAL_Driver/Src/stm32h5xx_hal_rtc_ex.c ****     {
 919:Drivers/STM32H5xx_HAL_Driver/Src/stm32h5xx_hal_rtc_ex.c ****       /* New check to avoid false timeout detection in case of preemption */
 920:Drivers/STM32H5xx_HAL_Driver/Src/stm32h5xx_hal_rtc_ex.c ****       if (READ_BIT(RTC->ICSR, RTC_ICSR_RECALPF) != 0U)
 1308              		.loc 1 920 7 is_stmt 1 view .LVU395
 1309              		.loc 1 920 11 is_stmt 0 view .LVU396
 1310 003e 144B     		ldr	r3, .L107
 1311 0040 DB68     		ldr	r3, [r3, #12]
 1312              		.loc 1 920 10 view .LVU397
 1313 0042 13F4803F 		tst	r3, #65536
 1314 0046 19D1     		bne	.L106
 1315              	.L102:
 921:Drivers/STM32H5xx_HAL_Driver/Src/stm32h5xx_hal_rtc_ex.c ****       {
 922:Drivers/STM32H5xx_HAL_Driver/Src/stm32h5xx_hal_rtc_ex.c **** 
 923:Drivers/STM32H5xx_HAL_Driver/Src/stm32h5xx_hal_rtc_ex.c ****         /* Change RTC state */
 924:Drivers/STM32H5xx_HAL_Driver/Src/stm32h5xx_hal_rtc_ex.c ****         hrtc->State = HAL_RTC_STATE_TIMEOUT;
 925:Drivers/STM32H5xx_HAL_Driver/Src/stm32h5xx_hal_rtc_ex.c **** 
 926:Drivers/STM32H5xx_HAL_Driver/Src/stm32h5xx_hal_rtc_ex.c ****         /* Process Unlocked */
 927:Drivers/STM32H5xx_HAL_Driver/Src/stm32h5xx_hal_rtc_ex.c ****         __HAL_UNLOCK(hrtc);
 928:Drivers/STM32H5xx_HAL_Driver/Src/stm32h5xx_hal_rtc_ex.c **** 
 929:Drivers/STM32H5xx_HAL_Driver/Src/stm32h5xx_hal_rtc_ex.c ****         return HAL_TIMEOUT;
 930:Drivers/STM32H5xx_HAL_Driver/Src/stm32h5xx_hal_rtc_ex.c ****       }
 931:Drivers/STM32H5xx_HAL_Driver/Src/stm32h5xx_hal_rtc_ex.c ****       else
 932:Drivers/STM32H5xx_HAL_Driver/Src/stm32h5xx_hal_rtc_ex.c ****       {
 933:Drivers/STM32H5xx_HAL_Driver/Src/stm32h5xx_hal_rtc_ex.c ****         break;
 934:Drivers/STM32H5xx_HAL_Driver/Src/stm32h5xx_hal_rtc_ex.c ****       }
 935:Drivers/STM32H5xx_HAL_Driver/Src/stm32h5xx_hal_rtc_ex.c ****     }
 936:Drivers/STM32H5xx_HAL_Driver/Src/stm32h5xx_hal_rtc_ex.c ****   }
 937:Drivers/STM32H5xx_HAL_Driver/Src/stm32h5xx_hal_rtc_ex.c **** 
 938:Drivers/STM32H5xx_HAL_Driver/Src/stm32h5xx_hal_rtc_ex.c ****   /* Disable the write protection for RTC registers */
 939:Drivers/STM32H5xx_HAL_Driver/Src/stm32h5xx_hal_rtc_ex.c ****   __HAL_RTC_WRITEPROTECTION_DISABLE(hrtc);
 1316              		.loc 1 939 3 is_stmt 1 view .LVU398
 1317              		.loc 1 939 3 view .LVU399
 1318 0048 114A     		ldr	r2, .L107
 1319 004a CA23     		movs	r3, #202
 1320 004c 5362     		str	r3, [r2, #36]
 1321              		.loc 1 939 3 view .LVU400
 1322 004e 5323     		movs	r3, #83
 1323 0050 5362     		str	r3, [r2, #36]
 1324              		.loc 1 939 3 view .LVU401
 940:Drivers/STM32H5xx_HAL_Driver/Src/stm32h5xx_hal_rtc_ex.c **** 
 941:Drivers/STM32H5xx_HAL_Driver/Src/stm32h5xx_hal_rtc_ex.c ****   /* Configure the Smooth calibration settings */
 942:Drivers/STM32H5xx_HAL_Driver/Src/stm32h5xx_hal_rtc_ex.c ****   MODIFY_REG(RTC->CALR, (RTC_CALR_CALP | RTC_CALR_CALW8 | RTC_CALR_CALW16 | RTC_CALR_CALM),
 1325              		.loc 1 942 3 view .LVU402
 1326 0052 936A     		ldr	r3, [r2, #40]
 1327 0054 23F46143 		bic	r3, r3, #57600
 1328 0058 23F0FF03 		bic	r3, r3, #255
 1329 005c 47EA0907 		orr	r7, r7, r9
 1330              	.LVL91:
 1331              		.loc 1 942 3 is_stmt 0 view .LVU403
 1332 0060 47EA0807 		orr	r7, r7, r8
ARM GAS  C:\Users\DELL\AppData\Local\Temp\ccMtHSyM.s 			page 42


 1333 0064 3B43     		orrs	r3, r3, r7
 1334 0066 9362     		str	r3, [r2, #40]
 943:Drivers/STM32H5xx_HAL_Driver/Src/stm32h5xx_hal_rtc_ex.c ****              (uint32_t)(SmoothCalibPeriod | SmoothCalibPlusPulses | SmoothCalibMinusPulsesValue));
 944:Drivers/STM32H5xx_HAL_Driver/Src/stm32h5xx_hal_rtc_ex.c **** 
 945:Drivers/STM32H5xx_HAL_Driver/Src/stm32h5xx_hal_rtc_ex.c ****   /* Enable the write protection for RTC registers */
 946:Drivers/STM32H5xx_HAL_Driver/Src/stm32h5xx_hal_rtc_ex.c ****   __HAL_RTC_WRITEPROTECTION_ENABLE(hrtc);
 1335              		.loc 1 946 3 is_stmt 1 view .LVU404
 1336              		.loc 1 946 3 view .LVU405
 1337 0068 FF23     		movs	r3, #255
 1338 006a 5362     		str	r3, [r2, #36]
 1339              		.loc 1 946 3 view .LVU406
 947:Drivers/STM32H5xx_HAL_Driver/Src/stm32h5xx_hal_rtc_ex.c **** 
 948:Drivers/STM32H5xx_HAL_Driver/Src/stm32h5xx_hal_rtc_ex.c ****   /* Change RTC state */
 949:Drivers/STM32H5xx_HAL_Driver/Src/stm32h5xx_hal_rtc_ex.c ****   hrtc->State = HAL_RTC_STATE_READY;
 1340              		.loc 1 949 3 view .LVU407
 1341              		.loc 1 949 15 is_stmt 0 view .LVU408
 1342 006c 0123     		movs	r3, #1
 1343 006e 86F82D30 		strb	r3, [r6, #45]
 950:Drivers/STM32H5xx_HAL_Driver/Src/stm32h5xx_hal_rtc_ex.c **** 
 951:Drivers/STM32H5xx_HAL_Driver/Src/stm32h5xx_hal_rtc_ex.c ****   /* Process Unlocked */
 952:Drivers/STM32H5xx_HAL_Driver/Src/stm32h5xx_hal_rtc_ex.c ****   __HAL_UNLOCK(hrtc);
 1344              		.loc 1 952 3 is_stmt 1 view .LVU409
 1345              		.loc 1 952 3 view .LVU410
 1346 0072 0020     		movs	r0, #0
 1347 0074 86F82C00 		strb	r0, [r6, #44]
 1348              		.loc 1 952 3 view .LVU411
 953:Drivers/STM32H5xx_HAL_Driver/Src/stm32h5xx_hal_rtc_ex.c **** 
 954:Drivers/STM32H5xx_HAL_Driver/Src/stm32h5xx_hal_rtc_ex.c ****   return HAL_OK;
 1349              		.loc 1 954 3 view .LVU412
 1350              	.LVL92:
 1351              	.L100:
 955:Drivers/STM32H5xx_HAL_Driver/Src/stm32h5xx_hal_rtc_ex.c **** }
 1352              		.loc 1 955 1 is_stmt 0 view .LVU413
 1353 0078 BDE8F883 		pop	{r3, r4, r5, r6, r7, r8, r9, pc}
 1354              	.LVL93:
 1355              	.L106:
 924:Drivers/STM32H5xx_HAL_Driver/Src/stm32h5xx_hal_rtc_ex.c **** 
 1356              		.loc 1 924 9 is_stmt 1 view .LVU414
 924:Drivers/STM32H5xx_HAL_Driver/Src/stm32h5xx_hal_rtc_ex.c **** 
 1357              		.loc 1 924 21 is_stmt 0 view .LVU415
 1358 007c 0320     		movs	r0, #3
 1359 007e 86F82D00 		strb	r0, [r6, #45]
 927:Drivers/STM32H5xx_HAL_Driver/Src/stm32h5xx_hal_rtc_ex.c **** 
 1360              		.loc 1 927 9 is_stmt 1 view .LVU416
 927:Drivers/STM32H5xx_HAL_Driver/Src/stm32h5xx_hal_rtc_ex.c **** 
 1361              		.loc 1 927 9 view .LVU417
 1362 0082 0023     		movs	r3, #0
 1363 0084 86F82C30 		strb	r3, [r6, #44]
 927:Drivers/STM32H5xx_HAL_Driver/Src/stm32h5xx_hal_rtc_ex.c **** 
 1364              		.loc 1 927 9 view .LVU418
 929:Drivers/STM32H5xx_HAL_Driver/Src/stm32h5xx_hal_rtc_ex.c ****       }
 1365              		.loc 1 929 9 view .LVU419
 929:Drivers/STM32H5xx_HAL_Driver/Src/stm32h5xx_hal_rtc_ex.c ****       }
 1366              		.loc 1 929 16 is_stmt 0 view .LVU420
 1367 0088 F6E7     		b	.L100
 1368              	.LVL94:
 1369              	.L104:
ARM GAS  C:\Users\DELL\AppData\Local\Temp\ccMtHSyM.s 			page 43


 907:Drivers/STM32H5xx_HAL_Driver/Src/stm32h5xx_hal_rtc_ex.c **** 
 1370              		.loc 1 907 3 discriminator 1 view .LVU421
 1371 008a 0220     		movs	r0, #2
 1372              	.LVL95:
 907:Drivers/STM32H5xx_HAL_Driver/Src/stm32h5xx_hal_rtc_ex.c **** 
 1373              		.loc 1 907 3 discriminator 1 view .LVU422
 1374 008c F4E7     		b	.L100
 1375              	.L108:
 1376 008e 00BF     		.align	2
 1377              	.L107:
 1378 0090 00780044 		.word	1140881408
 1379              		.cfi_endproc
 1380              	.LFE313:
 1382              		.section	.text.HAL_RTCEx_SetLowPowerCalib,"ax",%progbits
 1383              		.align	1
 1384              		.global	HAL_RTCEx_SetLowPowerCalib
 1385              		.syntax unified
 1386              		.thumb
 1387              		.thumb_func
 1389              	HAL_RTCEx_SetLowPowerCalib:
 1390              	.LVL96:
 1391              	.LFB314:
 956:Drivers/STM32H5xx_HAL_Driver/Src/stm32h5xx_hal_rtc_ex.c **** 
 957:Drivers/STM32H5xx_HAL_Driver/Src/stm32h5xx_hal_rtc_ex.c **** /**
 958:Drivers/STM32H5xx_HAL_Driver/Src/stm32h5xx_hal_rtc_ex.c ****   * @brief  Select the low power Calibration mode.
 959:Drivers/STM32H5xx_HAL_Driver/Src/stm32h5xx_hal_rtc_ex.c ****   * @param  hrtc: RTC handle
 960:Drivers/STM32H5xx_HAL_Driver/Src/stm32h5xx_hal_rtc_ex.c ****   * @param  LowPowerCalib: Low power Calibration mode.
 961:Drivers/STM32H5xx_HAL_Driver/Src/stm32h5xx_hal_rtc_ex.c ****   *          This parameter can be one of the following values :
 962:Drivers/STM32H5xx_HAL_Driver/Src/stm32h5xx_hal_rtc_ex.c ****   *             @arg RTC_LPCAL_SET: Low power mode.
 963:Drivers/STM32H5xx_HAL_Driver/Src/stm32h5xx_hal_rtc_ex.c ****   *             @arg RTC_LPCAL_RESET: High consumption mode.
 964:Drivers/STM32H5xx_HAL_Driver/Src/stm32h5xx_hal_rtc_ex.c ****   * @retval HAL status
 965:Drivers/STM32H5xx_HAL_Driver/Src/stm32h5xx_hal_rtc_ex.c ****   */
 966:Drivers/STM32H5xx_HAL_Driver/Src/stm32h5xx_hal_rtc_ex.c **** HAL_StatusTypeDef HAL_RTCEx_SetLowPowerCalib(RTC_HandleTypeDef *hrtc, uint32_t LowPowerCalib)
 967:Drivers/STM32H5xx_HAL_Driver/Src/stm32h5xx_hal_rtc_ex.c **** {
 1392              		.loc 1 967 1 is_stmt 1 view -0
 1393              		.cfi_startproc
 1394              		@ args = 0, pretend = 0, frame = 0
 1395              		@ frame_needed = 0, uses_anonymous_args = 0
 1396              		@ link register save eliminated.
 1397              		.loc 1 967 1 is_stmt 0 view .LVU424
 1398 0000 0346     		mov	r3, r0
 968:Drivers/STM32H5xx_HAL_Driver/Src/stm32h5xx_hal_rtc_ex.c ****   /* Check the parameters */
 969:Drivers/STM32H5xx_HAL_Driver/Src/stm32h5xx_hal_rtc_ex.c ****   assert_param(IS_RTC_LOW_POWER_CALIB(LowPowerCalib));
 1399              		.loc 1 969 3 is_stmt 1 view .LVU425
 970:Drivers/STM32H5xx_HAL_Driver/Src/stm32h5xx_hal_rtc_ex.c **** 
 971:Drivers/STM32H5xx_HAL_Driver/Src/stm32h5xx_hal_rtc_ex.c ****   /* Process Locked */
 972:Drivers/STM32H5xx_HAL_Driver/Src/stm32h5xx_hal_rtc_ex.c ****   __HAL_LOCK(hrtc);
 1400              		.loc 1 972 3 view .LVU426
 1401              		.loc 1 972 3 view .LVU427
 1402 0002 90F82C20 		ldrb	r2, [r0, #44]	@ zero_extendqisi2
 1403 0006 012A     		cmp	r2, #1
 1404 0008 18D0     		beq	.L111
 1405              		.loc 1 972 3 discriminator 2 view .LVU428
 1406 000a 4FF0010C 		mov	ip, #1
 1407 000e 80F82CC0 		strb	ip, [r0, #44]
 1408              		.loc 1 972 3 view .LVU429
 973:Drivers/STM32H5xx_HAL_Driver/Src/stm32h5xx_hal_rtc_ex.c **** 
ARM GAS  C:\Users\DELL\AppData\Local\Temp\ccMtHSyM.s 			page 44


 974:Drivers/STM32H5xx_HAL_Driver/Src/stm32h5xx_hal_rtc_ex.c ****   /* Change RTC state */
 975:Drivers/STM32H5xx_HAL_Driver/Src/stm32h5xx_hal_rtc_ex.c ****   hrtc->State = HAL_RTC_STATE_BUSY;
 1409              		.loc 1 975 3 view .LVU430
 1410              		.loc 1 975 15 is_stmt 0 view .LVU431
 1411 0012 0222     		movs	r2, #2
 1412 0014 80F82D20 		strb	r2, [r0, #45]
 976:Drivers/STM32H5xx_HAL_Driver/Src/stm32h5xx_hal_rtc_ex.c **** 
 977:Drivers/STM32H5xx_HAL_Driver/Src/stm32h5xx_hal_rtc_ex.c ****   /* Disable the write protection for RTC registers */
 978:Drivers/STM32H5xx_HAL_Driver/Src/stm32h5xx_hal_rtc_ex.c ****   __HAL_RTC_WRITEPROTECTION_DISABLE(hrtc);
 1413              		.loc 1 978 3 is_stmt 1 view .LVU432
 1414              		.loc 1 978 3 view .LVU433
 1415 0018 094A     		ldr	r2, .L112
 1416 001a CA20     		movs	r0, #202
 1417              	.LVL97:
 1418              		.loc 1 978 3 is_stmt 0 view .LVU434
 1419 001c 5062     		str	r0, [r2, #36]
 1420              		.loc 1 978 3 is_stmt 1 view .LVU435
 1421 001e 5320     		movs	r0, #83
 1422 0020 5062     		str	r0, [r2, #36]
 1423              		.loc 1 978 3 view .LVU436
 979:Drivers/STM32H5xx_HAL_Driver/Src/stm32h5xx_hal_rtc_ex.c **** 
 980:Drivers/STM32H5xx_HAL_Driver/Src/stm32h5xx_hal_rtc_ex.c ****   /* Configure the Smooth calibration settings */
 981:Drivers/STM32H5xx_HAL_Driver/Src/stm32h5xx_hal_rtc_ex.c ****   MODIFY_REG(RTC->CALR, RTC_CALR_LPCAL, LowPowerCalib);
 1424              		.loc 1 981 3 view .LVU437
 1425 0022 906A     		ldr	r0, [r2, #40]
 1426 0024 20F48050 		bic	r0, r0, #4096
 1427 0028 0143     		orrs	r1, r1, r0
 1428              	.LVL98:
 1429              		.loc 1 981 3 is_stmt 0 view .LVU438
 1430 002a 9162     		str	r1, [r2, #40]
 982:Drivers/STM32H5xx_HAL_Driver/Src/stm32h5xx_hal_rtc_ex.c **** 
 983:Drivers/STM32H5xx_HAL_Driver/Src/stm32h5xx_hal_rtc_ex.c ****   /* Enable the write protection for RTC registers */
 984:Drivers/STM32H5xx_HAL_Driver/Src/stm32h5xx_hal_rtc_ex.c ****   __HAL_RTC_WRITEPROTECTION_ENABLE(hrtc);
 1431              		.loc 1 984 3 is_stmt 1 view .LVU439
 1432              		.loc 1 984 3 view .LVU440
 1433 002c FF21     		movs	r1, #255
 1434 002e 5162     		str	r1, [r2, #36]
 1435              		.loc 1 984 3 view .LVU441
 985:Drivers/STM32H5xx_HAL_Driver/Src/stm32h5xx_hal_rtc_ex.c **** 
 986:Drivers/STM32H5xx_HAL_Driver/Src/stm32h5xx_hal_rtc_ex.c ****   /* Change RTC state */
 987:Drivers/STM32H5xx_HAL_Driver/Src/stm32h5xx_hal_rtc_ex.c ****   hrtc->State = HAL_RTC_STATE_READY;
 1436              		.loc 1 987 3 view .LVU442
 1437              		.loc 1 987 15 is_stmt 0 view .LVU443
 1438 0030 83F82DC0 		strb	ip, [r3, #45]
 988:Drivers/STM32H5xx_HAL_Driver/Src/stm32h5xx_hal_rtc_ex.c **** 
 989:Drivers/STM32H5xx_HAL_Driver/Src/stm32h5xx_hal_rtc_ex.c ****   /* Process Unlocked */
 990:Drivers/STM32H5xx_HAL_Driver/Src/stm32h5xx_hal_rtc_ex.c ****   __HAL_UNLOCK(hrtc);
 1439              		.loc 1 990 3 is_stmt 1 view .LVU444
 1440              		.loc 1 990 3 view .LVU445
 1441 0034 0020     		movs	r0, #0
 1442 0036 83F82C00 		strb	r0, [r3, #44]
 1443              		.loc 1 990 3 view .LVU446
 991:Drivers/STM32H5xx_HAL_Driver/Src/stm32h5xx_hal_rtc_ex.c **** 
 992:Drivers/STM32H5xx_HAL_Driver/Src/stm32h5xx_hal_rtc_ex.c ****   return HAL_OK;
 1444              		.loc 1 992 3 view .LVU447
 1445              		.loc 1 992 10 is_stmt 0 view .LVU448
 1446 003a 7047     		bx	lr
ARM GAS  C:\Users\DELL\AppData\Local\Temp\ccMtHSyM.s 			page 45


 1447              	.LVL99:
 1448              	.L111:
 972:Drivers/STM32H5xx_HAL_Driver/Src/stm32h5xx_hal_rtc_ex.c **** 
 1449              		.loc 1 972 3 discriminator 1 view .LVU449
 1450 003c 0220     		movs	r0, #2
 1451              	.LVL100:
 993:Drivers/STM32H5xx_HAL_Driver/Src/stm32h5xx_hal_rtc_ex.c **** }
 1452              		.loc 1 993 1 view .LVU450
 1453 003e 7047     		bx	lr
 1454              	.L113:
 1455              		.align	2
 1456              	.L112:
 1457 0040 00780044 		.word	1140881408
 1458              		.cfi_endproc
 1459              	.LFE314:
 1461              		.section	.text.HAL_RTCEx_SetSynchroShift,"ax",%progbits
 1462              		.align	1
 1463              		.global	HAL_RTCEx_SetSynchroShift
 1464              		.syntax unified
 1465              		.thumb
 1466              		.thumb_func
 1468              	HAL_RTCEx_SetSynchroShift:
 1469              	.LVL101:
 1470              	.LFB315:
 994:Drivers/STM32H5xx_HAL_Driver/Src/stm32h5xx_hal_rtc_ex.c **** 
 995:Drivers/STM32H5xx_HAL_Driver/Src/stm32h5xx_hal_rtc_ex.c **** /**
 996:Drivers/STM32H5xx_HAL_Driver/Src/stm32h5xx_hal_rtc_ex.c ****   * @brief  Configure the Synchronization Shift Control Settings.
 997:Drivers/STM32H5xx_HAL_Driver/Src/stm32h5xx_hal_rtc_ex.c ****   * @note   When REFCKON is set, firmware must not write to Shift control register.
 998:Drivers/STM32H5xx_HAL_Driver/Src/stm32h5xx_hal_rtc_ex.c ****   * @param  hrtc RTC handle
 999:Drivers/STM32H5xx_HAL_Driver/Src/stm32h5xx_hal_rtc_ex.c ****   * @param  ShiftAdd1S Select to add or not 1 second to the time calendar.
1000:Drivers/STM32H5xx_HAL_Driver/Src/stm32h5xx_hal_rtc_ex.c ****   *          This parameter can be one of the following values:
1001:Drivers/STM32H5xx_HAL_Driver/Src/stm32h5xx_hal_rtc_ex.c ****   *             @arg RTC_SHIFTADD1S_SET: Add one second to the clock calendar.
1002:Drivers/STM32H5xx_HAL_Driver/Src/stm32h5xx_hal_rtc_ex.c ****   *             @arg RTC_SHIFTADD1S_RESET: No effect.
1003:Drivers/STM32H5xx_HAL_Driver/Src/stm32h5xx_hal_rtc_ex.c ****   * @param  ShiftSubFS Select the number of Second Fractions to substitute.
1004:Drivers/STM32H5xx_HAL_Driver/Src/stm32h5xx_hal_rtc_ex.c ****   *          This parameter can be one any value from 0 to 0x7FFF.
1005:Drivers/STM32H5xx_HAL_Driver/Src/stm32h5xx_hal_rtc_ex.c ****   * @retval HAL status
1006:Drivers/STM32H5xx_HAL_Driver/Src/stm32h5xx_hal_rtc_ex.c ****   */
1007:Drivers/STM32H5xx_HAL_Driver/Src/stm32h5xx_hal_rtc_ex.c **** HAL_StatusTypeDef HAL_RTCEx_SetSynchroShift(RTC_HandleTypeDef *hrtc, uint32_t ShiftAdd1S, uint32_t 
1008:Drivers/STM32H5xx_HAL_Driver/Src/stm32h5xx_hal_rtc_ex.c **** {
 1471              		.loc 1 1008 1 is_stmt 1 view -0
 1472              		.cfi_startproc
 1473              		@ args = 0, pretend = 0, frame = 0
 1474              		@ frame_needed = 0, uses_anonymous_args = 0
 1475              		.loc 1 1008 1 is_stmt 0 view .LVU452
 1476 0000 F8B5     		push	{r3, r4, r5, r6, r7, lr}
 1477              	.LCFI8:
 1478              		.cfi_def_cfa_offset 24
 1479              		.cfi_offset 3, -24
 1480              		.cfi_offset 4, -20
 1481              		.cfi_offset 5, -16
 1482              		.cfi_offset 6, -12
 1483              		.cfi_offset 7, -8
 1484              		.cfi_offset 14, -4
1009:Drivers/STM32H5xx_HAL_Driver/Src/stm32h5xx_hal_rtc_ex.c ****   uint32_t tickstart;
 1485              		.loc 1 1009 3 is_stmt 1 view .LVU453
1010:Drivers/STM32H5xx_HAL_Driver/Src/stm32h5xx_hal_rtc_ex.c **** 
1011:Drivers/STM32H5xx_HAL_Driver/Src/stm32h5xx_hal_rtc_ex.c ****   /* Check the parameters */
ARM GAS  C:\Users\DELL\AppData\Local\Temp\ccMtHSyM.s 			page 46


1012:Drivers/STM32H5xx_HAL_Driver/Src/stm32h5xx_hal_rtc_ex.c ****   assert_param(IS_RTC_SHIFT_ADD1S(ShiftAdd1S));
 1486              		.loc 1 1012 3 view .LVU454
1013:Drivers/STM32H5xx_HAL_Driver/Src/stm32h5xx_hal_rtc_ex.c ****   assert_param(IS_RTC_SHIFT_SUBFS(ShiftSubFS));
 1487              		.loc 1 1013 3 view .LVU455
1014:Drivers/STM32H5xx_HAL_Driver/Src/stm32h5xx_hal_rtc_ex.c **** 
1015:Drivers/STM32H5xx_HAL_Driver/Src/stm32h5xx_hal_rtc_ex.c ****   /* Process Locked */
1016:Drivers/STM32H5xx_HAL_Driver/Src/stm32h5xx_hal_rtc_ex.c ****   __HAL_LOCK(hrtc);
 1488              		.loc 1 1016 3 view .LVU456
 1489              		.loc 1 1016 3 view .LVU457
 1490 0002 90F82C30 		ldrb	r3, [r0, #44]	@ zero_extendqisi2
 1491 0006 012B     		cmp	r3, #1
 1492 0008 5BD0     		beq	.L121
 1493 000a 0546     		mov	r5, r0
 1494 000c 0F46     		mov	r7, r1
 1495 000e 1646     		mov	r6, r2
 1496              		.loc 1 1016 3 discriminator 2 view .LVU458
 1497 0010 0123     		movs	r3, #1
 1498 0012 80F82C30 		strb	r3, [r0, #44]
 1499              		.loc 1 1016 3 view .LVU459
1017:Drivers/STM32H5xx_HAL_Driver/Src/stm32h5xx_hal_rtc_ex.c **** 
1018:Drivers/STM32H5xx_HAL_Driver/Src/stm32h5xx_hal_rtc_ex.c ****   /* Change RTC state */
1019:Drivers/STM32H5xx_HAL_Driver/Src/stm32h5xx_hal_rtc_ex.c ****   hrtc->State = HAL_RTC_STATE_BUSY;
 1500              		.loc 1 1019 3 view .LVU460
 1501              		.loc 1 1019 15 is_stmt 0 view .LVU461
 1502 0016 0223     		movs	r3, #2
 1503 0018 80F82D30 		strb	r3, [r0, #45]
1020:Drivers/STM32H5xx_HAL_Driver/Src/stm32h5xx_hal_rtc_ex.c **** 
1021:Drivers/STM32H5xx_HAL_Driver/Src/stm32h5xx_hal_rtc_ex.c ****   tickstart = HAL_GetTick();
 1504              		.loc 1 1021 3 is_stmt 1 view .LVU462
 1505              		.loc 1 1021 15 is_stmt 0 view .LVU463
 1506 001c FFF7FEFF 		bl	HAL_GetTick
 1507              	.LVL102:
 1508              		.loc 1 1021 15 view .LVU464
 1509 0020 0446     		mov	r4, r0
 1510              	.LVL103:
1022:Drivers/STM32H5xx_HAL_Driver/Src/stm32h5xx_hal_rtc_ex.c **** 
1023:Drivers/STM32H5xx_HAL_Driver/Src/stm32h5xx_hal_rtc_ex.c ****   /* Wait until the shift is completed */
1024:Drivers/STM32H5xx_HAL_Driver/Src/stm32h5xx_hal_rtc_ex.c ****   while (READ_BIT(RTC->ICSR, RTC_ICSR_SHPF) != 0U)
 1511              		.loc 1 1024 3 is_stmt 1 view .LVU465
 1512              	.L116:
 1513              		.loc 1 1024 45 view .LVU466
 1514              		.loc 1 1024 10 is_stmt 0 view .LVU467
 1515 0022 294B     		ldr	r3, .L125
 1516 0024 DB68     		ldr	r3, [r3, #12]
 1517              		.loc 1 1024 45 view .LVU468
 1518 0026 13F0080F 		tst	r3, #8
 1519 002a 0AD0     		beq	.L117
1025:Drivers/STM32H5xx_HAL_Driver/Src/stm32h5xx_hal_rtc_ex.c ****   {
1026:Drivers/STM32H5xx_HAL_Driver/Src/stm32h5xx_hal_rtc_ex.c ****     if ((HAL_GetTick() - tickstart) > RTC_TIMEOUT_VALUE)
 1520              		.loc 1 1026 5 is_stmt 1 view .LVU469
 1521              		.loc 1 1026 10 is_stmt 0 view .LVU470
 1522 002c FFF7FEFF 		bl	HAL_GetTick
 1523              	.LVL104:
 1524              		.loc 1 1026 24 discriminator 1 view .LVU471
 1525 0030 031B     		subs	r3, r0, r4
 1526              		.loc 1 1026 8 discriminator 1 view .LVU472
 1527 0032 B3F57A7F 		cmp	r3, #1000
ARM GAS  C:\Users\DELL\AppData\Local\Temp\ccMtHSyM.s 			page 47


 1528 0036 F4D9     		bls	.L116
1027:Drivers/STM32H5xx_HAL_Driver/Src/stm32h5xx_hal_rtc_ex.c ****     {
1028:Drivers/STM32H5xx_HAL_Driver/Src/stm32h5xx_hal_rtc_ex.c ****       /* New check to avoid false timeout detection in case of preemption */
1029:Drivers/STM32H5xx_HAL_Driver/Src/stm32h5xx_hal_rtc_ex.c ****       if (READ_BIT(RTC->ICSR, RTC_ICSR_SHPF) != 0U)
 1529              		.loc 1 1029 7 is_stmt 1 view .LVU473
 1530              		.loc 1 1029 11 is_stmt 0 view .LVU474
 1531 0038 234B     		ldr	r3, .L125
 1532 003a DB68     		ldr	r3, [r3, #12]
 1533              		.loc 1 1029 10 view .LVU475
 1534 003c 13F0080F 		tst	r3, #8
 1535 0040 1DD1     		bne	.L123
 1536              	.L117:
1030:Drivers/STM32H5xx_HAL_Driver/Src/stm32h5xx_hal_rtc_ex.c ****       {
1031:Drivers/STM32H5xx_HAL_Driver/Src/stm32h5xx_hal_rtc_ex.c ****         /* Change RTC state */
1032:Drivers/STM32H5xx_HAL_Driver/Src/stm32h5xx_hal_rtc_ex.c ****         hrtc->State = HAL_RTC_STATE_TIMEOUT;
1033:Drivers/STM32H5xx_HAL_Driver/Src/stm32h5xx_hal_rtc_ex.c **** 
1034:Drivers/STM32H5xx_HAL_Driver/Src/stm32h5xx_hal_rtc_ex.c ****         /* Process Unlocked */
1035:Drivers/STM32H5xx_HAL_Driver/Src/stm32h5xx_hal_rtc_ex.c ****         __HAL_UNLOCK(hrtc);
1036:Drivers/STM32H5xx_HAL_Driver/Src/stm32h5xx_hal_rtc_ex.c **** 
1037:Drivers/STM32H5xx_HAL_Driver/Src/stm32h5xx_hal_rtc_ex.c ****         return HAL_TIMEOUT;
1038:Drivers/STM32H5xx_HAL_Driver/Src/stm32h5xx_hal_rtc_ex.c ****       }
1039:Drivers/STM32H5xx_HAL_Driver/Src/stm32h5xx_hal_rtc_ex.c ****       else
1040:Drivers/STM32H5xx_HAL_Driver/Src/stm32h5xx_hal_rtc_ex.c ****       {
1041:Drivers/STM32H5xx_HAL_Driver/Src/stm32h5xx_hal_rtc_ex.c ****         break;
1042:Drivers/STM32H5xx_HAL_Driver/Src/stm32h5xx_hal_rtc_ex.c ****       }
1043:Drivers/STM32H5xx_HAL_Driver/Src/stm32h5xx_hal_rtc_ex.c ****     }
1044:Drivers/STM32H5xx_HAL_Driver/Src/stm32h5xx_hal_rtc_ex.c ****   }
1045:Drivers/STM32H5xx_HAL_Driver/Src/stm32h5xx_hal_rtc_ex.c **** 
1046:Drivers/STM32H5xx_HAL_Driver/Src/stm32h5xx_hal_rtc_ex.c ****   /* Disable the write protection for RTC registers */
1047:Drivers/STM32H5xx_HAL_Driver/Src/stm32h5xx_hal_rtc_ex.c ****   __HAL_RTC_WRITEPROTECTION_DISABLE(hrtc);
 1537              		.loc 1 1047 3 is_stmt 1 view .LVU476
 1538              		.loc 1 1047 3 view .LVU477
 1539 0042 214B     		ldr	r3, .L125
 1540 0044 CA22     		movs	r2, #202
 1541 0046 5A62     		str	r2, [r3, #36]
 1542              		.loc 1 1047 3 view .LVU478
 1543 0048 5322     		movs	r2, #83
 1544 004a 5A62     		str	r2, [r3, #36]
 1545              		.loc 1 1047 3 view .LVU479
1048:Drivers/STM32H5xx_HAL_Driver/Src/stm32h5xx_hal_rtc_ex.c **** 
1049:Drivers/STM32H5xx_HAL_Driver/Src/stm32h5xx_hal_rtc_ex.c **** #if defined(RTC_CR_REFCKON)
1050:Drivers/STM32H5xx_HAL_Driver/Src/stm32h5xx_hal_rtc_ex.c ****   /* Check if the reference clock detection is disabled */
1051:Drivers/STM32H5xx_HAL_Driver/Src/stm32h5xx_hal_rtc_ex.c ****   if (READ_BIT(RTC->CR, RTC_CR_REFCKON) == 0U)
 1546              		.loc 1 1051 3 view .LVU480
 1547              		.loc 1 1051 7 is_stmt 0 view .LVU481
 1548 004c 9B69     		ldr	r3, [r3, #24]
 1549              		.loc 1 1051 6 view .LVU482
 1550 004e 13F0100F 		tst	r3, #16
 1551 0052 2BD1     		bne	.L119
1052:Drivers/STM32H5xx_HAL_Driver/Src/stm32h5xx_hal_rtc_ex.c ****   {
1053:Drivers/STM32H5xx_HAL_Driver/Src/stm32h5xx_hal_rtc_ex.c **** #endif /* RTC_CR_REFCKON */
1054:Drivers/STM32H5xx_HAL_Driver/Src/stm32h5xx_hal_rtc_ex.c ****     /* Configure the Shift settings */
1055:Drivers/STM32H5xx_HAL_Driver/Src/stm32h5xx_hal_rtc_ex.c ****     MODIFY_REG(RTC->SHIFTR, RTC_SHIFTR_SUBFS, (uint32_t)(ShiftSubFS) | (uint32_t)(ShiftAdd1S));
 1552              		.loc 1 1055 5 is_stmt 1 view .LVU483
 1553 0054 1C4A     		ldr	r2, .L125
 1554 0056 D36A     		ldr	r3, [r2, #44]
 1555 0058 6FF30E03 		bfc	r3, #0, #15
ARM GAS  C:\Users\DELL\AppData\Local\Temp\ccMtHSyM.s 			page 48


 1556 005c 3E43     		orrs	r6, r6, r7
 1557              	.LVL105:
 1558              		.loc 1 1055 5 is_stmt 0 view .LVU484
 1559 005e 3343     		orrs	r3, r3, r6
 1560 0060 D362     		str	r3, [r2, #44]
1056:Drivers/STM32H5xx_HAL_Driver/Src/stm32h5xx_hal_rtc_ex.c **** 
1057:Drivers/STM32H5xx_HAL_Driver/Src/stm32h5xx_hal_rtc_ex.c ****     /* If  RTC_CR_BYPSHAD bit = 0, wait for synchro else this check is not needed */
1058:Drivers/STM32H5xx_HAL_Driver/Src/stm32h5xx_hal_rtc_ex.c ****     if (READ_BIT(RTC->CR, RTC_CR_BYPSHAD) == 0U)
 1561              		.loc 1 1058 5 is_stmt 1 view .LVU485
 1562              		.loc 1 1058 9 is_stmt 0 view .LVU486
 1563 0062 9369     		ldr	r3, [r2, #24]
 1564              		.loc 1 1058 8 view .LVU487
 1565 0064 13F0200F 		tst	r3, #32
 1566 0068 10D0     		beq	.L124
 1567              	.L120:
1059:Drivers/STM32H5xx_HAL_Driver/Src/stm32h5xx_hal_rtc_ex.c ****     {
1060:Drivers/STM32H5xx_HAL_Driver/Src/stm32h5xx_hal_rtc_ex.c ****       if (HAL_RTC_WaitForSynchro(hrtc) != HAL_OK)
1061:Drivers/STM32H5xx_HAL_Driver/Src/stm32h5xx_hal_rtc_ex.c ****       {
1062:Drivers/STM32H5xx_HAL_Driver/Src/stm32h5xx_hal_rtc_ex.c ****         /* Enable the write protection for RTC registers */
1063:Drivers/STM32H5xx_HAL_Driver/Src/stm32h5xx_hal_rtc_ex.c ****         __HAL_RTC_WRITEPROTECTION_ENABLE(hrtc);
1064:Drivers/STM32H5xx_HAL_Driver/Src/stm32h5xx_hal_rtc_ex.c **** 
1065:Drivers/STM32H5xx_HAL_Driver/Src/stm32h5xx_hal_rtc_ex.c ****         /* Change RTC state */
1066:Drivers/STM32H5xx_HAL_Driver/Src/stm32h5xx_hal_rtc_ex.c ****         hrtc->State = HAL_RTC_STATE_ERROR;
1067:Drivers/STM32H5xx_HAL_Driver/Src/stm32h5xx_hal_rtc_ex.c **** 
1068:Drivers/STM32H5xx_HAL_Driver/Src/stm32h5xx_hal_rtc_ex.c ****         /* Process Unlocked */
1069:Drivers/STM32H5xx_HAL_Driver/Src/stm32h5xx_hal_rtc_ex.c ****         __HAL_UNLOCK(hrtc);
1070:Drivers/STM32H5xx_HAL_Driver/Src/stm32h5xx_hal_rtc_ex.c **** 
1071:Drivers/STM32H5xx_HAL_Driver/Src/stm32h5xx_hal_rtc_ex.c ****         return HAL_ERROR;
1072:Drivers/STM32H5xx_HAL_Driver/Src/stm32h5xx_hal_rtc_ex.c ****       }
1073:Drivers/STM32H5xx_HAL_Driver/Src/stm32h5xx_hal_rtc_ex.c ****     }
1074:Drivers/STM32H5xx_HAL_Driver/Src/stm32h5xx_hal_rtc_ex.c **** #if defined(RTC_CR_REFCKON)
1075:Drivers/STM32H5xx_HAL_Driver/Src/stm32h5xx_hal_rtc_ex.c ****   }
1076:Drivers/STM32H5xx_HAL_Driver/Src/stm32h5xx_hal_rtc_ex.c ****   else
1077:Drivers/STM32H5xx_HAL_Driver/Src/stm32h5xx_hal_rtc_ex.c ****   {
1078:Drivers/STM32H5xx_HAL_Driver/Src/stm32h5xx_hal_rtc_ex.c ****     /* Enable the write protection for RTC registers */
1079:Drivers/STM32H5xx_HAL_Driver/Src/stm32h5xx_hal_rtc_ex.c ****     __HAL_RTC_WRITEPROTECTION_ENABLE(hrtc);
1080:Drivers/STM32H5xx_HAL_Driver/Src/stm32h5xx_hal_rtc_ex.c **** 
1081:Drivers/STM32H5xx_HAL_Driver/Src/stm32h5xx_hal_rtc_ex.c ****     /* Change RTC state */
1082:Drivers/STM32H5xx_HAL_Driver/Src/stm32h5xx_hal_rtc_ex.c ****     hrtc->State = HAL_RTC_STATE_ERROR;
1083:Drivers/STM32H5xx_HAL_Driver/Src/stm32h5xx_hal_rtc_ex.c **** 
1084:Drivers/STM32H5xx_HAL_Driver/Src/stm32h5xx_hal_rtc_ex.c ****     /* Process Unlocked */
1085:Drivers/STM32H5xx_HAL_Driver/Src/stm32h5xx_hal_rtc_ex.c ****     __HAL_UNLOCK(hrtc);
1086:Drivers/STM32H5xx_HAL_Driver/Src/stm32h5xx_hal_rtc_ex.c **** 
1087:Drivers/STM32H5xx_HAL_Driver/Src/stm32h5xx_hal_rtc_ex.c ****     return HAL_ERROR;
1088:Drivers/STM32H5xx_HAL_Driver/Src/stm32h5xx_hal_rtc_ex.c ****   }
1089:Drivers/STM32H5xx_HAL_Driver/Src/stm32h5xx_hal_rtc_ex.c **** #endif /* RTC_CR_REFCKON */
1090:Drivers/STM32H5xx_HAL_Driver/Src/stm32h5xx_hal_rtc_ex.c **** 
1091:Drivers/STM32H5xx_HAL_Driver/Src/stm32h5xx_hal_rtc_ex.c ****   /* Enable the write protection for RTC registers */
1092:Drivers/STM32H5xx_HAL_Driver/Src/stm32h5xx_hal_rtc_ex.c ****   __HAL_RTC_WRITEPROTECTION_ENABLE(hrtc);
 1568              		.loc 1 1092 3 is_stmt 1 view .LVU488
 1569              		.loc 1 1092 3 view .LVU489
 1570 006a 174B     		ldr	r3, .L125
 1571 006c FF22     		movs	r2, #255
 1572 006e 5A62     		str	r2, [r3, #36]
 1573              		.loc 1 1092 3 view .LVU490
1093:Drivers/STM32H5xx_HAL_Driver/Src/stm32h5xx_hal_rtc_ex.c **** 
1094:Drivers/STM32H5xx_HAL_Driver/Src/stm32h5xx_hal_rtc_ex.c ****   /* Change RTC state */
ARM GAS  C:\Users\DELL\AppData\Local\Temp\ccMtHSyM.s 			page 49


1095:Drivers/STM32H5xx_HAL_Driver/Src/stm32h5xx_hal_rtc_ex.c ****   hrtc->State = HAL_RTC_STATE_READY;
 1574              		.loc 1 1095 3 view .LVU491
 1575              		.loc 1 1095 15 is_stmt 0 view .LVU492
 1576 0070 0123     		movs	r3, #1
 1577 0072 85F82D30 		strb	r3, [r5, #45]
1096:Drivers/STM32H5xx_HAL_Driver/Src/stm32h5xx_hal_rtc_ex.c **** 
1097:Drivers/STM32H5xx_HAL_Driver/Src/stm32h5xx_hal_rtc_ex.c ****   /* Process Unlocked */
1098:Drivers/STM32H5xx_HAL_Driver/Src/stm32h5xx_hal_rtc_ex.c ****   __HAL_UNLOCK(hrtc);
 1578              		.loc 1 1098 3 is_stmt 1 view .LVU493
 1579              		.loc 1 1098 3 view .LVU494
 1580 0076 0020     		movs	r0, #0
 1581 0078 85F82C00 		strb	r0, [r5, #44]
 1582              		.loc 1 1098 3 view .LVU495
1099:Drivers/STM32H5xx_HAL_Driver/Src/stm32h5xx_hal_rtc_ex.c **** 
1100:Drivers/STM32H5xx_HAL_Driver/Src/stm32h5xx_hal_rtc_ex.c ****   return HAL_OK;
 1583              		.loc 1 1100 3 view .LVU496
 1584              	.LVL106:
 1585              	.L115:
1101:Drivers/STM32H5xx_HAL_Driver/Src/stm32h5xx_hal_rtc_ex.c **** }
 1586              		.loc 1 1101 1 is_stmt 0 view .LVU497
 1587 007c F8BD     		pop	{r3, r4, r5, r6, r7, pc}
 1588              	.LVL107:
 1589              	.L123:
1032:Drivers/STM32H5xx_HAL_Driver/Src/stm32h5xx_hal_rtc_ex.c **** 
 1590              		.loc 1 1032 9 is_stmt 1 view .LVU498
1032:Drivers/STM32H5xx_HAL_Driver/Src/stm32h5xx_hal_rtc_ex.c **** 
 1591              		.loc 1 1032 21 is_stmt 0 view .LVU499
 1592 007e 0320     		movs	r0, #3
 1593 0080 85F82D00 		strb	r0, [r5, #45]
1035:Drivers/STM32H5xx_HAL_Driver/Src/stm32h5xx_hal_rtc_ex.c **** 
 1594              		.loc 1 1035 9 is_stmt 1 view .LVU500
1035:Drivers/STM32H5xx_HAL_Driver/Src/stm32h5xx_hal_rtc_ex.c **** 
 1595              		.loc 1 1035 9 view .LVU501
 1596 0084 0023     		movs	r3, #0
 1597 0086 85F82C30 		strb	r3, [r5, #44]
1035:Drivers/STM32H5xx_HAL_Driver/Src/stm32h5xx_hal_rtc_ex.c **** 
 1598              		.loc 1 1035 9 view .LVU502
1037:Drivers/STM32H5xx_HAL_Driver/Src/stm32h5xx_hal_rtc_ex.c ****       }
 1599              		.loc 1 1037 9 view .LVU503
1037:Drivers/STM32H5xx_HAL_Driver/Src/stm32h5xx_hal_rtc_ex.c ****       }
 1600              		.loc 1 1037 16 is_stmt 0 view .LVU504
 1601 008a F7E7     		b	.L115
 1602              	.LVL108:
 1603              	.L124:
1060:Drivers/STM32H5xx_HAL_Driver/Src/stm32h5xx_hal_rtc_ex.c ****       {
 1604              		.loc 1 1060 7 is_stmt 1 view .LVU505
1060:Drivers/STM32H5xx_HAL_Driver/Src/stm32h5xx_hal_rtc_ex.c ****       {
 1605              		.loc 1 1060 11 is_stmt 0 view .LVU506
 1606 008c 2846     		mov	r0, r5
 1607 008e FFF7FEFF 		bl	HAL_RTC_WaitForSynchro
 1608              	.LVL109:
1060:Drivers/STM32H5xx_HAL_Driver/Src/stm32h5xx_hal_rtc_ex.c ****       {
 1609              		.loc 1 1060 10 discriminator 1 view .LVU507
 1610 0092 0028     		cmp	r0, #0
 1611 0094 E9D0     		beq	.L120
1063:Drivers/STM32H5xx_HAL_Driver/Src/stm32h5xx_hal_rtc_ex.c **** 
 1612              		.loc 1 1063 9 is_stmt 1 view .LVU508
ARM GAS  C:\Users\DELL\AppData\Local\Temp\ccMtHSyM.s 			page 50


1063:Drivers/STM32H5xx_HAL_Driver/Src/stm32h5xx_hal_rtc_ex.c **** 
 1613              		.loc 1 1063 9 view .LVU509
 1614 0096 0C4B     		ldr	r3, .L125
 1615 0098 FF22     		movs	r2, #255
 1616 009a 5A62     		str	r2, [r3, #36]
1063:Drivers/STM32H5xx_HAL_Driver/Src/stm32h5xx_hal_rtc_ex.c **** 
 1617              		.loc 1 1063 9 view .LVU510
1066:Drivers/STM32H5xx_HAL_Driver/Src/stm32h5xx_hal_rtc_ex.c **** 
 1618              		.loc 1 1066 9 view .LVU511
1066:Drivers/STM32H5xx_HAL_Driver/Src/stm32h5xx_hal_rtc_ex.c **** 
 1619              		.loc 1 1066 21 is_stmt 0 view .LVU512
 1620 009c 0423     		movs	r3, #4
 1621 009e 85F82D30 		strb	r3, [r5, #45]
1069:Drivers/STM32H5xx_HAL_Driver/Src/stm32h5xx_hal_rtc_ex.c **** 
 1622              		.loc 1 1069 9 is_stmt 1 view .LVU513
1069:Drivers/STM32H5xx_HAL_Driver/Src/stm32h5xx_hal_rtc_ex.c **** 
 1623              		.loc 1 1069 9 view .LVU514
 1624 00a2 0023     		movs	r3, #0
 1625 00a4 85F82C30 		strb	r3, [r5, #44]
1069:Drivers/STM32H5xx_HAL_Driver/Src/stm32h5xx_hal_rtc_ex.c **** 
 1626              		.loc 1 1069 9 view .LVU515
1071:Drivers/STM32H5xx_HAL_Driver/Src/stm32h5xx_hal_rtc_ex.c ****       }
 1627              		.loc 1 1071 9 view .LVU516
1071:Drivers/STM32H5xx_HAL_Driver/Src/stm32h5xx_hal_rtc_ex.c ****       }
 1628              		.loc 1 1071 16 is_stmt 0 view .LVU517
 1629 00a8 0120     		movs	r0, #1
 1630 00aa E7E7     		b	.L115
 1631              	.LVL110:
 1632              	.L119:
1079:Drivers/STM32H5xx_HAL_Driver/Src/stm32h5xx_hal_rtc_ex.c **** 
 1633              		.loc 1 1079 5 is_stmt 1 view .LVU518
1079:Drivers/STM32H5xx_HAL_Driver/Src/stm32h5xx_hal_rtc_ex.c **** 
 1634              		.loc 1 1079 5 view .LVU519
 1635 00ac 064B     		ldr	r3, .L125
 1636 00ae FF22     		movs	r2, #255
 1637 00b0 5A62     		str	r2, [r3, #36]
1079:Drivers/STM32H5xx_HAL_Driver/Src/stm32h5xx_hal_rtc_ex.c **** 
 1638              		.loc 1 1079 5 view .LVU520
1082:Drivers/STM32H5xx_HAL_Driver/Src/stm32h5xx_hal_rtc_ex.c **** 
 1639              		.loc 1 1082 5 view .LVU521
1082:Drivers/STM32H5xx_HAL_Driver/Src/stm32h5xx_hal_rtc_ex.c **** 
 1640              		.loc 1 1082 17 is_stmt 0 view .LVU522
 1641 00b2 0423     		movs	r3, #4
 1642 00b4 85F82D30 		strb	r3, [r5, #45]
1085:Drivers/STM32H5xx_HAL_Driver/Src/stm32h5xx_hal_rtc_ex.c **** 
 1643              		.loc 1 1085 5 is_stmt 1 view .LVU523
1085:Drivers/STM32H5xx_HAL_Driver/Src/stm32h5xx_hal_rtc_ex.c **** 
 1644              		.loc 1 1085 5 view .LVU524
 1645 00b8 0023     		movs	r3, #0
 1646 00ba 85F82C30 		strb	r3, [r5, #44]
1085:Drivers/STM32H5xx_HAL_Driver/Src/stm32h5xx_hal_rtc_ex.c **** 
 1647              		.loc 1 1085 5 view .LVU525
1087:Drivers/STM32H5xx_HAL_Driver/Src/stm32h5xx_hal_rtc_ex.c ****   }
 1648              		.loc 1 1087 5 view .LVU526
1087:Drivers/STM32H5xx_HAL_Driver/Src/stm32h5xx_hal_rtc_ex.c ****   }
 1649              		.loc 1 1087 12 is_stmt 0 view .LVU527
 1650 00be 0120     		movs	r0, #1
ARM GAS  C:\Users\DELL\AppData\Local\Temp\ccMtHSyM.s 			page 51


 1651 00c0 DCE7     		b	.L115
 1652              	.LVL111:
 1653              	.L121:
1016:Drivers/STM32H5xx_HAL_Driver/Src/stm32h5xx_hal_rtc_ex.c **** 
 1654              		.loc 1 1016 3 discriminator 1 view .LVU528
 1655 00c2 0220     		movs	r0, #2
 1656              	.LVL112:
1016:Drivers/STM32H5xx_HAL_Driver/Src/stm32h5xx_hal_rtc_ex.c **** 
 1657              		.loc 1 1016 3 discriminator 1 view .LVU529
 1658 00c4 DAE7     		b	.L115
 1659              	.L126:
 1660 00c6 00BF     		.align	2
 1661              	.L125:
 1662 00c8 00780044 		.word	1140881408
 1663              		.cfi_endproc
 1664              	.LFE315:
 1666              		.section	.text.HAL_RTCEx_SetCalibrationOutPut,"ax",%progbits
 1667              		.align	1
 1668              		.global	HAL_RTCEx_SetCalibrationOutPut
 1669              		.syntax unified
 1670              		.thumb
 1671              		.thumb_func
 1673              	HAL_RTCEx_SetCalibrationOutPut:
 1674              	.LVL113:
 1675              	.LFB316:
1102:Drivers/STM32H5xx_HAL_Driver/Src/stm32h5xx_hal_rtc_ex.c **** 
1103:Drivers/STM32H5xx_HAL_Driver/Src/stm32h5xx_hal_rtc_ex.c **** #if defined(RTC_CR_COSEL)
1104:Drivers/STM32H5xx_HAL_Driver/Src/stm32h5xx_hal_rtc_ex.c **** /**
1105:Drivers/STM32H5xx_HAL_Driver/Src/stm32h5xx_hal_rtc_ex.c ****   * @brief  Configure the Calibration Pinout (RTC_CALIB) Selection (1Hz or 512Hz).
1106:Drivers/STM32H5xx_HAL_Driver/Src/stm32h5xx_hal_rtc_ex.c ****   * @param  hrtc RTC handle
1107:Drivers/STM32H5xx_HAL_Driver/Src/stm32h5xx_hal_rtc_ex.c ****   * @param  CalibOutput Select the Calibration output Selection .
1108:Drivers/STM32H5xx_HAL_Driver/Src/stm32h5xx_hal_rtc_ex.c ****   *          This parameter can be one of the following values:
1109:Drivers/STM32H5xx_HAL_Driver/Src/stm32h5xx_hal_rtc_ex.c ****   *             @arg RTC_CALIBOUTPUT_512HZ: A signal has a regular waveform at 512Hz.
1110:Drivers/STM32H5xx_HAL_Driver/Src/stm32h5xx_hal_rtc_ex.c ****   *             @arg RTC_CALIBOUTPUT_1HZ: A signal has a regular waveform at 1Hz.
1111:Drivers/STM32H5xx_HAL_Driver/Src/stm32h5xx_hal_rtc_ex.c ****   * @retval HAL status
1112:Drivers/STM32H5xx_HAL_Driver/Src/stm32h5xx_hal_rtc_ex.c ****   */
1113:Drivers/STM32H5xx_HAL_Driver/Src/stm32h5xx_hal_rtc_ex.c **** HAL_StatusTypeDef HAL_RTCEx_SetCalibrationOutPut(RTC_HandleTypeDef *hrtc, uint32_t CalibOutput)
1114:Drivers/STM32H5xx_HAL_Driver/Src/stm32h5xx_hal_rtc_ex.c **** {
 1676              		.loc 1 1114 1 is_stmt 1 view -0
 1677              		.cfi_startproc
 1678              		@ args = 0, pretend = 0, frame = 0
 1679              		@ frame_needed = 0, uses_anonymous_args = 0
 1680              		@ link register save eliminated.
1115:Drivers/STM32H5xx_HAL_Driver/Src/stm32h5xx_hal_rtc_ex.c ****   /* Check the parameters */
1116:Drivers/STM32H5xx_HAL_Driver/Src/stm32h5xx_hal_rtc_ex.c ****   assert_param(IS_RTC_CALIB_OUTPUT(CalibOutput));
 1681              		.loc 1 1116 3 view .LVU531
1117:Drivers/STM32H5xx_HAL_Driver/Src/stm32h5xx_hal_rtc_ex.c **** 
1118:Drivers/STM32H5xx_HAL_Driver/Src/stm32h5xx_hal_rtc_ex.c ****   /* Process Locked */
1119:Drivers/STM32H5xx_HAL_Driver/Src/stm32h5xx_hal_rtc_ex.c ****   __HAL_LOCK(hrtc);
 1682              		.loc 1 1119 3 view .LVU532
 1683              		.loc 1 1119 3 view .LVU533
 1684 0000 90F82C30 		ldrb	r3, [r0, #44]	@ zero_extendqisi2
 1685 0004 012B     		cmp	r3, #1
 1686 0006 17D0     		beq	.L129
 1687              		.loc 1 1119 3 discriminator 2 view .LVU534
 1688 0008 4FF0010C 		mov	ip, #1
 1689 000c 80F82CC0 		strb	ip, [r0, #44]
ARM GAS  C:\Users\DELL\AppData\Local\Temp\ccMtHSyM.s 			page 52


 1690              		.loc 1 1119 3 view .LVU535
1120:Drivers/STM32H5xx_HAL_Driver/Src/stm32h5xx_hal_rtc_ex.c **** 
1121:Drivers/STM32H5xx_HAL_Driver/Src/stm32h5xx_hal_rtc_ex.c ****   /* Change RTC state */
1122:Drivers/STM32H5xx_HAL_Driver/Src/stm32h5xx_hal_rtc_ex.c ****   hrtc->State = HAL_RTC_STATE_BUSY;
 1691              		.loc 1 1122 3 view .LVU536
 1692              		.loc 1 1122 15 is_stmt 0 view .LVU537
 1693 0010 0223     		movs	r3, #2
 1694 0012 80F82D30 		strb	r3, [r0, #45]
1123:Drivers/STM32H5xx_HAL_Driver/Src/stm32h5xx_hal_rtc_ex.c **** 
1124:Drivers/STM32H5xx_HAL_Driver/Src/stm32h5xx_hal_rtc_ex.c ****   /* Configure the RTC_CR register */
1125:Drivers/STM32H5xx_HAL_Driver/Src/stm32h5xx_hal_rtc_ex.c ****   MODIFY_REG(RTC->CR, RTC_CR_COSEL, CalibOutput);
 1695              		.loc 1 1125 3 is_stmt 1 view .LVU538
 1696 0016 094A     		ldr	r2, .L130
 1697 0018 9369     		ldr	r3, [r2, #24]
 1698 001a 23F40023 		bic	r3, r3, #524288
 1699 001e 1943     		orrs	r1, r1, r3
 1700              	.LVL114:
 1701              		.loc 1 1125 3 is_stmt 0 view .LVU539
 1702 0020 9161     		str	r1, [r2, #24]
1126:Drivers/STM32H5xx_HAL_Driver/Src/stm32h5xx_hal_rtc_ex.c **** 
1127:Drivers/STM32H5xx_HAL_Driver/Src/stm32h5xx_hal_rtc_ex.c ****   /* Enable calibration output */
1128:Drivers/STM32H5xx_HAL_Driver/Src/stm32h5xx_hal_rtc_ex.c ****   SET_BIT(RTC->CR, RTC_CR_COE);
 1703              		.loc 1 1128 3 is_stmt 1 view .LVU540
 1704 0022 9369     		ldr	r3, [r2, #24]
 1705 0024 43F40003 		orr	r3, r3, #8388608
 1706 0028 9361     		str	r3, [r2, #24]
1129:Drivers/STM32H5xx_HAL_Driver/Src/stm32h5xx_hal_rtc_ex.c **** 
1130:Drivers/STM32H5xx_HAL_Driver/Src/stm32h5xx_hal_rtc_ex.c ****   /* Change RTC state */
1131:Drivers/STM32H5xx_HAL_Driver/Src/stm32h5xx_hal_rtc_ex.c ****   hrtc->State = HAL_RTC_STATE_READY;
 1707              		.loc 1 1131 3 view .LVU541
 1708              		.loc 1 1131 15 is_stmt 0 view .LVU542
 1709 002a 80F82DC0 		strb	ip, [r0, #45]
1132:Drivers/STM32H5xx_HAL_Driver/Src/stm32h5xx_hal_rtc_ex.c **** 
1133:Drivers/STM32H5xx_HAL_Driver/Src/stm32h5xx_hal_rtc_ex.c ****   /* Process Unlocked */
1134:Drivers/STM32H5xx_HAL_Driver/Src/stm32h5xx_hal_rtc_ex.c ****   __HAL_UNLOCK(hrtc);
 1710              		.loc 1 1134 3 is_stmt 1 view .LVU543
 1711              		.loc 1 1134 3 view .LVU544
 1712 002e 0023     		movs	r3, #0
 1713 0030 80F82C30 		strb	r3, [r0, #44]
 1714              		.loc 1 1134 3 view .LVU545
1135:Drivers/STM32H5xx_HAL_Driver/Src/stm32h5xx_hal_rtc_ex.c **** 
1136:Drivers/STM32H5xx_HAL_Driver/Src/stm32h5xx_hal_rtc_ex.c ****   return HAL_OK;
 1715              		.loc 1 1136 3 view .LVU546
 1716              		.loc 1 1136 10 is_stmt 0 view .LVU547
 1717 0034 1846     		mov	r0, r3
 1718              	.LVL115:
 1719              		.loc 1 1136 10 view .LVU548
 1720 0036 7047     		bx	lr
 1721              	.LVL116:
 1722              	.L129:
1119:Drivers/STM32H5xx_HAL_Driver/Src/stm32h5xx_hal_rtc_ex.c **** 
 1723              		.loc 1 1119 3 discriminator 1 view .LVU549
 1724 0038 0220     		movs	r0, #2
 1725              	.LVL117:
1137:Drivers/STM32H5xx_HAL_Driver/Src/stm32h5xx_hal_rtc_ex.c **** }
 1726              		.loc 1 1137 1 view .LVU550
 1727 003a 7047     		bx	lr
ARM GAS  C:\Users\DELL\AppData\Local\Temp\ccMtHSyM.s 			page 53


 1728              	.L131:
 1729              		.align	2
 1730              	.L130:
 1731 003c 00780044 		.word	1140881408
 1732              		.cfi_endproc
 1733              	.LFE316:
 1735              		.section	.text.HAL_RTCEx_DeactivateCalibrationOutPut,"ax",%progbits
 1736              		.align	1
 1737              		.global	HAL_RTCEx_DeactivateCalibrationOutPut
 1738              		.syntax unified
 1739              		.thumb
 1740              		.thumb_func
 1742              	HAL_RTCEx_DeactivateCalibrationOutPut:
 1743              	.LVL118:
 1744              	.LFB317:
1138:Drivers/STM32H5xx_HAL_Driver/Src/stm32h5xx_hal_rtc_ex.c **** 
1139:Drivers/STM32H5xx_HAL_Driver/Src/stm32h5xx_hal_rtc_ex.c **** /**
1140:Drivers/STM32H5xx_HAL_Driver/Src/stm32h5xx_hal_rtc_ex.c ****   * @brief  Deactivate the Calibration Pinout (RTC_CALIB) Selection (1Hz or 512Hz).
1141:Drivers/STM32H5xx_HAL_Driver/Src/stm32h5xx_hal_rtc_ex.c ****   * @param  hrtc RTC handle
1142:Drivers/STM32H5xx_HAL_Driver/Src/stm32h5xx_hal_rtc_ex.c ****   * @retval HAL status
1143:Drivers/STM32H5xx_HAL_Driver/Src/stm32h5xx_hal_rtc_ex.c ****   */
1144:Drivers/STM32H5xx_HAL_Driver/Src/stm32h5xx_hal_rtc_ex.c **** HAL_StatusTypeDef HAL_RTCEx_DeactivateCalibrationOutPut(RTC_HandleTypeDef *hrtc)
1145:Drivers/STM32H5xx_HAL_Driver/Src/stm32h5xx_hal_rtc_ex.c **** {
 1745              		.loc 1 1145 1 is_stmt 1 view -0
 1746              		.cfi_startproc
 1747              		@ args = 0, pretend = 0, frame = 0
 1748              		@ frame_needed = 0, uses_anonymous_args = 0
 1749              		@ link register save eliminated.
1146:Drivers/STM32H5xx_HAL_Driver/Src/stm32h5xx_hal_rtc_ex.c ****   /* Process Locked */
1147:Drivers/STM32H5xx_HAL_Driver/Src/stm32h5xx_hal_rtc_ex.c ****   __HAL_LOCK(hrtc);
 1750              		.loc 1 1147 3 view .LVU552
 1751              		.loc 1 1147 3 view .LVU553
 1752 0000 90F82C30 		ldrb	r3, [r0, #44]	@ zero_extendqisi2
 1753 0004 012B     		cmp	r3, #1
 1754 0006 11D0     		beq	.L134
 1755              		.loc 1 1147 3 discriminator 2 view .LVU554
 1756 0008 0122     		movs	r2, #1
 1757 000a 80F82C20 		strb	r2, [r0, #44]
 1758              		.loc 1 1147 3 view .LVU555
1148:Drivers/STM32H5xx_HAL_Driver/Src/stm32h5xx_hal_rtc_ex.c **** 
1149:Drivers/STM32H5xx_HAL_Driver/Src/stm32h5xx_hal_rtc_ex.c ****   /* Change RTC state */
1150:Drivers/STM32H5xx_HAL_Driver/Src/stm32h5xx_hal_rtc_ex.c ****   hrtc->State = HAL_RTC_STATE_BUSY;
 1759              		.loc 1 1150 3 view .LVU556
 1760              		.loc 1 1150 15 is_stmt 0 view .LVU557
 1761 000e 0223     		movs	r3, #2
 1762 0010 80F82D30 		strb	r3, [r0, #45]
1151:Drivers/STM32H5xx_HAL_Driver/Src/stm32h5xx_hal_rtc_ex.c **** 
1152:Drivers/STM32H5xx_HAL_Driver/Src/stm32h5xx_hal_rtc_ex.c ****   /* Disable calibration output */
1153:Drivers/STM32H5xx_HAL_Driver/Src/stm32h5xx_hal_rtc_ex.c ****   CLEAR_BIT(RTC->CR, RTC_CR_COE);
 1763              		.loc 1 1153 3 is_stmt 1 view .LVU558
 1764 0014 0649     		ldr	r1, .L135
 1765 0016 8B69     		ldr	r3, [r1, #24]
 1766 0018 23F40003 		bic	r3, r3, #8388608
 1767 001c 8B61     		str	r3, [r1, #24]
1154:Drivers/STM32H5xx_HAL_Driver/Src/stm32h5xx_hal_rtc_ex.c **** 
1155:Drivers/STM32H5xx_HAL_Driver/Src/stm32h5xx_hal_rtc_ex.c ****   /* Change RTC state */
1156:Drivers/STM32H5xx_HAL_Driver/Src/stm32h5xx_hal_rtc_ex.c ****   hrtc->State = HAL_RTC_STATE_READY;
ARM GAS  C:\Users\DELL\AppData\Local\Temp\ccMtHSyM.s 			page 54


 1768              		.loc 1 1156 3 view .LVU559
 1769              		.loc 1 1156 15 is_stmt 0 view .LVU560
 1770 001e 80F82D20 		strb	r2, [r0, #45]
1157:Drivers/STM32H5xx_HAL_Driver/Src/stm32h5xx_hal_rtc_ex.c **** 
1158:Drivers/STM32H5xx_HAL_Driver/Src/stm32h5xx_hal_rtc_ex.c ****   /* Process Unlocked */
1159:Drivers/STM32H5xx_HAL_Driver/Src/stm32h5xx_hal_rtc_ex.c ****   __HAL_UNLOCK(hrtc);
 1771              		.loc 1 1159 3 is_stmt 1 view .LVU561
 1772              		.loc 1 1159 3 view .LVU562
 1773 0022 0023     		movs	r3, #0
 1774 0024 80F82C30 		strb	r3, [r0, #44]
 1775              		.loc 1 1159 3 view .LVU563
1160:Drivers/STM32H5xx_HAL_Driver/Src/stm32h5xx_hal_rtc_ex.c **** 
1161:Drivers/STM32H5xx_HAL_Driver/Src/stm32h5xx_hal_rtc_ex.c ****   return HAL_OK;
 1776              		.loc 1 1161 3 view .LVU564
 1777              		.loc 1 1161 10 is_stmt 0 view .LVU565
 1778 0028 1846     		mov	r0, r3
 1779              	.LVL119:
 1780              		.loc 1 1161 10 view .LVU566
 1781 002a 7047     		bx	lr
 1782              	.LVL120:
 1783              	.L134:
1147:Drivers/STM32H5xx_HAL_Driver/Src/stm32h5xx_hal_rtc_ex.c **** 
 1784              		.loc 1 1147 3 discriminator 1 view .LVU567
 1785 002c 0220     		movs	r0, #2
 1786              	.LVL121:
1162:Drivers/STM32H5xx_HAL_Driver/Src/stm32h5xx_hal_rtc_ex.c **** }
 1787              		.loc 1 1162 1 view .LVU568
 1788 002e 7047     		bx	lr
 1789              	.L136:
 1790              		.align	2
 1791              	.L135:
 1792 0030 00780044 		.word	1140881408
 1793              		.cfi_endproc
 1794              	.LFE317:
 1796              		.section	.text.HAL_RTCEx_SetRefClock,"ax",%progbits
 1797              		.align	1
 1798              		.global	HAL_RTCEx_SetRefClock
 1799              		.syntax unified
 1800              		.thumb
 1801              		.thumb_func
 1803              	HAL_RTCEx_SetRefClock:
 1804              	.LVL122:
 1805              	.LFB318:
1163:Drivers/STM32H5xx_HAL_Driver/Src/stm32h5xx_hal_rtc_ex.c **** #endif /* RTC_CR_COSEL */
1164:Drivers/STM32H5xx_HAL_Driver/Src/stm32h5xx_hal_rtc_ex.c **** 
1165:Drivers/STM32H5xx_HAL_Driver/Src/stm32h5xx_hal_rtc_ex.c **** #if defined(RTC_CR_REFCKON)
1166:Drivers/STM32H5xx_HAL_Driver/Src/stm32h5xx_hal_rtc_ex.c **** /**
1167:Drivers/STM32H5xx_HAL_Driver/Src/stm32h5xx_hal_rtc_ex.c ****   * @brief  Enable the RTC reference clock detection.
1168:Drivers/STM32H5xx_HAL_Driver/Src/stm32h5xx_hal_rtc_ex.c ****   * @param  hrtc RTC handle
1169:Drivers/STM32H5xx_HAL_Driver/Src/stm32h5xx_hal_rtc_ex.c ****   * @retval HAL status
1170:Drivers/STM32H5xx_HAL_Driver/Src/stm32h5xx_hal_rtc_ex.c ****   */
1171:Drivers/STM32H5xx_HAL_Driver/Src/stm32h5xx_hal_rtc_ex.c **** HAL_StatusTypeDef HAL_RTCEx_SetRefClock(RTC_HandleTypeDef *hrtc)
1172:Drivers/STM32H5xx_HAL_Driver/Src/stm32h5xx_hal_rtc_ex.c **** {
 1806              		.loc 1 1172 1 is_stmt 1 view -0
 1807              		.cfi_startproc
 1808              		@ args = 0, pretend = 0, frame = 0
 1809              		@ frame_needed = 0, uses_anonymous_args = 0
ARM GAS  C:\Users\DELL\AppData\Local\Temp\ccMtHSyM.s 			page 55


 1810              		.loc 1 1172 1 is_stmt 0 view .LVU570
 1811 0000 38B5     		push	{r3, r4, r5, lr}
 1812              	.LCFI9:
 1813              		.cfi_def_cfa_offset 16
 1814              		.cfi_offset 3, -16
 1815              		.cfi_offset 4, -12
 1816              		.cfi_offset 5, -8
 1817              		.cfi_offset 14, -4
1173:Drivers/STM32H5xx_HAL_Driver/Src/stm32h5xx_hal_rtc_ex.c ****   HAL_StatusTypeDef status;
 1818              		.loc 1 1173 3 is_stmt 1 view .LVU571
1174:Drivers/STM32H5xx_HAL_Driver/Src/stm32h5xx_hal_rtc_ex.c **** 
1175:Drivers/STM32H5xx_HAL_Driver/Src/stm32h5xx_hal_rtc_ex.c ****   /* Process Locked */
1176:Drivers/STM32H5xx_HAL_Driver/Src/stm32h5xx_hal_rtc_ex.c ****   __HAL_LOCK(hrtc);
 1819              		.loc 1 1176 3 view .LVU572
 1820              		.loc 1 1176 3 view .LVU573
 1821 0002 90F82C30 		ldrb	r3, [r0, #44]	@ zero_extendqisi2
 1822 0006 012B     		cmp	r3, #1
 1823 0008 25D0     		beq	.L141
 1824 000a 0446     		mov	r4, r0
 1825              		.loc 1 1176 3 discriminator 2 view .LVU574
 1826 000c 0123     		movs	r3, #1
 1827 000e 80F82C30 		strb	r3, [r0, #44]
 1828              		.loc 1 1176 3 view .LVU575
1177:Drivers/STM32H5xx_HAL_Driver/Src/stm32h5xx_hal_rtc_ex.c **** 
1178:Drivers/STM32H5xx_HAL_Driver/Src/stm32h5xx_hal_rtc_ex.c ****   /* Change RTC state */
1179:Drivers/STM32H5xx_HAL_Driver/Src/stm32h5xx_hal_rtc_ex.c ****   hrtc->State = HAL_RTC_STATE_BUSY;
 1829              		.loc 1 1179 3 view .LVU576
 1830              		.loc 1 1179 15 is_stmt 0 view .LVU577
 1831 0012 0223     		movs	r3, #2
 1832 0014 80F82D30 		strb	r3, [r0, #45]
1180:Drivers/STM32H5xx_HAL_Driver/Src/stm32h5xx_hal_rtc_ex.c **** 
1181:Drivers/STM32H5xx_HAL_Driver/Src/stm32h5xx_hal_rtc_ex.c ****   /* Disable the write protection for RTC registers */
1182:Drivers/STM32H5xx_HAL_Driver/Src/stm32h5xx_hal_rtc_ex.c ****   __HAL_RTC_WRITEPROTECTION_DISABLE(hrtc);
 1833              		.loc 1 1182 3 is_stmt 1 view .LVU578
 1834              		.loc 1 1182 3 view .LVU579
 1835 0018 104B     		ldr	r3, .L143
 1836 001a CA22     		movs	r2, #202
 1837 001c 5A62     		str	r2, [r3, #36]
 1838              		.loc 1 1182 3 view .LVU580
 1839 001e 5322     		movs	r2, #83
 1840 0020 5A62     		str	r2, [r3, #36]
 1841              		.loc 1 1182 3 view .LVU581
1183:Drivers/STM32H5xx_HAL_Driver/Src/stm32h5xx_hal_rtc_ex.c **** 
1184:Drivers/STM32H5xx_HAL_Driver/Src/stm32h5xx_hal_rtc_ex.c ****   /* Enter Initialization mode */
1185:Drivers/STM32H5xx_HAL_Driver/Src/stm32h5xx_hal_rtc_ex.c ****   status = RTC_EnterInitMode(hrtc);
 1842              		.loc 1 1185 3 view .LVU582
 1843              		.loc 1 1185 12 is_stmt 0 view .LVU583
 1844 0022 FFF7FEFF 		bl	RTC_EnterInitMode
 1845              	.LVL123:
1186:Drivers/STM32H5xx_HAL_Driver/Src/stm32h5xx_hal_rtc_ex.c ****   if (status == HAL_OK)
 1846              		.loc 1 1186 3 is_stmt 1 view .LVU584
 1847              		.loc 1 1186 6 is_stmt 0 view .LVU585
 1848 0026 30B1     		cbz	r0, .L139
1187:Drivers/STM32H5xx_HAL_Driver/Src/stm32h5xx_hal_rtc_ex.c ****   {
1188:Drivers/STM32H5xx_HAL_Driver/Src/stm32h5xx_hal_rtc_ex.c ****     /* Enable clockref detection */
1189:Drivers/STM32H5xx_HAL_Driver/Src/stm32h5xx_hal_rtc_ex.c ****     SET_BIT(RTC->CR, RTC_CR_REFCKON);
1190:Drivers/STM32H5xx_HAL_Driver/Src/stm32h5xx_hal_rtc_ex.c **** 
ARM GAS  C:\Users\DELL\AppData\Local\Temp\ccMtHSyM.s 			page 56


1191:Drivers/STM32H5xx_HAL_Driver/Src/stm32h5xx_hal_rtc_ex.c ****     /* Exit Initialization mode */
1192:Drivers/STM32H5xx_HAL_Driver/Src/stm32h5xx_hal_rtc_ex.c ****     status = RTC_ExitInitMode(hrtc);
1193:Drivers/STM32H5xx_HAL_Driver/Src/stm32h5xx_hal_rtc_ex.c ****   }
1194:Drivers/STM32H5xx_HAL_Driver/Src/stm32h5xx_hal_rtc_ex.c **** 
1195:Drivers/STM32H5xx_HAL_Driver/Src/stm32h5xx_hal_rtc_ex.c ****   /* Enable the write protection for RTC registers */
1196:Drivers/STM32H5xx_HAL_Driver/Src/stm32h5xx_hal_rtc_ex.c ****   __HAL_RTC_WRITEPROTECTION_ENABLE(hrtc);
 1849              		.loc 1 1196 3 is_stmt 1 view .LVU586
 1850              		.loc 1 1196 3 view .LVU587
 1851 0028 0C4B     		ldr	r3, .L143
 1852 002a FF22     		movs	r2, #255
 1853 002c 5A62     		str	r2, [r3, #36]
 1854              		.loc 1 1196 3 view .LVU588
1197:Drivers/STM32H5xx_HAL_Driver/Src/stm32h5xx_hal_rtc_ex.c **** 
1198:Drivers/STM32H5xx_HAL_Driver/Src/stm32h5xx_hal_rtc_ex.c ****   if (status == HAL_OK)
 1855              		.loc 1 1198 3 view .LVU589
 1856              	.L140:
1199:Drivers/STM32H5xx_HAL_Driver/Src/stm32h5xx_hal_rtc_ex.c ****   {
1200:Drivers/STM32H5xx_HAL_Driver/Src/stm32h5xx_hal_rtc_ex.c ****     /* Change RTC state */
1201:Drivers/STM32H5xx_HAL_Driver/Src/stm32h5xx_hal_rtc_ex.c ****     hrtc->State = HAL_RTC_STATE_READY;
1202:Drivers/STM32H5xx_HAL_Driver/Src/stm32h5xx_hal_rtc_ex.c ****   }
1203:Drivers/STM32H5xx_HAL_Driver/Src/stm32h5xx_hal_rtc_ex.c **** 
1204:Drivers/STM32H5xx_HAL_Driver/Src/stm32h5xx_hal_rtc_ex.c ****   /* Process Unlocked */
1205:Drivers/STM32H5xx_HAL_Driver/Src/stm32h5xx_hal_rtc_ex.c ****   __HAL_UNLOCK(hrtc);
 1857              		.loc 1 1205 3 view .LVU590
 1858              		.loc 1 1205 3 view .LVU591
 1859 002e 0023     		movs	r3, #0
 1860 0030 84F82C30 		strb	r3, [r4, #44]
 1861              		.loc 1 1205 3 view .LVU592
1206:Drivers/STM32H5xx_HAL_Driver/Src/stm32h5xx_hal_rtc_ex.c **** 
1207:Drivers/STM32H5xx_HAL_Driver/Src/stm32h5xx_hal_rtc_ex.c ****   return status;
 1862              		.loc 1 1207 3 view .LVU593
 1863              	.LVL124:
 1864              	.L138:
1208:Drivers/STM32H5xx_HAL_Driver/Src/stm32h5xx_hal_rtc_ex.c **** }
 1865              		.loc 1 1208 1 is_stmt 0 view .LVU594
 1866 0034 38BD     		pop	{r3, r4, r5, pc}
 1867              	.LVL125:
 1868              	.L139:
1189:Drivers/STM32H5xx_HAL_Driver/Src/stm32h5xx_hal_rtc_ex.c **** 
 1869              		.loc 1 1189 5 is_stmt 1 view .LVU595
 1870 0036 094D     		ldr	r5, .L143
 1871 0038 AB69     		ldr	r3, [r5, #24]
 1872 003a 43F01003 		orr	r3, r3, #16
 1873 003e AB61     		str	r3, [r5, #24]
1192:Drivers/STM32H5xx_HAL_Driver/Src/stm32h5xx_hal_rtc_ex.c ****   }
 1874              		.loc 1 1192 5 view .LVU596
1192:Drivers/STM32H5xx_HAL_Driver/Src/stm32h5xx_hal_rtc_ex.c ****   }
 1875              		.loc 1 1192 14 is_stmt 0 view .LVU597
 1876 0040 2046     		mov	r0, r4
 1877              	.LVL126:
1192:Drivers/STM32H5xx_HAL_Driver/Src/stm32h5xx_hal_rtc_ex.c ****   }
 1878              		.loc 1 1192 14 view .LVU598
 1879 0042 FFF7FEFF 		bl	RTC_ExitInitMode
 1880              	.LVL127:
1196:Drivers/STM32H5xx_HAL_Driver/Src/stm32h5xx_hal_rtc_ex.c **** 
 1881              		.loc 1 1196 3 is_stmt 1 view .LVU599
1196:Drivers/STM32H5xx_HAL_Driver/Src/stm32h5xx_hal_rtc_ex.c **** 
ARM GAS  C:\Users\DELL\AppData\Local\Temp\ccMtHSyM.s 			page 57


 1882              		.loc 1 1196 3 view .LVU600
 1883 0046 FF22     		movs	r2, #255
 1884 0048 6A62     		str	r2, [r5, #36]
1196:Drivers/STM32H5xx_HAL_Driver/Src/stm32h5xx_hal_rtc_ex.c **** 
 1885              		.loc 1 1196 3 view .LVU601
1198:Drivers/STM32H5xx_HAL_Driver/Src/stm32h5xx_hal_rtc_ex.c ****   {
 1886              		.loc 1 1198 3 view .LVU602
1198:Drivers/STM32H5xx_HAL_Driver/Src/stm32h5xx_hal_rtc_ex.c ****   {
 1887              		.loc 1 1198 6 is_stmt 0 view .LVU603
 1888 004a 0028     		cmp	r0, #0
 1889 004c EFD1     		bne	.L140
1201:Drivers/STM32H5xx_HAL_Driver/Src/stm32h5xx_hal_rtc_ex.c ****   }
 1890              		.loc 1 1201 5 is_stmt 1 view .LVU604
1201:Drivers/STM32H5xx_HAL_Driver/Src/stm32h5xx_hal_rtc_ex.c ****   }
 1891              		.loc 1 1201 17 is_stmt 0 view .LVU605
 1892 004e 0123     		movs	r3, #1
 1893 0050 84F82D30 		strb	r3, [r4, #45]
 1894 0054 EBE7     		b	.L140
 1895              	.LVL128:
 1896              	.L141:
1176:Drivers/STM32H5xx_HAL_Driver/Src/stm32h5xx_hal_rtc_ex.c **** 
 1897              		.loc 1 1176 3 discriminator 1 view .LVU606
 1898 0056 0220     		movs	r0, #2
 1899              	.LVL129:
1176:Drivers/STM32H5xx_HAL_Driver/Src/stm32h5xx_hal_rtc_ex.c **** 
 1900              		.loc 1 1176 3 discriminator 1 view .LVU607
 1901 0058 ECE7     		b	.L138
 1902              	.L144:
 1903 005a 00BF     		.align	2
 1904              	.L143:
 1905 005c 00780044 		.word	1140881408
 1906              		.cfi_endproc
 1907              	.LFE318:
 1909              		.section	.text.HAL_RTCEx_DeactivateRefClock,"ax",%progbits
 1910              		.align	1
 1911              		.global	HAL_RTCEx_DeactivateRefClock
 1912              		.syntax unified
 1913              		.thumb
 1914              		.thumb_func
 1916              	HAL_RTCEx_DeactivateRefClock:
 1917              	.LVL130:
 1918              	.LFB319:
1209:Drivers/STM32H5xx_HAL_Driver/Src/stm32h5xx_hal_rtc_ex.c **** 
1210:Drivers/STM32H5xx_HAL_Driver/Src/stm32h5xx_hal_rtc_ex.c **** /**
1211:Drivers/STM32H5xx_HAL_Driver/Src/stm32h5xx_hal_rtc_ex.c ****   * @brief  Disable the RTC reference clock detection.
1212:Drivers/STM32H5xx_HAL_Driver/Src/stm32h5xx_hal_rtc_ex.c ****   * @param  hrtc RTC handle
1213:Drivers/STM32H5xx_HAL_Driver/Src/stm32h5xx_hal_rtc_ex.c ****   * @retval HAL status
1214:Drivers/STM32H5xx_HAL_Driver/Src/stm32h5xx_hal_rtc_ex.c ****   */
1215:Drivers/STM32H5xx_HAL_Driver/Src/stm32h5xx_hal_rtc_ex.c **** HAL_StatusTypeDef HAL_RTCEx_DeactivateRefClock(RTC_HandleTypeDef *hrtc)
1216:Drivers/STM32H5xx_HAL_Driver/Src/stm32h5xx_hal_rtc_ex.c **** {
 1919              		.loc 1 1216 1 is_stmt 1 view -0
 1920              		.cfi_startproc
 1921              		@ args = 0, pretend = 0, frame = 0
 1922              		@ frame_needed = 0, uses_anonymous_args = 0
 1923              		.loc 1 1216 1 is_stmt 0 view .LVU609
 1924 0000 38B5     		push	{r3, r4, r5, lr}
 1925              	.LCFI10:
ARM GAS  C:\Users\DELL\AppData\Local\Temp\ccMtHSyM.s 			page 58


 1926              		.cfi_def_cfa_offset 16
 1927              		.cfi_offset 3, -16
 1928              		.cfi_offset 4, -12
 1929              		.cfi_offset 5, -8
 1930              		.cfi_offset 14, -4
1217:Drivers/STM32H5xx_HAL_Driver/Src/stm32h5xx_hal_rtc_ex.c ****   HAL_StatusTypeDef status;
 1931              		.loc 1 1217 3 is_stmt 1 view .LVU610
1218:Drivers/STM32H5xx_HAL_Driver/Src/stm32h5xx_hal_rtc_ex.c **** 
1219:Drivers/STM32H5xx_HAL_Driver/Src/stm32h5xx_hal_rtc_ex.c ****   /* Process Locked */
1220:Drivers/STM32H5xx_HAL_Driver/Src/stm32h5xx_hal_rtc_ex.c ****   __HAL_LOCK(hrtc);
 1932              		.loc 1 1220 3 view .LVU611
 1933              		.loc 1 1220 3 view .LVU612
 1934 0002 90F82C30 		ldrb	r3, [r0, #44]	@ zero_extendqisi2
 1935 0006 012B     		cmp	r3, #1
 1936 0008 25D0     		beq	.L149
 1937 000a 0446     		mov	r4, r0
 1938              		.loc 1 1220 3 discriminator 2 view .LVU613
 1939 000c 0123     		movs	r3, #1
 1940 000e 80F82C30 		strb	r3, [r0, #44]
 1941              		.loc 1 1220 3 view .LVU614
1221:Drivers/STM32H5xx_HAL_Driver/Src/stm32h5xx_hal_rtc_ex.c **** 
1222:Drivers/STM32H5xx_HAL_Driver/Src/stm32h5xx_hal_rtc_ex.c ****   /* Change RTC state */
1223:Drivers/STM32H5xx_HAL_Driver/Src/stm32h5xx_hal_rtc_ex.c ****   hrtc->State = HAL_RTC_STATE_BUSY;
 1942              		.loc 1 1223 3 view .LVU615
 1943              		.loc 1 1223 15 is_stmt 0 view .LVU616
 1944 0012 0223     		movs	r3, #2
 1945 0014 80F82D30 		strb	r3, [r0, #45]
1224:Drivers/STM32H5xx_HAL_Driver/Src/stm32h5xx_hal_rtc_ex.c **** 
1225:Drivers/STM32H5xx_HAL_Driver/Src/stm32h5xx_hal_rtc_ex.c ****   /* Disable the write protection for RTC registers */
1226:Drivers/STM32H5xx_HAL_Driver/Src/stm32h5xx_hal_rtc_ex.c ****   __HAL_RTC_WRITEPROTECTION_DISABLE(hrtc);
 1946              		.loc 1 1226 3 is_stmt 1 view .LVU617
 1947              		.loc 1 1226 3 view .LVU618
 1948 0018 104B     		ldr	r3, .L151
 1949 001a CA22     		movs	r2, #202
 1950 001c 5A62     		str	r2, [r3, #36]
 1951              		.loc 1 1226 3 view .LVU619
 1952 001e 5322     		movs	r2, #83
 1953 0020 5A62     		str	r2, [r3, #36]
 1954              		.loc 1 1226 3 view .LVU620
1227:Drivers/STM32H5xx_HAL_Driver/Src/stm32h5xx_hal_rtc_ex.c **** 
1228:Drivers/STM32H5xx_HAL_Driver/Src/stm32h5xx_hal_rtc_ex.c ****   /* Enter Initialization mode */
1229:Drivers/STM32H5xx_HAL_Driver/Src/stm32h5xx_hal_rtc_ex.c ****   status = RTC_EnterInitMode(hrtc);
 1955              		.loc 1 1229 3 view .LVU621
 1956              		.loc 1 1229 12 is_stmt 0 view .LVU622
 1957 0022 FFF7FEFF 		bl	RTC_EnterInitMode
 1958              	.LVL131:
1230:Drivers/STM32H5xx_HAL_Driver/Src/stm32h5xx_hal_rtc_ex.c ****   if (status == HAL_OK)
 1959              		.loc 1 1230 3 is_stmt 1 view .LVU623
 1960              		.loc 1 1230 6 is_stmt 0 view .LVU624
 1961 0026 30B1     		cbz	r0, .L147
1231:Drivers/STM32H5xx_HAL_Driver/Src/stm32h5xx_hal_rtc_ex.c ****   {
1232:Drivers/STM32H5xx_HAL_Driver/Src/stm32h5xx_hal_rtc_ex.c ****     /* Disable clockref detection */
1233:Drivers/STM32H5xx_HAL_Driver/Src/stm32h5xx_hal_rtc_ex.c ****     CLEAR_BIT(RTC->CR, RTC_CR_REFCKON);
1234:Drivers/STM32H5xx_HAL_Driver/Src/stm32h5xx_hal_rtc_ex.c **** 
1235:Drivers/STM32H5xx_HAL_Driver/Src/stm32h5xx_hal_rtc_ex.c ****     /* Exit Initialization mode */
1236:Drivers/STM32H5xx_HAL_Driver/Src/stm32h5xx_hal_rtc_ex.c ****     status = RTC_ExitInitMode(hrtc);
1237:Drivers/STM32H5xx_HAL_Driver/Src/stm32h5xx_hal_rtc_ex.c ****   }
ARM GAS  C:\Users\DELL\AppData\Local\Temp\ccMtHSyM.s 			page 59


1238:Drivers/STM32H5xx_HAL_Driver/Src/stm32h5xx_hal_rtc_ex.c **** 
1239:Drivers/STM32H5xx_HAL_Driver/Src/stm32h5xx_hal_rtc_ex.c ****   /* Enable the write protection for RTC registers */
1240:Drivers/STM32H5xx_HAL_Driver/Src/stm32h5xx_hal_rtc_ex.c ****   __HAL_RTC_WRITEPROTECTION_ENABLE(hrtc);
 1962              		.loc 1 1240 3 is_stmt 1 view .LVU625
 1963              		.loc 1 1240 3 view .LVU626
 1964 0028 0C4B     		ldr	r3, .L151
 1965 002a FF22     		movs	r2, #255
 1966 002c 5A62     		str	r2, [r3, #36]
 1967              		.loc 1 1240 3 view .LVU627
1241:Drivers/STM32H5xx_HAL_Driver/Src/stm32h5xx_hal_rtc_ex.c **** 
1242:Drivers/STM32H5xx_HAL_Driver/Src/stm32h5xx_hal_rtc_ex.c ****   if (status == HAL_OK)
 1968              		.loc 1 1242 3 view .LVU628
 1969              	.L148:
1243:Drivers/STM32H5xx_HAL_Driver/Src/stm32h5xx_hal_rtc_ex.c ****   {
1244:Drivers/STM32H5xx_HAL_Driver/Src/stm32h5xx_hal_rtc_ex.c ****     /* Change RTC state */
1245:Drivers/STM32H5xx_HAL_Driver/Src/stm32h5xx_hal_rtc_ex.c ****     hrtc->State = HAL_RTC_STATE_READY;
1246:Drivers/STM32H5xx_HAL_Driver/Src/stm32h5xx_hal_rtc_ex.c ****   }
1247:Drivers/STM32H5xx_HAL_Driver/Src/stm32h5xx_hal_rtc_ex.c **** 
1248:Drivers/STM32H5xx_HAL_Driver/Src/stm32h5xx_hal_rtc_ex.c ****   /* Process Unlocked */
1249:Drivers/STM32H5xx_HAL_Driver/Src/stm32h5xx_hal_rtc_ex.c ****   __HAL_UNLOCK(hrtc);
 1970              		.loc 1 1249 3 view .LVU629
 1971              		.loc 1 1249 3 view .LVU630
 1972 002e 0023     		movs	r3, #0
 1973 0030 84F82C30 		strb	r3, [r4, #44]
 1974              		.loc 1 1249 3 view .LVU631
1250:Drivers/STM32H5xx_HAL_Driver/Src/stm32h5xx_hal_rtc_ex.c **** 
1251:Drivers/STM32H5xx_HAL_Driver/Src/stm32h5xx_hal_rtc_ex.c ****   return status;
 1975              		.loc 1 1251 3 view .LVU632
 1976              	.LVL132:
 1977              	.L146:
1252:Drivers/STM32H5xx_HAL_Driver/Src/stm32h5xx_hal_rtc_ex.c **** }
 1978              		.loc 1 1252 1 is_stmt 0 view .LVU633
 1979 0034 38BD     		pop	{r3, r4, r5, pc}
 1980              	.LVL133:
 1981              	.L147:
1233:Drivers/STM32H5xx_HAL_Driver/Src/stm32h5xx_hal_rtc_ex.c **** 
 1982              		.loc 1 1233 5 is_stmt 1 view .LVU634
 1983 0036 094D     		ldr	r5, .L151
 1984 0038 AB69     		ldr	r3, [r5, #24]
 1985 003a 23F01003 		bic	r3, r3, #16
 1986 003e AB61     		str	r3, [r5, #24]
1236:Drivers/STM32H5xx_HAL_Driver/Src/stm32h5xx_hal_rtc_ex.c ****   }
 1987              		.loc 1 1236 5 view .LVU635
1236:Drivers/STM32H5xx_HAL_Driver/Src/stm32h5xx_hal_rtc_ex.c ****   }
 1988              		.loc 1 1236 14 is_stmt 0 view .LVU636
 1989 0040 2046     		mov	r0, r4
 1990              	.LVL134:
1236:Drivers/STM32H5xx_HAL_Driver/Src/stm32h5xx_hal_rtc_ex.c ****   }
 1991              		.loc 1 1236 14 view .LVU637
 1992 0042 FFF7FEFF 		bl	RTC_ExitInitMode
 1993              	.LVL135:
1240:Drivers/STM32H5xx_HAL_Driver/Src/stm32h5xx_hal_rtc_ex.c **** 
 1994              		.loc 1 1240 3 is_stmt 1 view .LVU638
1240:Drivers/STM32H5xx_HAL_Driver/Src/stm32h5xx_hal_rtc_ex.c **** 
 1995              		.loc 1 1240 3 view .LVU639
 1996 0046 FF22     		movs	r2, #255
 1997 0048 6A62     		str	r2, [r5, #36]
ARM GAS  C:\Users\DELL\AppData\Local\Temp\ccMtHSyM.s 			page 60


1240:Drivers/STM32H5xx_HAL_Driver/Src/stm32h5xx_hal_rtc_ex.c **** 
 1998              		.loc 1 1240 3 view .LVU640
1242:Drivers/STM32H5xx_HAL_Driver/Src/stm32h5xx_hal_rtc_ex.c ****   {
 1999              		.loc 1 1242 3 view .LVU641
1242:Drivers/STM32H5xx_HAL_Driver/Src/stm32h5xx_hal_rtc_ex.c ****   {
 2000              		.loc 1 1242 6 is_stmt 0 view .LVU642
 2001 004a 0028     		cmp	r0, #0
 2002 004c EFD1     		bne	.L148
1245:Drivers/STM32H5xx_HAL_Driver/Src/stm32h5xx_hal_rtc_ex.c ****   }
 2003              		.loc 1 1245 5 is_stmt 1 view .LVU643
1245:Drivers/STM32H5xx_HAL_Driver/Src/stm32h5xx_hal_rtc_ex.c ****   }
 2004              		.loc 1 1245 17 is_stmt 0 view .LVU644
 2005 004e 0123     		movs	r3, #1
 2006 0050 84F82D30 		strb	r3, [r4, #45]
 2007 0054 EBE7     		b	.L148
 2008              	.LVL136:
 2009              	.L149:
1220:Drivers/STM32H5xx_HAL_Driver/Src/stm32h5xx_hal_rtc_ex.c **** 
 2010              		.loc 1 1220 3 discriminator 1 view .LVU645
 2011 0056 0220     		movs	r0, #2
 2012              	.LVL137:
1220:Drivers/STM32H5xx_HAL_Driver/Src/stm32h5xx_hal_rtc_ex.c **** 
 2013              		.loc 1 1220 3 discriminator 1 view .LVU646
 2014 0058 ECE7     		b	.L146
 2015              	.L152:
 2016 005a 00BF     		.align	2
 2017              	.L151:
 2018 005c 00780044 		.word	1140881408
 2019              		.cfi_endproc
 2020              	.LFE319:
 2022              		.section	.text.HAL_RTCEx_EnableBypassShadow,"ax",%progbits
 2023              		.align	1
 2024              		.global	HAL_RTCEx_EnableBypassShadow
 2025              		.syntax unified
 2026              		.thumb
 2027              		.thumb_func
 2029              	HAL_RTCEx_EnableBypassShadow:
 2030              	.LVL138:
 2031              	.LFB320:
1253:Drivers/STM32H5xx_HAL_Driver/Src/stm32h5xx_hal_rtc_ex.c **** #endif /* RTC_CR_REFCKON */
1254:Drivers/STM32H5xx_HAL_Driver/Src/stm32h5xx_hal_rtc_ex.c **** 
1255:Drivers/STM32H5xx_HAL_Driver/Src/stm32h5xx_hal_rtc_ex.c **** /**
1256:Drivers/STM32H5xx_HAL_Driver/Src/stm32h5xx_hal_rtc_ex.c ****   * @brief  Enable the Bypass Shadow feature.
1257:Drivers/STM32H5xx_HAL_Driver/Src/stm32h5xx_hal_rtc_ex.c ****   * @note   When the Bypass Shadow is enabled the calendar value are taken
1258:Drivers/STM32H5xx_HAL_Driver/Src/stm32h5xx_hal_rtc_ex.c ****   *         directly from the Calendar counter.
1259:Drivers/STM32H5xx_HAL_Driver/Src/stm32h5xx_hal_rtc_ex.c ****   * @param  hrtc RTC handle
1260:Drivers/STM32H5xx_HAL_Driver/Src/stm32h5xx_hal_rtc_ex.c ****   * @retval HAL status
1261:Drivers/STM32H5xx_HAL_Driver/Src/stm32h5xx_hal_rtc_ex.c ****   */
1262:Drivers/STM32H5xx_HAL_Driver/Src/stm32h5xx_hal_rtc_ex.c **** HAL_StatusTypeDef HAL_RTCEx_EnableBypassShadow(RTC_HandleTypeDef *hrtc)
1263:Drivers/STM32H5xx_HAL_Driver/Src/stm32h5xx_hal_rtc_ex.c **** {
 2032              		.loc 1 1263 1 is_stmt 1 view -0
 2033              		.cfi_startproc
 2034              		@ args = 0, pretend = 0, frame = 0
 2035              		@ frame_needed = 0, uses_anonymous_args = 0
 2036              		@ link register save eliminated.
1264:Drivers/STM32H5xx_HAL_Driver/Src/stm32h5xx_hal_rtc_ex.c ****   /* Process Locked */
1265:Drivers/STM32H5xx_HAL_Driver/Src/stm32h5xx_hal_rtc_ex.c ****   __HAL_LOCK(hrtc);
ARM GAS  C:\Users\DELL\AppData\Local\Temp\ccMtHSyM.s 			page 61


 2037              		.loc 1 1265 3 view .LVU648
 2038              		.loc 1 1265 3 view .LVU649
 2039 0000 90F82C30 		ldrb	r3, [r0, #44]	@ zero_extendqisi2
 2040 0004 012B     		cmp	r3, #1
 2041 0006 11D0     		beq	.L155
 2042              		.loc 1 1265 3 discriminator 2 view .LVU650
 2043 0008 0122     		movs	r2, #1
 2044 000a 80F82C20 		strb	r2, [r0, #44]
 2045              		.loc 1 1265 3 view .LVU651
1266:Drivers/STM32H5xx_HAL_Driver/Src/stm32h5xx_hal_rtc_ex.c **** 
1267:Drivers/STM32H5xx_HAL_Driver/Src/stm32h5xx_hal_rtc_ex.c ****   /* Change RTC state */
1268:Drivers/STM32H5xx_HAL_Driver/Src/stm32h5xx_hal_rtc_ex.c ****   hrtc->State = HAL_RTC_STATE_BUSY;
 2046              		.loc 1 1268 3 view .LVU652
 2047              		.loc 1 1268 15 is_stmt 0 view .LVU653
 2048 000e 0223     		movs	r3, #2
 2049 0010 80F82D30 		strb	r3, [r0, #45]
1269:Drivers/STM32H5xx_HAL_Driver/Src/stm32h5xx_hal_rtc_ex.c **** 
1270:Drivers/STM32H5xx_HAL_Driver/Src/stm32h5xx_hal_rtc_ex.c ****   /* Set the BYPSHAD bit */
1271:Drivers/STM32H5xx_HAL_Driver/Src/stm32h5xx_hal_rtc_ex.c ****   SET_BIT(RTC->CR, RTC_CR_BYPSHAD);
 2050              		.loc 1 1271 3 is_stmt 1 view .LVU654
 2051 0014 0649     		ldr	r1, .L156
 2052 0016 8B69     		ldr	r3, [r1, #24]
 2053 0018 43F02003 		orr	r3, r3, #32
 2054 001c 8B61     		str	r3, [r1, #24]
1272:Drivers/STM32H5xx_HAL_Driver/Src/stm32h5xx_hal_rtc_ex.c **** 
1273:Drivers/STM32H5xx_HAL_Driver/Src/stm32h5xx_hal_rtc_ex.c ****   /* Change RTC state */
1274:Drivers/STM32H5xx_HAL_Driver/Src/stm32h5xx_hal_rtc_ex.c ****   hrtc->State = HAL_RTC_STATE_READY;
 2055              		.loc 1 1274 3 view .LVU655
 2056              		.loc 1 1274 15 is_stmt 0 view .LVU656
 2057 001e 80F82D20 		strb	r2, [r0, #45]
1275:Drivers/STM32H5xx_HAL_Driver/Src/stm32h5xx_hal_rtc_ex.c **** 
1276:Drivers/STM32H5xx_HAL_Driver/Src/stm32h5xx_hal_rtc_ex.c ****   /* Process Unlocked */
1277:Drivers/STM32H5xx_HAL_Driver/Src/stm32h5xx_hal_rtc_ex.c ****   __HAL_UNLOCK(hrtc);
 2058              		.loc 1 1277 3 is_stmt 1 view .LVU657
 2059              		.loc 1 1277 3 view .LVU658
 2060 0022 0023     		movs	r3, #0
 2061 0024 80F82C30 		strb	r3, [r0, #44]
 2062              		.loc 1 1277 3 view .LVU659
1278:Drivers/STM32H5xx_HAL_Driver/Src/stm32h5xx_hal_rtc_ex.c **** 
1279:Drivers/STM32H5xx_HAL_Driver/Src/stm32h5xx_hal_rtc_ex.c ****   return HAL_OK;
 2063              		.loc 1 1279 3 view .LVU660
 2064              		.loc 1 1279 10 is_stmt 0 view .LVU661
 2065 0028 1846     		mov	r0, r3
 2066              	.LVL139:
 2067              		.loc 1 1279 10 view .LVU662
 2068 002a 7047     		bx	lr
 2069              	.LVL140:
 2070              	.L155:
1265:Drivers/STM32H5xx_HAL_Driver/Src/stm32h5xx_hal_rtc_ex.c **** 
 2071              		.loc 1 1265 3 discriminator 1 view .LVU663
 2072 002c 0220     		movs	r0, #2
 2073              	.LVL141:
1280:Drivers/STM32H5xx_HAL_Driver/Src/stm32h5xx_hal_rtc_ex.c **** }
 2074              		.loc 1 1280 1 view .LVU664
 2075 002e 7047     		bx	lr
 2076              	.L157:
 2077              		.align	2
ARM GAS  C:\Users\DELL\AppData\Local\Temp\ccMtHSyM.s 			page 62


 2078              	.L156:
 2079 0030 00780044 		.word	1140881408
 2080              		.cfi_endproc
 2081              	.LFE320:
 2083              		.section	.text.HAL_RTCEx_DisableBypassShadow,"ax",%progbits
 2084              		.align	1
 2085              		.global	HAL_RTCEx_DisableBypassShadow
 2086              		.syntax unified
 2087              		.thumb
 2088              		.thumb_func
 2090              	HAL_RTCEx_DisableBypassShadow:
 2091              	.LVL142:
 2092              	.LFB321:
1281:Drivers/STM32H5xx_HAL_Driver/Src/stm32h5xx_hal_rtc_ex.c **** 
1282:Drivers/STM32H5xx_HAL_Driver/Src/stm32h5xx_hal_rtc_ex.c **** /**
1283:Drivers/STM32H5xx_HAL_Driver/Src/stm32h5xx_hal_rtc_ex.c ****   * @brief  Disable the Bypass Shadow feature.
1284:Drivers/STM32H5xx_HAL_Driver/Src/stm32h5xx_hal_rtc_ex.c ****   * @note   When the Bypass Shadow is enabled the calendar value are taken
1285:Drivers/STM32H5xx_HAL_Driver/Src/stm32h5xx_hal_rtc_ex.c ****   *         directly from the Calendar counter.
1286:Drivers/STM32H5xx_HAL_Driver/Src/stm32h5xx_hal_rtc_ex.c ****   * @param  hrtc RTC handle
1287:Drivers/STM32H5xx_HAL_Driver/Src/stm32h5xx_hal_rtc_ex.c ****   * @retval HAL status
1288:Drivers/STM32H5xx_HAL_Driver/Src/stm32h5xx_hal_rtc_ex.c ****   */
1289:Drivers/STM32H5xx_HAL_Driver/Src/stm32h5xx_hal_rtc_ex.c **** HAL_StatusTypeDef HAL_RTCEx_DisableBypassShadow(RTC_HandleTypeDef *hrtc)
1290:Drivers/STM32H5xx_HAL_Driver/Src/stm32h5xx_hal_rtc_ex.c **** {
 2093              		.loc 1 1290 1 is_stmt 1 view -0
 2094              		.cfi_startproc
 2095              		@ args = 0, pretend = 0, frame = 0
 2096              		@ frame_needed = 0, uses_anonymous_args = 0
 2097              		@ link register save eliminated.
1291:Drivers/STM32H5xx_HAL_Driver/Src/stm32h5xx_hal_rtc_ex.c ****   /* Process Locked */
1292:Drivers/STM32H5xx_HAL_Driver/Src/stm32h5xx_hal_rtc_ex.c ****   __HAL_LOCK(hrtc);
 2098              		.loc 1 1292 3 view .LVU666
 2099              		.loc 1 1292 3 view .LVU667
 2100 0000 90F82C30 		ldrb	r3, [r0, #44]	@ zero_extendqisi2
 2101 0004 012B     		cmp	r3, #1
 2102 0006 11D0     		beq	.L160
 2103              		.loc 1 1292 3 discriminator 2 view .LVU668
 2104 0008 0122     		movs	r2, #1
 2105 000a 80F82C20 		strb	r2, [r0, #44]
 2106              		.loc 1 1292 3 view .LVU669
1293:Drivers/STM32H5xx_HAL_Driver/Src/stm32h5xx_hal_rtc_ex.c **** 
1294:Drivers/STM32H5xx_HAL_Driver/Src/stm32h5xx_hal_rtc_ex.c ****   /* Change RTC state */
1295:Drivers/STM32H5xx_HAL_Driver/Src/stm32h5xx_hal_rtc_ex.c ****   hrtc->State = HAL_RTC_STATE_BUSY;
 2107              		.loc 1 1295 3 view .LVU670
 2108              		.loc 1 1295 15 is_stmt 0 view .LVU671
 2109 000e 0223     		movs	r3, #2
 2110 0010 80F82D30 		strb	r3, [r0, #45]
1296:Drivers/STM32H5xx_HAL_Driver/Src/stm32h5xx_hal_rtc_ex.c **** 
1297:Drivers/STM32H5xx_HAL_Driver/Src/stm32h5xx_hal_rtc_ex.c ****   /* Reset the BYPSHAD bit */
1298:Drivers/STM32H5xx_HAL_Driver/Src/stm32h5xx_hal_rtc_ex.c ****   CLEAR_BIT(RTC->CR, RTC_CR_BYPSHAD);
 2111              		.loc 1 1298 3 is_stmt 1 view .LVU672
 2112 0014 0649     		ldr	r1, .L161
 2113 0016 8B69     		ldr	r3, [r1, #24]
 2114 0018 23F02003 		bic	r3, r3, #32
 2115 001c 8B61     		str	r3, [r1, #24]
1299:Drivers/STM32H5xx_HAL_Driver/Src/stm32h5xx_hal_rtc_ex.c **** 
1300:Drivers/STM32H5xx_HAL_Driver/Src/stm32h5xx_hal_rtc_ex.c ****   /* Change RTC state */
1301:Drivers/STM32H5xx_HAL_Driver/Src/stm32h5xx_hal_rtc_ex.c ****   hrtc->State = HAL_RTC_STATE_READY;
ARM GAS  C:\Users\DELL\AppData\Local\Temp\ccMtHSyM.s 			page 63


 2116              		.loc 1 1301 3 view .LVU673
 2117              		.loc 1 1301 15 is_stmt 0 view .LVU674
 2118 001e 80F82D20 		strb	r2, [r0, #45]
1302:Drivers/STM32H5xx_HAL_Driver/Src/stm32h5xx_hal_rtc_ex.c **** 
1303:Drivers/STM32H5xx_HAL_Driver/Src/stm32h5xx_hal_rtc_ex.c ****   /* Process Unlocked */
1304:Drivers/STM32H5xx_HAL_Driver/Src/stm32h5xx_hal_rtc_ex.c ****   __HAL_UNLOCK(hrtc);
 2119              		.loc 1 1304 3 is_stmt 1 view .LVU675
 2120              		.loc 1 1304 3 view .LVU676
 2121 0022 0023     		movs	r3, #0
 2122 0024 80F82C30 		strb	r3, [r0, #44]
 2123              		.loc 1 1304 3 view .LVU677
1305:Drivers/STM32H5xx_HAL_Driver/Src/stm32h5xx_hal_rtc_ex.c **** 
1306:Drivers/STM32H5xx_HAL_Driver/Src/stm32h5xx_hal_rtc_ex.c ****   return HAL_OK;
 2124              		.loc 1 1306 3 view .LVU678
 2125              		.loc 1 1306 10 is_stmt 0 view .LVU679
 2126 0028 1846     		mov	r0, r3
 2127              	.LVL143:
 2128              		.loc 1 1306 10 view .LVU680
 2129 002a 7047     		bx	lr
 2130              	.LVL144:
 2131              	.L160:
1292:Drivers/STM32H5xx_HAL_Driver/Src/stm32h5xx_hal_rtc_ex.c **** 
 2132              		.loc 1 1292 3 discriminator 1 view .LVU681
 2133 002c 0220     		movs	r0, #2
 2134              	.LVL145:
1307:Drivers/STM32H5xx_HAL_Driver/Src/stm32h5xx_hal_rtc_ex.c **** }
 2135              		.loc 1 1307 1 view .LVU682
 2136 002e 7047     		bx	lr
 2137              	.L162:
 2138              		.align	2
 2139              	.L161:
 2140 0030 00780044 		.word	1140881408
 2141              		.cfi_endproc
 2142              	.LFE321:
 2144              		.section	.text.HAL_RTCEx_MonotonicCounterIncrement,"ax",%progbits
 2145              		.align	1
 2146              		.global	HAL_RTCEx_MonotonicCounterIncrement
 2147              		.syntax unified
 2148              		.thumb
 2149              		.thumb_func
 2151              	HAL_RTCEx_MonotonicCounterIncrement:
 2152              	.LVL146:
 2153              	.LFB322:
1308:Drivers/STM32H5xx_HAL_Driver/Src/stm32h5xx_hal_rtc_ex.c **** 
1309:Drivers/STM32H5xx_HAL_Driver/Src/stm32h5xx_hal_rtc_ex.c **** /**
1310:Drivers/STM32H5xx_HAL_Driver/Src/stm32h5xx_hal_rtc_ex.c ****   * @brief  Increment Monotonic counter.
1311:Drivers/STM32H5xx_HAL_Driver/Src/stm32h5xx_hal_rtc_ex.c ****   * @param  hrtc RTC handle
1312:Drivers/STM32H5xx_HAL_Driver/Src/stm32h5xx_hal_rtc_ex.c ****   * @param  Instance  Monotonic counter Instance
1313:Drivers/STM32H5xx_HAL_Driver/Src/stm32h5xx_hal_rtc_ex.c ****   *         This parameter can be one of the following values :
1314:Drivers/STM32H5xx_HAL_Driver/Src/stm32h5xx_hal_rtc_ex.c ****   *           @arg RTC_MONOTONIC_COUNTER_1
1315:Drivers/STM32H5xx_HAL_Driver/Src/stm32h5xx_hal_rtc_ex.c ****   * @retval HAL status
1316:Drivers/STM32H5xx_HAL_Driver/Src/stm32h5xx_hal_rtc_ex.c ****   */
1317:Drivers/STM32H5xx_HAL_Driver/Src/stm32h5xx_hal_rtc_ex.c **** HAL_StatusTypeDef HAL_RTCEx_MonotonicCounterIncrement(const RTC_HandleTypeDef *hrtc, uint32_t Insta
1318:Drivers/STM32H5xx_HAL_Driver/Src/stm32h5xx_hal_rtc_ex.c **** {
 2154              		.loc 1 1318 1 is_stmt 1 view -0
 2155              		.cfi_startproc
 2156              		@ args = 0, pretend = 0, frame = 0
ARM GAS  C:\Users\DELL\AppData\Local\Temp\ccMtHSyM.s 			page 64


 2157              		@ frame_needed = 0, uses_anonymous_args = 0
 2158              		@ link register save eliminated.
1319:Drivers/STM32H5xx_HAL_Driver/Src/stm32h5xx_hal_rtc_ex.c ****   /* Prevent unused argument(s) compilation warning */
1320:Drivers/STM32H5xx_HAL_Driver/Src/stm32h5xx_hal_rtc_ex.c ****   UNUSED(hrtc);
 2159              		.loc 1 1320 3 view .LVU684
1321:Drivers/STM32H5xx_HAL_Driver/Src/stm32h5xx_hal_rtc_ex.c ****   UNUSED(Instance);
 2160              		.loc 1 1321 3 view .LVU685
1322:Drivers/STM32H5xx_HAL_Driver/Src/stm32h5xx_hal_rtc_ex.c **** 
1323:Drivers/STM32H5xx_HAL_Driver/Src/stm32h5xx_hal_rtc_ex.c ****   /* This register is read-only only and is incremented by one when a write access is done to this
1324:Drivers/STM32H5xx_HAL_Driver/Src/stm32h5xx_hal_rtc_ex.c ****      register. This register cannot roll-over and is frozen when reaching the maximum value. */
1325:Drivers/STM32H5xx_HAL_Driver/Src/stm32h5xx_hal_rtc_ex.c ****   CLEAR_REG(TAMP->COUNT1R);
 2161              		.loc 1 1325 3 view .LVU686
 2162 0000 0020     		movs	r0, #0
 2163              	.LVL147:
 2164              		.loc 1 1325 3 is_stmt 0 view .LVU687
 2165 0002 014B     		ldr	r3, .L164
 2166 0004 1864     		str	r0, [r3, #64]
1326:Drivers/STM32H5xx_HAL_Driver/Src/stm32h5xx_hal_rtc_ex.c **** 
1327:Drivers/STM32H5xx_HAL_Driver/Src/stm32h5xx_hal_rtc_ex.c ****   return HAL_OK;
 2167              		.loc 1 1327 3 is_stmt 1 view .LVU688
1328:Drivers/STM32H5xx_HAL_Driver/Src/stm32h5xx_hal_rtc_ex.c **** }
 2168              		.loc 1 1328 1 is_stmt 0 view .LVU689
 2169 0006 7047     		bx	lr
 2170              	.L165:
 2171              		.align	2
 2172              	.L164:
 2173 0008 007C0044 		.word	1140882432
 2174              		.cfi_endproc
 2175              	.LFE322:
 2177              		.section	.text.HAL_RTCEx_MonotonicCounterGet,"ax",%progbits
 2178              		.align	1
 2179              		.global	HAL_RTCEx_MonotonicCounterGet
 2180              		.syntax unified
 2181              		.thumb
 2182              		.thumb_func
 2184              	HAL_RTCEx_MonotonicCounterGet:
 2185              	.LVL148:
 2186              	.LFB323:
1329:Drivers/STM32H5xx_HAL_Driver/Src/stm32h5xx_hal_rtc_ex.c **** 
1330:Drivers/STM32H5xx_HAL_Driver/Src/stm32h5xx_hal_rtc_ex.c **** /**
1331:Drivers/STM32H5xx_HAL_Driver/Src/stm32h5xx_hal_rtc_ex.c ****   * @brief  Monotonic counter.
1332:Drivers/STM32H5xx_HAL_Driver/Src/stm32h5xx_hal_rtc_ex.c ****   * @param  hrtc RTC handle
1333:Drivers/STM32H5xx_HAL_Driver/Src/stm32h5xx_hal_rtc_ex.c ****   * @param  Instance  Monotonic counter Instance
1334:Drivers/STM32H5xx_HAL_Driver/Src/stm32h5xx_hal_rtc_ex.c ****   *         This parameter can be one of the following values :
1335:Drivers/STM32H5xx_HAL_Driver/Src/stm32h5xx_hal_rtc_ex.c ****   *           @arg RTC_MONOTONIC_COUNTER_1
1336:Drivers/STM32H5xx_HAL_Driver/Src/stm32h5xx_hal_rtc_ex.c ****   * @param  pValue Pointer to the counter monotonic counter value
1337:Drivers/STM32H5xx_HAL_Driver/Src/stm32h5xx_hal_rtc_ex.c ****   * @retval HAL status
1338:Drivers/STM32H5xx_HAL_Driver/Src/stm32h5xx_hal_rtc_ex.c ****   */
1339:Drivers/STM32H5xx_HAL_Driver/Src/stm32h5xx_hal_rtc_ex.c **** HAL_StatusTypeDef HAL_RTCEx_MonotonicCounterGet(const RTC_HandleTypeDef *hrtc, uint32_t Instance, u
1340:Drivers/STM32H5xx_HAL_Driver/Src/stm32h5xx_hal_rtc_ex.c **** {
 2187              		.loc 1 1340 1 is_stmt 1 view -0
 2188              		.cfi_startproc
 2189              		@ args = 0, pretend = 0, frame = 0
 2190              		@ frame_needed = 0, uses_anonymous_args = 0
 2191              		@ link register save eliminated.
1341:Drivers/STM32H5xx_HAL_Driver/Src/stm32h5xx_hal_rtc_ex.c ****   /* Prevent unused argument(s) compilation warning */
1342:Drivers/STM32H5xx_HAL_Driver/Src/stm32h5xx_hal_rtc_ex.c ****   UNUSED(hrtc);
ARM GAS  C:\Users\DELL\AppData\Local\Temp\ccMtHSyM.s 			page 65


 2192              		.loc 1 1342 3 view .LVU691
1343:Drivers/STM32H5xx_HAL_Driver/Src/stm32h5xx_hal_rtc_ex.c ****   UNUSED(Instance);
 2193              		.loc 1 1343 3 view .LVU692
1344:Drivers/STM32H5xx_HAL_Driver/Src/stm32h5xx_hal_rtc_ex.c **** 
1345:Drivers/STM32H5xx_HAL_Driver/Src/stm32h5xx_hal_rtc_ex.c ****   /* This register is read-only only and is incremented by one when a write access is done to this
1346:Drivers/STM32H5xx_HAL_Driver/Src/stm32h5xx_hal_rtc_ex.c ****      register. This register cannot roll-over and is frozen when reaching the maximum value. */
1347:Drivers/STM32H5xx_HAL_Driver/Src/stm32h5xx_hal_rtc_ex.c ****   *pValue = READ_REG(TAMP->COUNT1R);
 2194              		.loc 1 1347 3 view .LVU693
 2195              		.loc 1 1347 13 is_stmt 0 view .LVU694
 2196 0000 024B     		ldr	r3, .L167
 2197 0002 1B6C     		ldr	r3, [r3, #64]
 2198              		.loc 1 1347 11 view .LVU695
 2199 0004 1360     		str	r3, [r2]
1348:Drivers/STM32H5xx_HAL_Driver/Src/stm32h5xx_hal_rtc_ex.c **** 
1349:Drivers/STM32H5xx_HAL_Driver/Src/stm32h5xx_hal_rtc_ex.c ****   return HAL_OK;
 2200              		.loc 1 1349 3 is_stmt 1 view .LVU696
1350:Drivers/STM32H5xx_HAL_Driver/Src/stm32h5xx_hal_rtc_ex.c **** }
 2201              		.loc 1 1350 1 is_stmt 0 view .LVU697
 2202 0006 0020     		movs	r0, #0
 2203              	.LVL149:
 2204              		.loc 1 1350 1 view .LVU698
 2205 0008 7047     		bx	lr
 2206              	.L168:
 2207 000a 00BF     		.align	2
 2208              	.L167:
 2209 000c 007C0044 		.word	1140882432
 2210              		.cfi_endproc
 2211              	.LFE323:
 2213              		.section	.text.HAL_RTCEx_SetSSRU_IT,"ax",%progbits
 2214              		.align	1
 2215              		.global	HAL_RTCEx_SetSSRU_IT
 2216              		.syntax unified
 2217              		.thumb
 2218              		.thumb_func
 2220              	HAL_RTCEx_SetSSRU_IT:
 2221              	.LVL150:
 2222              	.LFB324:
1351:Drivers/STM32H5xx_HAL_Driver/Src/stm32h5xx_hal_rtc_ex.c **** 
1352:Drivers/STM32H5xx_HAL_Driver/Src/stm32h5xx_hal_rtc_ex.c **** /**
1353:Drivers/STM32H5xx_HAL_Driver/Src/stm32h5xx_hal_rtc_ex.c ****   * @brief  Set SSR Underflow detection with Interrupt.
1354:Drivers/STM32H5xx_HAL_Driver/Src/stm32h5xx_hal_rtc_ex.c ****   * @note   The application must ensure that the EXTI RTC interrupt line is enabled.
1355:Drivers/STM32H5xx_HAL_Driver/Src/stm32h5xx_hal_rtc_ex.c ****   * @param  hrtc RTC handle
1356:Drivers/STM32H5xx_HAL_Driver/Src/stm32h5xx_hal_rtc_ex.c ****   * @retval HAL status
1357:Drivers/STM32H5xx_HAL_Driver/Src/stm32h5xx_hal_rtc_ex.c ****   */
1358:Drivers/STM32H5xx_HAL_Driver/Src/stm32h5xx_hal_rtc_ex.c **** HAL_StatusTypeDef HAL_RTCEx_SetSSRU_IT(RTC_HandleTypeDef *hrtc)
1359:Drivers/STM32H5xx_HAL_Driver/Src/stm32h5xx_hal_rtc_ex.c **** {
 2223              		.loc 1 1359 1 is_stmt 1 view -0
 2224              		.cfi_startproc
 2225              		@ args = 0, pretend = 0, frame = 0
 2226              		@ frame_needed = 0, uses_anonymous_args = 0
 2227              		@ link register save eliminated.
1360:Drivers/STM32H5xx_HAL_Driver/Src/stm32h5xx_hal_rtc_ex.c ****   /* Process Locked */
1361:Drivers/STM32H5xx_HAL_Driver/Src/stm32h5xx_hal_rtc_ex.c ****   __HAL_LOCK(hrtc);
 2228              		.loc 1 1361 3 view .LVU700
 2229              		.loc 1 1361 3 view .LVU701
 2230 0000 90F82C30 		ldrb	r3, [r0, #44]	@ zero_extendqisi2
 2231 0004 012B     		cmp	r3, #1
ARM GAS  C:\Users\DELL\AppData\Local\Temp\ccMtHSyM.s 			page 66


 2232 0006 11D0     		beq	.L171
 2233              		.loc 1 1361 3 discriminator 2 view .LVU702
 2234 0008 0122     		movs	r2, #1
 2235 000a 80F82C20 		strb	r2, [r0, #44]
 2236              		.loc 1 1361 3 view .LVU703
1362:Drivers/STM32H5xx_HAL_Driver/Src/stm32h5xx_hal_rtc_ex.c **** 
1363:Drivers/STM32H5xx_HAL_Driver/Src/stm32h5xx_hal_rtc_ex.c ****   /* Change RTC state */
1364:Drivers/STM32H5xx_HAL_Driver/Src/stm32h5xx_hal_rtc_ex.c ****   hrtc->State = HAL_RTC_STATE_BUSY;
 2237              		.loc 1 1364 3 view .LVU704
 2238              		.loc 1 1364 15 is_stmt 0 view .LVU705
 2239 000e 0223     		movs	r3, #2
 2240 0010 80F82D30 		strb	r3, [r0, #45]
1365:Drivers/STM32H5xx_HAL_Driver/Src/stm32h5xx_hal_rtc_ex.c **** 
1366:Drivers/STM32H5xx_HAL_Driver/Src/stm32h5xx_hal_rtc_ex.c ****   /* Enable IT SSRU */
1367:Drivers/STM32H5xx_HAL_Driver/Src/stm32h5xx_hal_rtc_ex.c ****   __HAL_RTC_SSRU_ENABLE_IT(hrtc, RTC_IT_SSRU);
 2241              		.loc 1 1367 3 is_stmt 1 view .LVU706
 2242 0014 0649     		ldr	r1, .L172
 2243 0016 8B69     		ldr	r3, [r1, #24]
 2244 0018 43F08003 		orr	r3, r3, #128
 2245 001c 8B61     		str	r3, [r1, #24]
1368:Drivers/STM32H5xx_HAL_Driver/Src/stm32h5xx_hal_rtc_ex.c **** 
1369:Drivers/STM32H5xx_HAL_Driver/Src/stm32h5xx_hal_rtc_ex.c ****   /* Change RTC state */
1370:Drivers/STM32H5xx_HAL_Driver/Src/stm32h5xx_hal_rtc_ex.c ****   hrtc->State = HAL_RTC_STATE_READY;
 2246              		.loc 1 1370 3 view .LVU707
 2247              		.loc 1 1370 15 is_stmt 0 view .LVU708
 2248 001e 80F82D20 		strb	r2, [r0, #45]
1371:Drivers/STM32H5xx_HAL_Driver/Src/stm32h5xx_hal_rtc_ex.c **** 
1372:Drivers/STM32H5xx_HAL_Driver/Src/stm32h5xx_hal_rtc_ex.c ****   /* Process Unlocked */
1373:Drivers/STM32H5xx_HAL_Driver/Src/stm32h5xx_hal_rtc_ex.c ****   __HAL_UNLOCK(hrtc);
 2249              		.loc 1 1373 3 is_stmt 1 view .LVU709
 2250              		.loc 1 1373 3 view .LVU710
 2251 0022 0023     		movs	r3, #0
 2252 0024 80F82C30 		strb	r3, [r0, #44]
 2253              		.loc 1 1373 3 view .LVU711
1374:Drivers/STM32H5xx_HAL_Driver/Src/stm32h5xx_hal_rtc_ex.c **** 
1375:Drivers/STM32H5xx_HAL_Driver/Src/stm32h5xx_hal_rtc_ex.c ****   return HAL_OK;
 2254              		.loc 1 1375 3 view .LVU712
 2255              		.loc 1 1375 10 is_stmt 0 view .LVU713
 2256 0028 1846     		mov	r0, r3
 2257              	.LVL151:
 2258              		.loc 1 1375 10 view .LVU714
 2259 002a 7047     		bx	lr
 2260              	.LVL152:
 2261              	.L171:
1361:Drivers/STM32H5xx_HAL_Driver/Src/stm32h5xx_hal_rtc_ex.c **** 
 2262              		.loc 1 1361 3 discriminator 1 view .LVU715
 2263 002c 0220     		movs	r0, #2
 2264              	.LVL153:
1376:Drivers/STM32H5xx_HAL_Driver/Src/stm32h5xx_hal_rtc_ex.c **** }
 2265              		.loc 1 1376 1 view .LVU716
 2266 002e 7047     		bx	lr
 2267              	.L173:
 2268              		.align	2
 2269              	.L172:
 2270 0030 00780044 		.word	1140881408
 2271              		.cfi_endproc
 2272              	.LFE324:
ARM GAS  C:\Users\DELL\AppData\Local\Temp\ccMtHSyM.s 			page 67


 2274              		.section	.text.HAL_RTCEx_DeactivateSSRU,"ax",%progbits
 2275              		.align	1
 2276              		.global	HAL_RTCEx_DeactivateSSRU
 2277              		.syntax unified
 2278              		.thumb
 2279              		.thumb_func
 2281              	HAL_RTCEx_DeactivateSSRU:
 2282              	.LVL154:
 2283              	.LFB325:
1377:Drivers/STM32H5xx_HAL_Driver/Src/stm32h5xx_hal_rtc_ex.c **** 
1378:Drivers/STM32H5xx_HAL_Driver/Src/stm32h5xx_hal_rtc_ex.c **** /**
1379:Drivers/STM32H5xx_HAL_Driver/Src/stm32h5xx_hal_rtc_ex.c ****   * @brief  Deactivate SSR Underflow.
1380:Drivers/STM32H5xx_HAL_Driver/Src/stm32h5xx_hal_rtc_ex.c ****   * @param  hrtc RTC handle
1381:Drivers/STM32H5xx_HAL_Driver/Src/stm32h5xx_hal_rtc_ex.c ****   * @retval HAL status
1382:Drivers/STM32H5xx_HAL_Driver/Src/stm32h5xx_hal_rtc_ex.c ****   */
1383:Drivers/STM32H5xx_HAL_Driver/Src/stm32h5xx_hal_rtc_ex.c **** HAL_StatusTypeDef HAL_RTCEx_DeactivateSSRU(RTC_HandleTypeDef *hrtc)
1384:Drivers/STM32H5xx_HAL_Driver/Src/stm32h5xx_hal_rtc_ex.c **** {
 2284              		.loc 1 1384 1 is_stmt 1 view -0
 2285              		.cfi_startproc
 2286              		@ args = 0, pretend = 0, frame = 0
 2287              		@ frame_needed = 0, uses_anonymous_args = 0
 2288              		@ link register save eliminated.
1385:Drivers/STM32H5xx_HAL_Driver/Src/stm32h5xx_hal_rtc_ex.c ****   /* Process Locked */
1386:Drivers/STM32H5xx_HAL_Driver/Src/stm32h5xx_hal_rtc_ex.c ****   __HAL_LOCK(hrtc);
 2289              		.loc 1 1386 3 view .LVU718
 2290              		.loc 1 1386 3 view .LVU719
 2291 0000 90F82C30 		ldrb	r3, [r0, #44]	@ zero_extendqisi2
 2292 0004 012B     		cmp	r3, #1
 2293 0006 11D0     		beq	.L176
 2294              		.loc 1 1386 3 discriminator 2 view .LVU720
 2295 0008 0122     		movs	r2, #1
 2296 000a 80F82C20 		strb	r2, [r0, #44]
 2297              		.loc 1 1386 3 view .LVU721
1387:Drivers/STM32H5xx_HAL_Driver/Src/stm32h5xx_hal_rtc_ex.c **** 
1388:Drivers/STM32H5xx_HAL_Driver/Src/stm32h5xx_hal_rtc_ex.c ****   /* Change RTC state */
1389:Drivers/STM32H5xx_HAL_Driver/Src/stm32h5xx_hal_rtc_ex.c ****   hrtc->State = HAL_RTC_STATE_BUSY;
 2298              		.loc 1 1389 3 view .LVU722
 2299              		.loc 1 1389 15 is_stmt 0 view .LVU723
 2300 000e 0223     		movs	r3, #2
 2301 0010 80F82D30 		strb	r3, [r0, #45]
1390:Drivers/STM32H5xx_HAL_Driver/Src/stm32h5xx_hal_rtc_ex.c **** 
1391:Drivers/STM32H5xx_HAL_Driver/Src/stm32h5xx_hal_rtc_ex.c ****   /* In case of interrupt mode is used, the interrupt source must disabled */
1392:Drivers/STM32H5xx_HAL_Driver/Src/stm32h5xx_hal_rtc_ex.c ****   __HAL_RTC_SSRU_DISABLE_IT(hrtc, RTC_IT_SSRU);
 2302              		.loc 1 1392 3 is_stmt 1 view .LVU724
 2303 0014 0649     		ldr	r1, .L177
 2304 0016 8B69     		ldr	r3, [r1, #24]
 2305 0018 23F08003 		bic	r3, r3, #128
 2306 001c 8B61     		str	r3, [r1, #24]
1393:Drivers/STM32H5xx_HAL_Driver/Src/stm32h5xx_hal_rtc_ex.c **** 
1394:Drivers/STM32H5xx_HAL_Driver/Src/stm32h5xx_hal_rtc_ex.c ****   /* Change RTC state */
1395:Drivers/STM32H5xx_HAL_Driver/Src/stm32h5xx_hal_rtc_ex.c ****   hrtc->State = HAL_RTC_STATE_READY;
 2307              		.loc 1 1395 3 view .LVU725
 2308              		.loc 1 1395 15 is_stmt 0 view .LVU726
 2309 001e 80F82D20 		strb	r2, [r0, #45]
1396:Drivers/STM32H5xx_HAL_Driver/Src/stm32h5xx_hal_rtc_ex.c **** 
1397:Drivers/STM32H5xx_HAL_Driver/Src/stm32h5xx_hal_rtc_ex.c ****   /* Process Unlocked */
1398:Drivers/STM32H5xx_HAL_Driver/Src/stm32h5xx_hal_rtc_ex.c ****   __HAL_UNLOCK(hrtc);
ARM GAS  C:\Users\DELL\AppData\Local\Temp\ccMtHSyM.s 			page 68


 2310              		.loc 1 1398 3 is_stmt 1 view .LVU727
 2311              		.loc 1 1398 3 view .LVU728
 2312 0022 0023     		movs	r3, #0
 2313 0024 80F82C30 		strb	r3, [r0, #44]
 2314              		.loc 1 1398 3 view .LVU729
1399:Drivers/STM32H5xx_HAL_Driver/Src/stm32h5xx_hal_rtc_ex.c **** 
1400:Drivers/STM32H5xx_HAL_Driver/Src/stm32h5xx_hal_rtc_ex.c ****   return HAL_OK;
 2315              		.loc 1 1400 3 view .LVU730
 2316              		.loc 1 1400 10 is_stmt 0 view .LVU731
 2317 0028 1846     		mov	r0, r3
 2318              	.LVL155:
 2319              		.loc 1 1400 10 view .LVU732
 2320 002a 7047     		bx	lr
 2321              	.LVL156:
 2322              	.L176:
1386:Drivers/STM32H5xx_HAL_Driver/Src/stm32h5xx_hal_rtc_ex.c **** 
 2323              		.loc 1 1386 3 discriminator 1 view .LVU733
 2324 002c 0220     		movs	r0, #2
 2325              	.LVL157:
1401:Drivers/STM32H5xx_HAL_Driver/Src/stm32h5xx_hal_rtc_ex.c **** }
 2326              		.loc 1 1401 1 view .LVU734
 2327 002e 7047     		bx	lr
 2328              	.L178:
 2329              		.align	2
 2330              	.L177:
 2331 0030 00780044 		.word	1140881408
 2332              		.cfi_endproc
 2333              	.LFE325:
 2335              		.section	.text.HAL_RTCEx_SSRUEventCallback,"ax",%progbits
 2336              		.align	1
 2337              		.weak	HAL_RTCEx_SSRUEventCallback
 2338              		.syntax unified
 2339              		.thumb
 2340              		.thumb_func
 2342              	HAL_RTCEx_SSRUEventCallback:
 2343              	.LVL158:
 2344              	.LFB327:
1402:Drivers/STM32H5xx_HAL_Driver/Src/stm32h5xx_hal_rtc_ex.c **** 
1403:Drivers/STM32H5xx_HAL_Driver/Src/stm32h5xx_hal_rtc_ex.c **** /**
1404:Drivers/STM32H5xx_HAL_Driver/Src/stm32h5xx_hal_rtc_ex.c ****   * @brief  Handle SSR underflow interrupt request.
1405:Drivers/STM32H5xx_HAL_Driver/Src/stm32h5xx_hal_rtc_ex.c ****   * @param  hrtc RTC handle
1406:Drivers/STM32H5xx_HAL_Driver/Src/stm32h5xx_hal_rtc_ex.c ****   * @retval None
1407:Drivers/STM32H5xx_HAL_Driver/Src/stm32h5xx_hal_rtc_ex.c ****   */
1408:Drivers/STM32H5xx_HAL_Driver/Src/stm32h5xx_hal_rtc_ex.c **** void HAL_RTCEx_SSRUIRQHandler(RTC_HandleTypeDef *hrtc)
1409:Drivers/STM32H5xx_HAL_Driver/Src/stm32h5xx_hal_rtc_ex.c **** {
1410:Drivers/STM32H5xx_HAL_Driver/Src/stm32h5xx_hal_rtc_ex.c ****   /* Get the pending status of the SSR Underflow Interrupt */
1411:Drivers/STM32H5xx_HAL_Driver/Src/stm32h5xx_hal_rtc_ex.c **** #if defined (__ARM_FEATURE_CMSE) && (__ARM_FEATURE_CMSE == 3U)
1412:Drivers/STM32H5xx_HAL_Driver/Src/stm32h5xx_hal_rtc_ex.c ****   if (READ_BIT(RTC->SMISR, RTC_SMISR_SSRUMF) != 0U)
1413:Drivers/STM32H5xx_HAL_Driver/Src/stm32h5xx_hal_rtc_ex.c **** #else
1414:Drivers/STM32H5xx_HAL_Driver/Src/stm32h5xx_hal_rtc_ex.c ****   if (READ_BIT(RTC->MISR, RTC_MISR_SSRUMF) != 0U)
1415:Drivers/STM32H5xx_HAL_Driver/Src/stm32h5xx_hal_rtc_ex.c **** #endif /* (__ARM_FEATURE_CMSE) && (__ARM_FEATURE_CMSE == 3U) */
1416:Drivers/STM32H5xx_HAL_Driver/Src/stm32h5xx_hal_rtc_ex.c ****   {
1417:Drivers/STM32H5xx_HAL_Driver/Src/stm32h5xx_hal_rtc_ex.c ****     /* Immediately clear SSR underflow flag */
1418:Drivers/STM32H5xx_HAL_Driver/Src/stm32h5xx_hal_rtc_ex.c ****     WRITE_REG(RTC->SCR, RTC_SCR_CSSRUF);
1419:Drivers/STM32H5xx_HAL_Driver/Src/stm32h5xx_hal_rtc_ex.c **** 
1420:Drivers/STM32H5xx_HAL_Driver/Src/stm32h5xx_hal_rtc_ex.c ****     /* SSRU callback */
1421:Drivers/STM32H5xx_HAL_Driver/Src/stm32h5xx_hal_rtc_ex.c **** #if (USE_HAL_RTC_REGISTER_CALLBACKS == 1)
ARM GAS  C:\Users\DELL\AppData\Local\Temp\ccMtHSyM.s 			page 69


1422:Drivers/STM32H5xx_HAL_Driver/Src/stm32h5xx_hal_rtc_ex.c ****     /* Call SSRUEvent registered Callback */
1423:Drivers/STM32H5xx_HAL_Driver/Src/stm32h5xx_hal_rtc_ex.c ****     hrtc->SSRUEventCallback(hrtc);
1424:Drivers/STM32H5xx_HAL_Driver/Src/stm32h5xx_hal_rtc_ex.c **** #else
1425:Drivers/STM32H5xx_HAL_Driver/Src/stm32h5xx_hal_rtc_ex.c ****     HAL_RTCEx_SSRUEventCallback(hrtc);
1426:Drivers/STM32H5xx_HAL_Driver/Src/stm32h5xx_hal_rtc_ex.c **** #endif /* USE_HAL_RTC_REGISTER_CALLBACKS */
1427:Drivers/STM32H5xx_HAL_Driver/Src/stm32h5xx_hal_rtc_ex.c **** 
1428:Drivers/STM32H5xx_HAL_Driver/Src/stm32h5xx_hal_rtc_ex.c ****   }
1429:Drivers/STM32H5xx_HAL_Driver/Src/stm32h5xx_hal_rtc_ex.c **** 
1430:Drivers/STM32H5xx_HAL_Driver/Src/stm32h5xx_hal_rtc_ex.c ****   /* Change RTC state */
1431:Drivers/STM32H5xx_HAL_Driver/Src/stm32h5xx_hal_rtc_ex.c ****   hrtc->State = HAL_RTC_STATE_READY;
1432:Drivers/STM32H5xx_HAL_Driver/Src/stm32h5xx_hal_rtc_ex.c **** }
1433:Drivers/STM32H5xx_HAL_Driver/Src/stm32h5xx_hal_rtc_ex.c **** 
1434:Drivers/STM32H5xx_HAL_Driver/Src/stm32h5xx_hal_rtc_ex.c **** /**
1435:Drivers/STM32H5xx_HAL_Driver/Src/stm32h5xx_hal_rtc_ex.c ****   * @brief  SSR underflow callback.
1436:Drivers/STM32H5xx_HAL_Driver/Src/stm32h5xx_hal_rtc_ex.c ****   * @param  hrtc RTC handle
1437:Drivers/STM32H5xx_HAL_Driver/Src/stm32h5xx_hal_rtc_ex.c ****   * @retval None
1438:Drivers/STM32H5xx_HAL_Driver/Src/stm32h5xx_hal_rtc_ex.c ****   */
1439:Drivers/STM32H5xx_HAL_Driver/Src/stm32h5xx_hal_rtc_ex.c **** __weak void HAL_RTCEx_SSRUEventCallback(RTC_HandleTypeDef *hrtc)
1440:Drivers/STM32H5xx_HAL_Driver/Src/stm32h5xx_hal_rtc_ex.c **** {
 2345              		.loc 1 1440 1 is_stmt 1 view -0
 2346              		.cfi_startproc
 2347              		@ args = 0, pretend = 0, frame = 0
 2348              		@ frame_needed = 0, uses_anonymous_args = 0
 2349              		@ link register save eliminated.
1441:Drivers/STM32H5xx_HAL_Driver/Src/stm32h5xx_hal_rtc_ex.c ****   /* Prevent unused argument(s) compilation warning */
1442:Drivers/STM32H5xx_HAL_Driver/Src/stm32h5xx_hal_rtc_ex.c ****   UNUSED(hrtc);
 2350              		.loc 1 1442 3 view .LVU736
1443:Drivers/STM32H5xx_HAL_Driver/Src/stm32h5xx_hal_rtc_ex.c **** 
1444:Drivers/STM32H5xx_HAL_Driver/Src/stm32h5xx_hal_rtc_ex.c ****   /* NOTE : This function should not be modified, when the callback is needed,
1445:Drivers/STM32H5xx_HAL_Driver/Src/stm32h5xx_hal_rtc_ex.c ****             the HAL_RTCEx_SSRUEventCallback could be implemented in the user file
1446:Drivers/STM32H5xx_HAL_Driver/Src/stm32h5xx_hal_rtc_ex.c ****    */
1447:Drivers/STM32H5xx_HAL_Driver/Src/stm32h5xx_hal_rtc_ex.c **** }
 2351              		.loc 1 1447 1 is_stmt 0 view .LVU737
 2352 0000 7047     		bx	lr
 2353              		.cfi_endproc
 2354              	.LFE327:
 2356              		.section	.text.HAL_RTCEx_SSRUIRQHandler,"ax",%progbits
 2357              		.align	1
 2358              		.global	HAL_RTCEx_SSRUIRQHandler
 2359              		.syntax unified
 2360              		.thumb
 2361              		.thumb_func
 2363              	HAL_RTCEx_SSRUIRQHandler:
 2364              	.LVL159:
 2365              	.LFB326:
1409:Drivers/STM32H5xx_HAL_Driver/Src/stm32h5xx_hal_rtc_ex.c ****   /* Get the pending status of the SSR Underflow Interrupt */
 2366              		.loc 1 1409 1 is_stmt 1 view -0
 2367              		.cfi_startproc
 2368              		@ args = 0, pretend = 0, frame = 0
 2369              		@ frame_needed = 0, uses_anonymous_args = 0
1409:Drivers/STM32H5xx_HAL_Driver/Src/stm32h5xx_hal_rtc_ex.c ****   /* Get the pending status of the SSR Underflow Interrupt */
 2370              		.loc 1 1409 1 is_stmt 0 view .LVU739
 2371 0000 10B5     		push	{r4, lr}
 2372              	.LCFI11:
 2373              		.cfi_def_cfa_offset 8
 2374              		.cfi_offset 4, -8
 2375              		.cfi_offset 14, -4
ARM GAS  C:\Users\DELL\AppData\Local\Temp\ccMtHSyM.s 			page 70


 2376 0002 0446     		mov	r4, r0
1414:Drivers/STM32H5xx_HAL_Driver/Src/stm32h5xx_hal_rtc_ex.c **** #endif /* (__ARM_FEATURE_CMSE) && (__ARM_FEATURE_CMSE == 3U) */
 2377              		.loc 1 1414 3 is_stmt 1 view .LVU740
1414:Drivers/STM32H5xx_HAL_Driver/Src/stm32h5xx_hal_rtc_ex.c **** #endif /* (__ARM_FEATURE_CMSE) && (__ARM_FEATURE_CMSE == 3U) */
 2378              		.loc 1 1414 7 is_stmt 0 view .LVU741
 2379 0004 074B     		ldr	r3, .L184
 2380 0006 5B6D     		ldr	r3, [r3, #84]
1414:Drivers/STM32H5xx_HAL_Driver/Src/stm32h5xx_hal_rtc_ex.c **** #endif /* (__ARM_FEATURE_CMSE) && (__ARM_FEATURE_CMSE == 3U) */
 2381              		.loc 1 1414 6 view .LVU742
 2382 0008 13F0400F 		tst	r3, #64
 2383 000c 03D1     		bne	.L183
 2384              	.LVL160:
 2385              	.L181:
1431:Drivers/STM32H5xx_HAL_Driver/Src/stm32h5xx_hal_rtc_ex.c **** }
 2386              		.loc 1 1431 3 is_stmt 1 view .LVU743
1431:Drivers/STM32H5xx_HAL_Driver/Src/stm32h5xx_hal_rtc_ex.c **** }
 2387              		.loc 1 1431 15 is_stmt 0 view .LVU744
 2388 000e 0123     		movs	r3, #1
 2389 0010 84F82D30 		strb	r3, [r4, #45]
1432:Drivers/STM32H5xx_HAL_Driver/Src/stm32h5xx_hal_rtc_ex.c **** 
 2390              		.loc 1 1432 1 view .LVU745
 2391 0014 10BD     		pop	{r4, pc}
 2392              	.LVL161:
 2393              	.L183:
1418:Drivers/STM32H5xx_HAL_Driver/Src/stm32h5xx_hal_rtc_ex.c **** 
 2394              		.loc 1 1418 5 is_stmt 1 view .LVU746
 2395 0016 034B     		ldr	r3, .L184
 2396 0018 4022     		movs	r2, #64
 2397 001a DA65     		str	r2, [r3, #92]
1425:Drivers/STM32H5xx_HAL_Driver/Src/stm32h5xx_hal_rtc_ex.c **** #endif /* USE_HAL_RTC_REGISTER_CALLBACKS */
 2398              		.loc 1 1425 5 view .LVU747
 2399 001c FFF7FEFF 		bl	HAL_RTCEx_SSRUEventCallback
 2400              	.LVL162:
1425:Drivers/STM32H5xx_HAL_Driver/Src/stm32h5xx_hal_rtc_ex.c **** #endif /* USE_HAL_RTC_REGISTER_CALLBACKS */
 2401              		.loc 1 1425 5 is_stmt 0 view .LVU748
 2402 0020 F5E7     		b	.L181
 2403              	.L185:
 2404 0022 00BF     		.align	2
 2405              	.L184:
 2406 0024 00780044 		.word	1140881408
 2407              		.cfi_endproc
 2408              	.LFE326:
 2410              		.section	.text.HAL_RTCEx_AlarmBEventCallback,"ax",%progbits
 2411              		.align	1
 2412              		.weak	HAL_RTCEx_AlarmBEventCallback
 2413              		.syntax unified
 2414              		.thumb
 2415              		.thumb_func
 2417              	HAL_RTCEx_AlarmBEventCallback:
 2418              	.LVL163:
 2419              	.LFB328:
1448:Drivers/STM32H5xx_HAL_Driver/Src/stm32h5xx_hal_rtc_ex.c **** 
1449:Drivers/STM32H5xx_HAL_Driver/Src/stm32h5xx_hal_rtc_ex.c **** /**
1450:Drivers/STM32H5xx_HAL_Driver/Src/stm32h5xx_hal_rtc_ex.c ****   * @}
1451:Drivers/STM32H5xx_HAL_Driver/Src/stm32h5xx_hal_rtc_ex.c ****   */
1452:Drivers/STM32H5xx_HAL_Driver/Src/stm32h5xx_hal_rtc_ex.c **** 
1453:Drivers/STM32H5xx_HAL_Driver/Src/stm32h5xx_hal_rtc_ex.c **** /** @addtogroup RTCEx_Exported_Functions_Group4
ARM GAS  C:\Users\DELL\AppData\Local\Temp\ccMtHSyM.s 			page 71


1454:Drivers/STM32H5xx_HAL_Driver/Src/stm32h5xx_hal_rtc_ex.c ****   * @brief    Extended features functions
1455:Drivers/STM32H5xx_HAL_Driver/Src/stm32h5xx_hal_rtc_ex.c ****   *
1456:Drivers/STM32H5xx_HAL_Driver/Src/stm32h5xx_hal_rtc_ex.c **** @verbatim
1457:Drivers/STM32H5xx_HAL_Driver/Src/stm32h5xx_hal_rtc_ex.c ****  ===============================================================================
1458:Drivers/STM32H5xx_HAL_Driver/Src/stm32h5xx_hal_rtc_ex.c ****                  ##### Extended features functions #####
1459:Drivers/STM32H5xx_HAL_Driver/Src/stm32h5xx_hal_rtc_ex.c ****  ===============================================================================
1460:Drivers/STM32H5xx_HAL_Driver/Src/stm32h5xx_hal_rtc_ex.c ****     [..]  This section provides functions allowing to:
1461:Drivers/STM32H5xx_HAL_Driver/Src/stm32h5xx_hal_rtc_ex.c ****       (+) RTC Alarm B callback
1462:Drivers/STM32H5xx_HAL_Driver/Src/stm32h5xx_hal_rtc_ex.c ****       (+) RTC Poll for Alarm B request
1463:Drivers/STM32H5xx_HAL_Driver/Src/stm32h5xx_hal_rtc_ex.c **** 
1464:Drivers/STM32H5xx_HAL_Driver/Src/stm32h5xx_hal_rtc_ex.c **** @endverbatim
1465:Drivers/STM32H5xx_HAL_Driver/Src/stm32h5xx_hal_rtc_ex.c ****   * @{
1466:Drivers/STM32H5xx_HAL_Driver/Src/stm32h5xx_hal_rtc_ex.c ****   */
1467:Drivers/STM32H5xx_HAL_Driver/Src/stm32h5xx_hal_rtc_ex.c **** 
1468:Drivers/STM32H5xx_HAL_Driver/Src/stm32h5xx_hal_rtc_ex.c **** /**
1469:Drivers/STM32H5xx_HAL_Driver/Src/stm32h5xx_hal_rtc_ex.c ****   * @brief  Alarm B callback.
1470:Drivers/STM32H5xx_HAL_Driver/Src/stm32h5xx_hal_rtc_ex.c ****   * @param  hrtc RTC handle
1471:Drivers/STM32H5xx_HAL_Driver/Src/stm32h5xx_hal_rtc_ex.c ****   * @retval None
1472:Drivers/STM32H5xx_HAL_Driver/Src/stm32h5xx_hal_rtc_ex.c ****   */
1473:Drivers/STM32H5xx_HAL_Driver/Src/stm32h5xx_hal_rtc_ex.c **** __weak void HAL_RTCEx_AlarmBEventCallback(RTC_HandleTypeDef *hrtc)
1474:Drivers/STM32H5xx_HAL_Driver/Src/stm32h5xx_hal_rtc_ex.c **** {
 2420              		.loc 1 1474 1 is_stmt 1 view -0
 2421              		.cfi_startproc
 2422              		@ args = 0, pretend = 0, frame = 0
 2423              		@ frame_needed = 0, uses_anonymous_args = 0
 2424              		@ link register save eliminated.
1475:Drivers/STM32H5xx_HAL_Driver/Src/stm32h5xx_hal_rtc_ex.c ****   /* Prevent unused argument(s) compilation warning */
1476:Drivers/STM32H5xx_HAL_Driver/Src/stm32h5xx_hal_rtc_ex.c ****   UNUSED(hrtc);
 2425              		.loc 1 1476 3 view .LVU750
1477:Drivers/STM32H5xx_HAL_Driver/Src/stm32h5xx_hal_rtc_ex.c **** 
1478:Drivers/STM32H5xx_HAL_Driver/Src/stm32h5xx_hal_rtc_ex.c ****   /* NOTE : This function should not be modified, when the callback is needed,
1479:Drivers/STM32H5xx_HAL_Driver/Src/stm32h5xx_hal_rtc_ex.c ****             the HAL_RTCEx_AlarmBEventCallback could be implemented in the user file
1480:Drivers/STM32H5xx_HAL_Driver/Src/stm32h5xx_hal_rtc_ex.c ****    */
1481:Drivers/STM32H5xx_HAL_Driver/Src/stm32h5xx_hal_rtc_ex.c **** }
 2426              		.loc 1 1481 1 is_stmt 0 view .LVU751
 2427 0000 7047     		bx	lr
 2428              		.cfi_endproc
 2429              	.LFE328:
 2431              		.section	.text.HAL_RTCEx_PollForAlarmBEvent,"ax",%progbits
 2432              		.align	1
 2433              		.global	HAL_RTCEx_PollForAlarmBEvent
 2434              		.syntax unified
 2435              		.thumb
 2436              		.thumb_func
 2438              	HAL_RTCEx_PollForAlarmBEvent:
 2439              	.LVL164:
 2440              	.LFB329:
1482:Drivers/STM32H5xx_HAL_Driver/Src/stm32h5xx_hal_rtc_ex.c **** 
1483:Drivers/STM32H5xx_HAL_Driver/Src/stm32h5xx_hal_rtc_ex.c **** /**
1484:Drivers/STM32H5xx_HAL_Driver/Src/stm32h5xx_hal_rtc_ex.c ****   * @brief  Handle Alarm B Polling request.
1485:Drivers/STM32H5xx_HAL_Driver/Src/stm32h5xx_hal_rtc_ex.c ****   * @param  hrtc RTC handle
1486:Drivers/STM32H5xx_HAL_Driver/Src/stm32h5xx_hal_rtc_ex.c ****   * @param  Timeout Timeout duration
1487:Drivers/STM32H5xx_HAL_Driver/Src/stm32h5xx_hal_rtc_ex.c ****   * @retval HAL status
1488:Drivers/STM32H5xx_HAL_Driver/Src/stm32h5xx_hal_rtc_ex.c ****   */
1489:Drivers/STM32H5xx_HAL_Driver/Src/stm32h5xx_hal_rtc_ex.c **** HAL_StatusTypeDef HAL_RTCEx_PollForAlarmBEvent(const RTC_HandleTypeDef *hrtc, uint32_t Timeout)
1490:Drivers/STM32H5xx_HAL_Driver/Src/stm32h5xx_hal_rtc_ex.c **** {
 2441              		.loc 1 1490 1 is_stmt 1 view -0
ARM GAS  C:\Users\DELL\AppData\Local\Temp\ccMtHSyM.s 			page 72


 2442              		.cfi_startproc
 2443              		@ args = 0, pretend = 0, frame = 0
 2444              		@ frame_needed = 0, uses_anonymous_args = 0
 2445              		.loc 1 1490 1 is_stmt 0 view .LVU753
 2446 0000 38B5     		push	{r3, r4, r5, lr}
 2447              	.LCFI12:
 2448              		.cfi_def_cfa_offset 16
 2449              		.cfi_offset 3, -16
 2450              		.cfi_offset 4, -12
 2451              		.cfi_offset 5, -8
 2452              		.cfi_offset 14, -4
 2453 0002 0C46     		mov	r4, r1
1491:Drivers/STM32H5xx_HAL_Driver/Src/stm32h5xx_hal_rtc_ex.c ****   /* Prevent unused argument(s) compilation warning */
1492:Drivers/STM32H5xx_HAL_Driver/Src/stm32h5xx_hal_rtc_ex.c ****   UNUSED(hrtc);
 2454              		.loc 1 1492 3 is_stmt 1 view .LVU754
1493:Drivers/STM32H5xx_HAL_Driver/Src/stm32h5xx_hal_rtc_ex.c **** 
1494:Drivers/STM32H5xx_HAL_Driver/Src/stm32h5xx_hal_rtc_ex.c ****   uint32_t tickstart = HAL_GetTick();
 2455              		.loc 1 1494 3 view .LVU755
 2456              		.loc 1 1494 24 is_stmt 0 view .LVU756
 2457 0004 FFF7FEFF 		bl	HAL_GetTick
 2458              	.LVL165:
 2459              		.loc 1 1494 24 view .LVU757
 2460 0008 0546     		mov	r5, r0
 2461              	.LVL166:
1495:Drivers/STM32H5xx_HAL_Driver/Src/stm32h5xx_hal_rtc_ex.c **** 
1496:Drivers/STM32H5xx_HAL_Driver/Src/stm32h5xx_hal_rtc_ex.c ****   while (READ_BIT(RTC->SR, RTC_SR_ALRBF) == 0U)
 2462              		.loc 1 1496 3 is_stmt 1 view .LVU758
 2463              	.L189:
 2464              		.loc 1 1496 42 view .LVU759
 2465              		.loc 1 1496 10 is_stmt 0 view .LVU760
 2466 000a 0D4B     		ldr	r3, .L197
 2467 000c 1B6D     		ldr	r3, [r3, #80]
 2468              		.loc 1 1496 42 view .LVU761
 2469 000e 13F0020F 		tst	r3, #2
 2470 0012 0ED1     		bne	.L192
1497:Drivers/STM32H5xx_HAL_Driver/Src/stm32h5xx_hal_rtc_ex.c ****   {
1498:Drivers/STM32H5xx_HAL_Driver/Src/stm32h5xx_hal_rtc_ex.c ****     if (Timeout != HAL_MAX_DELAY)
 2471              		.loc 1 1498 5 is_stmt 1 view .LVU762
 2472              		.loc 1 1498 8 is_stmt 0 view .LVU763
 2473 0014 B4F1FF3F 		cmp	r4, #-1
 2474 0018 F7D0     		beq	.L189
1499:Drivers/STM32H5xx_HAL_Driver/Src/stm32h5xx_hal_rtc_ex.c ****     {
1500:Drivers/STM32H5xx_HAL_Driver/Src/stm32h5xx_hal_rtc_ex.c ****       if (((HAL_GetTick() - tickstart) > Timeout) || (Timeout == 0U))
 2475              		.loc 1 1500 7 is_stmt 1 view .LVU764
 2476              		.loc 1 1500 13 is_stmt 0 view .LVU765
 2477 001a FFF7FEFF 		bl	HAL_GetTick
 2478              	.LVL167:
 2479              		.loc 1 1500 27 discriminator 1 view .LVU766
 2480 001e 401B     		subs	r0, r0, r5
 2481              		.loc 1 1500 10 discriminator 1 view .LVU767
 2482 0020 A042     		cmp	r0, r4
 2483 0022 01D8     		bhi	.L190
 2484              		.loc 1 1500 51 discriminator 1 view .LVU768
 2485 0024 002C     		cmp	r4, #0
 2486 0026 F0D1     		bne	.L189
 2487              	.L190:
1501:Drivers/STM32H5xx_HAL_Driver/Src/stm32h5xx_hal_rtc_ex.c ****       {
ARM GAS  C:\Users\DELL\AppData\Local\Temp\ccMtHSyM.s 			page 73


1502:Drivers/STM32H5xx_HAL_Driver/Src/stm32h5xx_hal_rtc_ex.c ****         /* New check to avoid false timeout detection in case of preemption */
1503:Drivers/STM32H5xx_HAL_Driver/Src/stm32h5xx_hal_rtc_ex.c ****         if (READ_BIT(RTC->SR, RTC_SR_ALRBF) == 0U)
 2488              		.loc 1 1503 9 is_stmt 1 view .LVU769
 2489              		.loc 1 1503 13 is_stmt 0 view .LVU770
 2490 0028 054B     		ldr	r3, .L197
 2491 002a 1B6D     		ldr	r3, [r3, #80]
 2492              		.loc 1 1503 12 view .LVU771
 2493 002c 13F0020F 		tst	r3, #2
 2494 0030 04D0     		beq	.L196
 2495              	.L192:
1504:Drivers/STM32H5xx_HAL_Driver/Src/stm32h5xx_hal_rtc_ex.c ****         {
1505:Drivers/STM32H5xx_HAL_Driver/Src/stm32h5xx_hal_rtc_ex.c ****           return HAL_TIMEOUT;
1506:Drivers/STM32H5xx_HAL_Driver/Src/stm32h5xx_hal_rtc_ex.c ****         }
1507:Drivers/STM32H5xx_HAL_Driver/Src/stm32h5xx_hal_rtc_ex.c ****         else
1508:Drivers/STM32H5xx_HAL_Driver/Src/stm32h5xx_hal_rtc_ex.c ****         {
1509:Drivers/STM32H5xx_HAL_Driver/Src/stm32h5xx_hal_rtc_ex.c ****           break;
1510:Drivers/STM32H5xx_HAL_Driver/Src/stm32h5xx_hal_rtc_ex.c ****         }
1511:Drivers/STM32H5xx_HAL_Driver/Src/stm32h5xx_hal_rtc_ex.c ****       }
1512:Drivers/STM32H5xx_HAL_Driver/Src/stm32h5xx_hal_rtc_ex.c ****     }
1513:Drivers/STM32H5xx_HAL_Driver/Src/stm32h5xx_hal_rtc_ex.c ****   }
1514:Drivers/STM32H5xx_HAL_Driver/Src/stm32h5xx_hal_rtc_ex.c **** 
1515:Drivers/STM32H5xx_HAL_Driver/Src/stm32h5xx_hal_rtc_ex.c ****   /* Clear the Alarm Flag */
1516:Drivers/STM32H5xx_HAL_Driver/Src/stm32h5xx_hal_rtc_ex.c ****   WRITE_REG(RTC->SCR, RTC_SCR_CALRBF);
 2496              		.loc 1 1516 3 is_stmt 1 view .LVU772
 2497 0032 034B     		ldr	r3, .L197
 2498 0034 0222     		movs	r2, #2
 2499 0036 DA65     		str	r2, [r3, #92]
1517:Drivers/STM32H5xx_HAL_Driver/Src/stm32h5xx_hal_rtc_ex.c **** 
1518:Drivers/STM32H5xx_HAL_Driver/Src/stm32h5xx_hal_rtc_ex.c ****   return HAL_OK;
 2500              		.loc 1 1518 3 view .LVU773
 2501              		.loc 1 1518 10 is_stmt 0 view .LVU774
 2502 0038 0020     		movs	r0, #0
 2503              	.L191:
1519:Drivers/STM32H5xx_HAL_Driver/Src/stm32h5xx_hal_rtc_ex.c **** }
 2504              		.loc 1 1519 1 view .LVU775
 2505 003a 38BD     		pop	{r3, r4, r5, pc}
 2506              	.LVL168:
 2507              	.L196:
1505:Drivers/STM32H5xx_HAL_Driver/Src/stm32h5xx_hal_rtc_ex.c ****         }
 2508              		.loc 1 1505 18 view .LVU776
 2509 003c 0320     		movs	r0, #3
 2510 003e FCE7     		b	.L191
 2511              	.L198:
 2512              		.align	2
 2513              	.L197:
 2514 0040 00780044 		.word	1140881408
 2515              		.cfi_endproc
 2516              	.LFE329:
 2518              		.section	.text.HAL_RTCEx_SetTamper,"ax",%progbits
 2519              		.align	1
 2520              		.global	HAL_RTCEx_SetTamper
 2521              		.syntax unified
 2522              		.thumb
 2523              		.thumb_func
 2525              	HAL_RTCEx_SetTamper:
 2526              	.LVL169:
 2527              	.LFB330:
ARM GAS  C:\Users\DELL\AppData\Local\Temp\ccMtHSyM.s 			page 74


1520:Drivers/STM32H5xx_HAL_Driver/Src/stm32h5xx_hal_rtc_ex.c **** 
1521:Drivers/STM32H5xx_HAL_Driver/Src/stm32h5xx_hal_rtc_ex.c **** /**
1522:Drivers/STM32H5xx_HAL_Driver/Src/stm32h5xx_hal_rtc_ex.c ****   * @}
1523:Drivers/STM32H5xx_HAL_Driver/Src/stm32h5xx_hal_rtc_ex.c ****   */
1524:Drivers/STM32H5xx_HAL_Driver/Src/stm32h5xx_hal_rtc_ex.c **** 
1525:Drivers/STM32H5xx_HAL_Driver/Src/stm32h5xx_hal_rtc_ex.c **** /** @addtogroup RTCEx_Exported_Functions_Group5
1526:Drivers/STM32H5xx_HAL_Driver/Src/stm32h5xx_hal_rtc_ex.c ****   * @brief      Extended RTC Tamper functions
1527:Drivers/STM32H5xx_HAL_Driver/Src/stm32h5xx_hal_rtc_ex.c ****   *
1528:Drivers/STM32H5xx_HAL_Driver/Src/stm32h5xx_hal_rtc_ex.c **** @verbatim
1529:Drivers/STM32H5xx_HAL_Driver/Src/stm32h5xx_hal_rtc_ex.c ****   ==============================================================================
1530:Drivers/STM32H5xx_HAL_Driver/Src/stm32h5xx_hal_rtc_ex.c ****                          ##### Tamper functions #####
1531:Drivers/STM32H5xx_HAL_Driver/Src/stm32h5xx_hal_rtc_ex.c ****   ==============================================================================
1532:Drivers/STM32H5xx_HAL_Driver/Src/stm32h5xx_hal_rtc_ex.c ****   [..]
1533:Drivers/STM32H5xx_HAL_Driver/Src/stm32h5xx_hal_rtc_ex.c ****    (+) Before calling any tamper or internal tamper function, you have to call first
1534:Drivers/STM32H5xx_HAL_Driver/Src/stm32h5xx_hal_rtc_ex.c ****        HAL_RTC_Init() function.
1535:Drivers/STM32H5xx_HAL_Driver/Src/stm32h5xx_hal_rtc_ex.c ****    (+) In that one you can select to output tamper event on RTC pin.
1536:Drivers/STM32H5xx_HAL_Driver/Src/stm32h5xx_hal_rtc_ex.c ****   [..]
1537:Drivers/STM32H5xx_HAL_Driver/Src/stm32h5xx_hal_rtc_ex.c ****    (+) Enable the Tamper and configure the Tamper filter count, trigger Edge
1538:Drivers/STM32H5xx_HAL_Driver/Src/stm32h5xx_hal_rtc_ex.c ****        or Level according to the Tamper filter (if equal to 0 Edge else Level)
1539:Drivers/STM32H5xx_HAL_Driver/Src/stm32h5xx_hal_rtc_ex.c ****        value, sampling frequency, NoErase, MaskFlag, precharge or discharge and
1540:Drivers/STM32H5xx_HAL_Driver/Src/stm32h5xx_hal_rtc_ex.c ****        Pull-UP, timestamp using the HAL_RTCEx_SetTamper() function.
1541:Drivers/STM32H5xx_HAL_Driver/Src/stm32h5xx_hal_rtc_ex.c ****        You can configure Tamper with interrupt mode using HAL_RTCEx_SetTamper_IT() function.
1542:Drivers/STM32H5xx_HAL_Driver/Src/stm32h5xx_hal_rtc_ex.c ****    (+) The default configuration of the Tamper erases the backup registers. To avoid
1543:Drivers/STM32H5xx_HAL_Driver/Src/stm32h5xx_hal_rtc_ex.c ****        erase, enable the NoErase field on the TAMP_TAMPCR register.
1544:Drivers/STM32H5xx_HAL_Driver/Src/stm32h5xx_hal_rtc_ex.c ****   [..]
1545:Drivers/STM32H5xx_HAL_Driver/Src/stm32h5xx_hal_rtc_ex.c ****    (+) Enable Internal Tamper and configure it with interrupt, timestamp using
1546:Drivers/STM32H5xx_HAL_Driver/Src/stm32h5xx_hal_rtc_ex.c ****        the HAL_RTCEx_SetInternalTamper() function.
1547:Drivers/STM32H5xx_HAL_Driver/Src/stm32h5xx_hal_rtc_ex.c **** 
1548:Drivers/STM32H5xx_HAL_Driver/Src/stm32h5xx_hal_rtc_ex.c **** @endverbatim
1549:Drivers/STM32H5xx_HAL_Driver/Src/stm32h5xx_hal_rtc_ex.c ****   * @{
1550:Drivers/STM32H5xx_HAL_Driver/Src/stm32h5xx_hal_rtc_ex.c ****   */
1551:Drivers/STM32H5xx_HAL_Driver/Src/stm32h5xx_hal_rtc_ex.c **** 
1552:Drivers/STM32H5xx_HAL_Driver/Src/stm32h5xx_hal_rtc_ex.c **** 
1553:Drivers/STM32H5xx_HAL_Driver/Src/stm32h5xx_hal_rtc_ex.c **** /**
1554:Drivers/STM32H5xx_HAL_Driver/Src/stm32h5xx_hal_rtc_ex.c ****   * @brief  Set Tamper
1555:Drivers/STM32H5xx_HAL_Driver/Src/stm32h5xx_hal_rtc_ex.c ****   * @param  hrtc RTC handle
1556:Drivers/STM32H5xx_HAL_Driver/Src/stm32h5xx_hal_rtc_ex.c ****   * @param  sTamper Pointer to Tamper Structure.
1557:Drivers/STM32H5xx_HAL_Driver/Src/stm32h5xx_hal_rtc_ex.c ****   * @retval HAL status
1558:Drivers/STM32H5xx_HAL_Driver/Src/stm32h5xx_hal_rtc_ex.c ****   */
1559:Drivers/STM32H5xx_HAL_Driver/Src/stm32h5xx_hal_rtc_ex.c **** HAL_StatusTypeDef HAL_RTCEx_SetTamper(const RTC_HandleTypeDef *hrtc, const RTC_TamperTypeDef *sTamp
1560:Drivers/STM32H5xx_HAL_Driver/Src/stm32h5xx_hal_rtc_ex.c **** {
 2528              		.loc 1 1560 1 is_stmt 1 view -0
 2529              		.cfi_startproc
 2530              		@ args = 0, pretend = 0, frame = 0
 2531              		@ frame_needed = 0, uses_anonymous_args = 0
 2532              		.loc 1 1560 1 is_stmt 0 view .LVU778
 2533 0000 00B5     		push	{lr}
 2534              	.LCFI13:
 2535              		.cfi_def_cfa_offset 4
 2536              		.cfi_offset 14, -4
1561:Drivers/STM32H5xx_HAL_Driver/Src/stm32h5xx_hal_rtc_ex.c ****   uint32_t tmpreg;
 2537              		.loc 1 1561 3 is_stmt 1 view .LVU779
1562:Drivers/STM32H5xx_HAL_Driver/Src/stm32h5xx_hal_rtc_ex.c **** 
1563:Drivers/STM32H5xx_HAL_Driver/Src/stm32h5xx_hal_rtc_ex.c ****   /* Prevent unused argument(s) compilation warning */
1564:Drivers/STM32H5xx_HAL_Driver/Src/stm32h5xx_hal_rtc_ex.c ****   UNUSED(hrtc);
 2538              		.loc 1 1564 3 view .LVU780
1565:Drivers/STM32H5xx_HAL_Driver/Src/stm32h5xx_hal_rtc_ex.c **** 
ARM GAS  C:\Users\DELL\AppData\Local\Temp\ccMtHSyM.s 			page 75


1566:Drivers/STM32H5xx_HAL_Driver/Src/stm32h5xx_hal_rtc_ex.c ****   /* Check the parameters */
1567:Drivers/STM32H5xx_HAL_Driver/Src/stm32h5xx_hal_rtc_ex.c ****   assert_param(IS_RTC_TAMPER(sTamper->Tamper));
 2539              		.loc 1 1567 3 view .LVU781
1568:Drivers/STM32H5xx_HAL_Driver/Src/stm32h5xx_hal_rtc_ex.c ****   assert_param(IS_RTC_TAMPER_TRIGGER(sTamper->Trigger));
 2540              		.loc 1 1568 3 view .LVU782
1569:Drivers/STM32H5xx_HAL_Driver/Src/stm32h5xx_hal_rtc_ex.c ****   assert_param(IS_RTC_TAMPER_ERASE_MODE(sTamper->NoErase));
 2541              		.loc 1 1569 3 view .LVU783
1570:Drivers/STM32H5xx_HAL_Driver/Src/stm32h5xx_hal_rtc_ex.c ****   assert_param(IS_RTC_TAMPER_MASKFLAG_STATE(sTamper->MaskFlag));
 2542              		.loc 1 1570 3 view .LVU784
1571:Drivers/STM32H5xx_HAL_Driver/Src/stm32h5xx_hal_rtc_ex.c ****   assert_param(IS_RTC_TAMPER_TIMESTAMPONTAMPER_DETECTION(sTamper->TimeStampOnTamperDetection));
 2543              		.loc 1 1571 3 view .LVU785
1572:Drivers/STM32H5xx_HAL_Driver/Src/stm32h5xx_hal_rtc_ex.c **** #if (RTC_TAMP_NB > 2U)
1573:Drivers/STM32H5xx_HAL_Driver/Src/stm32h5xx_hal_rtc_ex.c ****   /* Mask flag only supported by TAMPER 1, 2 and 3 */
1574:Drivers/STM32H5xx_HAL_Driver/Src/stm32h5xx_hal_rtc_ex.c ****   assert_param(!((sTamper->MaskFlag != RTC_TAMPERMASK_FLAG_DISABLE) && (sTamper->Tamper > RTC_TAMPE
 2544              		.loc 1 1574 3 view .LVU786
1575:Drivers/STM32H5xx_HAL_Driver/Src/stm32h5xx_hal_rtc_ex.c **** #else
1576:Drivers/STM32H5xx_HAL_Driver/Src/stm32h5xx_hal_rtc_ex.c ****   assert_param(!((sTamper->MaskFlag != RTC_TAMPERMASK_FLAG_DISABLE) && (sTamper->Tamper > RTC_TAMPE
1577:Drivers/STM32H5xx_HAL_Driver/Src/stm32h5xx_hal_rtc_ex.c **** #endif /* (RTC_TAMP_NB > 2U) */
1578:Drivers/STM32H5xx_HAL_Driver/Src/stm32h5xx_hal_rtc_ex.c ****   assert_param(IS_RTC_TAMPER_FILTER(sTamper->Filter));
 2545              		.loc 1 1578 3 view .LVU787
1579:Drivers/STM32H5xx_HAL_Driver/Src/stm32h5xx_hal_rtc_ex.c ****   assert_param(IS_RTC_TAMPER_SAMPLING_FREQ(sTamper->SamplingFrequency));
 2546              		.loc 1 1579 3 view .LVU788
1580:Drivers/STM32H5xx_HAL_Driver/Src/stm32h5xx_hal_rtc_ex.c ****   assert_param(IS_RTC_TAMPER_PRECHARGE_DURATION(sTamper->PrechargeDuration));
 2547              		.loc 1 1580 3 view .LVU789
1581:Drivers/STM32H5xx_HAL_Driver/Src/stm32h5xx_hal_rtc_ex.c ****   assert_param(IS_RTC_TAMPER_PULLUP_STATE(sTamper->TamperPullUp));
 2548              		.loc 1 1581 3 view .LVU790
1582:Drivers/STM32H5xx_HAL_Driver/Src/stm32h5xx_hal_rtc_ex.c ****   /* Trigger and Filter have exclusive configurations */
1583:Drivers/STM32H5xx_HAL_Driver/Src/stm32h5xx_hal_rtc_ex.c ****   assert_param(((sTamper->Filter != RTC_TAMPERFILTER_DISABLE) &&
 2549              		.loc 1 1583 3 view .LVU791
1584:Drivers/STM32H5xx_HAL_Driver/Src/stm32h5xx_hal_rtc_ex.c ****                 ((sTamper->Trigger == RTC_TAMPERTRIGGER_LOWLEVEL) ||
1585:Drivers/STM32H5xx_HAL_Driver/Src/stm32h5xx_hal_rtc_ex.c ****                  (sTamper->Trigger == RTC_TAMPERTRIGGER_HIGHLEVEL))) ||
1586:Drivers/STM32H5xx_HAL_Driver/Src/stm32h5xx_hal_rtc_ex.c ****                ((sTamper->Filter == RTC_TAMPERFILTER_DISABLE) &&
1587:Drivers/STM32H5xx_HAL_Driver/Src/stm32h5xx_hal_rtc_ex.c ****                 ((sTamper->Trigger == RTC_TAMPERTRIGGER_RISINGEDGE) ||
1588:Drivers/STM32H5xx_HAL_Driver/Src/stm32h5xx_hal_rtc_ex.c ****                  (sTamper->Trigger == RTC_TAMPERTRIGGER_FALLINGEDGE))));
1589:Drivers/STM32H5xx_HAL_Driver/Src/stm32h5xx_hal_rtc_ex.c **** 
1590:Drivers/STM32H5xx_HAL_Driver/Src/stm32h5xx_hal_rtc_ex.c ****   /* Configuration register 2 */
1591:Drivers/STM32H5xx_HAL_Driver/Src/stm32h5xx_hal_rtc_ex.c ****   tmpreg = READ_REG(TAMP->CR2);
 2550              		.loc 1 1591 3 view .LVU792
 2551              		.loc 1 1591 10 is_stmt 0 view .LVU793
 2552 0002 1C4B     		ldr	r3, .L206
 2553 0004 5B68     		ldr	r3, [r3, #4]
 2554              	.LVL170:
1592:Drivers/STM32H5xx_HAL_Driver/Src/stm32h5xx_hal_rtc_ex.c ****   tmpreg &= ~((sTamper->Tamper << TAMP_CR2_TAMP1TRG_Pos) | (sTamper->Tamper << TAMP_CR2_TAMP1MSK_Po
 2555              		.loc 1 1592 3 is_stmt 1 view .LVU794
 2556              		.loc 1 1592 23 is_stmt 0 view .LVU795
 2557 0006 0A68     		ldr	r2, [r1]
 2558              		.loc 1 1592 32 view .LVU796
 2559 0008 4FEA026E 		lsl	lr, r2, #24
 2560              		.loc 1 1592 77 view .LVU797
 2561 000c 4FEA024C 		lsl	ip, r2, #16
 2562              		.loc 1 1592 58 view .LVU798
 2563 0010 4CEA0260 		orr	r0, ip, r2, lsl #24
 2564              	.LVL171:
 2565              		.loc 1 1592 103 view .LVU799
 2566 0014 1043     		orrs	r0, r0, r2
 2567              		.loc 1 1592 10 view .LVU800
 2568 0016 23EA0003 		bic	r3, r3, r0
ARM GAS  C:\Users\DELL\AppData\Local\Temp\ccMtHSyM.s 			page 76


 2569              	.LVL172:
1593:Drivers/STM32H5xx_HAL_Driver/Src/stm32h5xx_hal_rtc_ex.c ****               (sTamper->Tamper << TAMP_CR2_TAMP1NOERASE_Pos));
1594:Drivers/STM32H5xx_HAL_Driver/Src/stm32h5xx_hal_rtc_ex.c **** 
1595:Drivers/STM32H5xx_HAL_Driver/Src/stm32h5xx_hal_rtc_ex.c ****   if ((sTamper->Trigger == RTC_TAMPERTRIGGER_HIGHLEVEL) || (sTamper->Trigger == RTC_TAMPERTRIGGER_F
 2570              		.loc 1 1595 3 is_stmt 1 view .LVU801
 2571              		.loc 1 1595 15 is_stmt 0 view .LVU802
 2572 001a 4868     		ldr	r0, [r1, #4]
 2573              		.loc 1 1595 6 view .LVU803
 2574 001c 0328     		cmp	r0, #3
 2575 001e 01D0     		beq	.L200
 2576              		.loc 1 1595 57 discriminator 1 view .LVU804
 2577 0020 0128     		cmp	r0, #1
 2578 0022 01D1     		bne	.L201
 2579              	.L200:
1596:Drivers/STM32H5xx_HAL_Driver/Src/stm32h5xx_hal_rtc_ex.c ****   {
1597:Drivers/STM32H5xx_HAL_Driver/Src/stm32h5xx_hal_rtc_ex.c ****     tmpreg |= (sTamper->Tamper << TAMP_CR2_TAMP1TRG_Pos);
 2580              		.loc 1 1597 5 is_stmt 1 view .LVU805
 2581              		.loc 1 1597 12 is_stmt 0 view .LVU806
 2582 0024 43EA0E03 		orr	r3, r3, lr
 2583              	.LVL173:
 2584              	.L201:
1598:Drivers/STM32H5xx_HAL_Driver/Src/stm32h5xx_hal_rtc_ex.c ****   }
1599:Drivers/STM32H5xx_HAL_Driver/Src/stm32h5xx_hal_rtc_ex.c **** 
1600:Drivers/STM32H5xx_HAL_Driver/Src/stm32h5xx_hal_rtc_ex.c ****   if (sTamper->MaskFlag != RTC_TAMPERMASK_FLAG_DISABLE)
 2585              		.loc 1 1600 3 is_stmt 1 view .LVU807
 2586              		.loc 1 1600 14 is_stmt 0 view .LVU808
 2587 0028 C868     		ldr	r0, [r1, #12]
 2588              		.loc 1 1600 6 view .LVU809
 2589 002a 08B1     		cbz	r0, .L202
1601:Drivers/STM32H5xx_HAL_Driver/Src/stm32h5xx_hal_rtc_ex.c ****   {
1602:Drivers/STM32H5xx_HAL_Driver/Src/stm32h5xx_hal_rtc_ex.c ****     tmpreg |= (sTamper->Tamper << TAMP_CR2_TAMP1MSK_Pos);
 2590              		.loc 1 1602 5 is_stmt 1 view .LVU810
 2591              		.loc 1 1602 12 is_stmt 0 view .LVU811
 2592 002c 43EA0C03 		orr	r3, r3, ip
 2593              	.LVL174:
 2594              	.L202:
1603:Drivers/STM32H5xx_HAL_Driver/Src/stm32h5xx_hal_rtc_ex.c ****   }
1604:Drivers/STM32H5xx_HAL_Driver/Src/stm32h5xx_hal_rtc_ex.c **** 
1605:Drivers/STM32H5xx_HAL_Driver/Src/stm32h5xx_hal_rtc_ex.c ****   if (sTamper->NoErase != RTC_TAMPER_ERASE_BACKUP_ENABLE)
 2595              		.loc 1 1605 3 is_stmt 1 view .LVU812
 2596              		.loc 1 1605 14 is_stmt 0 view .LVU813
 2597 0030 8868     		ldr	r0, [r1, #8]
 2598              		.loc 1 1605 6 view .LVU814
 2599 0032 00B1     		cbz	r0, .L203
1606:Drivers/STM32H5xx_HAL_Driver/Src/stm32h5xx_hal_rtc_ex.c ****   {
1607:Drivers/STM32H5xx_HAL_Driver/Src/stm32h5xx_hal_rtc_ex.c ****     tmpreg |= (sTamper->Tamper << TAMP_CR2_TAMP1NOERASE_Pos);
 2600              		.loc 1 1607 5 is_stmt 1 view .LVU815
 2601              		.loc 1 1607 12 is_stmt 0 view .LVU816
 2602 0034 1343     		orrs	r3, r3, r2
 2603              	.LVL175:
 2604              	.L203:
1608:Drivers/STM32H5xx_HAL_Driver/Src/stm32h5xx_hal_rtc_ex.c ****   }
1609:Drivers/STM32H5xx_HAL_Driver/Src/stm32h5xx_hal_rtc_ex.c ****   WRITE_REG(TAMP->CR2, tmpreg);
 2605              		.loc 1 1609 3 is_stmt 1 view .LVU817
 2606 0036 0F4A     		ldr	r2, .L206
 2607 0038 5360     		str	r3, [r2, #4]
1610:Drivers/STM32H5xx_HAL_Driver/Src/stm32h5xx_hal_rtc_ex.c **** 
ARM GAS  C:\Users\DELL\AppData\Local\Temp\ccMtHSyM.s 			page 77


1611:Drivers/STM32H5xx_HAL_Driver/Src/stm32h5xx_hal_rtc_ex.c ****   /* Filter control register */
1612:Drivers/STM32H5xx_HAL_Driver/Src/stm32h5xx_hal_rtc_ex.c ****   WRITE_REG(TAMP->FLTCR, sTamper->Filter | sTamper->SamplingFrequency | sTamper->PrechargeDuration 
 2608              		.loc 1 1612 3 view .LVU818
 2609 003a 0B69     		ldr	r3, [r1, #16]
 2610              	.LVL176:
 2611              		.loc 1 1612 3 is_stmt 0 view .LVU819
 2612 003c 4869     		ldr	r0, [r1, #20]
 2613 003e 0343     		orrs	r3, r3, r0
 2614 0040 8869     		ldr	r0, [r1, #24]
 2615 0042 0343     		orrs	r3, r3, r0
 2616 0044 C869     		ldr	r0, [r1, #28]
 2617 0046 0343     		orrs	r3, r3, r0
 2618 0048 D360     		str	r3, [r2, #12]
 2619              	.LVL177:
1613:Drivers/STM32H5xx_HAL_Driver/Src/stm32h5xx_hal_rtc_ex.c ****             sTamper->TamperPullUp);
1614:Drivers/STM32H5xx_HAL_Driver/Src/stm32h5xx_hal_rtc_ex.c **** 
1615:Drivers/STM32H5xx_HAL_Driver/Src/stm32h5xx_hal_rtc_ex.c ****   /* Timestamp on tamper */
1616:Drivers/STM32H5xx_HAL_Driver/Src/stm32h5xx_hal_rtc_ex.c ****   if (READ_BIT(RTC->CR, RTC_CR_TAMPTS) != sTamper->TimeStampOnTamperDetection)
 2620              		.loc 1 1616 3 is_stmt 1 view .LVU820
 2621              		.loc 1 1616 7 is_stmt 0 view .LVU821
 2622 004a 0B4B     		ldr	r3, .L206+4
 2623 004c 9B69     		ldr	r3, [r3, #24]
 2624 004e 03F00073 		and	r3, r3, #33554432
 2625              		.loc 1 1616 50 view .LVU822
 2626 0052 0A6A     		ldr	r2, [r1, #32]
 2627              		.loc 1 1616 6 view .LVU823
 2628 0054 9342     		cmp	r3, r2
 2629 0056 05D0     		beq	.L204
1617:Drivers/STM32H5xx_HAL_Driver/Src/stm32h5xx_hal_rtc_ex.c ****   {
1618:Drivers/STM32H5xx_HAL_Driver/Src/stm32h5xx_hal_rtc_ex.c ****     MODIFY_REG(RTC->CR, RTC_CR_TAMPTS, sTamper->TimeStampOnTamperDetection);
 2630              		.loc 1 1618 5 is_stmt 1 view .LVU824
 2631 0058 0748     		ldr	r0, .L206+4
 2632 005a 8369     		ldr	r3, [r0, #24]
 2633 005c 23F00073 		bic	r3, r3, #33554432
 2634 0060 1A43     		orrs	r2, r2, r3
 2635 0062 8261     		str	r2, [r0, #24]
 2636              	.L204:
1619:Drivers/STM32H5xx_HAL_Driver/Src/stm32h5xx_hal_rtc_ex.c ****   }
1620:Drivers/STM32H5xx_HAL_Driver/Src/stm32h5xx_hal_rtc_ex.c **** 
1621:Drivers/STM32H5xx_HAL_Driver/Src/stm32h5xx_hal_rtc_ex.c ****   /* Control register 1 */
1622:Drivers/STM32H5xx_HAL_Driver/Src/stm32h5xx_hal_rtc_ex.c ****   SET_BIT(TAMP->CR1, sTamper->Tamper);
 2637              		.loc 1 1622 3 view .LVU825
 2638 0064 034A     		ldr	r2, .L206
 2639 0066 1368     		ldr	r3, [r2]
 2640 0068 0968     		ldr	r1, [r1]
 2641              	.LVL178:
 2642              		.loc 1 1622 3 is_stmt 0 view .LVU826
 2643 006a 0B43     		orrs	r3, r3, r1
 2644 006c 1360     		str	r3, [r2]
1623:Drivers/STM32H5xx_HAL_Driver/Src/stm32h5xx_hal_rtc_ex.c **** 
1624:Drivers/STM32H5xx_HAL_Driver/Src/stm32h5xx_hal_rtc_ex.c ****   return HAL_OK;
 2645              		.loc 1 1624 3 is_stmt 1 view .LVU827
1625:Drivers/STM32H5xx_HAL_Driver/Src/stm32h5xx_hal_rtc_ex.c **** }
 2646              		.loc 1 1625 1 is_stmt 0 view .LVU828
 2647 006e 0020     		movs	r0, #0
 2648 0070 00BD     		pop	{pc}
 2649              	.L207:
ARM GAS  C:\Users\DELL\AppData\Local\Temp\ccMtHSyM.s 			page 78


 2650 0072 00BF     		.align	2
 2651              	.L206:
 2652 0074 007C0044 		.word	1140882432
 2653 0078 00780044 		.word	1140881408
 2654              		.cfi_endproc
 2655              	.LFE330:
 2657              		.section	.text.HAL_RTCEx_SetTamper_IT,"ax",%progbits
 2658              		.align	1
 2659              		.global	HAL_RTCEx_SetTamper_IT
 2660              		.syntax unified
 2661              		.thumb
 2662              		.thumb_func
 2664              	HAL_RTCEx_SetTamper_IT:
 2665              	.LVL179:
 2666              	.LFB331:
1626:Drivers/STM32H5xx_HAL_Driver/Src/stm32h5xx_hal_rtc_ex.c **** 
1627:Drivers/STM32H5xx_HAL_Driver/Src/stm32h5xx_hal_rtc_ex.c **** 
1628:Drivers/STM32H5xx_HAL_Driver/Src/stm32h5xx_hal_rtc_ex.c **** /**
1629:Drivers/STM32H5xx_HAL_Driver/Src/stm32h5xx_hal_rtc_ex.c ****   * @brief  Set Tamper in IT mode
1630:Drivers/STM32H5xx_HAL_Driver/Src/stm32h5xx_hal_rtc_ex.c ****   * @note   The application must ensure that the EXTI TAMP interrupt line is enabled.
1631:Drivers/STM32H5xx_HAL_Driver/Src/stm32h5xx_hal_rtc_ex.c ****   * @param  hrtc RTC handle
1632:Drivers/STM32H5xx_HAL_Driver/Src/stm32h5xx_hal_rtc_ex.c ****   * @param  sTamper Pointer to Tamper Structure.
1633:Drivers/STM32H5xx_HAL_Driver/Src/stm32h5xx_hal_rtc_ex.c ****   * @retval HAL status
1634:Drivers/STM32H5xx_HAL_Driver/Src/stm32h5xx_hal_rtc_ex.c ****   */
1635:Drivers/STM32H5xx_HAL_Driver/Src/stm32h5xx_hal_rtc_ex.c **** HAL_StatusTypeDef HAL_RTCEx_SetTamper_IT(const RTC_HandleTypeDef *hrtc, const RTC_TamperTypeDef *sT
1636:Drivers/STM32H5xx_HAL_Driver/Src/stm32h5xx_hal_rtc_ex.c **** {
 2667              		.loc 1 1636 1 is_stmt 1 view -0
 2668              		.cfi_startproc
 2669              		@ args = 0, pretend = 0, frame = 0
 2670              		@ frame_needed = 0, uses_anonymous_args = 0
 2671              		@ link register save eliminated.
1637:Drivers/STM32H5xx_HAL_Driver/Src/stm32h5xx_hal_rtc_ex.c ****   uint32_t tmpreg;
 2672              		.loc 1 1637 3 view .LVU830
1638:Drivers/STM32H5xx_HAL_Driver/Src/stm32h5xx_hal_rtc_ex.c **** 
1639:Drivers/STM32H5xx_HAL_Driver/Src/stm32h5xx_hal_rtc_ex.c ****   /* Prevent unused argument(s) compilation warning */
1640:Drivers/STM32H5xx_HAL_Driver/Src/stm32h5xx_hal_rtc_ex.c ****   UNUSED(hrtc);
 2673              		.loc 1 1640 3 view .LVU831
1641:Drivers/STM32H5xx_HAL_Driver/Src/stm32h5xx_hal_rtc_ex.c **** 
1642:Drivers/STM32H5xx_HAL_Driver/Src/stm32h5xx_hal_rtc_ex.c ****   /* Check the parameters */
1643:Drivers/STM32H5xx_HAL_Driver/Src/stm32h5xx_hal_rtc_ex.c ****   assert_param(IS_RTC_TAMPER(sTamper->Tamper));
 2674              		.loc 1 1643 3 view .LVU832
1644:Drivers/STM32H5xx_HAL_Driver/Src/stm32h5xx_hal_rtc_ex.c ****   assert_param(IS_RTC_TAMPER_TRIGGER(sTamper->Trigger));
 2675              		.loc 1 1644 3 view .LVU833
1645:Drivers/STM32H5xx_HAL_Driver/Src/stm32h5xx_hal_rtc_ex.c ****   assert_param(IS_RTC_TAMPER_ERASE_MODE(sTamper->NoErase));
 2676              		.loc 1 1645 3 view .LVU834
1646:Drivers/STM32H5xx_HAL_Driver/Src/stm32h5xx_hal_rtc_ex.c ****   assert_param(IS_RTC_TAMPER_TIMESTAMPONTAMPER_DETECTION(sTamper->TimeStampOnTamperDetection));
 2677              		.loc 1 1646 3 view .LVU835
1647:Drivers/STM32H5xx_HAL_Driver/Src/stm32h5xx_hal_rtc_ex.c ****   /* The interrupt must not be enabled when TAMPxMSK is set. */
1648:Drivers/STM32H5xx_HAL_Driver/Src/stm32h5xx_hal_rtc_ex.c ****   assert_param(sTamper->MaskFlag == RTC_TAMPERMASK_FLAG_DISABLE);
 2678              		.loc 1 1648 3 view .LVU836
1649:Drivers/STM32H5xx_HAL_Driver/Src/stm32h5xx_hal_rtc_ex.c ****   assert_param(IS_RTC_TAMPER_FILTER(sTamper->Filter));
 2679              		.loc 1 1649 3 view .LVU837
1650:Drivers/STM32H5xx_HAL_Driver/Src/stm32h5xx_hal_rtc_ex.c ****   assert_param(IS_RTC_TAMPER_SAMPLING_FREQ(sTamper->SamplingFrequency));
 2680              		.loc 1 1650 3 view .LVU838
1651:Drivers/STM32H5xx_HAL_Driver/Src/stm32h5xx_hal_rtc_ex.c ****   assert_param(IS_RTC_TAMPER_PRECHARGE_DURATION(sTamper->PrechargeDuration));
 2681              		.loc 1 1651 3 view .LVU839
1652:Drivers/STM32H5xx_HAL_Driver/Src/stm32h5xx_hal_rtc_ex.c ****   assert_param(IS_RTC_TAMPER_PULLUP_STATE(sTamper->TamperPullUp));
ARM GAS  C:\Users\DELL\AppData\Local\Temp\ccMtHSyM.s 			page 79


 2682              		.loc 1 1652 3 view .LVU840
1653:Drivers/STM32H5xx_HAL_Driver/Src/stm32h5xx_hal_rtc_ex.c ****   /* Trigger and Filter have exclusive configurations */
1654:Drivers/STM32H5xx_HAL_Driver/Src/stm32h5xx_hal_rtc_ex.c ****   assert_param(((sTamper->Filter != RTC_TAMPERFILTER_DISABLE) &&
 2683              		.loc 1 1654 3 view .LVU841
1655:Drivers/STM32H5xx_HAL_Driver/Src/stm32h5xx_hal_rtc_ex.c ****                 ((sTamper->Trigger == RTC_TAMPERTRIGGER_LOWLEVEL) ||
1656:Drivers/STM32H5xx_HAL_Driver/Src/stm32h5xx_hal_rtc_ex.c ****                  (sTamper->Trigger == RTC_TAMPERTRIGGER_HIGHLEVEL))) ||
1657:Drivers/STM32H5xx_HAL_Driver/Src/stm32h5xx_hal_rtc_ex.c ****                ((sTamper->Filter == RTC_TAMPERFILTER_DISABLE) &&
1658:Drivers/STM32H5xx_HAL_Driver/Src/stm32h5xx_hal_rtc_ex.c ****                 ((sTamper->Trigger == RTC_TAMPERTRIGGER_RISINGEDGE) ||
1659:Drivers/STM32H5xx_HAL_Driver/Src/stm32h5xx_hal_rtc_ex.c ****                  (sTamper->Trigger == RTC_TAMPERTRIGGER_FALLINGEDGE))));
1660:Drivers/STM32H5xx_HAL_Driver/Src/stm32h5xx_hal_rtc_ex.c **** 
1661:Drivers/STM32H5xx_HAL_Driver/Src/stm32h5xx_hal_rtc_ex.c ****   /* Configuration register 2 */
1662:Drivers/STM32H5xx_HAL_Driver/Src/stm32h5xx_hal_rtc_ex.c ****   tmpreg = READ_REG(TAMP->CR2);
 2684              		.loc 1 1662 3 view .LVU842
 2685              		.loc 1 1662 10 is_stmt 0 view .LVU843
 2686 0000 1B4B     		ldr	r3, .L213
 2687 0002 5B68     		ldr	r3, [r3, #4]
 2688              	.LVL180:
1663:Drivers/STM32H5xx_HAL_Driver/Src/stm32h5xx_hal_rtc_ex.c ****   tmpreg &= ~((sTamper->Tamper << TAMP_CR2_TAMP1TRG_Pos) | (sTamper->Tamper << TAMP_CR2_TAMP1MSK_Po
 2689              		.loc 1 1663 3 is_stmt 1 view .LVU844
 2690              		.loc 1 1663 23 is_stmt 0 view .LVU845
 2691 0004 0868     		ldr	r0, [r1]
 2692              	.LVL181:
 2693              		.loc 1 1663 32 view .LVU846
 2694 0006 4FEA006C 		lsl	ip, r0, #24
 2695              		.loc 1 1663 77 view .LVU847
 2696 000a 0204     		lsls	r2, r0, #16
 2697              		.loc 1 1663 58 view .LVU848
 2698 000c 42EA0062 		orr	r2, r2, r0, lsl #24
 2699              		.loc 1 1663 103 view .LVU849
 2700 0010 0243     		orrs	r2, r2, r0
 2701              		.loc 1 1663 10 view .LVU850
 2702 0012 23EA0203 		bic	r3, r3, r2
 2703              	.LVL182:
1664:Drivers/STM32H5xx_HAL_Driver/Src/stm32h5xx_hal_rtc_ex.c ****               (sTamper->Tamper << TAMP_CR2_TAMP1NOERASE_Pos));
1665:Drivers/STM32H5xx_HAL_Driver/Src/stm32h5xx_hal_rtc_ex.c **** 
1666:Drivers/STM32H5xx_HAL_Driver/Src/stm32h5xx_hal_rtc_ex.c ****   if ((sTamper->Trigger == RTC_TAMPERTRIGGER_HIGHLEVEL) || (sTamper->Trigger == RTC_TAMPERTRIGGER_F
 2704              		.loc 1 1666 3 is_stmt 1 view .LVU851
 2705              		.loc 1 1666 15 is_stmt 0 view .LVU852
 2706 0016 4A68     		ldr	r2, [r1, #4]
 2707              		.loc 1 1666 6 view .LVU853
 2708 0018 032A     		cmp	r2, #3
 2709 001a 01D0     		beq	.L209
 2710              		.loc 1 1666 57 discriminator 1 view .LVU854
 2711 001c 012A     		cmp	r2, #1
 2712 001e 01D1     		bne	.L210
 2713              	.L209:
1667:Drivers/STM32H5xx_HAL_Driver/Src/stm32h5xx_hal_rtc_ex.c ****   {
1668:Drivers/STM32H5xx_HAL_Driver/Src/stm32h5xx_hal_rtc_ex.c ****     tmpreg |= (sTamper->Tamper << TAMP_CR2_TAMP1TRG_Pos);
 2714              		.loc 1 1668 5 is_stmt 1 view .LVU855
 2715              		.loc 1 1668 12 is_stmt 0 view .LVU856
 2716 0020 43EA0C03 		orr	r3, r3, ip
 2717              	.LVL183:
 2718              	.L210:
1669:Drivers/STM32H5xx_HAL_Driver/Src/stm32h5xx_hal_rtc_ex.c ****   }
1670:Drivers/STM32H5xx_HAL_Driver/Src/stm32h5xx_hal_rtc_ex.c **** 
1671:Drivers/STM32H5xx_HAL_Driver/Src/stm32h5xx_hal_rtc_ex.c ****   if (sTamper->NoErase != RTC_TAMPER_ERASE_BACKUP_ENABLE)
 2719              		.loc 1 1671 3 is_stmt 1 view .LVU857
ARM GAS  C:\Users\DELL\AppData\Local\Temp\ccMtHSyM.s 			page 80


 2720              		.loc 1 1671 14 is_stmt 0 view .LVU858
 2721 0024 8A68     		ldr	r2, [r1, #8]
 2722              		.loc 1 1671 6 view .LVU859
 2723 0026 02B1     		cbz	r2, .L211
1672:Drivers/STM32H5xx_HAL_Driver/Src/stm32h5xx_hal_rtc_ex.c ****   {
1673:Drivers/STM32H5xx_HAL_Driver/Src/stm32h5xx_hal_rtc_ex.c ****     tmpreg |= (sTamper->Tamper << TAMP_CR2_TAMP1NOERASE_Pos);
 2724              		.loc 1 1673 5 is_stmt 1 view .LVU860
 2725              		.loc 1 1673 12 is_stmt 0 view .LVU861
 2726 0028 0343     		orrs	r3, r3, r0
 2727              	.LVL184:
 2728              	.L211:
1674:Drivers/STM32H5xx_HAL_Driver/Src/stm32h5xx_hal_rtc_ex.c ****   }
1675:Drivers/STM32H5xx_HAL_Driver/Src/stm32h5xx_hal_rtc_ex.c ****   WRITE_REG(TAMP->CR2, tmpreg);
 2729              		.loc 1 1675 3 is_stmt 1 view .LVU862
 2730 002a 114A     		ldr	r2, .L213
 2731 002c 5360     		str	r3, [r2, #4]
1676:Drivers/STM32H5xx_HAL_Driver/Src/stm32h5xx_hal_rtc_ex.c **** 
1677:Drivers/STM32H5xx_HAL_Driver/Src/stm32h5xx_hal_rtc_ex.c ****   /* Filter control register */
1678:Drivers/STM32H5xx_HAL_Driver/Src/stm32h5xx_hal_rtc_ex.c ****   WRITE_REG(TAMP->FLTCR, sTamper->Filter | sTamper->SamplingFrequency | sTamper->PrechargeDuration 
 2732              		.loc 1 1678 3 view .LVU863
 2733 002e 0B69     		ldr	r3, [r1, #16]
 2734              	.LVL185:
 2735              		.loc 1 1678 3 is_stmt 0 view .LVU864
 2736 0030 4869     		ldr	r0, [r1, #20]
 2737 0032 0343     		orrs	r3, r3, r0
 2738 0034 8869     		ldr	r0, [r1, #24]
 2739 0036 0343     		orrs	r3, r3, r0
 2740 0038 C869     		ldr	r0, [r1, #28]
 2741 003a 0343     		orrs	r3, r3, r0
 2742 003c D360     		str	r3, [r2, #12]
 2743              	.LVL186:
1679:Drivers/STM32H5xx_HAL_Driver/Src/stm32h5xx_hal_rtc_ex.c ****             sTamper->TamperPullUp);
1680:Drivers/STM32H5xx_HAL_Driver/Src/stm32h5xx_hal_rtc_ex.c **** 
1681:Drivers/STM32H5xx_HAL_Driver/Src/stm32h5xx_hal_rtc_ex.c ****   /* Timestamp on tamper */
1682:Drivers/STM32H5xx_HAL_Driver/Src/stm32h5xx_hal_rtc_ex.c ****   if (READ_BIT(RTC->CR, RTC_CR_TAMPTS) != sTamper->TimeStampOnTamperDetection)
 2744              		.loc 1 1682 3 is_stmt 1 view .LVU865
 2745              		.loc 1 1682 7 is_stmt 0 view .LVU866
 2746 003e 0D4B     		ldr	r3, .L213+4
 2747 0040 9B69     		ldr	r3, [r3, #24]
 2748 0042 03F00073 		and	r3, r3, #33554432
 2749              		.loc 1 1682 50 view .LVU867
 2750 0046 0A6A     		ldr	r2, [r1, #32]
 2751              		.loc 1 1682 6 view .LVU868
 2752 0048 9342     		cmp	r3, r2
 2753 004a 05D0     		beq	.L212
1683:Drivers/STM32H5xx_HAL_Driver/Src/stm32h5xx_hal_rtc_ex.c ****   {
1684:Drivers/STM32H5xx_HAL_Driver/Src/stm32h5xx_hal_rtc_ex.c ****     MODIFY_REG(RTC->CR, RTC_CR_TAMPTS, sTamper->TimeStampOnTamperDetection);
 2754              		.loc 1 1684 5 is_stmt 1 view .LVU869
 2755 004c 0948     		ldr	r0, .L213+4
 2756 004e 8369     		ldr	r3, [r0, #24]
 2757 0050 23F00073 		bic	r3, r3, #33554432
 2758 0054 1A43     		orrs	r2, r2, r3
 2759 0056 8261     		str	r2, [r0, #24]
 2760              	.L212:
1685:Drivers/STM32H5xx_HAL_Driver/Src/stm32h5xx_hal_rtc_ex.c ****   }
1686:Drivers/STM32H5xx_HAL_Driver/Src/stm32h5xx_hal_rtc_ex.c **** 
1687:Drivers/STM32H5xx_HAL_Driver/Src/stm32h5xx_hal_rtc_ex.c ****   /* Interrupt enable register */
ARM GAS  C:\Users\DELL\AppData\Local\Temp\ccMtHSyM.s 			page 81


1688:Drivers/STM32H5xx_HAL_Driver/Src/stm32h5xx_hal_rtc_ex.c ****   SET_BIT(TAMP->IER, sTamper->Tamper);
 2761              		.loc 1 1688 3 view .LVU870
 2762 0058 054B     		ldr	r3, .L213
 2763 005a DA6A     		ldr	r2, [r3, #44]
 2764 005c 0868     		ldr	r0, [r1]
 2765 005e 0243     		orrs	r2, r2, r0
 2766 0060 DA62     		str	r2, [r3, #44]
1689:Drivers/STM32H5xx_HAL_Driver/Src/stm32h5xx_hal_rtc_ex.c **** 
1690:Drivers/STM32H5xx_HAL_Driver/Src/stm32h5xx_hal_rtc_ex.c ****   /* Control register 1 */
1691:Drivers/STM32H5xx_HAL_Driver/Src/stm32h5xx_hal_rtc_ex.c ****   SET_BIT(TAMP->CR1, sTamper->Tamper);
 2767              		.loc 1 1691 3 view .LVU871
 2768 0062 1A68     		ldr	r2, [r3]
 2769 0064 0968     		ldr	r1, [r1]
 2770              	.LVL187:
 2771              		.loc 1 1691 3 is_stmt 0 view .LVU872
 2772 0066 0A43     		orrs	r2, r2, r1
 2773 0068 1A60     		str	r2, [r3]
1692:Drivers/STM32H5xx_HAL_Driver/Src/stm32h5xx_hal_rtc_ex.c **** 
1693:Drivers/STM32H5xx_HAL_Driver/Src/stm32h5xx_hal_rtc_ex.c ****   return HAL_OK;
 2774              		.loc 1 1693 3 is_stmt 1 view .LVU873
1694:Drivers/STM32H5xx_HAL_Driver/Src/stm32h5xx_hal_rtc_ex.c **** }
 2775              		.loc 1 1694 1 is_stmt 0 view .LVU874
 2776 006a 0020     		movs	r0, #0
 2777 006c 7047     		bx	lr
 2778              	.L214:
 2779 006e 00BF     		.align	2
 2780              	.L213:
 2781 0070 007C0044 		.word	1140882432
 2782 0074 00780044 		.word	1140881408
 2783              		.cfi_endproc
 2784              	.LFE331:
 2786              		.section	.text.HAL_RTCEx_DeactivateTamper,"ax",%progbits
 2787              		.align	1
 2788              		.global	HAL_RTCEx_DeactivateTamper
 2789              		.syntax unified
 2790              		.thumb
 2791              		.thumb_func
 2793              	HAL_RTCEx_DeactivateTamper:
 2794              	.LVL188:
 2795              	.LFB332:
1695:Drivers/STM32H5xx_HAL_Driver/Src/stm32h5xx_hal_rtc_ex.c **** 
1696:Drivers/STM32H5xx_HAL_Driver/Src/stm32h5xx_hal_rtc_ex.c **** /**
1697:Drivers/STM32H5xx_HAL_Driver/Src/stm32h5xx_hal_rtc_ex.c ****   * @brief  Deactivate Tamper.
1698:Drivers/STM32H5xx_HAL_Driver/Src/stm32h5xx_hal_rtc_ex.c ****   * @param  hrtc RTC handle
1699:Drivers/STM32H5xx_HAL_Driver/Src/stm32h5xx_hal_rtc_ex.c ****   * @param  Tamper Selected tamper pin.
1700:Drivers/STM32H5xx_HAL_Driver/Src/stm32h5xx_hal_rtc_ex.c ****   *         This parameter can be a combination of the following values:
1701:Drivers/STM32H5xx_HAL_Driver/Src/stm32h5xx_hal_rtc_ex.c ****   *         @arg RTC_TAMPER_1
1702:Drivers/STM32H5xx_HAL_Driver/Src/stm32h5xx_hal_rtc_ex.c ****   *         @arg RTC_TAMPER_2
1703:Drivers/STM32H5xx_HAL_Driver/Src/stm32h5xx_hal_rtc_ex.c ****   *         @arg RTC_TAMPER_3
1704:Drivers/STM32H5xx_HAL_Driver/Src/stm32h5xx_hal_rtc_ex.c ****   *         @arg RTC_TAMPER_4
1705:Drivers/STM32H5xx_HAL_Driver/Src/stm32h5xx_hal_rtc_ex.c ****   *         @arg RTC_TAMPER_5
1706:Drivers/STM32H5xx_HAL_Driver/Src/stm32h5xx_hal_rtc_ex.c ****   *         @arg RTC_TAMPER_6
1707:Drivers/STM32H5xx_HAL_Driver/Src/stm32h5xx_hal_rtc_ex.c ****   *         @arg RTC_TAMPER_7
1708:Drivers/STM32H5xx_HAL_Driver/Src/stm32h5xx_hal_rtc_ex.c ****   *         @arg RTC_TAMPER_8
1709:Drivers/STM32H5xx_HAL_Driver/Src/stm32h5xx_hal_rtc_ex.c ****   * @retval HAL status
1710:Drivers/STM32H5xx_HAL_Driver/Src/stm32h5xx_hal_rtc_ex.c ****   */
1711:Drivers/STM32H5xx_HAL_Driver/Src/stm32h5xx_hal_rtc_ex.c **** HAL_StatusTypeDef HAL_RTCEx_DeactivateTamper(const RTC_HandleTypeDef *hrtc, uint32_t Tamper)
ARM GAS  C:\Users\DELL\AppData\Local\Temp\ccMtHSyM.s 			page 82


1712:Drivers/STM32H5xx_HAL_Driver/Src/stm32h5xx_hal_rtc_ex.c **** {
 2796              		.loc 1 1712 1 is_stmt 1 view -0
 2797              		.cfi_startproc
 2798              		@ args = 0, pretend = 0, frame = 0
 2799              		@ frame_needed = 0, uses_anonymous_args = 0
 2800              		@ link register save eliminated.
1713:Drivers/STM32H5xx_HAL_Driver/Src/stm32h5xx_hal_rtc_ex.c ****   /* Prevent unused argument(s) compilation warning */
1714:Drivers/STM32H5xx_HAL_Driver/Src/stm32h5xx_hal_rtc_ex.c ****   UNUSED(hrtc);
 2801              		.loc 1 1714 3 view .LVU876
1715:Drivers/STM32H5xx_HAL_Driver/Src/stm32h5xx_hal_rtc_ex.c **** 
1716:Drivers/STM32H5xx_HAL_Driver/Src/stm32h5xx_hal_rtc_ex.c ****   assert_param(IS_RTC_TAMPER(Tamper));
 2802              		.loc 1 1716 3 view .LVU877
1717:Drivers/STM32H5xx_HAL_Driver/Src/stm32h5xx_hal_rtc_ex.c **** 
1718:Drivers/STM32H5xx_HAL_Driver/Src/stm32h5xx_hal_rtc_ex.c ****   /* Disable the selected Tamper pin */
1719:Drivers/STM32H5xx_HAL_Driver/Src/stm32h5xx_hal_rtc_ex.c ****   CLEAR_BIT(TAMP->CR1, Tamper);
 2803              		.loc 1 1719 3 view .LVU878
 2804 0000 094B     		ldr	r3, .L216
 2805 0002 1A68     		ldr	r2, [r3]
 2806 0004 22EA0102 		bic	r2, r2, r1
 2807 0008 1A60     		str	r2, [r3]
1720:Drivers/STM32H5xx_HAL_Driver/Src/stm32h5xx_hal_rtc_ex.c **** 
1721:Drivers/STM32H5xx_HAL_Driver/Src/stm32h5xx_hal_rtc_ex.c ****   /* Clear tamper interrupt and event flags (WO register) */
1722:Drivers/STM32H5xx_HAL_Driver/Src/stm32h5xx_hal_rtc_ex.c ****   WRITE_REG(TAMP->SCR, Tamper);
 2808              		.loc 1 1722 3 view .LVU879
 2809 000a D963     		str	r1, [r3, #60]
1723:Drivers/STM32H5xx_HAL_Driver/Src/stm32h5xx_hal_rtc_ex.c **** 
1724:Drivers/STM32H5xx_HAL_Driver/Src/stm32h5xx_hal_rtc_ex.c ****   /* Clear tamper mask/noerase/trigger configuration */
1725:Drivers/STM32H5xx_HAL_Driver/Src/stm32h5xx_hal_rtc_ex.c ****   CLEAR_BIT(TAMP->CR2, (Tamper << TAMP_CR2_TAMP1TRG_Pos) | (Tamper << TAMP_CR2_TAMP1MSK_Pos) | \
 2810              		.loc 1 1725 3 view .LVU880
 2811 000c 5868     		ldr	r0, [r3, #4]
 2812              	.LVL189:
 2813              		.loc 1 1725 3 is_stmt 0 view .LVU881
 2814 000e 0A04     		lsls	r2, r1, #16
 2815 0010 42EA0162 		orr	r2, r2, r1, lsl #24
 2816 0014 0A43     		orrs	r2, r2, r1
 2817 0016 20EA0202 		bic	r2, r0, r2
 2818 001a 5A60     		str	r2, [r3, #4]
1726:Drivers/STM32H5xx_HAL_Driver/Src/stm32h5xx_hal_rtc_ex.c ****             (Tamper << TAMP_CR2_TAMP1NOERASE_Pos));
1727:Drivers/STM32H5xx_HAL_Driver/Src/stm32h5xx_hal_rtc_ex.c **** 
1728:Drivers/STM32H5xx_HAL_Driver/Src/stm32h5xx_hal_rtc_ex.c ****   /* Clear tamper interrupt mode configuration */
1729:Drivers/STM32H5xx_HAL_Driver/Src/stm32h5xx_hal_rtc_ex.c ****   CLEAR_BIT(TAMP->IER, Tamper);
 2819              		.loc 1 1729 3 is_stmt 1 view .LVU882
 2820 001c DA6A     		ldr	r2, [r3, #44]
 2821 001e 22EA0102 		bic	r2, r2, r1
 2822 0022 DA62     		str	r2, [r3, #44]
1730:Drivers/STM32H5xx_HAL_Driver/Src/stm32h5xx_hal_rtc_ex.c **** 
1731:Drivers/STM32H5xx_HAL_Driver/Src/stm32h5xx_hal_rtc_ex.c ****   return HAL_OK;
 2823              		.loc 1 1731 3 view .LVU883
1732:Drivers/STM32H5xx_HAL_Driver/Src/stm32h5xx_hal_rtc_ex.c **** }
 2824              		.loc 1 1732 1 is_stmt 0 view .LVU884
 2825 0024 0020     		movs	r0, #0
 2826 0026 7047     		bx	lr
 2827              	.L217:
 2828              		.align	2
 2829              	.L216:
 2830 0028 007C0044 		.word	1140882432
 2831              		.cfi_endproc
ARM GAS  C:\Users\DELL\AppData\Local\Temp\ccMtHSyM.s 			page 83


 2832              	.LFE332:
 2834              		.section	.text.HAL_RTCEx_SetActiveSeed,"ax",%progbits
 2835              		.align	1
 2836              		.global	HAL_RTCEx_SetActiveSeed
 2837              		.syntax unified
 2838              		.thumb
 2839              		.thumb_func
 2841              	HAL_RTCEx_SetActiveSeed:
 2842              	.LVL190:
 2843              	.LFB334:
1733:Drivers/STM32H5xx_HAL_Driver/Src/stm32h5xx_hal_rtc_ex.c **** 
1734:Drivers/STM32H5xx_HAL_Driver/Src/stm32h5xx_hal_rtc_ex.c **** /**
1735:Drivers/STM32H5xx_HAL_Driver/Src/stm32h5xx_hal_rtc_ex.c ****   * @brief  Set all active Tampers at the same time.
1736:Drivers/STM32H5xx_HAL_Driver/Src/stm32h5xx_hal_rtc_ex.c ****   * @note   For interrupt mode, the application must ensure that the EXTI TAMP interrupt line is en
1737:Drivers/STM32H5xx_HAL_Driver/Src/stm32h5xx_hal_rtc_ex.c ****   * @param  hrtc RTC handle
1738:Drivers/STM32H5xx_HAL_Driver/Src/stm32h5xx_hal_rtc_ex.c ****   * @param  sAllTamper Pointer to active Tamper Structure.
1739:Drivers/STM32H5xx_HAL_Driver/Src/stm32h5xx_hal_rtc_ex.c ****   * @retval HAL status
1740:Drivers/STM32H5xx_HAL_Driver/Src/stm32h5xx_hal_rtc_ex.c ****   */
1741:Drivers/STM32H5xx_HAL_Driver/Src/stm32h5xx_hal_rtc_ex.c **** HAL_StatusTypeDef HAL_RTCEx_SetActiveTampers(RTC_HandleTypeDef *hrtc, const RTC_ActiveTampersTypeDe
1742:Drivers/STM32H5xx_HAL_Driver/Src/stm32h5xx_hal_rtc_ex.c **** {
1743:Drivers/STM32H5xx_HAL_Driver/Src/stm32h5xx_hal_rtc_ex.c ****   uint32_t tmp_ier;
1744:Drivers/STM32H5xx_HAL_Driver/Src/stm32h5xx_hal_rtc_ex.c ****   uint32_t tmp_cr1;
1745:Drivers/STM32H5xx_HAL_Driver/Src/stm32h5xx_hal_rtc_ex.c ****   uint32_t tmp_cr2;
1746:Drivers/STM32H5xx_HAL_Driver/Src/stm32h5xx_hal_rtc_ex.c ****   uint32_t tmp_atcr1;
1747:Drivers/STM32H5xx_HAL_Driver/Src/stm32h5xx_hal_rtc_ex.c ****   uint32_t tmp_atcr2;
1748:Drivers/STM32H5xx_HAL_Driver/Src/stm32h5xx_hal_rtc_ex.c ****   uint32_t tmp_cr;
1749:Drivers/STM32H5xx_HAL_Driver/Src/stm32h5xx_hal_rtc_ex.c ****   uint32_t i;
1750:Drivers/STM32H5xx_HAL_Driver/Src/stm32h5xx_hal_rtc_ex.c ****   uint32_t tickstart;
1751:Drivers/STM32H5xx_HAL_Driver/Src/stm32h5xx_hal_rtc_ex.c **** 
1752:Drivers/STM32H5xx_HAL_Driver/Src/stm32h5xx_hal_rtc_ex.c **** #ifdef  USE_FULL_ASSERT
1753:Drivers/STM32H5xx_HAL_Driver/Src/stm32h5xx_hal_rtc_ex.c ****   for (i = 0; i < RTC_TAMP_NB; i++)
1754:Drivers/STM32H5xx_HAL_Driver/Src/stm32h5xx_hal_rtc_ex.c ****   {
1755:Drivers/STM32H5xx_HAL_Driver/Src/stm32h5xx_hal_rtc_ex.c ****     assert_param(IS_RTC_TAMPER_ERASE_MODE(sAllTamper->TampInput[i].NoErase));
1756:Drivers/STM32H5xx_HAL_Driver/Src/stm32h5xx_hal_rtc_ex.c ****     assert_param(IS_RTC_TAMPER_MASKFLAG_STATE(sAllTamper->TampInput[i].MaskFlag));
1757:Drivers/STM32H5xx_HAL_Driver/Src/stm32h5xx_hal_rtc_ex.c ****     /* Mask flag only supported by TAMPER 1, 2 and 3 */
1758:Drivers/STM32H5xx_HAL_Driver/Src/stm32h5xx_hal_rtc_ex.c ****     assert_param(!((sAllTamper->TampInput[i].MaskFlag == RTC_TAMPERMASK_FLAG_ENABLE) &&
1759:Drivers/STM32H5xx_HAL_Driver/Src/stm32h5xx_hal_rtc_ex.c ****                    (i >= RTC_TAMPER_MASKABLE_NB)));
1760:Drivers/STM32H5xx_HAL_Driver/Src/stm32h5xx_hal_rtc_ex.c ****   }
1761:Drivers/STM32H5xx_HAL_Driver/Src/stm32h5xx_hal_rtc_ex.c ****   assert_param(IS_RTC_TAMPER_TIMESTAMPONTAMPER_DETECTION(sAllTamper->TimeStampOnTamperDetection));
1762:Drivers/STM32H5xx_HAL_Driver/Src/stm32h5xx_hal_rtc_ex.c ****   assert_param(IS_RTC_ATAMPER_FILTER(sAllTamper->ActiveFilter));
1763:Drivers/STM32H5xx_HAL_Driver/Src/stm32h5xx_hal_rtc_ex.c ****   assert_param(IS_RTC_ATAMPER_OUTPUT_CHANGE_PERIOD(sAllTamper->ActiveOutputChangePeriod));
1764:Drivers/STM32H5xx_HAL_Driver/Src/stm32h5xx_hal_rtc_ex.c ****   assert_param(IS_RTC_ATAMPER_ASYNCPRES_RTCCLK(sAllTamper->ActiveAsyncPrescaler));
1765:Drivers/STM32H5xx_HAL_Driver/Src/stm32h5xx_hal_rtc_ex.c **** #endif /* USE_FULL_ASSERT */
1766:Drivers/STM32H5xx_HAL_Driver/Src/stm32h5xx_hal_rtc_ex.c **** 
1767:Drivers/STM32H5xx_HAL_Driver/Src/stm32h5xx_hal_rtc_ex.c ****   /* Active Tampers must not be already enabled */
1768:Drivers/STM32H5xx_HAL_Driver/Src/stm32h5xx_hal_rtc_ex.c ****   if (READ_BIT(TAMP->ATOR, TAMP_ATOR_INITS) != 0U)
1769:Drivers/STM32H5xx_HAL_Driver/Src/stm32h5xx_hal_rtc_ex.c ****   {
1770:Drivers/STM32H5xx_HAL_Driver/Src/stm32h5xx_hal_rtc_ex.c ****     /* Disable all actives tampers with HAL_RTCEx_DeactivateActiveTampers.
1771:Drivers/STM32H5xx_HAL_Driver/Src/stm32h5xx_hal_rtc_ex.c ****        No need to check return value because it returns always HAL_OK */
1772:Drivers/STM32H5xx_HAL_Driver/Src/stm32h5xx_hal_rtc_ex.c ****     (void) HAL_RTCEx_DeactivateActiveTampers(hrtc);
1773:Drivers/STM32H5xx_HAL_Driver/Src/stm32h5xx_hal_rtc_ex.c ****   }
1774:Drivers/STM32H5xx_HAL_Driver/Src/stm32h5xx_hal_rtc_ex.c **** 
1775:Drivers/STM32H5xx_HAL_Driver/Src/stm32h5xx_hal_rtc_ex.c ****   /* Set TimeStamp on tamper detection */
1776:Drivers/STM32H5xx_HAL_Driver/Src/stm32h5xx_hal_rtc_ex.c ****   tmp_cr = READ_REG(RTC->CR);
1777:Drivers/STM32H5xx_HAL_Driver/Src/stm32h5xx_hal_rtc_ex.c ****   if ((tmp_cr & RTC_CR_TAMPTS) != (sAllTamper->TimeStampOnTamperDetection))
1778:Drivers/STM32H5xx_HAL_Driver/Src/stm32h5xx_hal_rtc_ex.c ****   {
1779:Drivers/STM32H5xx_HAL_Driver/Src/stm32h5xx_hal_rtc_ex.c ****     MODIFY_REG(RTC->CR, RTC_CR_TAMPTS, sAllTamper->TimeStampOnTamperDetection);
ARM GAS  C:\Users\DELL\AppData\Local\Temp\ccMtHSyM.s 			page 84


1780:Drivers/STM32H5xx_HAL_Driver/Src/stm32h5xx_hal_rtc_ex.c ****   }
1781:Drivers/STM32H5xx_HAL_Driver/Src/stm32h5xx_hal_rtc_ex.c **** 
1782:Drivers/STM32H5xx_HAL_Driver/Src/stm32h5xx_hal_rtc_ex.c ****   tmp_cr1 = READ_REG(TAMP->CR1);
1783:Drivers/STM32H5xx_HAL_Driver/Src/stm32h5xx_hal_rtc_ex.c ****   tmp_cr2 = READ_REG(TAMP->CR2);
1784:Drivers/STM32H5xx_HAL_Driver/Src/stm32h5xx_hal_rtc_ex.c ****   tmp_atcr2 = 0U;
1785:Drivers/STM32H5xx_HAL_Driver/Src/stm32h5xx_hal_rtc_ex.c ****   tmp_ier = READ_REG(TAMP->IER);
1786:Drivers/STM32H5xx_HAL_Driver/Src/stm32h5xx_hal_rtc_ex.c **** 
1787:Drivers/STM32H5xx_HAL_Driver/Src/stm32h5xx_hal_rtc_ex.c ****   /* Set common parameters */
1788:Drivers/STM32H5xx_HAL_Driver/Src/stm32h5xx_hal_rtc_ex.c ****   tmp_atcr1 = (sAllTamper->ActiveFilter | (sAllTamper->ActiveOutputChangePeriod << TAMP_ATCR1_ATPER
1789:Drivers/STM32H5xx_HAL_Driver/Src/stm32h5xx_hal_rtc_ex.c ****                sAllTamper->ActiveAsyncPrescaler);
1790:Drivers/STM32H5xx_HAL_Driver/Src/stm32h5xx_hal_rtc_ex.c **** 
1791:Drivers/STM32H5xx_HAL_Driver/Src/stm32h5xx_hal_rtc_ex.c ****   /* Set specific parameters for each active tamper inputs if enable */
1792:Drivers/STM32H5xx_HAL_Driver/Src/stm32h5xx_hal_rtc_ex.c ****   for (i = 0; i < RTC_TAMP_NB; i++)
1793:Drivers/STM32H5xx_HAL_Driver/Src/stm32h5xx_hal_rtc_ex.c ****   {
1794:Drivers/STM32H5xx_HAL_Driver/Src/stm32h5xx_hal_rtc_ex.c ****     if (sAllTamper->TampInput[i].Enable != RTC_ATAMP_DISABLE)
1795:Drivers/STM32H5xx_HAL_Driver/Src/stm32h5xx_hal_rtc_ex.c ****     {
1796:Drivers/STM32H5xx_HAL_Driver/Src/stm32h5xx_hal_rtc_ex.c ****       tmp_cr1 |= (TAMP_CR1_TAMP1E << i);
1797:Drivers/STM32H5xx_HAL_Driver/Src/stm32h5xx_hal_rtc_ex.c ****       tmp_atcr1 |= (TAMP_ATCR1_TAMP1AM << i);
1798:Drivers/STM32H5xx_HAL_Driver/Src/stm32h5xx_hal_rtc_ex.c **** 
1799:Drivers/STM32H5xx_HAL_Driver/Src/stm32h5xx_hal_rtc_ex.c ****       if (sAllTamper->TampInput[i].Interrupt != RTC_ATAMP_INTERRUPT_DISABLE)
1800:Drivers/STM32H5xx_HAL_Driver/Src/stm32h5xx_hal_rtc_ex.c ****       {
1801:Drivers/STM32H5xx_HAL_Driver/Src/stm32h5xx_hal_rtc_ex.c ****         /* Interrupt enable register */
1802:Drivers/STM32H5xx_HAL_Driver/Src/stm32h5xx_hal_rtc_ex.c ****         tmp_ier |= (TAMP_IER_TAMP1IE << i);
1803:Drivers/STM32H5xx_HAL_Driver/Src/stm32h5xx_hal_rtc_ex.c ****       }
1804:Drivers/STM32H5xx_HAL_Driver/Src/stm32h5xx_hal_rtc_ex.c **** 
1805:Drivers/STM32H5xx_HAL_Driver/Src/stm32h5xx_hal_rtc_ex.c ****       if (sAllTamper->TampInput[i].MaskFlag != RTC_TAMPERMASK_FLAG_DISABLE)
1806:Drivers/STM32H5xx_HAL_Driver/Src/stm32h5xx_hal_rtc_ex.c ****       {
1807:Drivers/STM32H5xx_HAL_Driver/Src/stm32h5xx_hal_rtc_ex.c ****         tmp_cr2 |= (TAMP_CR2_TAMP1MSK << i);
1808:Drivers/STM32H5xx_HAL_Driver/Src/stm32h5xx_hal_rtc_ex.c ****       }
1809:Drivers/STM32H5xx_HAL_Driver/Src/stm32h5xx_hal_rtc_ex.c **** 
1810:Drivers/STM32H5xx_HAL_Driver/Src/stm32h5xx_hal_rtc_ex.c ****       if (sAllTamper->TampInput[i].NoErase != RTC_TAMPER_ERASE_BACKUP_ENABLE)
1811:Drivers/STM32H5xx_HAL_Driver/Src/stm32h5xx_hal_rtc_ex.c ****       {
1812:Drivers/STM32H5xx_HAL_Driver/Src/stm32h5xx_hal_rtc_ex.c ****         tmp_cr2 |= (TAMP_CR2_TAMP1NOERASE << i);
1813:Drivers/STM32H5xx_HAL_Driver/Src/stm32h5xx_hal_rtc_ex.c ****       }
1814:Drivers/STM32H5xx_HAL_Driver/Src/stm32h5xx_hal_rtc_ex.c **** 
1815:Drivers/STM32H5xx_HAL_Driver/Src/stm32h5xx_hal_rtc_ex.c ****       /* Configure ATOSELx[] in case of output sharing */
1816:Drivers/STM32H5xx_HAL_Driver/Src/stm32h5xx_hal_rtc_ex.c ****       tmp_atcr2 |= sAllTamper->TampInput[i].Output << ((3U * i) + TAMP_ATCR2_ATOSEL1_Pos);
1817:Drivers/STM32H5xx_HAL_Driver/Src/stm32h5xx_hal_rtc_ex.c **** 
1818:Drivers/STM32H5xx_HAL_Driver/Src/stm32h5xx_hal_rtc_ex.c ****       if (i != sAllTamper->TampInput[i].Output)
1819:Drivers/STM32H5xx_HAL_Driver/Src/stm32h5xx_hal_rtc_ex.c ****       {
1820:Drivers/STM32H5xx_HAL_Driver/Src/stm32h5xx_hal_rtc_ex.c ****         tmp_atcr1 |= TAMP_ATCR1_ATOSHARE;
1821:Drivers/STM32H5xx_HAL_Driver/Src/stm32h5xx_hal_rtc_ex.c ****       }
1822:Drivers/STM32H5xx_HAL_Driver/Src/stm32h5xx_hal_rtc_ex.c ****     }
1823:Drivers/STM32H5xx_HAL_Driver/Src/stm32h5xx_hal_rtc_ex.c ****   }
1824:Drivers/STM32H5xx_HAL_Driver/Src/stm32h5xx_hal_rtc_ex.c **** 
1825:Drivers/STM32H5xx_HAL_Driver/Src/stm32h5xx_hal_rtc_ex.c ****   WRITE_REG(TAMP->IER, tmp_ier);
1826:Drivers/STM32H5xx_HAL_Driver/Src/stm32h5xx_hal_rtc_ex.c ****   WRITE_REG(TAMP->ATCR1, tmp_atcr1);
1827:Drivers/STM32H5xx_HAL_Driver/Src/stm32h5xx_hal_rtc_ex.c ****   WRITE_REG(TAMP->ATCR2, tmp_atcr2);
1828:Drivers/STM32H5xx_HAL_Driver/Src/stm32h5xx_hal_rtc_ex.c ****   WRITE_REG(TAMP->CR2, tmp_cr2);
1829:Drivers/STM32H5xx_HAL_Driver/Src/stm32h5xx_hal_rtc_ex.c ****   WRITE_REG(TAMP->CR1, tmp_cr1);
1830:Drivers/STM32H5xx_HAL_Driver/Src/stm32h5xx_hal_rtc_ex.c **** 
1831:Drivers/STM32H5xx_HAL_Driver/Src/stm32h5xx_hal_rtc_ex.c ****   /* Write seed */
1832:Drivers/STM32H5xx_HAL_Driver/Src/stm32h5xx_hal_rtc_ex.c ****   for (i = 0; i < RTC_ATAMP_SEED_NB_UINT32; i++)
1833:Drivers/STM32H5xx_HAL_Driver/Src/stm32h5xx_hal_rtc_ex.c ****   {
1834:Drivers/STM32H5xx_HAL_Driver/Src/stm32h5xx_hal_rtc_ex.c ****     WRITE_REG(TAMP->ATSEEDR, sAllTamper->Seed[i]);
1835:Drivers/STM32H5xx_HAL_Driver/Src/stm32h5xx_hal_rtc_ex.c ****   }
1836:Drivers/STM32H5xx_HAL_Driver/Src/stm32h5xx_hal_rtc_ex.c **** 
ARM GAS  C:\Users\DELL\AppData\Local\Temp\ccMtHSyM.s 			page 85


1837:Drivers/STM32H5xx_HAL_Driver/Src/stm32h5xx_hal_rtc_ex.c ****   /* Wait till RTC SEEDF flag is cleared and if Time out is reached exit */
1838:Drivers/STM32H5xx_HAL_Driver/Src/stm32h5xx_hal_rtc_ex.c ****   tickstart = HAL_GetTick();
1839:Drivers/STM32H5xx_HAL_Driver/Src/stm32h5xx_hal_rtc_ex.c ****   while (READ_BIT(TAMP->ATOR,  TAMP_ATOR_SEEDF) != 0U)
1840:Drivers/STM32H5xx_HAL_Driver/Src/stm32h5xx_hal_rtc_ex.c ****   {
1841:Drivers/STM32H5xx_HAL_Driver/Src/stm32h5xx_hal_rtc_ex.c ****     if ((HAL_GetTick() - tickstart) > RTC_TIMEOUT_VALUE)
1842:Drivers/STM32H5xx_HAL_Driver/Src/stm32h5xx_hal_rtc_ex.c ****     {
1843:Drivers/STM32H5xx_HAL_Driver/Src/stm32h5xx_hal_rtc_ex.c ****       /* New check to avoid false timeout detection in case of preemption */
1844:Drivers/STM32H5xx_HAL_Driver/Src/stm32h5xx_hal_rtc_ex.c ****       if (READ_BIT(TAMP->ATOR, TAMP_ATOR_SEEDF) != 0U)
1845:Drivers/STM32H5xx_HAL_Driver/Src/stm32h5xx_hal_rtc_ex.c ****       {
1846:Drivers/STM32H5xx_HAL_Driver/Src/stm32h5xx_hal_rtc_ex.c ****         /* Change RTC state */
1847:Drivers/STM32H5xx_HAL_Driver/Src/stm32h5xx_hal_rtc_ex.c ****         hrtc->State = HAL_RTC_STATE_TIMEOUT;
1848:Drivers/STM32H5xx_HAL_Driver/Src/stm32h5xx_hal_rtc_ex.c **** 
1849:Drivers/STM32H5xx_HAL_Driver/Src/stm32h5xx_hal_rtc_ex.c ****         return HAL_TIMEOUT;
1850:Drivers/STM32H5xx_HAL_Driver/Src/stm32h5xx_hal_rtc_ex.c ****       }
1851:Drivers/STM32H5xx_HAL_Driver/Src/stm32h5xx_hal_rtc_ex.c ****       else
1852:Drivers/STM32H5xx_HAL_Driver/Src/stm32h5xx_hal_rtc_ex.c ****       {
1853:Drivers/STM32H5xx_HAL_Driver/Src/stm32h5xx_hal_rtc_ex.c ****         break;
1854:Drivers/STM32H5xx_HAL_Driver/Src/stm32h5xx_hal_rtc_ex.c ****       }
1855:Drivers/STM32H5xx_HAL_Driver/Src/stm32h5xx_hal_rtc_ex.c ****     }
1856:Drivers/STM32H5xx_HAL_Driver/Src/stm32h5xx_hal_rtc_ex.c ****   }
1857:Drivers/STM32H5xx_HAL_Driver/Src/stm32h5xx_hal_rtc_ex.c **** 
1858:Drivers/STM32H5xx_HAL_Driver/Src/stm32h5xx_hal_rtc_ex.c ****   return HAL_OK;
1859:Drivers/STM32H5xx_HAL_Driver/Src/stm32h5xx_hal_rtc_ex.c **** }
1860:Drivers/STM32H5xx_HAL_Driver/Src/stm32h5xx_hal_rtc_ex.c **** 
1861:Drivers/STM32H5xx_HAL_Driver/Src/stm32h5xx_hal_rtc_ex.c **** /**
1862:Drivers/STM32H5xx_HAL_Driver/Src/stm32h5xx_hal_rtc_ex.c ****   * @brief  Write a new seed. Active tamper must be enabled.
1863:Drivers/STM32H5xx_HAL_Driver/Src/stm32h5xx_hal_rtc_ex.c ****   * @param  hrtc RTC handle
1864:Drivers/STM32H5xx_HAL_Driver/Src/stm32h5xx_hal_rtc_ex.c ****   * @param  pSeed Pointer to active tamper seed values.
1865:Drivers/STM32H5xx_HAL_Driver/Src/stm32h5xx_hal_rtc_ex.c ****   * @retval HAL status
1866:Drivers/STM32H5xx_HAL_Driver/Src/stm32h5xx_hal_rtc_ex.c ****   */
1867:Drivers/STM32H5xx_HAL_Driver/Src/stm32h5xx_hal_rtc_ex.c **** HAL_StatusTypeDef HAL_RTCEx_SetActiveSeed(RTC_HandleTypeDef *hrtc, const uint32_t *pSeed)
1868:Drivers/STM32H5xx_HAL_Driver/Src/stm32h5xx_hal_rtc_ex.c **** {
 2844              		.loc 1 1868 1 is_stmt 1 view -0
 2845              		.cfi_startproc
 2846              		@ args = 0, pretend = 0, frame = 0
 2847              		@ frame_needed = 0, uses_anonymous_args = 0
 2848              		.loc 1 1868 1 is_stmt 0 view .LVU886
 2849 0000 38B5     		push	{r3, r4, r5, lr}
 2850              	.LCFI14:
 2851              		.cfi_def_cfa_offset 16
 2852              		.cfi_offset 3, -16
 2853              		.cfi_offset 4, -12
 2854              		.cfi_offset 5, -8
 2855              		.cfi_offset 14, -4
1869:Drivers/STM32H5xx_HAL_Driver/Src/stm32h5xx_hal_rtc_ex.c ****   uint32_t i;
 2856              		.loc 1 1869 3 is_stmt 1 view .LVU887
1870:Drivers/STM32H5xx_HAL_Driver/Src/stm32h5xx_hal_rtc_ex.c ****   uint32_t tickstart;
 2857              		.loc 1 1870 3 view .LVU888
1871:Drivers/STM32H5xx_HAL_Driver/Src/stm32h5xx_hal_rtc_ex.c **** 
1872:Drivers/STM32H5xx_HAL_Driver/Src/stm32h5xx_hal_rtc_ex.c ****   /* Active Tampers must be enabled */
1873:Drivers/STM32H5xx_HAL_Driver/Src/stm32h5xx_hal_rtc_ex.c ****   if (READ_BIT(TAMP->ATOR,  TAMP_ATOR_INITS) == 0U)
 2858              		.loc 1 1873 3 view .LVU889
 2859              		.loc 1 1873 7 is_stmt 0 view .LVU890
 2860 0002 164B     		ldr	r3, .L229
 2861 0004 9B69     		ldr	r3, [r3, #24]
 2862              		.loc 1 1873 6 view .LVU891
 2863 0006 13F4004F 		tst	r3, #32768
ARM GAS  C:\Users\DELL\AppData\Local\Temp\ccMtHSyM.s 			page 86


 2864 000a 24D0     		beq	.L224
 2865 000c 0546     		mov	r5, r0
1874:Drivers/STM32H5xx_HAL_Driver/Src/stm32h5xx_hal_rtc_ex.c ****   {
1875:Drivers/STM32H5xx_HAL_Driver/Src/stm32h5xx_hal_rtc_ex.c ****     return HAL_ERROR;
1876:Drivers/STM32H5xx_HAL_Driver/Src/stm32h5xx_hal_rtc_ex.c ****   }
1877:Drivers/STM32H5xx_HAL_Driver/Src/stm32h5xx_hal_rtc_ex.c **** 
1878:Drivers/STM32H5xx_HAL_Driver/Src/stm32h5xx_hal_rtc_ex.c ****   for (i = 0; i < RTC_ATAMP_SEED_NB_UINT32; i++)
 2866              		.loc 1 1878 10 view .LVU892
 2867 000e 0023     		movs	r3, #0
 2868 0010 04E0     		b	.L220
 2869              	.LVL191:
 2870              	.L221:
1879:Drivers/STM32H5xx_HAL_Driver/Src/stm32h5xx_hal_rtc_ex.c ****   {
1880:Drivers/STM32H5xx_HAL_Driver/Src/stm32h5xx_hal_rtc_ex.c ****     WRITE_REG(TAMP->ATSEEDR, pSeed[i]);
 2871              		.loc 1 1880 5 is_stmt 1 view .LVU893
 2872 0012 51F82300 		ldr	r0, [r1, r3, lsl #2]
 2873 0016 114A     		ldr	r2, .L229
 2874 0018 5061     		str	r0, [r2, #20]
1878:Drivers/STM32H5xx_HAL_Driver/Src/stm32h5xx_hal_rtc_ex.c ****   {
 2875              		.loc 1 1878 46 discriminator 3 view .LVU894
 2876 001a 0133     		adds	r3, r3, #1
 2877              	.LVL192:
 2878              	.L220:
1878:Drivers/STM32H5xx_HAL_Driver/Src/stm32h5xx_hal_rtc_ex.c ****   {
 2879              		.loc 1 1878 17 discriminator 1 view .LVU895
 2880 001c 032B     		cmp	r3, #3
 2881 001e F8D9     		bls	.L221
1881:Drivers/STM32H5xx_HAL_Driver/Src/stm32h5xx_hal_rtc_ex.c ****   }
1882:Drivers/STM32H5xx_HAL_Driver/Src/stm32h5xx_hal_rtc_ex.c **** 
1883:Drivers/STM32H5xx_HAL_Driver/Src/stm32h5xx_hal_rtc_ex.c ****   /* Wait till RTC SEEDF flag is cleared and if Time out is reached exit */
1884:Drivers/STM32H5xx_HAL_Driver/Src/stm32h5xx_hal_rtc_ex.c ****   tickstart = HAL_GetTick();
 2882              		.loc 1 1884 3 view .LVU896
 2883              		.loc 1 1884 15 is_stmt 0 view .LVU897
 2884 0020 FFF7FEFF 		bl	HAL_GetTick
 2885              	.LVL193:
 2886              		.loc 1 1884 15 view .LVU898
 2887 0024 0446     		mov	r4, r0
 2888              	.LVL194:
1885:Drivers/STM32H5xx_HAL_Driver/Src/stm32h5xx_hal_rtc_ex.c ****   while (READ_BIT(TAMP->ATOR,  TAMP_ATOR_SEEDF) != 0U)
 2889              		.loc 1 1885 3 is_stmt 1 view .LVU899
 2890              	.L222:
 2891              		.loc 1 1885 49 view .LVU900
 2892              		.loc 1 1885 10 is_stmt 0 view .LVU901
 2893 0026 0D4B     		ldr	r3, .L229
 2894 0028 9B69     		ldr	r3, [r3, #24]
 2895              		.loc 1 1885 49 view .LVU902
 2896 002a 13F4804F 		tst	r3, #16384
 2897 002e 10D0     		beq	.L227
1886:Drivers/STM32H5xx_HAL_Driver/Src/stm32h5xx_hal_rtc_ex.c ****   {
1887:Drivers/STM32H5xx_HAL_Driver/Src/stm32h5xx_hal_rtc_ex.c ****     if ((HAL_GetTick() - tickstart) > RTC_TIMEOUT_VALUE)
 2898              		.loc 1 1887 5 is_stmt 1 view .LVU903
 2899              		.loc 1 1887 10 is_stmt 0 view .LVU904
 2900 0030 FFF7FEFF 		bl	HAL_GetTick
 2901              	.LVL195:
 2902              		.loc 1 1887 24 discriminator 1 view .LVU905
 2903 0034 031B     		subs	r3, r0, r4
 2904              		.loc 1 1887 8 discriminator 1 view .LVU906
ARM GAS  C:\Users\DELL\AppData\Local\Temp\ccMtHSyM.s 			page 87


 2905 0036 B3F57A7F 		cmp	r3, #1000
 2906 003a F4D9     		bls	.L222
1888:Drivers/STM32H5xx_HAL_Driver/Src/stm32h5xx_hal_rtc_ex.c ****     {
1889:Drivers/STM32H5xx_HAL_Driver/Src/stm32h5xx_hal_rtc_ex.c ****       /* New check to avoid false timeout detection in case of preemption */
1890:Drivers/STM32H5xx_HAL_Driver/Src/stm32h5xx_hal_rtc_ex.c ****       if (READ_BIT(TAMP->ATOR, TAMP_ATOR_SEEDF) != 0U)
 2907              		.loc 1 1890 7 is_stmt 1 view .LVU907
 2908              		.loc 1 1890 11 is_stmt 0 view .LVU908
 2909 003c 074B     		ldr	r3, .L229
 2910 003e 9B69     		ldr	r3, [r3, #24]
 2911              		.loc 1 1890 10 view .LVU909
 2912 0040 13F4804F 		tst	r3, #16384
 2913 0044 01D1     		bne	.L228
1891:Drivers/STM32H5xx_HAL_Driver/Src/stm32h5xx_hal_rtc_ex.c ****       {
1892:Drivers/STM32H5xx_HAL_Driver/Src/stm32h5xx_hal_rtc_ex.c ****         /* Change RTC state */
1893:Drivers/STM32H5xx_HAL_Driver/Src/stm32h5xx_hal_rtc_ex.c ****         hrtc->State = HAL_RTC_STATE_TIMEOUT;
1894:Drivers/STM32H5xx_HAL_Driver/Src/stm32h5xx_hal_rtc_ex.c **** 
1895:Drivers/STM32H5xx_HAL_Driver/Src/stm32h5xx_hal_rtc_ex.c ****         return HAL_TIMEOUT;
1896:Drivers/STM32H5xx_HAL_Driver/Src/stm32h5xx_hal_rtc_ex.c ****       }
1897:Drivers/STM32H5xx_HAL_Driver/Src/stm32h5xx_hal_rtc_ex.c ****       else
1898:Drivers/STM32H5xx_HAL_Driver/Src/stm32h5xx_hal_rtc_ex.c ****       {
1899:Drivers/STM32H5xx_HAL_Driver/Src/stm32h5xx_hal_rtc_ex.c ****         break;
1900:Drivers/STM32H5xx_HAL_Driver/Src/stm32h5xx_hal_rtc_ex.c ****       }
1901:Drivers/STM32H5xx_HAL_Driver/Src/stm32h5xx_hal_rtc_ex.c ****     }
1902:Drivers/STM32H5xx_HAL_Driver/Src/stm32h5xx_hal_rtc_ex.c ****   }
1903:Drivers/STM32H5xx_HAL_Driver/Src/stm32h5xx_hal_rtc_ex.c **** 
1904:Drivers/STM32H5xx_HAL_Driver/Src/stm32h5xx_hal_rtc_ex.c ****   return HAL_OK;
 2914              		.loc 1 1904 10 view .LVU910
 2915 0046 0020     		movs	r0, #0
 2916 0048 06E0     		b	.L219
 2917              	.L228:
1893:Drivers/STM32H5xx_HAL_Driver/Src/stm32h5xx_hal_rtc_ex.c **** 
 2918              		.loc 1 1893 9 is_stmt 1 view .LVU911
1893:Drivers/STM32H5xx_HAL_Driver/Src/stm32h5xx_hal_rtc_ex.c **** 
 2919              		.loc 1 1893 21 is_stmt 0 view .LVU912
 2920 004a 0320     		movs	r0, #3
 2921 004c 85F82D00 		strb	r0, [r5, #45]
1895:Drivers/STM32H5xx_HAL_Driver/Src/stm32h5xx_hal_rtc_ex.c ****       }
 2922              		.loc 1 1895 9 is_stmt 1 view .LVU913
1895:Drivers/STM32H5xx_HAL_Driver/Src/stm32h5xx_hal_rtc_ex.c ****       }
 2923              		.loc 1 1895 16 is_stmt 0 view .LVU914
 2924 0050 02E0     		b	.L219
 2925              	.L227:
 2926              		.loc 1 1904 10 view .LVU915
 2927 0052 0020     		movs	r0, #0
 2928 0054 00E0     		b	.L219
 2929              	.LVL196:
 2930              	.L224:
1875:Drivers/STM32H5xx_HAL_Driver/Src/stm32h5xx_hal_rtc_ex.c ****   }
 2931              		.loc 1 1875 12 view .LVU916
 2932 0056 0120     		movs	r0, #1
 2933              	.LVL197:
 2934              	.L219:
1905:Drivers/STM32H5xx_HAL_Driver/Src/stm32h5xx_hal_rtc_ex.c **** }
 2935              		.loc 1 1905 1 view .LVU917
 2936 0058 38BD     		pop	{r3, r4, r5, pc}
 2937              	.L230:
 2938 005a 00BF     		.align	2
ARM GAS  C:\Users\DELL\AppData\Local\Temp\ccMtHSyM.s 			page 88


 2939              	.L229:
 2940 005c 007C0044 		.word	1140882432
 2941              		.cfi_endproc
 2942              	.LFE334:
 2944              		.section	.text.HAL_RTCEx_LockBootHardwareKey,"ax",%progbits
 2945              		.align	1
 2946              		.global	HAL_RTCEx_LockBootHardwareKey
 2947              		.syntax unified
 2948              		.thumb
 2949              		.thumb_func
 2951              	HAL_RTCEx_LockBootHardwareKey:
 2952              	.LVL198:
 2953              	.LFB335:
1906:Drivers/STM32H5xx_HAL_Driver/Src/stm32h5xx_hal_rtc_ex.c **** 
1907:Drivers/STM32H5xx_HAL_Driver/Src/stm32h5xx_hal_rtc_ex.c **** #if defined(TAMP_SECCFGR_BHKLOCK)
1908:Drivers/STM32H5xx_HAL_Driver/Src/stm32h5xx_hal_rtc_ex.c **** /**
1909:Drivers/STM32H5xx_HAL_Driver/Src/stm32h5xx_hal_rtc_ex.c ****   * @brief  Lock the Boot hardware Key
1910:Drivers/STM32H5xx_HAL_Driver/Src/stm32h5xx_hal_rtc_ex.c ****   * @param  hrtc RTC handle
1911:Drivers/STM32H5xx_HAL_Driver/Src/stm32h5xx_hal_rtc_ex.c ****   * @note   The backup registers from TAMP_BKP0R to TAMP_BKP7R cannot be accessed neither in
1912:Drivers/STM32H5xx_HAL_Driver/Src/stm32h5xx_hal_rtc_ex.c ****   *         read nor in write (they are read as 0 and write ignore).
1913:Drivers/STM32H5xx_HAL_Driver/Src/stm32h5xx_hal_rtc_ex.c ****   * @retval HAL status
1914:Drivers/STM32H5xx_HAL_Driver/Src/stm32h5xx_hal_rtc_ex.c ****   */
1915:Drivers/STM32H5xx_HAL_Driver/Src/stm32h5xx_hal_rtc_ex.c **** HAL_StatusTypeDef HAL_RTCEx_LockBootHardwareKey(const RTC_HandleTypeDef *hrtc)
1916:Drivers/STM32H5xx_HAL_Driver/Src/stm32h5xx_hal_rtc_ex.c **** {
 2954              		.loc 1 1916 1 is_stmt 1 view -0
 2955              		.cfi_startproc
 2956              		@ args = 0, pretend = 0, frame = 0
 2957              		@ frame_needed = 0, uses_anonymous_args = 0
 2958              		@ link register save eliminated.
1917:Drivers/STM32H5xx_HAL_Driver/Src/stm32h5xx_hal_rtc_ex.c ****   /* Prevent unused argument(s) compilation warning */
1918:Drivers/STM32H5xx_HAL_Driver/Src/stm32h5xx_hal_rtc_ex.c ****   UNUSED(hrtc);
 2959              		.loc 1 1918 3 view .LVU919
1919:Drivers/STM32H5xx_HAL_Driver/Src/stm32h5xx_hal_rtc_ex.c **** 
1920:Drivers/STM32H5xx_HAL_Driver/Src/stm32h5xx_hal_rtc_ex.c ****   WRITE_REG(TAMP->SECCFGR, TAMP_SECCFGR_BHKLOCK);
 2960              		.loc 1 1920 3 view .LVU920
 2961 0000 024B     		ldr	r3, .L232
 2962 0002 4FF08042 		mov	r2, #1073741824
 2963 0006 1A62     		str	r2, [r3, #32]
1921:Drivers/STM32H5xx_HAL_Driver/Src/stm32h5xx_hal_rtc_ex.c **** 
1922:Drivers/STM32H5xx_HAL_Driver/Src/stm32h5xx_hal_rtc_ex.c ****   return HAL_OK;
 2964              		.loc 1 1922 3 view .LVU921
1923:Drivers/STM32H5xx_HAL_Driver/Src/stm32h5xx_hal_rtc_ex.c **** }
 2965              		.loc 1 1923 1 is_stmt 0 view .LVU922
 2966 0008 0020     		movs	r0, #0
 2967              	.LVL199:
 2968              		.loc 1 1923 1 view .LVU923
 2969 000a 7047     		bx	lr
 2970              	.L233:
 2971              		.align	2
 2972              	.L232:
 2973 000c 007C0044 		.word	1140882432
 2974              		.cfi_endproc
 2975              	.LFE335:
 2977              		.section	.text.HAL_RTCEx_DeactivateActiveTampers,"ax",%progbits
 2978              		.align	1
 2979              		.global	HAL_RTCEx_DeactivateActiveTampers
 2980              		.syntax unified
ARM GAS  C:\Users\DELL\AppData\Local\Temp\ccMtHSyM.s 			page 89


 2981              		.thumb
 2982              		.thumb_func
 2984              	HAL_RTCEx_DeactivateActiveTampers:
 2985              	.LVL200:
 2986              	.LFB336:
1924:Drivers/STM32H5xx_HAL_Driver/Src/stm32h5xx_hal_rtc_ex.c **** #endif /* TAMP_SECCFGR_BHKLOCK */
1925:Drivers/STM32H5xx_HAL_Driver/Src/stm32h5xx_hal_rtc_ex.c **** 
1926:Drivers/STM32H5xx_HAL_Driver/Src/stm32h5xx_hal_rtc_ex.c **** /**
1927:Drivers/STM32H5xx_HAL_Driver/Src/stm32h5xx_hal_rtc_ex.c ****   * @brief  Deactivate all Active Tampers at the same time.
1928:Drivers/STM32H5xx_HAL_Driver/Src/stm32h5xx_hal_rtc_ex.c ****   * @param  hrtc RTC handle
1929:Drivers/STM32H5xx_HAL_Driver/Src/stm32h5xx_hal_rtc_ex.c ****   * @retval HAL status
1930:Drivers/STM32H5xx_HAL_Driver/Src/stm32h5xx_hal_rtc_ex.c ****   */
1931:Drivers/STM32H5xx_HAL_Driver/Src/stm32h5xx_hal_rtc_ex.c **** HAL_StatusTypeDef HAL_RTCEx_DeactivateActiveTampers(const RTC_HandleTypeDef *hrtc)
1932:Drivers/STM32H5xx_HAL_Driver/Src/stm32h5xx_hal_rtc_ex.c **** {
 2987              		.loc 1 1932 1 is_stmt 1 view -0
 2988              		.cfi_startproc
 2989              		@ args = 0, pretend = 0, frame = 0
 2990              		@ frame_needed = 0, uses_anonymous_args = 0
 2991              		@ link register save eliminated.
1933:Drivers/STM32H5xx_HAL_Driver/Src/stm32h5xx_hal_rtc_ex.c ****   /* Prevent unused argument(s) compilation warning */
1934:Drivers/STM32H5xx_HAL_Driver/Src/stm32h5xx_hal_rtc_ex.c ****   UNUSED(hrtc);
 2992              		.loc 1 1934 3 view .LVU925
1935:Drivers/STM32H5xx_HAL_Driver/Src/stm32h5xx_hal_rtc_ex.c **** 
1936:Drivers/STM32H5xx_HAL_Driver/Src/stm32h5xx_hal_rtc_ex.c ****   /* Get Active tampers */
1937:Drivers/STM32H5xx_HAL_Driver/Src/stm32h5xx_hal_rtc_ex.c ****   uint32_t atamp_mask = READ_BIT(TAMP->ATCR1, TAMP_ALL);
 2993              		.loc 1 1937 3 view .LVU926
 2994              		.loc 1 1937 25 is_stmt 0 view .LVU927
 2995 0000 0C4B     		ldr	r3, .L235
 2996 0002 1A69     		ldr	r2, [r3, #16]
 2997              		.loc 1 1937 12 view .LVU928
 2998 0004 D2B2     		uxtb	r2, r2
 2999              	.LVL201:
1938:Drivers/STM32H5xx_HAL_Driver/Src/stm32h5xx_hal_rtc_ex.c **** 
1939:Drivers/STM32H5xx_HAL_Driver/Src/stm32h5xx_hal_rtc_ex.c ****   /* Disable all actives tampers but not passives tampers */
1940:Drivers/STM32H5xx_HAL_Driver/Src/stm32h5xx_hal_rtc_ex.c ****   CLEAR_BIT(TAMP->CR1, atamp_mask);
 3000              		.loc 1 1940 3 is_stmt 1 view .LVU929
 3001 0006 1968     		ldr	r1, [r3]
 3002 0008 21EA0201 		bic	r1, r1, r2
 3003 000c 1960     		str	r1, [r3]
1941:Drivers/STM32H5xx_HAL_Driver/Src/stm32h5xx_hal_rtc_ex.c **** 
1942:Drivers/STM32H5xx_HAL_Driver/Src/stm32h5xx_hal_rtc_ex.c ****   /* Clear tamper interrupt and event flags (WO register) of all actives tampers but not passives t
1943:Drivers/STM32H5xx_HAL_Driver/Src/stm32h5xx_hal_rtc_ex.c ****   WRITE_REG(TAMP->SCR, atamp_mask);
 3004              		.loc 1 1943 3 view .LVU930
 3005 000e DA63     		str	r2, [r3, #60]
1944:Drivers/STM32H5xx_HAL_Driver/Src/stm32h5xx_hal_rtc_ex.c **** 
1945:Drivers/STM32H5xx_HAL_Driver/Src/stm32h5xx_hal_rtc_ex.c ****   /* Disable no erase and mask */
1946:Drivers/STM32H5xx_HAL_Driver/Src/stm32h5xx_hal_rtc_ex.c **** #if (RTC_TAMPER_MASKABLE_NB == 2)
1947:Drivers/STM32H5xx_HAL_Driver/Src/stm32h5xx_hal_rtc_ex.c ****   CLEAR_BIT(TAMP->CR2, (atamp_mask | ((atamp_mask & (TAMP_ATCR1_TAMP1AM | TAMP_ATCR1_TAMP2AM)) <<
1948:Drivers/STM32H5xx_HAL_Driver/Src/stm32h5xx_hal_rtc_ex.c ****                                       TAMP_CR2_TAMP1MSK_Pos)));
1949:Drivers/STM32H5xx_HAL_Driver/Src/stm32h5xx_hal_rtc_ex.c **** #else
1950:Drivers/STM32H5xx_HAL_Driver/Src/stm32h5xx_hal_rtc_ex.c ****   CLEAR_BIT(TAMP->CR2, (atamp_mask | ((atamp_mask & (TAMP_ATCR1_TAMP1AM | TAMP_ATCR1_TAMP2AM | TAMP
 3006              		.loc 1 1950 3 view .LVU931
 3007 0010 5868     		ldr	r0, [r3, #4]
 3008              	.LVL202:
 3009              		.loc 1 1950 3 is_stmt 0 view .LVU932
 3010 0012 1104     		lsls	r1, r2, #16
 3011 0014 01F4E021 		and	r1, r1, #458752
ARM GAS  C:\Users\DELL\AppData\Local\Temp\ccMtHSyM.s 			page 90


 3012 0018 1143     		orrs	r1, r1, r2
 3013 001a 20EA0101 		bic	r1, r0, r1
 3014 001e 5960     		str	r1, [r3, #4]
1951:Drivers/STM32H5xx_HAL_Driver/Src/stm32h5xx_hal_rtc_ex.c ****                                       TAMP_CR2_TAMP1MSK_Pos)));
1952:Drivers/STM32H5xx_HAL_Driver/Src/stm32h5xx_hal_rtc_ex.c **** #endif /* RTC_TAMPER_MASKABLE_NB */
1953:Drivers/STM32H5xx_HAL_Driver/Src/stm32h5xx_hal_rtc_ex.c **** 
1954:Drivers/STM32H5xx_HAL_Driver/Src/stm32h5xx_hal_rtc_ex.c ****   /* Clear all active tampers interrupt mode configuration but not passives tampers */
1955:Drivers/STM32H5xx_HAL_Driver/Src/stm32h5xx_hal_rtc_ex.c ****   CLEAR_BIT(TAMP->IER, atamp_mask);
 3015              		.loc 1 1955 3 is_stmt 1 view .LVU933
 3016 0020 D96A     		ldr	r1, [r3, #44]
 3017 0022 21EA0202 		bic	r2, r1, r2
 3018              	.LVL203:
 3019              		.loc 1 1955 3 is_stmt 0 view .LVU934
 3020 0026 DA62     		str	r2, [r3, #44]
1956:Drivers/STM32H5xx_HAL_Driver/Src/stm32h5xx_hal_rtc_ex.c **** 
1957:Drivers/STM32H5xx_HAL_Driver/Src/stm32h5xx_hal_rtc_ex.c ****   /* Set reset value for active tamper control register 1 */
1958:Drivers/STM32H5xx_HAL_Driver/Src/stm32h5xx_hal_rtc_ex.c ****   WRITE_REG(TAMP->ATCR1, TAMP_ATCR1_ATCKSEL);
 3021              		.loc 1 1958 3 is_stmt 1 view .LVU935
 3022 0028 4FF47022 		mov	r2, #983040
 3023 002c 1A61     		str	r2, [r3, #16]
1959:Drivers/STM32H5xx_HAL_Driver/Src/stm32h5xx_hal_rtc_ex.c **** 
1960:Drivers/STM32H5xx_HAL_Driver/Src/stm32h5xx_hal_rtc_ex.c ****   /* Set reset value for active tamper control register 2 */
1961:Drivers/STM32H5xx_HAL_Driver/Src/stm32h5xx_hal_rtc_ex.c ****   CLEAR_REG(TAMP->ATCR2);
 3024              		.loc 1 1961 3 view .LVU936
 3025 002e 0020     		movs	r0, #0
 3026 0030 D861     		str	r0, [r3, #28]
1962:Drivers/STM32H5xx_HAL_Driver/Src/stm32h5xx_hal_rtc_ex.c **** 
1963:Drivers/STM32H5xx_HAL_Driver/Src/stm32h5xx_hal_rtc_ex.c ****   return HAL_OK;
 3027              		.loc 1 1963 3 view .LVU937
1964:Drivers/STM32H5xx_HAL_Driver/Src/stm32h5xx_hal_rtc_ex.c **** }
 3028              		.loc 1 1964 1 is_stmt 0 view .LVU938
 3029 0032 7047     		bx	lr
 3030              	.L236:
 3031              		.align	2
 3032              	.L235:
 3033 0034 007C0044 		.word	1140882432
 3034              		.cfi_endproc
 3035              	.LFE336:
 3037              		.section	.text.HAL_RTCEx_SetActiveTampers,"ax",%progbits
 3038              		.align	1
 3039              		.global	HAL_RTCEx_SetActiveTampers
 3040              		.syntax unified
 3041              		.thumb
 3042              		.thumb_func
 3044              	HAL_RTCEx_SetActiveTampers:
 3045              	.LVL204:
 3046              	.LFB333:
1742:Drivers/STM32H5xx_HAL_Driver/Src/stm32h5xx_hal_rtc_ex.c ****   uint32_t tmp_ier;
 3047              		.loc 1 1742 1 is_stmt 1 view -0
 3048              		.cfi_startproc
 3049              		@ args = 0, pretend = 0, frame = 0
 3050              		@ frame_needed = 0, uses_anonymous_args = 0
1742:Drivers/STM32H5xx_HAL_Driver/Src/stm32h5xx_hal_rtc_ex.c ****   uint32_t tmp_ier;
 3051              		.loc 1 1742 1 is_stmt 0 view .LVU940
 3052 0000 2DE9F041 		push	{r4, r5, r6, r7, r8, lr}
 3053              	.LCFI15:
 3054              		.cfi_def_cfa_offset 24
ARM GAS  C:\Users\DELL\AppData\Local\Temp\ccMtHSyM.s 			page 91


 3055              		.cfi_offset 4, -24
 3056              		.cfi_offset 5, -20
 3057              		.cfi_offset 6, -16
 3058              		.cfi_offset 7, -12
 3059              		.cfi_offset 8, -8
 3060              		.cfi_offset 14, -4
 3061 0004 8046     		mov	r8, r0
 3062 0006 0C46     		mov	r4, r1
1743:Drivers/STM32H5xx_HAL_Driver/Src/stm32h5xx_hal_rtc_ex.c ****   uint32_t tmp_cr1;
 3063              		.loc 1 1743 3 is_stmt 1 view .LVU941
1744:Drivers/STM32H5xx_HAL_Driver/Src/stm32h5xx_hal_rtc_ex.c ****   uint32_t tmp_cr2;
 3064              		.loc 1 1744 3 view .LVU942
1745:Drivers/STM32H5xx_HAL_Driver/Src/stm32h5xx_hal_rtc_ex.c ****   uint32_t tmp_atcr1;
 3065              		.loc 1 1745 3 view .LVU943
1746:Drivers/STM32H5xx_HAL_Driver/Src/stm32h5xx_hal_rtc_ex.c ****   uint32_t tmp_atcr2;
 3066              		.loc 1 1746 3 view .LVU944
1747:Drivers/STM32H5xx_HAL_Driver/Src/stm32h5xx_hal_rtc_ex.c ****   uint32_t tmp_cr;
 3067              		.loc 1 1747 3 view .LVU945
1748:Drivers/STM32H5xx_HAL_Driver/Src/stm32h5xx_hal_rtc_ex.c ****   uint32_t i;
 3068              		.loc 1 1748 3 view .LVU946
1749:Drivers/STM32H5xx_HAL_Driver/Src/stm32h5xx_hal_rtc_ex.c ****   uint32_t tickstart;
 3069              		.loc 1 1749 3 view .LVU947
1750:Drivers/STM32H5xx_HAL_Driver/Src/stm32h5xx_hal_rtc_ex.c **** 
 3070              		.loc 1 1750 3 view .LVU948
1768:Drivers/STM32H5xx_HAL_Driver/Src/stm32h5xx_hal_rtc_ex.c ****   {
 3071              		.loc 1 1768 3 view .LVU949
1768:Drivers/STM32H5xx_HAL_Driver/Src/stm32h5xx_hal_rtc_ex.c ****   {
 3072              		.loc 1 1768 7 is_stmt 0 view .LVU950
 3073 0008 464B     		ldr	r3, .L257
 3074 000a 9B69     		ldr	r3, [r3, #24]
1768:Drivers/STM32H5xx_HAL_Driver/Src/stm32h5xx_hal_rtc_ex.c ****   {
 3075              		.loc 1 1768 6 view .LVU951
 3076 000c 13F4004F 		tst	r3, #32768
 3077 0010 1AD1     		bne	.L253
 3078              	.LVL205:
 3079              	.L238:
1776:Drivers/STM32H5xx_HAL_Driver/Src/stm32h5xx_hal_rtc_ex.c ****   if ((tmp_cr & RTC_CR_TAMPTS) != (sAllTamper->TimeStampOnTamperDetection))
 3080              		.loc 1 1776 3 is_stmt 1 view .LVU952
1776:Drivers/STM32H5xx_HAL_Driver/Src/stm32h5xx_hal_rtc_ex.c ****   if ((tmp_cr & RTC_CR_TAMPTS) != (sAllTamper->TimeStampOnTamperDetection))
 3081              		.loc 1 1776 10 is_stmt 0 view .LVU953
 3082 0012 454B     		ldr	r3, .L257+4
 3083 0014 9B69     		ldr	r3, [r3, #24]
 3084              	.LVL206:
1777:Drivers/STM32H5xx_HAL_Driver/Src/stm32h5xx_hal_rtc_ex.c ****   {
 3085              		.loc 1 1777 3 is_stmt 1 view .LVU954
1777:Drivers/STM32H5xx_HAL_Driver/Src/stm32h5xx_hal_rtc_ex.c ****   {
 3086              		.loc 1 1777 15 is_stmt 0 view .LVU955
 3087 0016 03F00073 		and	r3, r3, #33554432
 3088              	.LVL207:
1777:Drivers/STM32H5xx_HAL_Driver/Src/stm32h5xx_hal_rtc_ex.c ****   {
 3089              		.loc 1 1777 46 view .LVU956
 3090 001a A268     		ldr	r2, [r4, #8]
1777:Drivers/STM32H5xx_HAL_Driver/Src/stm32h5xx_hal_rtc_ex.c ****   {
 3091              		.loc 1 1777 6 view .LVU957
 3092 001c 9342     		cmp	r3, r2
 3093 001e 05D0     		beq	.L239
1779:Drivers/STM32H5xx_HAL_Driver/Src/stm32h5xx_hal_rtc_ex.c ****   }
ARM GAS  C:\Users\DELL\AppData\Local\Temp\ccMtHSyM.s 			page 92


 3094              		.loc 1 1779 5 is_stmt 1 view .LVU958
 3095 0020 4149     		ldr	r1, .L257+4
 3096 0022 8B69     		ldr	r3, [r1, #24]
 3097 0024 23F00073 		bic	r3, r3, #33554432
 3098 0028 1A43     		orrs	r2, r2, r3
 3099 002a 8A61     		str	r2, [r1, #24]
 3100              	.L239:
1782:Drivers/STM32H5xx_HAL_Driver/Src/stm32h5xx_hal_rtc_ex.c ****   tmp_cr2 = READ_REG(TAMP->CR2);
 3101              		.loc 1 1782 3 view .LVU959
1782:Drivers/STM32H5xx_HAL_Driver/Src/stm32h5xx_hal_rtc_ex.c ****   tmp_cr2 = READ_REG(TAMP->CR2);
 3102              		.loc 1 1782 11 is_stmt 0 view .LVU960
 3103 002c 3D4B     		ldr	r3, .L257
 3104 002e 1E68     		ldr	r6, [r3]
 3105              	.LVL208:
1783:Drivers/STM32H5xx_HAL_Driver/Src/stm32h5xx_hal_rtc_ex.c ****   tmp_atcr2 = 0U;
 3106              		.loc 1 1783 3 is_stmt 1 view .LVU961
1783:Drivers/STM32H5xx_HAL_Driver/Src/stm32h5xx_hal_rtc_ex.c ****   tmp_atcr2 = 0U;
 3107              		.loc 1 1783 11 is_stmt 0 view .LVU962
 3108 0030 5868     		ldr	r0, [r3, #4]
 3109              	.LVL209:
1784:Drivers/STM32H5xx_HAL_Driver/Src/stm32h5xx_hal_rtc_ex.c ****   tmp_ier = READ_REG(TAMP->IER);
 3110              		.loc 1 1784 3 is_stmt 1 view .LVU963
1785:Drivers/STM32H5xx_HAL_Driver/Src/stm32h5xx_hal_rtc_ex.c **** 
 3111              		.loc 1 1785 3 view .LVU964
1785:Drivers/STM32H5xx_HAL_Driver/Src/stm32h5xx_hal_rtc_ex.c **** 
 3112              		.loc 1 1785 11 is_stmt 0 view .LVU965
 3113 0032 D3F82CC0 		ldr	ip, [r3, #44]
 3114              	.LVL210:
1788:Drivers/STM32H5xx_HAL_Driver/Src/stm32h5xx_hal_rtc_ex.c ****                sAllTamper->ActiveAsyncPrescaler);
 3115              		.loc 1 1788 3 is_stmt 1 view .LVU966
1788:Drivers/STM32H5xx_HAL_Driver/Src/stm32h5xx_hal_rtc_ex.c ****                sAllTamper->ActiveAsyncPrescaler);
 3116              		.loc 1 1788 26 is_stmt 0 view .LVU967
 3117 0036 2168     		ldr	r1, [r4]
1788:Drivers/STM32H5xx_HAL_Driver/Src/stm32h5xx_hal_rtc_ex.c ****                sAllTamper->ActiveAsyncPrescaler);
 3118              		.loc 1 1788 54 view .LVU968
 3119 0038 E368     		ldr	r3, [r4, #12]
1788:Drivers/STM32H5xx_HAL_Driver/Src/stm32h5xx_hal_rtc_ex.c ****                sAllTamper->ActiveAsyncPrescaler);
 3120              		.loc 1 1788 41 view .LVU969
 3121 003a 41EA0361 		orr	r1, r1, r3, lsl #24
1789:Drivers/STM32H5xx_HAL_Driver/Src/stm32h5xx_hal_rtc_ex.c **** 
 3122              		.loc 1 1789 26 view .LVU970
 3123 003e 6368     		ldr	r3, [r4, #4]
1788:Drivers/STM32H5xx_HAL_Driver/Src/stm32h5xx_hal_rtc_ex.c ****                sAllTamper->ActiveAsyncPrescaler);
 3124              		.loc 1 1788 13 view .LVU971
 3125 0040 1943     		orrs	r1, r1, r3
 3126              	.LVL211:
1792:Drivers/STM32H5xx_HAL_Driver/Src/stm32h5xx_hal_rtc_ex.c ****   {
 3127              		.loc 1 1792 3 is_stmt 1 view .LVU972
1792:Drivers/STM32H5xx_HAL_Driver/Src/stm32h5xx_hal_rtc_ex.c ****   {
 3128              		.loc 1 1792 10 is_stmt 0 view .LVU973
 3129 0042 0023     		movs	r3, #0
1784:Drivers/STM32H5xx_HAL_Driver/Src/stm32h5xx_hal_rtc_ex.c ****   tmp_ier = READ_REG(TAMP->IER);
 3130              		.loc 1 1784 13 view .LVU974
 3131 0044 1F46     		mov	r7, r3
1792:Drivers/STM32H5xx_HAL_Driver/Src/stm32h5xx_hal_rtc_ex.c ****   {
 3132              		.loc 1 1792 3 view .LVU975
 3133 0046 12E0     		b	.L240
ARM GAS  C:\Users\DELL\AppData\Local\Temp\ccMtHSyM.s 			page 93


 3134              	.LVL212:
 3135              	.L253:
1772:Drivers/STM32H5xx_HAL_Driver/Src/stm32h5xx_hal_rtc_ex.c ****   }
 3136              		.loc 1 1772 5 is_stmt 1 view .LVU976
1772:Drivers/STM32H5xx_HAL_Driver/Src/stm32h5xx_hal_rtc_ex.c ****   }
 3137              		.loc 1 1772 12 is_stmt 0 view .LVU977
 3138 0048 FFF7FEFF 		bl	HAL_RTCEx_DeactivateActiveTampers
 3139              	.LVL213:
1772:Drivers/STM32H5xx_HAL_Driver/Src/stm32h5xx_hal_rtc_ex.c ****   }
 3140              		.loc 1 1772 12 view .LVU978
 3141 004c E1E7     		b	.L238
 3142              	.LVL214:
 3143              	.L244:
1816:Drivers/STM32H5xx_HAL_Driver/Src/stm32h5xx_hal_rtc_ex.c **** 
 3144              		.loc 1 1816 7 is_stmt 1 view .LVU979
1816:Drivers/STM32H5xx_HAL_Driver/Src/stm32h5xx_hal_rtc_ex.c **** 
 3145              		.loc 1 1816 44 is_stmt 0 view .LVU980
 3146 004e 03EB8302 		add	r2, r3, r3, lsl #2
 3147 0052 04EB8202 		add	r2, r4, r2, lsl #2
 3148 0056 956A     		ldr	r5, [r2, #40]
1816:Drivers/STM32H5xx_HAL_Driver/Src/stm32h5xx_hal_rtc_ex.c **** 
 3149              		.loc 1 1816 60 view .LVU981
 3150 0058 03EB4302 		add	r2, r3, r3, lsl #1
1816:Drivers/STM32H5xx_HAL_Driver/Src/stm32h5xx_hal_rtc_ex.c **** 
 3151              		.loc 1 1816 65 view .LVU982
 3152 005c 0832     		adds	r2, r2, #8
1816:Drivers/STM32H5xx_HAL_Driver/Src/stm32h5xx_hal_rtc_ex.c **** 
 3153              		.loc 1 1816 52 view .LVU983
 3154 005e 05FA02F2 		lsl	r2, r5, r2
1816:Drivers/STM32H5xx_HAL_Driver/Src/stm32h5xx_hal_rtc_ex.c **** 
 3155              		.loc 1 1816 17 view .LVU984
 3156 0062 1743     		orrs	r7, r7, r2
 3157              	.LVL215:
1818:Drivers/STM32H5xx_HAL_Driver/Src/stm32h5xx_hal_rtc_ex.c ****       {
 3158              		.loc 1 1818 7 is_stmt 1 view .LVU985
1818:Drivers/STM32H5xx_HAL_Driver/Src/stm32h5xx_hal_rtc_ex.c ****       {
 3159              		.loc 1 1818 10 is_stmt 0 view .LVU986
 3160 0064 9D42     		cmp	r5, r3
 3161 0066 01D0     		beq	.L241
1820:Drivers/STM32H5xx_HAL_Driver/Src/stm32h5xx_hal_rtc_ex.c ****       }
 3162              		.loc 1 1820 9 is_stmt 1 view .LVU987
1820:Drivers/STM32H5xx_HAL_Driver/Src/stm32h5xx_hal_rtc_ex.c ****       }
 3163              		.loc 1 1820 19 is_stmt 0 view .LVU988
 3164 0068 41F08041 		orr	r1, r1, #1073741824
 3165              	.LVL216:
 3166              	.L241:
1792:Drivers/STM32H5xx_HAL_Driver/Src/stm32h5xx_hal_rtc_ex.c ****   {
 3167              		.loc 1 1792 33 is_stmt 1 discriminator 2 view .LVU989
 3168 006c 0133     		adds	r3, r3, #1
 3169              	.LVL217:
 3170              	.L240:
1792:Drivers/STM32H5xx_HAL_Driver/Src/stm32h5xx_hal_rtc_ex.c ****   {
 3171              		.loc 1 1792 17 discriminator 1 view .LVU990
 3172 006e 072B     		cmp	r3, #7
 3173 0070 2AD8     		bhi	.L254
1794:Drivers/STM32H5xx_HAL_Driver/Src/stm32h5xx_hal_rtc_ex.c ****     {
 3174              		.loc 1 1794 5 view .LVU991
ARM GAS  C:\Users\DELL\AppData\Local\Temp\ccMtHSyM.s 			page 94


1794:Drivers/STM32H5xx_HAL_Driver/Src/stm32h5xx_hal_rtc_ex.c ****     {
 3175              		.loc 1 1794 33 is_stmt 0 view .LVU992
 3176 0072 03EB8302 		add	r2, r3, r3, lsl #2
 3177 0076 04EB8202 		add	r2, r4, r2, lsl #2
 3178 007a 126A     		ldr	r2, [r2, #32]
1794:Drivers/STM32H5xx_HAL_Driver/Src/stm32h5xx_hal_rtc_ex.c ****     {
 3179              		.loc 1 1794 8 view .LVU993
 3180 007c 002A     		cmp	r2, #0
 3181 007e F5D0     		beq	.L241
1796:Drivers/STM32H5xx_HAL_Driver/Src/stm32h5xx_hal_rtc_ex.c ****       tmp_atcr1 |= (TAMP_ATCR1_TAMP1AM << i);
 3182              		.loc 1 1796 7 is_stmt 1 view .LVU994
1796:Drivers/STM32H5xx_HAL_Driver/Src/stm32h5xx_hal_rtc_ex.c ****       tmp_atcr1 |= (TAMP_ATCR1_TAMP1AM << i);
 3183              		.loc 1 1796 35 is_stmt 0 view .LVU995
 3184 0080 0122     		movs	r2, #1
 3185 0082 9A40     		lsls	r2, r2, r3
1796:Drivers/STM32H5xx_HAL_Driver/Src/stm32h5xx_hal_rtc_ex.c ****       tmp_atcr1 |= (TAMP_ATCR1_TAMP1AM << i);
 3186              		.loc 1 1796 15 view .LVU996
 3187 0084 1643     		orrs	r6, r6, r2
 3188              	.LVL218:
1797:Drivers/STM32H5xx_HAL_Driver/Src/stm32h5xx_hal_rtc_ex.c **** 
 3189              		.loc 1 1797 7 is_stmt 1 view .LVU997
1797:Drivers/STM32H5xx_HAL_Driver/Src/stm32h5xx_hal_rtc_ex.c **** 
 3190              		.loc 1 1797 17 is_stmt 0 view .LVU998
 3191 0086 1143     		orrs	r1, r1, r2
 3192              	.LVL219:
1799:Drivers/STM32H5xx_HAL_Driver/Src/stm32h5xx_hal_rtc_ex.c ****       {
 3193              		.loc 1 1799 7 is_stmt 1 view .LVU999
1799:Drivers/STM32H5xx_HAL_Driver/Src/stm32h5xx_hal_rtc_ex.c ****       {
 3194              		.loc 1 1799 35 is_stmt 0 view .LVU1000
 3195 0088 03EB830E 		add	lr, r3, r3, lsl #2
 3196 008c 04EB8E0E 		add	lr, r4, lr, lsl #2
 3197 0090 DEF82450 		ldr	r5, [lr, #36]
1799:Drivers/STM32H5xx_HAL_Driver/Src/stm32h5xx_hal_rtc_ex.c ****       {
 3198              		.loc 1 1799 10 view .LVU1001
 3199 0094 0DB1     		cbz	r5, .L242
1802:Drivers/STM32H5xx_HAL_Driver/Src/stm32h5xx_hal_rtc_ex.c ****       }
 3200              		.loc 1 1802 9 is_stmt 1 view .LVU1002
1802:Drivers/STM32H5xx_HAL_Driver/Src/stm32h5xx_hal_rtc_ex.c ****       }
 3201              		.loc 1 1802 17 is_stmt 0 view .LVU1003
 3202 0096 4CEA020C 		orr	ip, ip, r2
 3203              	.LVL220:
 3204              	.L242:
1805:Drivers/STM32H5xx_HAL_Driver/Src/stm32h5xx_hal_rtc_ex.c ****       {
 3205              		.loc 1 1805 7 is_stmt 1 view .LVU1004
1805:Drivers/STM32H5xx_HAL_Driver/Src/stm32h5xx_hal_rtc_ex.c ****       {
 3206              		.loc 1 1805 35 is_stmt 0 view .LVU1005
 3207 009a 03EB830E 		add	lr, r3, r3, lsl #2
 3208 009e 04EB8E0E 		add	lr, r4, lr, lsl #2
 3209 00a2 DEF83050 		ldr	r5, [lr, #48]
1805:Drivers/STM32H5xx_HAL_Driver/Src/stm32h5xx_hal_rtc_ex.c ****       {
 3210              		.loc 1 1805 10 view .LVU1006
 3211 00a6 2DB1     		cbz	r5, .L243
1807:Drivers/STM32H5xx_HAL_Driver/Src/stm32h5xx_hal_rtc_ex.c ****       }
 3212              		.loc 1 1807 9 is_stmt 1 view .LVU1007
1807:Drivers/STM32H5xx_HAL_Driver/Src/stm32h5xx_hal_rtc_ex.c ****       }
 3213              		.loc 1 1807 39 is_stmt 0 view .LVU1008
 3214 00a8 4FF4803E 		mov	lr, #65536
ARM GAS  C:\Users\DELL\AppData\Local\Temp\ccMtHSyM.s 			page 95


 3215 00ac 0EFA03FE 		lsl	lr, lr, r3
1807:Drivers/STM32H5xx_HAL_Driver/Src/stm32h5xx_hal_rtc_ex.c ****       }
 3216              		.loc 1 1807 17 view .LVU1009
 3217 00b0 40EA0E00 		orr	r0, r0, lr
 3218              	.LVL221:
 3219              	.L243:
1810:Drivers/STM32H5xx_HAL_Driver/Src/stm32h5xx_hal_rtc_ex.c ****       {
 3220              		.loc 1 1810 7 is_stmt 1 view .LVU1010
1810:Drivers/STM32H5xx_HAL_Driver/Src/stm32h5xx_hal_rtc_ex.c ****       {
 3221              		.loc 1 1810 35 is_stmt 0 view .LVU1011
 3222 00b4 03EB830E 		add	lr, r3, r3, lsl #2
 3223 00b8 04EB8E0E 		add	lr, r4, lr, lsl #2
 3224 00bc DEF82C50 		ldr	r5, [lr, #44]
1810:Drivers/STM32H5xx_HAL_Driver/Src/stm32h5xx_hal_rtc_ex.c ****       {
 3225              		.loc 1 1810 10 view .LVU1012
 3226 00c0 002D     		cmp	r5, #0
 3227 00c2 C4D0     		beq	.L244
1812:Drivers/STM32H5xx_HAL_Driver/Src/stm32h5xx_hal_rtc_ex.c ****       }
 3228              		.loc 1 1812 9 is_stmt 1 view .LVU1013
1812:Drivers/STM32H5xx_HAL_Driver/Src/stm32h5xx_hal_rtc_ex.c ****       }
 3229              		.loc 1 1812 17 is_stmt 0 view .LVU1014
 3230 00c4 1043     		orrs	r0, r0, r2
 3231              	.LVL222:
1812:Drivers/STM32H5xx_HAL_Driver/Src/stm32h5xx_hal_rtc_ex.c ****       }
 3232              		.loc 1 1812 17 view .LVU1015
 3233 00c6 C2E7     		b	.L244
 3234              	.LVL223:
 3235              	.L254:
1825:Drivers/STM32H5xx_HAL_Driver/Src/stm32h5xx_hal_rtc_ex.c ****   WRITE_REG(TAMP->ATCR1, tmp_atcr1);
 3236              		.loc 1 1825 3 is_stmt 1 view .LVU1016
 3237 00c8 164B     		ldr	r3, .L257
 3238              	.LVL224:
1825:Drivers/STM32H5xx_HAL_Driver/Src/stm32h5xx_hal_rtc_ex.c ****   WRITE_REG(TAMP->ATCR1, tmp_atcr1);
 3239              		.loc 1 1825 3 is_stmt 0 view .LVU1017
 3240 00ca C3F82CC0 		str	ip, [r3, #44]
1826:Drivers/STM32H5xx_HAL_Driver/Src/stm32h5xx_hal_rtc_ex.c ****   WRITE_REG(TAMP->ATCR2, tmp_atcr2);
 3241              		.loc 1 1826 3 is_stmt 1 view .LVU1018
 3242 00ce 1961     		str	r1, [r3, #16]
1827:Drivers/STM32H5xx_HAL_Driver/Src/stm32h5xx_hal_rtc_ex.c ****   WRITE_REG(TAMP->CR2, tmp_cr2);
 3243              		.loc 1 1827 3 view .LVU1019
 3244 00d0 DF61     		str	r7, [r3, #28]
1828:Drivers/STM32H5xx_HAL_Driver/Src/stm32h5xx_hal_rtc_ex.c ****   WRITE_REG(TAMP->CR1, tmp_cr1);
 3245              		.loc 1 1828 3 view .LVU1020
 3246 00d2 5860     		str	r0, [r3, #4]
1829:Drivers/STM32H5xx_HAL_Driver/Src/stm32h5xx_hal_rtc_ex.c **** 
 3247              		.loc 1 1829 3 view .LVU1021
 3248 00d4 1E60     		str	r6, [r3]
1832:Drivers/STM32H5xx_HAL_Driver/Src/stm32h5xx_hal_rtc_ex.c ****   {
 3249              		.loc 1 1832 3 view .LVU1022
 3250              	.LVL225:
1832:Drivers/STM32H5xx_HAL_Driver/Src/stm32h5xx_hal_rtc_ex.c ****   {
 3251              		.loc 1 1832 10 is_stmt 0 view .LVU1023
 3252 00d6 0023     		movs	r3, #0
1832:Drivers/STM32H5xx_HAL_Driver/Src/stm32h5xx_hal_rtc_ex.c ****   {
 3253              		.loc 1 1832 3 view .LVU1024
 3254 00d8 05E0     		b	.L246
 3255              	.LVL226:
ARM GAS  C:\Users\DELL\AppData\Local\Temp\ccMtHSyM.s 			page 96


 3256              	.L247:
1834:Drivers/STM32H5xx_HAL_Driver/Src/stm32h5xx_hal_rtc_ex.c ****   }
 3257              		.loc 1 1834 5 is_stmt 1 view .LVU1025
 3258 00da 1A1D     		adds	r2, r3, #4
 3259 00dc 54F82210 		ldr	r1, [r4, r2, lsl #2]
 3260 00e0 104A     		ldr	r2, .L257
 3261 00e2 5161     		str	r1, [r2, #20]
1832:Drivers/STM32H5xx_HAL_Driver/Src/stm32h5xx_hal_rtc_ex.c ****   {
 3262              		.loc 1 1832 46 discriminator 3 view .LVU1026
 3263 00e4 0133     		adds	r3, r3, #1
 3264              	.LVL227:
 3265              	.L246:
1832:Drivers/STM32H5xx_HAL_Driver/Src/stm32h5xx_hal_rtc_ex.c ****   {
 3266              		.loc 1 1832 17 discriminator 1 view .LVU1027
 3267 00e6 032B     		cmp	r3, #3
 3268 00e8 F7D9     		bls	.L247
1838:Drivers/STM32H5xx_HAL_Driver/Src/stm32h5xx_hal_rtc_ex.c ****   while (READ_BIT(TAMP->ATOR,  TAMP_ATOR_SEEDF) != 0U)
 3269              		.loc 1 1838 3 view .LVU1028
1838:Drivers/STM32H5xx_HAL_Driver/Src/stm32h5xx_hal_rtc_ex.c ****   while (READ_BIT(TAMP->ATOR,  TAMP_ATOR_SEEDF) != 0U)
 3270              		.loc 1 1838 15 is_stmt 0 view .LVU1029
 3271 00ea FFF7FEFF 		bl	HAL_GetTick
 3272              	.LVL228:
1838:Drivers/STM32H5xx_HAL_Driver/Src/stm32h5xx_hal_rtc_ex.c ****   while (READ_BIT(TAMP->ATOR,  TAMP_ATOR_SEEDF) != 0U)
 3273              		.loc 1 1838 15 view .LVU1030
 3274 00ee 0446     		mov	r4, r0
 3275              	.LVL229:
1839:Drivers/STM32H5xx_HAL_Driver/Src/stm32h5xx_hal_rtc_ex.c ****   {
 3276              		.loc 1 1839 3 is_stmt 1 view .LVU1031
 3277              	.L248:
1839:Drivers/STM32H5xx_HAL_Driver/Src/stm32h5xx_hal_rtc_ex.c ****   {
 3278              		.loc 1 1839 49 view .LVU1032
1839:Drivers/STM32H5xx_HAL_Driver/Src/stm32h5xx_hal_rtc_ex.c ****   {
 3279              		.loc 1 1839 10 is_stmt 0 view .LVU1033
 3280 00f0 0C4B     		ldr	r3, .L257
 3281 00f2 9B69     		ldr	r3, [r3, #24]
1839:Drivers/STM32H5xx_HAL_Driver/Src/stm32h5xx_hal_rtc_ex.c ****   {
 3282              		.loc 1 1839 49 view .LVU1034
 3283 00f4 13F4804F 		tst	r3, #16384
 3284 00f8 10D0     		beq	.L255
1841:Drivers/STM32H5xx_HAL_Driver/Src/stm32h5xx_hal_rtc_ex.c ****     {
 3285              		.loc 1 1841 5 is_stmt 1 view .LVU1035
1841:Drivers/STM32H5xx_HAL_Driver/Src/stm32h5xx_hal_rtc_ex.c ****     {
 3286              		.loc 1 1841 10 is_stmt 0 view .LVU1036
 3287 00fa FFF7FEFF 		bl	HAL_GetTick
 3288              	.LVL230:
1841:Drivers/STM32H5xx_HAL_Driver/Src/stm32h5xx_hal_rtc_ex.c ****     {
 3289              		.loc 1 1841 24 discriminator 1 view .LVU1037
 3290 00fe 001B     		subs	r0, r0, r4
1841:Drivers/STM32H5xx_HAL_Driver/Src/stm32h5xx_hal_rtc_ex.c ****     {
 3291              		.loc 1 1841 8 discriminator 1 view .LVU1038
 3292 0100 B0F57A7F 		cmp	r0, #1000
 3293 0104 F4D9     		bls	.L248
1844:Drivers/STM32H5xx_HAL_Driver/Src/stm32h5xx_hal_rtc_ex.c ****       {
 3294              		.loc 1 1844 7 is_stmt 1 view .LVU1039
1844:Drivers/STM32H5xx_HAL_Driver/Src/stm32h5xx_hal_rtc_ex.c ****       {
 3295              		.loc 1 1844 11 is_stmt 0 view .LVU1040
 3296 0106 074B     		ldr	r3, .L257
ARM GAS  C:\Users\DELL\AppData\Local\Temp\ccMtHSyM.s 			page 97


 3297 0108 9B69     		ldr	r3, [r3, #24]
1844:Drivers/STM32H5xx_HAL_Driver/Src/stm32h5xx_hal_rtc_ex.c ****       {
 3298              		.loc 1 1844 10 view .LVU1041
 3299 010a 13F4804F 		tst	r3, #16384
 3300 010e 01D1     		bne	.L256
1858:Drivers/STM32H5xx_HAL_Driver/Src/stm32h5xx_hal_rtc_ex.c **** }
 3301              		.loc 1 1858 10 view .LVU1042
 3302 0110 0020     		movs	r0, #0
 3303 0112 04E0     		b	.L249
 3304              	.L256:
1847:Drivers/STM32H5xx_HAL_Driver/Src/stm32h5xx_hal_rtc_ex.c **** 
 3305              		.loc 1 1847 9 is_stmt 1 view .LVU1043
1847:Drivers/STM32H5xx_HAL_Driver/Src/stm32h5xx_hal_rtc_ex.c **** 
 3306              		.loc 1 1847 21 is_stmt 0 view .LVU1044
 3307 0114 0320     		movs	r0, #3
 3308 0116 88F82D00 		strb	r0, [r8, #45]
1849:Drivers/STM32H5xx_HAL_Driver/Src/stm32h5xx_hal_rtc_ex.c ****       }
 3309              		.loc 1 1849 9 is_stmt 1 view .LVU1045
1849:Drivers/STM32H5xx_HAL_Driver/Src/stm32h5xx_hal_rtc_ex.c ****       }
 3310              		.loc 1 1849 16 is_stmt 0 view .LVU1046
 3311 011a 00E0     		b	.L249
 3312              	.L255:
1858:Drivers/STM32H5xx_HAL_Driver/Src/stm32h5xx_hal_rtc_ex.c **** }
 3313              		.loc 1 1858 10 view .LVU1047
 3314 011c 0020     		movs	r0, #0
 3315              	.L249:
1859:Drivers/STM32H5xx_HAL_Driver/Src/stm32h5xx_hal_rtc_ex.c **** 
 3316              		.loc 1 1859 1 view .LVU1048
 3317 011e BDE8F081 		pop	{r4, r5, r6, r7, r8, pc}
 3318              	.LVL231:
 3319              	.L258:
1859:Drivers/STM32H5xx_HAL_Driver/Src/stm32h5xx_hal_rtc_ex.c **** 
 3320              		.loc 1 1859 1 view .LVU1049
 3321 0122 00BF     		.align	2
 3322              	.L257:
 3323 0124 007C0044 		.word	1140882432
 3324 0128 00780044 		.word	1140881408
 3325              		.cfi_endproc
 3326              	.LFE333:
 3328              		.section	.text.HAL_RTCEx_PollForTamperEvent,"ax",%progbits
 3329              		.align	1
 3330              		.global	HAL_RTCEx_PollForTamperEvent
 3331              		.syntax unified
 3332              		.thumb
 3333              		.thumb_func
 3335              	HAL_RTCEx_PollForTamperEvent:
 3336              	.LVL232:
 3337              	.LFB337:
1965:Drivers/STM32H5xx_HAL_Driver/Src/stm32h5xx_hal_rtc_ex.c **** 
1966:Drivers/STM32H5xx_HAL_Driver/Src/stm32h5xx_hal_rtc_ex.c **** 
1967:Drivers/STM32H5xx_HAL_Driver/Src/stm32h5xx_hal_rtc_ex.c **** /**
1968:Drivers/STM32H5xx_HAL_Driver/Src/stm32h5xx_hal_rtc_ex.c ****   * @brief  Tamper event polling.
1969:Drivers/STM32H5xx_HAL_Driver/Src/stm32h5xx_hal_rtc_ex.c ****   * @param  hrtc RTC handle
1970:Drivers/STM32H5xx_HAL_Driver/Src/stm32h5xx_hal_rtc_ex.c ****   * @param  Tamper Selected tamper pin.
1971:Drivers/STM32H5xx_HAL_Driver/Src/stm32h5xx_hal_rtc_ex.c ****   *         This parameter can be a combination of the following values:
1972:Drivers/STM32H5xx_HAL_Driver/Src/stm32h5xx_hal_rtc_ex.c ****   *         @arg RTC_TAMPER_1
1973:Drivers/STM32H5xx_HAL_Driver/Src/stm32h5xx_hal_rtc_ex.c ****   *         @arg RTC_TAMPER_2
ARM GAS  C:\Users\DELL\AppData\Local\Temp\ccMtHSyM.s 			page 98


1974:Drivers/STM32H5xx_HAL_Driver/Src/stm32h5xx_hal_rtc_ex.c ****   *         @arg RTC_TAMPER_3
1975:Drivers/STM32H5xx_HAL_Driver/Src/stm32h5xx_hal_rtc_ex.c ****   *         @arg RTC_TAMPER_4
1976:Drivers/STM32H5xx_HAL_Driver/Src/stm32h5xx_hal_rtc_ex.c ****   *         @arg RTC_TAMPER_5
1977:Drivers/STM32H5xx_HAL_Driver/Src/stm32h5xx_hal_rtc_ex.c ****   *         @arg RTC_TAMPER_6
1978:Drivers/STM32H5xx_HAL_Driver/Src/stm32h5xx_hal_rtc_ex.c ****   *         @arg RTC_TAMPER_7
1979:Drivers/STM32H5xx_HAL_Driver/Src/stm32h5xx_hal_rtc_ex.c ****   *         @arg RTC_TAMPER_8
1980:Drivers/STM32H5xx_HAL_Driver/Src/stm32h5xx_hal_rtc_ex.c ****   * @param  Timeout Timeout duration
1981:Drivers/STM32H5xx_HAL_Driver/Src/stm32h5xx_hal_rtc_ex.c ****   * @retval HAL status
1982:Drivers/STM32H5xx_HAL_Driver/Src/stm32h5xx_hal_rtc_ex.c ****   */
1983:Drivers/STM32H5xx_HAL_Driver/Src/stm32h5xx_hal_rtc_ex.c **** HAL_StatusTypeDef HAL_RTCEx_PollForTamperEvent(const RTC_HandleTypeDef *hrtc, uint32_t Tamper, uint
1984:Drivers/STM32H5xx_HAL_Driver/Src/stm32h5xx_hal_rtc_ex.c **** {
 3338              		.loc 1 1984 1 is_stmt 1 view -0
 3339              		.cfi_startproc
 3340              		@ args = 0, pretend = 0, frame = 0
 3341              		@ frame_needed = 0, uses_anonymous_args = 0
 3342              		.loc 1 1984 1 is_stmt 0 view .LVU1051
 3343 0000 70B5     		push	{r4, r5, r6, lr}
 3344              	.LCFI16:
 3345              		.cfi_def_cfa_offset 16
 3346              		.cfi_offset 4, -16
 3347              		.cfi_offset 5, -12
 3348              		.cfi_offset 6, -8
 3349              		.cfi_offset 14, -4
 3350 0002 0C46     		mov	r4, r1
 3351 0004 1546     		mov	r5, r2
1985:Drivers/STM32H5xx_HAL_Driver/Src/stm32h5xx_hal_rtc_ex.c ****   /* Prevent unused argument(s) compilation warning */
1986:Drivers/STM32H5xx_HAL_Driver/Src/stm32h5xx_hal_rtc_ex.c ****   UNUSED(hrtc);
 3352              		.loc 1 1986 3 is_stmt 1 view .LVU1052
1987:Drivers/STM32H5xx_HAL_Driver/Src/stm32h5xx_hal_rtc_ex.c **** 
1988:Drivers/STM32H5xx_HAL_Driver/Src/stm32h5xx_hal_rtc_ex.c ****   assert_param(IS_RTC_TAMPER(Tamper));
 3353              		.loc 1 1988 3 view .LVU1053
1989:Drivers/STM32H5xx_HAL_Driver/Src/stm32h5xx_hal_rtc_ex.c **** 
1990:Drivers/STM32H5xx_HAL_Driver/Src/stm32h5xx_hal_rtc_ex.c ****   uint32_t tickstart = HAL_GetTick();
 3354              		.loc 1 1990 3 view .LVU1054
 3355              		.loc 1 1990 24 is_stmt 0 view .LVU1055
 3356 0006 FFF7FEFF 		bl	HAL_GetTick
 3357              	.LVL233:
 3358              		.loc 1 1990 24 view .LVU1056
 3359 000a 0646     		mov	r6, r0
 3360              	.LVL234:
1991:Drivers/STM32H5xx_HAL_Driver/Src/stm32h5xx_hal_rtc_ex.c **** 
1992:Drivers/STM32H5xx_HAL_Driver/Src/stm32h5xx_hal_rtc_ex.c ****   /* Get the status of the Interrupt */
1993:Drivers/STM32H5xx_HAL_Driver/Src/stm32h5xx_hal_rtc_ex.c ****   while (READ_BIT(TAMP->SR, Tamper) != Tamper)
 3361              		.loc 1 1993 3 is_stmt 1 view .LVU1057
 3362              	.L261:
 3363              		.loc 1 1993 37 view .LVU1058
 3364              		.loc 1 1993 10 is_stmt 0 view .LVU1059
 3365 000c 0C4B     		ldr	r3, .L269
 3366 000e 1B6B     		ldr	r3, [r3, #48]
 3367              		.loc 1 1993 37 view .LVU1060
 3368 0010 34EA0303 		bics	r3, r4, r3
 3369 0014 0ED0     		beq	.L264
1994:Drivers/STM32H5xx_HAL_Driver/Src/stm32h5xx_hal_rtc_ex.c ****   {
1995:Drivers/STM32H5xx_HAL_Driver/Src/stm32h5xx_hal_rtc_ex.c ****     if (Timeout != HAL_MAX_DELAY)
 3370              		.loc 1 1995 5 is_stmt 1 view .LVU1061
 3371              		.loc 1 1995 8 is_stmt 0 view .LVU1062
 3372 0016 B5F1FF3F 		cmp	r5, #-1
ARM GAS  C:\Users\DELL\AppData\Local\Temp\ccMtHSyM.s 			page 99


 3373 001a F7D0     		beq	.L261
1996:Drivers/STM32H5xx_HAL_Driver/Src/stm32h5xx_hal_rtc_ex.c ****     {
1997:Drivers/STM32H5xx_HAL_Driver/Src/stm32h5xx_hal_rtc_ex.c ****       if (((HAL_GetTick() - tickstart) > Timeout) || (Timeout == 0U))
 3374              		.loc 1 1997 7 is_stmt 1 view .LVU1063
 3375              		.loc 1 1997 13 is_stmt 0 view .LVU1064
 3376 001c FFF7FEFF 		bl	HAL_GetTick
 3377              	.LVL235:
 3378              		.loc 1 1997 27 discriminator 1 view .LVU1065
 3379 0020 801B     		subs	r0, r0, r6
 3380              		.loc 1 1997 10 discriminator 1 view .LVU1066
 3381 0022 A842     		cmp	r0, r5
 3382 0024 01D8     		bhi	.L262
 3383              		.loc 1 1997 51 discriminator 1 view .LVU1067
 3384 0026 002D     		cmp	r5, #0
 3385 0028 F0D1     		bne	.L261
 3386              	.L262:
1998:Drivers/STM32H5xx_HAL_Driver/Src/stm32h5xx_hal_rtc_ex.c ****       {
1999:Drivers/STM32H5xx_HAL_Driver/Src/stm32h5xx_hal_rtc_ex.c ****         /* New check to avoid false timeout detection in case of preemption */
2000:Drivers/STM32H5xx_HAL_Driver/Src/stm32h5xx_hal_rtc_ex.c ****         if (READ_BIT(TAMP->SR, Tamper) != Tamper)
 3387              		.loc 1 2000 9 is_stmt 1 view .LVU1068
 3388              		.loc 1 2000 13 is_stmt 0 view .LVU1069
 3389 002a 054B     		ldr	r3, .L269
 3390 002c 1B6B     		ldr	r3, [r3, #48]
 3391              		.loc 1 2000 12 view .LVU1070
 3392 002e 34EA0303 		bics	r3, r4, r3
 3393 0032 03D1     		bne	.L268
 3394              	.L264:
2001:Drivers/STM32H5xx_HAL_Driver/Src/stm32h5xx_hal_rtc_ex.c ****         {
2002:Drivers/STM32H5xx_HAL_Driver/Src/stm32h5xx_hal_rtc_ex.c ****           return HAL_TIMEOUT;
2003:Drivers/STM32H5xx_HAL_Driver/Src/stm32h5xx_hal_rtc_ex.c ****         }
2004:Drivers/STM32H5xx_HAL_Driver/Src/stm32h5xx_hal_rtc_ex.c ****         else
2005:Drivers/STM32H5xx_HAL_Driver/Src/stm32h5xx_hal_rtc_ex.c ****         {
2006:Drivers/STM32H5xx_HAL_Driver/Src/stm32h5xx_hal_rtc_ex.c ****           break;
2007:Drivers/STM32H5xx_HAL_Driver/Src/stm32h5xx_hal_rtc_ex.c ****         }
2008:Drivers/STM32H5xx_HAL_Driver/Src/stm32h5xx_hal_rtc_ex.c ****       }
2009:Drivers/STM32H5xx_HAL_Driver/Src/stm32h5xx_hal_rtc_ex.c ****     }
2010:Drivers/STM32H5xx_HAL_Driver/Src/stm32h5xx_hal_rtc_ex.c ****   }
2011:Drivers/STM32H5xx_HAL_Driver/Src/stm32h5xx_hal_rtc_ex.c **** 
2012:Drivers/STM32H5xx_HAL_Driver/Src/stm32h5xx_hal_rtc_ex.c ****   /* Clear the Tamper Flag */
2013:Drivers/STM32H5xx_HAL_Driver/Src/stm32h5xx_hal_rtc_ex.c ****   WRITE_REG(TAMP->SCR, Tamper);
 3395              		.loc 1 2013 3 is_stmt 1 view .LVU1071
 3396 0034 024B     		ldr	r3, .L269
 3397 0036 DC63     		str	r4, [r3, #60]
2014:Drivers/STM32H5xx_HAL_Driver/Src/stm32h5xx_hal_rtc_ex.c **** 
2015:Drivers/STM32H5xx_HAL_Driver/Src/stm32h5xx_hal_rtc_ex.c ****   return HAL_OK;
 3398              		.loc 1 2015 3 view .LVU1072
 3399              		.loc 1 2015 10 is_stmt 0 view .LVU1073
 3400 0038 0020     		movs	r0, #0
 3401              	.L263:
2016:Drivers/STM32H5xx_HAL_Driver/Src/stm32h5xx_hal_rtc_ex.c **** }
 3402              		.loc 1 2016 1 view .LVU1074
 3403 003a 70BD     		pop	{r4, r5, r6, pc}
 3404              	.LVL236:
 3405              	.L268:
2002:Drivers/STM32H5xx_HAL_Driver/Src/stm32h5xx_hal_rtc_ex.c ****         }
 3406              		.loc 1 2002 18 view .LVU1075
 3407 003c 0320     		movs	r0, #3
ARM GAS  C:\Users\DELL\AppData\Local\Temp\ccMtHSyM.s 			page 100


 3408 003e FCE7     		b	.L263
 3409              	.L270:
 3410              		.align	2
 3411              	.L269:
 3412 0040 007C0044 		.word	1140882432
 3413              		.cfi_endproc
 3414              	.LFE337:
 3416              		.section	.text.HAL_RTCEx_SetInternalTamper,"ax",%progbits
 3417              		.align	1
 3418              		.global	HAL_RTCEx_SetInternalTamper
 3419              		.syntax unified
 3420              		.thumb
 3421              		.thumb_func
 3423              	HAL_RTCEx_SetInternalTamper:
 3424              	.LVL237:
 3425              	.LFB338:
2017:Drivers/STM32H5xx_HAL_Driver/Src/stm32h5xx_hal_rtc_ex.c **** 
2018:Drivers/STM32H5xx_HAL_Driver/Src/stm32h5xx_hal_rtc_ex.c **** 
2019:Drivers/STM32H5xx_HAL_Driver/Src/stm32h5xx_hal_rtc_ex.c **** /**
2020:Drivers/STM32H5xx_HAL_Driver/Src/stm32h5xx_hal_rtc_ex.c ****   * @brief  Set Internal Tamper
2021:Drivers/STM32H5xx_HAL_Driver/Src/stm32h5xx_hal_rtc_ex.c ****   * @param  hrtc RTC handle
2022:Drivers/STM32H5xx_HAL_Driver/Src/stm32h5xx_hal_rtc_ex.c ****   * @param  sIntTamper Pointer to Internal Tamper Structure.
2023:Drivers/STM32H5xx_HAL_Driver/Src/stm32h5xx_hal_rtc_ex.c ****   * @retval HAL status
2024:Drivers/STM32H5xx_HAL_Driver/Src/stm32h5xx_hal_rtc_ex.c ****   */
2025:Drivers/STM32H5xx_HAL_Driver/Src/stm32h5xx_hal_rtc_ex.c **** HAL_StatusTypeDef HAL_RTCEx_SetInternalTamper(const RTC_HandleTypeDef *hrtc,
2026:Drivers/STM32H5xx_HAL_Driver/Src/stm32h5xx_hal_rtc_ex.c ****                                               const RTC_InternalTamperTypeDef *sIntTamper)
2027:Drivers/STM32H5xx_HAL_Driver/Src/stm32h5xx_hal_rtc_ex.c **** {
 3426              		.loc 1 2027 1 is_stmt 1 view -0
 3427              		.cfi_startproc
 3428              		@ args = 0, pretend = 0, frame = 0
 3429              		@ frame_needed = 0, uses_anonymous_args = 0
 3430              		@ link register save eliminated.
2028:Drivers/STM32H5xx_HAL_Driver/Src/stm32h5xx_hal_rtc_ex.c ****   /* Prevent unused argument(s) compilation warning */
2029:Drivers/STM32H5xx_HAL_Driver/Src/stm32h5xx_hal_rtc_ex.c ****   UNUSED(hrtc);
 3431              		.loc 1 2029 3 view .LVU1077
2030:Drivers/STM32H5xx_HAL_Driver/Src/stm32h5xx_hal_rtc_ex.c **** 
2031:Drivers/STM32H5xx_HAL_Driver/Src/stm32h5xx_hal_rtc_ex.c ****   /* Check the parameters */
2032:Drivers/STM32H5xx_HAL_Driver/Src/stm32h5xx_hal_rtc_ex.c ****   assert_param(IS_RTC_INTERNAL_TAMPER(sIntTamper->IntTamper));
 3432              		.loc 1 2032 3 view .LVU1078
2033:Drivers/STM32H5xx_HAL_Driver/Src/stm32h5xx_hal_rtc_ex.c ****   assert_param(IS_RTC_TAMPER_TIMESTAMPONTAMPER_DETECTION(sIntTamper->TimeStampOnTamperDetection));
 3433              		.loc 1 2033 3 view .LVU1079
2034:Drivers/STM32H5xx_HAL_Driver/Src/stm32h5xx_hal_rtc_ex.c ****   assert_param(IS_RTC_TAMPER_ERASE_MODE(sIntTamper->NoErase));
 3434              		.loc 1 2034 3 view .LVU1080
2035:Drivers/STM32H5xx_HAL_Driver/Src/stm32h5xx_hal_rtc_ex.c **** 
2036:Drivers/STM32H5xx_HAL_Driver/Src/stm32h5xx_hal_rtc_ex.c ****   /* Timestamp enable on internal tamper */
2037:Drivers/STM32H5xx_HAL_Driver/Src/stm32h5xx_hal_rtc_ex.c ****   if (READ_BIT(RTC->CR, RTC_CR_TAMPTS) != sIntTamper->TimeStampOnTamperDetection)
 3435              		.loc 1 2037 3 view .LVU1081
 3436              		.loc 1 2037 7 is_stmt 0 view .LVU1082
 3437 0000 104B     		ldr	r3, .L275
 3438 0002 9B69     		ldr	r3, [r3, #24]
 3439 0004 03F00073 		and	r3, r3, #33554432
 3440              		.loc 1 2037 53 view .LVU1083
 3441 0008 4A68     		ldr	r2, [r1, #4]
 3442              		.loc 1 2037 6 view .LVU1084
 3443 000a 9342     		cmp	r3, r2
 3444 000c 05D0     		beq	.L272
2038:Drivers/STM32H5xx_HAL_Driver/Src/stm32h5xx_hal_rtc_ex.c ****   {
ARM GAS  C:\Users\DELL\AppData\Local\Temp\ccMtHSyM.s 			page 101


2039:Drivers/STM32H5xx_HAL_Driver/Src/stm32h5xx_hal_rtc_ex.c ****     MODIFY_REG(RTC->CR, RTC_CR_TAMPTS, sIntTamper->TimeStampOnTamperDetection);
 3445              		.loc 1 2039 5 is_stmt 1 view .LVU1085
 3446 000e 0D48     		ldr	r0, .L275
 3447              	.LVL238:
 3448              		.loc 1 2039 5 is_stmt 0 view .LVU1086
 3449 0010 8369     		ldr	r3, [r0, #24]
 3450 0012 23F00073 		bic	r3, r3, #33554432
 3451 0016 1A43     		orrs	r2, r2, r3
 3452 0018 8261     		str	r2, [r0, #24]
 3453              	.L272:
2040:Drivers/STM32H5xx_HAL_Driver/Src/stm32h5xx_hal_rtc_ex.c ****   }
2041:Drivers/STM32H5xx_HAL_Driver/Src/stm32h5xx_hal_rtc_ex.c **** 
2042:Drivers/STM32H5xx_HAL_Driver/Src/stm32h5xx_hal_rtc_ex.c ****   /* No Erase Backup register enable for Internal Tamper */
2043:Drivers/STM32H5xx_HAL_Driver/Src/stm32h5xx_hal_rtc_ex.c ****   if (sIntTamper->NoErase != RTC_TAMPER_ERASE_BACKUP_ENABLE)
 3454              		.loc 1 2043 3 is_stmt 1 view .LVU1087
 3455              		.loc 1 2043 17 is_stmt 0 view .LVU1088
 3456 001a 8B68     		ldr	r3, [r1, #8]
 3457              		.loc 1 2043 6 view .LVU1089
 3458 001c 5BB1     		cbz	r3, .L273
2044:Drivers/STM32H5xx_HAL_Driver/Src/stm32h5xx_hal_rtc_ex.c ****   {
2045:Drivers/STM32H5xx_HAL_Driver/Src/stm32h5xx_hal_rtc_ex.c ****     SET_BIT(TAMP->CR3, (sIntTamper->IntTamper >> (TAMP_CR1_ITAMP1E_Pos - TAMP_CR3_ITAMP1NOER_Pos)))
 3459              		.loc 1 2045 5 is_stmt 1 view .LVU1090
 3460 001e 0A4A     		ldr	r2, .L275+4
 3461 0020 9368     		ldr	r3, [r2, #8]
 3462 0022 4888     		ldrh	r0, [r1, #2]
 3463 0024 0343     		orrs	r3, r3, r0
 3464 0026 9360     		str	r3, [r2, #8]
 3465              	.L274:
2046:Drivers/STM32H5xx_HAL_Driver/Src/stm32h5xx_hal_rtc_ex.c ****   }
2047:Drivers/STM32H5xx_HAL_Driver/Src/stm32h5xx_hal_rtc_ex.c ****   else
2048:Drivers/STM32H5xx_HAL_Driver/Src/stm32h5xx_hal_rtc_ex.c ****   {
2049:Drivers/STM32H5xx_HAL_Driver/Src/stm32h5xx_hal_rtc_ex.c ****     CLEAR_BIT(TAMP->CR3, (sIntTamper->IntTamper >> (TAMP_CR1_ITAMP1E_Pos - TAMP_CR3_ITAMP1NOER_Pos)
2050:Drivers/STM32H5xx_HAL_Driver/Src/stm32h5xx_hal_rtc_ex.c ****   }
2051:Drivers/STM32H5xx_HAL_Driver/Src/stm32h5xx_hal_rtc_ex.c **** 
2052:Drivers/STM32H5xx_HAL_Driver/Src/stm32h5xx_hal_rtc_ex.c ****   /* Enable Internal Tamper */
2053:Drivers/STM32H5xx_HAL_Driver/Src/stm32h5xx_hal_rtc_ex.c ****   SET_BIT(TAMP->CR1, sIntTamper->IntTamper);
 3466              		.loc 1 2053 3 view .LVU1091
 3467 0028 074A     		ldr	r2, .L275+4
 3468 002a 1368     		ldr	r3, [r2]
 3469 002c 0968     		ldr	r1, [r1]
 3470              	.LVL239:
 3471              		.loc 1 2053 3 is_stmt 0 view .LVU1092
 3472 002e 0B43     		orrs	r3, r3, r1
 3473 0030 1360     		str	r3, [r2]
2054:Drivers/STM32H5xx_HAL_Driver/Src/stm32h5xx_hal_rtc_ex.c **** 
2055:Drivers/STM32H5xx_HAL_Driver/Src/stm32h5xx_hal_rtc_ex.c ****   return HAL_OK;
 3474              		.loc 1 2055 3 is_stmt 1 view .LVU1093
2056:Drivers/STM32H5xx_HAL_Driver/Src/stm32h5xx_hal_rtc_ex.c **** }
 3475              		.loc 1 2056 1 is_stmt 0 view .LVU1094
 3476 0032 0020     		movs	r0, #0
 3477 0034 7047     		bx	lr
 3478              	.LVL240:
 3479              	.L273:
2049:Drivers/STM32H5xx_HAL_Driver/Src/stm32h5xx_hal_rtc_ex.c ****   }
 3480              		.loc 1 2049 5 is_stmt 1 view .LVU1095
 3481 0036 044A     		ldr	r2, .L275+4
 3482 0038 9368     		ldr	r3, [r2, #8]
ARM GAS  C:\Users\DELL\AppData\Local\Temp\ccMtHSyM.s 			page 102


 3483 003a 4888     		ldrh	r0, [r1, #2]
 3484 003c 23EA0003 		bic	r3, r3, r0
 3485 0040 9360     		str	r3, [r2, #8]
 3486 0042 F1E7     		b	.L274
 3487              	.L276:
 3488              		.align	2
 3489              	.L275:
 3490 0044 00780044 		.word	1140881408
 3491 0048 007C0044 		.word	1140882432
 3492              		.cfi_endproc
 3493              	.LFE338:
 3495              		.section	.text.HAL_RTCEx_SetInternalTamper_IT,"ax",%progbits
 3496              		.align	1
 3497              		.global	HAL_RTCEx_SetInternalTamper_IT
 3498              		.syntax unified
 3499              		.thumb
 3500              		.thumb_func
 3502              	HAL_RTCEx_SetInternalTamper_IT:
 3503              	.LVL241:
 3504              	.LFB339:
2057:Drivers/STM32H5xx_HAL_Driver/Src/stm32h5xx_hal_rtc_ex.c **** 
2058:Drivers/STM32H5xx_HAL_Driver/Src/stm32h5xx_hal_rtc_ex.c **** 
2059:Drivers/STM32H5xx_HAL_Driver/Src/stm32h5xx_hal_rtc_ex.c **** /**
2060:Drivers/STM32H5xx_HAL_Driver/Src/stm32h5xx_hal_rtc_ex.c ****   * @brief  Set Internal Tamper in interrupt mode
2061:Drivers/STM32H5xx_HAL_Driver/Src/stm32h5xx_hal_rtc_ex.c ****   * @note   The application must ensure that the EXTI TAMP interrupt line is enabled.
2062:Drivers/STM32H5xx_HAL_Driver/Src/stm32h5xx_hal_rtc_ex.c ****   * @param  hrtc RTC handle
2063:Drivers/STM32H5xx_HAL_Driver/Src/stm32h5xx_hal_rtc_ex.c ****   * @param  sIntTamper Pointer to Internal Tamper Structure.
2064:Drivers/STM32H5xx_HAL_Driver/Src/stm32h5xx_hal_rtc_ex.c ****   * @retval HAL status
2065:Drivers/STM32H5xx_HAL_Driver/Src/stm32h5xx_hal_rtc_ex.c ****   */
2066:Drivers/STM32H5xx_HAL_Driver/Src/stm32h5xx_hal_rtc_ex.c **** HAL_StatusTypeDef HAL_RTCEx_SetInternalTamper_IT(const RTC_HandleTypeDef *hrtc,
2067:Drivers/STM32H5xx_HAL_Driver/Src/stm32h5xx_hal_rtc_ex.c ****                                                  const RTC_InternalTamperTypeDef *sIntTamper)
2068:Drivers/STM32H5xx_HAL_Driver/Src/stm32h5xx_hal_rtc_ex.c **** {
 3505              		.loc 1 2068 1 view -0
 3506              		.cfi_startproc
 3507              		@ args = 0, pretend = 0, frame = 0
 3508              		@ frame_needed = 0, uses_anonymous_args = 0
 3509              		@ link register save eliminated.
2069:Drivers/STM32H5xx_HAL_Driver/Src/stm32h5xx_hal_rtc_ex.c ****   /* Prevent unused argument(s) compilation warning */
2070:Drivers/STM32H5xx_HAL_Driver/Src/stm32h5xx_hal_rtc_ex.c ****   UNUSED(hrtc);
 3510              		.loc 1 2070 3 view .LVU1097
2071:Drivers/STM32H5xx_HAL_Driver/Src/stm32h5xx_hal_rtc_ex.c **** 
2072:Drivers/STM32H5xx_HAL_Driver/Src/stm32h5xx_hal_rtc_ex.c ****   /* Check the parameters */
2073:Drivers/STM32H5xx_HAL_Driver/Src/stm32h5xx_hal_rtc_ex.c ****   assert_param(IS_RTC_INTERNAL_TAMPER(sIntTamper->IntTamper));
 3511              		.loc 1 2073 3 view .LVU1098
2074:Drivers/STM32H5xx_HAL_Driver/Src/stm32h5xx_hal_rtc_ex.c ****   assert_param(IS_RTC_TAMPER_TIMESTAMPONTAMPER_DETECTION(sIntTamper->TimeStampOnTamperDetection));
 3512              		.loc 1 2074 3 view .LVU1099
2075:Drivers/STM32H5xx_HAL_Driver/Src/stm32h5xx_hal_rtc_ex.c ****   assert_param(IS_RTC_TAMPER_ERASE_MODE(sIntTamper->NoErase));
 3513              		.loc 1 2075 3 view .LVU1100
2076:Drivers/STM32H5xx_HAL_Driver/Src/stm32h5xx_hal_rtc_ex.c **** 
2077:Drivers/STM32H5xx_HAL_Driver/Src/stm32h5xx_hal_rtc_ex.c ****   /* Timestamp enable on internal tamper */
2078:Drivers/STM32H5xx_HAL_Driver/Src/stm32h5xx_hal_rtc_ex.c ****   if (READ_BIT(RTC->CR, RTC_CR_TAMPTS) != sIntTamper->TimeStampOnTamperDetection)
 3514              		.loc 1 2078 3 view .LVU1101
 3515              		.loc 1 2078 7 is_stmt 0 view .LVU1102
 3516 0000 124B     		ldr	r3, .L281
 3517 0002 9B69     		ldr	r3, [r3, #24]
 3518 0004 03F00073 		and	r3, r3, #33554432
 3519              		.loc 1 2078 53 view .LVU1103
ARM GAS  C:\Users\DELL\AppData\Local\Temp\ccMtHSyM.s 			page 103


 3520 0008 4A68     		ldr	r2, [r1, #4]
 3521              		.loc 1 2078 6 view .LVU1104
 3522 000a 9342     		cmp	r3, r2
 3523 000c 05D0     		beq	.L278
2079:Drivers/STM32H5xx_HAL_Driver/Src/stm32h5xx_hal_rtc_ex.c ****   {
2080:Drivers/STM32H5xx_HAL_Driver/Src/stm32h5xx_hal_rtc_ex.c ****     MODIFY_REG(RTC->CR, RTC_CR_TAMPTS, sIntTamper->TimeStampOnTamperDetection);
 3524              		.loc 1 2080 5 is_stmt 1 view .LVU1105
 3525 000e 0F48     		ldr	r0, .L281
 3526              	.LVL242:
 3527              		.loc 1 2080 5 is_stmt 0 view .LVU1106
 3528 0010 8369     		ldr	r3, [r0, #24]
 3529 0012 23F00073 		bic	r3, r3, #33554432
 3530 0016 1A43     		orrs	r2, r2, r3
 3531 0018 8261     		str	r2, [r0, #24]
 3532              	.L278:
2081:Drivers/STM32H5xx_HAL_Driver/Src/stm32h5xx_hal_rtc_ex.c ****   }
2082:Drivers/STM32H5xx_HAL_Driver/Src/stm32h5xx_hal_rtc_ex.c **** 
2083:Drivers/STM32H5xx_HAL_Driver/Src/stm32h5xx_hal_rtc_ex.c ****   /* Interrupt enable register */
2084:Drivers/STM32H5xx_HAL_Driver/Src/stm32h5xx_hal_rtc_ex.c ****   SET_BIT(TAMP->IER, sIntTamper->IntTamper);
 3533              		.loc 1 2084 3 is_stmt 1 view .LVU1107
 3534 001a 0D4A     		ldr	r2, .L281+4
 3535 001c D36A     		ldr	r3, [r2, #44]
 3536 001e 0868     		ldr	r0, [r1]
 3537 0020 0343     		orrs	r3, r3, r0
 3538 0022 D362     		str	r3, [r2, #44]
2085:Drivers/STM32H5xx_HAL_Driver/Src/stm32h5xx_hal_rtc_ex.c **** 
2086:Drivers/STM32H5xx_HAL_Driver/Src/stm32h5xx_hal_rtc_ex.c ****   /* No Erase Backup register enable for Internal Tamper */
2087:Drivers/STM32H5xx_HAL_Driver/Src/stm32h5xx_hal_rtc_ex.c ****   if (sIntTamper->NoErase != RTC_TAMPER_ERASE_BACKUP_ENABLE)
 3539              		.loc 1 2087 3 view .LVU1108
 3540              		.loc 1 2087 17 is_stmt 0 view .LVU1109
 3541 0024 8B68     		ldr	r3, [r1, #8]
 3542              		.loc 1 2087 6 view .LVU1110
 3543 0026 53B1     		cbz	r3, .L279
2088:Drivers/STM32H5xx_HAL_Driver/Src/stm32h5xx_hal_rtc_ex.c ****   {
2089:Drivers/STM32H5xx_HAL_Driver/Src/stm32h5xx_hal_rtc_ex.c ****     SET_BIT(TAMP->CR3, (sIntTamper->IntTamper >> (TAMP_CR1_ITAMP1E_Pos - TAMP_CR3_ITAMP1NOER_Pos)))
 3544              		.loc 1 2089 5 is_stmt 1 view .LVU1111
 3545 0028 9368     		ldr	r3, [r2, #8]
 3546 002a 4888     		ldrh	r0, [r1, #2]
 3547 002c 0343     		orrs	r3, r3, r0
 3548 002e 9360     		str	r3, [r2, #8]
 3549              	.L280:
2090:Drivers/STM32H5xx_HAL_Driver/Src/stm32h5xx_hal_rtc_ex.c ****   }
2091:Drivers/STM32H5xx_HAL_Driver/Src/stm32h5xx_hal_rtc_ex.c ****   else
2092:Drivers/STM32H5xx_HAL_Driver/Src/stm32h5xx_hal_rtc_ex.c ****   {
2093:Drivers/STM32H5xx_HAL_Driver/Src/stm32h5xx_hal_rtc_ex.c ****     CLEAR_BIT(TAMP->CR3, (sIntTamper->IntTamper >> (TAMP_CR1_ITAMP1E_Pos - TAMP_CR3_ITAMP1NOER_Pos)
2094:Drivers/STM32H5xx_HAL_Driver/Src/stm32h5xx_hal_rtc_ex.c ****   }
2095:Drivers/STM32H5xx_HAL_Driver/Src/stm32h5xx_hal_rtc_ex.c **** 
2096:Drivers/STM32H5xx_HAL_Driver/Src/stm32h5xx_hal_rtc_ex.c ****   /* Enable Internal Tamper */
2097:Drivers/STM32H5xx_HAL_Driver/Src/stm32h5xx_hal_rtc_ex.c ****   SET_BIT(TAMP->CR1, sIntTamper->IntTamper);
 3550              		.loc 1 2097 3 view .LVU1112
 3551 0030 074A     		ldr	r2, .L281+4
 3552 0032 1368     		ldr	r3, [r2]
 3553 0034 0968     		ldr	r1, [r1]
 3554              	.LVL243:
 3555              		.loc 1 2097 3 is_stmt 0 view .LVU1113
 3556 0036 0B43     		orrs	r3, r3, r1
 3557 0038 1360     		str	r3, [r2]
ARM GAS  C:\Users\DELL\AppData\Local\Temp\ccMtHSyM.s 			page 104


2098:Drivers/STM32H5xx_HAL_Driver/Src/stm32h5xx_hal_rtc_ex.c **** 
2099:Drivers/STM32H5xx_HAL_Driver/Src/stm32h5xx_hal_rtc_ex.c ****   return HAL_OK;
 3558              		.loc 1 2099 3 is_stmt 1 view .LVU1114
2100:Drivers/STM32H5xx_HAL_Driver/Src/stm32h5xx_hal_rtc_ex.c **** }
 3559              		.loc 1 2100 1 is_stmt 0 view .LVU1115
 3560 003a 0020     		movs	r0, #0
 3561 003c 7047     		bx	lr
 3562              	.LVL244:
 3563              	.L279:
2093:Drivers/STM32H5xx_HAL_Driver/Src/stm32h5xx_hal_rtc_ex.c ****   }
 3564              		.loc 1 2093 5 is_stmt 1 view .LVU1116
 3565 003e 044A     		ldr	r2, .L281+4
 3566 0040 9368     		ldr	r3, [r2, #8]
 3567 0042 4888     		ldrh	r0, [r1, #2]
 3568 0044 23EA0003 		bic	r3, r3, r0
 3569 0048 9360     		str	r3, [r2, #8]
 3570 004a F1E7     		b	.L280
 3571              	.L282:
 3572              		.align	2
 3573              	.L281:
 3574 004c 00780044 		.word	1140881408
 3575 0050 007C0044 		.word	1140882432
 3576              		.cfi_endproc
 3577              	.LFE339:
 3579              		.section	.text.HAL_RTCEx_DeactivateInternalTamper,"ax",%progbits
 3580              		.align	1
 3581              		.global	HAL_RTCEx_DeactivateInternalTamper
 3582              		.syntax unified
 3583              		.thumb
 3584              		.thumb_func
 3586              	HAL_RTCEx_DeactivateInternalTamper:
 3587              	.LVL245:
 3588              	.LFB340:
2101:Drivers/STM32H5xx_HAL_Driver/Src/stm32h5xx_hal_rtc_ex.c **** 
2102:Drivers/STM32H5xx_HAL_Driver/Src/stm32h5xx_hal_rtc_ex.c **** /**
2103:Drivers/STM32H5xx_HAL_Driver/Src/stm32h5xx_hal_rtc_ex.c ****   * @brief  Deactivate Internal Tamper.
2104:Drivers/STM32H5xx_HAL_Driver/Src/stm32h5xx_hal_rtc_ex.c ****   * @param  hrtc RTC handle
2105:Drivers/STM32H5xx_HAL_Driver/Src/stm32h5xx_hal_rtc_ex.c ****   * @param  IntTamper Selected internal tamper event.
2106:Drivers/STM32H5xx_HAL_Driver/Src/stm32h5xx_hal_rtc_ex.c ****   *          This parameter can be any combination of existing internal tampers.
2107:Drivers/STM32H5xx_HAL_Driver/Src/stm32h5xx_hal_rtc_ex.c ****   * @retval HAL status
2108:Drivers/STM32H5xx_HAL_Driver/Src/stm32h5xx_hal_rtc_ex.c ****   */
2109:Drivers/STM32H5xx_HAL_Driver/Src/stm32h5xx_hal_rtc_ex.c **** HAL_StatusTypeDef HAL_RTCEx_DeactivateInternalTamper(const RTC_HandleTypeDef *hrtc, uint32_t IntTam
2110:Drivers/STM32H5xx_HAL_Driver/Src/stm32h5xx_hal_rtc_ex.c **** {
 3589              		.loc 1 2110 1 view -0
 3590              		.cfi_startproc
 3591              		@ args = 0, pretend = 0, frame = 0
 3592              		@ frame_needed = 0, uses_anonymous_args = 0
 3593              		@ link register save eliminated.
2111:Drivers/STM32H5xx_HAL_Driver/Src/stm32h5xx_hal_rtc_ex.c ****   /* Prevent unused argument(s) compilation warning */
2112:Drivers/STM32H5xx_HAL_Driver/Src/stm32h5xx_hal_rtc_ex.c ****   UNUSED(hrtc);
 3594              		.loc 1 2112 3 view .LVU1118
2113:Drivers/STM32H5xx_HAL_Driver/Src/stm32h5xx_hal_rtc_ex.c **** 
2114:Drivers/STM32H5xx_HAL_Driver/Src/stm32h5xx_hal_rtc_ex.c ****   assert_param(IS_RTC_INTERNAL_TAMPER(IntTamper));
 3595              		.loc 1 2114 3 view .LVU1119
2115:Drivers/STM32H5xx_HAL_Driver/Src/stm32h5xx_hal_rtc_ex.c **** 
2116:Drivers/STM32H5xx_HAL_Driver/Src/stm32h5xx_hal_rtc_ex.c ****   /* Disable the selected Tamper pin */
2117:Drivers/STM32H5xx_HAL_Driver/Src/stm32h5xx_hal_rtc_ex.c ****   CLEAR_BIT(TAMP->CR1, IntTamper);
ARM GAS  C:\Users\DELL\AppData\Local\Temp\ccMtHSyM.s 			page 105


 3596              		.loc 1 2117 3 view .LVU1120
 3597 0000 054B     		ldr	r3, .L284
 3598 0002 1A68     		ldr	r2, [r3]
 3599 0004 22EA0102 		bic	r2, r2, r1
 3600 0008 1A60     		str	r2, [r3]
2118:Drivers/STM32H5xx_HAL_Driver/Src/stm32h5xx_hal_rtc_ex.c **** 
2119:Drivers/STM32H5xx_HAL_Driver/Src/stm32h5xx_hal_rtc_ex.c ****   /* Clear internal tamper interrupt mode configuration */
2120:Drivers/STM32H5xx_HAL_Driver/Src/stm32h5xx_hal_rtc_ex.c ****   CLEAR_BIT(TAMP->IER, IntTamper);
 3601              		.loc 1 2120 3 view .LVU1121
 3602 000a DA6A     		ldr	r2, [r3, #44]
 3603 000c 22EA0102 		bic	r2, r2, r1
 3604 0010 DA62     		str	r2, [r3, #44]
2121:Drivers/STM32H5xx_HAL_Driver/Src/stm32h5xx_hal_rtc_ex.c **** 
2122:Drivers/STM32H5xx_HAL_Driver/Src/stm32h5xx_hal_rtc_ex.c ****   /* Clear internal tamper interrupt */
2123:Drivers/STM32H5xx_HAL_Driver/Src/stm32h5xx_hal_rtc_ex.c ****   WRITE_REG(TAMP->SCR, IntTamper);
 3605              		.loc 1 2123 3 view .LVU1122
 3606 0012 D963     		str	r1, [r3, #60]
2124:Drivers/STM32H5xx_HAL_Driver/Src/stm32h5xx_hal_rtc_ex.c **** 
2125:Drivers/STM32H5xx_HAL_Driver/Src/stm32h5xx_hal_rtc_ex.c ****   return HAL_OK;
 3607              		.loc 1 2125 3 view .LVU1123
2126:Drivers/STM32H5xx_HAL_Driver/Src/stm32h5xx_hal_rtc_ex.c **** }
 3608              		.loc 1 2126 1 is_stmt 0 view .LVU1124
 3609 0014 0020     		movs	r0, #0
 3610              	.LVL246:
 3611              		.loc 1 2126 1 view .LVU1125
 3612 0016 7047     		bx	lr
 3613              	.L285:
 3614              		.align	2
 3615              	.L284:
 3616 0018 007C0044 		.word	1140882432
 3617              		.cfi_endproc
 3618              	.LFE340:
 3620              		.section	.text.HAL_RTCEx_PollForInternalTamperEvent,"ax",%progbits
 3621              		.align	1
 3622              		.global	HAL_RTCEx_PollForInternalTamperEvent
 3623              		.syntax unified
 3624              		.thumb
 3625              		.thumb_func
 3627              	HAL_RTCEx_PollForInternalTamperEvent:
 3628              	.LVL247:
 3629              	.LFB341:
2127:Drivers/STM32H5xx_HAL_Driver/Src/stm32h5xx_hal_rtc_ex.c **** 
2128:Drivers/STM32H5xx_HAL_Driver/Src/stm32h5xx_hal_rtc_ex.c **** /**
2129:Drivers/STM32H5xx_HAL_Driver/Src/stm32h5xx_hal_rtc_ex.c ****   * @brief  Internal Tamper event polling.
2130:Drivers/STM32H5xx_HAL_Driver/Src/stm32h5xx_hal_rtc_ex.c ****   * @param  hrtc RTC handle
2131:Drivers/STM32H5xx_HAL_Driver/Src/stm32h5xx_hal_rtc_ex.c ****   * @param  IntTamper selected tamper.
2132:Drivers/STM32H5xx_HAL_Driver/Src/stm32h5xx_hal_rtc_ex.c ****   *          This parameter can be any combination of existing internal tampers.
2133:Drivers/STM32H5xx_HAL_Driver/Src/stm32h5xx_hal_rtc_ex.c ****   * @param  Timeout Timeout duration
2134:Drivers/STM32H5xx_HAL_Driver/Src/stm32h5xx_hal_rtc_ex.c ****   * @retval HAL status
2135:Drivers/STM32H5xx_HAL_Driver/Src/stm32h5xx_hal_rtc_ex.c ****   */
2136:Drivers/STM32H5xx_HAL_Driver/Src/stm32h5xx_hal_rtc_ex.c **** HAL_StatusTypeDef HAL_RTCEx_PollForInternalTamperEvent(const RTC_HandleTypeDef *hrtc, uint32_t IntT
2137:Drivers/STM32H5xx_HAL_Driver/Src/stm32h5xx_hal_rtc_ex.c ****                                                        uint32_t Timeout)
2138:Drivers/STM32H5xx_HAL_Driver/Src/stm32h5xx_hal_rtc_ex.c **** {
 3630              		.loc 1 2138 1 is_stmt 1 view -0
 3631              		.cfi_startproc
 3632              		@ args = 0, pretend = 0, frame = 0
 3633              		@ frame_needed = 0, uses_anonymous_args = 0
ARM GAS  C:\Users\DELL\AppData\Local\Temp\ccMtHSyM.s 			page 106


 3634              		.loc 1 2138 1 is_stmt 0 view .LVU1127
 3635 0000 70B5     		push	{r4, r5, r6, lr}
 3636              	.LCFI17:
 3637              		.cfi_def_cfa_offset 16
 3638              		.cfi_offset 4, -16
 3639              		.cfi_offset 5, -12
 3640              		.cfi_offset 6, -8
 3641              		.cfi_offset 14, -4
 3642 0002 0C46     		mov	r4, r1
 3643 0004 1546     		mov	r5, r2
2139:Drivers/STM32H5xx_HAL_Driver/Src/stm32h5xx_hal_rtc_ex.c ****   /* Prevent unused argument(s) compilation warning */
2140:Drivers/STM32H5xx_HAL_Driver/Src/stm32h5xx_hal_rtc_ex.c ****   UNUSED(hrtc);
 3644              		.loc 1 2140 3 is_stmt 1 view .LVU1128
2141:Drivers/STM32H5xx_HAL_Driver/Src/stm32h5xx_hal_rtc_ex.c **** 
2142:Drivers/STM32H5xx_HAL_Driver/Src/stm32h5xx_hal_rtc_ex.c ****   assert_param(IS_RTC_INTERNAL_TAMPER(IntTamper));
 3645              		.loc 1 2142 3 view .LVU1129
2143:Drivers/STM32H5xx_HAL_Driver/Src/stm32h5xx_hal_rtc_ex.c **** 
2144:Drivers/STM32H5xx_HAL_Driver/Src/stm32h5xx_hal_rtc_ex.c ****   uint32_t tickstart = HAL_GetTick();
 3646              		.loc 1 2144 3 view .LVU1130
 3647              		.loc 1 2144 24 is_stmt 0 view .LVU1131
 3648 0006 FFF7FEFF 		bl	HAL_GetTick
 3649              	.LVL248:
 3650              		.loc 1 2144 24 view .LVU1132
 3651 000a 0646     		mov	r6, r0
 3652              	.LVL249:
2145:Drivers/STM32H5xx_HAL_Driver/Src/stm32h5xx_hal_rtc_ex.c **** 
2146:Drivers/STM32H5xx_HAL_Driver/Src/stm32h5xx_hal_rtc_ex.c ****   /* Get the status of the Interrupt */
2147:Drivers/STM32H5xx_HAL_Driver/Src/stm32h5xx_hal_rtc_ex.c ****   while (READ_BIT(TAMP->SR, IntTamper) != IntTamper)
 3653              		.loc 1 2147 3 is_stmt 1 view .LVU1133
 3654              	.L288:
 3655              		.loc 1 2147 40 view .LVU1134
 3656              		.loc 1 2147 10 is_stmt 0 view .LVU1135
 3657 000c 0C4B     		ldr	r3, .L296
 3658 000e 1B6B     		ldr	r3, [r3, #48]
 3659              		.loc 1 2147 40 view .LVU1136
 3660 0010 34EA0303 		bics	r3, r4, r3
 3661 0014 0ED0     		beq	.L291
2148:Drivers/STM32H5xx_HAL_Driver/Src/stm32h5xx_hal_rtc_ex.c ****   {
2149:Drivers/STM32H5xx_HAL_Driver/Src/stm32h5xx_hal_rtc_ex.c ****     if (Timeout != HAL_MAX_DELAY)
 3662              		.loc 1 2149 5 is_stmt 1 view .LVU1137
 3663              		.loc 1 2149 8 is_stmt 0 view .LVU1138
 3664 0016 B5F1FF3F 		cmp	r5, #-1
 3665 001a F7D0     		beq	.L288
2150:Drivers/STM32H5xx_HAL_Driver/Src/stm32h5xx_hal_rtc_ex.c ****     {
2151:Drivers/STM32H5xx_HAL_Driver/Src/stm32h5xx_hal_rtc_ex.c ****       if (((HAL_GetTick() - tickstart) > Timeout) || (Timeout == 0U))
 3666              		.loc 1 2151 7 is_stmt 1 view .LVU1139
 3667              		.loc 1 2151 13 is_stmt 0 view .LVU1140
 3668 001c FFF7FEFF 		bl	HAL_GetTick
 3669              	.LVL250:
 3670              		.loc 1 2151 27 discriminator 1 view .LVU1141
 3671 0020 801B     		subs	r0, r0, r6
 3672              		.loc 1 2151 10 discriminator 1 view .LVU1142
 3673 0022 A842     		cmp	r0, r5
 3674 0024 01D8     		bhi	.L289
 3675              		.loc 1 2151 51 discriminator 1 view .LVU1143
 3676 0026 002D     		cmp	r5, #0
 3677 0028 F0D1     		bne	.L288
ARM GAS  C:\Users\DELL\AppData\Local\Temp\ccMtHSyM.s 			page 107


 3678              	.L289:
2152:Drivers/STM32H5xx_HAL_Driver/Src/stm32h5xx_hal_rtc_ex.c ****       {
2153:Drivers/STM32H5xx_HAL_Driver/Src/stm32h5xx_hal_rtc_ex.c ****         /* New check to avoid false timeout detection in case of preemption */
2154:Drivers/STM32H5xx_HAL_Driver/Src/stm32h5xx_hal_rtc_ex.c ****         if (READ_BIT(TAMP->SR, IntTamper) != IntTamper)
 3679              		.loc 1 2154 9 is_stmt 1 view .LVU1144
 3680              		.loc 1 2154 13 is_stmt 0 view .LVU1145
 3681 002a 054B     		ldr	r3, .L296
 3682 002c 1B6B     		ldr	r3, [r3, #48]
 3683              		.loc 1 2154 12 view .LVU1146
 3684 002e 34EA0303 		bics	r3, r4, r3
 3685 0032 03D1     		bne	.L295
 3686              	.L291:
2155:Drivers/STM32H5xx_HAL_Driver/Src/stm32h5xx_hal_rtc_ex.c ****         {
2156:Drivers/STM32H5xx_HAL_Driver/Src/stm32h5xx_hal_rtc_ex.c ****           return HAL_TIMEOUT;
2157:Drivers/STM32H5xx_HAL_Driver/Src/stm32h5xx_hal_rtc_ex.c ****         }
2158:Drivers/STM32H5xx_HAL_Driver/Src/stm32h5xx_hal_rtc_ex.c ****         else
2159:Drivers/STM32H5xx_HAL_Driver/Src/stm32h5xx_hal_rtc_ex.c ****         {
2160:Drivers/STM32H5xx_HAL_Driver/Src/stm32h5xx_hal_rtc_ex.c ****           break;
2161:Drivers/STM32H5xx_HAL_Driver/Src/stm32h5xx_hal_rtc_ex.c ****         }
2162:Drivers/STM32H5xx_HAL_Driver/Src/stm32h5xx_hal_rtc_ex.c ****       }
2163:Drivers/STM32H5xx_HAL_Driver/Src/stm32h5xx_hal_rtc_ex.c ****     }
2164:Drivers/STM32H5xx_HAL_Driver/Src/stm32h5xx_hal_rtc_ex.c ****   }
2165:Drivers/STM32H5xx_HAL_Driver/Src/stm32h5xx_hal_rtc_ex.c **** 
2166:Drivers/STM32H5xx_HAL_Driver/Src/stm32h5xx_hal_rtc_ex.c ****   /* Clear the Tamper Flag */
2167:Drivers/STM32H5xx_HAL_Driver/Src/stm32h5xx_hal_rtc_ex.c ****   WRITE_REG(TAMP->SCR, IntTamper);
 3687              		.loc 1 2167 3 is_stmt 1 view .LVU1147
 3688 0034 024B     		ldr	r3, .L296
 3689 0036 DC63     		str	r4, [r3, #60]
2168:Drivers/STM32H5xx_HAL_Driver/Src/stm32h5xx_hal_rtc_ex.c **** 
2169:Drivers/STM32H5xx_HAL_Driver/Src/stm32h5xx_hal_rtc_ex.c ****   return HAL_OK;
 3690              		.loc 1 2169 3 view .LVU1148
 3691              		.loc 1 2169 10 is_stmt 0 view .LVU1149
 3692 0038 0020     		movs	r0, #0
 3693              	.L290:
2170:Drivers/STM32H5xx_HAL_Driver/Src/stm32h5xx_hal_rtc_ex.c **** }
 3694              		.loc 1 2170 1 view .LVU1150
 3695 003a 70BD     		pop	{r4, r5, r6, pc}
 3696              	.LVL251:
 3697              	.L295:
2156:Drivers/STM32H5xx_HAL_Driver/Src/stm32h5xx_hal_rtc_ex.c ****         }
 3698              		.loc 1 2156 18 view .LVU1151
 3699 003c 0320     		movs	r0, #3
 3700 003e FCE7     		b	.L290
 3701              	.L297:
 3702              		.align	2
 3703              	.L296:
 3704 0040 007C0044 		.word	1140882432
 3705              		.cfi_endproc
 3706              	.LFE341:
 3708              		.section	.text.HAL_RTCEx_Tamper1EventCallback,"ax",%progbits
 3709              		.align	1
 3710              		.weak	HAL_RTCEx_Tamper1EventCallback
 3711              		.syntax unified
 3712              		.thumb
 3713              		.thumb_func
 3715              	HAL_RTCEx_Tamper1EventCallback:
 3716              	.LVL252:
ARM GAS  C:\Users\DELL\AppData\Local\Temp\ccMtHSyM.s 			page 108


 3717              	.LFB343:
2171:Drivers/STM32H5xx_HAL_Driver/Src/stm32h5xx_hal_rtc_ex.c **** 
2172:Drivers/STM32H5xx_HAL_Driver/Src/stm32h5xx_hal_rtc_ex.c **** /**
2173:Drivers/STM32H5xx_HAL_Driver/Src/stm32h5xx_hal_rtc_ex.c ****   * @brief  Handle Tamper interrupt request.
2174:Drivers/STM32H5xx_HAL_Driver/Src/stm32h5xx_hal_rtc_ex.c ****   * @param  hrtc RTC handle
2175:Drivers/STM32H5xx_HAL_Driver/Src/stm32h5xx_hal_rtc_ex.c ****   * @retval None
2176:Drivers/STM32H5xx_HAL_Driver/Src/stm32h5xx_hal_rtc_ex.c ****   */
2177:Drivers/STM32H5xx_HAL_Driver/Src/stm32h5xx_hal_rtc_ex.c **** void HAL_RTCEx_TamperIRQHandler(RTC_HandleTypeDef *hrtc)
2178:Drivers/STM32H5xx_HAL_Driver/Src/stm32h5xx_hal_rtc_ex.c **** {
2179:Drivers/STM32H5xx_HAL_Driver/Src/stm32h5xx_hal_rtc_ex.c ****   /* Get the pending status of the Tampers Interrupt */
2180:Drivers/STM32H5xx_HAL_Driver/Src/stm32h5xx_hal_rtc_ex.c **** #if defined (__ARM_FEATURE_CMSE) && (__ARM_FEATURE_CMSE == 3U)
2181:Drivers/STM32H5xx_HAL_Driver/Src/stm32h5xx_hal_rtc_ex.c ****   uint32_t tmp = READ_REG(TAMP->SMISR);
2182:Drivers/STM32H5xx_HAL_Driver/Src/stm32h5xx_hal_rtc_ex.c **** #else
2183:Drivers/STM32H5xx_HAL_Driver/Src/stm32h5xx_hal_rtc_ex.c ****   uint32_t tmp = READ_REG(TAMP->MISR);
2184:Drivers/STM32H5xx_HAL_Driver/Src/stm32h5xx_hal_rtc_ex.c **** #endif /* defined (__ARM_FEATURE_CMSE) && (__ARM_FEATURE_CMSE == 3U) */
2185:Drivers/STM32H5xx_HAL_Driver/Src/stm32h5xx_hal_rtc_ex.c **** 
2186:Drivers/STM32H5xx_HAL_Driver/Src/stm32h5xx_hal_rtc_ex.c ****   /* Check Tamper1 status */
2187:Drivers/STM32H5xx_HAL_Driver/Src/stm32h5xx_hal_rtc_ex.c ****   if ((tmp & RTC_TAMPER_1) == RTC_TAMPER_1)
2188:Drivers/STM32H5xx_HAL_Driver/Src/stm32h5xx_hal_rtc_ex.c ****   {
2189:Drivers/STM32H5xx_HAL_Driver/Src/stm32h5xx_hal_rtc_ex.c **** #if (USE_HAL_RTC_REGISTER_CALLBACKS == 1)
2190:Drivers/STM32H5xx_HAL_Driver/Src/stm32h5xx_hal_rtc_ex.c ****     /* Call Tamper 1 Event registered secure Callback */
2191:Drivers/STM32H5xx_HAL_Driver/Src/stm32h5xx_hal_rtc_ex.c ****     hrtc->Tamper1EventCallback(hrtc);
2192:Drivers/STM32H5xx_HAL_Driver/Src/stm32h5xx_hal_rtc_ex.c **** #else
2193:Drivers/STM32H5xx_HAL_Driver/Src/stm32h5xx_hal_rtc_ex.c ****     /* Tamper1 secure callback */
2194:Drivers/STM32H5xx_HAL_Driver/Src/stm32h5xx_hal_rtc_ex.c ****     HAL_RTCEx_Tamper1EventCallback(hrtc);
2195:Drivers/STM32H5xx_HAL_Driver/Src/stm32h5xx_hal_rtc_ex.c **** #endif /* USE_HAL_RTC_REGISTER_CALLBACKS */
2196:Drivers/STM32H5xx_HAL_Driver/Src/stm32h5xx_hal_rtc_ex.c ****   }
2197:Drivers/STM32H5xx_HAL_Driver/Src/stm32h5xx_hal_rtc_ex.c **** 
2198:Drivers/STM32H5xx_HAL_Driver/Src/stm32h5xx_hal_rtc_ex.c ****   /* Check Tamper2 status */
2199:Drivers/STM32H5xx_HAL_Driver/Src/stm32h5xx_hal_rtc_ex.c ****   if ((tmp & RTC_TAMPER_2) == RTC_TAMPER_2)
2200:Drivers/STM32H5xx_HAL_Driver/Src/stm32h5xx_hal_rtc_ex.c ****   {
2201:Drivers/STM32H5xx_HAL_Driver/Src/stm32h5xx_hal_rtc_ex.c **** #if (USE_HAL_RTC_REGISTER_CALLBACKS == 1)
2202:Drivers/STM32H5xx_HAL_Driver/Src/stm32h5xx_hal_rtc_ex.c ****     /* Call Tamper 2 Event registered secure Callback */
2203:Drivers/STM32H5xx_HAL_Driver/Src/stm32h5xx_hal_rtc_ex.c ****     hrtc->Tamper2EventCallback(hrtc);
2204:Drivers/STM32H5xx_HAL_Driver/Src/stm32h5xx_hal_rtc_ex.c **** #else
2205:Drivers/STM32H5xx_HAL_Driver/Src/stm32h5xx_hal_rtc_ex.c ****     /* Tamper2 secure callback */
2206:Drivers/STM32H5xx_HAL_Driver/Src/stm32h5xx_hal_rtc_ex.c ****     HAL_RTCEx_Tamper2EventCallback(hrtc);
2207:Drivers/STM32H5xx_HAL_Driver/Src/stm32h5xx_hal_rtc_ex.c **** #endif /* USE_HAL_RTC_REGISTER_CALLBACKS */
2208:Drivers/STM32H5xx_HAL_Driver/Src/stm32h5xx_hal_rtc_ex.c ****   }
2209:Drivers/STM32H5xx_HAL_Driver/Src/stm32h5xx_hal_rtc_ex.c **** 
2210:Drivers/STM32H5xx_HAL_Driver/Src/stm32h5xx_hal_rtc_ex.c **** #if (RTC_TAMP_NB > 2U)
2211:Drivers/STM32H5xx_HAL_Driver/Src/stm32h5xx_hal_rtc_ex.c ****   /* Check Tamper3 status */
2212:Drivers/STM32H5xx_HAL_Driver/Src/stm32h5xx_hal_rtc_ex.c ****   if ((tmp & RTC_TAMPER_3) == RTC_TAMPER_3)
2213:Drivers/STM32H5xx_HAL_Driver/Src/stm32h5xx_hal_rtc_ex.c ****   {
2214:Drivers/STM32H5xx_HAL_Driver/Src/stm32h5xx_hal_rtc_ex.c **** #if (USE_HAL_RTC_REGISTER_CALLBACKS == 1)
2215:Drivers/STM32H5xx_HAL_Driver/Src/stm32h5xx_hal_rtc_ex.c ****     /* Call Tamper 3 Event registered secure Callback */
2216:Drivers/STM32H5xx_HAL_Driver/Src/stm32h5xx_hal_rtc_ex.c ****     hrtc->Tamper3EventCallback(hrtc);
2217:Drivers/STM32H5xx_HAL_Driver/Src/stm32h5xx_hal_rtc_ex.c **** #else
2218:Drivers/STM32H5xx_HAL_Driver/Src/stm32h5xx_hal_rtc_ex.c ****     /* Tamper3 secure callback */
2219:Drivers/STM32H5xx_HAL_Driver/Src/stm32h5xx_hal_rtc_ex.c ****     HAL_RTCEx_Tamper3EventCallback(hrtc);
2220:Drivers/STM32H5xx_HAL_Driver/Src/stm32h5xx_hal_rtc_ex.c **** #endif /* USE_HAL_RTC_REGISTER_CALLBACKS */
2221:Drivers/STM32H5xx_HAL_Driver/Src/stm32h5xx_hal_rtc_ex.c ****   }
2222:Drivers/STM32H5xx_HAL_Driver/Src/stm32h5xx_hal_rtc_ex.c **** 
2223:Drivers/STM32H5xx_HAL_Driver/Src/stm32h5xx_hal_rtc_ex.c ****   /* Check Tamper4 status */
2224:Drivers/STM32H5xx_HAL_Driver/Src/stm32h5xx_hal_rtc_ex.c ****   if ((tmp & RTC_TAMPER_4) == RTC_TAMPER_4)
2225:Drivers/STM32H5xx_HAL_Driver/Src/stm32h5xx_hal_rtc_ex.c ****   {
2226:Drivers/STM32H5xx_HAL_Driver/Src/stm32h5xx_hal_rtc_ex.c **** #if (USE_HAL_RTC_REGISTER_CALLBACKS == 1)
ARM GAS  C:\Users\DELL\AppData\Local\Temp\ccMtHSyM.s 			page 109


2227:Drivers/STM32H5xx_HAL_Driver/Src/stm32h5xx_hal_rtc_ex.c ****     /* Call Tamper 4 Event registered secure Callback */
2228:Drivers/STM32H5xx_HAL_Driver/Src/stm32h5xx_hal_rtc_ex.c ****     hrtc->Tamper4EventCallback(hrtc);
2229:Drivers/STM32H5xx_HAL_Driver/Src/stm32h5xx_hal_rtc_ex.c **** #else
2230:Drivers/STM32H5xx_HAL_Driver/Src/stm32h5xx_hal_rtc_ex.c ****     /* Tamper4 secure callback */
2231:Drivers/STM32H5xx_HAL_Driver/Src/stm32h5xx_hal_rtc_ex.c ****     HAL_RTCEx_Tamper4EventCallback(hrtc);
2232:Drivers/STM32H5xx_HAL_Driver/Src/stm32h5xx_hal_rtc_ex.c **** #endif /* USE_HAL_RTC_REGISTER_CALLBACKS */
2233:Drivers/STM32H5xx_HAL_Driver/Src/stm32h5xx_hal_rtc_ex.c ****   }
2234:Drivers/STM32H5xx_HAL_Driver/Src/stm32h5xx_hal_rtc_ex.c **** 
2235:Drivers/STM32H5xx_HAL_Driver/Src/stm32h5xx_hal_rtc_ex.c ****   /* Check Tamper5 status */
2236:Drivers/STM32H5xx_HAL_Driver/Src/stm32h5xx_hal_rtc_ex.c ****   if ((tmp & RTC_TAMPER_5) == RTC_TAMPER_5)
2237:Drivers/STM32H5xx_HAL_Driver/Src/stm32h5xx_hal_rtc_ex.c ****   {
2238:Drivers/STM32H5xx_HAL_Driver/Src/stm32h5xx_hal_rtc_ex.c **** #if (USE_HAL_RTC_REGISTER_CALLBACKS == 1)
2239:Drivers/STM32H5xx_HAL_Driver/Src/stm32h5xx_hal_rtc_ex.c ****     /* Call Tamper 5 Event registered secure Callback */
2240:Drivers/STM32H5xx_HAL_Driver/Src/stm32h5xx_hal_rtc_ex.c ****     hrtc->Tamper5EventCallback(hrtc);
2241:Drivers/STM32H5xx_HAL_Driver/Src/stm32h5xx_hal_rtc_ex.c **** #else
2242:Drivers/STM32H5xx_HAL_Driver/Src/stm32h5xx_hal_rtc_ex.c ****     /* Tamper5 secure callback */
2243:Drivers/STM32H5xx_HAL_Driver/Src/stm32h5xx_hal_rtc_ex.c ****     HAL_RTCEx_Tamper5EventCallback(hrtc);
2244:Drivers/STM32H5xx_HAL_Driver/Src/stm32h5xx_hal_rtc_ex.c **** #endif /* USE_HAL_RTC_REGISTER_CALLBACKS */
2245:Drivers/STM32H5xx_HAL_Driver/Src/stm32h5xx_hal_rtc_ex.c ****   }
2246:Drivers/STM32H5xx_HAL_Driver/Src/stm32h5xx_hal_rtc_ex.c **** 
2247:Drivers/STM32H5xx_HAL_Driver/Src/stm32h5xx_hal_rtc_ex.c ****   /* Check Tamper6 status */
2248:Drivers/STM32H5xx_HAL_Driver/Src/stm32h5xx_hal_rtc_ex.c ****   if ((tmp & RTC_TAMPER_6) == RTC_TAMPER_6)
2249:Drivers/STM32H5xx_HAL_Driver/Src/stm32h5xx_hal_rtc_ex.c ****   {
2250:Drivers/STM32H5xx_HAL_Driver/Src/stm32h5xx_hal_rtc_ex.c **** #if (USE_HAL_RTC_REGISTER_CALLBACKS == 1)
2251:Drivers/STM32H5xx_HAL_Driver/Src/stm32h5xx_hal_rtc_ex.c ****     /* Call Tamper 6 Event registered secure Callback */
2252:Drivers/STM32H5xx_HAL_Driver/Src/stm32h5xx_hal_rtc_ex.c ****     hrtc->Tamper6EventCallback(hrtc);
2253:Drivers/STM32H5xx_HAL_Driver/Src/stm32h5xx_hal_rtc_ex.c **** #else
2254:Drivers/STM32H5xx_HAL_Driver/Src/stm32h5xx_hal_rtc_ex.c ****     /* Tamper6 secure callback */
2255:Drivers/STM32H5xx_HAL_Driver/Src/stm32h5xx_hal_rtc_ex.c ****     HAL_RTCEx_Tamper6EventCallback(hrtc);
2256:Drivers/STM32H5xx_HAL_Driver/Src/stm32h5xx_hal_rtc_ex.c **** #endif /* USE_HAL_RTC_REGISTER_CALLBACKS */
2257:Drivers/STM32H5xx_HAL_Driver/Src/stm32h5xx_hal_rtc_ex.c ****   }
2258:Drivers/STM32H5xx_HAL_Driver/Src/stm32h5xx_hal_rtc_ex.c **** 
2259:Drivers/STM32H5xx_HAL_Driver/Src/stm32h5xx_hal_rtc_ex.c ****   /* Check Tamper7 status */
2260:Drivers/STM32H5xx_HAL_Driver/Src/stm32h5xx_hal_rtc_ex.c ****   if ((tmp & RTC_TAMPER_7) == RTC_TAMPER_7)
2261:Drivers/STM32H5xx_HAL_Driver/Src/stm32h5xx_hal_rtc_ex.c ****   {
2262:Drivers/STM32H5xx_HAL_Driver/Src/stm32h5xx_hal_rtc_ex.c **** #if (USE_HAL_RTC_REGISTER_CALLBACKS == 1)
2263:Drivers/STM32H5xx_HAL_Driver/Src/stm32h5xx_hal_rtc_ex.c ****     /* Call Tamper 7 Event registered secure Callback */
2264:Drivers/STM32H5xx_HAL_Driver/Src/stm32h5xx_hal_rtc_ex.c ****     hrtc->Tamper7EventCallback(hrtc);
2265:Drivers/STM32H5xx_HAL_Driver/Src/stm32h5xx_hal_rtc_ex.c **** #else
2266:Drivers/STM32H5xx_HAL_Driver/Src/stm32h5xx_hal_rtc_ex.c ****     /* Tamper7 secure callback */
2267:Drivers/STM32H5xx_HAL_Driver/Src/stm32h5xx_hal_rtc_ex.c ****     HAL_RTCEx_Tamper7EventCallback(hrtc);
2268:Drivers/STM32H5xx_HAL_Driver/Src/stm32h5xx_hal_rtc_ex.c **** #endif /* USE_HAL_RTC_REGISTER_CALLBACKS */
2269:Drivers/STM32H5xx_HAL_Driver/Src/stm32h5xx_hal_rtc_ex.c ****   }
2270:Drivers/STM32H5xx_HAL_Driver/Src/stm32h5xx_hal_rtc_ex.c **** 
2271:Drivers/STM32H5xx_HAL_Driver/Src/stm32h5xx_hal_rtc_ex.c ****   /* Check Tamper8 status */
2272:Drivers/STM32H5xx_HAL_Driver/Src/stm32h5xx_hal_rtc_ex.c ****   if ((tmp & RTC_TAMPER_8) == RTC_TAMPER_8)
2273:Drivers/STM32H5xx_HAL_Driver/Src/stm32h5xx_hal_rtc_ex.c ****   {
2274:Drivers/STM32H5xx_HAL_Driver/Src/stm32h5xx_hal_rtc_ex.c **** #if (USE_HAL_RTC_REGISTER_CALLBACKS == 1)
2275:Drivers/STM32H5xx_HAL_Driver/Src/stm32h5xx_hal_rtc_ex.c ****     /* Call Tamper 8 Event registered secure Callback */
2276:Drivers/STM32H5xx_HAL_Driver/Src/stm32h5xx_hal_rtc_ex.c ****     hrtc->Tamper8EventCallback(hrtc);
2277:Drivers/STM32H5xx_HAL_Driver/Src/stm32h5xx_hal_rtc_ex.c **** #else
2278:Drivers/STM32H5xx_HAL_Driver/Src/stm32h5xx_hal_rtc_ex.c ****     /* Tamper8 secure callback */
2279:Drivers/STM32H5xx_HAL_Driver/Src/stm32h5xx_hal_rtc_ex.c ****     HAL_RTCEx_Tamper8EventCallback(hrtc);
2280:Drivers/STM32H5xx_HAL_Driver/Src/stm32h5xx_hal_rtc_ex.c **** #endif /* USE_HAL_RTC_REGISTER_CALLBACKS */
2281:Drivers/STM32H5xx_HAL_Driver/Src/stm32h5xx_hal_rtc_ex.c ****   }
2282:Drivers/STM32H5xx_HAL_Driver/Src/stm32h5xx_hal_rtc_ex.c **** #endif /* (RTC_TAMP_NB > 2U) */
2283:Drivers/STM32H5xx_HAL_Driver/Src/stm32h5xx_hal_rtc_ex.c **** 
ARM GAS  C:\Users\DELL\AppData\Local\Temp\ccMtHSyM.s 			page 110


2284:Drivers/STM32H5xx_HAL_Driver/Src/stm32h5xx_hal_rtc_ex.c ****   /* Check Internal Tamper1 status */
2285:Drivers/STM32H5xx_HAL_Driver/Src/stm32h5xx_hal_rtc_ex.c ****   if ((tmp & RTC_INT_TAMPER_1) == RTC_INT_TAMPER_1)
2286:Drivers/STM32H5xx_HAL_Driver/Src/stm32h5xx_hal_rtc_ex.c ****   {
2287:Drivers/STM32H5xx_HAL_Driver/Src/stm32h5xx_hal_rtc_ex.c **** #if (USE_HAL_RTC_REGISTER_CALLBACKS == 1)
2288:Drivers/STM32H5xx_HAL_Driver/Src/stm32h5xx_hal_rtc_ex.c ****     /* Call Internal Tamper 1 Event registered secure Callback */
2289:Drivers/STM32H5xx_HAL_Driver/Src/stm32h5xx_hal_rtc_ex.c ****     hrtc->InternalTamper1EventCallback(hrtc);
2290:Drivers/STM32H5xx_HAL_Driver/Src/stm32h5xx_hal_rtc_ex.c **** #else
2291:Drivers/STM32H5xx_HAL_Driver/Src/stm32h5xx_hal_rtc_ex.c ****     /* Internal Tamper1 secure callback */
2292:Drivers/STM32H5xx_HAL_Driver/Src/stm32h5xx_hal_rtc_ex.c ****     HAL_RTCEx_InternalTamper1EventCallback(hrtc);
2293:Drivers/STM32H5xx_HAL_Driver/Src/stm32h5xx_hal_rtc_ex.c **** #endif /* USE_HAL_RTC_REGISTER_CALLBACKS */
2294:Drivers/STM32H5xx_HAL_Driver/Src/stm32h5xx_hal_rtc_ex.c ****   }
2295:Drivers/STM32H5xx_HAL_Driver/Src/stm32h5xx_hal_rtc_ex.c **** 
2296:Drivers/STM32H5xx_HAL_Driver/Src/stm32h5xx_hal_rtc_ex.c ****   /* Check Internal Tamper2 status */
2297:Drivers/STM32H5xx_HAL_Driver/Src/stm32h5xx_hal_rtc_ex.c ****   if ((tmp & RTC_INT_TAMPER_2) == RTC_INT_TAMPER_2)
2298:Drivers/STM32H5xx_HAL_Driver/Src/stm32h5xx_hal_rtc_ex.c ****   {
2299:Drivers/STM32H5xx_HAL_Driver/Src/stm32h5xx_hal_rtc_ex.c **** #if (USE_HAL_RTC_REGISTER_CALLBACKS == 1)
2300:Drivers/STM32H5xx_HAL_Driver/Src/stm32h5xx_hal_rtc_ex.c ****     /* Call Internal Tamper 2 Event registered secure Callback */
2301:Drivers/STM32H5xx_HAL_Driver/Src/stm32h5xx_hal_rtc_ex.c ****     hrtc->InternalTamper2EventCallback(hrtc);
2302:Drivers/STM32H5xx_HAL_Driver/Src/stm32h5xx_hal_rtc_ex.c **** #else
2303:Drivers/STM32H5xx_HAL_Driver/Src/stm32h5xx_hal_rtc_ex.c ****     /* Internal Tamper2 secure callback */
2304:Drivers/STM32H5xx_HAL_Driver/Src/stm32h5xx_hal_rtc_ex.c ****     HAL_RTCEx_InternalTamper2EventCallback(hrtc);
2305:Drivers/STM32H5xx_HAL_Driver/Src/stm32h5xx_hal_rtc_ex.c **** #endif /* USE_HAL_RTC_REGISTER_CALLBACKS */
2306:Drivers/STM32H5xx_HAL_Driver/Src/stm32h5xx_hal_rtc_ex.c ****   }
2307:Drivers/STM32H5xx_HAL_Driver/Src/stm32h5xx_hal_rtc_ex.c **** 
2308:Drivers/STM32H5xx_HAL_Driver/Src/stm32h5xx_hal_rtc_ex.c ****   /* Check Internal Tamper3 status */
2309:Drivers/STM32H5xx_HAL_Driver/Src/stm32h5xx_hal_rtc_ex.c ****   if ((tmp & RTC_INT_TAMPER_3) == RTC_INT_TAMPER_3)
2310:Drivers/STM32H5xx_HAL_Driver/Src/stm32h5xx_hal_rtc_ex.c ****   {
2311:Drivers/STM32H5xx_HAL_Driver/Src/stm32h5xx_hal_rtc_ex.c **** #if (USE_HAL_RTC_REGISTER_CALLBACKS == 1)
2312:Drivers/STM32H5xx_HAL_Driver/Src/stm32h5xx_hal_rtc_ex.c ****     /* Call Internal Tamper 3 Event registered secure Callback */
2313:Drivers/STM32H5xx_HAL_Driver/Src/stm32h5xx_hal_rtc_ex.c ****     hrtc->InternalTamper3EventCallback(hrtc);
2314:Drivers/STM32H5xx_HAL_Driver/Src/stm32h5xx_hal_rtc_ex.c **** #else
2315:Drivers/STM32H5xx_HAL_Driver/Src/stm32h5xx_hal_rtc_ex.c ****     /* Internal Tamper3 secure callback */
2316:Drivers/STM32H5xx_HAL_Driver/Src/stm32h5xx_hal_rtc_ex.c ****     HAL_RTCEx_InternalTamper3EventCallback(hrtc);
2317:Drivers/STM32H5xx_HAL_Driver/Src/stm32h5xx_hal_rtc_ex.c **** #endif /* USE_HAL_RTC_REGISTER_CALLBACKS */
2318:Drivers/STM32H5xx_HAL_Driver/Src/stm32h5xx_hal_rtc_ex.c ****   }
2319:Drivers/STM32H5xx_HAL_Driver/Src/stm32h5xx_hal_rtc_ex.c **** 
2320:Drivers/STM32H5xx_HAL_Driver/Src/stm32h5xx_hal_rtc_ex.c ****   /* Check Internal Tamper4 status */
2321:Drivers/STM32H5xx_HAL_Driver/Src/stm32h5xx_hal_rtc_ex.c ****   if ((tmp & RTC_INT_TAMPER_4) == RTC_INT_TAMPER_4)
2322:Drivers/STM32H5xx_HAL_Driver/Src/stm32h5xx_hal_rtc_ex.c ****   {
2323:Drivers/STM32H5xx_HAL_Driver/Src/stm32h5xx_hal_rtc_ex.c **** #if (USE_HAL_RTC_REGISTER_CALLBACKS == 1)
2324:Drivers/STM32H5xx_HAL_Driver/Src/stm32h5xx_hal_rtc_ex.c ****     /* Call Internal Tamper 4 Event registered secure Callback */
2325:Drivers/STM32H5xx_HAL_Driver/Src/stm32h5xx_hal_rtc_ex.c ****     hrtc->InternalTamper4EventCallback(hrtc);
2326:Drivers/STM32H5xx_HAL_Driver/Src/stm32h5xx_hal_rtc_ex.c **** #else
2327:Drivers/STM32H5xx_HAL_Driver/Src/stm32h5xx_hal_rtc_ex.c ****     /* Internal Tamper4 secure callback */
2328:Drivers/STM32H5xx_HAL_Driver/Src/stm32h5xx_hal_rtc_ex.c ****     HAL_RTCEx_InternalTamper4EventCallback(hrtc);
2329:Drivers/STM32H5xx_HAL_Driver/Src/stm32h5xx_hal_rtc_ex.c **** #endif /* USE_HAL_RTC_REGISTER_CALLBACKS */
2330:Drivers/STM32H5xx_HAL_Driver/Src/stm32h5xx_hal_rtc_ex.c ****   }
2331:Drivers/STM32H5xx_HAL_Driver/Src/stm32h5xx_hal_rtc_ex.c **** 
2332:Drivers/STM32H5xx_HAL_Driver/Src/stm32h5xx_hal_rtc_ex.c ****   /* Check Internal Tamper5 status */
2333:Drivers/STM32H5xx_HAL_Driver/Src/stm32h5xx_hal_rtc_ex.c ****   if ((tmp & RTC_INT_TAMPER_5) == RTC_INT_TAMPER_5)
2334:Drivers/STM32H5xx_HAL_Driver/Src/stm32h5xx_hal_rtc_ex.c ****   {
2335:Drivers/STM32H5xx_HAL_Driver/Src/stm32h5xx_hal_rtc_ex.c **** #if (USE_HAL_RTC_REGISTER_CALLBACKS == 1)
2336:Drivers/STM32H5xx_HAL_Driver/Src/stm32h5xx_hal_rtc_ex.c ****     /* Call Internal Tamper 5 Event registered secure Callback */
2337:Drivers/STM32H5xx_HAL_Driver/Src/stm32h5xx_hal_rtc_ex.c ****     hrtc->InternalTamper5EventCallback(hrtc);
2338:Drivers/STM32H5xx_HAL_Driver/Src/stm32h5xx_hal_rtc_ex.c **** #else
2339:Drivers/STM32H5xx_HAL_Driver/Src/stm32h5xx_hal_rtc_ex.c ****     /* Internal Tamper5 secure callback */
2340:Drivers/STM32H5xx_HAL_Driver/Src/stm32h5xx_hal_rtc_ex.c ****     HAL_RTCEx_InternalTamper5EventCallback(hrtc);
ARM GAS  C:\Users\DELL\AppData\Local\Temp\ccMtHSyM.s 			page 111


2341:Drivers/STM32H5xx_HAL_Driver/Src/stm32h5xx_hal_rtc_ex.c **** #endif /* USE_HAL_RTC_REGISTER_CALLBACKS */
2342:Drivers/STM32H5xx_HAL_Driver/Src/stm32h5xx_hal_rtc_ex.c ****   }
2343:Drivers/STM32H5xx_HAL_Driver/Src/stm32h5xx_hal_rtc_ex.c **** 
2344:Drivers/STM32H5xx_HAL_Driver/Src/stm32h5xx_hal_rtc_ex.c ****   /* Check Internal Tamper6 status */
2345:Drivers/STM32H5xx_HAL_Driver/Src/stm32h5xx_hal_rtc_ex.c ****   if ((tmp & RTC_INT_TAMPER_6) == RTC_INT_TAMPER_6)
2346:Drivers/STM32H5xx_HAL_Driver/Src/stm32h5xx_hal_rtc_ex.c ****   {
2347:Drivers/STM32H5xx_HAL_Driver/Src/stm32h5xx_hal_rtc_ex.c **** #if (USE_HAL_RTC_REGISTER_CALLBACKS == 1)
2348:Drivers/STM32H5xx_HAL_Driver/Src/stm32h5xx_hal_rtc_ex.c ****     /* Call Internal Tamper 6 Event registered secure Callback */
2349:Drivers/STM32H5xx_HAL_Driver/Src/stm32h5xx_hal_rtc_ex.c ****     hrtc->InternalTamper6EventCallback(hrtc);
2350:Drivers/STM32H5xx_HAL_Driver/Src/stm32h5xx_hal_rtc_ex.c **** #else
2351:Drivers/STM32H5xx_HAL_Driver/Src/stm32h5xx_hal_rtc_ex.c ****     /* Internal Tamper6 secure callback */
2352:Drivers/STM32H5xx_HAL_Driver/Src/stm32h5xx_hal_rtc_ex.c ****     HAL_RTCEx_InternalTamper6EventCallback(hrtc);
2353:Drivers/STM32H5xx_HAL_Driver/Src/stm32h5xx_hal_rtc_ex.c **** #endif /* USE_HAL_RTC_REGISTER_CALLBACKS */
2354:Drivers/STM32H5xx_HAL_Driver/Src/stm32h5xx_hal_rtc_ex.c ****   }
2355:Drivers/STM32H5xx_HAL_Driver/Src/stm32h5xx_hal_rtc_ex.c **** 
2356:Drivers/STM32H5xx_HAL_Driver/Src/stm32h5xx_hal_rtc_ex.c ****   /* Check Internal Tamper7 status */
2357:Drivers/STM32H5xx_HAL_Driver/Src/stm32h5xx_hal_rtc_ex.c ****   if ((tmp & RTC_INT_TAMPER_7) == RTC_INT_TAMPER_7)
2358:Drivers/STM32H5xx_HAL_Driver/Src/stm32h5xx_hal_rtc_ex.c ****   {
2359:Drivers/STM32H5xx_HAL_Driver/Src/stm32h5xx_hal_rtc_ex.c **** #if (USE_HAL_RTC_REGISTER_CALLBACKS == 1)
2360:Drivers/STM32H5xx_HAL_Driver/Src/stm32h5xx_hal_rtc_ex.c ****     /* Call Internal Tamper 7 Event registered secure Callback */
2361:Drivers/STM32H5xx_HAL_Driver/Src/stm32h5xx_hal_rtc_ex.c ****     hrtc->InternalTamper7EventCallback(hrtc);
2362:Drivers/STM32H5xx_HAL_Driver/Src/stm32h5xx_hal_rtc_ex.c **** #else
2363:Drivers/STM32H5xx_HAL_Driver/Src/stm32h5xx_hal_rtc_ex.c ****     /* Internal Tamper7 secure callback */
2364:Drivers/STM32H5xx_HAL_Driver/Src/stm32h5xx_hal_rtc_ex.c ****     HAL_RTCEx_InternalTamper7EventCallback(hrtc);
2365:Drivers/STM32H5xx_HAL_Driver/Src/stm32h5xx_hal_rtc_ex.c **** #endif /* USE_HAL_RTC_REGISTER_CALLBACKS */
2366:Drivers/STM32H5xx_HAL_Driver/Src/stm32h5xx_hal_rtc_ex.c ****   }
2367:Drivers/STM32H5xx_HAL_Driver/Src/stm32h5xx_hal_rtc_ex.c **** 
2368:Drivers/STM32H5xx_HAL_Driver/Src/stm32h5xx_hal_rtc_ex.c ****   /* Check Internal Tamper8 status */
2369:Drivers/STM32H5xx_HAL_Driver/Src/stm32h5xx_hal_rtc_ex.c ****   if ((tmp & RTC_INT_TAMPER_8) == RTC_INT_TAMPER_8)
2370:Drivers/STM32H5xx_HAL_Driver/Src/stm32h5xx_hal_rtc_ex.c ****   {
2371:Drivers/STM32H5xx_HAL_Driver/Src/stm32h5xx_hal_rtc_ex.c **** #if (USE_HAL_RTC_REGISTER_CALLBACKS == 1)
2372:Drivers/STM32H5xx_HAL_Driver/Src/stm32h5xx_hal_rtc_ex.c ****     /* Call Internal Tamper 8 Event registered secure Callback */
2373:Drivers/STM32H5xx_HAL_Driver/Src/stm32h5xx_hal_rtc_ex.c ****     hrtc->InternalTamper8EventCallback(hrtc);
2374:Drivers/STM32H5xx_HAL_Driver/Src/stm32h5xx_hal_rtc_ex.c **** #else
2375:Drivers/STM32H5xx_HAL_Driver/Src/stm32h5xx_hal_rtc_ex.c ****     /* Internal Tamper8 secure callback */
2376:Drivers/STM32H5xx_HAL_Driver/Src/stm32h5xx_hal_rtc_ex.c ****     HAL_RTCEx_InternalTamper8EventCallback(hrtc);
2377:Drivers/STM32H5xx_HAL_Driver/Src/stm32h5xx_hal_rtc_ex.c **** #endif /* USE_HAL_RTC_REGISTER_CALLBACKS */
2378:Drivers/STM32H5xx_HAL_Driver/Src/stm32h5xx_hal_rtc_ex.c ****   }
2379:Drivers/STM32H5xx_HAL_Driver/Src/stm32h5xx_hal_rtc_ex.c **** 
2380:Drivers/STM32H5xx_HAL_Driver/Src/stm32h5xx_hal_rtc_ex.c ****   /* Check Internal Tamper9 status */
2381:Drivers/STM32H5xx_HAL_Driver/Src/stm32h5xx_hal_rtc_ex.c ****   if ((tmp & RTC_INT_TAMPER_9) == RTC_INT_TAMPER_9)
2382:Drivers/STM32H5xx_HAL_Driver/Src/stm32h5xx_hal_rtc_ex.c ****   {
2383:Drivers/STM32H5xx_HAL_Driver/Src/stm32h5xx_hal_rtc_ex.c **** #if (USE_HAL_RTC_REGISTER_CALLBACKS == 1)
2384:Drivers/STM32H5xx_HAL_Driver/Src/stm32h5xx_hal_rtc_ex.c ****     /* Call Internal Tamper 9 Event registered secure Callback */
2385:Drivers/STM32H5xx_HAL_Driver/Src/stm32h5xx_hal_rtc_ex.c ****     hrtc->InternalTamper9EventCallback(hrtc);
2386:Drivers/STM32H5xx_HAL_Driver/Src/stm32h5xx_hal_rtc_ex.c **** #else
2387:Drivers/STM32H5xx_HAL_Driver/Src/stm32h5xx_hal_rtc_ex.c ****     /* Internal Tamper9 secure callback */
2388:Drivers/STM32H5xx_HAL_Driver/Src/stm32h5xx_hal_rtc_ex.c ****     HAL_RTCEx_InternalTamper9EventCallback(hrtc);
2389:Drivers/STM32H5xx_HAL_Driver/Src/stm32h5xx_hal_rtc_ex.c **** #endif /* USE_HAL_RTC_REGISTER_CALLBACKS */
2390:Drivers/STM32H5xx_HAL_Driver/Src/stm32h5xx_hal_rtc_ex.c ****   }
2391:Drivers/STM32H5xx_HAL_Driver/Src/stm32h5xx_hal_rtc_ex.c **** 
2392:Drivers/STM32H5xx_HAL_Driver/Src/stm32h5xx_hal_rtc_ex.c ****   /* Check Internal Tamper11 status */
2393:Drivers/STM32H5xx_HAL_Driver/Src/stm32h5xx_hal_rtc_ex.c ****   if ((tmp & RTC_INT_TAMPER_11) == RTC_INT_TAMPER_11)
2394:Drivers/STM32H5xx_HAL_Driver/Src/stm32h5xx_hal_rtc_ex.c ****   {
2395:Drivers/STM32H5xx_HAL_Driver/Src/stm32h5xx_hal_rtc_ex.c **** #if (USE_HAL_RTC_REGISTER_CALLBACKS == 1)
2396:Drivers/STM32H5xx_HAL_Driver/Src/stm32h5xx_hal_rtc_ex.c ****     /* Call Internal Tamper 11 Event registered secure Callback */
2397:Drivers/STM32H5xx_HAL_Driver/Src/stm32h5xx_hal_rtc_ex.c ****     hrtc->InternalTamper11EventCallback(hrtc);
ARM GAS  C:\Users\DELL\AppData\Local\Temp\ccMtHSyM.s 			page 112


2398:Drivers/STM32H5xx_HAL_Driver/Src/stm32h5xx_hal_rtc_ex.c **** #else
2399:Drivers/STM32H5xx_HAL_Driver/Src/stm32h5xx_hal_rtc_ex.c ****     /* Internal Tamper11 secure callback */
2400:Drivers/STM32H5xx_HAL_Driver/Src/stm32h5xx_hal_rtc_ex.c ****     HAL_RTCEx_InternalTamper11EventCallback(hrtc);
2401:Drivers/STM32H5xx_HAL_Driver/Src/stm32h5xx_hal_rtc_ex.c **** #endif /* USE_HAL_RTC_REGISTER_CALLBACKS */
2402:Drivers/STM32H5xx_HAL_Driver/Src/stm32h5xx_hal_rtc_ex.c ****   }
2403:Drivers/STM32H5xx_HAL_Driver/Src/stm32h5xx_hal_rtc_ex.c **** 
2404:Drivers/STM32H5xx_HAL_Driver/Src/stm32h5xx_hal_rtc_ex.c ****   /* Check Internal Tamper12 status */
2405:Drivers/STM32H5xx_HAL_Driver/Src/stm32h5xx_hal_rtc_ex.c ****   if ((tmp & RTC_INT_TAMPER_12) == RTC_INT_TAMPER_12)
2406:Drivers/STM32H5xx_HAL_Driver/Src/stm32h5xx_hal_rtc_ex.c ****   {
2407:Drivers/STM32H5xx_HAL_Driver/Src/stm32h5xx_hal_rtc_ex.c **** #if (USE_HAL_RTC_REGISTER_CALLBACKS == 1)
2408:Drivers/STM32H5xx_HAL_Driver/Src/stm32h5xx_hal_rtc_ex.c ****     /* Call Internal Tamper 12 Event registered secure Callback */
2409:Drivers/STM32H5xx_HAL_Driver/Src/stm32h5xx_hal_rtc_ex.c ****     hrtc->InternalTamper12EventCallback(hrtc);
2410:Drivers/STM32H5xx_HAL_Driver/Src/stm32h5xx_hal_rtc_ex.c **** #else
2411:Drivers/STM32H5xx_HAL_Driver/Src/stm32h5xx_hal_rtc_ex.c ****     /* Internal Tamper12 secure callback */
2412:Drivers/STM32H5xx_HAL_Driver/Src/stm32h5xx_hal_rtc_ex.c ****     HAL_RTCEx_InternalTamper12EventCallback(hrtc);
2413:Drivers/STM32H5xx_HAL_Driver/Src/stm32h5xx_hal_rtc_ex.c **** #endif /* USE_HAL_RTC_REGISTER_CALLBACKS */
2414:Drivers/STM32H5xx_HAL_Driver/Src/stm32h5xx_hal_rtc_ex.c ****   }
2415:Drivers/STM32H5xx_HAL_Driver/Src/stm32h5xx_hal_rtc_ex.c **** 
2416:Drivers/STM32H5xx_HAL_Driver/Src/stm32h5xx_hal_rtc_ex.c ****   /* Check Internal Tamper13 status */
2417:Drivers/STM32H5xx_HAL_Driver/Src/stm32h5xx_hal_rtc_ex.c ****   if ((tmp & RTC_INT_TAMPER_13) == RTC_INT_TAMPER_13)
2418:Drivers/STM32H5xx_HAL_Driver/Src/stm32h5xx_hal_rtc_ex.c ****   {
2419:Drivers/STM32H5xx_HAL_Driver/Src/stm32h5xx_hal_rtc_ex.c **** #if (USE_HAL_RTC_REGISTER_CALLBACKS == 1)
2420:Drivers/STM32H5xx_HAL_Driver/Src/stm32h5xx_hal_rtc_ex.c ****     /* Call Internal Tamper 13 Event registered secure Callback */
2421:Drivers/STM32H5xx_HAL_Driver/Src/stm32h5xx_hal_rtc_ex.c ****     hrtc->InternalTamper13EventCallback(hrtc);
2422:Drivers/STM32H5xx_HAL_Driver/Src/stm32h5xx_hal_rtc_ex.c **** #else
2423:Drivers/STM32H5xx_HAL_Driver/Src/stm32h5xx_hal_rtc_ex.c ****     /* Internal Tamper13 secure callback */
2424:Drivers/STM32H5xx_HAL_Driver/Src/stm32h5xx_hal_rtc_ex.c ****     HAL_RTCEx_InternalTamper13EventCallback(hrtc);
2425:Drivers/STM32H5xx_HAL_Driver/Src/stm32h5xx_hal_rtc_ex.c **** #endif /* USE_HAL_RTC_REGISTER_CALLBACKS */
2426:Drivers/STM32H5xx_HAL_Driver/Src/stm32h5xx_hal_rtc_ex.c ****   }
2427:Drivers/STM32H5xx_HAL_Driver/Src/stm32h5xx_hal_rtc_ex.c **** 
2428:Drivers/STM32H5xx_HAL_Driver/Src/stm32h5xx_hal_rtc_ex.c ****   /* Check Internal Tamper15 status */
2429:Drivers/STM32H5xx_HAL_Driver/Src/stm32h5xx_hal_rtc_ex.c ****   if ((tmp & RTC_INT_TAMPER_15) == RTC_INT_TAMPER_15)
2430:Drivers/STM32H5xx_HAL_Driver/Src/stm32h5xx_hal_rtc_ex.c ****   {
2431:Drivers/STM32H5xx_HAL_Driver/Src/stm32h5xx_hal_rtc_ex.c **** #if (USE_HAL_RTC_REGISTER_CALLBACKS == 1)
2432:Drivers/STM32H5xx_HAL_Driver/Src/stm32h5xx_hal_rtc_ex.c ****     /* Call Internal Tamper 15 Event registered secure Callback */
2433:Drivers/STM32H5xx_HAL_Driver/Src/stm32h5xx_hal_rtc_ex.c ****     hrtc->InternalTamper15EventCallback(hrtc);
2434:Drivers/STM32H5xx_HAL_Driver/Src/stm32h5xx_hal_rtc_ex.c **** #else
2435:Drivers/STM32H5xx_HAL_Driver/Src/stm32h5xx_hal_rtc_ex.c ****     /* Internal Tamper15 secure callback */
2436:Drivers/STM32H5xx_HAL_Driver/Src/stm32h5xx_hal_rtc_ex.c ****     HAL_RTCEx_InternalTamper15EventCallback(hrtc);
2437:Drivers/STM32H5xx_HAL_Driver/Src/stm32h5xx_hal_rtc_ex.c **** #endif /* USE_HAL_RTC_REGISTER_CALLBACKS */
2438:Drivers/STM32H5xx_HAL_Driver/Src/stm32h5xx_hal_rtc_ex.c ****   }
2439:Drivers/STM32H5xx_HAL_Driver/Src/stm32h5xx_hal_rtc_ex.c **** 
2440:Drivers/STM32H5xx_HAL_Driver/Src/stm32h5xx_hal_rtc_ex.c ****   /* Clear flags after treatment to allow the potential tamper feature */
2441:Drivers/STM32H5xx_HAL_Driver/Src/stm32h5xx_hal_rtc_ex.c ****   WRITE_REG(TAMP->SCR, tmp);
2442:Drivers/STM32H5xx_HAL_Driver/Src/stm32h5xx_hal_rtc_ex.c **** }
2443:Drivers/STM32H5xx_HAL_Driver/Src/stm32h5xx_hal_rtc_ex.c **** 
2444:Drivers/STM32H5xx_HAL_Driver/Src/stm32h5xx_hal_rtc_ex.c **** /**
2445:Drivers/STM32H5xx_HAL_Driver/Src/stm32h5xx_hal_rtc_ex.c ****   * @brief  Tamper 1 callback.
2446:Drivers/STM32H5xx_HAL_Driver/Src/stm32h5xx_hal_rtc_ex.c ****   * @param  hrtc RTC handle
2447:Drivers/STM32H5xx_HAL_Driver/Src/stm32h5xx_hal_rtc_ex.c ****   * @retval None
2448:Drivers/STM32H5xx_HAL_Driver/Src/stm32h5xx_hal_rtc_ex.c ****   */
2449:Drivers/STM32H5xx_HAL_Driver/Src/stm32h5xx_hal_rtc_ex.c **** __weak void HAL_RTCEx_Tamper1EventCallback(RTC_HandleTypeDef *hrtc)
2450:Drivers/STM32H5xx_HAL_Driver/Src/stm32h5xx_hal_rtc_ex.c **** {
 3718              		.loc 1 2450 1 is_stmt 1 view -0
 3719              		.cfi_startproc
 3720              		@ args = 0, pretend = 0, frame = 0
 3721              		@ frame_needed = 0, uses_anonymous_args = 0
ARM GAS  C:\Users\DELL\AppData\Local\Temp\ccMtHSyM.s 			page 113


 3722              		@ link register save eliminated.
2451:Drivers/STM32H5xx_HAL_Driver/Src/stm32h5xx_hal_rtc_ex.c ****   /* Prevent unused argument(s) compilation warning */
2452:Drivers/STM32H5xx_HAL_Driver/Src/stm32h5xx_hal_rtc_ex.c ****   UNUSED(hrtc);
 3723              		.loc 1 2452 3 view .LVU1153
2453:Drivers/STM32H5xx_HAL_Driver/Src/stm32h5xx_hal_rtc_ex.c **** 
2454:Drivers/STM32H5xx_HAL_Driver/Src/stm32h5xx_hal_rtc_ex.c ****   /* NOTE : This function should not be modified, when the callback is needed,
2455:Drivers/STM32H5xx_HAL_Driver/Src/stm32h5xx_hal_rtc_ex.c ****             the HAL_RTCEx_Tamper1EventCallback could be implemented in the user file
2456:Drivers/STM32H5xx_HAL_Driver/Src/stm32h5xx_hal_rtc_ex.c ****    */
2457:Drivers/STM32H5xx_HAL_Driver/Src/stm32h5xx_hal_rtc_ex.c **** }
 3724              		.loc 1 2457 1 is_stmt 0 view .LVU1154
 3725 0000 7047     		bx	lr
 3726              		.cfi_endproc
 3727              	.LFE343:
 3729              		.section	.text.HAL_RTCEx_Tamper2EventCallback,"ax",%progbits
 3730              		.align	1
 3731              		.weak	HAL_RTCEx_Tamper2EventCallback
 3732              		.syntax unified
 3733              		.thumb
 3734              		.thumb_func
 3736              	HAL_RTCEx_Tamper2EventCallback:
 3737              	.LVL253:
 3738              	.LFB344:
2458:Drivers/STM32H5xx_HAL_Driver/Src/stm32h5xx_hal_rtc_ex.c **** 
2459:Drivers/STM32H5xx_HAL_Driver/Src/stm32h5xx_hal_rtc_ex.c **** /**
2460:Drivers/STM32H5xx_HAL_Driver/Src/stm32h5xx_hal_rtc_ex.c ****   * @brief  Tamper 2 callback.
2461:Drivers/STM32H5xx_HAL_Driver/Src/stm32h5xx_hal_rtc_ex.c ****   * @param  hrtc RTC handle
2462:Drivers/STM32H5xx_HAL_Driver/Src/stm32h5xx_hal_rtc_ex.c ****   * @retval None
2463:Drivers/STM32H5xx_HAL_Driver/Src/stm32h5xx_hal_rtc_ex.c ****   */
2464:Drivers/STM32H5xx_HAL_Driver/Src/stm32h5xx_hal_rtc_ex.c **** __weak void HAL_RTCEx_Tamper2EventCallback(RTC_HandleTypeDef *hrtc)
2465:Drivers/STM32H5xx_HAL_Driver/Src/stm32h5xx_hal_rtc_ex.c **** {
 3739              		.loc 1 2465 1 is_stmt 1 view -0
 3740              		.cfi_startproc
 3741              		@ args = 0, pretend = 0, frame = 0
 3742              		@ frame_needed = 0, uses_anonymous_args = 0
 3743              		@ link register save eliminated.
2466:Drivers/STM32H5xx_HAL_Driver/Src/stm32h5xx_hal_rtc_ex.c ****   /* Prevent unused argument(s) compilation warning */
2467:Drivers/STM32H5xx_HAL_Driver/Src/stm32h5xx_hal_rtc_ex.c ****   UNUSED(hrtc);
 3744              		.loc 1 2467 3 view .LVU1156
2468:Drivers/STM32H5xx_HAL_Driver/Src/stm32h5xx_hal_rtc_ex.c **** 
2469:Drivers/STM32H5xx_HAL_Driver/Src/stm32h5xx_hal_rtc_ex.c ****   /* NOTE : This function should not be modified, when the callback is needed,
2470:Drivers/STM32H5xx_HAL_Driver/Src/stm32h5xx_hal_rtc_ex.c ****             the HAL_RTCEx_Tamper2EventCallback could be implemented in the user file
2471:Drivers/STM32H5xx_HAL_Driver/Src/stm32h5xx_hal_rtc_ex.c ****    */
2472:Drivers/STM32H5xx_HAL_Driver/Src/stm32h5xx_hal_rtc_ex.c **** }
 3745              		.loc 1 2472 1 is_stmt 0 view .LVU1157
 3746 0000 7047     		bx	lr
 3747              		.cfi_endproc
 3748              	.LFE344:
 3750              		.section	.text.HAL_RTCEx_Tamper3EventCallback,"ax",%progbits
 3751              		.align	1
 3752              		.weak	HAL_RTCEx_Tamper3EventCallback
 3753              		.syntax unified
 3754              		.thumb
 3755              		.thumb_func
 3757              	HAL_RTCEx_Tamper3EventCallback:
 3758              	.LVL254:
 3759              	.LFB345:
2473:Drivers/STM32H5xx_HAL_Driver/Src/stm32h5xx_hal_rtc_ex.c **** 
ARM GAS  C:\Users\DELL\AppData\Local\Temp\ccMtHSyM.s 			page 114


2474:Drivers/STM32H5xx_HAL_Driver/Src/stm32h5xx_hal_rtc_ex.c **** /**
2475:Drivers/STM32H5xx_HAL_Driver/Src/stm32h5xx_hal_rtc_ex.c ****   * @brief  Tamper 3 callback.
2476:Drivers/STM32H5xx_HAL_Driver/Src/stm32h5xx_hal_rtc_ex.c ****   * @param  hrtc RTC handle
2477:Drivers/STM32H5xx_HAL_Driver/Src/stm32h5xx_hal_rtc_ex.c ****   * @retval None
2478:Drivers/STM32H5xx_HAL_Driver/Src/stm32h5xx_hal_rtc_ex.c ****   */
2479:Drivers/STM32H5xx_HAL_Driver/Src/stm32h5xx_hal_rtc_ex.c **** __weak void HAL_RTCEx_Tamper3EventCallback(RTC_HandleTypeDef *hrtc)
2480:Drivers/STM32H5xx_HAL_Driver/Src/stm32h5xx_hal_rtc_ex.c **** {
 3760              		.loc 1 2480 1 is_stmt 1 view -0
 3761              		.cfi_startproc
 3762              		@ args = 0, pretend = 0, frame = 0
 3763              		@ frame_needed = 0, uses_anonymous_args = 0
 3764              		@ link register save eliminated.
2481:Drivers/STM32H5xx_HAL_Driver/Src/stm32h5xx_hal_rtc_ex.c ****   /* Prevent unused argument(s) compilation warning */
2482:Drivers/STM32H5xx_HAL_Driver/Src/stm32h5xx_hal_rtc_ex.c ****   UNUSED(hrtc);
 3765              		.loc 1 2482 3 view .LVU1159
2483:Drivers/STM32H5xx_HAL_Driver/Src/stm32h5xx_hal_rtc_ex.c **** 
2484:Drivers/STM32H5xx_HAL_Driver/Src/stm32h5xx_hal_rtc_ex.c ****   /* NOTE : This function should not be modified, when the callback is needed,
2485:Drivers/STM32H5xx_HAL_Driver/Src/stm32h5xx_hal_rtc_ex.c ****             the HAL_RTCEx_Tamper3EventCallback could be implemented in the user file
2486:Drivers/STM32H5xx_HAL_Driver/Src/stm32h5xx_hal_rtc_ex.c ****    */
2487:Drivers/STM32H5xx_HAL_Driver/Src/stm32h5xx_hal_rtc_ex.c **** }
 3766              		.loc 1 2487 1 is_stmt 0 view .LVU1160
 3767 0000 7047     		bx	lr
 3768              		.cfi_endproc
 3769              	.LFE345:
 3771              		.section	.text.HAL_RTCEx_Tamper4EventCallback,"ax",%progbits
 3772              		.align	1
 3773              		.weak	HAL_RTCEx_Tamper4EventCallback
 3774              		.syntax unified
 3775              		.thumb
 3776              		.thumb_func
 3778              	HAL_RTCEx_Tamper4EventCallback:
 3779              	.LVL255:
 3780              	.LFB346:
2488:Drivers/STM32H5xx_HAL_Driver/Src/stm32h5xx_hal_rtc_ex.c **** 
2489:Drivers/STM32H5xx_HAL_Driver/Src/stm32h5xx_hal_rtc_ex.c **** /**
2490:Drivers/STM32H5xx_HAL_Driver/Src/stm32h5xx_hal_rtc_ex.c ****   * @brief  Tamper 4 callback.
2491:Drivers/STM32H5xx_HAL_Driver/Src/stm32h5xx_hal_rtc_ex.c ****   * @param  hrtc RTC handle
2492:Drivers/STM32H5xx_HAL_Driver/Src/stm32h5xx_hal_rtc_ex.c ****   * @retval None
2493:Drivers/STM32H5xx_HAL_Driver/Src/stm32h5xx_hal_rtc_ex.c ****   */
2494:Drivers/STM32H5xx_HAL_Driver/Src/stm32h5xx_hal_rtc_ex.c **** __weak void HAL_RTCEx_Tamper4EventCallback(RTC_HandleTypeDef *hrtc)
2495:Drivers/STM32H5xx_HAL_Driver/Src/stm32h5xx_hal_rtc_ex.c **** {
 3781              		.loc 1 2495 1 is_stmt 1 view -0
 3782              		.cfi_startproc
 3783              		@ args = 0, pretend = 0, frame = 0
 3784              		@ frame_needed = 0, uses_anonymous_args = 0
 3785              		@ link register save eliminated.
2496:Drivers/STM32H5xx_HAL_Driver/Src/stm32h5xx_hal_rtc_ex.c ****   /* Prevent unused argument(s) compilation warning */
2497:Drivers/STM32H5xx_HAL_Driver/Src/stm32h5xx_hal_rtc_ex.c ****   UNUSED(hrtc);
 3786              		.loc 1 2497 3 view .LVU1162
2498:Drivers/STM32H5xx_HAL_Driver/Src/stm32h5xx_hal_rtc_ex.c **** 
2499:Drivers/STM32H5xx_HAL_Driver/Src/stm32h5xx_hal_rtc_ex.c ****   /* NOTE : This function should not be modified, when the callback is needed,
2500:Drivers/STM32H5xx_HAL_Driver/Src/stm32h5xx_hal_rtc_ex.c ****             the HAL_RTCEx_Tamper4EventCallback could be implemented in the user file
2501:Drivers/STM32H5xx_HAL_Driver/Src/stm32h5xx_hal_rtc_ex.c ****    */
2502:Drivers/STM32H5xx_HAL_Driver/Src/stm32h5xx_hal_rtc_ex.c **** }
 3787              		.loc 1 2502 1 is_stmt 0 view .LVU1163
 3788 0000 7047     		bx	lr
 3789              		.cfi_endproc
ARM GAS  C:\Users\DELL\AppData\Local\Temp\ccMtHSyM.s 			page 115


 3790              	.LFE346:
 3792              		.section	.text.HAL_RTCEx_Tamper5EventCallback,"ax",%progbits
 3793              		.align	1
 3794              		.weak	HAL_RTCEx_Tamper5EventCallback
 3795              		.syntax unified
 3796              		.thumb
 3797              		.thumb_func
 3799              	HAL_RTCEx_Tamper5EventCallback:
 3800              	.LVL256:
 3801              	.LFB347:
2503:Drivers/STM32H5xx_HAL_Driver/Src/stm32h5xx_hal_rtc_ex.c **** 
2504:Drivers/STM32H5xx_HAL_Driver/Src/stm32h5xx_hal_rtc_ex.c **** /**
2505:Drivers/STM32H5xx_HAL_Driver/Src/stm32h5xx_hal_rtc_ex.c ****   * @brief  Tamper 5 callback.
2506:Drivers/STM32H5xx_HAL_Driver/Src/stm32h5xx_hal_rtc_ex.c ****   * @param  hrtc RTC handle
2507:Drivers/STM32H5xx_HAL_Driver/Src/stm32h5xx_hal_rtc_ex.c ****   * @retval None
2508:Drivers/STM32H5xx_HAL_Driver/Src/stm32h5xx_hal_rtc_ex.c ****   */
2509:Drivers/STM32H5xx_HAL_Driver/Src/stm32h5xx_hal_rtc_ex.c **** __weak void HAL_RTCEx_Tamper5EventCallback(RTC_HandleTypeDef *hrtc)
2510:Drivers/STM32H5xx_HAL_Driver/Src/stm32h5xx_hal_rtc_ex.c **** {
 3802              		.loc 1 2510 1 is_stmt 1 view -0
 3803              		.cfi_startproc
 3804              		@ args = 0, pretend = 0, frame = 0
 3805              		@ frame_needed = 0, uses_anonymous_args = 0
 3806              		@ link register save eliminated.
2511:Drivers/STM32H5xx_HAL_Driver/Src/stm32h5xx_hal_rtc_ex.c ****   /* Prevent unused argument(s) compilation warning */
2512:Drivers/STM32H5xx_HAL_Driver/Src/stm32h5xx_hal_rtc_ex.c ****   UNUSED(hrtc);
 3807              		.loc 1 2512 3 view .LVU1165
2513:Drivers/STM32H5xx_HAL_Driver/Src/stm32h5xx_hal_rtc_ex.c **** 
2514:Drivers/STM32H5xx_HAL_Driver/Src/stm32h5xx_hal_rtc_ex.c ****   /* NOTE : This function should not be modified, when the callback is needed,
2515:Drivers/STM32H5xx_HAL_Driver/Src/stm32h5xx_hal_rtc_ex.c ****             the HAL_RTCEx_Tamper5EventCallback could be implemented in the user file
2516:Drivers/STM32H5xx_HAL_Driver/Src/stm32h5xx_hal_rtc_ex.c ****    */
2517:Drivers/STM32H5xx_HAL_Driver/Src/stm32h5xx_hal_rtc_ex.c **** }
 3808              		.loc 1 2517 1 is_stmt 0 view .LVU1166
 3809 0000 7047     		bx	lr
 3810              		.cfi_endproc
 3811              	.LFE347:
 3813              		.section	.text.HAL_RTCEx_Tamper6EventCallback,"ax",%progbits
 3814              		.align	1
 3815              		.weak	HAL_RTCEx_Tamper6EventCallback
 3816              		.syntax unified
 3817              		.thumb
 3818              		.thumb_func
 3820              	HAL_RTCEx_Tamper6EventCallback:
 3821              	.LVL257:
 3822              	.LFB348:
2518:Drivers/STM32H5xx_HAL_Driver/Src/stm32h5xx_hal_rtc_ex.c **** 
2519:Drivers/STM32H5xx_HAL_Driver/Src/stm32h5xx_hal_rtc_ex.c **** /**
2520:Drivers/STM32H5xx_HAL_Driver/Src/stm32h5xx_hal_rtc_ex.c ****   * @brief  Tamper 6 callback.
2521:Drivers/STM32H5xx_HAL_Driver/Src/stm32h5xx_hal_rtc_ex.c ****   * @param  hrtc RTC handle
2522:Drivers/STM32H5xx_HAL_Driver/Src/stm32h5xx_hal_rtc_ex.c ****   * @retval None
2523:Drivers/STM32H5xx_HAL_Driver/Src/stm32h5xx_hal_rtc_ex.c ****   */
2524:Drivers/STM32H5xx_HAL_Driver/Src/stm32h5xx_hal_rtc_ex.c **** __weak void HAL_RTCEx_Tamper6EventCallback(RTC_HandleTypeDef *hrtc)
2525:Drivers/STM32H5xx_HAL_Driver/Src/stm32h5xx_hal_rtc_ex.c **** {
 3823              		.loc 1 2525 1 is_stmt 1 view -0
 3824              		.cfi_startproc
 3825              		@ args = 0, pretend = 0, frame = 0
 3826              		@ frame_needed = 0, uses_anonymous_args = 0
 3827              		@ link register save eliminated.
ARM GAS  C:\Users\DELL\AppData\Local\Temp\ccMtHSyM.s 			page 116


2526:Drivers/STM32H5xx_HAL_Driver/Src/stm32h5xx_hal_rtc_ex.c ****   /* Prevent unused argument(s) compilation warning */
2527:Drivers/STM32H5xx_HAL_Driver/Src/stm32h5xx_hal_rtc_ex.c ****   UNUSED(hrtc);
 3828              		.loc 1 2527 3 view .LVU1168
2528:Drivers/STM32H5xx_HAL_Driver/Src/stm32h5xx_hal_rtc_ex.c **** 
2529:Drivers/STM32H5xx_HAL_Driver/Src/stm32h5xx_hal_rtc_ex.c ****   /* NOTE : This function should not be modified, when the callback is needed,
2530:Drivers/STM32H5xx_HAL_Driver/Src/stm32h5xx_hal_rtc_ex.c ****             the HAL_RTCEx_Tamper6EventCallback could be implemented in the user file
2531:Drivers/STM32H5xx_HAL_Driver/Src/stm32h5xx_hal_rtc_ex.c ****    */
2532:Drivers/STM32H5xx_HAL_Driver/Src/stm32h5xx_hal_rtc_ex.c **** }
 3829              		.loc 1 2532 1 is_stmt 0 view .LVU1169
 3830 0000 7047     		bx	lr
 3831              		.cfi_endproc
 3832              	.LFE348:
 3834              		.section	.text.HAL_RTCEx_Tamper7EventCallback,"ax",%progbits
 3835              		.align	1
 3836              		.weak	HAL_RTCEx_Tamper7EventCallback
 3837              		.syntax unified
 3838              		.thumb
 3839              		.thumb_func
 3841              	HAL_RTCEx_Tamper7EventCallback:
 3842              	.LVL258:
 3843              	.LFB349:
2533:Drivers/STM32H5xx_HAL_Driver/Src/stm32h5xx_hal_rtc_ex.c **** 
2534:Drivers/STM32H5xx_HAL_Driver/Src/stm32h5xx_hal_rtc_ex.c **** /**
2535:Drivers/STM32H5xx_HAL_Driver/Src/stm32h5xx_hal_rtc_ex.c ****   * @brief  Tamper 7 callback.
2536:Drivers/STM32H5xx_HAL_Driver/Src/stm32h5xx_hal_rtc_ex.c ****   * @param  hrtc RTC handle
2537:Drivers/STM32H5xx_HAL_Driver/Src/stm32h5xx_hal_rtc_ex.c ****   * @retval None
2538:Drivers/STM32H5xx_HAL_Driver/Src/stm32h5xx_hal_rtc_ex.c ****   */
2539:Drivers/STM32H5xx_HAL_Driver/Src/stm32h5xx_hal_rtc_ex.c **** __weak void HAL_RTCEx_Tamper7EventCallback(RTC_HandleTypeDef *hrtc)
2540:Drivers/STM32H5xx_HAL_Driver/Src/stm32h5xx_hal_rtc_ex.c **** {
 3844              		.loc 1 2540 1 is_stmt 1 view -0
 3845              		.cfi_startproc
 3846              		@ args = 0, pretend = 0, frame = 0
 3847              		@ frame_needed = 0, uses_anonymous_args = 0
 3848              		@ link register save eliminated.
2541:Drivers/STM32H5xx_HAL_Driver/Src/stm32h5xx_hal_rtc_ex.c ****   /* Prevent unused argument(s) compilation warning */
2542:Drivers/STM32H5xx_HAL_Driver/Src/stm32h5xx_hal_rtc_ex.c ****   UNUSED(hrtc);
 3849              		.loc 1 2542 3 view .LVU1171
2543:Drivers/STM32H5xx_HAL_Driver/Src/stm32h5xx_hal_rtc_ex.c **** 
2544:Drivers/STM32H5xx_HAL_Driver/Src/stm32h5xx_hal_rtc_ex.c ****   /* NOTE : This function should not be modified, when the callback is needed,
2545:Drivers/STM32H5xx_HAL_Driver/Src/stm32h5xx_hal_rtc_ex.c ****             the HAL_RTCEx_Tamper7EventCallback could be implemented in the user file
2546:Drivers/STM32H5xx_HAL_Driver/Src/stm32h5xx_hal_rtc_ex.c ****    */
2547:Drivers/STM32H5xx_HAL_Driver/Src/stm32h5xx_hal_rtc_ex.c **** }
 3850              		.loc 1 2547 1 is_stmt 0 view .LVU1172
 3851 0000 7047     		bx	lr
 3852              		.cfi_endproc
 3853              	.LFE349:
 3855              		.section	.text.HAL_RTCEx_Tamper8EventCallback,"ax",%progbits
 3856              		.align	1
 3857              		.weak	HAL_RTCEx_Tamper8EventCallback
 3858              		.syntax unified
 3859              		.thumb
 3860              		.thumb_func
 3862              	HAL_RTCEx_Tamper8EventCallback:
 3863              	.LVL259:
 3864              	.LFB350:
2548:Drivers/STM32H5xx_HAL_Driver/Src/stm32h5xx_hal_rtc_ex.c **** 
2549:Drivers/STM32H5xx_HAL_Driver/Src/stm32h5xx_hal_rtc_ex.c **** /**
ARM GAS  C:\Users\DELL\AppData\Local\Temp\ccMtHSyM.s 			page 117


2550:Drivers/STM32H5xx_HAL_Driver/Src/stm32h5xx_hal_rtc_ex.c ****   * @brief  Tamper 8 callback.
2551:Drivers/STM32H5xx_HAL_Driver/Src/stm32h5xx_hal_rtc_ex.c ****   * @param  hrtc RTC handle
2552:Drivers/STM32H5xx_HAL_Driver/Src/stm32h5xx_hal_rtc_ex.c ****   * @retval None
2553:Drivers/STM32H5xx_HAL_Driver/Src/stm32h5xx_hal_rtc_ex.c ****   */
2554:Drivers/STM32H5xx_HAL_Driver/Src/stm32h5xx_hal_rtc_ex.c **** __weak void HAL_RTCEx_Tamper8EventCallback(RTC_HandleTypeDef *hrtc)
2555:Drivers/STM32H5xx_HAL_Driver/Src/stm32h5xx_hal_rtc_ex.c **** {
 3865              		.loc 1 2555 1 is_stmt 1 view -0
 3866              		.cfi_startproc
 3867              		@ args = 0, pretend = 0, frame = 0
 3868              		@ frame_needed = 0, uses_anonymous_args = 0
 3869              		@ link register save eliminated.
2556:Drivers/STM32H5xx_HAL_Driver/Src/stm32h5xx_hal_rtc_ex.c ****   /* Prevent unused argument(s) compilation warning */
2557:Drivers/STM32H5xx_HAL_Driver/Src/stm32h5xx_hal_rtc_ex.c ****   UNUSED(hrtc);
 3870              		.loc 1 2557 3 view .LVU1174
2558:Drivers/STM32H5xx_HAL_Driver/Src/stm32h5xx_hal_rtc_ex.c **** 
2559:Drivers/STM32H5xx_HAL_Driver/Src/stm32h5xx_hal_rtc_ex.c ****   /* NOTE : This function should not be modified, when the callback is needed,
2560:Drivers/STM32H5xx_HAL_Driver/Src/stm32h5xx_hal_rtc_ex.c ****             the HAL_RTCEx_Tamper8EventCallback could be implemented in the user file
2561:Drivers/STM32H5xx_HAL_Driver/Src/stm32h5xx_hal_rtc_ex.c ****    */
2562:Drivers/STM32H5xx_HAL_Driver/Src/stm32h5xx_hal_rtc_ex.c **** }
 3871              		.loc 1 2562 1 is_stmt 0 view .LVU1175
 3872 0000 7047     		bx	lr
 3873              		.cfi_endproc
 3874              	.LFE350:
 3876              		.section	.text.HAL_RTCEx_InternalTamper1EventCallback,"ax",%progbits
 3877              		.align	1
 3878              		.weak	HAL_RTCEx_InternalTamper1EventCallback
 3879              		.syntax unified
 3880              		.thumb
 3881              		.thumb_func
 3883              	HAL_RTCEx_InternalTamper1EventCallback:
 3884              	.LVL260:
 3885              	.LFB351:
2563:Drivers/STM32H5xx_HAL_Driver/Src/stm32h5xx_hal_rtc_ex.c **** 
2564:Drivers/STM32H5xx_HAL_Driver/Src/stm32h5xx_hal_rtc_ex.c **** /**
2565:Drivers/STM32H5xx_HAL_Driver/Src/stm32h5xx_hal_rtc_ex.c ****   * @brief  Internal Tamper 1 callback.
2566:Drivers/STM32H5xx_HAL_Driver/Src/stm32h5xx_hal_rtc_ex.c ****   * @param  hrtc RTC handle
2567:Drivers/STM32H5xx_HAL_Driver/Src/stm32h5xx_hal_rtc_ex.c ****   * @retval None
2568:Drivers/STM32H5xx_HAL_Driver/Src/stm32h5xx_hal_rtc_ex.c ****   */
2569:Drivers/STM32H5xx_HAL_Driver/Src/stm32h5xx_hal_rtc_ex.c **** __weak void HAL_RTCEx_InternalTamper1EventCallback(RTC_HandleTypeDef *hrtc)
2570:Drivers/STM32H5xx_HAL_Driver/Src/stm32h5xx_hal_rtc_ex.c **** {
 3886              		.loc 1 2570 1 is_stmt 1 view -0
 3887              		.cfi_startproc
 3888              		@ args = 0, pretend = 0, frame = 0
 3889              		@ frame_needed = 0, uses_anonymous_args = 0
 3890              		@ link register save eliminated.
2571:Drivers/STM32H5xx_HAL_Driver/Src/stm32h5xx_hal_rtc_ex.c ****   /* Prevent unused argument(s) compilation warning */
2572:Drivers/STM32H5xx_HAL_Driver/Src/stm32h5xx_hal_rtc_ex.c ****   UNUSED(hrtc);
 3891              		.loc 1 2572 3 view .LVU1177
2573:Drivers/STM32H5xx_HAL_Driver/Src/stm32h5xx_hal_rtc_ex.c **** 
2574:Drivers/STM32H5xx_HAL_Driver/Src/stm32h5xx_hal_rtc_ex.c ****   /* NOTE : This function should not be modified, when the callback is needed,
2575:Drivers/STM32H5xx_HAL_Driver/Src/stm32h5xx_hal_rtc_ex.c ****             the HAL_RTCEx_InternalTamper1EventCallback could be implemented in the user file
2576:Drivers/STM32H5xx_HAL_Driver/Src/stm32h5xx_hal_rtc_ex.c ****    */
2577:Drivers/STM32H5xx_HAL_Driver/Src/stm32h5xx_hal_rtc_ex.c **** }
 3892              		.loc 1 2577 1 is_stmt 0 view .LVU1178
 3893 0000 7047     		bx	lr
 3894              		.cfi_endproc
 3895              	.LFE351:
ARM GAS  C:\Users\DELL\AppData\Local\Temp\ccMtHSyM.s 			page 118


 3897              		.section	.text.HAL_RTCEx_InternalTamper2EventCallback,"ax",%progbits
 3898              		.align	1
 3899              		.weak	HAL_RTCEx_InternalTamper2EventCallback
 3900              		.syntax unified
 3901              		.thumb
 3902              		.thumb_func
 3904              	HAL_RTCEx_InternalTamper2EventCallback:
 3905              	.LVL261:
 3906              	.LFB352:
2578:Drivers/STM32H5xx_HAL_Driver/Src/stm32h5xx_hal_rtc_ex.c **** 
2579:Drivers/STM32H5xx_HAL_Driver/Src/stm32h5xx_hal_rtc_ex.c **** /**
2580:Drivers/STM32H5xx_HAL_Driver/Src/stm32h5xx_hal_rtc_ex.c ****   * @brief  Internal Tamper 2 callback.
2581:Drivers/STM32H5xx_HAL_Driver/Src/stm32h5xx_hal_rtc_ex.c ****   * @param  hrtc RTC handle
2582:Drivers/STM32H5xx_HAL_Driver/Src/stm32h5xx_hal_rtc_ex.c ****   * @retval None
2583:Drivers/STM32H5xx_HAL_Driver/Src/stm32h5xx_hal_rtc_ex.c ****   */
2584:Drivers/STM32H5xx_HAL_Driver/Src/stm32h5xx_hal_rtc_ex.c **** __weak void HAL_RTCEx_InternalTamper2EventCallback(RTC_HandleTypeDef *hrtc)
2585:Drivers/STM32H5xx_HAL_Driver/Src/stm32h5xx_hal_rtc_ex.c **** {
 3907              		.loc 1 2585 1 is_stmt 1 view -0
 3908              		.cfi_startproc
 3909              		@ args = 0, pretend = 0, frame = 0
 3910              		@ frame_needed = 0, uses_anonymous_args = 0
 3911              		@ link register save eliminated.
2586:Drivers/STM32H5xx_HAL_Driver/Src/stm32h5xx_hal_rtc_ex.c ****   /* Prevent unused argument(s) compilation warning */
2587:Drivers/STM32H5xx_HAL_Driver/Src/stm32h5xx_hal_rtc_ex.c ****   UNUSED(hrtc);
 3912              		.loc 1 2587 3 view .LVU1180
2588:Drivers/STM32H5xx_HAL_Driver/Src/stm32h5xx_hal_rtc_ex.c **** 
2589:Drivers/STM32H5xx_HAL_Driver/Src/stm32h5xx_hal_rtc_ex.c ****   /* NOTE : This function should not be modified, when the callback is needed,
2590:Drivers/STM32H5xx_HAL_Driver/Src/stm32h5xx_hal_rtc_ex.c ****             the HAL_RTCEx_InternalTamper2EventCallback could be implemented in the user file
2591:Drivers/STM32H5xx_HAL_Driver/Src/stm32h5xx_hal_rtc_ex.c ****    */
2592:Drivers/STM32H5xx_HAL_Driver/Src/stm32h5xx_hal_rtc_ex.c **** }
 3913              		.loc 1 2592 1 is_stmt 0 view .LVU1181
 3914 0000 7047     		bx	lr
 3915              		.cfi_endproc
 3916              	.LFE352:
 3918              		.section	.text.HAL_RTCEx_InternalTamper3EventCallback,"ax",%progbits
 3919              		.align	1
 3920              		.weak	HAL_RTCEx_InternalTamper3EventCallback
 3921              		.syntax unified
 3922              		.thumb
 3923              		.thumb_func
 3925              	HAL_RTCEx_InternalTamper3EventCallback:
 3926              	.LVL262:
 3927              	.LFB353:
2593:Drivers/STM32H5xx_HAL_Driver/Src/stm32h5xx_hal_rtc_ex.c **** 
2594:Drivers/STM32H5xx_HAL_Driver/Src/stm32h5xx_hal_rtc_ex.c **** /**
2595:Drivers/STM32H5xx_HAL_Driver/Src/stm32h5xx_hal_rtc_ex.c ****   * @brief  Internal Tamper 3 callback.
2596:Drivers/STM32H5xx_HAL_Driver/Src/stm32h5xx_hal_rtc_ex.c ****   * @param  hrtc RTC handle
2597:Drivers/STM32H5xx_HAL_Driver/Src/stm32h5xx_hal_rtc_ex.c ****   * @retval None
2598:Drivers/STM32H5xx_HAL_Driver/Src/stm32h5xx_hal_rtc_ex.c ****   */
2599:Drivers/STM32H5xx_HAL_Driver/Src/stm32h5xx_hal_rtc_ex.c **** __weak void HAL_RTCEx_InternalTamper3EventCallback(RTC_HandleTypeDef *hrtc)
2600:Drivers/STM32H5xx_HAL_Driver/Src/stm32h5xx_hal_rtc_ex.c **** {
 3928              		.loc 1 2600 1 is_stmt 1 view -0
 3929              		.cfi_startproc
 3930              		@ args = 0, pretend = 0, frame = 0
 3931              		@ frame_needed = 0, uses_anonymous_args = 0
 3932              		@ link register save eliminated.
2601:Drivers/STM32H5xx_HAL_Driver/Src/stm32h5xx_hal_rtc_ex.c ****   /* Prevent unused argument(s) compilation warning */
ARM GAS  C:\Users\DELL\AppData\Local\Temp\ccMtHSyM.s 			page 119


2602:Drivers/STM32H5xx_HAL_Driver/Src/stm32h5xx_hal_rtc_ex.c ****   UNUSED(hrtc);
 3933              		.loc 1 2602 3 view .LVU1183
2603:Drivers/STM32H5xx_HAL_Driver/Src/stm32h5xx_hal_rtc_ex.c **** 
2604:Drivers/STM32H5xx_HAL_Driver/Src/stm32h5xx_hal_rtc_ex.c ****   /* NOTE : This function should not be modified, when the callback is needed,
2605:Drivers/STM32H5xx_HAL_Driver/Src/stm32h5xx_hal_rtc_ex.c ****             the HAL_RTCEx_InternalTamper3EventCallback could be implemented in the user file
2606:Drivers/STM32H5xx_HAL_Driver/Src/stm32h5xx_hal_rtc_ex.c ****    */
2607:Drivers/STM32H5xx_HAL_Driver/Src/stm32h5xx_hal_rtc_ex.c **** }
 3934              		.loc 1 2607 1 is_stmt 0 view .LVU1184
 3935 0000 7047     		bx	lr
 3936              		.cfi_endproc
 3937              	.LFE353:
 3939              		.section	.text.HAL_RTCEx_InternalTamper4EventCallback,"ax",%progbits
 3940              		.align	1
 3941              		.weak	HAL_RTCEx_InternalTamper4EventCallback
 3942              		.syntax unified
 3943              		.thumb
 3944              		.thumb_func
 3946              	HAL_RTCEx_InternalTamper4EventCallback:
 3947              	.LVL263:
 3948              	.LFB354:
2608:Drivers/STM32H5xx_HAL_Driver/Src/stm32h5xx_hal_rtc_ex.c **** 
2609:Drivers/STM32H5xx_HAL_Driver/Src/stm32h5xx_hal_rtc_ex.c **** /**
2610:Drivers/STM32H5xx_HAL_Driver/Src/stm32h5xx_hal_rtc_ex.c ****   * @brief  Internal Tamper 4 callback.
2611:Drivers/STM32H5xx_HAL_Driver/Src/stm32h5xx_hal_rtc_ex.c ****   * @param  hrtc RTC handle
2612:Drivers/STM32H5xx_HAL_Driver/Src/stm32h5xx_hal_rtc_ex.c ****   * @retval None
2613:Drivers/STM32H5xx_HAL_Driver/Src/stm32h5xx_hal_rtc_ex.c ****   */
2614:Drivers/STM32H5xx_HAL_Driver/Src/stm32h5xx_hal_rtc_ex.c **** __weak void HAL_RTCEx_InternalTamper4EventCallback(RTC_HandleTypeDef *hrtc)
2615:Drivers/STM32H5xx_HAL_Driver/Src/stm32h5xx_hal_rtc_ex.c **** {
 3949              		.loc 1 2615 1 is_stmt 1 view -0
 3950              		.cfi_startproc
 3951              		@ args = 0, pretend = 0, frame = 0
 3952              		@ frame_needed = 0, uses_anonymous_args = 0
 3953              		@ link register save eliminated.
2616:Drivers/STM32H5xx_HAL_Driver/Src/stm32h5xx_hal_rtc_ex.c ****   /* Prevent unused argument(s) compilation warning */
2617:Drivers/STM32H5xx_HAL_Driver/Src/stm32h5xx_hal_rtc_ex.c ****   UNUSED(hrtc);
 3954              		.loc 1 2617 3 view .LVU1186
2618:Drivers/STM32H5xx_HAL_Driver/Src/stm32h5xx_hal_rtc_ex.c **** 
2619:Drivers/STM32H5xx_HAL_Driver/Src/stm32h5xx_hal_rtc_ex.c ****   /* NOTE : This function should not be modified, when the callback is needed,
2620:Drivers/STM32H5xx_HAL_Driver/Src/stm32h5xx_hal_rtc_ex.c ****             the HAL_RTCEx_InternalTamper4EventCallback could be implemented in the user file
2621:Drivers/STM32H5xx_HAL_Driver/Src/stm32h5xx_hal_rtc_ex.c ****    */
2622:Drivers/STM32H5xx_HAL_Driver/Src/stm32h5xx_hal_rtc_ex.c **** }
 3955              		.loc 1 2622 1 is_stmt 0 view .LVU1187
 3956 0000 7047     		bx	lr
 3957              		.cfi_endproc
 3958              	.LFE354:
 3960              		.section	.text.HAL_RTCEx_InternalTamper5EventCallback,"ax",%progbits
 3961              		.align	1
 3962              		.weak	HAL_RTCEx_InternalTamper5EventCallback
 3963              		.syntax unified
 3964              		.thumb
 3965              		.thumb_func
 3967              	HAL_RTCEx_InternalTamper5EventCallback:
 3968              	.LVL264:
 3969              	.LFB355:
2623:Drivers/STM32H5xx_HAL_Driver/Src/stm32h5xx_hal_rtc_ex.c **** 
2624:Drivers/STM32H5xx_HAL_Driver/Src/stm32h5xx_hal_rtc_ex.c **** /**
2625:Drivers/STM32H5xx_HAL_Driver/Src/stm32h5xx_hal_rtc_ex.c ****   * @brief  Internal Tamper 5 callback.
ARM GAS  C:\Users\DELL\AppData\Local\Temp\ccMtHSyM.s 			page 120


2626:Drivers/STM32H5xx_HAL_Driver/Src/stm32h5xx_hal_rtc_ex.c ****   * @param  hrtc RTC handle
2627:Drivers/STM32H5xx_HAL_Driver/Src/stm32h5xx_hal_rtc_ex.c ****   * @retval None
2628:Drivers/STM32H5xx_HAL_Driver/Src/stm32h5xx_hal_rtc_ex.c ****   */
2629:Drivers/STM32H5xx_HAL_Driver/Src/stm32h5xx_hal_rtc_ex.c **** __weak void HAL_RTCEx_InternalTamper5EventCallback(RTC_HandleTypeDef *hrtc)
2630:Drivers/STM32H5xx_HAL_Driver/Src/stm32h5xx_hal_rtc_ex.c **** {
 3970              		.loc 1 2630 1 is_stmt 1 view -0
 3971              		.cfi_startproc
 3972              		@ args = 0, pretend = 0, frame = 0
 3973              		@ frame_needed = 0, uses_anonymous_args = 0
 3974              		@ link register save eliminated.
2631:Drivers/STM32H5xx_HAL_Driver/Src/stm32h5xx_hal_rtc_ex.c ****   /* Prevent unused argument(s) compilation warning */
2632:Drivers/STM32H5xx_HAL_Driver/Src/stm32h5xx_hal_rtc_ex.c ****   UNUSED(hrtc);
 3975              		.loc 1 2632 3 view .LVU1189
2633:Drivers/STM32H5xx_HAL_Driver/Src/stm32h5xx_hal_rtc_ex.c **** 
2634:Drivers/STM32H5xx_HAL_Driver/Src/stm32h5xx_hal_rtc_ex.c ****   /* NOTE : This function should not be modified, when the callback is needed,
2635:Drivers/STM32H5xx_HAL_Driver/Src/stm32h5xx_hal_rtc_ex.c ****             the HAL_RTCEx_InternalTamper5EventCallback could be implemented in the user file
2636:Drivers/STM32H5xx_HAL_Driver/Src/stm32h5xx_hal_rtc_ex.c ****    */
2637:Drivers/STM32H5xx_HAL_Driver/Src/stm32h5xx_hal_rtc_ex.c **** }
 3976              		.loc 1 2637 1 is_stmt 0 view .LVU1190
 3977 0000 7047     		bx	lr
 3978              		.cfi_endproc
 3979              	.LFE355:
 3981              		.section	.text.HAL_RTCEx_InternalTamper6EventCallback,"ax",%progbits
 3982              		.align	1
 3983              		.weak	HAL_RTCEx_InternalTamper6EventCallback
 3984              		.syntax unified
 3985              		.thumb
 3986              		.thumb_func
 3988              	HAL_RTCEx_InternalTamper6EventCallback:
 3989              	.LVL265:
 3990              	.LFB356:
2638:Drivers/STM32H5xx_HAL_Driver/Src/stm32h5xx_hal_rtc_ex.c **** 
2639:Drivers/STM32H5xx_HAL_Driver/Src/stm32h5xx_hal_rtc_ex.c **** /**
2640:Drivers/STM32H5xx_HAL_Driver/Src/stm32h5xx_hal_rtc_ex.c ****   * @brief  Internal Tamper 6 callback.
2641:Drivers/STM32H5xx_HAL_Driver/Src/stm32h5xx_hal_rtc_ex.c ****   * @param  hrtc RTC handle
2642:Drivers/STM32H5xx_HAL_Driver/Src/stm32h5xx_hal_rtc_ex.c ****   * @retval None
2643:Drivers/STM32H5xx_HAL_Driver/Src/stm32h5xx_hal_rtc_ex.c ****   */
2644:Drivers/STM32H5xx_HAL_Driver/Src/stm32h5xx_hal_rtc_ex.c **** __weak void HAL_RTCEx_InternalTamper6EventCallback(RTC_HandleTypeDef *hrtc)
2645:Drivers/STM32H5xx_HAL_Driver/Src/stm32h5xx_hal_rtc_ex.c **** {
 3991              		.loc 1 2645 1 is_stmt 1 view -0
 3992              		.cfi_startproc
 3993              		@ args = 0, pretend = 0, frame = 0
 3994              		@ frame_needed = 0, uses_anonymous_args = 0
 3995              		@ link register save eliminated.
2646:Drivers/STM32H5xx_HAL_Driver/Src/stm32h5xx_hal_rtc_ex.c ****   /* Prevent unused argument(s) compilation warning */
2647:Drivers/STM32H5xx_HAL_Driver/Src/stm32h5xx_hal_rtc_ex.c ****   UNUSED(hrtc);
 3996              		.loc 1 2647 3 view .LVU1192
2648:Drivers/STM32H5xx_HAL_Driver/Src/stm32h5xx_hal_rtc_ex.c **** 
2649:Drivers/STM32H5xx_HAL_Driver/Src/stm32h5xx_hal_rtc_ex.c ****   /* NOTE : This function should not be modified, when the callback is needed,
2650:Drivers/STM32H5xx_HAL_Driver/Src/stm32h5xx_hal_rtc_ex.c ****             the HAL_RTCEx_InternalTamper6EventCallback could be implemented in the user file
2651:Drivers/STM32H5xx_HAL_Driver/Src/stm32h5xx_hal_rtc_ex.c ****    */
2652:Drivers/STM32H5xx_HAL_Driver/Src/stm32h5xx_hal_rtc_ex.c **** }
 3997              		.loc 1 2652 1 is_stmt 0 view .LVU1193
 3998 0000 7047     		bx	lr
 3999              		.cfi_endproc
 4000              	.LFE356:
 4002              		.section	.text.HAL_RTCEx_InternalTamper7EventCallback,"ax",%progbits
ARM GAS  C:\Users\DELL\AppData\Local\Temp\ccMtHSyM.s 			page 121


 4003              		.align	1
 4004              		.weak	HAL_RTCEx_InternalTamper7EventCallback
 4005              		.syntax unified
 4006              		.thumb
 4007              		.thumb_func
 4009              	HAL_RTCEx_InternalTamper7EventCallback:
 4010              	.LVL266:
 4011              	.LFB357:
2653:Drivers/STM32H5xx_HAL_Driver/Src/stm32h5xx_hal_rtc_ex.c **** 
2654:Drivers/STM32H5xx_HAL_Driver/Src/stm32h5xx_hal_rtc_ex.c **** /**
2655:Drivers/STM32H5xx_HAL_Driver/Src/stm32h5xx_hal_rtc_ex.c ****   * @brief  Internal Tamper 7 callback.
2656:Drivers/STM32H5xx_HAL_Driver/Src/stm32h5xx_hal_rtc_ex.c ****   * @param  hrtc RTC handle
2657:Drivers/STM32H5xx_HAL_Driver/Src/stm32h5xx_hal_rtc_ex.c ****   * @retval None
2658:Drivers/STM32H5xx_HAL_Driver/Src/stm32h5xx_hal_rtc_ex.c ****   */
2659:Drivers/STM32H5xx_HAL_Driver/Src/stm32h5xx_hal_rtc_ex.c **** __weak void HAL_RTCEx_InternalTamper7EventCallback(RTC_HandleTypeDef *hrtc)
2660:Drivers/STM32H5xx_HAL_Driver/Src/stm32h5xx_hal_rtc_ex.c **** {
 4012              		.loc 1 2660 1 is_stmt 1 view -0
 4013              		.cfi_startproc
 4014              		@ args = 0, pretend = 0, frame = 0
 4015              		@ frame_needed = 0, uses_anonymous_args = 0
 4016              		@ link register save eliminated.
2661:Drivers/STM32H5xx_HAL_Driver/Src/stm32h5xx_hal_rtc_ex.c ****   /* Prevent unused argument(s) compilation warning */
2662:Drivers/STM32H5xx_HAL_Driver/Src/stm32h5xx_hal_rtc_ex.c ****   UNUSED(hrtc);
 4017              		.loc 1 2662 3 view .LVU1195
2663:Drivers/STM32H5xx_HAL_Driver/Src/stm32h5xx_hal_rtc_ex.c **** 
2664:Drivers/STM32H5xx_HAL_Driver/Src/stm32h5xx_hal_rtc_ex.c ****   /* NOTE : This function should not be modified, when the callback is needed,
2665:Drivers/STM32H5xx_HAL_Driver/Src/stm32h5xx_hal_rtc_ex.c ****             the HAL_RTCEx_InternalTamper7EventCallback could be implemented in the user file
2666:Drivers/STM32H5xx_HAL_Driver/Src/stm32h5xx_hal_rtc_ex.c ****    */
2667:Drivers/STM32H5xx_HAL_Driver/Src/stm32h5xx_hal_rtc_ex.c **** }
 4018              		.loc 1 2667 1 is_stmt 0 view .LVU1196
 4019 0000 7047     		bx	lr
 4020              		.cfi_endproc
 4021              	.LFE357:
 4023              		.section	.text.HAL_RTCEx_InternalTamper8EventCallback,"ax",%progbits
 4024              		.align	1
 4025              		.weak	HAL_RTCEx_InternalTamper8EventCallback
 4026              		.syntax unified
 4027              		.thumb
 4028              		.thumb_func
 4030              	HAL_RTCEx_InternalTamper8EventCallback:
 4031              	.LVL267:
 4032              	.LFB358:
2668:Drivers/STM32H5xx_HAL_Driver/Src/stm32h5xx_hal_rtc_ex.c **** 
2669:Drivers/STM32H5xx_HAL_Driver/Src/stm32h5xx_hal_rtc_ex.c **** /**
2670:Drivers/STM32H5xx_HAL_Driver/Src/stm32h5xx_hal_rtc_ex.c ****   * @brief  Internal Tamper 8 callback.
2671:Drivers/STM32H5xx_HAL_Driver/Src/stm32h5xx_hal_rtc_ex.c ****   * @param  hrtc RTC handle
2672:Drivers/STM32H5xx_HAL_Driver/Src/stm32h5xx_hal_rtc_ex.c ****   * @retval None
2673:Drivers/STM32H5xx_HAL_Driver/Src/stm32h5xx_hal_rtc_ex.c ****   */
2674:Drivers/STM32H5xx_HAL_Driver/Src/stm32h5xx_hal_rtc_ex.c **** __weak void HAL_RTCEx_InternalTamper8EventCallback(RTC_HandleTypeDef *hrtc)
2675:Drivers/STM32H5xx_HAL_Driver/Src/stm32h5xx_hal_rtc_ex.c **** {
 4033              		.loc 1 2675 1 is_stmt 1 view -0
 4034              		.cfi_startproc
 4035              		@ args = 0, pretend = 0, frame = 0
 4036              		@ frame_needed = 0, uses_anonymous_args = 0
 4037              		@ link register save eliminated.
2676:Drivers/STM32H5xx_HAL_Driver/Src/stm32h5xx_hal_rtc_ex.c ****   /* Prevent unused argument(s) compilation warning */
2677:Drivers/STM32H5xx_HAL_Driver/Src/stm32h5xx_hal_rtc_ex.c ****   UNUSED(hrtc);
ARM GAS  C:\Users\DELL\AppData\Local\Temp\ccMtHSyM.s 			page 122


 4038              		.loc 1 2677 3 view .LVU1198
2678:Drivers/STM32H5xx_HAL_Driver/Src/stm32h5xx_hal_rtc_ex.c **** 
2679:Drivers/STM32H5xx_HAL_Driver/Src/stm32h5xx_hal_rtc_ex.c ****   /* NOTE : This function should not be modified, when the callback is needed,
2680:Drivers/STM32H5xx_HAL_Driver/Src/stm32h5xx_hal_rtc_ex.c ****             the HAL_RTCEx_InternalTamper8EventCallback could be implemented in the user file
2681:Drivers/STM32H5xx_HAL_Driver/Src/stm32h5xx_hal_rtc_ex.c ****    */
2682:Drivers/STM32H5xx_HAL_Driver/Src/stm32h5xx_hal_rtc_ex.c **** }
 4039              		.loc 1 2682 1 is_stmt 0 view .LVU1199
 4040 0000 7047     		bx	lr
 4041              		.cfi_endproc
 4042              	.LFE358:
 4044              		.section	.text.HAL_RTCEx_InternalTamper9EventCallback,"ax",%progbits
 4045              		.align	1
 4046              		.weak	HAL_RTCEx_InternalTamper9EventCallback
 4047              		.syntax unified
 4048              		.thumb
 4049              		.thumb_func
 4051              	HAL_RTCEx_InternalTamper9EventCallback:
 4052              	.LVL268:
 4053              	.LFB359:
2683:Drivers/STM32H5xx_HAL_Driver/Src/stm32h5xx_hal_rtc_ex.c **** 
2684:Drivers/STM32H5xx_HAL_Driver/Src/stm32h5xx_hal_rtc_ex.c **** /**
2685:Drivers/STM32H5xx_HAL_Driver/Src/stm32h5xx_hal_rtc_ex.c ****   * @brief  Internal Tamper 9 callback.
2686:Drivers/STM32H5xx_HAL_Driver/Src/stm32h5xx_hal_rtc_ex.c ****   * @param  hrtc RTC handle
2687:Drivers/STM32H5xx_HAL_Driver/Src/stm32h5xx_hal_rtc_ex.c ****   * @retval None
2688:Drivers/STM32H5xx_HAL_Driver/Src/stm32h5xx_hal_rtc_ex.c ****   */
2689:Drivers/STM32H5xx_HAL_Driver/Src/stm32h5xx_hal_rtc_ex.c **** __weak void HAL_RTCEx_InternalTamper9EventCallback(RTC_HandleTypeDef *hrtc)
2690:Drivers/STM32H5xx_HAL_Driver/Src/stm32h5xx_hal_rtc_ex.c **** {
 4054              		.loc 1 2690 1 is_stmt 1 view -0
 4055              		.cfi_startproc
 4056              		@ args = 0, pretend = 0, frame = 0
 4057              		@ frame_needed = 0, uses_anonymous_args = 0
 4058              		@ link register save eliminated.
2691:Drivers/STM32H5xx_HAL_Driver/Src/stm32h5xx_hal_rtc_ex.c ****   /* Prevent unused argument(s) compilation warning */
2692:Drivers/STM32H5xx_HAL_Driver/Src/stm32h5xx_hal_rtc_ex.c ****   UNUSED(hrtc);
 4059              		.loc 1 2692 3 view .LVU1201
2693:Drivers/STM32H5xx_HAL_Driver/Src/stm32h5xx_hal_rtc_ex.c **** 
2694:Drivers/STM32H5xx_HAL_Driver/Src/stm32h5xx_hal_rtc_ex.c ****   /* NOTE : This function should not be modified, when the callback is needed,
2695:Drivers/STM32H5xx_HAL_Driver/Src/stm32h5xx_hal_rtc_ex.c ****             the HAL_RTCEx_InternalTamper9EventCallback could be implemented in the user file
2696:Drivers/STM32H5xx_HAL_Driver/Src/stm32h5xx_hal_rtc_ex.c ****    */
2697:Drivers/STM32H5xx_HAL_Driver/Src/stm32h5xx_hal_rtc_ex.c **** }
 4060              		.loc 1 2697 1 is_stmt 0 view .LVU1202
 4061 0000 7047     		bx	lr
 4062              		.cfi_endproc
 4063              	.LFE359:
 4065              		.section	.text.HAL_RTCEx_InternalTamper11EventCallback,"ax",%progbits
 4066              		.align	1
 4067              		.weak	HAL_RTCEx_InternalTamper11EventCallback
 4068              		.syntax unified
 4069              		.thumb
 4070              		.thumb_func
 4072              	HAL_RTCEx_InternalTamper11EventCallback:
 4073              	.LVL269:
 4074              	.LFB360:
2698:Drivers/STM32H5xx_HAL_Driver/Src/stm32h5xx_hal_rtc_ex.c **** 
2699:Drivers/STM32H5xx_HAL_Driver/Src/stm32h5xx_hal_rtc_ex.c **** /**
2700:Drivers/STM32H5xx_HAL_Driver/Src/stm32h5xx_hal_rtc_ex.c ****   * @brief  Internal Tamper 11 callback.
2701:Drivers/STM32H5xx_HAL_Driver/Src/stm32h5xx_hal_rtc_ex.c ****   * @param  hrtc RTC handle
ARM GAS  C:\Users\DELL\AppData\Local\Temp\ccMtHSyM.s 			page 123


2702:Drivers/STM32H5xx_HAL_Driver/Src/stm32h5xx_hal_rtc_ex.c ****   * @retval None
2703:Drivers/STM32H5xx_HAL_Driver/Src/stm32h5xx_hal_rtc_ex.c ****   */
2704:Drivers/STM32H5xx_HAL_Driver/Src/stm32h5xx_hal_rtc_ex.c **** __weak void HAL_RTCEx_InternalTamper11EventCallback(RTC_HandleTypeDef *hrtc)
2705:Drivers/STM32H5xx_HAL_Driver/Src/stm32h5xx_hal_rtc_ex.c **** {
 4075              		.loc 1 2705 1 is_stmt 1 view -0
 4076              		.cfi_startproc
 4077              		@ args = 0, pretend = 0, frame = 0
 4078              		@ frame_needed = 0, uses_anonymous_args = 0
 4079              		@ link register save eliminated.
2706:Drivers/STM32H5xx_HAL_Driver/Src/stm32h5xx_hal_rtc_ex.c ****   /* Prevent unused argument(s) compilation warning */
2707:Drivers/STM32H5xx_HAL_Driver/Src/stm32h5xx_hal_rtc_ex.c ****   UNUSED(hrtc);
 4080              		.loc 1 2707 3 view .LVU1204
2708:Drivers/STM32H5xx_HAL_Driver/Src/stm32h5xx_hal_rtc_ex.c **** 
2709:Drivers/STM32H5xx_HAL_Driver/Src/stm32h5xx_hal_rtc_ex.c ****   /* NOTE : This function should not be modified, when the callback is needed,
2710:Drivers/STM32H5xx_HAL_Driver/Src/stm32h5xx_hal_rtc_ex.c ****             the HAL_RTCEx_InternalTamper11EventCallback could be implemented in the user file
2711:Drivers/STM32H5xx_HAL_Driver/Src/stm32h5xx_hal_rtc_ex.c ****    */
2712:Drivers/STM32H5xx_HAL_Driver/Src/stm32h5xx_hal_rtc_ex.c **** }
 4081              		.loc 1 2712 1 is_stmt 0 view .LVU1205
 4082 0000 7047     		bx	lr
 4083              		.cfi_endproc
 4084              	.LFE360:
 4086              		.section	.text.HAL_RTCEx_InternalTamper12EventCallback,"ax",%progbits
 4087              		.align	1
 4088              		.weak	HAL_RTCEx_InternalTamper12EventCallback
 4089              		.syntax unified
 4090              		.thumb
 4091              		.thumb_func
 4093              	HAL_RTCEx_InternalTamper12EventCallback:
 4094              	.LVL270:
 4095              	.LFB361:
2713:Drivers/STM32H5xx_HAL_Driver/Src/stm32h5xx_hal_rtc_ex.c **** 
2714:Drivers/STM32H5xx_HAL_Driver/Src/stm32h5xx_hal_rtc_ex.c **** /**
2715:Drivers/STM32H5xx_HAL_Driver/Src/stm32h5xx_hal_rtc_ex.c ****   * @brief  Internal Tamper 12 callback.
2716:Drivers/STM32H5xx_HAL_Driver/Src/stm32h5xx_hal_rtc_ex.c ****   * @param  hrtc RTC handle
2717:Drivers/STM32H5xx_HAL_Driver/Src/stm32h5xx_hal_rtc_ex.c ****   * @retval None
2718:Drivers/STM32H5xx_HAL_Driver/Src/stm32h5xx_hal_rtc_ex.c ****   */
2719:Drivers/STM32H5xx_HAL_Driver/Src/stm32h5xx_hal_rtc_ex.c **** __weak void HAL_RTCEx_InternalTamper12EventCallback(RTC_HandleTypeDef *hrtc)
2720:Drivers/STM32H5xx_HAL_Driver/Src/stm32h5xx_hal_rtc_ex.c **** {
 4096              		.loc 1 2720 1 is_stmt 1 view -0
 4097              		.cfi_startproc
 4098              		@ args = 0, pretend = 0, frame = 0
 4099              		@ frame_needed = 0, uses_anonymous_args = 0
 4100              		@ link register save eliminated.
2721:Drivers/STM32H5xx_HAL_Driver/Src/stm32h5xx_hal_rtc_ex.c ****   /* Prevent unused argument(s) compilation warning */
2722:Drivers/STM32H5xx_HAL_Driver/Src/stm32h5xx_hal_rtc_ex.c ****   UNUSED(hrtc);
 4101              		.loc 1 2722 3 view .LVU1207
2723:Drivers/STM32H5xx_HAL_Driver/Src/stm32h5xx_hal_rtc_ex.c **** 
2724:Drivers/STM32H5xx_HAL_Driver/Src/stm32h5xx_hal_rtc_ex.c ****   /* NOTE : This function should not be modified, when the callback is needed,
2725:Drivers/STM32H5xx_HAL_Driver/Src/stm32h5xx_hal_rtc_ex.c ****             the HAL_RTCEx_InternalTamper12EventCallback could be implemented in the user file
2726:Drivers/STM32H5xx_HAL_Driver/Src/stm32h5xx_hal_rtc_ex.c ****    */
2727:Drivers/STM32H5xx_HAL_Driver/Src/stm32h5xx_hal_rtc_ex.c **** }
 4102              		.loc 1 2727 1 is_stmt 0 view .LVU1208
 4103 0000 7047     		bx	lr
 4104              		.cfi_endproc
 4105              	.LFE361:
 4107              		.section	.text.HAL_RTCEx_InternalTamper13EventCallback,"ax",%progbits
 4108              		.align	1
ARM GAS  C:\Users\DELL\AppData\Local\Temp\ccMtHSyM.s 			page 124


 4109              		.weak	HAL_RTCEx_InternalTamper13EventCallback
 4110              		.syntax unified
 4111              		.thumb
 4112              		.thumb_func
 4114              	HAL_RTCEx_InternalTamper13EventCallback:
 4115              	.LVL271:
 4116              	.LFB362:
2728:Drivers/STM32H5xx_HAL_Driver/Src/stm32h5xx_hal_rtc_ex.c **** 
2729:Drivers/STM32H5xx_HAL_Driver/Src/stm32h5xx_hal_rtc_ex.c **** /**
2730:Drivers/STM32H5xx_HAL_Driver/Src/stm32h5xx_hal_rtc_ex.c ****   * @brief  Internal Tamper 13 callback.
2731:Drivers/STM32H5xx_HAL_Driver/Src/stm32h5xx_hal_rtc_ex.c ****   * @param  hrtc RTC handle
2732:Drivers/STM32H5xx_HAL_Driver/Src/stm32h5xx_hal_rtc_ex.c ****   * @retval None
2733:Drivers/STM32H5xx_HAL_Driver/Src/stm32h5xx_hal_rtc_ex.c ****   */
2734:Drivers/STM32H5xx_HAL_Driver/Src/stm32h5xx_hal_rtc_ex.c **** __weak void HAL_RTCEx_InternalTamper13EventCallback(RTC_HandleTypeDef *hrtc)
2735:Drivers/STM32H5xx_HAL_Driver/Src/stm32h5xx_hal_rtc_ex.c **** {
 4117              		.loc 1 2735 1 is_stmt 1 view -0
 4118              		.cfi_startproc
 4119              		@ args = 0, pretend = 0, frame = 0
 4120              		@ frame_needed = 0, uses_anonymous_args = 0
 4121              		@ link register save eliminated.
2736:Drivers/STM32H5xx_HAL_Driver/Src/stm32h5xx_hal_rtc_ex.c ****   /* Prevent unused argument(s) compilation warning */
2737:Drivers/STM32H5xx_HAL_Driver/Src/stm32h5xx_hal_rtc_ex.c ****   UNUSED(hrtc);
 4122              		.loc 1 2737 3 view .LVU1210
2738:Drivers/STM32H5xx_HAL_Driver/Src/stm32h5xx_hal_rtc_ex.c **** 
2739:Drivers/STM32H5xx_HAL_Driver/Src/stm32h5xx_hal_rtc_ex.c ****   /* NOTE : This function should not be modified, when the callback is needed,
2740:Drivers/STM32H5xx_HAL_Driver/Src/stm32h5xx_hal_rtc_ex.c ****             the HAL_RTCEx_InternalTamper13EventCallback could be implemented in the user file
2741:Drivers/STM32H5xx_HAL_Driver/Src/stm32h5xx_hal_rtc_ex.c ****    */
2742:Drivers/STM32H5xx_HAL_Driver/Src/stm32h5xx_hal_rtc_ex.c **** }
 4123              		.loc 1 2742 1 is_stmt 0 view .LVU1211
 4124 0000 7047     		bx	lr
 4125              		.cfi_endproc
 4126              	.LFE362:
 4128              		.section	.text.HAL_RTCEx_InternalTamper15EventCallback,"ax",%progbits
 4129              		.align	1
 4130              		.weak	HAL_RTCEx_InternalTamper15EventCallback
 4131              		.syntax unified
 4132              		.thumb
 4133              		.thumb_func
 4135              	HAL_RTCEx_InternalTamper15EventCallback:
 4136              	.LVL272:
 4137              	.LFB363:
2743:Drivers/STM32H5xx_HAL_Driver/Src/stm32h5xx_hal_rtc_ex.c **** 
2744:Drivers/STM32H5xx_HAL_Driver/Src/stm32h5xx_hal_rtc_ex.c **** /**
2745:Drivers/STM32H5xx_HAL_Driver/Src/stm32h5xx_hal_rtc_ex.c ****   * @brief  Internal Tamper 15 callback.
2746:Drivers/STM32H5xx_HAL_Driver/Src/stm32h5xx_hal_rtc_ex.c ****   * @param  hrtc RTC handle
2747:Drivers/STM32H5xx_HAL_Driver/Src/stm32h5xx_hal_rtc_ex.c ****   * @retval None
2748:Drivers/STM32H5xx_HAL_Driver/Src/stm32h5xx_hal_rtc_ex.c ****   */
2749:Drivers/STM32H5xx_HAL_Driver/Src/stm32h5xx_hal_rtc_ex.c **** __weak void HAL_RTCEx_InternalTamper15EventCallback(RTC_HandleTypeDef *hrtc)
2750:Drivers/STM32H5xx_HAL_Driver/Src/stm32h5xx_hal_rtc_ex.c **** {
 4138              		.loc 1 2750 1 is_stmt 1 view -0
 4139              		.cfi_startproc
 4140              		@ args = 0, pretend = 0, frame = 0
 4141              		@ frame_needed = 0, uses_anonymous_args = 0
 4142              		@ link register save eliminated.
2751:Drivers/STM32H5xx_HAL_Driver/Src/stm32h5xx_hal_rtc_ex.c ****   /* Prevent unused argument(s) compilation warning */
2752:Drivers/STM32H5xx_HAL_Driver/Src/stm32h5xx_hal_rtc_ex.c ****   UNUSED(hrtc);
 4143              		.loc 1 2752 3 view .LVU1213
ARM GAS  C:\Users\DELL\AppData\Local\Temp\ccMtHSyM.s 			page 125


2753:Drivers/STM32H5xx_HAL_Driver/Src/stm32h5xx_hal_rtc_ex.c **** 
2754:Drivers/STM32H5xx_HAL_Driver/Src/stm32h5xx_hal_rtc_ex.c ****   /* NOTE : This function should not be modified, when the callback is needed,
2755:Drivers/STM32H5xx_HAL_Driver/Src/stm32h5xx_hal_rtc_ex.c ****             the HAL_RTCEx_InternalTamper15EventCallback could be implemented in the user file
2756:Drivers/STM32H5xx_HAL_Driver/Src/stm32h5xx_hal_rtc_ex.c ****    */
2757:Drivers/STM32H5xx_HAL_Driver/Src/stm32h5xx_hal_rtc_ex.c **** }
 4144              		.loc 1 2757 1 is_stmt 0 view .LVU1214
 4145 0000 7047     		bx	lr
 4146              		.cfi_endproc
 4147              	.LFE363:
 4149              		.section	.text.HAL_RTCEx_TamperIRQHandler,"ax",%progbits
 4150              		.align	1
 4151              		.global	HAL_RTCEx_TamperIRQHandler
 4152              		.syntax unified
 4153              		.thumb
 4154              		.thumb_func
 4156              	HAL_RTCEx_TamperIRQHandler:
 4157              	.LVL273:
 4158              	.LFB342:
2178:Drivers/STM32H5xx_HAL_Driver/Src/stm32h5xx_hal_rtc_ex.c ****   /* Get the pending status of the Tampers Interrupt */
 4159              		.loc 1 2178 1 is_stmt 1 view -0
 4160              		.cfi_startproc
 4161              		@ args = 0, pretend = 0, frame = 0
 4162              		@ frame_needed = 0, uses_anonymous_args = 0
2178:Drivers/STM32H5xx_HAL_Driver/Src/stm32h5xx_hal_rtc_ex.c ****   /* Get the pending status of the Tampers Interrupt */
 4163              		.loc 1 2178 1 is_stmt 0 view .LVU1216
 4164 0000 38B5     		push	{r3, r4, r5, lr}
 4165              	.LCFI18:
 4166              		.cfi_def_cfa_offset 16
 4167              		.cfi_offset 3, -16
 4168              		.cfi_offset 4, -12
 4169              		.cfi_offset 5, -8
 4170              		.cfi_offset 14, -4
 4171 0002 0546     		mov	r5, r0
2183:Drivers/STM32H5xx_HAL_Driver/Src/stm32h5xx_hal_rtc_ex.c **** #endif /* defined (__ARM_FEATURE_CMSE) && (__ARM_FEATURE_CMSE == 3U) */
 4172              		.loc 1 2183 3 is_stmt 1 view .LVU1217
2183:Drivers/STM32H5xx_HAL_Driver/Src/stm32h5xx_hal_rtc_ex.c **** #endif /* defined (__ARM_FEATURE_CMSE) && (__ARM_FEATURE_CMSE == 3U) */
 4173              		.loc 1 2183 12 is_stmt 0 view .LVU1218
 4174 0004 4B4B     		ldr	r3, .L363
 4175 0006 5C6B     		ldr	r4, [r3, #52]
 4176              	.LVL274:
2187:Drivers/STM32H5xx_HAL_Driver/Src/stm32h5xx_hal_rtc_ex.c ****   {
 4177              		.loc 1 2187 3 is_stmt 1 view .LVU1219
2187:Drivers/STM32H5xx_HAL_Driver/Src/stm32h5xx_hal_rtc_ex.c ****   {
 4178              		.loc 1 2187 6 is_stmt 0 view .LVU1220
 4179 0008 14F0010F 		tst	r4, #1
 4180 000c 3ED1     		bne	.L342
 4181              	.LVL275:
 4182              	.L320:
2199:Drivers/STM32H5xx_HAL_Driver/Src/stm32h5xx_hal_rtc_ex.c ****   {
 4183              		.loc 1 2199 3 is_stmt 1 view .LVU1221
2199:Drivers/STM32H5xx_HAL_Driver/Src/stm32h5xx_hal_rtc_ex.c ****   {
 4184              		.loc 1 2199 6 is_stmt 0 view .LVU1222
 4185 000e 14F0020F 		tst	r4, #2
 4186 0012 3ED1     		bne	.L343
 4187              	.L321:
2212:Drivers/STM32H5xx_HAL_Driver/Src/stm32h5xx_hal_rtc_ex.c ****   {
 4188              		.loc 1 2212 3 is_stmt 1 view .LVU1223
ARM GAS  C:\Users\DELL\AppData\Local\Temp\ccMtHSyM.s 			page 126


2212:Drivers/STM32H5xx_HAL_Driver/Src/stm32h5xx_hal_rtc_ex.c ****   {
 4189              		.loc 1 2212 6 is_stmt 0 view .LVU1224
 4190 0014 14F0040F 		tst	r4, #4
 4191 0018 3FD1     		bne	.L344
 4192              	.L322:
2224:Drivers/STM32H5xx_HAL_Driver/Src/stm32h5xx_hal_rtc_ex.c ****   {
 4193              		.loc 1 2224 3 is_stmt 1 view .LVU1225
2224:Drivers/STM32H5xx_HAL_Driver/Src/stm32h5xx_hal_rtc_ex.c ****   {
 4194              		.loc 1 2224 6 is_stmt 0 view .LVU1226
 4195 001a 14F0080F 		tst	r4, #8
 4196 001e 40D1     		bne	.L345
 4197              	.L323:
2236:Drivers/STM32H5xx_HAL_Driver/Src/stm32h5xx_hal_rtc_ex.c ****   {
 4198              		.loc 1 2236 3 is_stmt 1 view .LVU1227
2236:Drivers/STM32H5xx_HAL_Driver/Src/stm32h5xx_hal_rtc_ex.c ****   {
 4199              		.loc 1 2236 6 is_stmt 0 view .LVU1228
 4200 0020 14F0100F 		tst	r4, #16
 4201 0024 41D1     		bne	.L346
 4202              	.L324:
2248:Drivers/STM32H5xx_HAL_Driver/Src/stm32h5xx_hal_rtc_ex.c ****   {
 4203              		.loc 1 2248 3 is_stmt 1 view .LVU1229
2248:Drivers/STM32H5xx_HAL_Driver/Src/stm32h5xx_hal_rtc_ex.c ****   {
 4204              		.loc 1 2248 6 is_stmt 0 view .LVU1230
 4205 0026 14F0200F 		tst	r4, #32
 4206 002a 42D1     		bne	.L347
 4207              	.L325:
2260:Drivers/STM32H5xx_HAL_Driver/Src/stm32h5xx_hal_rtc_ex.c ****   {
 4208              		.loc 1 2260 3 is_stmt 1 view .LVU1231
2260:Drivers/STM32H5xx_HAL_Driver/Src/stm32h5xx_hal_rtc_ex.c ****   {
 4209              		.loc 1 2260 6 is_stmt 0 view .LVU1232
 4210 002c 14F0400F 		tst	r4, #64
 4211 0030 43D1     		bne	.L348
 4212              	.L326:
2272:Drivers/STM32H5xx_HAL_Driver/Src/stm32h5xx_hal_rtc_ex.c ****   {
 4213              		.loc 1 2272 3 is_stmt 1 view .LVU1233
2272:Drivers/STM32H5xx_HAL_Driver/Src/stm32h5xx_hal_rtc_ex.c ****   {
 4214              		.loc 1 2272 6 is_stmt 0 view .LVU1234
 4215 0032 14F0800F 		tst	r4, #128
 4216 0036 44D1     		bne	.L349
 4217              	.L327:
2285:Drivers/STM32H5xx_HAL_Driver/Src/stm32h5xx_hal_rtc_ex.c ****   {
 4218              		.loc 1 2285 3 is_stmt 1 view .LVU1235
2285:Drivers/STM32H5xx_HAL_Driver/Src/stm32h5xx_hal_rtc_ex.c ****   {
 4219              		.loc 1 2285 6 is_stmt 0 view .LVU1236
 4220 0038 14F4803F 		tst	r4, #65536
 4221 003c 45D1     		bne	.L350
 4222              	.L328:
2297:Drivers/STM32H5xx_HAL_Driver/Src/stm32h5xx_hal_rtc_ex.c ****   {
 4223              		.loc 1 2297 3 is_stmt 1 view .LVU1237
2297:Drivers/STM32H5xx_HAL_Driver/Src/stm32h5xx_hal_rtc_ex.c ****   {
 4224              		.loc 1 2297 6 is_stmt 0 view .LVU1238
 4225 003e 14F4003F 		tst	r4, #131072
 4226 0042 46D1     		bne	.L351
 4227              	.L329:
2309:Drivers/STM32H5xx_HAL_Driver/Src/stm32h5xx_hal_rtc_ex.c ****   {
 4228              		.loc 1 2309 3 is_stmt 1 view .LVU1239
2309:Drivers/STM32H5xx_HAL_Driver/Src/stm32h5xx_hal_rtc_ex.c ****   {
ARM GAS  C:\Users\DELL\AppData\Local\Temp\ccMtHSyM.s 			page 127


 4229              		.loc 1 2309 6 is_stmt 0 view .LVU1240
 4230 0044 14F4802F 		tst	r4, #262144
 4231 0048 47D1     		bne	.L352
 4232              	.L330:
2321:Drivers/STM32H5xx_HAL_Driver/Src/stm32h5xx_hal_rtc_ex.c ****   {
 4233              		.loc 1 2321 3 is_stmt 1 view .LVU1241
2321:Drivers/STM32H5xx_HAL_Driver/Src/stm32h5xx_hal_rtc_ex.c ****   {
 4234              		.loc 1 2321 6 is_stmt 0 view .LVU1242
 4235 004a 14F4002F 		tst	r4, #524288
 4236 004e 48D1     		bne	.L353
 4237              	.L331:
2333:Drivers/STM32H5xx_HAL_Driver/Src/stm32h5xx_hal_rtc_ex.c ****   {
 4238              		.loc 1 2333 3 is_stmt 1 view .LVU1243
2333:Drivers/STM32H5xx_HAL_Driver/Src/stm32h5xx_hal_rtc_ex.c ****   {
 4239              		.loc 1 2333 6 is_stmt 0 view .LVU1244
 4240 0050 14F4801F 		tst	r4, #1048576
 4241 0054 49D1     		bne	.L354
 4242              	.L332:
2345:Drivers/STM32H5xx_HAL_Driver/Src/stm32h5xx_hal_rtc_ex.c ****   {
 4243              		.loc 1 2345 3 is_stmt 1 view .LVU1245
2345:Drivers/STM32H5xx_HAL_Driver/Src/stm32h5xx_hal_rtc_ex.c ****   {
 4244              		.loc 1 2345 6 is_stmt 0 view .LVU1246
 4245 0056 14F4001F 		tst	r4, #2097152
 4246 005a 4AD1     		bne	.L355
 4247              	.L333:
2357:Drivers/STM32H5xx_HAL_Driver/Src/stm32h5xx_hal_rtc_ex.c ****   {
 4248              		.loc 1 2357 3 is_stmt 1 view .LVU1247
2357:Drivers/STM32H5xx_HAL_Driver/Src/stm32h5xx_hal_rtc_ex.c ****   {
 4249              		.loc 1 2357 6 is_stmt 0 view .LVU1248
 4250 005c 14F4800F 		tst	r4, #4194304
 4251 0060 4BD1     		bne	.L356
 4252              	.L334:
2369:Drivers/STM32H5xx_HAL_Driver/Src/stm32h5xx_hal_rtc_ex.c ****   {
 4253              		.loc 1 2369 3 is_stmt 1 view .LVU1249
2369:Drivers/STM32H5xx_HAL_Driver/Src/stm32h5xx_hal_rtc_ex.c ****   {
 4254              		.loc 1 2369 6 is_stmt 0 view .LVU1250
 4255 0062 14F4000F 		tst	r4, #8388608
 4256 0066 4CD1     		bne	.L357
 4257              	.L335:
2381:Drivers/STM32H5xx_HAL_Driver/Src/stm32h5xx_hal_rtc_ex.c ****   {
 4258              		.loc 1 2381 3 is_stmt 1 view .LVU1251
2381:Drivers/STM32H5xx_HAL_Driver/Src/stm32h5xx_hal_rtc_ex.c ****   {
 4259              		.loc 1 2381 6 is_stmt 0 view .LVU1252
 4260 0068 14F0807F 		tst	r4, #16777216
 4261 006c 4DD1     		bne	.L358
 4262              	.L336:
2393:Drivers/STM32H5xx_HAL_Driver/Src/stm32h5xx_hal_rtc_ex.c ****   {
 4263              		.loc 1 2393 3 is_stmt 1 view .LVU1253
2393:Drivers/STM32H5xx_HAL_Driver/Src/stm32h5xx_hal_rtc_ex.c ****   {
 4264              		.loc 1 2393 6 is_stmt 0 view .LVU1254
 4265 006e 14F0806F 		tst	r4, #67108864
 4266 0072 4ED1     		bne	.L359
 4267              	.L337:
2405:Drivers/STM32H5xx_HAL_Driver/Src/stm32h5xx_hal_rtc_ex.c ****   {
 4268              		.loc 1 2405 3 is_stmt 1 view .LVU1255
2405:Drivers/STM32H5xx_HAL_Driver/Src/stm32h5xx_hal_rtc_ex.c ****   {
 4269              		.loc 1 2405 6 is_stmt 0 view .LVU1256
ARM GAS  C:\Users\DELL\AppData\Local\Temp\ccMtHSyM.s 			page 128


 4270 0074 14F0006F 		tst	r4, #134217728
 4271 0078 4FD1     		bne	.L360
 4272              	.L338:
2417:Drivers/STM32H5xx_HAL_Driver/Src/stm32h5xx_hal_rtc_ex.c ****   {
 4273              		.loc 1 2417 3 is_stmt 1 view .LVU1257
2417:Drivers/STM32H5xx_HAL_Driver/Src/stm32h5xx_hal_rtc_ex.c ****   {
 4274              		.loc 1 2417 6 is_stmt 0 view .LVU1258
 4275 007a 14F0805F 		tst	r4, #268435456
 4276 007e 50D1     		bne	.L361
 4277              	.L339:
2429:Drivers/STM32H5xx_HAL_Driver/Src/stm32h5xx_hal_rtc_ex.c ****   {
 4278              		.loc 1 2429 3 is_stmt 1 view .LVU1259
2429:Drivers/STM32H5xx_HAL_Driver/Src/stm32h5xx_hal_rtc_ex.c ****   {
 4279              		.loc 1 2429 6 is_stmt 0 view .LVU1260
 4280 0080 14F0804F 		tst	r4, #1073741824
 4281 0084 51D1     		bne	.L362
 4282              	.L340:
2441:Drivers/STM32H5xx_HAL_Driver/Src/stm32h5xx_hal_rtc_ex.c **** }
 4283              		.loc 1 2441 3 is_stmt 1 view .LVU1261
 4284 0086 2B4B     		ldr	r3, .L363
 4285 0088 DC63     		str	r4, [r3, #60]
2442:Drivers/STM32H5xx_HAL_Driver/Src/stm32h5xx_hal_rtc_ex.c **** 
 4286              		.loc 1 2442 1 is_stmt 0 view .LVU1262
 4287 008a 38BD     		pop	{r3, r4, r5, pc}
 4288              	.LVL276:
 4289              	.L342:
2194:Drivers/STM32H5xx_HAL_Driver/Src/stm32h5xx_hal_rtc_ex.c **** #endif /* USE_HAL_RTC_REGISTER_CALLBACKS */
 4290              		.loc 1 2194 5 is_stmt 1 view .LVU1263
 4291 008c FFF7FEFF 		bl	HAL_RTCEx_Tamper1EventCallback
 4292              	.LVL277:
2194:Drivers/STM32H5xx_HAL_Driver/Src/stm32h5xx_hal_rtc_ex.c **** #endif /* USE_HAL_RTC_REGISTER_CALLBACKS */
 4293              		.loc 1 2194 5 is_stmt 0 view .LVU1264
 4294 0090 BDE7     		b	.L320
 4295              	.L343:
2206:Drivers/STM32H5xx_HAL_Driver/Src/stm32h5xx_hal_rtc_ex.c **** #endif /* USE_HAL_RTC_REGISTER_CALLBACKS */
 4296              		.loc 1 2206 5 is_stmt 1 view .LVU1265
 4297 0092 2846     		mov	r0, r5
 4298 0094 FFF7FEFF 		bl	HAL_RTCEx_Tamper2EventCallback
 4299              	.LVL278:
 4300 0098 BCE7     		b	.L321
 4301              	.L344:
2219:Drivers/STM32H5xx_HAL_Driver/Src/stm32h5xx_hal_rtc_ex.c **** #endif /* USE_HAL_RTC_REGISTER_CALLBACKS */
 4302              		.loc 1 2219 5 view .LVU1266
 4303 009a 2846     		mov	r0, r5
 4304 009c FFF7FEFF 		bl	HAL_RTCEx_Tamper3EventCallback
 4305              	.LVL279:
 4306 00a0 BBE7     		b	.L322
 4307              	.L345:
2231:Drivers/STM32H5xx_HAL_Driver/Src/stm32h5xx_hal_rtc_ex.c **** #endif /* USE_HAL_RTC_REGISTER_CALLBACKS */
 4308              		.loc 1 2231 5 view .LVU1267
 4309 00a2 2846     		mov	r0, r5
 4310 00a4 FFF7FEFF 		bl	HAL_RTCEx_Tamper4EventCallback
 4311              	.LVL280:
 4312 00a8 BAE7     		b	.L323
 4313              	.L346:
2243:Drivers/STM32H5xx_HAL_Driver/Src/stm32h5xx_hal_rtc_ex.c **** #endif /* USE_HAL_RTC_REGISTER_CALLBACKS */
 4314              		.loc 1 2243 5 view .LVU1268
ARM GAS  C:\Users\DELL\AppData\Local\Temp\ccMtHSyM.s 			page 129


 4315 00aa 2846     		mov	r0, r5
 4316 00ac FFF7FEFF 		bl	HAL_RTCEx_Tamper5EventCallback
 4317              	.LVL281:
 4318 00b0 B9E7     		b	.L324
 4319              	.L347:
2255:Drivers/STM32H5xx_HAL_Driver/Src/stm32h5xx_hal_rtc_ex.c **** #endif /* USE_HAL_RTC_REGISTER_CALLBACKS */
 4320              		.loc 1 2255 5 view .LVU1269
 4321 00b2 2846     		mov	r0, r5
 4322 00b4 FFF7FEFF 		bl	HAL_RTCEx_Tamper6EventCallback
 4323              	.LVL282:
 4324 00b8 B8E7     		b	.L325
 4325              	.L348:
2267:Drivers/STM32H5xx_HAL_Driver/Src/stm32h5xx_hal_rtc_ex.c **** #endif /* USE_HAL_RTC_REGISTER_CALLBACKS */
 4326              		.loc 1 2267 5 view .LVU1270
 4327 00ba 2846     		mov	r0, r5
 4328 00bc FFF7FEFF 		bl	HAL_RTCEx_Tamper7EventCallback
 4329              	.LVL283:
 4330 00c0 B7E7     		b	.L326
 4331              	.L349:
2279:Drivers/STM32H5xx_HAL_Driver/Src/stm32h5xx_hal_rtc_ex.c **** #endif /* USE_HAL_RTC_REGISTER_CALLBACKS */
 4332              		.loc 1 2279 5 view .LVU1271
 4333 00c2 2846     		mov	r0, r5
 4334 00c4 FFF7FEFF 		bl	HAL_RTCEx_Tamper8EventCallback
 4335              	.LVL284:
 4336 00c8 B6E7     		b	.L327
 4337              	.L350:
2292:Drivers/STM32H5xx_HAL_Driver/Src/stm32h5xx_hal_rtc_ex.c **** #endif /* USE_HAL_RTC_REGISTER_CALLBACKS */
 4338              		.loc 1 2292 5 view .LVU1272
 4339 00ca 2846     		mov	r0, r5
 4340 00cc FFF7FEFF 		bl	HAL_RTCEx_InternalTamper1EventCallback
 4341              	.LVL285:
 4342 00d0 B5E7     		b	.L328
 4343              	.L351:
2304:Drivers/STM32H5xx_HAL_Driver/Src/stm32h5xx_hal_rtc_ex.c **** #endif /* USE_HAL_RTC_REGISTER_CALLBACKS */
 4344              		.loc 1 2304 5 view .LVU1273
 4345 00d2 2846     		mov	r0, r5
 4346 00d4 FFF7FEFF 		bl	HAL_RTCEx_InternalTamper2EventCallback
 4347              	.LVL286:
 4348 00d8 B4E7     		b	.L329
 4349              	.L352:
2316:Drivers/STM32H5xx_HAL_Driver/Src/stm32h5xx_hal_rtc_ex.c **** #endif /* USE_HAL_RTC_REGISTER_CALLBACKS */
 4350              		.loc 1 2316 5 view .LVU1274
 4351 00da 2846     		mov	r0, r5
 4352 00dc FFF7FEFF 		bl	HAL_RTCEx_InternalTamper3EventCallback
 4353              	.LVL287:
 4354 00e0 B3E7     		b	.L330
 4355              	.L353:
2328:Drivers/STM32H5xx_HAL_Driver/Src/stm32h5xx_hal_rtc_ex.c **** #endif /* USE_HAL_RTC_REGISTER_CALLBACKS */
 4356              		.loc 1 2328 5 view .LVU1275
 4357 00e2 2846     		mov	r0, r5
 4358 00e4 FFF7FEFF 		bl	HAL_RTCEx_InternalTamper4EventCallback
 4359              	.LVL288:
 4360 00e8 B2E7     		b	.L331
 4361              	.L354:
2340:Drivers/STM32H5xx_HAL_Driver/Src/stm32h5xx_hal_rtc_ex.c **** #endif /* USE_HAL_RTC_REGISTER_CALLBACKS */
 4362              		.loc 1 2340 5 view .LVU1276
 4363 00ea 2846     		mov	r0, r5
ARM GAS  C:\Users\DELL\AppData\Local\Temp\ccMtHSyM.s 			page 130


 4364 00ec FFF7FEFF 		bl	HAL_RTCEx_InternalTamper5EventCallback
 4365              	.LVL289:
 4366 00f0 B1E7     		b	.L332
 4367              	.L355:
2352:Drivers/STM32H5xx_HAL_Driver/Src/stm32h5xx_hal_rtc_ex.c **** #endif /* USE_HAL_RTC_REGISTER_CALLBACKS */
 4368              		.loc 1 2352 5 view .LVU1277
 4369 00f2 2846     		mov	r0, r5
 4370 00f4 FFF7FEFF 		bl	HAL_RTCEx_InternalTamper6EventCallback
 4371              	.LVL290:
 4372 00f8 B0E7     		b	.L333
 4373              	.L356:
2364:Drivers/STM32H5xx_HAL_Driver/Src/stm32h5xx_hal_rtc_ex.c **** #endif /* USE_HAL_RTC_REGISTER_CALLBACKS */
 4374              		.loc 1 2364 5 view .LVU1278
 4375 00fa 2846     		mov	r0, r5
 4376 00fc FFF7FEFF 		bl	HAL_RTCEx_InternalTamper7EventCallback
 4377              	.LVL291:
 4378 0100 AFE7     		b	.L334
 4379              	.L357:
2376:Drivers/STM32H5xx_HAL_Driver/Src/stm32h5xx_hal_rtc_ex.c **** #endif /* USE_HAL_RTC_REGISTER_CALLBACKS */
 4380              		.loc 1 2376 5 view .LVU1279
 4381 0102 2846     		mov	r0, r5
 4382 0104 FFF7FEFF 		bl	HAL_RTCEx_InternalTamper8EventCallback
 4383              	.LVL292:
 4384 0108 AEE7     		b	.L335
 4385              	.L358:
2388:Drivers/STM32H5xx_HAL_Driver/Src/stm32h5xx_hal_rtc_ex.c **** #endif /* USE_HAL_RTC_REGISTER_CALLBACKS */
 4386              		.loc 1 2388 5 view .LVU1280
 4387 010a 2846     		mov	r0, r5
 4388 010c FFF7FEFF 		bl	HAL_RTCEx_InternalTamper9EventCallback
 4389              	.LVL293:
 4390 0110 ADE7     		b	.L336
 4391              	.L359:
2400:Drivers/STM32H5xx_HAL_Driver/Src/stm32h5xx_hal_rtc_ex.c **** #endif /* USE_HAL_RTC_REGISTER_CALLBACKS */
 4392              		.loc 1 2400 5 view .LVU1281
 4393 0112 2846     		mov	r0, r5
 4394 0114 FFF7FEFF 		bl	HAL_RTCEx_InternalTamper11EventCallback
 4395              	.LVL294:
 4396 0118 ACE7     		b	.L337
 4397              	.L360:
2412:Drivers/STM32H5xx_HAL_Driver/Src/stm32h5xx_hal_rtc_ex.c **** #endif /* USE_HAL_RTC_REGISTER_CALLBACKS */
 4398              		.loc 1 2412 5 view .LVU1282
 4399 011a 2846     		mov	r0, r5
 4400 011c FFF7FEFF 		bl	HAL_RTCEx_InternalTamper12EventCallback
 4401              	.LVL295:
 4402 0120 ABE7     		b	.L338
 4403              	.L361:
2424:Drivers/STM32H5xx_HAL_Driver/Src/stm32h5xx_hal_rtc_ex.c **** #endif /* USE_HAL_RTC_REGISTER_CALLBACKS */
 4404              		.loc 1 2424 5 view .LVU1283
 4405 0122 2846     		mov	r0, r5
 4406 0124 FFF7FEFF 		bl	HAL_RTCEx_InternalTamper13EventCallback
 4407              	.LVL296:
 4408 0128 AAE7     		b	.L339
 4409              	.L362:
2436:Drivers/STM32H5xx_HAL_Driver/Src/stm32h5xx_hal_rtc_ex.c **** #endif /* USE_HAL_RTC_REGISTER_CALLBACKS */
 4410              		.loc 1 2436 5 view .LVU1284
 4411 012a 2846     		mov	r0, r5
 4412 012c FFF7FEFF 		bl	HAL_RTCEx_InternalTamper15EventCallback
ARM GAS  C:\Users\DELL\AppData\Local\Temp\ccMtHSyM.s 			page 131


 4413              	.LVL297:
 4414 0130 A9E7     		b	.L340
 4415              	.L364:
 4416 0132 00BF     		.align	2
 4417              	.L363:
 4418 0134 007C0044 		.word	1140882432
 4419              		.cfi_endproc
 4420              	.LFE342:
 4422              		.section	.text.HAL_RTCEx_BKUPWrite,"ax",%progbits
 4423              		.align	1
 4424              		.global	HAL_RTCEx_BKUPWrite
 4425              		.syntax unified
 4426              		.thumb
 4427              		.thumb_func
 4429              	HAL_RTCEx_BKUPWrite:
 4430              	.LVL298:
 4431              	.LFB364:
2758:Drivers/STM32H5xx_HAL_Driver/Src/stm32h5xx_hal_rtc_ex.c **** /**
2759:Drivers/STM32H5xx_HAL_Driver/Src/stm32h5xx_hal_rtc_ex.c ****   * @}
2760:Drivers/STM32H5xx_HAL_Driver/Src/stm32h5xx_hal_rtc_ex.c ****   */
2761:Drivers/STM32H5xx_HAL_Driver/Src/stm32h5xx_hal_rtc_ex.c **** 
2762:Drivers/STM32H5xx_HAL_Driver/Src/stm32h5xx_hal_rtc_ex.c **** 
2763:Drivers/STM32H5xx_HAL_Driver/Src/stm32h5xx_hal_rtc_ex.c **** /** @addtogroup RTCEx_Exported_Functions_Group6
2764:Drivers/STM32H5xx_HAL_Driver/Src/stm32h5xx_hal_rtc_ex.c ****   * @brief      Extended RTC Backup register functions
2765:Drivers/STM32H5xx_HAL_Driver/Src/stm32h5xx_hal_rtc_ex.c ****   *
2766:Drivers/STM32H5xx_HAL_Driver/Src/stm32h5xx_hal_rtc_ex.c **** @verbatim
2767:Drivers/STM32H5xx_HAL_Driver/Src/stm32h5xx_hal_rtc_ex.c ****   ===============================================================================
2768:Drivers/STM32H5xx_HAL_Driver/Src/stm32h5xx_hal_rtc_ex.c ****              ##### Extended RTC Backup register functions #####
2769:Drivers/STM32H5xx_HAL_Driver/Src/stm32h5xx_hal_rtc_ex.c ****   ===============================================================================
2770:Drivers/STM32H5xx_HAL_Driver/Src/stm32h5xx_hal_rtc_ex.c ****   [..]
2771:Drivers/STM32H5xx_HAL_Driver/Src/stm32h5xx_hal_rtc_ex.c ****    (+) Before calling any tamper or internal tamper function, you have to call first
2772:Drivers/STM32H5xx_HAL_Driver/Src/stm32h5xx_hal_rtc_ex.c ****        HAL_RTC_Init() function.
2773:Drivers/STM32H5xx_HAL_Driver/Src/stm32h5xx_hal_rtc_ex.c ****    (+) In that one you can select to output tamper event on RTC pin.
2774:Drivers/STM32H5xx_HAL_Driver/Src/stm32h5xx_hal_rtc_ex.c ****   [..]
2775:Drivers/STM32H5xx_HAL_Driver/Src/stm32h5xx_hal_rtc_ex.c ****    This subsection provides functions allowing to
2776:Drivers/STM32H5xx_HAL_Driver/Src/stm32h5xx_hal_rtc_ex.c ****    (+) Write a data in a specified RTC Backup data register
2777:Drivers/STM32H5xx_HAL_Driver/Src/stm32h5xx_hal_rtc_ex.c ****    (+) Read a data in a specified RTC Backup data register
2778:Drivers/STM32H5xx_HAL_Driver/Src/stm32h5xx_hal_rtc_ex.c **** @endverbatim
2779:Drivers/STM32H5xx_HAL_Driver/Src/stm32h5xx_hal_rtc_ex.c ****   * @{
2780:Drivers/STM32H5xx_HAL_Driver/Src/stm32h5xx_hal_rtc_ex.c ****   */
2781:Drivers/STM32H5xx_HAL_Driver/Src/stm32h5xx_hal_rtc_ex.c **** 
2782:Drivers/STM32H5xx_HAL_Driver/Src/stm32h5xx_hal_rtc_ex.c **** 
2783:Drivers/STM32H5xx_HAL_Driver/Src/stm32h5xx_hal_rtc_ex.c **** /**
2784:Drivers/STM32H5xx_HAL_Driver/Src/stm32h5xx_hal_rtc_ex.c ****   * @brief  Write a data in a specified RTC Backup data register.
2785:Drivers/STM32H5xx_HAL_Driver/Src/stm32h5xx_hal_rtc_ex.c ****   * @param  hrtc RTC handle
2786:Drivers/STM32H5xx_HAL_Driver/Src/stm32h5xx_hal_rtc_ex.c ****   * @param  BackupRegister RTC Backup data Register number.
2787:Drivers/STM32H5xx_HAL_Driver/Src/stm32h5xx_hal_rtc_ex.c ****   *          This parameter can be RTC_BKP_DRx where x can be from 0 to RTC_BACKUP_NB
2788:Drivers/STM32H5xx_HAL_Driver/Src/stm32h5xx_hal_rtc_ex.c ****   * @param  Data Data to be written in the specified Backup data register.
2789:Drivers/STM32H5xx_HAL_Driver/Src/stm32h5xx_hal_rtc_ex.c ****   * @retval None
2790:Drivers/STM32H5xx_HAL_Driver/Src/stm32h5xx_hal_rtc_ex.c ****   */
2791:Drivers/STM32H5xx_HAL_Driver/Src/stm32h5xx_hal_rtc_ex.c **** void HAL_RTCEx_BKUPWrite(const RTC_HandleTypeDef *hrtc, uint32_t BackupRegister, uint32_t Data)
2792:Drivers/STM32H5xx_HAL_Driver/Src/stm32h5xx_hal_rtc_ex.c **** {
 4432              		.loc 1 2792 1 view -0
 4433              		.cfi_startproc
 4434              		@ args = 0, pretend = 0, frame = 0
 4435              		@ frame_needed = 0, uses_anonymous_args = 0
 4436              		@ link register save eliminated.
ARM GAS  C:\Users\DELL\AppData\Local\Temp\ccMtHSyM.s 			page 132


2793:Drivers/STM32H5xx_HAL_Driver/Src/stm32h5xx_hal_rtc_ex.c ****   uint32_t tmp;
 4437              		.loc 1 2793 3 view .LVU1286
2794:Drivers/STM32H5xx_HAL_Driver/Src/stm32h5xx_hal_rtc_ex.c **** 
2795:Drivers/STM32H5xx_HAL_Driver/Src/stm32h5xx_hal_rtc_ex.c ****   /* Prevent unused argument(s) compilation warning */
2796:Drivers/STM32H5xx_HAL_Driver/Src/stm32h5xx_hal_rtc_ex.c ****   UNUSED(hrtc);
 4438              		.loc 1 2796 3 view .LVU1287
2797:Drivers/STM32H5xx_HAL_Driver/Src/stm32h5xx_hal_rtc_ex.c **** 
2798:Drivers/STM32H5xx_HAL_Driver/Src/stm32h5xx_hal_rtc_ex.c ****   /* Check the parameters */
2799:Drivers/STM32H5xx_HAL_Driver/Src/stm32h5xx_hal_rtc_ex.c ****   assert_param(IS_RTC_BKP(BackupRegister));
 4439              		.loc 1 2799 3 view .LVU1288
2800:Drivers/STM32H5xx_HAL_Driver/Src/stm32h5xx_hal_rtc_ex.c **** 
2801:Drivers/STM32H5xx_HAL_Driver/Src/stm32h5xx_hal_rtc_ex.c ****   /* Determine address of the specified Backup register */
2802:Drivers/STM32H5xx_HAL_Driver/Src/stm32h5xx_hal_rtc_ex.c ****   tmp = (uint32_t)(&(TAMP->BKP0R));
 4440              		.loc 1 2802 3 view .LVU1289
2803:Drivers/STM32H5xx_HAL_Driver/Src/stm32h5xx_hal_rtc_ex.c ****   tmp += (BackupRegister * 4U);
 4441              		.loc 1 2803 3 view .LVU1290
 4442              		.loc 1 2803 26 is_stmt 0 view .LVU1291
 4443 0000 8900     		lsls	r1, r1, #2
 4444              	.LVL299:
 4445              		.loc 1 2803 7 view .LVU1292
 4446 0002 01F18841 		add	r1, r1, #1140850688
 4447 0006 01F5FA41 		add	r1, r1, #32000
 4448              	.LVL300:
2804:Drivers/STM32H5xx_HAL_Driver/Src/stm32h5xx_hal_rtc_ex.c **** 
2805:Drivers/STM32H5xx_HAL_Driver/Src/stm32h5xx_hal_rtc_ex.c ****   /* Write data in the specified register Backup register */
2806:Drivers/STM32H5xx_HAL_Driver/Src/stm32h5xx_hal_rtc_ex.c ****   *(__IO uint32_t *)tmp = (uint32_t)Data;
 4449              		.loc 1 2806 3 is_stmt 1 view .LVU1293
 4450              		.loc 1 2806 25 is_stmt 0 view .LVU1294
 4451 000a 0A60     		str	r2, [r1]
2807:Drivers/STM32H5xx_HAL_Driver/Src/stm32h5xx_hal_rtc_ex.c **** }
 4452              		.loc 1 2807 1 view .LVU1295
 4453 000c 7047     		bx	lr
 4454              		.cfi_endproc
 4455              	.LFE364:
 4457              		.section	.text.HAL_RTCEx_BKUPRead,"ax",%progbits
 4458              		.align	1
 4459              		.global	HAL_RTCEx_BKUPRead
 4460              		.syntax unified
 4461              		.thumb
 4462              		.thumb_func
 4464              	HAL_RTCEx_BKUPRead:
 4465              	.LVL301:
 4466              	.LFB365:
2808:Drivers/STM32H5xx_HAL_Driver/Src/stm32h5xx_hal_rtc_ex.c **** 
2809:Drivers/STM32H5xx_HAL_Driver/Src/stm32h5xx_hal_rtc_ex.c **** 
2810:Drivers/STM32H5xx_HAL_Driver/Src/stm32h5xx_hal_rtc_ex.c **** /**
2811:Drivers/STM32H5xx_HAL_Driver/Src/stm32h5xx_hal_rtc_ex.c ****   * @brief  Reads data from the specified RTC Backup data Register.
2812:Drivers/STM32H5xx_HAL_Driver/Src/stm32h5xx_hal_rtc_ex.c ****   * @param  hrtc RTC handle
2813:Drivers/STM32H5xx_HAL_Driver/Src/stm32h5xx_hal_rtc_ex.c ****   * @param  BackupRegister RTC Backup data Register number.
2814:Drivers/STM32H5xx_HAL_Driver/Src/stm32h5xx_hal_rtc_ex.c ****   *          This parameter can be RTC_BKP_DRx where x can be from 0 to RTC_BACKUP_NB
2815:Drivers/STM32H5xx_HAL_Driver/Src/stm32h5xx_hal_rtc_ex.c ****   * @retval Read value
2816:Drivers/STM32H5xx_HAL_Driver/Src/stm32h5xx_hal_rtc_ex.c ****   */
2817:Drivers/STM32H5xx_HAL_Driver/Src/stm32h5xx_hal_rtc_ex.c **** uint32_t HAL_RTCEx_BKUPRead(const RTC_HandleTypeDef *hrtc, uint32_t BackupRegister)
2818:Drivers/STM32H5xx_HAL_Driver/Src/stm32h5xx_hal_rtc_ex.c **** {
 4467              		.loc 1 2818 1 is_stmt 1 view -0
 4468              		.cfi_startproc
 4469              		@ args = 0, pretend = 0, frame = 0
ARM GAS  C:\Users\DELL\AppData\Local\Temp\ccMtHSyM.s 			page 133


 4470              		@ frame_needed = 0, uses_anonymous_args = 0
 4471              		@ link register save eliminated.
2819:Drivers/STM32H5xx_HAL_Driver/Src/stm32h5xx_hal_rtc_ex.c ****   uint32_t tmp;
 4472              		.loc 1 2819 3 view .LVU1297
2820:Drivers/STM32H5xx_HAL_Driver/Src/stm32h5xx_hal_rtc_ex.c **** 
2821:Drivers/STM32H5xx_HAL_Driver/Src/stm32h5xx_hal_rtc_ex.c ****   /* Prevent unused argument(s) compilation warning */
2822:Drivers/STM32H5xx_HAL_Driver/Src/stm32h5xx_hal_rtc_ex.c ****   UNUSED(hrtc);
 4473              		.loc 1 2822 3 view .LVU1298
2823:Drivers/STM32H5xx_HAL_Driver/Src/stm32h5xx_hal_rtc_ex.c **** 
2824:Drivers/STM32H5xx_HAL_Driver/Src/stm32h5xx_hal_rtc_ex.c ****   /* Check the parameters */
2825:Drivers/STM32H5xx_HAL_Driver/Src/stm32h5xx_hal_rtc_ex.c ****   assert_param(IS_RTC_BKP(BackupRegister));
 4474              		.loc 1 2825 3 view .LVU1299
2826:Drivers/STM32H5xx_HAL_Driver/Src/stm32h5xx_hal_rtc_ex.c **** 
2827:Drivers/STM32H5xx_HAL_Driver/Src/stm32h5xx_hal_rtc_ex.c ****   /* Determine address of the specified Backup register */
2828:Drivers/STM32H5xx_HAL_Driver/Src/stm32h5xx_hal_rtc_ex.c ****   tmp = (uint32_t)(&(TAMP->BKP0R));
 4475              		.loc 1 2828 3 view .LVU1300
2829:Drivers/STM32H5xx_HAL_Driver/Src/stm32h5xx_hal_rtc_ex.c ****   tmp += (BackupRegister * 4U);
 4476              		.loc 1 2829 3 view .LVU1301
 4477              		.loc 1 2829 26 is_stmt 0 view .LVU1302
 4478 0000 8900     		lsls	r1, r1, #2
 4479              	.LVL302:
 4480              		.loc 1 2829 7 view .LVU1303
 4481 0002 01F18841 		add	r1, r1, #1140850688
 4482 0006 01F5FA41 		add	r1, r1, #32000
 4483              	.LVL303:
2830:Drivers/STM32H5xx_HAL_Driver/Src/stm32h5xx_hal_rtc_ex.c **** 
2831:Drivers/STM32H5xx_HAL_Driver/Src/stm32h5xx_hal_rtc_ex.c ****   /* Read the data from the specified register */
2832:Drivers/STM32H5xx_HAL_Driver/Src/stm32h5xx_hal_rtc_ex.c ****   return (*(__IO uint32_t *)tmp);
 4484              		.loc 1 2832 3 is_stmt 1 view .LVU1304
 4485              		.loc 1 2832 11 is_stmt 0 view .LVU1305
 4486 000a 0868     		ldr	r0, [r1]
 4487              	.LVL304:
2833:Drivers/STM32H5xx_HAL_Driver/Src/stm32h5xx_hal_rtc_ex.c **** }
 4488              		.loc 1 2833 1 view .LVU1306
 4489 000c 7047     		bx	lr
 4490              		.cfi_endproc
 4491              	.LFE365:
 4493              		.section	.text.HAL_RTCEx_BKUPErase,"ax",%progbits
 4494              		.align	1
 4495              		.global	HAL_RTCEx_BKUPErase
 4496              		.syntax unified
 4497              		.thumb
 4498              		.thumb_func
 4500              	HAL_RTCEx_BKUPErase:
 4501              	.LVL305:
 4502              	.LFB366:
2834:Drivers/STM32H5xx_HAL_Driver/Src/stm32h5xx_hal_rtc_ex.c **** 
2835:Drivers/STM32H5xx_HAL_Driver/Src/stm32h5xx_hal_rtc_ex.c **** /**
2836:Drivers/STM32H5xx_HAL_Driver/Src/stm32h5xx_hal_rtc_ex.c ****   * @brief  Reset the RTC Backup data Registers and the device secrets.
2837:Drivers/STM32H5xx_HAL_Driver/Src/stm32h5xx_hal_rtc_ex.c ****   * @param  hrtc RTC handle
2838:Drivers/STM32H5xx_HAL_Driver/Src/stm32h5xx_hal_rtc_ex.c ****   * @retval None
2839:Drivers/STM32H5xx_HAL_Driver/Src/stm32h5xx_hal_rtc_ex.c ****   */
2840:Drivers/STM32H5xx_HAL_Driver/Src/stm32h5xx_hal_rtc_ex.c **** void  HAL_RTCEx_BKUPErase(const RTC_HandleTypeDef *hrtc)
2841:Drivers/STM32H5xx_HAL_Driver/Src/stm32h5xx_hal_rtc_ex.c **** {
 4503              		.loc 1 2841 1 is_stmt 1 view -0
 4504              		.cfi_startproc
 4505              		@ args = 0, pretend = 0, frame = 0
ARM GAS  C:\Users\DELL\AppData\Local\Temp\ccMtHSyM.s 			page 134


 4506              		@ frame_needed = 0, uses_anonymous_args = 0
 4507              		@ link register save eliminated.
2842:Drivers/STM32H5xx_HAL_Driver/Src/stm32h5xx_hal_rtc_ex.c ****   /* Prevent unused argument(s) compilation warning */
2843:Drivers/STM32H5xx_HAL_Driver/Src/stm32h5xx_hal_rtc_ex.c ****   UNUSED(hrtc);
 4508              		.loc 1 2843 3 view .LVU1308
2844:Drivers/STM32H5xx_HAL_Driver/Src/stm32h5xx_hal_rtc_ex.c **** 
2845:Drivers/STM32H5xx_HAL_Driver/Src/stm32h5xx_hal_rtc_ex.c ****   SET_BIT(TAMP->CR2, TAMP_CR2_BKERASE);
 4509              		.loc 1 2845 3 view .LVU1309
 4510 0000 024A     		ldr	r2, .L368
 4511 0002 5368     		ldr	r3, [r2, #4]
 4512 0004 43F40003 		orr	r3, r3, #8388608
 4513 0008 5360     		str	r3, [r2, #4]
2846:Drivers/STM32H5xx_HAL_Driver/Src/stm32h5xx_hal_rtc_ex.c **** }
 4514              		.loc 1 2846 1 is_stmt 0 view .LVU1310
 4515 000a 7047     		bx	lr
 4516              	.L369:
 4517              		.align	2
 4518              	.L368:
 4519 000c 007C0044 		.word	1140882432
 4520              		.cfi_endproc
 4521              	.LFE366:
 4523              		.section	.text.HAL_RTCEx_BKUPBlock,"ax",%progbits
 4524              		.align	1
 4525              		.global	HAL_RTCEx_BKUPBlock
 4526              		.syntax unified
 4527              		.thumb
 4528              		.thumb_func
 4530              	HAL_RTCEx_BKUPBlock:
 4531              	.LVL306:
 4532              	.LFB367:
2847:Drivers/STM32H5xx_HAL_Driver/Src/stm32h5xx_hal_rtc_ex.c **** 
2848:Drivers/STM32H5xx_HAL_Driver/Src/stm32h5xx_hal_rtc_ex.c **** /**
2849:Drivers/STM32H5xx_HAL_Driver/Src/stm32h5xx_hal_rtc_ex.c ****   * @brief  Block the access to the RTC Backup data Register and all the device secrets.
2850:Drivers/STM32H5xx_HAL_Driver/Src/stm32h5xx_hal_rtc_ex.c ****   * @param  hrtc RTC handle
2851:Drivers/STM32H5xx_HAL_Driver/Src/stm32h5xx_hal_rtc_ex.c ****   * @retval None
2852:Drivers/STM32H5xx_HAL_Driver/Src/stm32h5xx_hal_rtc_ex.c ****   */
2853:Drivers/STM32H5xx_HAL_Driver/Src/stm32h5xx_hal_rtc_ex.c **** void  HAL_RTCEx_BKUPBlock(const RTC_HandleTypeDef *hrtc)
2854:Drivers/STM32H5xx_HAL_Driver/Src/stm32h5xx_hal_rtc_ex.c **** {
 4533              		.loc 1 2854 1 is_stmt 1 view -0
 4534              		.cfi_startproc
 4535              		@ args = 0, pretend = 0, frame = 0
 4536              		@ frame_needed = 0, uses_anonymous_args = 0
 4537              		@ link register save eliminated.
2855:Drivers/STM32H5xx_HAL_Driver/Src/stm32h5xx_hal_rtc_ex.c ****   /* Prevent unused argument(s) compilation warning */
2856:Drivers/STM32H5xx_HAL_Driver/Src/stm32h5xx_hal_rtc_ex.c ****   UNUSED(hrtc);
 4538              		.loc 1 2856 3 view .LVU1312
2857:Drivers/STM32H5xx_HAL_Driver/Src/stm32h5xx_hal_rtc_ex.c **** 
2858:Drivers/STM32H5xx_HAL_Driver/Src/stm32h5xx_hal_rtc_ex.c ****   WRITE_REG(TAMP->CR2, TAMP_CR2_BKBLOCK);
 4539              		.loc 1 2858 3 view .LVU1313
 4540 0000 024B     		ldr	r3, .L371
 4541 0002 4FF48002 		mov	r2, #4194304
 4542 0006 5A60     		str	r2, [r3, #4]
2859:Drivers/STM32H5xx_HAL_Driver/Src/stm32h5xx_hal_rtc_ex.c **** }
 4543              		.loc 1 2859 1 is_stmt 0 view .LVU1314
 4544 0008 7047     		bx	lr
 4545              	.L372:
 4546 000a 00BF     		.align	2
ARM GAS  C:\Users\DELL\AppData\Local\Temp\ccMtHSyM.s 			page 135


 4547              	.L371:
 4548 000c 007C0044 		.word	1140882432
 4549              		.cfi_endproc
 4550              	.LFE367:
 4552              		.section	.text.HAL_RTCEx_BKUPUnblock,"ax",%progbits
 4553              		.align	1
 4554              		.global	HAL_RTCEx_BKUPUnblock
 4555              		.syntax unified
 4556              		.thumb
 4557              		.thumb_func
 4559              	HAL_RTCEx_BKUPUnblock:
 4560              	.LVL307:
 4561              	.LFB368:
2860:Drivers/STM32H5xx_HAL_Driver/Src/stm32h5xx_hal_rtc_ex.c **** 
2861:Drivers/STM32H5xx_HAL_Driver/Src/stm32h5xx_hal_rtc_ex.c **** /**
2862:Drivers/STM32H5xx_HAL_Driver/Src/stm32h5xx_hal_rtc_ex.c ****   * @brief  Disable the Block to the access to the RTC Backup data Register and the device secrets.
2863:Drivers/STM32H5xx_HAL_Driver/Src/stm32h5xx_hal_rtc_ex.c ****   * @param  hrtc RTC handle
2864:Drivers/STM32H5xx_HAL_Driver/Src/stm32h5xx_hal_rtc_ex.c ****   * @retval None
2865:Drivers/STM32H5xx_HAL_Driver/Src/stm32h5xx_hal_rtc_ex.c ****   */
2866:Drivers/STM32H5xx_HAL_Driver/Src/stm32h5xx_hal_rtc_ex.c **** void  HAL_RTCEx_BKUPUnblock(const RTC_HandleTypeDef *hrtc)
2867:Drivers/STM32H5xx_HAL_Driver/Src/stm32h5xx_hal_rtc_ex.c **** {
 4562              		.loc 1 2867 1 is_stmt 1 view -0
 4563              		.cfi_startproc
 4564              		@ args = 0, pretend = 0, frame = 0
 4565              		@ frame_needed = 0, uses_anonymous_args = 0
 4566              		@ link register save eliminated.
2868:Drivers/STM32H5xx_HAL_Driver/Src/stm32h5xx_hal_rtc_ex.c ****   /* Prevent unused argument(s) compilation warning */
2869:Drivers/STM32H5xx_HAL_Driver/Src/stm32h5xx_hal_rtc_ex.c ****   UNUSED(hrtc);
 4567              		.loc 1 2869 3 view .LVU1316
2870:Drivers/STM32H5xx_HAL_Driver/Src/stm32h5xx_hal_rtc_ex.c **** 
2871:Drivers/STM32H5xx_HAL_Driver/Src/stm32h5xx_hal_rtc_ex.c ****   CLEAR_BIT(TAMP->CR2, TAMP_CR2_BKBLOCK);
 4568              		.loc 1 2871 3 view .LVU1317
 4569 0000 024A     		ldr	r2, .L374
 4570 0002 5368     		ldr	r3, [r2, #4]
 4571 0004 23F48003 		bic	r3, r3, #4194304
 4572 0008 5360     		str	r3, [r2, #4]
2872:Drivers/STM32H5xx_HAL_Driver/Src/stm32h5xx_hal_rtc_ex.c **** }
 4573              		.loc 1 2872 1 is_stmt 0 view .LVU1318
 4574 000a 7047     		bx	lr
 4575              	.L375:
 4576              		.align	2
 4577              	.L374:
 4578 000c 007C0044 		.word	1140882432
 4579              		.cfi_endproc
 4580              	.LFE368:
 4582              		.section	.text.HAL_RTCEx_ConfigEraseDeviceSecrets,"ax",%progbits
 4583              		.align	1
 4584              		.global	HAL_RTCEx_ConfigEraseDeviceSecrets
 4585              		.syntax unified
 4586              		.thumb
 4587              		.thumb_func
 4589              	HAL_RTCEx_ConfigEraseDeviceSecrets:
 4590              	.LVL308:
 4591              	.LFB369:
2873:Drivers/STM32H5xx_HAL_Driver/Src/stm32h5xx_hal_rtc_ex.c **** 
2874:Drivers/STM32H5xx_HAL_Driver/Src/stm32h5xx_hal_rtc_ex.c **** #ifdef TAMP_ERCFGR_ERCFG0
2875:Drivers/STM32H5xx_HAL_Driver/Src/stm32h5xx_hal_rtc_ex.c **** /**
ARM GAS  C:\Users\DELL\AppData\Local\Temp\ccMtHSyM.s 			page 136


2876:Drivers/STM32H5xx_HAL_Driver/Src/stm32h5xx_hal_rtc_ex.c ****   * @brief  Enable and Disable the erase of the configurable Device Secrets
2877:Drivers/STM32H5xx_HAL_Driver/Src/stm32h5xx_hal_rtc_ex.c ****   * @note   This API must be called before enabling the Tamper.
2878:Drivers/STM32H5xx_HAL_Driver/Src/stm32h5xx_hal_rtc_ex.c ****   * @param  hrtc RTC handle
2879:Drivers/STM32H5xx_HAL_Driver/Src/stm32h5xx_hal_rtc_ex.c ****   * @param  DeviceSecretConf Specifies the configuration of the Device Secrets
2880:Drivers/STM32H5xx_HAL_Driver/Src/stm32h5xx_hal_rtc_ex.c ****   *         This parameter can be a combination of the following values:
2881:Drivers/STM32H5xx_HAL_Driver/Src/stm32h5xx_hal_rtc_ex.c ****   *         @arg TAMP_DEVICESECRETS_ERASE_NONE
2882:Drivers/STM32H5xx_HAL_Driver/Src/stm32h5xx_hal_rtc_ex.c ****   *         @arg TAMP_DEVICESECRETS_ERASE_BKPSRAM
2883:Drivers/STM32H5xx_HAL_Driver/Src/stm32h5xx_hal_rtc_ex.c ****   *
2884:Drivers/STM32H5xx_HAL_Driver/Src/stm32h5xx_hal_rtc_ex.c ****   * @retval None
2885:Drivers/STM32H5xx_HAL_Driver/Src/stm32h5xx_hal_rtc_ex.c ****   */
2886:Drivers/STM32H5xx_HAL_Driver/Src/stm32h5xx_hal_rtc_ex.c **** void  HAL_RTCEx_ConfigEraseDeviceSecrets(const RTC_HandleTypeDef *hrtc, uint32_t DeviceSecretConf)
2887:Drivers/STM32H5xx_HAL_Driver/Src/stm32h5xx_hal_rtc_ex.c **** {
 4592              		.loc 1 2887 1 is_stmt 1 view -0
 4593              		.cfi_startproc
 4594              		@ args = 0, pretend = 0, frame = 0
 4595              		@ frame_needed = 0, uses_anonymous_args = 0
 4596              		@ link register save eliminated.
2888:Drivers/STM32H5xx_HAL_Driver/Src/stm32h5xx_hal_rtc_ex.c ****   /* Prevent unused argument(s) compilation warning */
2889:Drivers/STM32H5xx_HAL_Driver/Src/stm32h5xx_hal_rtc_ex.c ****   UNUSED(hrtc);
 4597              		.loc 1 2889 3 view .LVU1320
2890:Drivers/STM32H5xx_HAL_Driver/Src/stm32h5xx_hal_rtc_ex.c **** 
2891:Drivers/STM32H5xx_HAL_Driver/Src/stm32h5xx_hal_rtc_ex.c ****   MODIFY_REG(TAMP->ERCFGR, TAMP_ERCFGR_ERCFG0, DeviceSecretConf);
 4598              		.loc 1 2891 3 view .LVU1321
 4599 0000 034A     		ldr	r2, .L377
 4600 0002 536D     		ldr	r3, [r2, #84]
 4601 0004 23F00103 		bic	r3, r3, #1
 4602 0008 0B43     		orrs	r3, r3, r1
 4603 000a 5365     		str	r3, [r2, #84]
2892:Drivers/STM32H5xx_HAL_Driver/Src/stm32h5xx_hal_rtc_ex.c **** }
 4604              		.loc 1 2892 1 is_stmt 0 view .LVU1322
 4605 000c 7047     		bx	lr
 4606              	.L378:
 4607 000e 00BF     		.align	2
 4608              	.L377:
 4609 0010 007C0044 		.word	1140882432
 4610              		.cfi_endproc
 4611              	.LFE369:
 4613              		.section	.text.HAL_RTCEx_SecureModeGet,"ax",%progbits
 4614              		.align	1
 4615              		.global	HAL_RTCEx_SecureModeGet
 4616              		.syntax unified
 4617              		.thumb
 4618              		.thumb_func
 4620              	HAL_RTCEx_SecureModeGet:
 4621              	.LVL309:
 4622              	.LFB370:
2893:Drivers/STM32H5xx_HAL_Driver/Src/stm32h5xx_hal_rtc_ex.c **** #endif /* TAMP_ERCFGR_ERCFG0 */
2894:Drivers/STM32H5xx_HAL_Driver/Src/stm32h5xx_hal_rtc_ex.c **** 
2895:Drivers/STM32H5xx_HAL_Driver/Src/stm32h5xx_hal_rtc_ex.c **** /**
2896:Drivers/STM32H5xx_HAL_Driver/Src/stm32h5xx_hal_rtc_ex.c ****   * @}
2897:Drivers/STM32H5xx_HAL_Driver/Src/stm32h5xx_hal_rtc_ex.c ****   */
2898:Drivers/STM32H5xx_HAL_Driver/Src/stm32h5xx_hal_rtc_ex.c **** 
2899:Drivers/STM32H5xx_HAL_Driver/Src/stm32h5xx_hal_rtc_ex.c **** #if defined(RTC_SECCFGR_SEC)
2900:Drivers/STM32H5xx_HAL_Driver/Src/stm32h5xx_hal_rtc_ex.c **** /** @addtogroup RTCEx_Exported_Functions_Group7
2901:Drivers/STM32H5xx_HAL_Driver/Src/stm32h5xx_hal_rtc_ex.c ****   * @brief      Extended RTC security functions
2902:Drivers/STM32H5xx_HAL_Driver/Src/stm32h5xx_hal_rtc_ex.c ****   *
2903:Drivers/STM32H5xx_HAL_Driver/Src/stm32h5xx_hal_rtc_ex.c **** @verbatim
ARM GAS  C:\Users\DELL\AppData\Local\Temp\ccMtHSyM.s 			page 137


2904:Drivers/STM32H5xx_HAL_Driver/Src/stm32h5xx_hal_rtc_ex.c ****   ===============================================================================
2905:Drivers/STM32H5xx_HAL_Driver/Src/stm32h5xx_hal_rtc_ex.c ****              ##### Extended RTC security functions #####
2906:Drivers/STM32H5xx_HAL_Driver/Src/stm32h5xx_hal_rtc_ex.c ****   ===============================================================================
2907:Drivers/STM32H5xx_HAL_Driver/Src/stm32h5xx_hal_rtc_ex.c ****   [..]
2908:Drivers/STM32H5xx_HAL_Driver/Src/stm32h5xx_hal_rtc_ex.c ****    (+) Before calling security function, you have to call first
2909:Drivers/STM32H5xx_HAL_Driver/Src/stm32h5xx_hal_rtc_ex.c ****        HAL_RTC_Init() function.
2910:Drivers/STM32H5xx_HAL_Driver/Src/stm32h5xx_hal_rtc_ex.c **** @endverbatim
2911:Drivers/STM32H5xx_HAL_Driver/Src/stm32h5xx_hal_rtc_ex.c ****   * @{
2912:Drivers/STM32H5xx_HAL_Driver/Src/stm32h5xx_hal_rtc_ex.c ****   */
2913:Drivers/STM32H5xx_HAL_Driver/Src/stm32h5xx_hal_rtc_ex.c **** 
2914:Drivers/STM32H5xx_HAL_Driver/Src/stm32h5xx_hal_rtc_ex.c **** /**
2915:Drivers/STM32H5xx_HAL_Driver/Src/stm32h5xx_hal_rtc_ex.c ****   * @brief  Get the security level of the RTC/TAMP/Backup registers.
2916:Drivers/STM32H5xx_HAL_Driver/Src/stm32h5xx_hal_rtc_ex.c ****   *         To set the secure level please call HAL_RTCEx_SecureModeSet.
2917:Drivers/STM32H5xx_HAL_Driver/Src/stm32h5xx_hal_rtc_ex.c ****   * @param  hrtc RTC handle
2918:Drivers/STM32H5xx_HAL_Driver/Src/stm32h5xx_hal_rtc_ex.c ****   * @param  secureState  Secure state
2919:Drivers/STM32H5xx_HAL_Driver/Src/stm32h5xx_hal_rtc_ex.c ****   * @retval HAL_StatusTypeDef
2920:Drivers/STM32H5xx_HAL_Driver/Src/stm32h5xx_hal_rtc_ex.c ****   */
2921:Drivers/STM32H5xx_HAL_Driver/Src/stm32h5xx_hal_rtc_ex.c **** HAL_StatusTypeDef HAL_RTCEx_SecureModeGet(const RTC_HandleTypeDef *hrtc, RTC_SecureStateTypeDef  *s
2922:Drivers/STM32H5xx_HAL_Driver/Src/stm32h5xx_hal_rtc_ex.c **** {
 4623              		.loc 1 2922 1 is_stmt 1 view -0
 4624              		.cfi_startproc
 4625              		@ args = 0, pretend = 0, frame = 0
 4626              		@ frame_needed = 0, uses_anonymous_args = 0
 4627              		@ link register save eliminated.
2923:Drivers/STM32H5xx_HAL_Driver/Src/stm32h5xx_hal_rtc_ex.c ****   /* Prevent unused argument(s) compilation warning */
2924:Drivers/STM32H5xx_HAL_Driver/Src/stm32h5xx_hal_rtc_ex.c ****   UNUSED(hrtc);
 4628              		.loc 1 2924 3 view .LVU1324
2925:Drivers/STM32H5xx_HAL_Driver/Src/stm32h5xx_hal_rtc_ex.c **** 
2926:Drivers/STM32H5xx_HAL_Driver/Src/stm32h5xx_hal_rtc_ex.c ****   /* Read registers */
2927:Drivers/STM32H5xx_HAL_Driver/Src/stm32h5xx_hal_rtc_ex.c ****   uint32_t rtc_seccfgr = READ_REG(RTC->SECCFGR);
 4629              		.loc 1 2927 3 view .LVU1325
 4630              		.loc 1 2927 12 is_stmt 0 view .LVU1326
 4631 0000 0C4B     		ldr	r3, .L380
 4632 0002 186A     		ldr	r0, [r3, #32]
 4633              	.LVL310:
2928:Drivers/STM32H5xx_HAL_Driver/Src/stm32h5xx_hal_rtc_ex.c ****   uint32_t tamp_seccfgr = READ_REG(TAMP->SECCFGR);
 4634              		.loc 1 2928 3 is_stmt 1 view .LVU1327
 4635              		.loc 1 2928 12 is_stmt 0 view .LVU1328
 4636 0004 03F58063 		add	r3, r3, #1024
 4637 0008 1B6A     		ldr	r3, [r3, #32]
 4638              	.LVL311:
2929:Drivers/STM32H5xx_HAL_Driver/Src/stm32h5xx_hal_rtc_ex.c **** 
2930:Drivers/STM32H5xx_HAL_Driver/Src/stm32h5xx_hal_rtc_ex.c ****   /* RTC */
2931:Drivers/STM32H5xx_HAL_Driver/Src/stm32h5xx_hal_rtc_ex.c ****   secureState->rtcSecureFull = READ_BIT(rtc_seccfgr, RTC_SECCFGR_SEC);
 4639              		.loc 1 2931 3 is_stmt 1 view .LVU1329
 4640              		.loc 1 2931 32 is_stmt 0 view .LVU1330
 4641 000a 00F40042 		and	r2, r0, #32768
 4642              		.loc 1 2931 30 view .LVU1331
 4643 000e 0A60     		str	r2, [r1]
2932:Drivers/STM32H5xx_HAL_Driver/Src/stm32h5xx_hal_rtc_ex.c **** 
2933:Drivers/STM32H5xx_HAL_Driver/Src/stm32h5xx_hal_rtc_ex.c ****   /* Warning, rtcNonSecureFeatures is only relevant if secureState->rtcSecureFull == RTC_SECURE_FUL
2934:Drivers/STM32H5xx_HAL_Driver/Src/stm32h5xx_hal_rtc_ex.c ****   secureState->rtcNonSecureFeatures = ~(READ_BIT(rtc_seccfgr, RTC_NONSECURE_FEATURE_ALL)) & RTC_NON
 4644              		.loc 1 2934 3 is_stmt 1 view .LVU1332
 4645              		.loc 1 2934 91 is_stmt 0 view .LVU1333
 4646 0010 46F20F02 		movw	r2, #24591
 4647 0014 22EA0002 		bic	r2, r2, r0
 4648              		.loc 1 2934 37 view .LVU1334
ARM GAS  C:\Users\DELL\AppData\Local\Temp\ccMtHSyM.s 			page 138


 4649 0018 4A60     		str	r2, [r1, #4]
2935:Drivers/STM32H5xx_HAL_Driver/Src/stm32h5xx_hal_rtc_ex.c **** 
2936:Drivers/STM32H5xx_HAL_Driver/Src/stm32h5xx_hal_rtc_ex.c ****   /* TAMP */
2937:Drivers/STM32H5xx_HAL_Driver/Src/stm32h5xx_hal_rtc_ex.c ****   secureState->tampSecureFull = READ_BIT(tamp_seccfgr, TAMP_SECCFGR_TAMPSEC);
 4650              		.loc 1 2937 3 is_stmt 1 view .LVU1335
 4651              		.loc 1 2937 33 is_stmt 0 view .LVU1336
 4652 001a 03F00042 		and	r2, r3, #-2147483648
 4653              		.loc 1 2937 31 view .LVU1337
 4654 001e 8A60     		str	r2, [r1, #8]
2938:Drivers/STM32H5xx_HAL_Driver/Src/stm32h5xx_hal_rtc_ex.c **** 
2939:Drivers/STM32H5xx_HAL_Driver/Src/stm32h5xx_hal_rtc_ex.c ****   /* Monotonic Counter */
2940:Drivers/STM32H5xx_HAL_Driver/Src/stm32h5xx_hal_rtc_ex.c ****   secureState->MonotonicCounterSecure = READ_BIT(tamp_seccfgr, TAMP_SECCFGR_CNT1SEC);
 4655              		.loc 1 2940 3 is_stmt 1 view .LVU1338
 4656              		.loc 1 2940 41 is_stmt 0 view .LVU1339
 4657 0020 03F40042 		and	r2, r3, #32768
 4658              		.loc 1 2940 39 view .LVU1340
 4659 0024 4A61     		str	r2, [r1, #20]
2941:Drivers/STM32H5xx_HAL_Driver/Src/stm32h5xx_hal_rtc_ex.c **** 
2942:Drivers/STM32H5xx_HAL_Driver/Src/stm32h5xx_hal_rtc_ex.c ****   /* Backup register start zones
2943:Drivers/STM32H5xx_HAL_Driver/Src/stm32h5xx_hal_rtc_ex.c ****      Warning : Backup register start zones are shared with privilege configuration */
2944:Drivers/STM32H5xx_HAL_Driver/Src/stm32h5xx_hal_rtc_ex.c ****   secureState->backupRegisterStartZone2 = READ_BIT(tamp_seccfgr, TAMP_SECCFGR_BKPRWSEC) >> TAMP_SEC
 4660              		.loc 1 2944 3 is_stmt 1 view .LVU1341
 4661              		.loc 1 2944 89 is_stmt 0 view .LVU1342
 4662 0026 DAB2     		uxtb	r2, r3
 4663              		.loc 1 2944 41 view .LVU1343
 4664 0028 CA60     		str	r2, [r1, #12]
2945:Drivers/STM32H5xx_HAL_Driver/Src/stm32h5xx_hal_rtc_ex.c ****   secureState->backupRegisterStartZone3 = READ_BIT(tamp_seccfgr, TAMP_SECCFGR_BKPWSEC) >> TAMP_SECC
 4665              		.loc 1 2945 3 is_stmt 1 view .LVU1344
 4666              		.loc 1 2945 88 is_stmt 0 view .LVU1345
 4667 002a C3F30743 		ubfx	r3, r3, #16, #8
 4668              	.LVL312:
 4669              		.loc 1 2945 41 view .LVU1346
 4670 002e 0B61     		str	r3, [r1, #16]
2946:Drivers/STM32H5xx_HAL_Driver/Src/stm32h5xx_hal_rtc_ex.c **** 
2947:Drivers/STM32H5xx_HAL_Driver/Src/stm32h5xx_hal_rtc_ex.c ****   return HAL_OK;
 4671              		.loc 1 2947 3 is_stmt 1 view .LVU1347
2948:Drivers/STM32H5xx_HAL_Driver/Src/stm32h5xx_hal_rtc_ex.c **** }
 4672              		.loc 1 2948 1 is_stmt 0 view .LVU1348
 4673 0030 0020     		movs	r0, #0
 4674              	.LVL313:
 4675              		.loc 1 2948 1 view .LVU1349
 4676 0032 7047     		bx	lr
 4677              	.L381:
 4678              		.align	2
 4679              	.L380:
 4680 0034 00780044 		.word	1140881408
 4681              		.cfi_endproc
 4682              	.LFE370:
 4684              		.section	.text.HAL_RTCEx_PrivilegeModeSet,"ax",%progbits
 4685              		.align	1
 4686              		.global	HAL_RTCEx_PrivilegeModeSet
 4687              		.syntax unified
 4688              		.thumb
 4689              		.thumb_func
 4691              	HAL_RTCEx_PrivilegeModeSet:
 4692              	.LVL314:
 4693              	.LFB371:
ARM GAS  C:\Users\DELL\AppData\Local\Temp\ccMtHSyM.s 			page 139


2949:Drivers/STM32H5xx_HAL_Driver/Src/stm32h5xx_hal_rtc_ex.c **** 
2950:Drivers/STM32H5xx_HAL_Driver/Src/stm32h5xx_hal_rtc_ex.c **** 
2951:Drivers/STM32H5xx_HAL_Driver/Src/stm32h5xx_hal_rtc_ex.c **** #if defined (__ARM_FEATURE_CMSE) && (__ARM_FEATURE_CMSE == 3U)
2952:Drivers/STM32H5xx_HAL_Driver/Src/stm32h5xx_hal_rtc_ex.c **** /**
2953:Drivers/STM32H5xx_HAL_Driver/Src/stm32h5xx_hal_rtc_ex.c ****   * @brief  Set the security level of the RTC/TAMP/Backup registers.
2954:Drivers/STM32H5xx_HAL_Driver/Src/stm32h5xx_hal_rtc_ex.c ****   *         To get the current security level call HAL_RTCEx_SecureModeGet.
2955:Drivers/STM32H5xx_HAL_Driver/Src/stm32h5xx_hal_rtc_ex.c ****   * @param  hrtc RTC handle
2956:Drivers/STM32H5xx_HAL_Driver/Src/stm32h5xx_hal_rtc_ex.c ****   * @param  secureState  Secure state
2957:Drivers/STM32H5xx_HAL_Driver/Src/stm32h5xx_hal_rtc_ex.c ****   * @retval HAL_StatusTypeDef
2958:Drivers/STM32H5xx_HAL_Driver/Src/stm32h5xx_hal_rtc_ex.c ****   */
2959:Drivers/STM32H5xx_HAL_Driver/Src/stm32h5xx_hal_rtc_ex.c **** HAL_StatusTypeDef HAL_RTCEx_SecureModeSet(const RTC_HandleTypeDef *hrtc, const RTC_SecureStateTypeD
2960:Drivers/STM32H5xx_HAL_Driver/Src/stm32h5xx_hal_rtc_ex.c **** {
2961:Drivers/STM32H5xx_HAL_Driver/Src/stm32h5xx_hal_rtc_ex.c ****   /* Prevent unused argument(s) compilation warning */
2962:Drivers/STM32H5xx_HAL_Driver/Src/stm32h5xx_hal_rtc_ex.c ****   UNUSED(hrtc);
2963:Drivers/STM32H5xx_HAL_Driver/Src/stm32h5xx_hal_rtc_ex.c **** 
2964:Drivers/STM32H5xx_HAL_Driver/Src/stm32h5xx_hal_rtc_ex.c ****   assert_param(IS_RTC_SECURE_FULL(secureState->rtcSecureFull));
2965:Drivers/STM32H5xx_HAL_Driver/Src/stm32h5xx_hal_rtc_ex.c ****   assert_param(IS_RTC_NONSECURE_FEATURES(secureState->rtcNonSecureFeatures));
2966:Drivers/STM32H5xx_HAL_Driver/Src/stm32h5xx_hal_rtc_ex.c ****   assert_param(IS_TAMP_SECURE_FULL(secureState->tampSecureFull));
2967:Drivers/STM32H5xx_HAL_Driver/Src/stm32h5xx_hal_rtc_ex.c ****   assert_param(IS_RTC_BKP(secureState->backupRegisterStartZone2));
2968:Drivers/STM32H5xx_HAL_Driver/Src/stm32h5xx_hal_rtc_ex.c ****   assert_param(IS_RTC_BKP(secureState->backupRegisterStartZone3));
2969:Drivers/STM32H5xx_HAL_Driver/Src/stm32h5xx_hal_rtc_ex.c ****   assert_param(IS_TAMP_MONOTONIC_CNT_SECURE(secureState->MonotonicCounterSecure));
2970:Drivers/STM32H5xx_HAL_Driver/Src/stm32h5xx_hal_rtc_ex.c **** 
2971:Drivers/STM32H5xx_HAL_Driver/Src/stm32h5xx_hal_rtc_ex.c ****   /* RTC, rtcNonSecureFeatures is only relevant if secureState->rtcSecureFull == RTC_SECURE_FULL_NO
2972:Drivers/STM32H5xx_HAL_Driver/Src/stm32h5xx_hal_rtc_ex.c ****   WRITE_REG(RTC->SECCFGR, secureState->rtcSecureFull | (~(secureState->rtcNonSecureFeatures) &
2973:Drivers/STM32H5xx_HAL_Driver/Src/stm32h5xx_hal_rtc_ex.c ****                                                         RTC_NONSECURE_FEATURE_ALL));
2974:Drivers/STM32H5xx_HAL_Driver/Src/stm32h5xx_hal_rtc_ex.c **** 
2975:Drivers/STM32H5xx_HAL_Driver/Src/stm32h5xx_hal_rtc_ex.c ****   /* Tamper + Backup register + Monotonic counter
2976:Drivers/STM32H5xx_HAL_Driver/Src/stm32h5xx_hal_rtc_ex.c ****      Warning : Backup register start zone are Shared with privilege configuration */
2977:Drivers/STM32H5xx_HAL_Driver/Src/stm32h5xx_hal_rtc_ex.c ****   WRITE_REG(TAMP->SECCFGR,
2978:Drivers/STM32H5xx_HAL_Driver/Src/stm32h5xx_hal_rtc_ex.c ****             secureState->tampSecureFull | secureState->MonotonicCounterSecure |
2979:Drivers/STM32H5xx_HAL_Driver/Src/stm32h5xx_hal_rtc_ex.c ****             (TAMP_SECCFGR_BKPRWSEC & (secureState->backupRegisterStartZone2 << TAMP_SECCFGR_BKPRWSE
2980:Drivers/STM32H5xx_HAL_Driver/Src/stm32h5xx_hal_rtc_ex.c ****             (TAMP_SECCFGR_BKPWSEC & (secureState->backupRegisterStartZone3 << TAMP_SECCFGR_BKPWSEC_
2981:Drivers/STM32H5xx_HAL_Driver/Src/stm32h5xx_hal_rtc_ex.c **** 
2982:Drivers/STM32H5xx_HAL_Driver/Src/stm32h5xx_hal_rtc_ex.c ****   return HAL_OK;
2983:Drivers/STM32H5xx_HAL_Driver/Src/stm32h5xx_hal_rtc_ex.c **** }
2984:Drivers/STM32H5xx_HAL_Driver/Src/stm32h5xx_hal_rtc_ex.c **** 
2985:Drivers/STM32H5xx_HAL_Driver/Src/stm32h5xx_hal_rtc_ex.c **** 
2986:Drivers/STM32H5xx_HAL_Driver/Src/stm32h5xx_hal_rtc_ex.c **** #endif /* #if defined (__ARM_FEATURE_CMSE) && (__ARM_FEATURE_CMSE == 3U) */
2987:Drivers/STM32H5xx_HAL_Driver/Src/stm32h5xx_hal_rtc_ex.c **** 
2988:Drivers/STM32H5xx_HAL_Driver/Src/stm32h5xx_hal_rtc_ex.c **** /**
2989:Drivers/STM32H5xx_HAL_Driver/Src/stm32h5xx_hal_rtc_ex.c ****   * @}
2990:Drivers/STM32H5xx_HAL_Driver/Src/stm32h5xx_hal_rtc_ex.c ****   */
2991:Drivers/STM32H5xx_HAL_Driver/Src/stm32h5xx_hal_rtc_ex.c **** #endif /* RTC_SECCFGR_SEC */
2992:Drivers/STM32H5xx_HAL_Driver/Src/stm32h5xx_hal_rtc_ex.c **** 
2993:Drivers/STM32H5xx_HAL_Driver/Src/stm32h5xx_hal_rtc_ex.c **** #if defined(TAMP_PRIVCFGR_TAMPPRIV)
2994:Drivers/STM32H5xx_HAL_Driver/Src/stm32h5xx_hal_rtc_ex.c **** /** @addtogroup RTCEx_Exported_Functions_Group8
2995:Drivers/STM32H5xx_HAL_Driver/Src/stm32h5xx_hal_rtc_ex.c ****   * @brief      Extended RTC privilege functions
2996:Drivers/STM32H5xx_HAL_Driver/Src/stm32h5xx_hal_rtc_ex.c ****   *
2997:Drivers/STM32H5xx_HAL_Driver/Src/stm32h5xx_hal_rtc_ex.c **** @verbatim
2998:Drivers/STM32H5xx_HAL_Driver/Src/stm32h5xx_hal_rtc_ex.c ****   ===============================================================================
2999:Drivers/STM32H5xx_HAL_Driver/Src/stm32h5xx_hal_rtc_ex.c ****              ##### Extended RTC privilege functions #####
3000:Drivers/STM32H5xx_HAL_Driver/Src/stm32h5xx_hal_rtc_ex.c ****   ===============================================================================
3001:Drivers/STM32H5xx_HAL_Driver/Src/stm32h5xx_hal_rtc_ex.c ****   [..]
3002:Drivers/STM32H5xx_HAL_Driver/Src/stm32h5xx_hal_rtc_ex.c ****    (+) Before calling privilege function, you have to call first
3003:Drivers/STM32H5xx_HAL_Driver/Src/stm32h5xx_hal_rtc_ex.c ****        HAL_RTC_Init() function.
3004:Drivers/STM32H5xx_HAL_Driver/Src/stm32h5xx_hal_rtc_ex.c **** @endverbatim
3005:Drivers/STM32H5xx_HAL_Driver/Src/stm32h5xx_hal_rtc_ex.c ****   * @{
ARM GAS  C:\Users\DELL\AppData\Local\Temp\ccMtHSyM.s 			page 140


3006:Drivers/STM32H5xx_HAL_Driver/Src/stm32h5xx_hal_rtc_ex.c ****   */
3007:Drivers/STM32H5xx_HAL_Driver/Src/stm32h5xx_hal_rtc_ex.c **** 
3008:Drivers/STM32H5xx_HAL_Driver/Src/stm32h5xx_hal_rtc_ex.c **** /**
3009:Drivers/STM32H5xx_HAL_Driver/Src/stm32h5xx_hal_rtc_ex.c ****   * @brief  Set the privilege level of the RTC/TAMP/Backup registers.
3010:Drivers/STM32H5xx_HAL_Driver/Src/stm32h5xx_hal_rtc_ex.c ****   *         To get the current privilege level call HAL_RTCEx_PrivilegeModeGet.
3011:Drivers/STM32H5xx_HAL_Driver/Src/stm32h5xx_hal_rtc_ex.c ****   * @param  hrtc RTC handle
3012:Drivers/STM32H5xx_HAL_Driver/Src/stm32h5xx_hal_rtc_ex.c ****   * @param  privilegeState  Privilege state
3013:Drivers/STM32H5xx_HAL_Driver/Src/stm32h5xx_hal_rtc_ex.c ****   * @retval HAL_StatusTypeDef
3014:Drivers/STM32H5xx_HAL_Driver/Src/stm32h5xx_hal_rtc_ex.c ****   */
3015:Drivers/STM32H5xx_HAL_Driver/Src/stm32h5xx_hal_rtc_ex.c **** HAL_StatusTypeDef HAL_RTCEx_PrivilegeModeSet(const RTC_HandleTypeDef *hrtc,
3016:Drivers/STM32H5xx_HAL_Driver/Src/stm32h5xx_hal_rtc_ex.c ****                                              const RTC_PrivilegeStateTypeDef *privilegeState)
3017:Drivers/STM32H5xx_HAL_Driver/Src/stm32h5xx_hal_rtc_ex.c **** {
 4694              		.loc 1 3017 1 is_stmt 1 view -0
 4695              		.cfi_startproc
 4696              		@ args = 0, pretend = 0, frame = 0
 4697              		@ frame_needed = 0, uses_anonymous_args = 0
 4698              		@ link register save eliminated.
3018:Drivers/STM32H5xx_HAL_Driver/Src/stm32h5xx_hal_rtc_ex.c ****   /* Prevent unused argument(s) compilation warning */
3019:Drivers/STM32H5xx_HAL_Driver/Src/stm32h5xx_hal_rtc_ex.c ****   UNUSED(hrtc);
 4699              		.loc 1 3019 3 view .LVU1351
3020:Drivers/STM32H5xx_HAL_Driver/Src/stm32h5xx_hal_rtc_ex.c **** 
3021:Drivers/STM32H5xx_HAL_Driver/Src/stm32h5xx_hal_rtc_ex.c ****   assert_param(IS_RTC_PRIVILEGE_FULL(privilegeState->rtcPrivilegeFull));
 4700              		.loc 1 3021 3 view .LVU1352
3022:Drivers/STM32H5xx_HAL_Driver/Src/stm32h5xx_hal_rtc_ex.c ****   assert_param(IS_RTC_PRIVILEGE_FEATURES(privilegeState->rtcPrivilegeFeatures));
 4701              		.loc 1 3022 3 view .LVU1353
3023:Drivers/STM32H5xx_HAL_Driver/Src/stm32h5xx_hal_rtc_ex.c ****   assert_param(IS_TAMP_PRIVILEGE_FULL(privilegeState->tampPrivilegeFull));
 4702              		.loc 1 3023 3 view .LVU1354
3024:Drivers/STM32H5xx_HAL_Driver/Src/stm32h5xx_hal_rtc_ex.c ****   assert_param(IS_TAMP_MONOTONIC_CNT_PRIVILEGE(privilegeState->MonotonicCounterPrivilege));
 4703              		.loc 1 3024 3 view .LVU1355
3025:Drivers/STM32H5xx_HAL_Driver/Src/stm32h5xx_hal_rtc_ex.c ****   assert_param(IS_RTC_PRIVILEGE_BKUP_ZONE(privilegeState->backupRegisterPrivZone));
 4704              		.loc 1 3025 3 view .LVU1356
3026:Drivers/STM32H5xx_HAL_Driver/Src/stm32h5xx_hal_rtc_ex.c ****   assert_param(IS_RTC_BKP(privilegeState->backupRegisterStartZone2));
 4705              		.loc 1 3026 3 view .LVU1357
3027:Drivers/STM32H5xx_HAL_Driver/Src/stm32h5xx_hal_rtc_ex.c ****   assert_param(IS_RTC_BKP(privilegeState->backupRegisterStartZone3));
 4706              		.loc 1 3027 3 view .LVU1358
3028:Drivers/STM32H5xx_HAL_Driver/Src/stm32h5xx_hal_rtc_ex.c **** 
3029:Drivers/STM32H5xx_HAL_Driver/Src/stm32h5xx_hal_rtc_ex.c ****   /* RTC privilege configuration */
3030:Drivers/STM32H5xx_HAL_Driver/Src/stm32h5xx_hal_rtc_ex.c ****   WRITE_REG(RTC->PRIVCFGR, privilegeState->rtcPrivilegeFull | privilegeState->rtcPrivilegeFeatures)
 4707              		.loc 1 3030 3 view .LVU1359
 4708 0000 0B68     		ldr	r3, [r1]
 4709 0002 4A68     		ldr	r2, [r1, #4]
 4710 0004 1343     		orrs	r3, r3, r2
 4711 0006 0A4A     		ldr	r2, .L383
 4712 0008 D361     		str	r3, [r2, #28]
3031:Drivers/STM32H5xx_HAL_Driver/Src/stm32h5xx_hal_rtc_ex.c **** 
3032:Drivers/STM32H5xx_HAL_Driver/Src/stm32h5xx_hal_rtc_ex.c ****   /* TAMP, Monotonic counter and Backup registers privilege configuration
3033:Drivers/STM32H5xx_HAL_Driver/Src/stm32h5xx_hal_rtc_ex.c ****      Warning : privilegeState->backupRegisterPrivZone is only writable in secure mode or if trustzo
3034:Drivers/STM32H5xx_HAL_Driver/Src/stm32h5xx_hal_rtc_ex.c ****                In non secure mode, a notification is generated through a flag/interrupt in the TZIC
3035:Drivers/STM32H5xx_HAL_Driver/Src/stm32h5xx_hal_rtc_ex.c ****                (TrustZone interrupt controller). The bits are not written. */
3036:Drivers/STM32H5xx_HAL_Driver/Src/stm32h5xx_hal_rtc_ex.c ****   WRITE_REG(TAMP->PRIVCFGR, privilegeState->tampPrivilegeFull | privilegeState->backupRegisterPrivZ
 4713              		.loc 1 3036 3 view .LVU1360
 4714 000a 8B68     		ldr	r3, [r1, #8]
 4715 000c CA68     		ldr	r2, [r1, #12]
 4716 000e 1343     		orrs	r3, r3, r2
 4717 0010 8A69     		ldr	r2, [r1, #24]
 4718 0012 1343     		orrs	r3, r3, r2
 4719 0014 074A     		ldr	r2, .L383+4
ARM GAS  C:\Users\DELL\AppData\Local\Temp\ccMtHSyM.s 			page 141


 4720 0016 5362     		str	r3, [r2, #36]
3037:Drivers/STM32H5xx_HAL_Driver/Src/stm32h5xx_hal_rtc_ex.c ****             privilegeState->MonotonicCounterPrivilege);
3038:Drivers/STM32H5xx_HAL_Driver/Src/stm32h5xx_hal_rtc_ex.c **** 
3039:Drivers/STM32H5xx_HAL_Driver/Src/stm32h5xx_hal_rtc_ex.c ****   /* Backup register start zone
3040:Drivers/STM32H5xx_HAL_Driver/Src/stm32h5xx_hal_rtc_ex.c ****      Warning : This parameter is only writable in secure mode or if trustzone is disabled.
3041:Drivers/STM32H5xx_HAL_Driver/Src/stm32h5xx_hal_rtc_ex.c ****                In non secure mode, a notification is generated through a flag/interrupt in the TZIC
3042:Drivers/STM32H5xx_HAL_Driver/Src/stm32h5xx_hal_rtc_ex.c ****                (TrustZone interrupt controller). The bits are not written.
3043:Drivers/STM32H5xx_HAL_Driver/Src/stm32h5xx_hal_rtc_ex.c ****      Warning : Backup register start zones are shared with secure configuration */
3044:Drivers/STM32H5xx_HAL_Driver/Src/stm32h5xx_hal_rtc_ex.c **** #if defined(TAMP_SECCFGR_BKPWSEC)
3045:Drivers/STM32H5xx_HAL_Driver/Src/stm32h5xx_hal_rtc_ex.c ****   MODIFY_REG(TAMP->SECCFGR,
 4721              		.loc 1 3045 3 view .LVU1361
 4722 0018 136A     		ldr	r3, [r2, #32]
 4723 001a 03F0FF23 		and	r3, r3, #-16711936
 4724 001e 0869     		ldr	r0, [r1, #16]
 4725              	.LVL315:
 4726              		.loc 1 3045 3 is_stmt 0 view .LVU1362
 4727 0020 4969     		ldr	r1, [r1, #20]
 4728              	.LVL316:
 4729              		.loc 1 3045 3 view .LVU1363
 4730 0022 40EA0141 		orr	r1, r0, r1, lsl #16
 4731 0026 0B43     		orrs	r3, r3, r1
 4732 0028 1362     		str	r3, [r2, #32]
3046:Drivers/STM32H5xx_HAL_Driver/Src/stm32h5xx_hal_rtc_ex.c ****              (TAMP_SECCFGR_BKPRWSEC | TAMP_SECCFGR_BKPWSEC),
3047:Drivers/STM32H5xx_HAL_Driver/Src/stm32h5xx_hal_rtc_ex.c ****              ((privilegeState->backupRegisterStartZone2 << TAMP_SECCFGR_BKPRWSEC_Pos) | \
3048:Drivers/STM32H5xx_HAL_Driver/Src/stm32h5xx_hal_rtc_ex.c ****               (privilegeState->backupRegisterStartZone3 << TAMP_SECCFGR_BKPWSEC_Pos)));
3049:Drivers/STM32H5xx_HAL_Driver/Src/stm32h5xx_hal_rtc_ex.c **** #endif /* TAMP_SECCFGR_BKPWSEC */
3050:Drivers/STM32H5xx_HAL_Driver/Src/stm32h5xx_hal_rtc_ex.c **** 
3051:Drivers/STM32H5xx_HAL_Driver/Src/stm32h5xx_hal_rtc_ex.c ****   return HAL_OK;
 4733              		.loc 1 3051 3 is_stmt 1 view .LVU1364
3052:Drivers/STM32H5xx_HAL_Driver/Src/stm32h5xx_hal_rtc_ex.c **** }
 4734              		.loc 1 3052 1 is_stmt 0 view .LVU1365
 4735 002a 0020     		movs	r0, #0
 4736 002c 7047     		bx	lr
 4737              	.L384:
 4738 002e 00BF     		.align	2
 4739              	.L383:
 4740 0030 00780044 		.word	1140881408
 4741 0034 007C0044 		.word	1140882432
 4742              		.cfi_endproc
 4743              	.LFE371:
 4745              		.section	.text.HAL_RTCEx_PrivilegeModeGet,"ax",%progbits
 4746              		.align	1
 4747              		.global	HAL_RTCEx_PrivilegeModeGet
 4748              		.syntax unified
 4749              		.thumb
 4750              		.thumb_func
 4752              	HAL_RTCEx_PrivilegeModeGet:
 4753              	.LVL317:
 4754              	.LFB372:
3053:Drivers/STM32H5xx_HAL_Driver/Src/stm32h5xx_hal_rtc_ex.c **** 
3054:Drivers/STM32H5xx_HAL_Driver/Src/stm32h5xx_hal_rtc_ex.c **** /**
3055:Drivers/STM32H5xx_HAL_Driver/Src/stm32h5xx_hal_rtc_ex.c ****   * @brief  Get the privilege level of the RTC/TAMP/Backup registers.
3056:Drivers/STM32H5xx_HAL_Driver/Src/stm32h5xx_hal_rtc_ex.c ****   *         To set the privilege level please call HAL_RTCEx_PrivilegeModeSet.
3057:Drivers/STM32H5xx_HAL_Driver/Src/stm32h5xx_hal_rtc_ex.c ****   * @param  hrtc RTC handle
3058:Drivers/STM32H5xx_HAL_Driver/Src/stm32h5xx_hal_rtc_ex.c ****   * @param  privilegeState  Privilege state
3059:Drivers/STM32H5xx_HAL_Driver/Src/stm32h5xx_hal_rtc_ex.c ****   * @retval HAL_StatusTypeDef
3060:Drivers/STM32H5xx_HAL_Driver/Src/stm32h5xx_hal_rtc_ex.c ****   */
ARM GAS  C:\Users\DELL\AppData\Local\Temp\ccMtHSyM.s 			page 142


3061:Drivers/STM32H5xx_HAL_Driver/Src/stm32h5xx_hal_rtc_ex.c **** HAL_StatusTypeDef HAL_RTCEx_PrivilegeModeGet(const RTC_HandleTypeDef *hrtc, RTC_PrivilegeStateTypeD
3062:Drivers/STM32H5xx_HAL_Driver/Src/stm32h5xx_hal_rtc_ex.c **** {
 4755              		.loc 1 3062 1 is_stmt 1 view -0
 4756              		.cfi_startproc
 4757              		@ args = 0, pretend = 0, frame = 0
 4758              		@ frame_needed = 0, uses_anonymous_args = 0
 4759              		@ link register save eliminated.
 4760              		.loc 1 3062 1 is_stmt 0 view .LVU1367
 4761 0000 10B4     		push	{r4}
 4762              	.LCFI19:
 4763              		.cfi_def_cfa_offset 4
 4764              		.cfi_offset 4, -4
3063:Drivers/STM32H5xx_HAL_Driver/Src/stm32h5xx_hal_rtc_ex.c ****   /* Prevent unused argument(s) compilation warning */
3064:Drivers/STM32H5xx_HAL_Driver/Src/stm32h5xx_hal_rtc_ex.c ****   UNUSED(hrtc);
 4765              		.loc 1 3064 3 is_stmt 1 view .LVU1368
3065:Drivers/STM32H5xx_HAL_Driver/Src/stm32h5xx_hal_rtc_ex.c **** 
3066:Drivers/STM32H5xx_HAL_Driver/Src/stm32h5xx_hal_rtc_ex.c ****   /* Read registers */
3067:Drivers/STM32H5xx_HAL_Driver/Src/stm32h5xx_hal_rtc_ex.c ****   uint32_t rtc_privcfgr = READ_REG(RTC->PRIVCFGR);
 4766              		.loc 1 3067 3 view .LVU1369
 4767              		.loc 1 3067 12 is_stmt 0 view .LVU1370
 4768 0002 104B     		ldr	r3, .L387
 4769 0004 D869     		ldr	r0, [r3, #28]
 4770              	.LVL318:
3068:Drivers/STM32H5xx_HAL_Driver/Src/stm32h5xx_hal_rtc_ex.c ****   uint32_t tamp_privcfgr = READ_REG(TAMP->PRIVCFGR);
 4771              		.loc 1 3068 3 is_stmt 1 view .LVU1371
 4772              		.loc 1 3068 12 is_stmt 0 view .LVU1372
 4773 0006 104A     		ldr	r2, .L387+4
 4774 0008 536A     		ldr	r3, [r2, #36]
 4775              	.LVL319:
3069:Drivers/STM32H5xx_HAL_Driver/Src/stm32h5xx_hal_rtc_ex.c ****   uint32_t tamp_seccfgr = READ_REG(TAMP->SECCFGR);
 4776              		.loc 1 3069 3 is_stmt 1 view .LVU1373
 4777              		.loc 1 3069 12 is_stmt 0 view .LVU1374
 4778 000a 126A     		ldr	r2, [r2, #32]
 4779              	.LVL320:
3070:Drivers/STM32H5xx_HAL_Driver/Src/stm32h5xx_hal_rtc_ex.c **** 
3071:Drivers/STM32H5xx_HAL_Driver/Src/stm32h5xx_hal_rtc_ex.c ****   /* RTC privilege configuration */
3072:Drivers/STM32H5xx_HAL_Driver/Src/stm32h5xx_hal_rtc_ex.c ****   privilegeState->rtcPrivilegeFull = READ_BIT(rtc_privcfgr, RTC_PRIVCFGR_PRIV);
 4780              		.loc 1 3072 3 is_stmt 1 view .LVU1375
 4781              		.loc 1 3072 38 is_stmt 0 view .LVU1376
 4782 000c 00F40044 		and	r4, r0, #32768
 4783              		.loc 1 3072 36 view .LVU1377
 4784 0010 0C60     		str	r4, [r1]
3073:Drivers/STM32H5xx_HAL_Driver/Src/stm32h5xx_hal_rtc_ex.c **** 
3074:Drivers/STM32H5xx_HAL_Driver/Src/stm32h5xx_hal_rtc_ex.c ****   /* Warning, rtcPrivilegeFeatures is only relevant if privilegeState->rtcPrivilegeFull == RTC_PRIV
3075:Drivers/STM32H5xx_HAL_Driver/Src/stm32h5xx_hal_rtc_ex.c ****   privilegeState->rtcPrivilegeFeatures = READ_BIT(rtc_privcfgr, RTC_PRIVILEGE_FEATURE_ALL);
 4785              		.loc 1 3075 3 is_stmt 1 view .LVU1378
 4786              		.loc 1 3075 42 is_stmt 0 view .LVU1379
 4787 0012 20F4FF50 		bic	r0, r0, #8160
 4788              	.LVL321:
 4789              		.loc 1 3075 42 view .LVU1380
 4790 0016 20F01000 		bic	r0, r0, #16
 4791 001a 4004     		lsls	r0, r0, #17
 4792 001c 400C     		lsrs	r0, r0, #17
 4793              		.loc 1 3075 40 view .LVU1381
 4794 001e 4860     		str	r0, [r1, #4]
3076:Drivers/STM32H5xx_HAL_Driver/Src/stm32h5xx_hal_rtc_ex.c **** 
3077:Drivers/STM32H5xx_HAL_Driver/Src/stm32h5xx_hal_rtc_ex.c ****   /* TAMP and Backup registers privilege configuration */
ARM GAS  C:\Users\DELL\AppData\Local\Temp\ccMtHSyM.s 			page 143


3078:Drivers/STM32H5xx_HAL_Driver/Src/stm32h5xx_hal_rtc_ex.c ****   privilegeState->tampPrivilegeFull = READ_BIT(tamp_privcfgr, TAMP_PRIVCFGR_TAMPPRIV);
 4795              		.loc 1 3078 3 is_stmt 1 view .LVU1382
 4796              		.loc 1 3078 39 is_stmt 0 view .LVU1383
 4797 0020 03F00040 		and	r0, r3, #-2147483648
 4798              		.loc 1 3078 37 view .LVU1384
 4799 0024 8860     		str	r0, [r1, #8]
3079:Drivers/STM32H5xx_HAL_Driver/Src/stm32h5xx_hal_rtc_ex.c **** 
3080:Drivers/STM32H5xx_HAL_Driver/Src/stm32h5xx_hal_rtc_ex.c ****   /* Monotonic registers privilege configuration */
3081:Drivers/STM32H5xx_HAL_Driver/Src/stm32h5xx_hal_rtc_ex.c ****   privilegeState->MonotonicCounterPrivilege = READ_BIT(tamp_privcfgr, TAMP_PRIVCFGR_CNT1PRIV);
 4800              		.loc 1 3081 3 is_stmt 1 view .LVU1385
 4801              		.loc 1 3081 47 is_stmt 0 view .LVU1386
 4802 0026 03F40040 		and	r0, r3, #32768
 4803              		.loc 1 3081 45 view .LVU1387
 4804 002a 8861     		str	r0, [r1, #24]
3082:Drivers/STM32H5xx_HAL_Driver/Src/stm32h5xx_hal_rtc_ex.c **** 
3083:Drivers/STM32H5xx_HAL_Driver/Src/stm32h5xx_hal_rtc_ex.c ****   /* Backup registers Zones */
3084:Drivers/STM32H5xx_HAL_Driver/Src/stm32h5xx_hal_rtc_ex.c ****   privilegeState->backupRegisterPrivZone = READ_BIT(tamp_privcfgr, (TAMP_PRIVCFGR_BKPWPRIV | TAMP_P
 4805              		.loc 1 3084 3 is_stmt 1 view .LVU1388
 4806              		.loc 1 3084 44 is_stmt 0 view .LVU1389
 4807 002c 03F0C043 		and	r3, r3, #1610612736
 4808              	.LVL322:
 4809              		.loc 1 3084 42 view .LVU1390
 4810 0030 CB60     		str	r3, [r1, #12]
3085:Drivers/STM32H5xx_HAL_Driver/Src/stm32h5xx_hal_rtc_ex.c **** 
3086:Drivers/STM32H5xx_HAL_Driver/Src/stm32h5xx_hal_rtc_ex.c ****   /* Backup register start zones
3087:Drivers/STM32H5xx_HAL_Driver/Src/stm32h5xx_hal_rtc_ex.c ****      Warning : Shared with secure configuration */
3088:Drivers/STM32H5xx_HAL_Driver/Src/stm32h5xx_hal_rtc_ex.c ****   privilegeState->backupRegisterStartZone2 = READ_BIT(tamp_seccfgr, TAMP_SECCFGR_BKPRWSEC) >>
 4811              		.loc 1 3088 3 is_stmt 1 view .LVU1391
 4812              		.loc 1 3088 92 is_stmt 0 view .LVU1392
 4813 0032 D3B2     		uxtb	r3, r2
 4814              		.loc 1 3088 44 view .LVU1393
 4815 0034 0B61     		str	r3, [r1, #16]
3089:Drivers/STM32H5xx_HAL_Driver/Src/stm32h5xx_hal_rtc_ex.c ****                                              TAMP_SECCFGR_BKPRWSEC_Pos;
3090:Drivers/STM32H5xx_HAL_Driver/Src/stm32h5xx_hal_rtc_ex.c **** 
3091:Drivers/STM32H5xx_HAL_Driver/Src/stm32h5xx_hal_rtc_ex.c ****   privilegeState->backupRegisterStartZone3 = READ_BIT(tamp_seccfgr, TAMP_SECCFGR_BKPWSEC) >>
 4816              		.loc 1 3091 3 is_stmt 1 view .LVU1394
 4817              		.loc 1 3091 91 is_stmt 0 view .LVU1395
 4818 0036 C2F30742 		ubfx	r2, r2, #16, #8
 4819              	.LVL323:
 4820              		.loc 1 3091 44 view .LVU1396
 4821 003a 4A61     		str	r2, [r1, #20]
3092:Drivers/STM32H5xx_HAL_Driver/Src/stm32h5xx_hal_rtc_ex.c ****                                              TAMP_SECCFGR_BKPWSEC_Pos;
3093:Drivers/STM32H5xx_HAL_Driver/Src/stm32h5xx_hal_rtc_ex.c **** 
3094:Drivers/STM32H5xx_HAL_Driver/Src/stm32h5xx_hal_rtc_ex.c ****   return HAL_OK;
 4822              		.loc 1 3094 3 is_stmt 1 view .LVU1397
3095:Drivers/STM32H5xx_HAL_Driver/Src/stm32h5xx_hal_rtc_ex.c **** }
 4823              		.loc 1 3095 1 is_stmt 0 view .LVU1398
 4824 003c 0020     		movs	r0, #0
 4825 003e 5DF8044B 		ldr	r4, [sp], #4
 4826 0042 7047     		bx	lr
 4827              	.L388:
 4828              		.align	2
 4829              	.L387:
 4830 0044 00780044 		.word	1140881408
 4831 0048 007C0044 		.word	1140882432
 4832              		.cfi_endproc
 4833              	.LFE372:
ARM GAS  C:\Users\DELL\AppData\Local\Temp\ccMtHSyM.s 			page 144


 4835              		.section	.text.HAL_RTCEx_EnableRemapRtcOut2,"ax",%progbits
 4836              		.align	1
 4837              		.global	HAL_RTCEx_EnableRemapRtcOut2
 4838              		.syntax unified
 4839              		.thumb
 4840              		.thumb_func
 4842              	HAL_RTCEx_EnableRemapRtcOut2:
 4843              	.LVL324:
 4844              	.LFB373:
3096:Drivers/STM32H5xx_HAL_Driver/Src/stm32h5xx_hal_rtc_ex.c **** 
3097:Drivers/STM32H5xx_HAL_Driver/Src/stm32h5xx_hal_rtc_ex.c **** /**
3098:Drivers/STM32H5xx_HAL_Driver/Src/stm32h5xx_hal_rtc_ex.c ****   * @}
3099:Drivers/STM32H5xx_HAL_Driver/Src/stm32h5xx_hal_rtc_ex.c ****   */
3100:Drivers/STM32H5xx_HAL_Driver/Src/stm32h5xx_hal_rtc_ex.c **** #endif /* TAMP_PRIVCFGR_TAMPPRIV */
3101:Drivers/STM32H5xx_HAL_Driver/Src/stm32h5xx_hal_rtc_ex.c **** 
3102:Drivers/STM32H5xx_HAL_Driver/Src/stm32h5xx_hal_rtc_ex.c **** #if defined (RTC_OR_OUT2_RMP)
3103:Drivers/STM32H5xx_HAL_Driver/Src/stm32h5xx_hal_rtc_ex.c **** /**
3104:Drivers/STM32H5xx_HAL_Driver/Src/stm32h5xx_hal_rtc_ex.c ****   * @brief  Enable RTC OUT2 remap feature.
3105:Drivers/STM32H5xx_HAL_Driver/Src/stm32h5xx_hal_rtc_ex.c ****   * @note   When enable RTC_OUT2 is mapped on PB2.
3106:Drivers/STM32H5xx_HAL_Driver/Src/stm32h5xx_hal_rtc_ex.c ****   * @param  hrtc RTC handle
3107:Drivers/STM32H5xx_HAL_Driver/Src/stm32h5xx_hal_rtc_ex.c ****   * @retval None
3108:Drivers/STM32H5xx_HAL_Driver/Src/stm32h5xx_hal_rtc_ex.c ****   */
3109:Drivers/STM32H5xx_HAL_Driver/Src/stm32h5xx_hal_rtc_ex.c **** void HAL_RTCEx_EnableRemapRtcOut2(RTC_HandleTypeDef *hrtc)
3110:Drivers/STM32H5xx_HAL_Driver/Src/stm32h5xx_hal_rtc_ex.c **** {
 4845              		.loc 1 3110 1 is_stmt 1 view -0
 4846              		.cfi_startproc
 4847              		@ args = 0, pretend = 0, frame = 0
 4848              		@ frame_needed = 0, uses_anonymous_args = 0
 4849              		@ link register save eliminated.
3111:Drivers/STM32H5xx_HAL_Driver/Src/stm32h5xx_hal_rtc_ex.c ****   /* Prevent unused argument(s) compilation warning */
3112:Drivers/STM32H5xx_HAL_Driver/Src/stm32h5xx_hal_rtc_ex.c ****   UNUSED(hrtc);
 4850              		.loc 1 3112 3 view .LVU1400
3113:Drivers/STM32H5xx_HAL_Driver/Src/stm32h5xx_hal_rtc_ex.c **** 
3114:Drivers/STM32H5xx_HAL_Driver/Src/stm32h5xx_hal_rtc_ex.c ****   /* Enable RTC OUT2 remap */
3115:Drivers/STM32H5xx_HAL_Driver/Src/stm32h5xx_hal_rtc_ex.c ****   SET_BIT(RTC->OR, RTC_OR_OUT2_RMP);
 4851              		.loc 1 3115 3 view .LVU1401
 4852 0000 024A     		ldr	r2, .L390
 4853 0002 136E     		ldr	r3, [r2, #96]
 4854 0004 43F00103 		orr	r3, r3, #1
 4855 0008 1366     		str	r3, [r2, #96]
3116:Drivers/STM32H5xx_HAL_Driver/Src/stm32h5xx_hal_rtc_ex.c **** }
 4856              		.loc 1 3116 1 is_stmt 0 view .LVU1402
 4857 000a 7047     		bx	lr
 4858              	.L391:
 4859              		.align	2
 4860              	.L390:
 4861 000c 00780044 		.word	1140881408
 4862              		.cfi_endproc
 4863              	.LFE373:
 4865              		.section	.text.HAL_RTCEx_DisableRemapRtcOut2,"ax",%progbits
 4866              		.align	1
 4867              		.global	HAL_RTCEx_DisableRemapRtcOut2
 4868              		.syntax unified
 4869              		.thumb
 4870              		.thumb_func
 4872              	HAL_RTCEx_DisableRemapRtcOut2:
 4873              	.LVL325:
ARM GAS  C:\Users\DELL\AppData\Local\Temp\ccMtHSyM.s 			page 145


 4874              	.LFB374:
3117:Drivers/STM32H5xx_HAL_Driver/Src/stm32h5xx_hal_rtc_ex.c **** 
3118:Drivers/STM32H5xx_HAL_Driver/Src/stm32h5xx_hal_rtc_ex.c **** /**
3119:Drivers/STM32H5xx_HAL_Driver/Src/stm32h5xx_hal_rtc_ex.c ****   * @brief  Disable RTC OUT2 remap feature.
3120:Drivers/STM32H5xx_HAL_Driver/Src/stm32h5xx_hal_rtc_ex.c ****   * @note   When disable RTC_OUT2 is mapped on PI8.
3121:Drivers/STM32H5xx_HAL_Driver/Src/stm32h5xx_hal_rtc_ex.c ****   * @param  hrtc RTC handle
3122:Drivers/STM32H5xx_HAL_Driver/Src/stm32h5xx_hal_rtc_ex.c ****   * @retval None
3123:Drivers/STM32H5xx_HAL_Driver/Src/stm32h5xx_hal_rtc_ex.c ****   */
3124:Drivers/STM32H5xx_HAL_Driver/Src/stm32h5xx_hal_rtc_ex.c **** void HAL_RTCEx_DisableRemapRtcOut2(RTC_HandleTypeDef *hrtc)
3125:Drivers/STM32H5xx_HAL_Driver/Src/stm32h5xx_hal_rtc_ex.c **** {
 4875              		.loc 1 3125 1 is_stmt 1 view -0
 4876              		.cfi_startproc
 4877              		@ args = 0, pretend = 0, frame = 0
 4878              		@ frame_needed = 0, uses_anonymous_args = 0
 4879              		@ link register save eliminated.
3126:Drivers/STM32H5xx_HAL_Driver/Src/stm32h5xx_hal_rtc_ex.c ****   /* Prevent unused argument(s) compilation warning */
3127:Drivers/STM32H5xx_HAL_Driver/Src/stm32h5xx_hal_rtc_ex.c ****   UNUSED(hrtc);
 4880              		.loc 1 3127 3 view .LVU1404
3128:Drivers/STM32H5xx_HAL_Driver/Src/stm32h5xx_hal_rtc_ex.c **** 
3129:Drivers/STM32H5xx_HAL_Driver/Src/stm32h5xx_hal_rtc_ex.c ****   /* Disable RTC OUT2 remap */
3130:Drivers/STM32H5xx_HAL_Driver/Src/stm32h5xx_hal_rtc_ex.c ****   CLEAR_BIT(RTC->OR, RTC_OR_OUT2_RMP);
 4881              		.loc 1 3130 3 view .LVU1405
 4882 0000 024A     		ldr	r2, .L393
 4883 0002 136E     		ldr	r3, [r2, #96]
 4884 0004 23F00103 		bic	r3, r3, #1
 4885 0008 1366     		str	r3, [r2, #96]
3131:Drivers/STM32H5xx_HAL_Driver/Src/stm32h5xx_hal_rtc_ex.c **** }
 4886              		.loc 1 3131 1 is_stmt 0 view .LVU1406
 4887 000a 7047     		bx	lr
 4888              	.L394:
 4889              		.align	2
 4890              	.L393:
 4891 000c 00780044 		.word	1140881408
 4892              		.cfi_endproc
 4893              	.LFE374:
 4895              		.text
 4896              	.Letext0:
 4897              		.file 2 "D:\\stm32cubeclt\\STM32CubeCLT_1.21.0\\GNU-tools-for-STM32\\bin\\../lib/gcc/arm-none-eabi
 4898              		.file 3 "D:\\stm32cubeclt\\STM32CubeCLT_1.21.0\\GNU-tools-for-STM32\\bin\\../lib/gcc/arm-none-eabi
 4899              		.file 4 "Drivers/CMSIS/Device/ST/STM32H5xx/Include/stm32h563xx.h"
 4900              		.file 5 "Drivers/STM32H5xx_HAL_Driver/Inc/stm32h5xx_hal_def.h"
 4901              		.file 6 "Drivers/STM32H5xx_HAL_Driver/Inc/stm32h5xx_ll_lptim.h"
 4902              		.file 7 "Drivers/STM32H5xx_HAL_Driver/Inc/stm32h5xx_hal_rtc.h"
 4903              		.file 8 "Drivers/STM32H5xx_HAL_Driver/Inc/stm32h5xx_hal_rtc_ex.h"
 4904              		.file 9 "Drivers/STM32H5xx_HAL_Driver/Inc/stm32h5xx_hal.h"
ARM GAS  C:\Users\DELL\AppData\Local\Temp\ccMtHSyM.s 			page 146


DEFINED SYMBOLS
                            *ABS*:00000000 stm32h5xx_hal_rtc_ex.c
C:\Users\DELL\AppData\Local\Temp\ccMtHSyM.s:22     .text.HAL_RTCEx_SetTimeStamp:00000000 $t
C:\Users\DELL\AppData\Local\Temp\ccMtHSyM.s:28     .text.HAL_RTCEx_SetTimeStamp:00000000 HAL_RTCEx_SetTimeStamp
C:\Users\DELL\AppData\Local\Temp\ccMtHSyM.s:91     .text.HAL_RTCEx_SetTimeStamp:00000040 $d
C:\Users\DELL\AppData\Local\Temp\ccMtHSyM.s:96     .text.HAL_RTCEx_SetTimeStamp_IT:00000000 $t
C:\Users\DELL\AppData\Local\Temp\ccMtHSyM.s:102    .text.HAL_RTCEx_SetTimeStamp_IT:00000000 HAL_RTCEx_SetTimeStamp_IT
C:\Users\DELL\AppData\Local\Temp\ccMtHSyM.s:169    .text.HAL_RTCEx_SetTimeStamp_IT:00000044 $d
C:\Users\DELL\AppData\Local\Temp\ccMtHSyM.s:174    .text.HAL_RTCEx_DeactivateTimeStamp:00000000 $t
C:\Users\DELL\AppData\Local\Temp\ccMtHSyM.s:180    .text.HAL_RTCEx_DeactivateTimeStamp:00000000 HAL_RTCEx_DeactivateTimeStamp
C:\Users\DELL\AppData\Local\Temp\ccMtHSyM.s:231    .text.HAL_RTCEx_DeactivateTimeStamp:00000034 $d
C:\Users\DELL\AppData\Local\Temp\ccMtHSyM.s:236    .text.HAL_RTCEx_SetInternalTimeStamp:00000000 $t
C:\Users\DELL\AppData\Local\Temp\ccMtHSyM.s:242    .text.HAL_RTCEx_SetInternalTimeStamp:00000000 HAL_RTCEx_SetInternalTimeStamp
C:\Users\DELL\AppData\Local\Temp\ccMtHSyM.s:292    .text.HAL_RTCEx_SetInternalTimeStamp:00000030 $d
C:\Users\DELL\AppData\Local\Temp\ccMtHSyM.s:297    .text.HAL_RTCEx_DeactivateInternalTimeStamp:00000000 $t
C:\Users\DELL\AppData\Local\Temp\ccMtHSyM.s:303    .text.HAL_RTCEx_DeactivateInternalTimeStamp:00000000 HAL_RTCEx_DeactivateInternalTimeStamp
C:\Users\DELL\AppData\Local\Temp\ccMtHSyM.s:353    .text.HAL_RTCEx_DeactivateInternalTimeStamp:00000030 $d
C:\Users\DELL\AppData\Local\Temp\ccMtHSyM.s:358    .text.HAL_RTCEx_GetTimeStamp:00000000 $t
C:\Users\DELL\AppData\Local\Temp\ccMtHSyM.s:364    .text.HAL_RTCEx_GetTimeStamp:00000000 HAL_RTCEx_GetTimeStamp
C:\Users\DELL\AppData\Local\Temp\ccMtHSyM.s:503    .text.HAL_RTCEx_GetTimeStamp:00000084 $d
C:\Users\DELL\AppData\Local\Temp\ccMtHSyM.s:508    .text.HAL_RTCEx_TimeStampEventCallback:00000000 $t
C:\Users\DELL\AppData\Local\Temp\ccMtHSyM.s:514    .text.HAL_RTCEx_TimeStampEventCallback:00000000 HAL_RTCEx_TimeStampEventCallback
C:\Users\DELL\AppData\Local\Temp\ccMtHSyM.s:529    .text.HAL_RTCEx_TimeStampIRQHandler:00000000 $t
C:\Users\DELL\AppData\Local\Temp\ccMtHSyM.s:535    .text.HAL_RTCEx_TimeStampIRQHandler:00000000 HAL_RTCEx_TimeStampIRQHandler
C:\Users\DELL\AppData\Local\Temp\ccMtHSyM.s:577    .text.HAL_RTCEx_TimeStampIRQHandler:00000024 $d
C:\Users\DELL\AppData\Local\Temp\ccMtHSyM.s:582    .text.HAL_RTCEx_PollForTimeStampEvent:00000000 $t
C:\Users\DELL\AppData\Local\Temp\ccMtHSyM.s:588    .text.HAL_RTCEx_PollForTimeStampEvent:00000000 HAL_RTCEx_PollForTimeStampEvent
C:\Users\DELL\AppData\Local\Temp\ccMtHSyM.s:678    .text.HAL_RTCEx_PollForTimeStampEvent:00000054 $d
C:\Users\DELL\AppData\Local\Temp\ccMtHSyM.s:683    .text.HAL_RTCEx_SetWakeUpTimer:00000000 $t
C:\Users\DELL\AppData\Local\Temp\ccMtHSyM.s:689    .text.HAL_RTCEx_SetWakeUpTimer:00000000 HAL_RTCEx_SetWakeUpTimer
C:\Users\DELL\AppData\Local\Temp\ccMtHSyM.s:822    .text.HAL_RTCEx_SetWakeUpTimer:0000008c $d
C:\Users\DELL\AppData\Local\Temp\ccMtHSyM.s:827    .text.HAL_RTCEx_SetWakeUpTimer_IT:00000000 $t
C:\Users\DELL\AppData\Local\Temp\ccMtHSyM.s:833    .text.HAL_RTCEx_SetWakeUpTimer_IT:00000000 HAL_RTCEx_SetWakeUpTimer_IT
C:\Users\DELL\AppData\Local\Temp\ccMtHSyM.s:976    .text.HAL_RTCEx_SetWakeUpTimer_IT:0000009c $d
C:\Users\DELL\AppData\Local\Temp\ccMtHSyM.s:981    .text.HAL_RTCEx_DeactivateWakeUpTimer:00000000 $t
C:\Users\DELL\AppData\Local\Temp\ccMtHSyM.s:987    .text.HAL_RTCEx_DeactivateWakeUpTimer:00000000 HAL_RTCEx_DeactivateWakeUpTimer
C:\Users\DELL\AppData\Local\Temp\ccMtHSyM.s:1037   .text.HAL_RTCEx_DeactivateWakeUpTimer:00000030 $d
C:\Users\DELL\AppData\Local\Temp\ccMtHSyM.s:1042   .text.HAL_RTCEx_GetWakeUpTimer:00000000 $t
C:\Users\DELL\AppData\Local\Temp\ccMtHSyM.s:1048   .text.HAL_RTCEx_GetWakeUpTimer:00000000 HAL_RTCEx_GetWakeUpTimer
C:\Users\DELL\AppData\Local\Temp\ccMtHSyM.s:1068   .text.HAL_RTCEx_GetWakeUpTimer:00000008 $d
C:\Users\DELL\AppData\Local\Temp\ccMtHSyM.s:1073   .text.HAL_RTCEx_WakeUpTimerEventCallback:00000000 $t
C:\Users\DELL\AppData\Local\Temp\ccMtHSyM.s:1079   .text.HAL_RTCEx_WakeUpTimerEventCallback:00000000 HAL_RTCEx_WakeUpTimerEventCallback
C:\Users\DELL\AppData\Local\Temp\ccMtHSyM.s:1094   .text.HAL_RTCEx_WakeUpTimerIRQHandler:00000000 $t
C:\Users\DELL\AppData\Local\Temp\ccMtHSyM.s:1100   .text.HAL_RTCEx_WakeUpTimerIRQHandler:00000000 HAL_RTCEx_WakeUpTimerIRQHandler
C:\Users\DELL\AppData\Local\Temp\ccMtHSyM.s:1143   .text.HAL_RTCEx_WakeUpTimerIRQHandler:00000024 $d
C:\Users\DELL\AppData\Local\Temp\ccMtHSyM.s:1148   .text.HAL_RTCEx_PollForWakeUpTimerEvent:00000000 $t
C:\Users\DELL\AppData\Local\Temp\ccMtHSyM.s:1154   .text.HAL_RTCEx_PollForWakeUpTimerEvent:00000000 HAL_RTCEx_PollForWakeUpTimerEvent
C:\Users\DELL\AppData\Local\Temp\ccMtHSyM.s:1230   .text.HAL_RTCEx_PollForWakeUpTimerEvent:00000040 $d
C:\Users\DELL\AppData\Local\Temp\ccMtHSyM.s:1235   .text.HAL_RTCEx_SetSmoothCalib:00000000 $t
C:\Users\DELL\AppData\Local\Temp\ccMtHSyM.s:1241   .text.HAL_RTCEx_SetSmoothCalib:00000000 HAL_RTCEx_SetSmoothCalib
C:\Users\DELL\AppData\Local\Temp\ccMtHSyM.s:1378   .text.HAL_RTCEx_SetSmoothCalib:00000090 $d
C:\Users\DELL\AppData\Local\Temp\ccMtHSyM.s:1383   .text.HAL_RTCEx_SetLowPowerCalib:00000000 $t
C:\Users\DELL\AppData\Local\Temp\ccMtHSyM.s:1389   .text.HAL_RTCEx_SetLowPowerCalib:00000000 HAL_RTCEx_SetLowPowerCalib
C:\Users\DELL\AppData\Local\Temp\ccMtHSyM.s:1457   .text.HAL_RTCEx_SetLowPowerCalib:00000040 $d
C:\Users\DELL\AppData\Local\Temp\ccMtHSyM.s:1462   .text.HAL_RTCEx_SetSynchroShift:00000000 $t
C:\Users\DELL\AppData\Local\Temp\ccMtHSyM.s:1468   .text.HAL_RTCEx_SetSynchroShift:00000000 HAL_RTCEx_SetSynchroShift
C:\Users\DELL\AppData\Local\Temp\ccMtHSyM.s:1662   .text.HAL_RTCEx_SetSynchroShift:000000c8 $d
ARM GAS  C:\Users\DELL\AppData\Local\Temp\ccMtHSyM.s 			page 147


C:\Users\DELL\AppData\Local\Temp\ccMtHSyM.s:1667   .text.HAL_RTCEx_SetCalibrationOutPut:00000000 $t
C:\Users\DELL\AppData\Local\Temp\ccMtHSyM.s:1673   .text.HAL_RTCEx_SetCalibrationOutPut:00000000 HAL_RTCEx_SetCalibrationOutPut
C:\Users\DELL\AppData\Local\Temp\ccMtHSyM.s:1731   .text.HAL_RTCEx_SetCalibrationOutPut:0000003c $d
C:\Users\DELL\AppData\Local\Temp\ccMtHSyM.s:1736   .text.HAL_RTCEx_DeactivateCalibrationOutPut:00000000 $t
C:\Users\DELL\AppData\Local\Temp\ccMtHSyM.s:1742   .text.HAL_RTCEx_DeactivateCalibrationOutPut:00000000 HAL_RTCEx_DeactivateCalibrationOutPut
C:\Users\DELL\AppData\Local\Temp\ccMtHSyM.s:1792   .text.HAL_RTCEx_DeactivateCalibrationOutPut:00000030 $d
C:\Users\DELL\AppData\Local\Temp\ccMtHSyM.s:1797   .text.HAL_RTCEx_SetRefClock:00000000 $t
C:\Users\DELL\AppData\Local\Temp\ccMtHSyM.s:1803   .text.HAL_RTCEx_SetRefClock:00000000 HAL_RTCEx_SetRefClock
C:\Users\DELL\AppData\Local\Temp\ccMtHSyM.s:1905   .text.HAL_RTCEx_SetRefClock:0000005c $d
C:\Users\DELL\AppData\Local\Temp\ccMtHSyM.s:1910   .text.HAL_RTCEx_DeactivateRefClock:00000000 $t
C:\Users\DELL\AppData\Local\Temp\ccMtHSyM.s:1916   .text.HAL_RTCEx_DeactivateRefClock:00000000 HAL_RTCEx_DeactivateRefClock
C:\Users\DELL\AppData\Local\Temp\ccMtHSyM.s:2018   .text.HAL_RTCEx_DeactivateRefClock:0000005c $d
C:\Users\DELL\AppData\Local\Temp\ccMtHSyM.s:2023   .text.HAL_RTCEx_EnableBypassShadow:00000000 $t
C:\Users\DELL\AppData\Local\Temp\ccMtHSyM.s:2029   .text.HAL_RTCEx_EnableBypassShadow:00000000 HAL_RTCEx_EnableBypassShadow
C:\Users\DELL\AppData\Local\Temp\ccMtHSyM.s:2079   .text.HAL_RTCEx_EnableBypassShadow:00000030 $d
C:\Users\DELL\AppData\Local\Temp\ccMtHSyM.s:2084   .text.HAL_RTCEx_DisableBypassShadow:00000000 $t
C:\Users\DELL\AppData\Local\Temp\ccMtHSyM.s:2090   .text.HAL_RTCEx_DisableBypassShadow:00000000 HAL_RTCEx_DisableBypassShadow
C:\Users\DELL\AppData\Local\Temp\ccMtHSyM.s:2140   .text.HAL_RTCEx_DisableBypassShadow:00000030 $d
C:\Users\DELL\AppData\Local\Temp\ccMtHSyM.s:2145   .text.HAL_RTCEx_MonotonicCounterIncrement:00000000 $t
C:\Users\DELL\AppData\Local\Temp\ccMtHSyM.s:2151   .text.HAL_RTCEx_MonotonicCounterIncrement:00000000 HAL_RTCEx_MonotonicCounterIncrement
C:\Users\DELL\AppData\Local\Temp\ccMtHSyM.s:2173   .text.HAL_RTCEx_MonotonicCounterIncrement:00000008 $d
C:\Users\DELL\AppData\Local\Temp\ccMtHSyM.s:2178   .text.HAL_RTCEx_MonotonicCounterGet:00000000 $t
C:\Users\DELL\AppData\Local\Temp\ccMtHSyM.s:2184   .text.HAL_RTCEx_MonotonicCounterGet:00000000 HAL_RTCEx_MonotonicCounterGet
C:\Users\DELL\AppData\Local\Temp\ccMtHSyM.s:2209   .text.HAL_RTCEx_MonotonicCounterGet:0000000c $d
C:\Users\DELL\AppData\Local\Temp\ccMtHSyM.s:2214   .text.HAL_RTCEx_SetSSRU_IT:00000000 $t
C:\Users\DELL\AppData\Local\Temp\ccMtHSyM.s:2220   .text.HAL_RTCEx_SetSSRU_IT:00000000 HAL_RTCEx_SetSSRU_IT
C:\Users\DELL\AppData\Local\Temp\ccMtHSyM.s:2270   .text.HAL_RTCEx_SetSSRU_IT:00000030 $d
C:\Users\DELL\AppData\Local\Temp\ccMtHSyM.s:2275   .text.HAL_RTCEx_DeactivateSSRU:00000000 $t
C:\Users\DELL\AppData\Local\Temp\ccMtHSyM.s:2281   .text.HAL_RTCEx_DeactivateSSRU:00000000 HAL_RTCEx_DeactivateSSRU
C:\Users\DELL\AppData\Local\Temp\ccMtHSyM.s:2331   .text.HAL_RTCEx_DeactivateSSRU:00000030 $d
C:\Users\DELL\AppData\Local\Temp\ccMtHSyM.s:2336   .text.HAL_RTCEx_SSRUEventCallback:00000000 $t
C:\Users\DELL\AppData\Local\Temp\ccMtHSyM.s:2342   .text.HAL_RTCEx_SSRUEventCallback:00000000 HAL_RTCEx_SSRUEventCallback
C:\Users\DELL\AppData\Local\Temp\ccMtHSyM.s:2357   .text.HAL_RTCEx_SSRUIRQHandler:00000000 $t
C:\Users\DELL\AppData\Local\Temp\ccMtHSyM.s:2363   .text.HAL_RTCEx_SSRUIRQHandler:00000000 HAL_RTCEx_SSRUIRQHandler
C:\Users\DELL\AppData\Local\Temp\ccMtHSyM.s:2406   .text.HAL_RTCEx_SSRUIRQHandler:00000024 $d
C:\Users\DELL\AppData\Local\Temp\ccMtHSyM.s:2411   .text.HAL_RTCEx_AlarmBEventCallback:00000000 $t
C:\Users\DELL\AppData\Local\Temp\ccMtHSyM.s:2417   .text.HAL_RTCEx_AlarmBEventCallback:00000000 HAL_RTCEx_AlarmBEventCallback
C:\Users\DELL\AppData\Local\Temp\ccMtHSyM.s:2432   .text.HAL_RTCEx_PollForAlarmBEvent:00000000 $t
C:\Users\DELL\AppData\Local\Temp\ccMtHSyM.s:2438   .text.HAL_RTCEx_PollForAlarmBEvent:00000000 HAL_RTCEx_PollForAlarmBEvent
C:\Users\DELL\AppData\Local\Temp\ccMtHSyM.s:2514   .text.HAL_RTCEx_PollForAlarmBEvent:00000040 $d
C:\Users\DELL\AppData\Local\Temp\ccMtHSyM.s:2519   .text.HAL_RTCEx_SetTamper:00000000 $t
C:\Users\DELL\AppData\Local\Temp\ccMtHSyM.s:2525   .text.HAL_RTCEx_SetTamper:00000000 HAL_RTCEx_SetTamper
C:\Users\DELL\AppData\Local\Temp\ccMtHSyM.s:2652   .text.HAL_RTCEx_SetTamper:00000074 $d
C:\Users\DELL\AppData\Local\Temp\ccMtHSyM.s:2658   .text.HAL_RTCEx_SetTamper_IT:00000000 $t
C:\Users\DELL\AppData\Local\Temp\ccMtHSyM.s:2664   .text.HAL_RTCEx_SetTamper_IT:00000000 HAL_RTCEx_SetTamper_IT
C:\Users\DELL\AppData\Local\Temp\ccMtHSyM.s:2781   .text.HAL_RTCEx_SetTamper_IT:00000070 $d
C:\Users\DELL\AppData\Local\Temp\ccMtHSyM.s:2787   .text.HAL_RTCEx_DeactivateTamper:00000000 $t
C:\Users\DELL\AppData\Local\Temp\ccMtHSyM.s:2793   .text.HAL_RTCEx_DeactivateTamper:00000000 HAL_RTCEx_DeactivateTamper
C:\Users\DELL\AppData\Local\Temp\ccMtHSyM.s:2830   .text.HAL_RTCEx_DeactivateTamper:00000028 $d
C:\Users\DELL\AppData\Local\Temp\ccMtHSyM.s:2835   .text.HAL_RTCEx_SetActiveSeed:00000000 $t
C:\Users\DELL\AppData\Local\Temp\ccMtHSyM.s:2841   .text.HAL_RTCEx_SetActiveSeed:00000000 HAL_RTCEx_SetActiveSeed
C:\Users\DELL\AppData\Local\Temp\ccMtHSyM.s:2940   .text.HAL_RTCEx_SetActiveSeed:0000005c $d
C:\Users\DELL\AppData\Local\Temp\ccMtHSyM.s:2945   .text.HAL_RTCEx_LockBootHardwareKey:00000000 $t
C:\Users\DELL\AppData\Local\Temp\ccMtHSyM.s:2951   .text.HAL_RTCEx_LockBootHardwareKey:00000000 HAL_RTCEx_LockBootHardwareKey
C:\Users\DELL\AppData\Local\Temp\ccMtHSyM.s:2973   .text.HAL_RTCEx_LockBootHardwareKey:0000000c $d
C:\Users\DELL\AppData\Local\Temp\ccMtHSyM.s:2978   .text.HAL_RTCEx_DeactivateActiveTampers:00000000 $t
C:\Users\DELL\AppData\Local\Temp\ccMtHSyM.s:2984   .text.HAL_RTCEx_DeactivateActiveTampers:00000000 HAL_RTCEx_DeactivateActiveTampers
ARM GAS  C:\Users\DELL\AppData\Local\Temp\ccMtHSyM.s 			page 148


C:\Users\DELL\AppData\Local\Temp\ccMtHSyM.s:3033   .text.HAL_RTCEx_DeactivateActiveTampers:00000034 $d
C:\Users\DELL\AppData\Local\Temp\ccMtHSyM.s:3038   .text.HAL_RTCEx_SetActiveTampers:00000000 $t
C:\Users\DELL\AppData\Local\Temp\ccMtHSyM.s:3044   .text.HAL_RTCEx_SetActiveTampers:00000000 HAL_RTCEx_SetActiveTampers
C:\Users\DELL\AppData\Local\Temp\ccMtHSyM.s:3323   .text.HAL_RTCEx_SetActiveTampers:00000124 $d
C:\Users\DELL\AppData\Local\Temp\ccMtHSyM.s:3329   .text.HAL_RTCEx_PollForTamperEvent:00000000 $t
C:\Users\DELL\AppData\Local\Temp\ccMtHSyM.s:3335   .text.HAL_RTCEx_PollForTamperEvent:00000000 HAL_RTCEx_PollForTamperEvent
C:\Users\DELL\AppData\Local\Temp\ccMtHSyM.s:3412   .text.HAL_RTCEx_PollForTamperEvent:00000040 $d
C:\Users\DELL\AppData\Local\Temp\ccMtHSyM.s:3417   .text.HAL_RTCEx_SetInternalTamper:00000000 $t
C:\Users\DELL\AppData\Local\Temp\ccMtHSyM.s:3423   .text.HAL_RTCEx_SetInternalTamper:00000000 HAL_RTCEx_SetInternalTamper
C:\Users\DELL\AppData\Local\Temp\ccMtHSyM.s:3490   .text.HAL_RTCEx_SetInternalTamper:00000044 $d
C:\Users\DELL\AppData\Local\Temp\ccMtHSyM.s:3496   .text.HAL_RTCEx_SetInternalTamper_IT:00000000 $t
C:\Users\DELL\AppData\Local\Temp\ccMtHSyM.s:3502   .text.HAL_RTCEx_SetInternalTamper_IT:00000000 HAL_RTCEx_SetInternalTamper_IT
C:\Users\DELL\AppData\Local\Temp\ccMtHSyM.s:3574   .text.HAL_RTCEx_SetInternalTamper_IT:0000004c $d
C:\Users\DELL\AppData\Local\Temp\ccMtHSyM.s:3580   .text.HAL_RTCEx_DeactivateInternalTamper:00000000 $t
C:\Users\DELL\AppData\Local\Temp\ccMtHSyM.s:3586   .text.HAL_RTCEx_DeactivateInternalTamper:00000000 HAL_RTCEx_DeactivateInternalTamper
C:\Users\DELL\AppData\Local\Temp\ccMtHSyM.s:3616   .text.HAL_RTCEx_DeactivateInternalTamper:00000018 $d
C:\Users\DELL\AppData\Local\Temp\ccMtHSyM.s:3621   .text.HAL_RTCEx_PollForInternalTamperEvent:00000000 $t
C:\Users\DELL\AppData\Local\Temp\ccMtHSyM.s:3627   .text.HAL_RTCEx_PollForInternalTamperEvent:00000000 HAL_RTCEx_PollForInternalTamperEvent
C:\Users\DELL\AppData\Local\Temp\ccMtHSyM.s:3704   .text.HAL_RTCEx_PollForInternalTamperEvent:00000040 $d
C:\Users\DELL\AppData\Local\Temp\ccMtHSyM.s:3709   .text.HAL_RTCEx_Tamper1EventCallback:00000000 $t
C:\Users\DELL\AppData\Local\Temp\ccMtHSyM.s:3715   .text.HAL_RTCEx_Tamper1EventCallback:00000000 HAL_RTCEx_Tamper1EventCallback
C:\Users\DELL\AppData\Local\Temp\ccMtHSyM.s:3730   .text.HAL_RTCEx_Tamper2EventCallback:00000000 $t
C:\Users\DELL\AppData\Local\Temp\ccMtHSyM.s:3736   .text.HAL_RTCEx_Tamper2EventCallback:00000000 HAL_RTCEx_Tamper2EventCallback
C:\Users\DELL\AppData\Local\Temp\ccMtHSyM.s:3751   .text.HAL_RTCEx_Tamper3EventCallback:00000000 $t
C:\Users\DELL\AppData\Local\Temp\ccMtHSyM.s:3757   .text.HAL_RTCEx_Tamper3EventCallback:00000000 HAL_RTCEx_Tamper3EventCallback
C:\Users\DELL\AppData\Local\Temp\ccMtHSyM.s:3772   .text.HAL_RTCEx_Tamper4EventCallback:00000000 $t
C:\Users\DELL\AppData\Local\Temp\ccMtHSyM.s:3778   .text.HAL_RTCEx_Tamper4EventCallback:00000000 HAL_RTCEx_Tamper4EventCallback
C:\Users\DELL\AppData\Local\Temp\ccMtHSyM.s:3793   .text.HAL_RTCEx_Tamper5EventCallback:00000000 $t
C:\Users\DELL\AppData\Local\Temp\ccMtHSyM.s:3799   .text.HAL_RTCEx_Tamper5EventCallback:00000000 HAL_RTCEx_Tamper5EventCallback
C:\Users\DELL\AppData\Local\Temp\ccMtHSyM.s:3814   .text.HAL_RTCEx_Tamper6EventCallback:00000000 $t
C:\Users\DELL\AppData\Local\Temp\ccMtHSyM.s:3820   .text.HAL_RTCEx_Tamper6EventCallback:00000000 HAL_RTCEx_Tamper6EventCallback
C:\Users\DELL\AppData\Local\Temp\ccMtHSyM.s:3835   .text.HAL_RTCEx_Tamper7EventCallback:00000000 $t
C:\Users\DELL\AppData\Local\Temp\ccMtHSyM.s:3841   .text.HAL_RTCEx_Tamper7EventCallback:00000000 HAL_RTCEx_Tamper7EventCallback
C:\Users\DELL\AppData\Local\Temp\ccMtHSyM.s:3856   .text.HAL_RTCEx_Tamper8EventCallback:00000000 $t
C:\Users\DELL\AppData\Local\Temp\ccMtHSyM.s:3862   .text.HAL_RTCEx_Tamper8EventCallback:00000000 HAL_RTCEx_Tamper8EventCallback
C:\Users\DELL\AppData\Local\Temp\ccMtHSyM.s:3877   .text.HAL_RTCEx_InternalTamper1EventCallback:00000000 $t
C:\Users\DELL\AppData\Local\Temp\ccMtHSyM.s:3883   .text.HAL_RTCEx_InternalTamper1EventCallback:00000000 HAL_RTCEx_InternalTamper1EventCallback
C:\Users\DELL\AppData\Local\Temp\ccMtHSyM.s:3898   .text.HAL_RTCEx_InternalTamper2EventCallback:00000000 $t
C:\Users\DELL\AppData\Local\Temp\ccMtHSyM.s:3904   .text.HAL_RTCEx_InternalTamper2EventCallback:00000000 HAL_RTCEx_InternalTamper2EventCallback
C:\Users\DELL\AppData\Local\Temp\ccMtHSyM.s:3919   .text.HAL_RTCEx_InternalTamper3EventCallback:00000000 $t
C:\Users\DELL\AppData\Local\Temp\ccMtHSyM.s:3925   .text.HAL_RTCEx_InternalTamper3EventCallback:00000000 HAL_RTCEx_InternalTamper3EventCallback
C:\Users\DELL\AppData\Local\Temp\ccMtHSyM.s:3940   .text.HAL_RTCEx_InternalTamper4EventCallback:00000000 $t
C:\Users\DELL\AppData\Local\Temp\ccMtHSyM.s:3946   .text.HAL_RTCEx_InternalTamper4EventCallback:00000000 HAL_RTCEx_InternalTamper4EventCallback
C:\Users\DELL\AppData\Local\Temp\ccMtHSyM.s:3961   .text.HAL_RTCEx_InternalTamper5EventCallback:00000000 $t
C:\Users\DELL\AppData\Local\Temp\ccMtHSyM.s:3967   .text.HAL_RTCEx_InternalTamper5EventCallback:00000000 HAL_RTCEx_InternalTamper5EventCallback
C:\Users\DELL\AppData\Local\Temp\ccMtHSyM.s:3982   .text.HAL_RTCEx_InternalTamper6EventCallback:00000000 $t
C:\Users\DELL\AppData\Local\Temp\ccMtHSyM.s:3988   .text.HAL_RTCEx_InternalTamper6EventCallback:00000000 HAL_RTCEx_InternalTamper6EventCallback
C:\Users\DELL\AppData\Local\Temp\ccMtHSyM.s:4003   .text.HAL_RTCEx_InternalTamper7EventCallback:00000000 $t
C:\Users\DELL\AppData\Local\Temp\ccMtHSyM.s:4009   .text.HAL_RTCEx_InternalTamper7EventCallback:00000000 HAL_RTCEx_InternalTamper7EventCallback
C:\Users\DELL\AppData\Local\Temp\ccMtHSyM.s:4024   .text.HAL_RTCEx_InternalTamper8EventCallback:00000000 $t
C:\Users\DELL\AppData\Local\Temp\ccMtHSyM.s:4030   .text.HAL_RTCEx_InternalTamper8EventCallback:00000000 HAL_RTCEx_InternalTamper8EventCallback
C:\Users\DELL\AppData\Local\Temp\ccMtHSyM.s:4045   .text.HAL_RTCEx_InternalTamper9EventCallback:00000000 $t
C:\Users\DELL\AppData\Local\Temp\ccMtHSyM.s:4051   .text.HAL_RTCEx_InternalTamper9EventCallback:00000000 HAL_RTCEx_InternalTamper9EventCallback
C:\Users\DELL\AppData\Local\Temp\ccMtHSyM.s:4066   .text.HAL_RTCEx_InternalTamper11EventCallback:00000000 $t
C:\Users\DELL\AppData\Local\Temp\ccMtHSyM.s:4072   .text.HAL_RTCEx_InternalTamper11EventCallback:00000000 HAL_RTCEx_InternalTamper11EventCallback
C:\Users\DELL\AppData\Local\Temp\ccMtHSyM.s:4087   .text.HAL_RTCEx_InternalTamper12EventCallback:00000000 $t
C:\Users\DELL\AppData\Local\Temp\ccMtHSyM.s:4093   .text.HAL_RTCEx_InternalTamper12EventCallback:00000000 HAL_RTCEx_InternalTamper12EventCallback
ARM GAS  C:\Users\DELL\AppData\Local\Temp\ccMtHSyM.s 			page 149


C:\Users\DELL\AppData\Local\Temp\ccMtHSyM.s:4108   .text.HAL_RTCEx_InternalTamper13EventCallback:00000000 $t
C:\Users\DELL\AppData\Local\Temp\ccMtHSyM.s:4114   .text.HAL_RTCEx_InternalTamper13EventCallback:00000000 HAL_RTCEx_InternalTamper13EventCallback
C:\Users\DELL\AppData\Local\Temp\ccMtHSyM.s:4129   .text.HAL_RTCEx_InternalTamper15EventCallback:00000000 $t
C:\Users\DELL\AppData\Local\Temp\ccMtHSyM.s:4135   .text.HAL_RTCEx_InternalTamper15EventCallback:00000000 HAL_RTCEx_InternalTamper15EventCallback
C:\Users\DELL\AppData\Local\Temp\ccMtHSyM.s:4150   .text.HAL_RTCEx_TamperIRQHandler:00000000 $t
C:\Users\DELL\AppData\Local\Temp\ccMtHSyM.s:4156   .text.HAL_RTCEx_TamperIRQHandler:00000000 HAL_RTCEx_TamperIRQHandler
C:\Users\DELL\AppData\Local\Temp\ccMtHSyM.s:4418   .text.HAL_RTCEx_TamperIRQHandler:00000134 $d
C:\Users\DELL\AppData\Local\Temp\ccMtHSyM.s:4423   .text.HAL_RTCEx_BKUPWrite:00000000 $t
C:\Users\DELL\AppData\Local\Temp\ccMtHSyM.s:4429   .text.HAL_RTCEx_BKUPWrite:00000000 HAL_RTCEx_BKUPWrite
C:\Users\DELL\AppData\Local\Temp\ccMtHSyM.s:4458   .text.HAL_RTCEx_BKUPRead:00000000 $t
C:\Users\DELL\AppData\Local\Temp\ccMtHSyM.s:4464   .text.HAL_RTCEx_BKUPRead:00000000 HAL_RTCEx_BKUPRead
C:\Users\DELL\AppData\Local\Temp\ccMtHSyM.s:4494   .text.HAL_RTCEx_BKUPErase:00000000 $t
C:\Users\DELL\AppData\Local\Temp\ccMtHSyM.s:4500   .text.HAL_RTCEx_BKUPErase:00000000 HAL_RTCEx_BKUPErase
C:\Users\DELL\AppData\Local\Temp\ccMtHSyM.s:4519   .text.HAL_RTCEx_BKUPErase:0000000c $d
C:\Users\DELL\AppData\Local\Temp\ccMtHSyM.s:4524   .text.HAL_RTCEx_BKUPBlock:00000000 $t
C:\Users\DELL\AppData\Local\Temp\ccMtHSyM.s:4530   .text.HAL_RTCEx_BKUPBlock:00000000 HAL_RTCEx_BKUPBlock
C:\Users\DELL\AppData\Local\Temp\ccMtHSyM.s:4548   .text.HAL_RTCEx_BKUPBlock:0000000c $d
C:\Users\DELL\AppData\Local\Temp\ccMtHSyM.s:4553   .text.HAL_RTCEx_BKUPUnblock:00000000 $t
C:\Users\DELL\AppData\Local\Temp\ccMtHSyM.s:4559   .text.HAL_RTCEx_BKUPUnblock:00000000 HAL_RTCEx_BKUPUnblock
C:\Users\DELL\AppData\Local\Temp\ccMtHSyM.s:4578   .text.HAL_RTCEx_BKUPUnblock:0000000c $d
C:\Users\DELL\AppData\Local\Temp\ccMtHSyM.s:4583   .text.HAL_RTCEx_ConfigEraseDeviceSecrets:00000000 $t
C:\Users\DELL\AppData\Local\Temp\ccMtHSyM.s:4589   .text.HAL_RTCEx_ConfigEraseDeviceSecrets:00000000 HAL_RTCEx_ConfigEraseDeviceSecrets
C:\Users\DELL\AppData\Local\Temp\ccMtHSyM.s:4609   .text.HAL_RTCEx_ConfigEraseDeviceSecrets:00000010 $d
C:\Users\DELL\AppData\Local\Temp\ccMtHSyM.s:4614   .text.HAL_RTCEx_SecureModeGet:00000000 $t
C:\Users\DELL\AppData\Local\Temp\ccMtHSyM.s:4620   .text.HAL_RTCEx_SecureModeGet:00000000 HAL_RTCEx_SecureModeGet
C:\Users\DELL\AppData\Local\Temp\ccMtHSyM.s:4680   .text.HAL_RTCEx_SecureModeGet:00000034 $d
C:\Users\DELL\AppData\Local\Temp\ccMtHSyM.s:4685   .text.HAL_RTCEx_PrivilegeModeSet:00000000 $t
C:\Users\DELL\AppData\Local\Temp\ccMtHSyM.s:4691   .text.HAL_RTCEx_PrivilegeModeSet:00000000 HAL_RTCEx_PrivilegeModeSet
C:\Users\DELL\AppData\Local\Temp\ccMtHSyM.s:4740   .text.HAL_RTCEx_PrivilegeModeSet:00000030 $d
C:\Users\DELL\AppData\Local\Temp\ccMtHSyM.s:4746   .text.HAL_RTCEx_PrivilegeModeGet:00000000 $t
C:\Users\DELL\AppData\Local\Temp\ccMtHSyM.s:4752   .text.HAL_RTCEx_PrivilegeModeGet:00000000 HAL_RTCEx_PrivilegeModeGet
C:\Users\DELL\AppData\Local\Temp\ccMtHSyM.s:4830   .text.HAL_RTCEx_PrivilegeModeGet:00000044 $d
C:\Users\DELL\AppData\Local\Temp\ccMtHSyM.s:4836   .text.HAL_RTCEx_EnableRemapRtcOut2:00000000 $t
C:\Users\DELL\AppData\Local\Temp\ccMtHSyM.s:4842   .text.HAL_RTCEx_EnableRemapRtcOut2:00000000 HAL_RTCEx_EnableRemapRtcOut2
C:\Users\DELL\AppData\Local\Temp\ccMtHSyM.s:4861   .text.HAL_RTCEx_EnableRemapRtcOut2:0000000c $d
C:\Users\DELL\AppData\Local\Temp\ccMtHSyM.s:4866   .text.HAL_RTCEx_DisableRemapRtcOut2:00000000 $t
C:\Users\DELL\AppData\Local\Temp\ccMtHSyM.s:4872   .text.HAL_RTCEx_DisableRemapRtcOut2:00000000 HAL_RTCEx_DisableRemapRtcOut2
C:\Users\DELL\AppData\Local\Temp\ccMtHSyM.s:4891   .text.HAL_RTCEx_DisableRemapRtcOut2:0000000c $d

UNDEFINED SYMBOLS
RTC_Bcd2ToByte
HAL_GetTick
HAL_RTC_WaitForSynchro
RTC_EnterInitMode
RTC_ExitInitMode
