ARM GAS  C:\Users\DELL\AppData\Local\Temp\ccskFJre.s 			page 1


   1              		.cpu cortex-m33
   2              		.arch armv8-m.main
   3              		.fpu fpv5-sp-d16
   4              		.arch_extension dsp
   5              		.eabi_attribute 27, 1
   6              		.eabi_attribute 28, 1
   7              		.eabi_attribute 20, 1
   8              		.eabi_attribute 21, 1
   9              		.eabi_attribute 23, 3
  10              		.eabi_attribute 24, 1
  11              		.eabi_attribute 25, 1
  12              		.eabi_attribute 26, 1
  13              		.eabi_attribute 30, 1
  14              		.eabi_attribute 34, 1
  15              		.eabi_attribute 18, 4
  16              		.file	"stm32h5xx_hal_pcd.c"
  17              		.text
  18              	.Ltext0:
  19              		.cfi_sections	.debug_frame
  20              		.file 1 "Drivers/STM32H5xx_HAL_Driver/Src/stm32h5xx_hal_pcd.c"
  21              		.section	.text.PCD_GET_EP_RX_CNT,"ax",%progbits
  22              		.align	1
  23              		.syntax unified
  24              		.thumb
  25              		.thumb_func
  27              	PCD_GET_EP_RX_CNT:
  28              	.LVL0:
  29              	.LFB294:
  30              		.file 2 "Drivers/STM32H5xx_HAL_Driver/Inc/stm32h5xx_hal_pcd.h"
   1:Drivers/STM32H5xx_HAL_Driver/Inc/stm32h5xx_hal_pcd.h **** /**
   2:Drivers/STM32H5xx_HAL_Driver/Inc/stm32h5xx_hal_pcd.h ****   ******************************************************************************
   3:Drivers/STM32H5xx_HAL_Driver/Inc/stm32h5xx_hal_pcd.h ****   * @file    stm32h5xx_hal_pcd.h
   4:Drivers/STM32H5xx_HAL_Driver/Inc/stm32h5xx_hal_pcd.h ****   * @author  MCD Application Team
   5:Drivers/STM32H5xx_HAL_Driver/Inc/stm32h5xx_hal_pcd.h ****   * @brief   Header file of PCD HAL module.
   6:Drivers/STM32H5xx_HAL_Driver/Inc/stm32h5xx_hal_pcd.h ****   ******************************************************************************
   7:Drivers/STM32H5xx_HAL_Driver/Inc/stm32h5xx_hal_pcd.h ****   * @attention
   8:Drivers/STM32H5xx_HAL_Driver/Inc/stm32h5xx_hal_pcd.h ****   *
   9:Drivers/STM32H5xx_HAL_Driver/Inc/stm32h5xx_hal_pcd.h ****   * Copyright (c) 2023 STMicroelectronics.
  10:Drivers/STM32H5xx_HAL_Driver/Inc/stm32h5xx_hal_pcd.h ****   * All rights reserved.
  11:Drivers/STM32H5xx_HAL_Driver/Inc/stm32h5xx_hal_pcd.h ****   *
  12:Drivers/STM32H5xx_HAL_Driver/Inc/stm32h5xx_hal_pcd.h ****   * This software is licensed under terms that can be found in the LICENSE file
  13:Drivers/STM32H5xx_HAL_Driver/Inc/stm32h5xx_hal_pcd.h ****   * in the root directory of this software component.
  14:Drivers/STM32H5xx_HAL_Driver/Inc/stm32h5xx_hal_pcd.h ****   * If no LICENSE file comes with this software, it is provided AS-IS.
  15:Drivers/STM32H5xx_HAL_Driver/Inc/stm32h5xx_hal_pcd.h ****   *
  16:Drivers/STM32H5xx_HAL_Driver/Inc/stm32h5xx_hal_pcd.h ****   ******************************************************************************
  17:Drivers/STM32H5xx_HAL_Driver/Inc/stm32h5xx_hal_pcd.h ****   */
  18:Drivers/STM32H5xx_HAL_Driver/Inc/stm32h5xx_hal_pcd.h **** 
  19:Drivers/STM32H5xx_HAL_Driver/Inc/stm32h5xx_hal_pcd.h **** /* Define to prevent recursive inclusion -------------------------------------*/
  20:Drivers/STM32H5xx_HAL_Driver/Inc/stm32h5xx_hal_pcd.h **** #ifndef STM32H5xx_HAL_PCD_H
  21:Drivers/STM32H5xx_HAL_Driver/Inc/stm32h5xx_hal_pcd.h **** #define STM32H5xx_HAL_PCD_H
  22:Drivers/STM32H5xx_HAL_Driver/Inc/stm32h5xx_hal_pcd.h **** 
  23:Drivers/STM32H5xx_HAL_Driver/Inc/stm32h5xx_hal_pcd.h **** #ifdef __cplusplus
  24:Drivers/STM32H5xx_HAL_Driver/Inc/stm32h5xx_hal_pcd.h **** extern "C" {
  25:Drivers/STM32H5xx_HAL_Driver/Inc/stm32h5xx_hal_pcd.h **** #endif
  26:Drivers/STM32H5xx_HAL_Driver/Inc/stm32h5xx_hal_pcd.h **** 
  27:Drivers/STM32H5xx_HAL_Driver/Inc/stm32h5xx_hal_pcd.h **** /* Includes ------------------------------------------------------------------*/
  28:Drivers/STM32H5xx_HAL_Driver/Inc/stm32h5xx_hal_pcd.h **** #include "stm32h5xx_ll_usb.h"
ARM GAS  C:\Users\DELL\AppData\Local\Temp\ccskFJre.s 			page 2


  29:Drivers/STM32H5xx_HAL_Driver/Inc/stm32h5xx_hal_pcd.h **** 
  30:Drivers/STM32H5xx_HAL_Driver/Inc/stm32h5xx_hal_pcd.h **** #if defined (USB_OTG_FS) || defined (USB_OTG_HS) || defined (USB_DRD_FS)
  31:Drivers/STM32H5xx_HAL_Driver/Inc/stm32h5xx_hal_pcd.h **** 
  32:Drivers/STM32H5xx_HAL_Driver/Inc/stm32h5xx_hal_pcd.h **** /** @addtogroup STM32H5xx_HAL_Driver
  33:Drivers/STM32H5xx_HAL_Driver/Inc/stm32h5xx_hal_pcd.h ****   * @{
  34:Drivers/STM32H5xx_HAL_Driver/Inc/stm32h5xx_hal_pcd.h ****   */
  35:Drivers/STM32H5xx_HAL_Driver/Inc/stm32h5xx_hal_pcd.h **** 
  36:Drivers/STM32H5xx_HAL_Driver/Inc/stm32h5xx_hal_pcd.h **** /** @addtogroup PCD
  37:Drivers/STM32H5xx_HAL_Driver/Inc/stm32h5xx_hal_pcd.h ****   * @{
  38:Drivers/STM32H5xx_HAL_Driver/Inc/stm32h5xx_hal_pcd.h ****   */
  39:Drivers/STM32H5xx_HAL_Driver/Inc/stm32h5xx_hal_pcd.h **** 
  40:Drivers/STM32H5xx_HAL_Driver/Inc/stm32h5xx_hal_pcd.h **** /* Exported types ------------------------------------------------------------*/
  41:Drivers/STM32H5xx_HAL_Driver/Inc/stm32h5xx_hal_pcd.h **** /** @defgroup PCD_Exported_Types PCD Exported Types
  42:Drivers/STM32H5xx_HAL_Driver/Inc/stm32h5xx_hal_pcd.h ****   * @{
  43:Drivers/STM32H5xx_HAL_Driver/Inc/stm32h5xx_hal_pcd.h ****   */
  44:Drivers/STM32H5xx_HAL_Driver/Inc/stm32h5xx_hal_pcd.h **** 
  45:Drivers/STM32H5xx_HAL_Driver/Inc/stm32h5xx_hal_pcd.h **** /**
  46:Drivers/STM32H5xx_HAL_Driver/Inc/stm32h5xx_hal_pcd.h ****   * @brief  PCD State structure definition
  47:Drivers/STM32H5xx_HAL_Driver/Inc/stm32h5xx_hal_pcd.h ****   */
  48:Drivers/STM32H5xx_HAL_Driver/Inc/stm32h5xx_hal_pcd.h **** typedef enum
  49:Drivers/STM32H5xx_HAL_Driver/Inc/stm32h5xx_hal_pcd.h **** {
  50:Drivers/STM32H5xx_HAL_Driver/Inc/stm32h5xx_hal_pcd.h ****   HAL_PCD_STATE_RESET   = 0x00,
  51:Drivers/STM32H5xx_HAL_Driver/Inc/stm32h5xx_hal_pcd.h ****   HAL_PCD_STATE_READY   = 0x01,
  52:Drivers/STM32H5xx_HAL_Driver/Inc/stm32h5xx_hal_pcd.h ****   HAL_PCD_STATE_ERROR   = 0x02,
  53:Drivers/STM32H5xx_HAL_Driver/Inc/stm32h5xx_hal_pcd.h ****   HAL_PCD_STATE_BUSY    = 0x03,
  54:Drivers/STM32H5xx_HAL_Driver/Inc/stm32h5xx_hal_pcd.h ****   HAL_PCD_STATE_TIMEOUT = 0x04
  55:Drivers/STM32H5xx_HAL_Driver/Inc/stm32h5xx_hal_pcd.h **** } PCD_StateTypeDef;
  56:Drivers/STM32H5xx_HAL_Driver/Inc/stm32h5xx_hal_pcd.h **** 
  57:Drivers/STM32H5xx_HAL_Driver/Inc/stm32h5xx_hal_pcd.h **** /* Device LPM suspend state */
  58:Drivers/STM32H5xx_HAL_Driver/Inc/stm32h5xx_hal_pcd.h **** typedef enum
  59:Drivers/STM32H5xx_HAL_Driver/Inc/stm32h5xx_hal_pcd.h **** {
  60:Drivers/STM32H5xx_HAL_Driver/Inc/stm32h5xx_hal_pcd.h ****   LPM_L0 = 0x00, /* on */
  61:Drivers/STM32H5xx_HAL_Driver/Inc/stm32h5xx_hal_pcd.h ****   LPM_L1 = 0x01, /* LPM L1 sleep */
  62:Drivers/STM32H5xx_HAL_Driver/Inc/stm32h5xx_hal_pcd.h ****   LPM_L2 = 0x02, /* suspend */
  63:Drivers/STM32H5xx_HAL_Driver/Inc/stm32h5xx_hal_pcd.h ****   LPM_L3 = 0x03, /* off */
  64:Drivers/STM32H5xx_HAL_Driver/Inc/stm32h5xx_hal_pcd.h **** } PCD_LPM_StateTypeDef;
  65:Drivers/STM32H5xx_HAL_Driver/Inc/stm32h5xx_hal_pcd.h **** 
  66:Drivers/STM32H5xx_HAL_Driver/Inc/stm32h5xx_hal_pcd.h **** typedef enum
  67:Drivers/STM32H5xx_HAL_Driver/Inc/stm32h5xx_hal_pcd.h **** {
  68:Drivers/STM32H5xx_HAL_Driver/Inc/stm32h5xx_hal_pcd.h ****   PCD_LPM_L0_ACTIVE = 0x00, /* on */
  69:Drivers/STM32H5xx_HAL_Driver/Inc/stm32h5xx_hal_pcd.h ****   PCD_LPM_L1_ACTIVE = 0x01, /* LPM L1 sleep */
  70:Drivers/STM32H5xx_HAL_Driver/Inc/stm32h5xx_hal_pcd.h **** } PCD_LPM_MsgTypeDef;
  71:Drivers/STM32H5xx_HAL_Driver/Inc/stm32h5xx_hal_pcd.h **** 
  72:Drivers/STM32H5xx_HAL_Driver/Inc/stm32h5xx_hal_pcd.h **** typedef enum
  73:Drivers/STM32H5xx_HAL_Driver/Inc/stm32h5xx_hal_pcd.h **** {
  74:Drivers/STM32H5xx_HAL_Driver/Inc/stm32h5xx_hal_pcd.h ****   PCD_BCD_ERROR                     = 0xFF,
  75:Drivers/STM32H5xx_HAL_Driver/Inc/stm32h5xx_hal_pcd.h ****   PCD_BCD_CONTACT_DETECTION         = 0xFE,
  76:Drivers/STM32H5xx_HAL_Driver/Inc/stm32h5xx_hal_pcd.h ****   PCD_BCD_STD_DOWNSTREAM_PORT       = 0xFD,
  77:Drivers/STM32H5xx_HAL_Driver/Inc/stm32h5xx_hal_pcd.h ****   PCD_BCD_CHARGING_DOWNSTREAM_PORT  = 0xFC,
  78:Drivers/STM32H5xx_HAL_Driver/Inc/stm32h5xx_hal_pcd.h ****   PCD_BCD_DEDICATED_CHARGING_PORT   = 0xFB,
  79:Drivers/STM32H5xx_HAL_Driver/Inc/stm32h5xx_hal_pcd.h ****   PCD_BCD_DISCOVERY_COMPLETED       = 0x00,
  80:Drivers/STM32H5xx_HAL_Driver/Inc/stm32h5xx_hal_pcd.h **** 
  81:Drivers/STM32H5xx_HAL_Driver/Inc/stm32h5xx_hal_pcd.h **** } PCD_BCD_MsgTypeDef;
  82:Drivers/STM32H5xx_HAL_Driver/Inc/stm32h5xx_hal_pcd.h **** 
  83:Drivers/STM32H5xx_HAL_Driver/Inc/stm32h5xx_hal_pcd.h **** #if defined (USB_OTG_FS) || defined (USB_OTG_HS)
  84:Drivers/STM32H5xx_HAL_Driver/Inc/stm32h5xx_hal_pcd.h **** typedef USB_OTG_GlobalTypeDef  PCD_TypeDef;
  85:Drivers/STM32H5xx_HAL_Driver/Inc/stm32h5xx_hal_pcd.h **** typedef USB_OTG_CfgTypeDef     PCD_InitTypeDef;
ARM GAS  C:\Users\DELL\AppData\Local\Temp\ccskFJre.s 			page 3


  86:Drivers/STM32H5xx_HAL_Driver/Inc/stm32h5xx_hal_pcd.h **** typedef USB_OTG_EPTypeDef      PCD_EPTypeDef;
  87:Drivers/STM32H5xx_HAL_Driver/Inc/stm32h5xx_hal_pcd.h **** #endif /* defined (USB_OTG_FS) || defined (USB_OTG_HS) */
  88:Drivers/STM32H5xx_HAL_Driver/Inc/stm32h5xx_hal_pcd.h **** #if defined (USB_DRD_FS)
  89:Drivers/STM32H5xx_HAL_Driver/Inc/stm32h5xx_hal_pcd.h **** typedef USB_DRD_TypeDef        PCD_TypeDef;
  90:Drivers/STM32H5xx_HAL_Driver/Inc/stm32h5xx_hal_pcd.h **** typedef USB_DRD_CfgTypeDef     PCD_InitTypeDef;
  91:Drivers/STM32H5xx_HAL_Driver/Inc/stm32h5xx_hal_pcd.h **** typedef USB_DRD_EPTypeDef      PCD_EPTypeDef;
  92:Drivers/STM32H5xx_HAL_Driver/Inc/stm32h5xx_hal_pcd.h **** #endif /* defined (USB_DRD_FS) */
  93:Drivers/STM32H5xx_HAL_Driver/Inc/stm32h5xx_hal_pcd.h **** 
  94:Drivers/STM32H5xx_HAL_Driver/Inc/stm32h5xx_hal_pcd.h **** /**
  95:Drivers/STM32H5xx_HAL_Driver/Inc/stm32h5xx_hal_pcd.h ****   * @brief  PCD Handle Structure definition
  96:Drivers/STM32H5xx_HAL_Driver/Inc/stm32h5xx_hal_pcd.h ****   */
  97:Drivers/STM32H5xx_HAL_Driver/Inc/stm32h5xx_hal_pcd.h **** #if (USE_HAL_PCD_REGISTER_CALLBACKS == 1U)
  98:Drivers/STM32H5xx_HAL_Driver/Inc/stm32h5xx_hal_pcd.h **** typedef struct __PCD_HandleTypeDef
  99:Drivers/STM32H5xx_HAL_Driver/Inc/stm32h5xx_hal_pcd.h **** #else
 100:Drivers/STM32H5xx_HAL_Driver/Inc/stm32h5xx_hal_pcd.h **** typedef struct
 101:Drivers/STM32H5xx_HAL_Driver/Inc/stm32h5xx_hal_pcd.h **** #endif /* USE_HAL_PCD_REGISTER_CALLBACKS */
 102:Drivers/STM32H5xx_HAL_Driver/Inc/stm32h5xx_hal_pcd.h **** {
 103:Drivers/STM32H5xx_HAL_Driver/Inc/stm32h5xx_hal_pcd.h ****   PCD_TypeDef             *Instance;   /*!< Register base address             */
 104:Drivers/STM32H5xx_HAL_Driver/Inc/stm32h5xx_hal_pcd.h ****   PCD_InitTypeDef         Init;        /*!< PCD required parameters           */
 105:Drivers/STM32H5xx_HAL_Driver/Inc/stm32h5xx_hal_pcd.h ****   __IO uint8_t            USB_Address; /*!< USB Address                       */
 106:Drivers/STM32H5xx_HAL_Driver/Inc/stm32h5xx_hal_pcd.h **** #if defined (USB_OTG_FS) || defined (USB_OTG_HS)
 107:Drivers/STM32H5xx_HAL_Driver/Inc/stm32h5xx_hal_pcd.h ****   PCD_EPTypeDef           IN_ep[16];   /*!< IN endpoint parameters            */
 108:Drivers/STM32H5xx_HAL_Driver/Inc/stm32h5xx_hal_pcd.h ****   PCD_EPTypeDef           OUT_ep[16];  /*!< OUT endpoint parameters           */
 109:Drivers/STM32H5xx_HAL_Driver/Inc/stm32h5xx_hal_pcd.h **** #endif /* defined (USB_OTG_FS) || defined (USB_OTG_HS) */
 110:Drivers/STM32H5xx_HAL_Driver/Inc/stm32h5xx_hal_pcd.h **** #if defined (USB_DRD_FS)
 111:Drivers/STM32H5xx_HAL_Driver/Inc/stm32h5xx_hal_pcd.h ****   PCD_EPTypeDef           IN_ep[8];    /*!< IN endpoint parameters            */
 112:Drivers/STM32H5xx_HAL_Driver/Inc/stm32h5xx_hal_pcd.h ****   PCD_EPTypeDef           OUT_ep[8];   /*!< OUT endpoint parameters           */
 113:Drivers/STM32H5xx_HAL_Driver/Inc/stm32h5xx_hal_pcd.h **** #endif /* defined (USB_DRD_FS) */
 114:Drivers/STM32H5xx_HAL_Driver/Inc/stm32h5xx_hal_pcd.h ****   HAL_LockTypeDef         Lock;        /*!< PCD peripheral status             */
 115:Drivers/STM32H5xx_HAL_Driver/Inc/stm32h5xx_hal_pcd.h ****   __IO PCD_StateTypeDef   State;       /*!< PCD communication state           */
 116:Drivers/STM32H5xx_HAL_Driver/Inc/stm32h5xx_hal_pcd.h ****   __IO  uint32_t          ErrorCode;   /*!< PCD Error code                    */
 117:Drivers/STM32H5xx_HAL_Driver/Inc/stm32h5xx_hal_pcd.h ****   uint32_t                Setup[12];   /*!< Setup packet buffer               */
 118:Drivers/STM32H5xx_HAL_Driver/Inc/stm32h5xx_hal_pcd.h ****   PCD_LPM_StateTypeDef    LPM_State;   /*!< LPM State                         */
 119:Drivers/STM32H5xx_HAL_Driver/Inc/stm32h5xx_hal_pcd.h ****   uint32_t                BESL;
 120:Drivers/STM32H5xx_HAL_Driver/Inc/stm32h5xx_hal_pcd.h ****   uint32_t                FrameNumber; /*!< Store Current Frame number        */
 121:Drivers/STM32H5xx_HAL_Driver/Inc/stm32h5xx_hal_pcd.h **** 
 122:Drivers/STM32H5xx_HAL_Driver/Inc/stm32h5xx_hal_pcd.h **** 
 123:Drivers/STM32H5xx_HAL_Driver/Inc/stm32h5xx_hal_pcd.h ****   uint32_t lpm_active;                 /*!< Enable or disable the Link Power Management .
 124:Drivers/STM32H5xx_HAL_Driver/Inc/stm32h5xx_hal_pcd.h ****                                        This parameter can be set to ENABLE or DISABLE        */
 125:Drivers/STM32H5xx_HAL_Driver/Inc/stm32h5xx_hal_pcd.h **** 
 126:Drivers/STM32H5xx_HAL_Driver/Inc/stm32h5xx_hal_pcd.h ****   uint32_t battery_charging_active;    /*!< Enable or disable Battery charging.
 127:Drivers/STM32H5xx_HAL_Driver/Inc/stm32h5xx_hal_pcd.h ****                                        This parameter can be set to ENABLE or DISABLE        */
 128:Drivers/STM32H5xx_HAL_Driver/Inc/stm32h5xx_hal_pcd.h ****   void                    *pData;      /*!< Pointer to upper stack Handler */
 129:Drivers/STM32H5xx_HAL_Driver/Inc/stm32h5xx_hal_pcd.h **** 
 130:Drivers/STM32H5xx_HAL_Driver/Inc/stm32h5xx_hal_pcd.h **** #if (USE_HAL_PCD_REGISTER_CALLBACKS == 1U)
 131:Drivers/STM32H5xx_HAL_Driver/Inc/stm32h5xx_hal_pcd.h ****   void (* SOFCallback)(struct __PCD_HandleTypeDef *hpcd);                              /*!< USB OTG
 132:Drivers/STM32H5xx_HAL_Driver/Inc/stm32h5xx_hal_pcd.h ****   void (* SetupStageCallback)(struct __PCD_HandleTypeDef *hpcd);                       /*!< USB OTG
 133:Drivers/STM32H5xx_HAL_Driver/Inc/stm32h5xx_hal_pcd.h ****   void (* ResetCallback)(struct __PCD_HandleTypeDef *hpcd);                            /*!< USB OTG
 134:Drivers/STM32H5xx_HAL_Driver/Inc/stm32h5xx_hal_pcd.h ****   void (* SuspendCallback)(struct __PCD_HandleTypeDef *hpcd);                          /*!< USB OTG
 135:Drivers/STM32H5xx_HAL_Driver/Inc/stm32h5xx_hal_pcd.h ****   void (* ResumeCallback)(struct __PCD_HandleTypeDef *hpcd);                           /*!< USB OTG
 136:Drivers/STM32H5xx_HAL_Driver/Inc/stm32h5xx_hal_pcd.h ****   void (* ConnectCallback)(struct __PCD_HandleTypeDef *hpcd);                          /*!< USB OTG
 137:Drivers/STM32H5xx_HAL_Driver/Inc/stm32h5xx_hal_pcd.h ****   void (* DisconnectCallback)(struct __PCD_HandleTypeDef *hpcd);                       /*!< USB OTG
 138:Drivers/STM32H5xx_HAL_Driver/Inc/stm32h5xx_hal_pcd.h **** 
 139:Drivers/STM32H5xx_HAL_Driver/Inc/stm32h5xx_hal_pcd.h ****   void (* DataOutStageCallback)(struct __PCD_HandleTypeDef *hpcd, uint8_t epnum);      /*!< USB OTG
 140:Drivers/STM32H5xx_HAL_Driver/Inc/stm32h5xx_hal_pcd.h ****   void (* DataInStageCallback)(struct __PCD_HandleTypeDef *hpcd, uint8_t epnum);       /*!< USB OTG
 141:Drivers/STM32H5xx_HAL_Driver/Inc/stm32h5xx_hal_pcd.h ****   void (* ISOOUTIncompleteCallback)(struct __PCD_HandleTypeDef *hpcd, uint8_t epnum);  /*!< USB OTG
 142:Drivers/STM32H5xx_HAL_Driver/Inc/stm32h5xx_hal_pcd.h ****   void (* ISOINIncompleteCallback)(struct __PCD_HandleTypeDef *hpcd, uint8_t epnum);   /*!< USB OTG
ARM GAS  C:\Users\DELL\AppData\Local\Temp\ccskFJre.s 			page 4


 143:Drivers/STM32H5xx_HAL_Driver/Inc/stm32h5xx_hal_pcd.h ****   void (* BCDCallback)(struct __PCD_HandleTypeDef *hpcd, PCD_BCD_MsgTypeDef msg);      /*!< USB OTG
 144:Drivers/STM32H5xx_HAL_Driver/Inc/stm32h5xx_hal_pcd.h ****   void (* LPMCallback)(struct __PCD_HandleTypeDef *hpcd, PCD_LPM_MsgTypeDef msg);      /*!< USB OTG
 145:Drivers/STM32H5xx_HAL_Driver/Inc/stm32h5xx_hal_pcd.h **** 
 146:Drivers/STM32H5xx_HAL_Driver/Inc/stm32h5xx_hal_pcd.h ****   void (* MspInitCallback)(struct __PCD_HandleTypeDef *hpcd);                          /*!< USB OTG
 147:Drivers/STM32H5xx_HAL_Driver/Inc/stm32h5xx_hal_pcd.h ****   void (* MspDeInitCallback)(struct __PCD_HandleTypeDef *hpcd);                        /*!< USB OTG
 148:Drivers/STM32H5xx_HAL_Driver/Inc/stm32h5xx_hal_pcd.h **** #endif /* USE_HAL_PCD_REGISTER_CALLBACKS */
 149:Drivers/STM32H5xx_HAL_Driver/Inc/stm32h5xx_hal_pcd.h **** } PCD_HandleTypeDef;
 150:Drivers/STM32H5xx_HAL_Driver/Inc/stm32h5xx_hal_pcd.h **** 
 151:Drivers/STM32H5xx_HAL_Driver/Inc/stm32h5xx_hal_pcd.h **** /**
 152:Drivers/STM32H5xx_HAL_Driver/Inc/stm32h5xx_hal_pcd.h ****   * @}
 153:Drivers/STM32H5xx_HAL_Driver/Inc/stm32h5xx_hal_pcd.h ****   */
 154:Drivers/STM32H5xx_HAL_Driver/Inc/stm32h5xx_hal_pcd.h **** 
 155:Drivers/STM32H5xx_HAL_Driver/Inc/stm32h5xx_hal_pcd.h **** /* Include PCD HAL Extended module */
 156:Drivers/STM32H5xx_HAL_Driver/Inc/stm32h5xx_hal_pcd.h **** #include "stm32h5xx_hal_pcd_ex.h"
 157:Drivers/STM32H5xx_HAL_Driver/Inc/stm32h5xx_hal_pcd.h **** 
 158:Drivers/STM32H5xx_HAL_Driver/Inc/stm32h5xx_hal_pcd.h **** /* Exported constants --------------------------------------------------------*/
 159:Drivers/STM32H5xx_HAL_Driver/Inc/stm32h5xx_hal_pcd.h **** /** @defgroup PCD_Exported_Constants PCD Exported Constants
 160:Drivers/STM32H5xx_HAL_Driver/Inc/stm32h5xx_hal_pcd.h ****   * @{
 161:Drivers/STM32H5xx_HAL_Driver/Inc/stm32h5xx_hal_pcd.h ****   */
 162:Drivers/STM32H5xx_HAL_Driver/Inc/stm32h5xx_hal_pcd.h **** 
 163:Drivers/STM32H5xx_HAL_Driver/Inc/stm32h5xx_hal_pcd.h **** /** @defgroup PCD_Speed PCD Speed
 164:Drivers/STM32H5xx_HAL_Driver/Inc/stm32h5xx_hal_pcd.h ****   * @{
 165:Drivers/STM32H5xx_HAL_Driver/Inc/stm32h5xx_hal_pcd.h ****   */
 166:Drivers/STM32H5xx_HAL_Driver/Inc/stm32h5xx_hal_pcd.h **** #define PCD_SPEED_HIGH               USBD_HS_SPEED
 167:Drivers/STM32H5xx_HAL_Driver/Inc/stm32h5xx_hal_pcd.h **** #define PCD_SPEED_HIGH_IN_FULL       USBD_HSINFS_SPEED
 168:Drivers/STM32H5xx_HAL_Driver/Inc/stm32h5xx_hal_pcd.h **** #define PCD_SPEED_FULL               USBD_FS_SPEED
 169:Drivers/STM32H5xx_HAL_Driver/Inc/stm32h5xx_hal_pcd.h **** /**
 170:Drivers/STM32H5xx_HAL_Driver/Inc/stm32h5xx_hal_pcd.h ****   * @}
 171:Drivers/STM32H5xx_HAL_Driver/Inc/stm32h5xx_hal_pcd.h ****   */
 172:Drivers/STM32H5xx_HAL_Driver/Inc/stm32h5xx_hal_pcd.h **** 
 173:Drivers/STM32H5xx_HAL_Driver/Inc/stm32h5xx_hal_pcd.h **** /** @defgroup PCD_PHY_Module PCD PHY Module
 174:Drivers/STM32H5xx_HAL_Driver/Inc/stm32h5xx_hal_pcd.h ****   * @{
 175:Drivers/STM32H5xx_HAL_Driver/Inc/stm32h5xx_hal_pcd.h ****   */
 176:Drivers/STM32H5xx_HAL_Driver/Inc/stm32h5xx_hal_pcd.h **** #define PCD_PHY_ULPI                 1U
 177:Drivers/STM32H5xx_HAL_Driver/Inc/stm32h5xx_hal_pcd.h **** #define PCD_PHY_EMBEDDED             2U
 178:Drivers/STM32H5xx_HAL_Driver/Inc/stm32h5xx_hal_pcd.h **** #define PCD_PHY_UTMI                 3U
 179:Drivers/STM32H5xx_HAL_Driver/Inc/stm32h5xx_hal_pcd.h **** /**
 180:Drivers/STM32H5xx_HAL_Driver/Inc/stm32h5xx_hal_pcd.h ****   * @}
 181:Drivers/STM32H5xx_HAL_Driver/Inc/stm32h5xx_hal_pcd.h ****   */
 182:Drivers/STM32H5xx_HAL_Driver/Inc/stm32h5xx_hal_pcd.h **** 
 183:Drivers/STM32H5xx_HAL_Driver/Inc/stm32h5xx_hal_pcd.h **** /** @defgroup PCD_Error_Code_definition PCD Error Code definition
 184:Drivers/STM32H5xx_HAL_Driver/Inc/stm32h5xx_hal_pcd.h ****   * @brief  PCD Error Code definition
 185:Drivers/STM32H5xx_HAL_Driver/Inc/stm32h5xx_hal_pcd.h ****   * @{
 186:Drivers/STM32H5xx_HAL_Driver/Inc/stm32h5xx_hal_pcd.h ****   */
 187:Drivers/STM32H5xx_HAL_Driver/Inc/stm32h5xx_hal_pcd.h **** #if (USE_HAL_PCD_REGISTER_CALLBACKS == 1U)
 188:Drivers/STM32H5xx_HAL_Driver/Inc/stm32h5xx_hal_pcd.h **** #define  HAL_PCD_ERROR_INVALID_CALLBACK                        (0x00000010U)    /*!< Invalid Callba
 189:Drivers/STM32H5xx_HAL_Driver/Inc/stm32h5xx_hal_pcd.h **** #endif /* USE_HAL_PCD_REGISTER_CALLBACKS */
 190:Drivers/STM32H5xx_HAL_Driver/Inc/stm32h5xx_hal_pcd.h **** 
 191:Drivers/STM32H5xx_HAL_Driver/Inc/stm32h5xx_hal_pcd.h **** /**
 192:Drivers/STM32H5xx_HAL_Driver/Inc/stm32h5xx_hal_pcd.h ****   * @}
 193:Drivers/STM32H5xx_HAL_Driver/Inc/stm32h5xx_hal_pcd.h ****   */
 194:Drivers/STM32H5xx_HAL_Driver/Inc/stm32h5xx_hal_pcd.h **** 
 195:Drivers/STM32H5xx_HAL_Driver/Inc/stm32h5xx_hal_pcd.h **** /**
 196:Drivers/STM32H5xx_HAL_Driver/Inc/stm32h5xx_hal_pcd.h ****   * @}
 197:Drivers/STM32H5xx_HAL_Driver/Inc/stm32h5xx_hal_pcd.h ****   */
 198:Drivers/STM32H5xx_HAL_Driver/Inc/stm32h5xx_hal_pcd.h **** 
 199:Drivers/STM32H5xx_HAL_Driver/Inc/stm32h5xx_hal_pcd.h **** /* Exported macros -----------------------------------------------------------*/
ARM GAS  C:\Users\DELL\AppData\Local\Temp\ccskFJre.s 			page 5


 200:Drivers/STM32H5xx_HAL_Driver/Inc/stm32h5xx_hal_pcd.h **** /** @defgroup PCD_Exported_Macros PCD Exported Macros
 201:Drivers/STM32H5xx_HAL_Driver/Inc/stm32h5xx_hal_pcd.h ****   *  @brief macros to handle interrupts and specific clock configurations
 202:Drivers/STM32H5xx_HAL_Driver/Inc/stm32h5xx_hal_pcd.h ****   * @{
 203:Drivers/STM32H5xx_HAL_Driver/Inc/stm32h5xx_hal_pcd.h ****   */
 204:Drivers/STM32H5xx_HAL_Driver/Inc/stm32h5xx_hal_pcd.h **** #define __HAL_PCD_ENABLE(__HANDLE__)                       (void)USB_EnableGlobalInt ((__HANDLE__)-
 205:Drivers/STM32H5xx_HAL_Driver/Inc/stm32h5xx_hal_pcd.h **** #define __HAL_PCD_DISABLE(__HANDLE__)                      (void)USB_DisableGlobalInt ((__HANDLE__)
 206:Drivers/STM32H5xx_HAL_Driver/Inc/stm32h5xx_hal_pcd.h **** 
 207:Drivers/STM32H5xx_HAL_Driver/Inc/stm32h5xx_hal_pcd.h **** #define __HAL_PCD_GET_FLAG(__HANDLE__, __INTERRUPT__) \
 208:Drivers/STM32H5xx_HAL_Driver/Inc/stm32h5xx_hal_pcd.h ****   ((USB_ReadInterrupts((__HANDLE__)->Instance) & (__INTERRUPT__)) == (__INTERRUPT__))
 209:Drivers/STM32H5xx_HAL_Driver/Inc/stm32h5xx_hal_pcd.h **** 
 210:Drivers/STM32H5xx_HAL_Driver/Inc/stm32h5xx_hal_pcd.h **** #if defined (USB_OTG_FS) || defined (USB_OTG_HS)
 211:Drivers/STM32H5xx_HAL_Driver/Inc/stm32h5xx_hal_pcd.h **** #define __HAL_PCD_CLEAR_FLAG(__HANDLE__, __INTERRUPT__)    (((__HANDLE__)->Instance->GINTSTS) &= (_
 212:Drivers/STM32H5xx_HAL_Driver/Inc/stm32h5xx_hal_pcd.h **** #define __HAL_PCD_IS_INVALID_INTERRUPT(__HANDLE__)         (USB_ReadInterrupts((__HANDLE__)->Instan
 213:Drivers/STM32H5xx_HAL_Driver/Inc/stm32h5xx_hal_pcd.h **** 
 214:Drivers/STM32H5xx_HAL_Driver/Inc/stm32h5xx_hal_pcd.h **** #define __HAL_PCD_UNGATE_PHYCLOCK(__HANDLE__) \
 215:Drivers/STM32H5xx_HAL_Driver/Inc/stm32h5xx_hal_pcd.h ****   *(__IO uint32_t *)((uint32_t)((__HANDLE__)->Instance) + USB_OTG_PCGCCTL_BASE) &= ~(USB_OTG_PCGCCT
 216:Drivers/STM32H5xx_HAL_Driver/Inc/stm32h5xx_hal_pcd.h **** 
 217:Drivers/STM32H5xx_HAL_Driver/Inc/stm32h5xx_hal_pcd.h **** #define __HAL_PCD_GATE_PHYCLOCK(__HANDLE__) \
 218:Drivers/STM32H5xx_HAL_Driver/Inc/stm32h5xx_hal_pcd.h ****   *(__IO uint32_t *)((uint32_t)((__HANDLE__)->Instance) + USB_OTG_PCGCCTL_BASE) |= USB_OTG_PCGCCTL_
 219:Drivers/STM32H5xx_HAL_Driver/Inc/stm32h5xx_hal_pcd.h **** 
 220:Drivers/STM32H5xx_HAL_Driver/Inc/stm32h5xx_hal_pcd.h **** #define __HAL_PCD_IS_PHY_SUSPENDED(__HANDLE__) \
 221:Drivers/STM32H5xx_HAL_Driver/Inc/stm32h5xx_hal_pcd.h ****   ((*(__IO uint32_t *)((uint32_t)((__HANDLE__)->Instance) + USB_OTG_PCGCCTL_BASE)) & 0x10U)
 222:Drivers/STM32H5xx_HAL_Driver/Inc/stm32h5xx_hal_pcd.h **** 
 223:Drivers/STM32H5xx_HAL_Driver/Inc/stm32h5xx_hal_pcd.h **** #endif /* defined (USB_OTG_FS) || defined (USB_OTG_HS) */
 224:Drivers/STM32H5xx_HAL_Driver/Inc/stm32h5xx_hal_pcd.h **** 
 225:Drivers/STM32H5xx_HAL_Driver/Inc/stm32h5xx_hal_pcd.h **** #if defined (USB_DRD_FS)
 226:Drivers/STM32H5xx_HAL_Driver/Inc/stm32h5xx_hal_pcd.h **** #define __HAL_PCD_CLEAR_FLAG(__HANDLE__, __INTERRUPT__)           (((__HANDLE__)->Instance->ISTR)\
 227:Drivers/STM32H5xx_HAL_Driver/Inc/stm32h5xx_hal_pcd.h ****                                                                    &= (uint16_t)(~(__INTERRUPT__)))
 228:Drivers/STM32H5xx_HAL_Driver/Inc/stm32h5xx_hal_pcd.h **** #endif /* defined (USB_DRD_FS) */
 229:Drivers/STM32H5xx_HAL_Driver/Inc/stm32h5xx_hal_pcd.h **** 
 230:Drivers/STM32H5xx_HAL_Driver/Inc/stm32h5xx_hal_pcd.h **** /**
 231:Drivers/STM32H5xx_HAL_Driver/Inc/stm32h5xx_hal_pcd.h ****   * @}
 232:Drivers/STM32H5xx_HAL_Driver/Inc/stm32h5xx_hal_pcd.h ****   */
 233:Drivers/STM32H5xx_HAL_Driver/Inc/stm32h5xx_hal_pcd.h **** 
 234:Drivers/STM32H5xx_HAL_Driver/Inc/stm32h5xx_hal_pcd.h **** /* Exported functions --------------------------------------------------------*/
 235:Drivers/STM32H5xx_HAL_Driver/Inc/stm32h5xx_hal_pcd.h **** /** @addtogroup PCD_Exported_Functions PCD Exported Functions
 236:Drivers/STM32H5xx_HAL_Driver/Inc/stm32h5xx_hal_pcd.h ****   * @{
 237:Drivers/STM32H5xx_HAL_Driver/Inc/stm32h5xx_hal_pcd.h ****   */
 238:Drivers/STM32H5xx_HAL_Driver/Inc/stm32h5xx_hal_pcd.h **** 
 239:Drivers/STM32H5xx_HAL_Driver/Inc/stm32h5xx_hal_pcd.h **** /* Initialization/de-initialization functions  ********************************/
 240:Drivers/STM32H5xx_HAL_Driver/Inc/stm32h5xx_hal_pcd.h **** /** @addtogroup PCD_Exported_Functions_Group1 Initialization and de-initialization functions
 241:Drivers/STM32H5xx_HAL_Driver/Inc/stm32h5xx_hal_pcd.h ****   * @{
 242:Drivers/STM32H5xx_HAL_Driver/Inc/stm32h5xx_hal_pcd.h ****   */
 243:Drivers/STM32H5xx_HAL_Driver/Inc/stm32h5xx_hal_pcd.h **** HAL_StatusTypeDef HAL_PCD_Init(PCD_HandleTypeDef *hpcd);
 244:Drivers/STM32H5xx_HAL_Driver/Inc/stm32h5xx_hal_pcd.h **** HAL_StatusTypeDef HAL_PCD_DeInit(PCD_HandleTypeDef *hpcd);
 245:Drivers/STM32H5xx_HAL_Driver/Inc/stm32h5xx_hal_pcd.h **** void HAL_PCD_MspInit(PCD_HandleTypeDef *hpcd);
 246:Drivers/STM32H5xx_HAL_Driver/Inc/stm32h5xx_hal_pcd.h **** void HAL_PCD_MspDeInit(PCD_HandleTypeDef *hpcd);
 247:Drivers/STM32H5xx_HAL_Driver/Inc/stm32h5xx_hal_pcd.h **** 
 248:Drivers/STM32H5xx_HAL_Driver/Inc/stm32h5xx_hal_pcd.h **** #if (USE_HAL_PCD_REGISTER_CALLBACKS == 1U)
 249:Drivers/STM32H5xx_HAL_Driver/Inc/stm32h5xx_hal_pcd.h **** /** @defgroup HAL_PCD_Callback_ID_enumeration_definition HAL USB OTG PCD Callback ID enumeration de
 250:Drivers/STM32H5xx_HAL_Driver/Inc/stm32h5xx_hal_pcd.h ****   * @brief  HAL USB OTG PCD Callback ID enumeration definition
 251:Drivers/STM32H5xx_HAL_Driver/Inc/stm32h5xx_hal_pcd.h ****   * @{
 252:Drivers/STM32H5xx_HAL_Driver/Inc/stm32h5xx_hal_pcd.h ****   */
 253:Drivers/STM32H5xx_HAL_Driver/Inc/stm32h5xx_hal_pcd.h **** typedef enum
 254:Drivers/STM32H5xx_HAL_Driver/Inc/stm32h5xx_hal_pcd.h **** {
 255:Drivers/STM32H5xx_HAL_Driver/Inc/stm32h5xx_hal_pcd.h ****   HAL_PCD_SOF_CB_ID          = 0x01,      /*!< USB PCD SOF callback ID          */
 256:Drivers/STM32H5xx_HAL_Driver/Inc/stm32h5xx_hal_pcd.h ****   HAL_PCD_SETUPSTAGE_CB_ID   = 0x02,      /*!< USB PCD Setup Stage callback ID  */
ARM GAS  C:\Users\DELL\AppData\Local\Temp\ccskFJre.s 			page 6


 257:Drivers/STM32H5xx_HAL_Driver/Inc/stm32h5xx_hal_pcd.h ****   HAL_PCD_RESET_CB_ID        = 0x03,      /*!< USB PCD Reset callback ID        */
 258:Drivers/STM32H5xx_HAL_Driver/Inc/stm32h5xx_hal_pcd.h ****   HAL_PCD_SUSPEND_CB_ID      = 0x04,      /*!< USB PCD Suspend callback ID      */
 259:Drivers/STM32H5xx_HAL_Driver/Inc/stm32h5xx_hal_pcd.h ****   HAL_PCD_RESUME_CB_ID       = 0x05,      /*!< USB PCD Resume callback ID       */
 260:Drivers/STM32H5xx_HAL_Driver/Inc/stm32h5xx_hal_pcd.h ****   HAL_PCD_CONNECT_CB_ID      = 0x06,      /*!< USB PCD Connect callback ID      */
 261:Drivers/STM32H5xx_HAL_Driver/Inc/stm32h5xx_hal_pcd.h ****   HAL_PCD_DISCONNECT_CB_ID   = 0x07,      /*!< USB PCD Disconnect callback ID   */
 262:Drivers/STM32H5xx_HAL_Driver/Inc/stm32h5xx_hal_pcd.h **** 
 263:Drivers/STM32H5xx_HAL_Driver/Inc/stm32h5xx_hal_pcd.h ****   HAL_PCD_MSPINIT_CB_ID      = 0x08,      /*!< USB PCD MspInit callback ID      */
 264:Drivers/STM32H5xx_HAL_Driver/Inc/stm32h5xx_hal_pcd.h ****   HAL_PCD_MSPDEINIT_CB_ID    = 0x09       /*!< USB PCD MspDeInit callback ID    */
 265:Drivers/STM32H5xx_HAL_Driver/Inc/stm32h5xx_hal_pcd.h **** 
 266:Drivers/STM32H5xx_HAL_Driver/Inc/stm32h5xx_hal_pcd.h **** } HAL_PCD_CallbackIDTypeDef;
 267:Drivers/STM32H5xx_HAL_Driver/Inc/stm32h5xx_hal_pcd.h **** /**
 268:Drivers/STM32H5xx_HAL_Driver/Inc/stm32h5xx_hal_pcd.h ****   * @}
 269:Drivers/STM32H5xx_HAL_Driver/Inc/stm32h5xx_hal_pcd.h ****   */
 270:Drivers/STM32H5xx_HAL_Driver/Inc/stm32h5xx_hal_pcd.h **** 
 271:Drivers/STM32H5xx_HAL_Driver/Inc/stm32h5xx_hal_pcd.h **** /** @defgroup HAL_PCD_Callback_pointer_definition HAL USB OTG PCD Callback pointer definition
 272:Drivers/STM32H5xx_HAL_Driver/Inc/stm32h5xx_hal_pcd.h ****   * @brief  HAL USB OTG PCD Callback pointer definition
 273:Drivers/STM32H5xx_HAL_Driver/Inc/stm32h5xx_hal_pcd.h ****   * @{
 274:Drivers/STM32H5xx_HAL_Driver/Inc/stm32h5xx_hal_pcd.h ****   */
 275:Drivers/STM32H5xx_HAL_Driver/Inc/stm32h5xx_hal_pcd.h **** 
 276:Drivers/STM32H5xx_HAL_Driver/Inc/stm32h5xx_hal_pcd.h **** typedef void (*pPCD_CallbackTypeDef)(PCD_HandleTypeDef *hpcd);                                   /*
 277:Drivers/STM32H5xx_HAL_Driver/Inc/stm32h5xx_hal_pcd.h **** typedef void (*pPCD_DataOutStageCallbackTypeDef)(PCD_HandleTypeDef *hpcd, uint8_t epnum);        /*
 278:Drivers/STM32H5xx_HAL_Driver/Inc/stm32h5xx_hal_pcd.h **** typedef void (*pPCD_DataInStageCallbackTypeDef)(PCD_HandleTypeDef *hpcd, uint8_t epnum);         /*
 279:Drivers/STM32H5xx_HAL_Driver/Inc/stm32h5xx_hal_pcd.h **** typedef void (*pPCD_IsoOutIncpltCallbackTypeDef)(PCD_HandleTypeDef *hpcd, uint8_t epnum);        /*
 280:Drivers/STM32H5xx_HAL_Driver/Inc/stm32h5xx_hal_pcd.h **** typedef void (*pPCD_IsoInIncpltCallbackTypeDef)(PCD_HandleTypeDef *hpcd, uint8_t epnum);         /*
 281:Drivers/STM32H5xx_HAL_Driver/Inc/stm32h5xx_hal_pcd.h **** typedef void (*pPCD_LpmCallbackTypeDef)(PCD_HandleTypeDef *hpcd, PCD_LPM_MsgTypeDef msg);        /*
 282:Drivers/STM32H5xx_HAL_Driver/Inc/stm32h5xx_hal_pcd.h **** typedef void (*pPCD_BcdCallbackTypeDef)(PCD_HandleTypeDef *hpcd, PCD_BCD_MsgTypeDef msg);        /*
 283:Drivers/STM32H5xx_HAL_Driver/Inc/stm32h5xx_hal_pcd.h **** 
 284:Drivers/STM32H5xx_HAL_Driver/Inc/stm32h5xx_hal_pcd.h **** /**
 285:Drivers/STM32H5xx_HAL_Driver/Inc/stm32h5xx_hal_pcd.h ****   * @}
 286:Drivers/STM32H5xx_HAL_Driver/Inc/stm32h5xx_hal_pcd.h ****   */
 287:Drivers/STM32H5xx_HAL_Driver/Inc/stm32h5xx_hal_pcd.h **** 
 288:Drivers/STM32H5xx_HAL_Driver/Inc/stm32h5xx_hal_pcd.h **** HAL_StatusTypeDef HAL_PCD_RegisterCallback(PCD_HandleTypeDef *hpcd, HAL_PCD_CallbackIDTypeDef Callb
 289:Drivers/STM32H5xx_HAL_Driver/Inc/stm32h5xx_hal_pcd.h ****                                            pPCD_CallbackTypeDef pCallback);
 290:Drivers/STM32H5xx_HAL_Driver/Inc/stm32h5xx_hal_pcd.h **** 
 291:Drivers/STM32H5xx_HAL_Driver/Inc/stm32h5xx_hal_pcd.h **** HAL_StatusTypeDef HAL_PCD_UnRegisterCallback(PCD_HandleTypeDef *hpcd, HAL_PCD_CallbackIDTypeDef Cal
 292:Drivers/STM32H5xx_HAL_Driver/Inc/stm32h5xx_hal_pcd.h **** 
 293:Drivers/STM32H5xx_HAL_Driver/Inc/stm32h5xx_hal_pcd.h **** HAL_StatusTypeDef HAL_PCD_RegisterDataOutStageCallback(PCD_HandleTypeDef *hpcd,
 294:Drivers/STM32H5xx_HAL_Driver/Inc/stm32h5xx_hal_pcd.h ****                                                        pPCD_DataOutStageCallbackTypeDef pCallback);
 295:Drivers/STM32H5xx_HAL_Driver/Inc/stm32h5xx_hal_pcd.h **** 
 296:Drivers/STM32H5xx_HAL_Driver/Inc/stm32h5xx_hal_pcd.h **** HAL_StatusTypeDef HAL_PCD_UnRegisterDataOutStageCallback(PCD_HandleTypeDef *hpcd);
 297:Drivers/STM32H5xx_HAL_Driver/Inc/stm32h5xx_hal_pcd.h **** 
 298:Drivers/STM32H5xx_HAL_Driver/Inc/stm32h5xx_hal_pcd.h **** HAL_StatusTypeDef HAL_PCD_RegisterDataInStageCallback(PCD_HandleTypeDef *hpcd,
 299:Drivers/STM32H5xx_HAL_Driver/Inc/stm32h5xx_hal_pcd.h ****                                                       pPCD_DataInStageCallbackTypeDef pCallback);
 300:Drivers/STM32H5xx_HAL_Driver/Inc/stm32h5xx_hal_pcd.h **** 
 301:Drivers/STM32H5xx_HAL_Driver/Inc/stm32h5xx_hal_pcd.h **** HAL_StatusTypeDef HAL_PCD_UnRegisterDataInStageCallback(PCD_HandleTypeDef *hpcd);
 302:Drivers/STM32H5xx_HAL_Driver/Inc/stm32h5xx_hal_pcd.h **** 
 303:Drivers/STM32H5xx_HAL_Driver/Inc/stm32h5xx_hal_pcd.h **** HAL_StatusTypeDef HAL_PCD_RegisterIsoOutIncpltCallback(PCD_HandleTypeDef *hpcd,
 304:Drivers/STM32H5xx_HAL_Driver/Inc/stm32h5xx_hal_pcd.h ****                                                        pPCD_IsoOutIncpltCallbackTypeDef pCallback);
 305:Drivers/STM32H5xx_HAL_Driver/Inc/stm32h5xx_hal_pcd.h **** 
 306:Drivers/STM32H5xx_HAL_Driver/Inc/stm32h5xx_hal_pcd.h **** HAL_StatusTypeDef HAL_PCD_UnRegisterIsoOutIncpltCallback(PCD_HandleTypeDef *hpcd);
 307:Drivers/STM32H5xx_HAL_Driver/Inc/stm32h5xx_hal_pcd.h **** 
 308:Drivers/STM32H5xx_HAL_Driver/Inc/stm32h5xx_hal_pcd.h **** HAL_StatusTypeDef HAL_PCD_RegisterIsoInIncpltCallback(PCD_HandleTypeDef *hpcd,
 309:Drivers/STM32H5xx_HAL_Driver/Inc/stm32h5xx_hal_pcd.h ****                                                       pPCD_IsoInIncpltCallbackTypeDef pCallback);
 310:Drivers/STM32H5xx_HAL_Driver/Inc/stm32h5xx_hal_pcd.h **** 
 311:Drivers/STM32H5xx_HAL_Driver/Inc/stm32h5xx_hal_pcd.h **** HAL_StatusTypeDef HAL_PCD_UnRegisterIsoInIncpltCallback(PCD_HandleTypeDef *hpcd);
 312:Drivers/STM32H5xx_HAL_Driver/Inc/stm32h5xx_hal_pcd.h **** 
 313:Drivers/STM32H5xx_HAL_Driver/Inc/stm32h5xx_hal_pcd.h **** HAL_StatusTypeDef HAL_PCD_RegisterBcdCallback(PCD_HandleTypeDef *hpcd, pPCD_BcdCallbackTypeDef pCal
ARM GAS  C:\Users\DELL\AppData\Local\Temp\ccskFJre.s 			page 7


 314:Drivers/STM32H5xx_HAL_Driver/Inc/stm32h5xx_hal_pcd.h **** HAL_StatusTypeDef HAL_PCD_UnRegisterBcdCallback(PCD_HandleTypeDef *hpcd);
 315:Drivers/STM32H5xx_HAL_Driver/Inc/stm32h5xx_hal_pcd.h **** 
 316:Drivers/STM32H5xx_HAL_Driver/Inc/stm32h5xx_hal_pcd.h **** HAL_StatusTypeDef HAL_PCD_RegisterLpmCallback(PCD_HandleTypeDef *hpcd, pPCD_LpmCallbackTypeDef pCal
 317:Drivers/STM32H5xx_HAL_Driver/Inc/stm32h5xx_hal_pcd.h **** HAL_StatusTypeDef HAL_PCD_UnRegisterLpmCallback(PCD_HandleTypeDef *hpcd);
 318:Drivers/STM32H5xx_HAL_Driver/Inc/stm32h5xx_hal_pcd.h **** #endif /* USE_HAL_PCD_REGISTER_CALLBACKS */
 319:Drivers/STM32H5xx_HAL_Driver/Inc/stm32h5xx_hal_pcd.h **** /**
 320:Drivers/STM32H5xx_HAL_Driver/Inc/stm32h5xx_hal_pcd.h ****   * @}
 321:Drivers/STM32H5xx_HAL_Driver/Inc/stm32h5xx_hal_pcd.h ****   */
 322:Drivers/STM32H5xx_HAL_Driver/Inc/stm32h5xx_hal_pcd.h **** 
 323:Drivers/STM32H5xx_HAL_Driver/Inc/stm32h5xx_hal_pcd.h **** /* I/O operation functions  ***************************************************/
 324:Drivers/STM32H5xx_HAL_Driver/Inc/stm32h5xx_hal_pcd.h **** /* Non-Blocking mode: Interrupt */
 325:Drivers/STM32H5xx_HAL_Driver/Inc/stm32h5xx_hal_pcd.h **** /** @addtogroup PCD_Exported_Functions_Group2 Input and Output operation functions
 326:Drivers/STM32H5xx_HAL_Driver/Inc/stm32h5xx_hal_pcd.h ****   * @{
 327:Drivers/STM32H5xx_HAL_Driver/Inc/stm32h5xx_hal_pcd.h ****   */
 328:Drivers/STM32H5xx_HAL_Driver/Inc/stm32h5xx_hal_pcd.h **** HAL_StatusTypeDef HAL_PCD_Start(PCD_HandleTypeDef *hpcd);
 329:Drivers/STM32H5xx_HAL_Driver/Inc/stm32h5xx_hal_pcd.h **** HAL_StatusTypeDef HAL_PCD_Stop(PCD_HandleTypeDef *hpcd);
 330:Drivers/STM32H5xx_HAL_Driver/Inc/stm32h5xx_hal_pcd.h **** void HAL_PCD_IRQHandler(PCD_HandleTypeDef *hpcd);
 331:Drivers/STM32H5xx_HAL_Driver/Inc/stm32h5xx_hal_pcd.h **** 
 332:Drivers/STM32H5xx_HAL_Driver/Inc/stm32h5xx_hal_pcd.h **** void HAL_PCD_SOFCallback(PCD_HandleTypeDef *hpcd);
 333:Drivers/STM32H5xx_HAL_Driver/Inc/stm32h5xx_hal_pcd.h **** void HAL_PCD_SetupStageCallback(PCD_HandleTypeDef *hpcd);
 334:Drivers/STM32H5xx_HAL_Driver/Inc/stm32h5xx_hal_pcd.h **** void HAL_PCD_ResetCallback(PCD_HandleTypeDef *hpcd);
 335:Drivers/STM32H5xx_HAL_Driver/Inc/stm32h5xx_hal_pcd.h **** void HAL_PCD_SuspendCallback(PCD_HandleTypeDef *hpcd);
 336:Drivers/STM32H5xx_HAL_Driver/Inc/stm32h5xx_hal_pcd.h **** void HAL_PCD_ResumeCallback(PCD_HandleTypeDef *hpcd);
 337:Drivers/STM32H5xx_HAL_Driver/Inc/stm32h5xx_hal_pcd.h **** void HAL_PCD_ConnectCallback(PCD_HandleTypeDef *hpcd);
 338:Drivers/STM32H5xx_HAL_Driver/Inc/stm32h5xx_hal_pcd.h **** void HAL_PCD_DisconnectCallback(PCD_HandleTypeDef *hpcd);
 339:Drivers/STM32H5xx_HAL_Driver/Inc/stm32h5xx_hal_pcd.h **** 
 340:Drivers/STM32H5xx_HAL_Driver/Inc/stm32h5xx_hal_pcd.h **** void HAL_PCD_DataOutStageCallback(PCD_HandleTypeDef *hpcd, uint8_t epnum);
 341:Drivers/STM32H5xx_HAL_Driver/Inc/stm32h5xx_hal_pcd.h **** void HAL_PCD_DataInStageCallback(PCD_HandleTypeDef *hpcd, uint8_t epnum);
 342:Drivers/STM32H5xx_HAL_Driver/Inc/stm32h5xx_hal_pcd.h **** void HAL_PCD_ISOOUTIncompleteCallback(PCD_HandleTypeDef *hpcd, uint8_t epnum);
 343:Drivers/STM32H5xx_HAL_Driver/Inc/stm32h5xx_hal_pcd.h **** void HAL_PCD_ISOINIncompleteCallback(PCD_HandleTypeDef *hpcd, uint8_t epnum);
 344:Drivers/STM32H5xx_HAL_Driver/Inc/stm32h5xx_hal_pcd.h **** /**
 345:Drivers/STM32H5xx_HAL_Driver/Inc/stm32h5xx_hal_pcd.h ****   * @}
 346:Drivers/STM32H5xx_HAL_Driver/Inc/stm32h5xx_hal_pcd.h ****   */
 347:Drivers/STM32H5xx_HAL_Driver/Inc/stm32h5xx_hal_pcd.h **** 
 348:Drivers/STM32H5xx_HAL_Driver/Inc/stm32h5xx_hal_pcd.h **** /* Peripheral Control functions  **********************************************/
 349:Drivers/STM32H5xx_HAL_Driver/Inc/stm32h5xx_hal_pcd.h **** /** @addtogroup PCD_Exported_Functions_Group3 Peripheral Control functions
 350:Drivers/STM32H5xx_HAL_Driver/Inc/stm32h5xx_hal_pcd.h ****   * @{
 351:Drivers/STM32H5xx_HAL_Driver/Inc/stm32h5xx_hal_pcd.h ****   */
 352:Drivers/STM32H5xx_HAL_Driver/Inc/stm32h5xx_hal_pcd.h **** HAL_StatusTypeDef HAL_PCD_DevConnect(PCD_HandleTypeDef *hpcd);
 353:Drivers/STM32H5xx_HAL_Driver/Inc/stm32h5xx_hal_pcd.h **** HAL_StatusTypeDef HAL_PCD_DevDisconnect(PCD_HandleTypeDef *hpcd);
 354:Drivers/STM32H5xx_HAL_Driver/Inc/stm32h5xx_hal_pcd.h **** HAL_StatusTypeDef HAL_PCD_SetAddress(PCD_HandleTypeDef *hpcd, uint8_t address);
 355:Drivers/STM32H5xx_HAL_Driver/Inc/stm32h5xx_hal_pcd.h **** HAL_StatusTypeDef HAL_PCD_EP_Open(PCD_HandleTypeDef *hpcd, uint8_t ep_addr, uint16_t ep_mps, uint8_
 356:Drivers/STM32H5xx_HAL_Driver/Inc/stm32h5xx_hal_pcd.h **** HAL_StatusTypeDef HAL_PCD_EP_Close(PCD_HandleTypeDef *hpcd, uint8_t ep_addr);
 357:Drivers/STM32H5xx_HAL_Driver/Inc/stm32h5xx_hal_pcd.h **** HAL_StatusTypeDef HAL_PCD_EP_Receive(PCD_HandleTypeDef *hpcd, uint8_t ep_addr, uint8_t *pBuf, uint3
 358:Drivers/STM32H5xx_HAL_Driver/Inc/stm32h5xx_hal_pcd.h **** HAL_StatusTypeDef HAL_PCD_EP_Transmit(PCD_HandleTypeDef *hpcd, uint8_t ep_addr, uint8_t *pBuf, uint
 359:Drivers/STM32H5xx_HAL_Driver/Inc/stm32h5xx_hal_pcd.h **** HAL_StatusTypeDef HAL_PCD_EP_SetStall(PCD_HandleTypeDef *hpcd, uint8_t ep_addr);
 360:Drivers/STM32H5xx_HAL_Driver/Inc/stm32h5xx_hal_pcd.h **** HAL_StatusTypeDef HAL_PCD_EP_ClrStall(PCD_HandleTypeDef *hpcd, uint8_t ep_addr);
 361:Drivers/STM32H5xx_HAL_Driver/Inc/stm32h5xx_hal_pcd.h **** HAL_StatusTypeDef HAL_PCD_EP_Flush(PCD_HandleTypeDef *hpcd, uint8_t ep_addr);
 362:Drivers/STM32H5xx_HAL_Driver/Inc/stm32h5xx_hal_pcd.h **** HAL_StatusTypeDef HAL_PCD_EP_Abort(PCD_HandleTypeDef *hpcd, uint8_t ep_addr);
 363:Drivers/STM32H5xx_HAL_Driver/Inc/stm32h5xx_hal_pcd.h **** HAL_StatusTypeDef HAL_PCD_ActivateRemoteWakeup(PCD_HandleTypeDef *hpcd);
 364:Drivers/STM32H5xx_HAL_Driver/Inc/stm32h5xx_hal_pcd.h **** HAL_StatusTypeDef HAL_PCD_DeActivateRemoteWakeup(PCD_HandleTypeDef *hpcd);
 365:Drivers/STM32H5xx_HAL_Driver/Inc/stm32h5xx_hal_pcd.h **** #if defined (USB_OTG_FS) || defined (USB_OTG_HS)
 366:Drivers/STM32H5xx_HAL_Driver/Inc/stm32h5xx_hal_pcd.h **** HAL_StatusTypeDef HAL_PCD_SetTestMode(const PCD_HandleTypeDef *hpcd, uint8_t testmode);
 367:Drivers/STM32H5xx_HAL_Driver/Inc/stm32h5xx_hal_pcd.h **** #endif /* defined (USB_OTG_FS) || defined (USB_OTG_HS) */
 368:Drivers/STM32H5xx_HAL_Driver/Inc/stm32h5xx_hal_pcd.h **** 
 369:Drivers/STM32H5xx_HAL_Driver/Inc/stm32h5xx_hal_pcd.h **** uint32_t          HAL_PCD_EP_GetRxCount(PCD_HandleTypeDef const *hpcd, uint8_t ep_addr);
 370:Drivers/STM32H5xx_HAL_Driver/Inc/stm32h5xx_hal_pcd.h **** /**
ARM GAS  C:\Users\DELL\AppData\Local\Temp\ccskFJre.s 			page 8


 371:Drivers/STM32H5xx_HAL_Driver/Inc/stm32h5xx_hal_pcd.h ****   * @}
 372:Drivers/STM32H5xx_HAL_Driver/Inc/stm32h5xx_hal_pcd.h ****   */
 373:Drivers/STM32H5xx_HAL_Driver/Inc/stm32h5xx_hal_pcd.h **** 
 374:Drivers/STM32H5xx_HAL_Driver/Inc/stm32h5xx_hal_pcd.h **** /* Peripheral State functions  ************************************************/
 375:Drivers/STM32H5xx_HAL_Driver/Inc/stm32h5xx_hal_pcd.h **** /** @addtogroup PCD_Exported_Functions_Group4 Peripheral State functions
 376:Drivers/STM32H5xx_HAL_Driver/Inc/stm32h5xx_hal_pcd.h ****   * @{
 377:Drivers/STM32H5xx_HAL_Driver/Inc/stm32h5xx_hal_pcd.h ****   */
 378:Drivers/STM32H5xx_HAL_Driver/Inc/stm32h5xx_hal_pcd.h **** PCD_StateTypeDef HAL_PCD_GetState(PCD_HandleTypeDef const *hpcd);
 379:Drivers/STM32H5xx_HAL_Driver/Inc/stm32h5xx_hal_pcd.h **** /**
 380:Drivers/STM32H5xx_HAL_Driver/Inc/stm32h5xx_hal_pcd.h ****   * @}
 381:Drivers/STM32H5xx_HAL_Driver/Inc/stm32h5xx_hal_pcd.h ****   */
 382:Drivers/STM32H5xx_HAL_Driver/Inc/stm32h5xx_hal_pcd.h **** 
 383:Drivers/STM32H5xx_HAL_Driver/Inc/stm32h5xx_hal_pcd.h **** /**
 384:Drivers/STM32H5xx_HAL_Driver/Inc/stm32h5xx_hal_pcd.h ****   * @}
 385:Drivers/STM32H5xx_HAL_Driver/Inc/stm32h5xx_hal_pcd.h ****   */
 386:Drivers/STM32H5xx_HAL_Driver/Inc/stm32h5xx_hal_pcd.h **** 
 387:Drivers/STM32H5xx_HAL_Driver/Inc/stm32h5xx_hal_pcd.h **** /* Private constants ---------------------------------------------------------*/
 388:Drivers/STM32H5xx_HAL_Driver/Inc/stm32h5xx_hal_pcd.h **** /** @defgroup PCD_Private_Constants PCD Private Constants
 389:Drivers/STM32H5xx_HAL_Driver/Inc/stm32h5xx_hal_pcd.h ****   * @{
 390:Drivers/STM32H5xx_HAL_Driver/Inc/stm32h5xx_hal_pcd.h ****   */
 391:Drivers/STM32H5xx_HAL_Driver/Inc/stm32h5xx_hal_pcd.h **** /** @defgroup USB_EXTI_Line_Interrupt USB EXTI line interrupt
 392:Drivers/STM32H5xx_HAL_Driver/Inc/stm32h5xx_hal_pcd.h ****   * @{
 393:Drivers/STM32H5xx_HAL_Driver/Inc/stm32h5xx_hal_pcd.h ****   */
 394:Drivers/STM32H5xx_HAL_Driver/Inc/stm32h5xx_hal_pcd.h **** #if defined (USB_OTG_FS) || defined (USB_OTG_HS)
 395:Drivers/STM32H5xx_HAL_Driver/Inc/stm32h5xx_hal_pcd.h **** #define USB_OTG_FS_WAKEUP_EXTI_LINE                                   (0x1U << 15)  /*!< USB FS EXT
 396:Drivers/STM32H5xx_HAL_Driver/Inc/stm32h5xx_hal_pcd.h **** #define USB_OTG_HS_WAKEUP_EXTI_LINE                                   (0x1U << 28)  /*!< USB HS EXT
 397:Drivers/STM32H5xx_HAL_Driver/Inc/stm32h5xx_hal_pcd.h **** #endif /* defined (USB_OTG_FS) || defined (USB_OTG_HS) */
 398:Drivers/STM32H5xx_HAL_Driver/Inc/stm32h5xx_hal_pcd.h **** 
 399:Drivers/STM32H5xx_HAL_Driver/Inc/stm32h5xx_hal_pcd.h **** #if defined (USB_DRD_FS)
 400:Drivers/STM32H5xx_HAL_Driver/Inc/stm32h5xx_hal_pcd.h **** #define USB_WAKEUP_EXTI_LINE                                          (0x1U << 15)  /*!< USB FS EXT
 401:Drivers/STM32H5xx_HAL_Driver/Inc/stm32h5xx_hal_pcd.h **** #endif /* defined (USB_DRD_FS) */
 402:Drivers/STM32H5xx_HAL_Driver/Inc/stm32h5xx_hal_pcd.h **** 
 403:Drivers/STM32H5xx_HAL_Driver/Inc/stm32h5xx_hal_pcd.h **** /**
 404:Drivers/STM32H5xx_HAL_Driver/Inc/stm32h5xx_hal_pcd.h ****   * @}
 405:Drivers/STM32H5xx_HAL_Driver/Inc/stm32h5xx_hal_pcd.h ****   */
 406:Drivers/STM32H5xx_HAL_Driver/Inc/stm32h5xx_hal_pcd.h **** #if defined (USB_DRD_FS)
 407:Drivers/STM32H5xx_HAL_Driver/Inc/stm32h5xx_hal_pcd.h **** /** @defgroup PCD_EP0_MPS PCD EP0 MPS
 408:Drivers/STM32H5xx_HAL_Driver/Inc/stm32h5xx_hal_pcd.h ****   * @{
 409:Drivers/STM32H5xx_HAL_Driver/Inc/stm32h5xx_hal_pcd.h ****   */
 410:Drivers/STM32H5xx_HAL_Driver/Inc/stm32h5xx_hal_pcd.h **** #define PCD_EP0MPS_64                                                 EP_MPS_64
 411:Drivers/STM32H5xx_HAL_Driver/Inc/stm32h5xx_hal_pcd.h **** #define PCD_EP0MPS_32                                                 EP_MPS_32
 412:Drivers/STM32H5xx_HAL_Driver/Inc/stm32h5xx_hal_pcd.h **** #define PCD_EP0MPS_16                                                 EP_MPS_16
 413:Drivers/STM32H5xx_HAL_Driver/Inc/stm32h5xx_hal_pcd.h **** #define PCD_EP0MPS_08                                                 EP_MPS_8
 414:Drivers/STM32H5xx_HAL_Driver/Inc/stm32h5xx_hal_pcd.h **** /**
 415:Drivers/STM32H5xx_HAL_Driver/Inc/stm32h5xx_hal_pcd.h ****   * @}
 416:Drivers/STM32H5xx_HAL_Driver/Inc/stm32h5xx_hal_pcd.h ****   */
 417:Drivers/STM32H5xx_HAL_Driver/Inc/stm32h5xx_hal_pcd.h **** 
 418:Drivers/STM32H5xx_HAL_Driver/Inc/stm32h5xx_hal_pcd.h **** /** @defgroup PCD_ENDP PCD ENDP
 419:Drivers/STM32H5xx_HAL_Driver/Inc/stm32h5xx_hal_pcd.h ****   * @{
 420:Drivers/STM32H5xx_HAL_Driver/Inc/stm32h5xx_hal_pcd.h ****   */
 421:Drivers/STM32H5xx_HAL_Driver/Inc/stm32h5xx_hal_pcd.h **** #define PCD_ENDP0                                                     0U
 422:Drivers/STM32H5xx_HAL_Driver/Inc/stm32h5xx_hal_pcd.h **** #define PCD_ENDP1                                                     1U
 423:Drivers/STM32H5xx_HAL_Driver/Inc/stm32h5xx_hal_pcd.h **** #define PCD_ENDP2                                                     2U
 424:Drivers/STM32H5xx_HAL_Driver/Inc/stm32h5xx_hal_pcd.h **** #define PCD_ENDP3                                                     3U
 425:Drivers/STM32H5xx_HAL_Driver/Inc/stm32h5xx_hal_pcd.h **** #define PCD_ENDP4                                                     4U
 426:Drivers/STM32H5xx_HAL_Driver/Inc/stm32h5xx_hal_pcd.h **** #define PCD_ENDP5                                                     5U
 427:Drivers/STM32H5xx_HAL_Driver/Inc/stm32h5xx_hal_pcd.h **** #define PCD_ENDP6                                                     6U
ARM GAS  C:\Users\DELL\AppData\Local\Temp\ccskFJre.s 			page 9


 428:Drivers/STM32H5xx_HAL_Driver/Inc/stm32h5xx_hal_pcd.h **** #define PCD_ENDP7                                                     7U
 429:Drivers/STM32H5xx_HAL_Driver/Inc/stm32h5xx_hal_pcd.h **** /**
 430:Drivers/STM32H5xx_HAL_Driver/Inc/stm32h5xx_hal_pcd.h ****   * @}
 431:Drivers/STM32H5xx_HAL_Driver/Inc/stm32h5xx_hal_pcd.h ****   */
 432:Drivers/STM32H5xx_HAL_Driver/Inc/stm32h5xx_hal_pcd.h **** 
 433:Drivers/STM32H5xx_HAL_Driver/Inc/stm32h5xx_hal_pcd.h **** /** @defgroup PCD_ENDP_Kind PCD Endpoint Kind
 434:Drivers/STM32H5xx_HAL_Driver/Inc/stm32h5xx_hal_pcd.h ****   * @{
 435:Drivers/STM32H5xx_HAL_Driver/Inc/stm32h5xx_hal_pcd.h ****   */
 436:Drivers/STM32H5xx_HAL_Driver/Inc/stm32h5xx_hal_pcd.h **** #define PCD_SNG_BUF                                                   0U
 437:Drivers/STM32H5xx_HAL_Driver/Inc/stm32h5xx_hal_pcd.h **** #define PCD_DBL_BUF                                                   1U
 438:Drivers/STM32H5xx_HAL_Driver/Inc/stm32h5xx_hal_pcd.h **** /**
 439:Drivers/STM32H5xx_HAL_Driver/Inc/stm32h5xx_hal_pcd.h ****   * @}
 440:Drivers/STM32H5xx_HAL_Driver/Inc/stm32h5xx_hal_pcd.h ****   */
 441:Drivers/STM32H5xx_HAL_Driver/Inc/stm32h5xx_hal_pcd.h **** #endif /* defined (USB_DRD_FS) */
 442:Drivers/STM32H5xx_HAL_Driver/Inc/stm32h5xx_hal_pcd.h **** /**
 443:Drivers/STM32H5xx_HAL_Driver/Inc/stm32h5xx_hal_pcd.h ****   * @}
 444:Drivers/STM32H5xx_HAL_Driver/Inc/stm32h5xx_hal_pcd.h ****   */
 445:Drivers/STM32H5xx_HAL_Driver/Inc/stm32h5xx_hal_pcd.h **** 
 446:Drivers/STM32H5xx_HAL_Driver/Inc/stm32h5xx_hal_pcd.h **** #if defined (USB_OTG_FS) || defined (USB_OTG_HS)
 447:Drivers/STM32H5xx_HAL_Driver/Inc/stm32h5xx_hal_pcd.h **** #ifndef USB_OTG_DOEPINT_OTEPSPR
 448:Drivers/STM32H5xx_HAL_Driver/Inc/stm32h5xx_hal_pcd.h **** #define USB_OTG_DOEPINT_OTEPSPR                (0x1UL << 5)      /*!< Status Phase Received interru
 449:Drivers/STM32H5xx_HAL_Driver/Inc/stm32h5xx_hal_pcd.h **** #endif /* defined USB_OTG_DOEPINT_OTEPSPR */
 450:Drivers/STM32H5xx_HAL_Driver/Inc/stm32h5xx_hal_pcd.h **** 
 451:Drivers/STM32H5xx_HAL_Driver/Inc/stm32h5xx_hal_pcd.h **** #ifndef USB_OTG_DOEPMSK_OTEPSPRM
 452:Drivers/STM32H5xx_HAL_Driver/Inc/stm32h5xx_hal_pcd.h **** #define USB_OTG_DOEPMSK_OTEPSPRM               (0x1UL << 5)      /*!< Setup Packet Received interru
 453:Drivers/STM32H5xx_HAL_Driver/Inc/stm32h5xx_hal_pcd.h **** #endif /* defined USB_OTG_DOEPMSK_OTEPSPRM */
 454:Drivers/STM32H5xx_HAL_Driver/Inc/stm32h5xx_hal_pcd.h **** 
 455:Drivers/STM32H5xx_HAL_Driver/Inc/stm32h5xx_hal_pcd.h **** #ifndef USB_OTG_DOEPINT_NAK
 456:Drivers/STM32H5xx_HAL_Driver/Inc/stm32h5xx_hal_pcd.h **** #define USB_OTG_DOEPINT_NAK                    (0x1UL << 13)      /*!< NAK interrupt */
 457:Drivers/STM32H5xx_HAL_Driver/Inc/stm32h5xx_hal_pcd.h **** #endif /* defined USB_OTG_DOEPINT_NAK */
 458:Drivers/STM32H5xx_HAL_Driver/Inc/stm32h5xx_hal_pcd.h **** 
 459:Drivers/STM32H5xx_HAL_Driver/Inc/stm32h5xx_hal_pcd.h **** #ifndef USB_OTG_DOEPMSK_NAKM
 460:Drivers/STM32H5xx_HAL_Driver/Inc/stm32h5xx_hal_pcd.h **** #define USB_OTG_DOEPMSK_NAKM                   (0x1UL << 13)      /*!< OUT Packet NAK interrupt mas
 461:Drivers/STM32H5xx_HAL_Driver/Inc/stm32h5xx_hal_pcd.h **** #endif /* defined USB_OTG_DOEPMSK_NAKM */
 462:Drivers/STM32H5xx_HAL_Driver/Inc/stm32h5xx_hal_pcd.h **** 
 463:Drivers/STM32H5xx_HAL_Driver/Inc/stm32h5xx_hal_pcd.h **** #ifndef USB_OTG_DOEPINT_STPKTRX
 464:Drivers/STM32H5xx_HAL_Driver/Inc/stm32h5xx_hal_pcd.h **** #define USB_OTG_DOEPINT_STPKTRX                (0x1UL << 15)      /*!< Setup Packet Received interr
 465:Drivers/STM32H5xx_HAL_Driver/Inc/stm32h5xx_hal_pcd.h **** #endif /* defined USB_OTG_DOEPINT_STPKTRX */
 466:Drivers/STM32H5xx_HAL_Driver/Inc/stm32h5xx_hal_pcd.h **** 
 467:Drivers/STM32H5xx_HAL_Driver/Inc/stm32h5xx_hal_pcd.h **** #ifndef USB_OTG_DOEPMSK_NYETM
 468:Drivers/STM32H5xx_HAL_Driver/Inc/stm32h5xx_hal_pcd.h **** #define USB_OTG_DOEPMSK_NYETM                  (0x1UL << 14)      /*!< Setup Packet Received interr
 469:Drivers/STM32H5xx_HAL_Driver/Inc/stm32h5xx_hal_pcd.h **** #endif /* defined USB_OTG_DOEPMSK_NYETM */
 470:Drivers/STM32H5xx_HAL_Driver/Inc/stm32h5xx_hal_pcd.h **** #endif /* defined (USB_OTG_FS) || defined (USB_OTG_HS) */
 471:Drivers/STM32H5xx_HAL_Driver/Inc/stm32h5xx_hal_pcd.h **** 
 472:Drivers/STM32H5xx_HAL_Driver/Inc/stm32h5xx_hal_pcd.h **** /* Private macros ------------------------------------------------------------*/
 473:Drivers/STM32H5xx_HAL_Driver/Inc/stm32h5xx_hal_pcd.h **** /** @defgroup PCD_Private_Macros PCD Private Macros
 474:Drivers/STM32H5xx_HAL_Driver/Inc/stm32h5xx_hal_pcd.h ****   * @{
 475:Drivers/STM32H5xx_HAL_Driver/Inc/stm32h5xx_hal_pcd.h ****   */
 476:Drivers/STM32H5xx_HAL_Driver/Inc/stm32h5xx_hal_pcd.h **** #if defined (USB_DRD_FS)
 477:Drivers/STM32H5xx_HAL_Driver/Inc/stm32h5xx_hal_pcd.h **** /* PMA RX counter */
 478:Drivers/STM32H5xx_HAL_Driver/Inc/stm32h5xx_hal_pcd.h **** #ifndef PCD_RX_PMA_CNT
 479:Drivers/STM32H5xx_HAL_Driver/Inc/stm32h5xx_hal_pcd.h **** #define PCD_RX_PMA_CNT                                               10U
 480:Drivers/STM32H5xx_HAL_Driver/Inc/stm32h5xx_hal_pcd.h **** #endif /* PCD_RX_PMA_CNT */
 481:Drivers/STM32H5xx_HAL_Driver/Inc/stm32h5xx_hal_pcd.h **** 
 482:Drivers/STM32H5xx_HAL_Driver/Inc/stm32h5xx_hal_pcd.h **** /* SetENDPOINT */
 483:Drivers/STM32H5xx_HAL_Driver/Inc/stm32h5xx_hal_pcd.h **** #define PCD_SET_ENDPOINT                       USB_DRD_SET_CHEP
 484:Drivers/STM32H5xx_HAL_Driver/Inc/stm32h5xx_hal_pcd.h **** 
ARM GAS  C:\Users\DELL\AppData\Local\Temp\ccskFJre.s 			page 10


 485:Drivers/STM32H5xx_HAL_Driver/Inc/stm32h5xx_hal_pcd.h **** /* GetENDPOINT Register value*/
 486:Drivers/STM32H5xx_HAL_Driver/Inc/stm32h5xx_hal_pcd.h **** #define PCD_GET_ENDPOINT                       USB_DRD_GET_CHEP
 487:Drivers/STM32H5xx_HAL_Driver/Inc/stm32h5xx_hal_pcd.h **** 
 488:Drivers/STM32H5xx_HAL_Driver/Inc/stm32h5xx_hal_pcd.h **** 
 489:Drivers/STM32H5xx_HAL_Driver/Inc/stm32h5xx_hal_pcd.h **** /**
 490:Drivers/STM32H5xx_HAL_Driver/Inc/stm32h5xx_hal_pcd.h ****   * @brief free buffer used from the application realizing it to the line
 491:Drivers/STM32H5xx_HAL_Driver/Inc/stm32h5xx_hal_pcd.h ****   *         toggles bit SW_BUF in the double buffered endpoint register
 492:Drivers/STM32H5xx_HAL_Driver/Inc/stm32h5xx_hal_pcd.h ****   * @param USBx USB device.
 493:Drivers/STM32H5xx_HAL_Driver/Inc/stm32h5xx_hal_pcd.h ****   * @param   bEpNum, bDir
 494:Drivers/STM32H5xx_HAL_Driver/Inc/stm32h5xx_hal_pcd.h ****   * @retval None
 495:Drivers/STM32H5xx_HAL_Driver/Inc/stm32h5xx_hal_pcd.h ****   */
 496:Drivers/STM32H5xx_HAL_Driver/Inc/stm32h5xx_hal_pcd.h **** #define PCD_FREE_USER_BUFFER                   USB_DRD_FREE_USER_BUFFER
 497:Drivers/STM32H5xx_HAL_Driver/Inc/stm32h5xx_hal_pcd.h **** 
 498:Drivers/STM32H5xx_HAL_Driver/Inc/stm32h5xx_hal_pcd.h **** /**
 499:Drivers/STM32H5xx_HAL_Driver/Inc/stm32h5xx_hal_pcd.h ****   * @brief  sets the status for tx transfer (bits STAT_TX[1:0]).
 500:Drivers/STM32H5xx_HAL_Driver/Inc/stm32h5xx_hal_pcd.h ****   * @param  USBx USB peripheral instance register address.
 501:Drivers/STM32H5xx_HAL_Driver/Inc/stm32h5xx_hal_pcd.h ****   * @param  bEpNum Endpoint Number.
 502:Drivers/STM32H5xx_HAL_Driver/Inc/stm32h5xx_hal_pcd.h ****   * @param  wState new state
 503:Drivers/STM32H5xx_HAL_Driver/Inc/stm32h5xx_hal_pcd.h ****   * @retval None
 504:Drivers/STM32H5xx_HAL_Driver/Inc/stm32h5xx_hal_pcd.h ****   */
 505:Drivers/STM32H5xx_HAL_Driver/Inc/stm32h5xx_hal_pcd.h **** #define PCD_SET_EP_TX_STATUS                   USB_DRD_SET_CHEP_TX_STATUS
 506:Drivers/STM32H5xx_HAL_Driver/Inc/stm32h5xx_hal_pcd.h **** 
 507:Drivers/STM32H5xx_HAL_Driver/Inc/stm32h5xx_hal_pcd.h **** /**
 508:Drivers/STM32H5xx_HAL_Driver/Inc/stm32h5xx_hal_pcd.h ****   * @brief  sets the status for rx transfer (bits STAT_TX[1:0])
 509:Drivers/STM32H5xx_HAL_Driver/Inc/stm32h5xx_hal_pcd.h ****   * @param  USBx USB peripheral instance register address.
 510:Drivers/STM32H5xx_HAL_Driver/Inc/stm32h5xx_hal_pcd.h ****   * @param  bEpNum Endpoint Number.
 511:Drivers/STM32H5xx_HAL_Driver/Inc/stm32h5xx_hal_pcd.h ****   * @param  wState new state
 512:Drivers/STM32H5xx_HAL_Driver/Inc/stm32h5xx_hal_pcd.h ****   * @retval None
 513:Drivers/STM32H5xx_HAL_Driver/Inc/stm32h5xx_hal_pcd.h ****   */
 514:Drivers/STM32H5xx_HAL_Driver/Inc/stm32h5xx_hal_pcd.h **** #define PCD_SET_EP_RX_STATUS                   USB_DRD_SET_CHEP_RX_STATUS
 515:Drivers/STM32H5xx_HAL_Driver/Inc/stm32h5xx_hal_pcd.h **** 
 516:Drivers/STM32H5xx_HAL_Driver/Inc/stm32h5xx_hal_pcd.h **** /**
 517:Drivers/STM32H5xx_HAL_Driver/Inc/stm32h5xx_hal_pcd.h ****   * @brief  Sets/clears directly EP_KIND bit in the endpoint register.
 518:Drivers/STM32H5xx_HAL_Driver/Inc/stm32h5xx_hal_pcd.h ****   * @param  USBx USB peripheral instance register address.
 519:Drivers/STM32H5xx_HAL_Driver/Inc/stm32h5xx_hal_pcd.h ****   * @param  bEpNum Endpoint Number.
 520:Drivers/STM32H5xx_HAL_Driver/Inc/stm32h5xx_hal_pcd.h ****   * @retval None
 521:Drivers/STM32H5xx_HAL_Driver/Inc/stm32h5xx_hal_pcd.h ****   */
 522:Drivers/STM32H5xx_HAL_Driver/Inc/stm32h5xx_hal_pcd.h **** #define PCD_SET_EP_KIND                        USB_DRD_SET_CHEP_KIND
 523:Drivers/STM32H5xx_HAL_Driver/Inc/stm32h5xx_hal_pcd.h **** #define PCD_CLEAR_EP_KIND                      USB_DRD_CLEAR_CHEP_KIND
 524:Drivers/STM32H5xx_HAL_Driver/Inc/stm32h5xx_hal_pcd.h **** #define PCD_SET_BULK_EP_DBUF                   PCD_SET_EP_KIND
 525:Drivers/STM32H5xx_HAL_Driver/Inc/stm32h5xx_hal_pcd.h **** #define PCD_CLEAR_BULK_EP_DBUF                 PCD_CLEAR_EP_KIND
 526:Drivers/STM32H5xx_HAL_Driver/Inc/stm32h5xx_hal_pcd.h **** 
 527:Drivers/STM32H5xx_HAL_Driver/Inc/stm32h5xx_hal_pcd.h **** /**
 528:Drivers/STM32H5xx_HAL_Driver/Inc/stm32h5xx_hal_pcd.h ****   * @brief  Sets/clears directly STATUS_OUT bit in the endpoint register.
 529:Drivers/STM32H5xx_HAL_Driver/Inc/stm32h5xx_hal_pcd.h ****   * @param  USBx USB peripheral instance register address.
 530:Drivers/STM32H5xx_HAL_Driver/Inc/stm32h5xx_hal_pcd.h ****   * @param  bEpNum Endpoint Number.
 531:Drivers/STM32H5xx_HAL_Driver/Inc/stm32h5xx_hal_pcd.h ****   * @retval None
 532:Drivers/STM32H5xx_HAL_Driver/Inc/stm32h5xx_hal_pcd.h ****   */
 533:Drivers/STM32H5xx_HAL_Driver/Inc/stm32h5xx_hal_pcd.h **** #define PCD_SET_OUT_STATUS                     USB_DRD_SET_CHEP_KIND
 534:Drivers/STM32H5xx_HAL_Driver/Inc/stm32h5xx_hal_pcd.h **** #define PCD_CLEAR_OUT_STATUS                   USB_DRD_CLEAR_CHEP_KIND
 535:Drivers/STM32H5xx_HAL_Driver/Inc/stm32h5xx_hal_pcd.h **** 
 536:Drivers/STM32H5xx_HAL_Driver/Inc/stm32h5xx_hal_pcd.h **** /**
 537:Drivers/STM32H5xx_HAL_Driver/Inc/stm32h5xx_hal_pcd.h ****   * @brief  Clears bit CTR_RX / CTR_TX in the endpoint register.
 538:Drivers/STM32H5xx_HAL_Driver/Inc/stm32h5xx_hal_pcd.h ****   * @param  USBx USB peripheral instance register address.
 539:Drivers/STM32H5xx_HAL_Driver/Inc/stm32h5xx_hal_pcd.h ****   * @param  bEpNum Endpoint Number.
 540:Drivers/STM32H5xx_HAL_Driver/Inc/stm32h5xx_hal_pcd.h ****   * @retval None
 541:Drivers/STM32H5xx_HAL_Driver/Inc/stm32h5xx_hal_pcd.h ****   */
ARM GAS  C:\Users\DELL\AppData\Local\Temp\ccskFJre.s 			page 11


 542:Drivers/STM32H5xx_HAL_Driver/Inc/stm32h5xx_hal_pcd.h **** #define PCD_CLEAR_RX_EP_CTR                    USB_DRD_CLEAR_RX_CHEP_CTR
 543:Drivers/STM32H5xx_HAL_Driver/Inc/stm32h5xx_hal_pcd.h **** #define PCD_CLEAR_TX_EP_CTR                    USB_DRD_CLEAR_TX_CHEP_CTR
 544:Drivers/STM32H5xx_HAL_Driver/Inc/stm32h5xx_hal_pcd.h **** /**
 545:Drivers/STM32H5xx_HAL_Driver/Inc/stm32h5xx_hal_pcd.h ****   * @brief  Toggles DTOG_RX / DTOG_TX bit in the endpoint register.
 546:Drivers/STM32H5xx_HAL_Driver/Inc/stm32h5xx_hal_pcd.h ****   * @param  USBx USB peripheral instance register address.
 547:Drivers/STM32H5xx_HAL_Driver/Inc/stm32h5xx_hal_pcd.h ****   * @param  bEpNum Endpoint Number.
 548:Drivers/STM32H5xx_HAL_Driver/Inc/stm32h5xx_hal_pcd.h ****   * @retval None
 549:Drivers/STM32H5xx_HAL_Driver/Inc/stm32h5xx_hal_pcd.h ****   */
 550:Drivers/STM32H5xx_HAL_Driver/Inc/stm32h5xx_hal_pcd.h **** #define PCD_RX_DTOG                            USB_DRD_RX_DTOG
 551:Drivers/STM32H5xx_HAL_Driver/Inc/stm32h5xx_hal_pcd.h **** #define PCD_TX_DTOG                            USB_DRD_TX_DTOG
 552:Drivers/STM32H5xx_HAL_Driver/Inc/stm32h5xx_hal_pcd.h **** /**
 553:Drivers/STM32H5xx_HAL_Driver/Inc/stm32h5xx_hal_pcd.h ****   * @brief  Clears DTOG_RX / DTOG_TX bit in the endpoint register.
 554:Drivers/STM32H5xx_HAL_Driver/Inc/stm32h5xx_hal_pcd.h ****   * @param  USBx USB peripheral instance register address.
 555:Drivers/STM32H5xx_HAL_Driver/Inc/stm32h5xx_hal_pcd.h ****   * @param  bEpNum Endpoint Number.
 556:Drivers/STM32H5xx_HAL_Driver/Inc/stm32h5xx_hal_pcd.h ****   * @retval None
 557:Drivers/STM32H5xx_HAL_Driver/Inc/stm32h5xx_hal_pcd.h ****   */
 558:Drivers/STM32H5xx_HAL_Driver/Inc/stm32h5xx_hal_pcd.h **** #define PCD_CLEAR_RX_DTOG                      USB_DRD_CLEAR_RX_DTOG
 559:Drivers/STM32H5xx_HAL_Driver/Inc/stm32h5xx_hal_pcd.h **** #define PCD_CLEAR_TX_DTOG                      USB_DRD_CLEAR_TX_DTOG
 560:Drivers/STM32H5xx_HAL_Driver/Inc/stm32h5xx_hal_pcd.h **** 
 561:Drivers/STM32H5xx_HAL_Driver/Inc/stm32h5xx_hal_pcd.h **** /**
 562:Drivers/STM32H5xx_HAL_Driver/Inc/stm32h5xx_hal_pcd.h ****   * @brief  Sets address in an endpoint register.
 563:Drivers/STM32H5xx_HAL_Driver/Inc/stm32h5xx_hal_pcd.h ****   * @param  USBx USB peripheral instance register address.
 564:Drivers/STM32H5xx_HAL_Driver/Inc/stm32h5xx_hal_pcd.h ****   * @param  bEpNum Endpoint Number.
 565:Drivers/STM32H5xx_HAL_Driver/Inc/stm32h5xx_hal_pcd.h ****   * @param  bAddr Address.
 566:Drivers/STM32H5xx_HAL_Driver/Inc/stm32h5xx_hal_pcd.h ****   * @retval None
 567:Drivers/STM32H5xx_HAL_Driver/Inc/stm32h5xx_hal_pcd.h ****   */
 568:Drivers/STM32H5xx_HAL_Driver/Inc/stm32h5xx_hal_pcd.h **** #define PCD_SET_EP_ADDRESS                     USB_DRD_SET_CHEP_ADDRESS
 569:Drivers/STM32H5xx_HAL_Driver/Inc/stm32h5xx_hal_pcd.h **** 
 570:Drivers/STM32H5xx_HAL_Driver/Inc/stm32h5xx_hal_pcd.h **** /**
 571:Drivers/STM32H5xx_HAL_Driver/Inc/stm32h5xx_hal_pcd.h ****   * @brief  sets address of the tx/rx buffer.
 572:Drivers/STM32H5xx_HAL_Driver/Inc/stm32h5xx_hal_pcd.h ****   * @param  USBx USB peripheral instance register address.
 573:Drivers/STM32H5xx_HAL_Driver/Inc/stm32h5xx_hal_pcd.h ****   * @param  bEpNum Endpoint Number.
 574:Drivers/STM32H5xx_HAL_Driver/Inc/stm32h5xx_hal_pcd.h ****   * @param  wAddr address to be set (must be word aligned).
 575:Drivers/STM32H5xx_HAL_Driver/Inc/stm32h5xx_hal_pcd.h ****   * @retval None
 576:Drivers/STM32H5xx_HAL_Driver/Inc/stm32h5xx_hal_pcd.h ****   */
 577:Drivers/STM32H5xx_HAL_Driver/Inc/stm32h5xx_hal_pcd.h **** #define PCD_SET_EP_TX_ADDRESS                  USB_DRD_SET_CHEP_TX_ADDRESS
 578:Drivers/STM32H5xx_HAL_Driver/Inc/stm32h5xx_hal_pcd.h **** #define PCD_SET_EP_RX_ADDRESS                  USB_DRD_SET_CHEP_RX_ADDRESS
 579:Drivers/STM32H5xx_HAL_Driver/Inc/stm32h5xx_hal_pcd.h **** 
 580:Drivers/STM32H5xx_HAL_Driver/Inc/stm32h5xx_hal_pcd.h **** /**
 581:Drivers/STM32H5xx_HAL_Driver/Inc/stm32h5xx_hal_pcd.h ****   * @brief  sets counter for the tx/rx buffer.
 582:Drivers/STM32H5xx_HAL_Driver/Inc/stm32h5xx_hal_pcd.h ****   * @param  USBx USB peripheral instance register address.
 583:Drivers/STM32H5xx_HAL_Driver/Inc/stm32h5xx_hal_pcd.h ****   * @param  bEpNum Endpoint Number.
 584:Drivers/STM32H5xx_HAL_Driver/Inc/stm32h5xx_hal_pcd.h ****   * @param  wCount Counter value.
 585:Drivers/STM32H5xx_HAL_Driver/Inc/stm32h5xx_hal_pcd.h ****   * @retval None
 586:Drivers/STM32H5xx_HAL_Driver/Inc/stm32h5xx_hal_pcd.h ****   */
 587:Drivers/STM32H5xx_HAL_Driver/Inc/stm32h5xx_hal_pcd.h **** #define PCD_SET_EP_TX_CNT                      USB_DRD_SET_CHEP_TX_CNT
 588:Drivers/STM32H5xx_HAL_Driver/Inc/stm32h5xx_hal_pcd.h **** #define PCD_SET_EP_RX_CNT                      USB_DRD_SET_CHEP_RX_CNT
 589:Drivers/STM32H5xx_HAL_Driver/Inc/stm32h5xx_hal_pcd.h **** 
 590:Drivers/STM32H5xx_HAL_Driver/Inc/stm32h5xx_hal_pcd.h **** /**
 591:Drivers/STM32H5xx_HAL_Driver/Inc/stm32h5xx_hal_pcd.h ****   * @brief  gets counter of the tx buffer.
 592:Drivers/STM32H5xx_HAL_Driver/Inc/stm32h5xx_hal_pcd.h ****   * @param  USBx USB peripheral instance register address.
 593:Drivers/STM32H5xx_HAL_Driver/Inc/stm32h5xx_hal_pcd.h ****   * @param  bEpNum Endpoint Number.
 594:Drivers/STM32H5xx_HAL_Driver/Inc/stm32h5xx_hal_pcd.h ****   * @retval Counter value
 595:Drivers/STM32H5xx_HAL_Driver/Inc/stm32h5xx_hal_pcd.h ****   */
 596:Drivers/STM32H5xx_HAL_Driver/Inc/stm32h5xx_hal_pcd.h **** #define PCD_GET_EP_TX_CNT                      USB_DRD_GET_CHEP_TX_CNT
 597:Drivers/STM32H5xx_HAL_Driver/Inc/stm32h5xx_hal_pcd.h **** 
 598:Drivers/STM32H5xx_HAL_Driver/Inc/stm32h5xx_hal_pcd.h **** /**
ARM GAS  C:\Users\DELL\AppData\Local\Temp\ccskFJre.s 			page 12


 599:Drivers/STM32H5xx_HAL_Driver/Inc/stm32h5xx_hal_pcd.h ****   * @brief  gets counter of the rx buffer.
 600:Drivers/STM32H5xx_HAL_Driver/Inc/stm32h5xx_hal_pcd.h ****   * @param  Instance USB peripheral instance register address.
 601:Drivers/STM32H5xx_HAL_Driver/Inc/stm32h5xx_hal_pcd.h ****   * @param  bEpNum channel Number.
 602:Drivers/STM32H5xx_HAL_Driver/Inc/stm32h5xx_hal_pcd.h ****   * @retval Counter value
 603:Drivers/STM32H5xx_HAL_Driver/Inc/stm32h5xx_hal_pcd.h ****   */
 604:Drivers/STM32H5xx_HAL_Driver/Inc/stm32h5xx_hal_pcd.h **** __STATIC_INLINE uint16_t PCD_GET_EP_RX_CNT(const PCD_TypeDef *Instance, uint16_t bEpNum)
 605:Drivers/STM32H5xx_HAL_Driver/Inc/stm32h5xx_hal_pcd.h **** {
  31              		.loc 2 605 1 view -0
  32              		.cfi_startproc
  33              		@ args = 0, pretend = 0, frame = 8
  34              		@ frame_needed = 0, uses_anonymous_args = 0
  35              		@ link register save eliminated.
  36              		.loc 2 605 1 is_stmt 0 view .LVU1
  37 0000 82B0     		sub	sp, sp, #8
  38              	.LCFI0:
  39              		.cfi_def_cfa_offset 8
 606:Drivers/STM32H5xx_HAL_Driver/Inc/stm32h5xx_hal_pcd.h ****   UNUSED(Instance);
  40              		.loc 2 606 3 is_stmt 1 view .LVU2
 607:Drivers/STM32H5xx_HAL_Driver/Inc/stm32h5xx_hal_pcd.h ****   __IO uint32_t count = PCD_RX_PMA_CNT;
  41              		.loc 2 607 3 view .LVU3
  42              		.loc 2 607 17 is_stmt 0 view .LVU4
  43 0002 0A23     		movs	r3, #10
  44 0004 0193     		str	r3, [sp, #4]
 608:Drivers/STM32H5xx_HAL_Driver/Inc/stm32h5xx_hal_pcd.h **** 
 609:Drivers/STM32H5xx_HAL_Driver/Inc/stm32h5xx_hal_pcd.h ****   /* WA: few cycles for RX PMA descriptor to update */
 610:Drivers/STM32H5xx_HAL_Driver/Inc/stm32h5xx_hal_pcd.h ****   while (count > 0U)
  45              		.loc 2 610 3 is_stmt 1 view .LVU5
  46              		.loc 2 610 9 is_stmt 0 view .LVU6
  47 0006 02E0     		b	.L2
  48              	.L3:
 611:Drivers/STM32H5xx_HAL_Driver/Inc/stm32h5xx_hal_pcd.h ****   {
 612:Drivers/STM32H5xx_HAL_Driver/Inc/stm32h5xx_hal_pcd.h ****     count--;
  49              		.loc 2 612 5 is_stmt 1 view .LVU7
  50              		.loc 2 612 10 is_stmt 0 view .LVU8
  51 0008 019B     		ldr	r3, [sp, #4]
  52 000a 013B     		subs	r3, r3, #1
  53 000c 0193     		str	r3, [sp, #4]
  54              	.L2:
 610:Drivers/STM32H5xx_HAL_Driver/Inc/stm32h5xx_hal_pcd.h ****   {
  55              		.loc 2 610 16 is_stmt 1 view .LVU9
  56 000e 019B     		ldr	r3, [sp, #4]
  57 0010 002B     		cmp	r3, #0
  58 0012 F9D1     		bne	.L3
 613:Drivers/STM32H5xx_HAL_Driver/Inc/stm32h5xx_hal_pcd.h ****   }
 614:Drivers/STM32H5xx_HAL_Driver/Inc/stm32h5xx_hal_pcd.h **** 
 615:Drivers/STM32H5xx_HAL_Driver/Inc/stm32h5xx_hal_pcd.h ****   return (uint16_t)USB_DRD_GET_CHEP_RX_CNT((Instance), (bEpNum));
  59              		.loc 2 615 3 view .LVU10
  60              		.loc 2 615 20 is_stmt 0 view .LVU11
  61 0014 CB00     		lsls	r3, r1, #3
  62 0016 03F18043 		add	r3, r3, #1073741824
  63 001a 03F5B233 		add	r3, r3, #91136
  64 001e 5868     		ldr	r0, [r3, #4]
  65              	.LVL1:
 616:Drivers/STM32H5xx_HAL_Driver/Inc/stm32h5xx_hal_pcd.h **** }
  66              		.loc 2 616 1 view .LVU12
  67 0020 C0F30940 		ubfx	r0, r0, #16, #10
  68 0024 02B0     		add	sp, sp, #8
ARM GAS  C:\Users\DELL\AppData\Local\Temp\ccskFJre.s 			page 13


  69              	.LCFI1:
  70              		.cfi_def_cfa_offset 0
  71              		@ sp needed
  72 0026 7047     		bx	lr
  73              		.cfi_endproc
  74              	.LFE294:
  76              		.section	.text.PCD_GET_EP_DBUF0_CNT,"ax",%progbits
  77              		.align	1
  78              		.syntax unified
  79              		.thumb
  80              		.thumb_func
  82              	PCD_GET_EP_DBUF0_CNT:
  83              	.LVL2:
  84              	.LFB295:
 617:Drivers/STM32H5xx_HAL_Driver/Inc/stm32h5xx_hal_pcd.h **** 
 618:Drivers/STM32H5xx_HAL_Driver/Inc/stm32h5xx_hal_pcd.h **** /**
 619:Drivers/STM32H5xx_HAL_Driver/Inc/stm32h5xx_hal_pcd.h ****   * @brief  Sets addresses in a double buffer endpoint.
 620:Drivers/STM32H5xx_HAL_Driver/Inc/stm32h5xx_hal_pcd.h ****   * @param  USBx USB peripheral instance register address.
 621:Drivers/STM32H5xx_HAL_Driver/Inc/stm32h5xx_hal_pcd.h ****   * @param  bEpNum Endpoint Number.
 622:Drivers/STM32H5xx_HAL_Driver/Inc/stm32h5xx_hal_pcd.h ****   * @param  wBuf0Addr: buffer 0 address.
 623:Drivers/STM32H5xx_HAL_Driver/Inc/stm32h5xx_hal_pcd.h ****   * @param  wBuf1Addr = buffer 1 address.
 624:Drivers/STM32H5xx_HAL_Driver/Inc/stm32h5xx_hal_pcd.h ****   * @retval None
 625:Drivers/STM32H5xx_HAL_Driver/Inc/stm32h5xx_hal_pcd.h ****   */
 626:Drivers/STM32H5xx_HAL_Driver/Inc/stm32h5xx_hal_pcd.h **** #define PCD_SET_EP_DBUF_ADDR                   USB_DRD_SET_CHEP_DBUF_ADDR
 627:Drivers/STM32H5xx_HAL_Driver/Inc/stm32h5xx_hal_pcd.h **** 
 628:Drivers/STM32H5xx_HAL_Driver/Inc/stm32h5xx_hal_pcd.h **** /**
 629:Drivers/STM32H5xx_HAL_Driver/Inc/stm32h5xx_hal_pcd.h ****   * @brief  Gets buffer 0/1 address of a double buffer endpoint.
 630:Drivers/STM32H5xx_HAL_Driver/Inc/stm32h5xx_hal_pcd.h ****   * @param  USBx USB peripheral instance register address.
 631:Drivers/STM32H5xx_HAL_Driver/Inc/stm32h5xx_hal_pcd.h ****   * @param  bEpNum Endpoint Number.
 632:Drivers/STM32H5xx_HAL_Driver/Inc/stm32h5xx_hal_pcd.h ****   * @param  bDir endpoint dir  EP_DBUF_OUT = OUT
 633:Drivers/STM32H5xx_HAL_Driver/Inc/stm32h5xx_hal_pcd.h ****   *         EP_DBUF_IN  = IN
 634:Drivers/STM32H5xx_HAL_Driver/Inc/stm32h5xx_hal_pcd.h ****   * @param  wCount: Counter value
 635:Drivers/STM32H5xx_HAL_Driver/Inc/stm32h5xx_hal_pcd.h ****   * @retval None
 636:Drivers/STM32H5xx_HAL_Driver/Inc/stm32h5xx_hal_pcd.h ****   */
 637:Drivers/STM32H5xx_HAL_Driver/Inc/stm32h5xx_hal_pcd.h **** #define PCD_SET_EP_DBUF0_CNT                   USB_DRD_SET_CHEP_DBUF0_CNT
 638:Drivers/STM32H5xx_HAL_Driver/Inc/stm32h5xx_hal_pcd.h **** #define PCD_SET_EP_DBUF1_CNT                   USB_DRD_SET_CHEP_DBUF1_CNT
 639:Drivers/STM32H5xx_HAL_Driver/Inc/stm32h5xx_hal_pcd.h **** #define PCD_SET_EP_DBUF_CNT                    USB_DRD_SET_CHEP_DBUF_CNT
 640:Drivers/STM32H5xx_HAL_Driver/Inc/stm32h5xx_hal_pcd.h **** 
 641:Drivers/STM32H5xx_HAL_Driver/Inc/stm32h5xx_hal_pcd.h **** /**
 642:Drivers/STM32H5xx_HAL_Driver/Inc/stm32h5xx_hal_pcd.h ****   * @brief  gets counter of the rx buffer0.
 643:Drivers/STM32H5xx_HAL_Driver/Inc/stm32h5xx_hal_pcd.h ****   * @param  Instance USB peripheral instance register address.
 644:Drivers/STM32H5xx_HAL_Driver/Inc/stm32h5xx_hal_pcd.h ****   * @param  bEpNum channel Number.
 645:Drivers/STM32H5xx_HAL_Driver/Inc/stm32h5xx_hal_pcd.h ****   * @retval Counter value
 646:Drivers/STM32H5xx_HAL_Driver/Inc/stm32h5xx_hal_pcd.h ****   */
 647:Drivers/STM32H5xx_HAL_Driver/Inc/stm32h5xx_hal_pcd.h **** __STATIC_INLINE uint16_t PCD_GET_EP_DBUF0_CNT(const PCD_TypeDef *Instance, uint16_t bEpNum)
 648:Drivers/STM32H5xx_HAL_Driver/Inc/stm32h5xx_hal_pcd.h **** {
  85              		.loc 2 648 1 is_stmt 1 view -0
  86              		.cfi_startproc
  87              		@ args = 0, pretend = 0, frame = 8
  88              		@ frame_needed = 0, uses_anonymous_args = 0
  89              		@ link register save eliminated.
  90              		.loc 2 648 1 is_stmt 0 view .LVU14
  91 0000 82B0     		sub	sp, sp, #8
  92              	.LCFI2:
  93              		.cfi_def_cfa_offset 8
 649:Drivers/STM32H5xx_HAL_Driver/Inc/stm32h5xx_hal_pcd.h ****   UNUSED(Instance);
  94              		.loc 2 649 3 is_stmt 1 view .LVU15
ARM GAS  C:\Users\DELL\AppData\Local\Temp\ccskFJre.s 			page 14


 650:Drivers/STM32H5xx_HAL_Driver/Inc/stm32h5xx_hal_pcd.h ****   __IO uint32_t count = PCD_RX_PMA_CNT;
  95              		.loc 2 650 3 view .LVU16
  96              		.loc 2 650 17 is_stmt 0 view .LVU17
  97 0002 0A23     		movs	r3, #10
  98 0004 0193     		str	r3, [sp, #4]
 651:Drivers/STM32H5xx_HAL_Driver/Inc/stm32h5xx_hal_pcd.h **** 
 652:Drivers/STM32H5xx_HAL_Driver/Inc/stm32h5xx_hal_pcd.h ****   /* WA: few cycles for RX PMA descriptor to update */
 653:Drivers/STM32H5xx_HAL_Driver/Inc/stm32h5xx_hal_pcd.h ****   while (count > 0U)
  99              		.loc 2 653 3 is_stmt 1 view .LVU18
 100              		.loc 2 653 9 is_stmt 0 view .LVU19
 101 0006 02E0     		b	.L6
 102              	.L7:
 654:Drivers/STM32H5xx_HAL_Driver/Inc/stm32h5xx_hal_pcd.h ****   {
 655:Drivers/STM32H5xx_HAL_Driver/Inc/stm32h5xx_hal_pcd.h ****     count--;
 103              		.loc 2 655 5 is_stmt 1 view .LVU20
 104              		.loc 2 655 10 is_stmt 0 view .LVU21
 105 0008 019B     		ldr	r3, [sp, #4]
 106 000a 013B     		subs	r3, r3, #1
 107 000c 0193     		str	r3, [sp, #4]
 108              	.L6:
 653:Drivers/STM32H5xx_HAL_Driver/Inc/stm32h5xx_hal_pcd.h ****   {
 109              		.loc 2 653 16 is_stmt 1 view .LVU22
 110 000e 019B     		ldr	r3, [sp, #4]
 111 0010 002B     		cmp	r3, #0
 112 0012 F9D1     		bne	.L7
 656:Drivers/STM32H5xx_HAL_Driver/Inc/stm32h5xx_hal_pcd.h ****   }
 657:Drivers/STM32H5xx_HAL_Driver/Inc/stm32h5xx_hal_pcd.h **** 
 658:Drivers/STM32H5xx_HAL_Driver/Inc/stm32h5xx_hal_pcd.h ****   return (uint16_t)USB_DRD_GET_CHEP_DBUF0_CNT((Instance), (bEpNum));
 113              		.loc 2 658 3 view .LVU23
 114              		.loc 2 658 20 is_stmt 0 view .LVU24
 115 0014 CB00     		lsls	r3, r1, #3
 116 0016 03F18043 		add	r3, r3, #1073741824
 117 001a 03F5B233 		add	r3, r3, #91136
 118 001e 1868     		ldr	r0, [r3]
 119              	.LVL3:
 659:Drivers/STM32H5xx_HAL_Driver/Inc/stm32h5xx_hal_pcd.h **** }
 120              		.loc 2 659 1 view .LVU25
 121 0020 C0F30940 		ubfx	r0, r0, #16, #10
 122 0024 02B0     		add	sp, sp, #8
 123              	.LCFI3:
 124              		.cfi_def_cfa_offset 0
 125              		@ sp needed
 126 0026 7047     		bx	lr
 127              		.cfi_endproc
 128              	.LFE295:
 130              		.section	.text.PCD_GET_EP_DBUF1_CNT,"ax",%progbits
 131              		.align	1
 132              		.syntax unified
 133              		.thumb
 134              		.thumb_func
 136              	PCD_GET_EP_DBUF1_CNT:
 137              	.LVL4:
 138              	.LFB296:
 660:Drivers/STM32H5xx_HAL_Driver/Inc/stm32h5xx_hal_pcd.h **** 
 661:Drivers/STM32H5xx_HAL_Driver/Inc/stm32h5xx_hal_pcd.h **** /**
 662:Drivers/STM32H5xx_HAL_Driver/Inc/stm32h5xx_hal_pcd.h ****   * @brief  gets counter of the rx buffer1.
 663:Drivers/STM32H5xx_HAL_Driver/Inc/stm32h5xx_hal_pcd.h ****   * @param  Instance USB peripheral instance register address.
ARM GAS  C:\Users\DELL\AppData\Local\Temp\ccskFJre.s 			page 15


 664:Drivers/STM32H5xx_HAL_Driver/Inc/stm32h5xx_hal_pcd.h ****   * @param  bEpNum channel Number.
 665:Drivers/STM32H5xx_HAL_Driver/Inc/stm32h5xx_hal_pcd.h ****   * @retval Counter value
 666:Drivers/STM32H5xx_HAL_Driver/Inc/stm32h5xx_hal_pcd.h ****   */
 667:Drivers/STM32H5xx_HAL_Driver/Inc/stm32h5xx_hal_pcd.h **** __STATIC_INLINE uint16_t PCD_GET_EP_DBUF1_CNT(const PCD_TypeDef *Instance, uint16_t bEpNum)
 668:Drivers/STM32H5xx_HAL_Driver/Inc/stm32h5xx_hal_pcd.h **** {
 139              		.loc 2 668 1 is_stmt 1 view -0
 140              		.cfi_startproc
 141              		@ args = 0, pretend = 0, frame = 8
 142              		@ frame_needed = 0, uses_anonymous_args = 0
 143              		@ link register save eliminated.
 144              		.loc 2 668 1 is_stmt 0 view .LVU27
 145 0000 82B0     		sub	sp, sp, #8
 146              	.LCFI4:
 147              		.cfi_def_cfa_offset 8
 669:Drivers/STM32H5xx_HAL_Driver/Inc/stm32h5xx_hal_pcd.h ****   UNUSED(Instance);
 148              		.loc 2 669 3 is_stmt 1 view .LVU28
 670:Drivers/STM32H5xx_HAL_Driver/Inc/stm32h5xx_hal_pcd.h ****   __IO uint32_t count = PCD_RX_PMA_CNT;
 149              		.loc 2 670 3 view .LVU29
 150              		.loc 2 670 17 is_stmt 0 view .LVU30
 151 0002 0A23     		movs	r3, #10
 152 0004 0193     		str	r3, [sp, #4]
 671:Drivers/STM32H5xx_HAL_Driver/Inc/stm32h5xx_hal_pcd.h **** 
 672:Drivers/STM32H5xx_HAL_Driver/Inc/stm32h5xx_hal_pcd.h ****   /* WA: few cycles for RX PMA descriptor to update */
 673:Drivers/STM32H5xx_HAL_Driver/Inc/stm32h5xx_hal_pcd.h ****   while (count > 0U)
 153              		.loc 2 673 3 is_stmt 1 view .LVU31
 154              		.loc 2 673 9 is_stmt 0 view .LVU32
 155 0006 02E0     		b	.L10
 156              	.L11:
 674:Drivers/STM32H5xx_HAL_Driver/Inc/stm32h5xx_hal_pcd.h ****   {
 675:Drivers/STM32H5xx_HAL_Driver/Inc/stm32h5xx_hal_pcd.h ****     count--;
 157              		.loc 2 675 5 is_stmt 1 view .LVU33
 158              		.loc 2 675 10 is_stmt 0 view .LVU34
 159 0008 019B     		ldr	r3, [sp, #4]
 160 000a 013B     		subs	r3, r3, #1
 161 000c 0193     		str	r3, [sp, #4]
 162              	.L10:
 673:Drivers/STM32H5xx_HAL_Driver/Inc/stm32h5xx_hal_pcd.h ****   {
 163              		.loc 2 673 16 is_stmt 1 view .LVU35
 164 000e 019B     		ldr	r3, [sp, #4]
 165 0010 002B     		cmp	r3, #0
 166 0012 F9D1     		bne	.L11
 676:Drivers/STM32H5xx_HAL_Driver/Inc/stm32h5xx_hal_pcd.h ****   }
 677:Drivers/STM32H5xx_HAL_Driver/Inc/stm32h5xx_hal_pcd.h **** 
 678:Drivers/STM32H5xx_HAL_Driver/Inc/stm32h5xx_hal_pcd.h ****   return (uint16_t)USB_DRD_GET_CHEP_DBUF1_CNT((Instance), (bEpNum));
 167              		.loc 2 678 3 view .LVU36
 168              		.loc 2 678 20 is_stmt 0 view .LVU37
 169 0014 CB00     		lsls	r3, r1, #3
 170 0016 03F18043 		add	r3, r3, #1073741824
 171 001a 03F5B233 		add	r3, r3, #91136
 172 001e 5868     		ldr	r0, [r3, #4]
 173              	.LVL5:
 679:Drivers/STM32H5xx_HAL_Driver/Inc/stm32h5xx_hal_pcd.h **** }
 174              		.loc 2 679 1 view .LVU38
 175 0020 C0F30940 		ubfx	r0, r0, #16, #10
 176 0024 02B0     		add	sp, sp, #8
 177              	.LCFI5:
 178              		.cfi_def_cfa_offset 0
ARM GAS  C:\Users\DELL\AppData\Local\Temp\ccskFJre.s 			page 16


 179              		@ sp needed
 180 0026 7047     		bx	lr
 181              		.cfi_endproc
 182              	.LFE296:
 184              		.section	.text.HAL_PCD_EP_DB_Receive,"ax",%progbits
 185              		.align	1
 186              		.syntax unified
 187              		.thumb
 188              		.thumb_func
 190              	HAL_PCD_EP_DB_Receive:
 191              	.LVL6:
 192              	.LFB331:
   1:Drivers/STM32H5xx_HAL_Driver/Src/stm32h5xx_hal_pcd.c **** /**
   2:Drivers/STM32H5xx_HAL_Driver/Src/stm32h5xx_hal_pcd.c ****   ******************************************************************************
   3:Drivers/STM32H5xx_HAL_Driver/Src/stm32h5xx_hal_pcd.c ****   * @file    stm32h5xx_hal_pcd.c
   4:Drivers/STM32H5xx_HAL_Driver/Src/stm32h5xx_hal_pcd.c ****   * @author  MCD Application Team
   5:Drivers/STM32H5xx_HAL_Driver/Src/stm32h5xx_hal_pcd.c ****   * @brief   PCD HAL module driver.
   6:Drivers/STM32H5xx_HAL_Driver/Src/stm32h5xx_hal_pcd.c ****   *          This file provides firmware functions to manage the following
   7:Drivers/STM32H5xx_HAL_Driver/Src/stm32h5xx_hal_pcd.c ****   *          functionalities of the USB Peripheral Controller:
   8:Drivers/STM32H5xx_HAL_Driver/Src/stm32h5xx_hal_pcd.c ****   *           + Initialization and de-initialization functions
   9:Drivers/STM32H5xx_HAL_Driver/Src/stm32h5xx_hal_pcd.c ****   *           + IO operation functions
  10:Drivers/STM32H5xx_HAL_Driver/Src/stm32h5xx_hal_pcd.c ****   *           + Peripheral Control functions
  11:Drivers/STM32H5xx_HAL_Driver/Src/stm32h5xx_hal_pcd.c ****   *           + Peripheral State functions
  12:Drivers/STM32H5xx_HAL_Driver/Src/stm32h5xx_hal_pcd.c ****   *
  13:Drivers/STM32H5xx_HAL_Driver/Src/stm32h5xx_hal_pcd.c ****   ******************************************************************************
  14:Drivers/STM32H5xx_HAL_Driver/Src/stm32h5xx_hal_pcd.c ****   * @attention
  15:Drivers/STM32H5xx_HAL_Driver/Src/stm32h5xx_hal_pcd.c ****   *
  16:Drivers/STM32H5xx_HAL_Driver/Src/stm32h5xx_hal_pcd.c ****   * Copyright (c) 2023 STMicroelectronics.
  17:Drivers/STM32H5xx_HAL_Driver/Src/stm32h5xx_hal_pcd.c ****   * All rights reserved.
  18:Drivers/STM32H5xx_HAL_Driver/Src/stm32h5xx_hal_pcd.c ****   *
  19:Drivers/STM32H5xx_HAL_Driver/Src/stm32h5xx_hal_pcd.c ****   * This software is licensed under terms that can be found in the LICENSE file
  20:Drivers/STM32H5xx_HAL_Driver/Src/stm32h5xx_hal_pcd.c ****   * in the root directory of this software component.
  21:Drivers/STM32H5xx_HAL_Driver/Src/stm32h5xx_hal_pcd.c ****   * If no LICENSE file comes with this software, it is provided AS-IS.
  22:Drivers/STM32H5xx_HAL_Driver/Src/stm32h5xx_hal_pcd.c ****   *
  23:Drivers/STM32H5xx_HAL_Driver/Src/stm32h5xx_hal_pcd.c ****   ******************************************************************************
  24:Drivers/STM32H5xx_HAL_Driver/Src/stm32h5xx_hal_pcd.c ****   @verbatim
  25:Drivers/STM32H5xx_HAL_Driver/Src/stm32h5xx_hal_pcd.c ****   ==============================================================================
  26:Drivers/STM32H5xx_HAL_Driver/Src/stm32h5xx_hal_pcd.c ****                     ##### How to use this driver #####
  27:Drivers/STM32H5xx_HAL_Driver/Src/stm32h5xx_hal_pcd.c ****   ==============================================================================
  28:Drivers/STM32H5xx_HAL_Driver/Src/stm32h5xx_hal_pcd.c ****     [..]
  29:Drivers/STM32H5xx_HAL_Driver/Src/stm32h5xx_hal_pcd.c ****       The PCD HAL driver can be used as follows:
  30:Drivers/STM32H5xx_HAL_Driver/Src/stm32h5xx_hal_pcd.c **** 
  31:Drivers/STM32H5xx_HAL_Driver/Src/stm32h5xx_hal_pcd.c ****      (#) Declare a PCD_HandleTypeDef handle structure, for example:
  32:Drivers/STM32H5xx_HAL_Driver/Src/stm32h5xx_hal_pcd.c ****          PCD_HandleTypeDef  hpcd;
  33:Drivers/STM32H5xx_HAL_Driver/Src/stm32h5xx_hal_pcd.c **** 
  34:Drivers/STM32H5xx_HAL_Driver/Src/stm32h5xx_hal_pcd.c ****      (#) Fill parameters of Init structure in HCD handle
  35:Drivers/STM32H5xx_HAL_Driver/Src/stm32h5xx_hal_pcd.c **** 
  36:Drivers/STM32H5xx_HAL_Driver/Src/stm32h5xx_hal_pcd.c ****      (#) Call HAL_PCD_Init() API to initialize the PCD peripheral (Core, Device core, ...)
  37:Drivers/STM32H5xx_HAL_Driver/Src/stm32h5xx_hal_pcd.c **** 
  38:Drivers/STM32H5xx_HAL_Driver/Src/stm32h5xx_hal_pcd.c ****      (#) Initialize the PCD low level resources through the HAL_PCD_MspInit() API:
  39:Drivers/STM32H5xx_HAL_Driver/Src/stm32h5xx_hal_pcd.c ****          (##) Enable the PCD/USB Low Level interface clock using
  40:Drivers/STM32H5xx_HAL_Driver/Src/stm32h5xx_hal_pcd.c ****               (+++) __HAL_RCC_USB_CLK_ENABLE(); For USB Device FS peripheral
  41:Drivers/STM32H5xx_HAL_Driver/Src/stm32h5xx_hal_pcd.c ****               (+++) __HAL_RCC_USB_OTG_FS_CLK_ENABLE();
  42:Drivers/STM32H5xx_HAL_Driver/Src/stm32h5xx_hal_pcd.c ****               (+++) __HAL_RCC_USB_OTG_HS_CLK_ENABLE(); (For High Speed Mode)
  43:Drivers/STM32H5xx_HAL_Driver/Src/stm32h5xx_hal_pcd.c **** 
  44:Drivers/STM32H5xx_HAL_Driver/Src/stm32h5xx_hal_pcd.c ****          (##) Initialize the related GPIO clocks
  45:Drivers/STM32H5xx_HAL_Driver/Src/stm32h5xx_hal_pcd.c ****          (##) Configure PCD pin-out
ARM GAS  C:\Users\DELL\AppData\Local\Temp\ccskFJre.s 			page 17


  46:Drivers/STM32H5xx_HAL_Driver/Src/stm32h5xx_hal_pcd.c ****          (##) Configure PCD NVIC interrupt
  47:Drivers/STM32H5xx_HAL_Driver/Src/stm32h5xx_hal_pcd.c **** 
  48:Drivers/STM32H5xx_HAL_Driver/Src/stm32h5xx_hal_pcd.c ****      (#)Associate the Upper USB device stack to the HAL PCD Driver:
  49:Drivers/STM32H5xx_HAL_Driver/Src/stm32h5xx_hal_pcd.c ****          (##) hpcd.pData = pdev;
  50:Drivers/STM32H5xx_HAL_Driver/Src/stm32h5xx_hal_pcd.c **** 
  51:Drivers/STM32H5xx_HAL_Driver/Src/stm32h5xx_hal_pcd.c ****      (#)Enable PCD transmission and reception:
  52:Drivers/STM32H5xx_HAL_Driver/Src/stm32h5xx_hal_pcd.c ****          (##) HAL_PCD_Start();
  53:Drivers/STM32H5xx_HAL_Driver/Src/stm32h5xx_hal_pcd.c **** 
  54:Drivers/STM32H5xx_HAL_Driver/Src/stm32h5xx_hal_pcd.c ****   @endverbatim
  55:Drivers/STM32H5xx_HAL_Driver/Src/stm32h5xx_hal_pcd.c ****   ******************************************************************************
  56:Drivers/STM32H5xx_HAL_Driver/Src/stm32h5xx_hal_pcd.c ****   */
  57:Drivers/STM32H5xx_HAL_Driver/Src/stm32h5xx_hal_pcd.c **** 
  58:Drivers/STM32H5xx_HAL_Driver/Src/stm32h5xx_hal_pcd.c **** /* Includes ------------------------------------------------------------------*/
  59:Drivers/STM32H5xx_HAL_Driver/Src/stm32h5xx_hal_pcd.c **** #include "stm32h5xx_hal.h"
  60:Drivers/STM32H5xx_HAL_Driver/Src/stm32h5xx_hal_pcd.c **** 
  61:Drivers/STM32H5xx_HAL_Driver/Src/stm32h5xx_hal_pcd.c **** /** @addtogroup STM32H5xx_HAL_Driver
  62:Drivers/STM32H5xx_HAL_Driver/Src/stm32h5xx_hal_pcd.c ****   * @{
  63:Drivers/STM32H5xx_HAL_Driver/Src/stm32h5xx_hal_pcd.c ****   */
  64:Drivers/STM32H5xx_HAL_Driver/Src/stm32h5xx_hal_pcd.c **** 
  65:Drivers/STM32H5xx_HAL_Driver/Src/stm32h5xx_hal_pcd.c **** /** @defgroup PCD PCD
  66:Drivers/STM32H5xx_HAL_Driver/Src/stm32h5xx_hal_pcd.c ****   * @brief PCD HAL module driver
  67:Drivers/STM32H5xx_HAL_Driver/Src/stm32h5xx_hal_pcd.c ****   * @{
  68:Drivers/STM32H5xx_HAL_Driver/Src/stm32h5xx_hal_pcd.c ****   */
  69:Drivers/STM32H5xx_HAL_Driver/Src/stm32h5xx_hal_pcd.c **** 
  70:Drivers/STM32H5xx_HAL_Driver/Src/stm32h5xx_hal_pcd.c **** #ifdef HAL_PCD_MODULE_ENABLED
  71:Drivers/STM32H5xx_HAL_Driver/Src/stm32h5xx_hal_pcd.c **** 
  72:Drivers/STM32H5xx_HAL_Driver/Src/stm32h5xx_hal_pcd.c **** #if defined (USB_OTG_FS) || defined (USB_OTG_HS) || defined (USB_DRD_FS)
  73:Drivers/STM32H5xx_HAL_Driver/Src/stm32h5xx_hal_pcd.c **** 
  74:Drivers/STM32H5xx_HAL_Driver/Src/stm32h5xx_hal_pcd.c **** /* Private types -------------------------------------------------------------*/
  75:Drivers/STM32H5xx_HAL_Driver/Src/stm32h5xx_hal_pcd.c **** /* Private variables ---------------------------------------------------------*/
  76:Drivers/STM32H5xx_HAL_Driver/Src/stm32h5xx_hal_pcd.c **** /* Private constants ---------------------------------------------------------*/
  77:Drivers/STM32H5xx_HAL_Driver/Src/stm32h5xx_hal_pcd.c **** /* Private macros ------------------------------------------------------------*/
  78:Drivers/STM32H5xx_HAL_Driver/Src/stm32h5xx_hal_pcd.c **** /** @defgroup PCD_Private_Macros PCD Private Macros
  79:Drivers/STM32H5xx_HAL_Driver/Src/stm32h5xx_hal_pcd.c ****   * @{
  80:Drivers/STM32H5xx_HAL_Driver/Src/stm32h5xx_hal_pcd.c ****   */
  81:Drivers/STM32H5xx_HAL_Driver/Src/stm32h5xx_hal_pcd.c **** #define PCD_MIN(a, b)  (((a) < (b)) ? (a) : (b))
  82:Drivers/STM32H5xx_HAL_Driver/Src/stm32h5xx_hal_pcd.c **** #define PCD_MAX(a, b)  (((a) > (b)) ? (a) : (b))
  83:Drivers/STM32H5xx_HAL_Driver/Src/stm32h5xx_hal_pcd.c **** /**
  84:Drivers/STM32H5xx_HAL_Driver/Src/stm32h5xx_hal_pcd.c ****   * @}
  85:Drivers/STM32H5xx_HAL_Driver/Src/stm32h5xx_hal_pcd.c ****   */
  86:Drivers/STM32H5xx_HAL_Driver/Src/stm32h5xx_hal_pcd.c **** 
  87:Drivers/STM32H5xx_HAL_Driver/Src/stm32h5xx_hal_pcd.c **** /* Private functions prototypes ----------------------------------------------*/
  88:Drivers/STM32H5xx_HAL_Driver/Src/stm32h5xx_hal_pcd.c **** /** @defgroup PCD_Private_Functions PCD Private Functions
  89:Drivers/STM32H5xx_HAL_Driver/Src/stm32h5xx_hal_pcd.c ****   * @{
  90:Drivers/STM32H5xx_HAL_Driver/Src/stm32h5xx_hal_pcd.c ****   */
  91:Drivers/STM32H5xx_HAL_Driver/Src/stm32h5xx_hal_pcd.c **** #if defined (USB_OTG_FS) || defined (USB_OTG_HS)
  92:Drivers/STM32H5xx_HAL_Driver/Src/stm32h5xx_hal_pcd.c **** static HAL_StatusTypeDef PCD_WriteEmptyTxFifo(PCD_HandleTypeDef *hpcd, uint32_t epnum);
  93:Drivers/STM32H5xx_HAL_Driver/Src/stm32h5xx_hal_pcd.c **** static HAL_StatusTypeDef PCD_EP_OutXfrComplete_int(PCD_HandleTypeDef *hpcd, uint32_t epnum);
  94:Drivers/STM32H5xx_HAL_Driver/Src/stm32h5xx_hal_pcd.c **** static HAL_StatusTypeDef PCD_EP_OutSetupPacket_int(PCD_HandleTypeDef *hpcd, uint32_t epnum);
  95:Drivers/STM32H5xx_HAL_Driver/Src/stm32h5xx_hal_pcd.c **** #endif /* defined (USB_OTG_FS) || defined (USB_OTG_HS) */
  96:Drivers/STM32H5xx_HAL_Driver/Src/stm32h5xx_hal_pcd.c **** 
  97:Drivers/STM32H5xx_HAL_Driver/Src/stm32h5xx_hal_pcd.c **** #if defined (USB_DRD_FS)
  98:Drivers/STM32H5xx_HAL_Driver/Src/stm32h5xx_hal_pcd.c **** static HAL_StatusTypeDef PCD_EP_ISR_Handler(PCD_HandleTypeDef *hpcd);
  99:Drivers/STM32H5xx_HAL_Driver/Src/stm32h5xx_hal_pcd.c **** #if (USE_USB_DOUBLE_BUFFER == 1U)
 100:Drivers/STM32H5xx_HAL_Driver/Src/stm32h5xx_hal_pcd.c **** static HAL_StatusTypeDef HAL_PCD_EP_DB_Transmit(PCD_HandleTypeDef *hpcd, PCD_EPTypeDef *ep, uint16_
 101:Drivers/STM32H5xx_HAL_Driver/Src/stm32h5xx_hal_pcd.c **** static uint16_t HAL_PCD_EP_DB_Receive(PCD_HandleTypeDef *hpcd, PCD_EPTypeDef *ep, uint16_t wEPVal);
 102:Drivers/STM32H5xx_HAL_Driver/Src/stm32h5xx_hal_pcd.c **** #endif /* (USE_USB_DOUBLE_BUFFER == 1U) */
ARM GAS  C:\Users\DELL\AppData\Local\Temp\ccskFJre.s 			page 18


 103:Drivers/STM32H5xx_HAL_Driver/Src/stm32h5xx_hal_pcd.c **** #endif /* defined (USB_DRD_FS) */
 104:Drivers/STM32H5xx_HAL_Driver/Src/stm32h5xx_hal_pcd.c **** /**
 105:Drivers/STM32H5xx_HAL_Driver/Src/stm32h5xx_hal_pcd.c ****   * @}
 106:Drivers/STM32H5xx_HAL_Driver/Src/stm32h5xx_hal_pcd.c ****   */
 107:Drivers/STM32H5xx_HAL_Driver/Src/stm32h5xx_hal_pcd.c **** 
 108:Drivers/STM32H5xx_HAL_Driver/Src/stm32h5xx_hal_pcd.c **** /* Exported functions --------------------------------------------------------*/
 109:Drivers/STM32H5xx_HAL_Driver/Src/stm32h5xx_hal_pcd.c **** /** @defgroup PCD_Exported_Functions PCD Exported Functions
 110:Drivers/STM32H5xx_HAL_Driver/Src/stm32h5xx_hal_pcd.c ****   * @{
 111:Drivers/STM32H5xx_HAL_Driver/Src/stm32h5xx_hal_pcd.c ****   */
 112:Drivers/STM32H5xx_HAL_Driver/Src/stm32h5xx_hal_pcd.c **** 
 113:Drivers/STM32H5xx_HAL_Driver/Src/stm32h5xx_hal_pcd.c **** /** @defgroup PCD_Exported_Functions_Group1 Initialization and de-initialization functions
 114:Drivers/STM32H5xx_HAL_Driver/Src/stm32h5xx_hal_pcd.c ****   *  @brief    Initialization and Configuration functions
 115:Drivers/STM32H5xx_HAL_Driver/Src/stm32h5xx_hal_pcd.c ****   *
 116:Drivers/STM32H5xx_HAL_Driver/Src/stm32h5xx_hal_pcd.c **** @verbatim
 117:Drivers/STM32H5xx_HAL_Driver/Src/stm32h5xx_hal_pcd.c ****  ===============================================================================
 118:Drivers/STM32H5xx_HAL_Driver/Src/stm32h5xx_hal_pcd.c ****             ##### Initialization and de-initialization functions #####
 119:Drivers/STM32H5xx_HAL_Driver/Src/stm32h5xx_hal_pcd.c ****  ===============================================================================
 120:Drivers/STM32H5xx_HAL_Driver/Src/stm32h5xx_hal_pcd.c ****     [..]  This section provides functions allowing to:
 121:Drivers/STM32H5xx_HAL_Driver/Src/stm32h5xx_hal_pcd.c **** 
 122:Drivers/STM32H5xx_HAL_Driver/Src/stm32h5xx_hal_pcd.c **** @endverbatim
 123:Drivers/STM32H5xx_HAL_Driver/Src/stm32h5xx_hal_pcd.c ****   * @{
 124:Drivers/STM32H5xx_HAL_Driver/Src/stm32h5xx_hal_pcd.c ****   */
 125:Drivers/STM32H5xx_HAL_Driver/Src/stm32h5xx_hal_pcd.c **** 
 126:Drivers/STM32H5xx_HAL_Driver/Src/stm32h5xx_hal_pcd.c **** /**
 127:Drivers/STM32H5xx_HAL_Driver/Src/stm32h5xx_hal_pcd.c ****   * @brief  Initializes the PCD according to the specified
 128:Drivers/STM32H5xx_HAL_Driver/Src/stm32h5xx_hal_pcd.c ****   *         parameters in the PCD_InitTypeDef and initialize the associated handle.
 129:Drivers/STM32H5xx_HAL_Driver/Src/stm32h5xx_hal_pcd.c ****   * @param  hpcd PCD handle
 130:Drivers/STM32H5xx_HAL_Driver/Src/stm32h5xx_hal_pcd.c ****   * @retval HAL status
 131:Drivers/STM32H5xx_HAL_Driver/Src/stm32h5xx_hal_pcd.c ****   */
 132:Drivers/STM32H5xx_HAL_Driver/Src/stm32h5xx_hal_pcd.c **** HAL_StatusTypeDef HAL_PCD_Init(PCD_HandleTypeDef *hpcd)
 133:Drivers/STM32H5xx_HAL_Driver/Src/stm32h5xx_hal_pcd.c **** {
 134:Drivers/STM32H5xx_HAL_Driver/Src/stm32h5xx_hal_pcd.c **** #if defined (USB_OTG_FS)
 135:Drivers/STM32H5xx_HAL_Driver/Src/stm32h5xx_hal_pcd.c ****   const USB_OTG_GlobalTypeDef *USBx;
 136:Drivers/STM32H5xx_HAL_Driver/Src/stm32h5xx_hal_pcd.c **** #endif /* defined (USB_OTG_FS) */
 137:Drivers/STM32H5xx_HAL_Driver/Src/stm32h5xx_hal_pcd.c ****   uint8_t i;
 138:Drivers/STM32H5xx_HAL_Driver/Src/stm32h5xx_hal_pcd.c **** 
 139:Drivers/STM32H5xx_HAL_Driver/Src/stm32h5xx_hal_pcd.c ****   /* Check the PCD handle allocation */
 140:Drivers/STM32H5xx_HAL_Driver/Src/stm32h5xx_hal_pcd.c ****   if (hpcd == NULL)
 141:Drivers/STM32H5xx_HAL_Driver/Src/stm32h5xx_hal_pcd.c ****   {
 142:Drivers/STM32H5xx_HAL_Driver/Src/stm32h5xx_hal_pcd.c ****     return HAL_ERROR;
 143:Drivers/STM32H5xx_HAL_Driver/Src/stm32h5xx_hal_pcd.c ****   }
 144:Drivers/STM32H5xx_HAL_Driver/Src/stm32h5xx_hal_pcd.c **** 
 145:Drivers/STM32H5xx_HAL_Driver/Src/stm32h5xx_hal_pcd.c ****   /* Check the parameters */
 146:Drivers/STM32H5xx_HAL_Driver/Src/stm32h5xx_hal_pcd.c ****   assert_param(IS_PCD_ALL_INSTANCE(hpcd->Instance));
 147:Drivers/STM32H5xx_HAL_Driver/Src/stm32h5xx_hal_pcd.c **** 
 148:Drivers/STM32H5xx_HAL_Driver/Src/stm32h5xx_hal_pcd.c **** #if defined (USB_OTG_FS)
 149:Drivers/STM32H5xx_HAL_Driver/Src/stm32h5xx_hal_pcd.c ****   USBx = hpcd->Instance;
 150:Drivers/STM32H5xx_HAL_Driver/Src/stm32h5xx_hal_pcd.c **** #endif /* defined (USB_OTG_FS) */
 151:Drivers/STM32H5xx_HAL_Driver/Src/stm32h5xx_hal_pcd.c **** 
 152:Drivers/STM32H5xx_HAL_Driver/Src/stm32h5xx_hal_pcd.c ****   if (hpcd->State == HAL_PCD_STATE_RESET)
 153:Drivers/STM32H5xx_HAL_Driver/Src/stm32h5xx_hal_pcd.c ****   {
 154:Drivers/STM32H5xx_HAL_Driver/Src/stm32h5xx_hal_pcd.c ****     /* Allocate lock resource and initialize it */
 155:Drivers/STM32H5xx_HAL_Driver/Src/stm32h5xx_hal_pcd.c ****     hpcd->Lock = HAL_UNLOCKED;
 156:Drivers/STM32H5xx_HAL_Driver/Src/stm32h5xx_hal_pcd.c **** 
 157:Drivers/STM32H5xx_HAL_Driver/Src/stm32h5xx_hal_pcd.c **** #if (USE_HAL_PCD_REGISTER_CALLBACKS == 1U)
 158:Drivers/STM32H5xx_HAL_Driver/Src/stm32h5xx_hal_pcd.c ****     hpcd->SOFCallback = HAL_PCD_SOFCallback;
 159:Drivers/STM32H5xx_HAL_Driver/Src/stm32h5xx_hal_pcd.c ****     hpcd->SetupStageCallback = HAL_PCD_SetupStageCallback;
ARM GAS  C:\Users\DELL\AppData\Local\Temp\ccskFJre.s 			page 19


 160:Drivers/STM32H5xx_HAL_Driver/Src/stm32h5xx_hal_pcd.c ****     hpcd->ResetCallback = HAL_PCD_ResetCallback;
 161:Drivers/STM32H5xx_HAL_Driver/Src/stm32h5xx_hal_pcd.c ****     hpcd->SuspendCallback = HAL_PCD_SuspendCallback;
 162:Drivers/STM32H5xx_HAL_Driver/Src/stm32h5xx_hal_pcd.c ****     hpcd->ResumeCallback = HAL_PCD_ResumeCallback;
 163:Drivers/STM32H5xx_HAL_Driver/Src/stm32h5xx_hal_pcd.c ****     hpcd->ConnectCallback = HAL_PCD_ConnectCallback;
 164:Drivers/STM32H5xx_HAL_Driver/Src/stm32h5xx_hal_pcd.c ****     hpcd->DisconnectCallback = HAL_PCD_DisconnectCallback;
 165:Drivers/STM32H5xx_HAL_Driver/Src/stm32h5xx_hal_pcd.c ****     hpcd->DataOutStageCallback = HAL_PCD_DataOutStageCallback;
 166:Drivers/STM32H5xx_HAL_Driver/Src/stm32h5xx_hal_pcd.c ****     hpcd->DataInStageCallback = HAL_PCD_DataInStageCallback;
 167:Drivers/STM32H5xx_HAL_Driver/Src/stm32h5xx_hal_pcd.c ****     hpcd->ISOOUTIncompleteCallback = HAL_PCD_ISOOUTIncompleteCallback;
 168:Drivers/STM32H5xx_HAL_Driver/Src/stm32h5xx_hal_pcd.c ****     hpcd->ISOINIncompleteCallback = HAL_PCD_ISOINIncompleteCallback;
 169:Drivers/STM32H5xx_HAL_Driver/Src/stm32h5xx_hal_pcd.c ****     hpcd->LPMCallback = HAL_PCDEx_LPM_Callback;
 170:Drivers/STM32H5xx_HAL_Driver/Src/stm32h5xx_hal_pcd.c ****     hpcd->BCDCallback = HAL_PCDEx_BCD_Callback;
 171:Drivers/STM32H5xx_HAL_Driver/Src/stm32h5xx_hal_pcd.c **** 
 172:Drivers/STM32H5xx_HAL_Driver/Src/stm32h5xx_hal_pcd.c ****     if (hpcd->MspInitCallback == NULL)
 173:Drivers/STM32H5xx_HAL_Driver/Src/stm32h5xx_hal_pcd.c ****     {
 174:Drivers/STM32H5xx_HAL_Driver/Src/stm32h5xx_hal_pcd.c ****       hpcd->MspInitCallback = HAL_PCD_MspInit;
 175:Drivers/STM32H5xx_HAL_Driver/Src/stm32h5xx_hal_pcd.c ****     }
 176:Drivers/STM32H5xx_HAL_Driver/Src/stm32h5xx_hal_pcd.c **** 
 177:Drivers/STM32H5xx_HAL_Driver/Src/stm32h5xx_hal_pcd.c ****     /* Init the low level hardware */
 178:Drivers/STM32H5xx_HAL_Driver/Src/stm32h5xx_hal_pcd.c ****     hpcd->MspInitCallback(hpcd);
 179:Drivers/STM32H5xx_HAL_Driver/Src/stm32h5xx_hal_pcd.c **** #else
 180:Drivers/STM32H5xx_HAL_Driver/Src/stm32h5xx_hal_pcd.c ****     /* Init the low level hardware : GPIO, CLOCK, NVIC... */
 181:Drivers/STM32H5xx_HAL_Driver/Src/stm32h5xx_hal_pcd.c ****     HAL_PCD_MspInit(hpcd);
 182:Drivers/STM32H5xx_HAL_Driver/Src/stm32h5xx_hal_pcd.c **** #endif /* (USE_HAL_PCD_REGISTER_CALLBACKS) */
 183:Drivers/STM32H5xx_HAL_Driver/Src/stm32h5xx_hal_pcd.c ****   }
 184:Drivers/STM32H5xx_HAL_Driver/Src/stm32h5xx_hal_pcd.c **** 
 185:Drivers/STM32H5xx_HAL_Driver/Src/stm32h5xx_hal_pcd.c ****   hpcd->State = HAL_PCD_STATE_BUSY;
 186:Drivers/STM32H5xx_HAL_Driver/Src/stm32h5xx_hal_pcd.c **** 
 187:Drivers/STM32H5xx_HAL_Driver/Src/stm32h5xx_hal_pcd.c **** #if defined (USB_OTG_FS)
 188:Drivers/STM32H5xx_HAL_Driver/Src/stm32h5xx_hal_pcd.c ****   /* Disable DMA mode for FS instance */
 189:Drivers/STM32H5xx_HAL_Driver/Src/stm32h5xx_hal_pcd.c ****   if (USBx == USB_OTG_FS)
 190:Drivers/STM32H5xx_HAL_Driver/Src/stm32h5xx_hal_pcd.c ****   {
 191:Drivers/STM32H5xx_HAL_Driver/Src/stm32h5xx_hal_pcd.c ****     hpcd->Init.dma_enable = 0U;
 192:Drivers/STM32H5xx_HAL_Driver/Src/stm32h5xx_hal_pcd.c ****   }
 193:Drivers/STM32H5xx_HAL_Driver/Src/stm32h5xx_hal_pcd.c **** #endif /* defined (USB_OTG_FS) */
 194:Drivers/STM32H5xx_HAL_Driver/Src/stm32h5xx_hal_pcd.c **** 
 195:Drivers/STM32H5xx_HAL_Driver/Src/stm32h5xx_hal_pcd.c ****   /* Disable the Interrupts */
 196:Drivers/STM32H5xx_HAL_Driver/Src/stm32h5xx_hal_pcd.c ****   __HAL_PCD_DISABLE(hpcd);
 197:Drivers/STM32H5xx_HAL_Driver/Src/stm32h5xx_hal_pcd.c **** 
 198:Drivers/STM32H5xx_HAL_Driver/Src/stm32h5xx_hal_pcd.c ****   /*Init the Core (common init.) */
 199:Drivers/STM32H5xx_HAL_Driver/Src/stm32h5xx_hal_pcd.c ****   if (USB_CoreInit(hpcd->Instance, hpcd->Init) != HAL_OK)
 200:Drivers/STM32H5xx_HAL_Driver/Src/stm32h5xx_hal_pcd.c ****   {
 201:Drivers/STM32H5xx_HAL_Driver/Src/stm32h5xx_hal_pcd.c ****     hpcd->State = HAL_PCD_STATE_ERROR;
 202:Drivers/STM32H5xx_HAL_Driver/Src/stm32h5xx_hal_pcd.c ****     return HAL_ERROR;
 203:Drivers/STM32H5xx_HAL_Driver/Src/stm32h5xx_hal_pcd.c ****   }
 204:Drivers/STM32H5xx_HAL_Driver/Src/stm32h5xx_hal_pcd.c **** 
 205:Drivers/STM32H5xx_HAL_Driver/Src/stm32h5xx_hal_pcd.c ****   /* Force Device Mode */
 206:Drivers/STM32H5xx_HAL_Driver/Src/stm32h5xx_hal_pcd.c ****   if (USB_SetCurrentMode(hpcd->Instance, USB_DEVICE_MODE) != HAL_OK)
 207:Drivers/STM32H5xx_HAL_Driver/Src/stm32h5xx_hal_pcd.c ****   {
 208:Drivers/STM32H5xx_HAL_Driver/Src/stm32h5xx_hal_pcd.c ****     hpcd->State = HAL_PCD_STATE_ERROR;
 209:Drivers/STM32H5xx_HAL_Driver/Src/stm32h5xx_hal_pcd.c ****     return HAL_ERROR;
 210:Drivers/STM32H5xx_HAL_Driver/Src/stm32h5xx_hal_pcd.c ****   }
 211:Drivers/STM32H5xx_HAL_Driver/Src/stm32h5xx_hal_pcd.c **** 
 212:Drivers/STM32H5xx_HAL_Driver/Src/stm32h5xx_hal_pcd.c ****   /* Init endpoints structures */
 213:Drivers/STM32H5xx_HAL_Driver/Src/stm32h5xx_hal_pcd.c ****   for (i = 0U; i < hpcd->Init.dev_endpoints; i++)
 214:Drivers/STM32H5xx_HAL_Driver/Src/stm32h5xx_hal_pcd.c ****   {
 215:Drivers/STM32H5xx_HAL_Driver/Src/stm32h5xx_hal_pcd.c ****     /* Init ep structure */
 216:Drivers/STM32H5xx_HAL_Driver/Src/stm32h5xx_hal_pcd.c ****     hpcd->IN_ep[i].is_in = 1U;
ARM GAS  C:\Users\DELL\AppData\Local\Temp\ccskFJre.s 			page 20


 217:Drivers/STM32H5xx_HAL_Driver/Src/stm32h5xx_hal_pcd.c ****     hpcd->IN_ep[i].num = i;
 218:Drivers/STM32H5xx_HAL_Driver/Src/stm32h5xx_hal_pcd.c **** #if defined (USB_OTG_FS) || defined (USB_OTG_HS)
 219:Drivers/STM32H5xx_HAL_Driver/Src/stm32h5xx_hal_pcd.c ****     hpcd->IN_ep[i].tx_fifo_num = i;
 220:Drivers/STM32H5xx_HAL_Driver/Src/stm32h5xx_hal_pcd.c **** #endif /* defined (USB_OTG_FS) || defined (USB_OTG_HS) */
 221:Drivers/STM32H5xx_HAL_Driver/Src/stm32h5xx_hal_pcd.c ****     /* Control until ep is activated */
 222:Drivers/STM32H5xx_HAL_Driver/Src/stm32h5xx_hal_pcd.c ****     hpcd->IN_ep[i].type = EP_TYPE_CTRL;
 223:Drivers/STM32H5xx_HAL_Driver/Src/stm32h5xx_hal_pcd.c ****     hpcd->IN_ep[i].maxpacket = 0U;
 224:Drivers/STM32H5xx_HAL_Driver/Src/stm32h5xx_hal_pcd.c ****     hpcd->IN_ep[i].xfer_buff = 0U;
 225:Drivers/STM32H5xx_HAL_Driver/Src/stm32h5xx_hal_pcd.c ****     hpcd->IN_ep[i].xfer_len = 0U;
 226:Drivers/STM32H5xx_HAL_Driver/Src/stm32h5xx_hal_pcd.c ****   }
 227:Drivers/STM32H5xx_HAL_Driver/Src/stm32h5xx_hal_pcd.c **** 
 228:Drivers/STM32H5xx_HAL_Driver/Src/stm32h5xx_hal_pcd.c ****   for (i = 0U; i < hpcd->Init.dev_endpoints; i++)
 229:Drivers/STM32H5xx_HAL_Driver/Src/stm32h5xx_hal_pcd.c ****   {
 230:Drivers/STM32H5xx_HAL_Driver/Src/stm32h5xx_hal_pcd.c ****     hpcd->OUT_ep[i].is_in = 0U;
 231:Drivers/STM32H5xx_HAL_Driver/Src/stm32h5xx_hal_pcd.c ****     hpcd->OUT_ep[i].num = i;
 232:Drivers/STM32H5xx_HAL_Driver/Src/stm32h5xx_hal_pcd.c ****     /* Control until ep is activated */
 233:Drivers/STM32H5xx_HAL_Driver/Src/stm32h5xx_hal_pcd.c ****     hpcd->OUT_ep[i].type = EP_TYPE_CTRL;
 234:Drivers/STM32H5xx_HAL_Driver/Src/stm32h5xx_hal_pcd.c ****     hpcd->OUT_ep[i].maxpacket = 0U;
 235:Drivers/STM32H5xx_HAL_Driver/Src/stm32h5xx_hal_pcd.c ****     hpcd->OUT_ep[i].xfer_buff = 0U;
 236:Drivers/STM32H5xx_HAL_Driver/Src/stm32h5xx_hal_pcd.c ****     hpcd->OUT_ep[i].xfer_len = 0U;
 237:Drivers/STM32H5xx_HAL_Driver/Src/stm32h5xx_hal_pcd.c ****   }
 238:Drivers/STM32H5xx_HAL_Driver/Src/stm32h5xx_hal_pcd.c **** 
 239:Drivers/STM32H5xx_HAL_Driver/Src/stm32h5xx_hal_pcd.c ****   /* Init Device */
 240:Drivers/STM32H5xx_HAL_Driver/Src/stm32h5xx_hal_pcd.c ****   if (USB_DevInit(hpcd->Instance, hpcd->Init) != HAL_OK)
 241:Drivers/STM32H5xx_HAL_Driver/Src/stm32h5xx_hal_pcd.c ****   {
 242:Drivers/STM32H5xx_HAL_Driver/Src/stm32h5xx_hal_pcd.c ****     hpcd->State = HAL_PCD_STATE_ERROR;
 243:Drivers/STM32H5xx_HAL_Driver/Src/stm32h5xx_hal_pcd.c ****     return HAL_ERROR;
 244:Drivers/STM32H5xx_HAL_Driver/Src/stm32h5xx_hal_pcd.c ****   }
 245:Drivers/STM32H5xx_HAL_Driver/Src/stm32h5xx_hal_pcd.c **** 
 246:Drivers/STM32H5xx_HAL_Driver/Src/stm32h5xx_hal_pcd.c ****   hpcd->USB_Address = 0U;
 247:Drivers/STM32H5xx_HAL_Driver/Src/stm32h5xx_hal_pcd.c ****   hpcd->State = HAL_PCD_STATE_READY;
 248:Drivers/STM32H5xx_HAL_Driver/Src/stm32h5xx_hal_pcd.c **** 
 249:Drivers/STM32H5xx_HAL_Driver/Src/stm32h5xx_hal_pcd.c ****   /* Activate LPM */
 250:Drivers/STM32H5xx_HAL_Driver/Src/stm32h5xx_hal_pcd.c ****   if (hpcd->Init.lpm_enable == 1U)
 251:Drivers/STM32H5xx_HAL_Driver/Src/stm32h5xx_hal_pcd.c ****   {
 252:Drivers/STM32H5xx_HAL_Driver/Src/stm32h5xx_hal_pcd.c ****     (void)HAL_PCDEx_ActivateLPM(hpcd);
 253:Drivers/STM32H5xx_HAL_Driver/Src/stm32h5xx_hal_pcd.c ****   }
 254:Drivers/STM32H5xx_HAL_Driver/Src/stm32h5xx_hal_pcd.c **** 
 255:Drivers/STM32H5xx_HAL_Driver/Src/stm32h5xx_hal_pcd.c ****   (void)USB_DevDisconnect(hpcd->Instance);
 256:Drivers/STM32H5xx_HAL_Driver/Src/stm32h5xx_hal_pcd.c **** 
 257:Drivers/STM32H5xx_HAL_Driver/Src/stm32h5xx_hal_pcd.c ****   return HAL_OK;
 258:Drivers/STM32H5xx_HAL_Driver/Src/stm32h5xx_hal_pcd.c **** }
 259:Drivers/STM32H5xx_HAL_Driver/Src/stm32h5xx_hal_pcd.c **** 
 260:Drivers/STM32H5xx_HAL_Driver/Src/stm32h5xx_hal_pcd.c **** /**
 261:Drivers/STM32H5xx_HAL_Driver/Src/stm32h5xx_hal_pcd.c ****   * @brief  DeInitializes the PCD peripheral.
 262:Drivers/STM32H5xx_HAL_Driver/Src/stm32h5xx_hal_pcd.c ****   * @param  hpcd PCD handle
 263:Drivers/STM32H5xx_HAL_Driver/Src/stm32h5xx_hal_pcd.c ****   * @retval HAL status
 264:Drivers/STM32H5xx_HAL_Driver/Src/stm32h5xx_hal_pcd.c ****   */
 265:Drivers/STM32H5xx_HAL_Driver/Src/stm32h5xx_hal_pcd.c **** HAL_StatusTypeDef HAL_PCD_DeInit(PCD_HandleTypeDef *hpcd)
 266:Drivers/STM32H5xx_HAL_Driver/Src/stm32h5xx_hal_pcd.c **** {
 267:Drivers/STM32H5xx_HAL_Driver/Src/stm32h5xx_hal_pcd.c ****   /* Check the PCD handle allocation */
 268:Drivers/STM32H5xx_HAL_Driver/Src/stm32h5xx_hal_pcd.c ****   if (hpcd == NULL)
 269:Drivers/STM32H5xx_HAL_Driver/Src/stm32h5xx_hal_pcd.c ****   {
 270:Drivers/STM32H5xx_HAL_Driver/Src/stm32h5xx_hal_pcd.c ****     return HAL_ERROR;
 271:Drivers/STM32H5xx_HAL_Driver/Src/stm32h5xx_hal_pcd.c ****   }
 272:Drivers/STM32H5xx_HAL_Driver/Src/stm32h5xx_hal_pcd.c **** 
 273:Drivers/STM32H5xx_HAL_Driver/Src/stm32h5xx_hal_pcd.c ****   hpcd->State = HAL_PCD_STATE_BUSY;
ARM GAS  C:\Users\DELL\AppData\Local\Temp\ccskFJre.s 			page 21


 274:Drivers/STM32H5xx_HAL_Driver/Src/stm32h5xx_hal_pcd.c **** 
 275:Drivers/STM32H5xx_HAL_Driver/Src/stm32h5xx_hal_pcd.c ****   /* Stop Device */
 276:Drivers/STM32H5xx_HAL_Driver/Src/stm32h5xx_hal_pcd.c ****   if (USB_StopDevice(hpcd->Instance) != HAL_OK)
 277:Drivers/STM32H5xx_HAL_Driver/Src/stm32h5xx_hal_pcd.c ****   {
 278:Drivers/STM32H5xx_HAL_Driver/Src/stm32h5xx_hal_pcd.c ****     return HAL_ERROR;
 279:Drivers/STM32H5xx_HAL_Driver/Src/stm32h5xx_hal_pcd.c ****   }
 280:Drivers/STM32H5xx_HAL_Driver/Src/stm32h5xx_hal_pcd.c **** 
 281:Drivers/STM32H5xx_HAL_Driver/Src/stm32h5xx_hal_pcd.c **** #if (USE_HAL_PCD_REGISTER_CALLBACKS == 1U)
 282:Drivers/STM32H5xx_HAL_Driver/Src/stm32h5xx_hal_pcd.c ****   if (hpcd->MspDeInitCallback == NULL)
 283:Drivers/STM32H5xx_HAL_Driver/Src/stm32h5xx_hal_pcd.c ****   {
 284:Drivers/STM32H5xx_HAL_Driver/Src/stm32h5xx_hal_pcd.c ****     hpcd->MspDeInitCallback = HAL_PCD_MspDeInit; /* Legacy weak MspDeInit  */
 285:Drivers/STM32H5xx_HAL_Driver/Src/stm32h5xx_hal_pcd.c ****   }
 286:Drivers/STM32H5xx_HAL_Driver/Src/stm32h5xx_hal_pcd.c **** 
 287:Drivers/STM32H5xx_HAL_Driver/Src/stm32h5xx_hal_pcd.c ****   /* DeInit the low level hardware */
 288:Drivers/STM32H5xx_HAL_Driver/Src/stm32h5xx_hal_pcd.c ****   hpcd->MspDeInitCallback(hpcd);
 289:Drivers/STM32H5xx_HAL_Driver/Src/stm32h5xx_hal_pcd.c **** #else
 290:Drivers/STM32H5xx_HAL_Driver/Src/stm32h5xx_hal_pcd.c ****   /* DeInit the low level hardware: CLOCK, NVIC.*/
 291:Drivers/STM32H5xx_HAL_Driver/Src/stm32h5xx_hal_pcd.c ****   HAL_PCD_MspDeInit(hpcd);
 292:Drivers/STM32H5xx_HAL_Driver/Src/stm32h5xx_hal_pcd.c **** #endif /* USE_HAL_PCD_REGISTER_CALLBACKS */
 293:Drivers/STM32H5xx_HAL_Driver/Src/stm32h5xx_hal_pcd.c **** 
 294:Drivers/STM32H5xx_HAL_Driver/Src/stm32h5xx_hal_pcd.c ****   hpcd->State = HAL_PCD_STATE_RESET;
 295:Drivers/STM32H5xx_HAL_Driver/Src/stm32h5xx_hal_pcd.c **** 
 296:Drivers/STM32H5xx_HAL_Driver/Src/stm32h5xx_hal_pcd.c ****   return HAL_OK;
 297:Drivers/STM32H5xx_HAL_Driver/Src/stm32h5xx_hal_pcd.c **** }
 298:Drivers/STM32H5xx_HAL_Driver/Src/stm32h5xx_hal_pcd.c **** 
 299:Drivers/STM32H5xx_HAL_Driver/Src/stm32h5xx_hal_pcd.c **** /**
 300:Drivers/STM32H5xx_HAL_Driver/Src/stm32h5xx_hal_pcd.c ****   * @brief  Initializes the PCD MSP.
 301:Drivers/STM32H5xx_HAL_Driver/Src/stm32h5xx_hal_pcd.c ****   * @param  hpcd PCD handle
 302:Drivers/STM32H5xx_HAL_Driver/Src/stm32h5xx_hal_pcd.c ****   * @retval None
 303:Drivers/STM32H5xx_HAL_Driver/Src/stm32h5xx_hal_pcd.c ****   */
 304:Drivers/STM32H5xx_HAL_Driver/Src/stm32h5xx_hal_pcd.c **** __weak void HAL_PCD_MspInit(PCD_HandleTypeDef *hpcd)
 305:Drivers/STM32H5xx_HAL_Driver/Src/stm32h5xx_hal_pcd.c **** {
 306:Drivers/STM32H5xx_HAL_Driver/Src/stm32h5xx_hal_pcd.c ****   /* Prevent unused argument(s) compilation warning */
 307:Drivers/STM32H5xx_HAL_Driver/Src/stm32h5xx_hal_pcd.c ****   UNUSED(hpcd);
 308:Drivers/STM32H5xx_HAL_Driver/Src/stm32h5xx_hal_pcd.c **** 
 309:Drivers/STM32H5xx_HAL_Driver/Src/stm32h5xx_hal_pcd.c ****   /* NOTE : This function should not be modified, when the callback is needed,
 310:Drivers/STM32H5xx_HAL_Driver/Src/stm32h5xx_hal_pcd.c ****             the HAL_PCD_MspInit could be implemented in the user file
 311:Drivers/STM32H5xx_HAL_Driver/Src/stm32h5xx_hal_pcd.c ****    */
 312:Drivers/STM32H5xx_HAL_Driver/Src/stm32h5xx_hal_pcd.c **** }
 313:Drivers/STM32H5xx_HAL_Driver/Src/stm32h5xx_hal_pcd.c **** 
 314:Drivers/STM32H5xx_HAL_Driver/Src/stm32h5xx_hal_pcd.c **** /**
 315:Drivers/STM32H5xx_HAL_Driver/Src/stm32h5xx_hal_pcd.c ****   * @brief  DeInitializes PCD MSP.
 316:Drivers/STM32H5xx_HAL_Driver/Src/stm32h5xx_hal_pcd.c ****   * @param  hpcd PCD handle
 317:Drivers/STM32H5xx_HAL_Driver/Src/stm32h5xx_hal_pcd.c ****   * @retval None
 318:Drivers/STM32H5xx_HAL_Driver/Src/stm32h5xx_hal_pcd.c ****   */
 319:Drivers/STM32H5xx_HAL_Driver/Src/stm32h5xx_hal_pcd.c **** __weak void HAL_PCD_MspDeInit(PCD_HandleTypeDef *hpcd)
 320:Drivers/STM32H5xx_HAL_Driver/Src/stm32h5xx_hal_pcd.c **** {
 321:Drivers/STM32H5xx_HAL_Driver/Src/stm32h5xx_hal_pcd.c ****   /* Prevent unused argument(s) compilation warning */
 322:Drivers/STM32H5xx_HAL_Driver/Src/stm32h5xx_hal_pcd.c ****   UNUSED(hpcd);
 323:Drivers/STM32H5xx_HAL_Driver/Src/stm32h5xx_hal_pcd.c **** 
 324:Drivers/STM32H5xx_HAL_Driver/Src/stm32h5xx_hal_pcd.c ****   /* NOTE : This function should not be modified, when the callback is needed,
 325:Drivers/STM32H5xx_HAL_Driver/Src/stm32h5xx_hal_pcd.c ****             the HAL_PCD_MspDeInit could be implemented in the user file
 326:Drivers/STM32H5xx_HAL_Driver/Src/stm32h5xx_hal_pcd.c ****    */
 327:Drivers/STM32H5xx_HAL_Driver/Src/stm32h5xx_hal_pcd.c **** }
 328:Drivers/STM32H5xx_HAL_Driver/Src/stm32h5xx_hal_pcd.c **** 
 329:Drivers/STM32H5xx_HAL_Driver/Src/stm32h5xx_hal_pcd.c **** #if (USE_HAL_PCD_REGISTER_CALLBACKS == 1U)
 330:Drivers/STM32H5xx_HAL_Driver/Src/stm32h5xx_hal_pcd.c **** /**
ARM GAS  C:\Users\DELL\AppData\Local\Temp\ccskFJre.s 			page 22


 331:Drivers/STM32H5xx_HAL_Driver/Src/stm32h5xx_hal_pcd.c ****   * @brief  Register a User USB PCD Callback
 332:Drivers/STM32H5xx_HAL_Driver/Src/stm32h5xx_hal_pcd.c ****   *         To be used instead of the weak predefined callback
 333:Drivers/STM32H5xx_HAL_Driver/Src/stm32h5xx_hal_pcd.c ****   * @param  hpcd USB PCD handle
 334:Drivers/STM32H5xx_HAL_Driver/Src/stm32h5xx_hal_pcd.c ****   * @param  CallbackID ID of the callback to be registered
 335:Drivers/STM32H5xx_HAL_Driver/Src/stm32h5xx_hal_pcd.c ****   *         This parameter can be one of the following values:
 336:Drivers/STM32H5xx_HAL_Driver/Src/stm32h5xx_hal_pcd.c ****   *          @arg @ref HAL_PCD_SOF_CB_ID USB PCD SOF callback ID
 337:Drivers/STM32H5xx_HAL_Driver/Src/stm32h5xx_hal_pcd.c ****   *          @arg @ref HAL_PCD_SETUPSTAGE_CB_ID USB PCD Setup callback ID
 338:Drivers/STM32H5xx_HAL_Driver/Src/stm32h5xx_hal_pcd.c ****   *          @arg @ref HAL_PCD_RESET_CB_ID USB PCD Reset callback ID
 339:Drivers/STM32H5xx_HAL_Driver/Src/stm32h5xx_hal_pcd.c ****   *          @arg @ref HAL_PCD_SUSPEND_CB_ID USB PCD Suspend callback ID
 340:Drivers/STM32H5xx_HAL_Driver/Src/stm32h5xx_hal_pcd.c ****   *          @arg @ref HAL_PCD_RESUME_CB_ID USB PCD Resume callback ID
 341:Drivers/STM32H5xx_HAL_Driver/Src/stm32h5xx_hal_pcd.c ****   *          @arg @ref HAL_PCD_CONNECT_CB_ID USB PCD Connect callback ID
 342:Drivers/STM32H5xx_HAL_Driver/Src/stm32h5xx_hal_pcd.c ****   *          @arg @ref HAL_PCD_DISCONNECT_CB_ID USB PCD Disconnect callback ID
 343:Drivers/STM32H5xx_HAL_Driver/Src/stm32h5xx_hal_pcd.c ****   *          @arg @ref HAL_PCD_MSPINIT_CB_ID MspDeInit callback ID
 344:Drivers/STM32H5xx_HAL_Driver/Src/stm32h5xx_hal_pcd.c ****   *          @arg @ref HAL_PCD_MSPDEINIT_CB_ID MspDeInit callback ID
 345:Drivers/STM32H5xx_HAL_Driver/Src/stm32h5xx_hal_pcd.c ****   * @param  pCallback pointer to the Callback function
 346:Drivers/STM32H5xx_HAL_Driver/Src/stm32h5xx_hal_pcd.c ****   * @retval HAL status
 347:Drivers/STM32H5xx_HAL_Driver/Src/stm32h5xx_hal_pcd.c ****   */
 348:Drivers/STM32H5xx_HAL_Driver/Src/stm32h5xx_hal_pcd.c **** HAL_StatusTypeDef HAL_PCD_RegisterCallback(PCD_HandleTypeDef *hpcd,
 349:Drivers/STM32H5xx_HAL_Driver/Src/stm32h5xx_hal_pcd.c ****                                            HAL_PCD_CallbackIDTypeDef CallbackID,
 350:Drivers/STM32H5xx_HAL_Driver/Src/stm32h5xx_hal_pcd.c ****                                            pPCD_CallbackTypeDef pCallback)
 351:Drivers/STM32H5xx_HAL_Driver/Src/stm32h5xx_hal_pcd.c **** {
 352:Drivers/STM32H5xx_HAL_Driver/Src/stm32h5xx_hal_pcd.c ****   HAL_StatusTypeDef status = HAL_OK;
 353:Drivers/STM32H5xx_HAL_Driver/Src/stm32h5xx_hal_pcd.c **** 
 354:Drivers/STM32H5xx_HAL_Driver/Src/stm32h5xx_hal_pcd.c ****   if (pCallback == NULL)
 355:Drivers/STM32H5xx_HAL_Driver/Src/stm32h5xx_hal_pcd.c ****   {
 356:Drivers/STM32H5xx_HAL_Driver/Src/stm32h5xx_hal_pcd.c ****     /* Update the error code */
 357:Drivers/STM32H5xx_HAL_Driver/Src/stm32h5xx_hal_pcd.c ****     hpcd->ErrorCode |= HAL_PCD_ERROR_INVALID_CALLBACK;
 358:Drivers/STM32H5xx_HAL_Driver/Src/stm32h5xx_hal_pcd.c ****     return HAL_ERROR;
 359:Drivers/STM32H5xx_HAL_Driver/Src/stm32h5xx_hal_pcd.c ****   }
 360:Drivers/STM32H5xx_HAL_Driver/Src/stm32h5xx_hal_pcd.c ****   /* Process locked */
 361:Drivers/STM32H5xx_HAL_Driver/Src/stm32h5xx_hal_pcd.c ****   __HAL_LOCK(hpcd);
 362:Drivers/STM32H5xx_HAL_Driver/Src/stm32h5xx_hal_pcd.c **** 
 363:Drivers/STM32H5xx_HAL_Driver/Src/stm32h5xx_hal_pcd.c ****   if (hpcd->State == HAL_PCD_STATE_READY)
 364:Drivers/STM32H5xx_HAL_Driver/Src/stm32h5xx_hal_pcd.c ****   {
 365:Drivers/STM32H5xx_HAL_Driver/Src/stm32h5xx_hal_pcd.c ****     switch (CallbackID)
 366:Drivers/STM32H5xx_HAL_Driver/Src/stm32h5xx_hal_pcd.c ****     {
 367:Drivers/STM32H5xx_HAL_Driver/Src/stm32h5xx_hal_pcd.c ****       case HAL_PCD_SOF_CB_ID :
 368:Drivers/STM32H5xx_HAL_Driver/Src/stm32h5xx_hal_pcd.c ****         hpcd->SOFCallback = pCallback;
 369:Drivers/STM32H5xx_HAL_Driver/Src/stm32h5xx_hal_pcd.c ****         break;
 370:Drivers/STM32H5xx_HAL_Driver/Src/stm32h5xx_hal_pcd.c **** 
 371:Drivers/STM32H5xx_HAL_Driver/Src/stm32h5xx_hal_pcd.c ****       case HAL_PCD_SETUPSTAGE_CB_ID :
 372:Drivers/STM32H5xx_HAL_Driver/Src/stm32h5xx_hal_pcd.c ****         hpcd->SetupStageCallback = pCallback;
 373:Drivers/STM32H5xx_HAL_Driver/Src/stm32h5xx_hal_pcd.c ****         break;
 374:Drivers/STM32H5xx_HAL_Driver/Src/stm32h5xx_hal_pcd.c **** 
 375:Drivers/STM32H5xx_HAL_Driver/Src/stm32h5xx_hal_pcd.c ****       case HAL_PCD_RESET_CB_ID :
 376:Drivers/STM32H5xx_HAL_Driver/Src/stm32h5xx_hal_pcd.c ****         hpcd->ResetCallback = pCallback;
 377:Drivers/STM32H5xx_HAL_Driver/Src/stm32h5xx_hal_pcd.c ****         break;
 378:Drivers/STM32H5xx_HAL_Driver/Src/stm32h5xx_hal_pcd.c **** 
 379:Drivers/STM32H5xx_HAL_Driver/Src/stm32h5xx_hal_pcd.c ****       case HAL_PCD_SUSPEND_CB_ID :
 380:Drivers/STM32H5xx_HAL_Driver/Src/stm32h5xx_hal_pcd.c ****         hpcd->SuspendCallback = pCallback;
 381:Drivers/STM32H5xx_HAL_Driver/Src/stm32h5xx_hal_pcd.c ****         break;
 382:Drivers/STM32H5xx_HAL_Driver/Src/stm32h5xx_hal_pcd.c **** 
 383:Drivers/STM32H5xx_HAL_Driver/Src/stm32h5xx_hal_pcd.c ****       case HAL_PCD_RESUME_CB_ID :
 384:Drivers/STM32H5xx_HAL_Driver/Src/stm32h5xx_hal_pcd.c ****         hpcd->ResumeCallback = pCallback;
 385:Drivers/STM32H5xx_HAL_Driver/Src/stm32h5xx_hal_pcd.c ****         break;
 386:Drivers/STM32H5xx_HAL_Driver/Src/stm32h5xx_hal_pcd.c **** 
 387:Drivers/STM32H5xx_HAL_Driver/Src/stm32h5xx_hal_pcd.c ****       case HAL_PCD_CONNECT_CB_ID :
ARM GAS  C:\Users\DELL\AppData\Local\Temp\ccskFJre.s 			page 23


 388:Drivers/STM32H5xx_HAL_Driver/Src/stm32h5xx_hal_pcd.c ****         hpcd->ConnectCallback = pCallback;
 389:Drivers/STM32H5xx_HAL_Driver/Src/stm32h5xx_hal_pcd.c ****         break;
 390:Drivers/STM32H5xx_HAL_Driver/Src/stm32h5xx_hal_pcd.c **** 
 391:Drivers/STM32H5xx_HAL_Driver/Src/stm32h5xx_hal_pcd.c ****       case HAL_PCD_DISCONNECT_CB_ID :
 392:Drivers/STM32H5xx_HAL_Driver/Src/stm32h5xx_hal_pcd.c ****         hpcd->DisconnectCallback = pCallback;
 393:Drivers/STM32H5xx_HAL_Driver/Src/stm32h5xx_hal_pcd.c ****         break;
 394:Drivers/STM32H5xx_HAL_Driver/Src/stm32h5xx_hal_pcd.c **** 
 395:Drivers/STM32H5xx_HAL_Driver/Src/stm32h5xx_hal_pcd.c ****       case HAL_PCD_MSPINIT_CB_ID :
 396:Drivers/STM32H5xx_HAL_Driver/Src/stm32h5xx_hal_pcd.c ****         hpcd->MspInitCallback = pCallback;
 397:Drivers/STM32H5xx_HAL_Driver/Src/stm32h5xx_hal_pcd.c ****         break;
 398:Drivers/STM32H5xx_HAL_Driver/Src/stm32h5xx_hal_pcd.c **** 
 399:Drivers/STM32H5xx_HAL_Driver/Src/stm32h5xx_hal_pcd.c ****       case HAL_PCD_MSPDEINIT_CB_ID :
 400:Drivers/STM32H5xx_HAL_Driver/Src/stm32h5xx_hal_pcd.c ****         hpcd->MspDeInitCallback = pCallback;
 401:Drivers/STM32H5xx_HAL_Driver/Src/stm32h5xx_hal_pcd.c ****         break;
 402:Drivers/STM32H5xx_HAL_Driver/Src/stm32h5xx_hal_pcd.c **** 
 403:Drivers/STM32H5xx_HAL_Driver/Src/stm32h5xx_hal_pcd.c ****       default :
 404:Drivers/STM32H5xx_HAL_Driver/Src/stm32h5xx_hal_pcd.c ****         /* Update the error code */
 405:Drivers/STM32H5xx_HAL_Driver/Src/stm32h5xx_hal_pcd.c ****         hpcd->ErrorCode |= HAL_PCD_ERROR_INVALID_CALLBACK;
 406:Drivers/STM32H5xx_HAL_Driver/Src/stm32h5xx_hal_pcd.c ****         /* Return error status */
 407:Drivers/STM32H5xx_HAL_Driver/Src/stm32h5xx_hal_pcd.c ****         status =  HAL_ERROR;
 408:Drivers/STM32H5xx_HAL_Driver/Src/stm32h5xx_hal_pcd.c ****         break;
 409:Drivers/STM32H5xx_HAL_Driver/Src/stm32h5xx_hal_pcd.c ****     }
 410:Drivers/STM32H5xx_HAL_Driver/Src/stm32h5xx_hal_pcd.c ****   }
 411:Drivers/STM32H5xx_HAL_Driver/Src/stm32h5xx_hal_pcd.c ****   else if (hpcd->State == HAL_PCD_STATE_RESET)
 412:Drivers/STM32H5xx_HAL_Driver/Src/stm32h5xx_hal_pcd.c ****   {
 413:Drivers/STM32H5xx_HAL_Driver/Src/stm32h5xx_hal_pcd.c ****     switch (CallbackID)
 414:Drivers/STM32H5xx_HAL_Driver/Src/stm32h5xx_hal_pcd.c ****     {
 415:Drivers/STM32H5xx_HAL_Driver/Src/stm32h5xx_hal_pcd.c ****       case HAL_PCD_MSPINIT_CB_ID :
 416:Drivers/STM32H5xx_HAL_Driver/Src/stm32h5xx_hal_pcd.c ****         hpcd->MspInitCallback = pCallback;
 417:Drivers/STM32H5xx_HAL_Driver/Src/stm32h5xx_hal_pcd.c ****         break;
 418:Drivers/STM32H5xx_HAL_Driver/Src/stm32h5xx_hal_pcd.c **** 
 419:Drivers/STM32H5xx_HAL_Driver/Src/stm32h5xx_hal_pcd.c ****       case HAL_PCD_MSPDEINIT_CB_ID :
 420:Drivers/STM32H5xx_HAL_Driver/Src/stm32h5xx_hal_pcd.c ****         hpcd->MspDeInitCallback = pCallback;
 421:Drivers/STM32H5xx_HAL_Driver/Src/stm32h5xx_hal_pcd.c ****         break;
 422:Drivers/STM32H5xx_HAL_Driver/Src/stm32h5xx_hal_pcd.c **** 
 423:Drivers/STM32H5xx_HAL_Driver/Src/stm32h5xx_hal_pcd.c ****       default :
 424:Drivers/STM32H5xx_HAL_Driver/Src/stm32h5xx_hal_pcd.c ****         /* Update the error code */
 425:Drivers/STM32H5xx_HAL_Driver/Src/stm32h5xx_hal_pcd.c ****         hpcd->ErrorCode |= HAL_PCD_ERROR_INVALID_CALLBACK;
 426:Drivers/STM32H5xx_HAL_Driver/Src/stm32h5xx_hal_pcd.c ****         /* Return error status */
 427:Drivers/STM32H5xx_HAL_Driver/Src/stm32h5xx_hal_pcd.c ****         status =  HAL_ERROR;
 428:Drivers/STM32H5xx_HAL_Driver/Src/stm32h5xx_hal_pcd.c ****         break;
 429:Drivers/STM32H5xx_HAL_Driver/Src/stm32h5xx_hal_pcd.c ****     }
 430:Drivers/STM32H5xx_HAL_Driver/Src/stm32h5xx_hal_pcd.c ****   }
 431:Drivers/STM32H5xx_HAL_Driver/Src/stm32h5xx_hal_pcd.c ****   else
 432:Drivers/STM32H5xx_HAL_Driver/Src/stm32h5xx_hal_pcd.c ****   {
 433:Drivers/STM32H5xx_HAL_Driver/Src/stm32h5xx_hal_pcd.c ****     /* Update the error code */
 434:Drivers/STM32H5xx_HAL_Driver/Src/stm32h5xx_hal_pcd.c ****     hpcd->ErrorCode |= HAL_PCD_ERROR_INVALID_CALLBACK;
 435:Drivers/STM32H5xx_HAL_Driver/Src/stm32h5xx_hal_pcd.c ****     /* Return error status */
 436:Drivers/STM32H5xx_HAL_Driver/Src/stm32h5xx_hal_pcd.c ****     status =  HAL_ERROR;
 437:Drivers/STM32H5xx_HAL_Driver/Src/stm32h5xx_hal_pcd.c ****   }
 438:Drivers/STM32H5xx_HAL_Driver/Src/stm32h5xx_hal_pcd.c **** 
 439:Drivers/STM32H5xx_HAL_Driver/Src/stm32h5xx_hal_pcd.c ****   /* Release Lock */
 440:Drivers/STM32H5xx_HAL_Driver/Src/stm32h5xx_hal_pcd.c ****   __HAL_UNLOCK(hpcd);
 441:Drivers/STM32H5xx_HAL_Driver/Src/stm32h5xx_hal_pcd.c ****   return status;
 442:Drivers/STM32H5xx_HAL_Driver/Src/stm32h5xx_hal_pcd.c **** }
 443:Drivers/STM32H5xx_HAL_Driver/Src/stm32h5xx_hal_pcd.c **** 
 444:Drivers/STM32H5xx_HAL_Driver/Src/stm32h5xx_hal_pcd.c **** /**
ARM GAS  C:\Users\DELL\AppData\Local\Temp\ccskFJre.s 			page 24


 445:Drivers/STM32H5xx_HAL_Driver/Src/stm32h5xx_hal_pcd.c ****   * @brief  Unregister an USB PCD Callback
 446:Drivers/STM32H5xx_HAL_Driver/Src/stm32h5xx_hal_pcd.c ****   *         USB PCD callback is redirected to the weak predefined callback
 447:Drivers/STM32H5xx_HAL_Driver/Src/stm32h5xx_hal_pcd.c ****   * @param  hpcd USB PCD handle
 448:Drivers/STM32H5xx_HAL_Driver/Src/stm32h5xx_hal_pcd.c ****   * @param  CallbackID ID of the callback to be unregistered
 449:Drivers/STM32H5xx_HAL_Driver/Src/stm32h5xx_hal_pcd.c ****   *         This parameter can be one of the following values:
 450:Drivers/STM32H5xx_HAL_Driver/Src/stm32h5xx_hal_pcd.c ****   *          @arg @ref HAL_PCD_SOF_CB_ID USB PCD SOF callback ID
 451:Drivers/STM32H5xx_HAL_Driver/Src/stm32h5xx_hal_pcd.c ****   *          @arg @ref HAL_PCD_SETUPSTAGE_CB_ID USB PCD Setup callback ID
 452:Drivers/STM32H5xx_HAL_Driver/Src/stm32h5xx_hal_pcd.c ****   *          @arg @ref HAL_PCD_RESET_CB_ID USB PCD Reset callback ID
 453:Drivers/STM32H5xx_HAL_Driver/Src/stm32h5xx_hal_pcd.c ****   *          @arg @ref HAL_PCD_SUSPEND_CB_ID USB PCD Suspend callback ID
 454:Drivers/STM32H5xx_HAL_Driver/Src/stm32h5xx_hal_pcd.c ****   *          @arg @ref HAL_PCD_RESUME_CB_ID USB PCD Resume callback ID
 455:Drivers/STM32H5xx_HAL_Driver/Src/stm32h5xx_hal_pcd.c ****   *          @arg @ref HAL_PCD_CONNECT_CB_ID USB PCD Connect callback ID
 456:Drivers/STM32H5xx_HAL_Driver/Src/stm32h5xx_hal_pcd.c ****   *          @arg @ref HAL_PCD_DISCONNECT_CB_ID USB PCD Disconnect callback ID
 457:Drivers/STM32H5xx_HAL_Driver/Src/stm32h5xx_hal_pcd.c ****   *          @arg @ref HAL_PCD_MSPINIT_CB_ID MspDeInit callback ID
 458:Drivers/STM32H5xx_HAL_Driver/Src/stm32h5xx_hal_pcd.c ****   *          @arg @ref HAL_PCD_MSPDEINIT_CB_ID MspDeInit callback ID
 459:Drivers/STM32H5xx_HAL_Driver/Src/stm32h5xx_hal_pcd.c ****   * @retval HAL status
 460:Drivers/STM32H5xx_HAL_Driver/Src/stm32h5xx_hal_pcd.c ****   */
 461:Drivers/STM32H5xx_HAL_Driver/Src/stm32h5xx_hal_pcd.c **** HAL_StatusTypeDef HAL_PCD_UnRegisterCallback(PCD_HandleTypeDef *hpcd, HAL_PCD_CallbackIDTypeDef Cal
 462:Drivers/STM32H5xx_HAL_Driver/Src/stm32h5xx_hal_pcd.c **** {
 463:Drivers/STM32H5xx_HAL_Driver/Src/stm32h5xx_hal_pcd.c ****   HAL_StatusTypeDef status = HAL_OK;
 464:Drivers/STM32H5xx_HAL_Driver/Src/stm32h5xx_hal_pcd.c **** 
 465:Drivers/STM32H5xx_HAL_Driver/Src/stm32h5xx_hal_pcd.c ****   /* Process locked */
 466:Drivers/STM32H5xx_HAL_Driver/Src/stm32h5xx_hal_pcd.c ****   __HAL_LOCK(hpcd);
 467:Drivers/STM32H5xx_HAL_Driver/Src/stm32h5xx_hal_pcd.c **** 
 468:Drivers/STM32H5xx_HAL_Driver/Src/stm32h5xx_hal_pcd.c ****   /* Setup Legacy weak Callbacks  */
 469:Drivers/STM32H5xx_HAL_Driver/Src/stm32h5xx_hal_pcd.c ****   if (hpcd->State == HAL_PCD_STATE_READY)
 470:Drivers/STM32H5xx_HAL_Driver/Src/stm32h5xx_hal_pcd.c ****   {
 471:Drivers/STM32H5xx_HAL_Driver/Src/stm32h5xx_hal_pcd.c ****     switch (CallbackID)
 472:Drivers/STM32H5xx_HAL_Driver/Src/stm32h5xx_hal_pcd.c ****     {
 473:Drivers/STM32H5xx_HAL_Driver/Src/stm32h5xx_hal_pcd.c ****       case HAL_PCD_SOF_CB_ID :
 474:Drivers/STM32H5xx_HAL_Driver/Src/stm32h5xx_hal_pcd.c ****         hpcd->SOFCallback = HAL_PCD_SOFCallback;
 475:Drivers/STM32H5xx_HAL_Driver/Src/stm32h5xx_hal_pcd.c ****         break;
 476:Drivers/STM32H5xx_HAL_Driver/Src/stm32h5xx_hal_pcd.c **** 
 477:Drivers/STM32H5xx_HAL_Driver/Src/stm32h5xx_hal_pcd.c ****       case HAL_PCD_SETUPSTAGE_CB_ID :
 478:Drivers/STM32H5xx_HAL_Driver/Src/stm32h5xx_hal_pcd.c ****         hpcd->SetupStageCallback = HAL_PCD_SetupStageCallback;
 479:Drivers/STM32H5xx_HAL_Driver/Src/stm32h5xx_hal_pcd.c ****         break;
 480:Drivers/STM32H5xx_HAL_Driver/Src/stm32h5xx_hal_pcd.c **** 
 481:Drivers/STM32H5xx_HAL_Driver/Src/stm32h5xx_hal_pcd.c ****       case HAL_PCD_RESET_CB_ID :
 482:Drivers/STM32H5xx_HAL_Driver/Src/stm32h5xx_hal_pcd.c ****         hpcd->ResetCallback = HAL_PCD_ResetCallback;
 483:Drivers/STM32H5xx_HAL_Driver/Src/stm32h5xx_hal_pcd.c ****         break;
 484:Drivers/STM32H5xx_HAL_Driver/Src/stm32h5xx_hal_pcd.c **** 
 485:Drivers/STM32H5xx_HAL_Driver/Src/stm32h5xx_hal_pcd.c ****       case HAL_PCD_SUSPEND_CB_ID :
 486:Drivers/STM32H5xx_HAL_Driver/Src/stm32h5xx_hal_pcd.c ****         hpcd->SuspendCallback = HAL_PCD_SuspendCallback;
 487:Drivers/STM32H5xx_HAL_Driver/Src/stm32h5xx_hal_pcd.c ****         break;
 488:Drivers/STM32H5xx_HAL_Driver/Src/stm32h5xx_hal_pcd.c **** 
 489:Drivers/STM32H5xx_HAL_Driver/Src/stm32h5xx_hal_pcd.c ****       case HAL_PCD_RESUME_CB_ID :
 490:Drivers/STM32H5xx_HAL_Driver/Src/stm32h5xx_hal_pcd.c ****         hpcd->ResumeCallback = HAL_PCD_ResumeCallback;
 491:Drivers/STM32H5xx_HAL_Driver/Src/stm32h5xx_hal_pcd.c ****         break;
 492:Drivers/STM32H5xx_HAL_Driver/Src/stm32h5xx_hal_pcd.c **** 
 493:Drivers/STM32H5xx_HAL_Driver/Src/stm32h5xx_hal_pcd.c ****       case HAL_PCD_CONNECT_CB_ID :
 494:Drivers/STM32H5xx_HAL_Driver/Src/stm32h5xx_hal_pcd.c ****         hpcd->ConnectCallback = HAL_PCD_ConnectCallback;
 495:Drivers/STM32H5xx_HAL_Driver/Src/stm32h5xx_hal_pcd.c ****         break;
 496:Drivers/STM32H5xx_HAL_Driver/Src/stm32h5xx_hal_pcd.c **** 
 497:Drivers/STM32H5xx_HAL_Driver/Src/stm32h5xx_hal_pcd.c ****       case HAL_PCD_DISCONNECT_CB_ID :
 498:Drivers/STM32H5xx_HAL_Driver/Src/stm32h5xx_hal_pcd.c ****         hpcd->DisconnectCallback = HAL_PCD_DisconnectCallback;
 499:Drivers/STM32H5xx_HAL_Driver/Src/stm32h5xx_hal_pcd.c ****         break;
 500:Drivers/STM32H5xx_HAL_Driver/Src/stm32h5xx_hal_pcd.c **** 
 501:Drivers/STM32H5xx_HAL_Driver/Src/stm32h5xx_hal_pcd.c ****       case HAL_PCD_MSPINIT_CB_ID :
ARM GAS  C:\Users\DELL\AppData\Local\Temp\ccskFJre.s 			page 25


 502:Drivers/STM32H5xx_HAL_Driver/Src/stm32h5xx_hal_pcd.c ****         hpcd->MspInitCallback = HAL_PCD_MspInit;
 503:Drivers/STM32H5xx_HAL_Driver/Src/stm32h5xx_hal_pcd.c ****         break;
 504:Drivers/STM32H5xx_HAL_Driver/Src/stm32h5xx_hal_pcd.c **** 
 505:Drivers/STM32H5xx_HAL_Driver/Src/stm32h5xx_hal_pcd.c ****       case HAL_PCD_MSPDEINIT_CB_ID :
 506:Drivers/STM32H5xx_HAL_Driver/Src/stm32h5xx_hal_pcd.c ****         hpcd->MspDeInitCallback = HAL_PCD_MspDeInit;
 507:Drivers/STM32H5xx_HAL_Driver/Src/stm32h5xx_hal_pcd.c ****         break;
 508:Drivers/STM32H5xx_HAL_Driver/Src/stm32h5xx_hal_pcd.c **** 
 509:Drivers/STM32H5xx_HAL_Driver/Src/stm32h5xx_hal_pcd.c ****       default :
 510:Drivers/STM32H5xx_HAL_Driver/Src/stm32h5xx_hal_pcd.c ****         /* Update the error code */
 511:Drivers/STM32H5xx_HAL_Driver/Src/stm32h5xx_hal_pcd.c ****         hpcd->ErrorCode |= HAL_PCD_ERROR_INVALID_CALLBACK;
 512:Drivers/STM32H5xx_HAL_Driver/Src/stm32h5xx_hal_pcd.c **** 
 513:Drivers/STM32H5xx_HAL_Driver/Src/stm32h5xx_hal_pcd.c ****         /* Return error status */
 514:Drivers/STM32H5xx_HAL_Driver/Src/stm32h5xx_hal_pcd.c ****         status =  HAL_ERROR;
 515:Drivers/STM32H5xx_HAL_Driver/Src/stm32h5xx_hal_pcd.c ****         break;
 516:Drivers/STM32H5xx_HAL_Driver/Src/stm32h5xx_hal_pcd.c ****     }
 517:Drivers/STM32H5xx_HAL_Driver/Src/stm32h5xx_hal_pcd.c ****   }
 518:Drivers/STM32H5xx_HAL_Driver/Src/stm32h5xx_hal_pcd.c ****   else if (hpcd->State == HAL_PCD_STATE_RESET)
 519:Drivers/STM32H5xx_HAL_Driver/Src/stm32h5xx_hal_pcd.c ****   {
 520:Drivers/STM32H5xx_HAL_Driver/Src/stm32h5xx_hal_pcd.c ****     switch (CallbackID)
 521:Drivers/STM32H5xx_HAL_Driver/Src/stm32h5xx_hal_pcd.c ****     {
 522:Drivers/STM32H5xx_HAL_Driver/Src/stm32h5xx_hal_pcd.c ****       case HAL_PCD_MSPINIT_CB_ID :
 523:Drivers/STM32H5xx_HAL_Driver/Src/stm32h5xx_hal_pcd.c ****         hpcd->MspInitCallback = HAL_PCD_MspInit;
 524:Drivers/STM32H5xx_HAL_Driver/Src/stm32h5xx_hal_pcd.c ****         break;
 525:Drivers/STM32H5xx_HAL_Driver/Src/stm32h5xx_hal_pcd.c **** 
 526:Drivers/STM32H5xx_HAL_Driver/Src/stm32h5xx_hal_pcd.c ****       case HAL_PCD_MSPDEINIT_CB_ID :
 527:Drivers/STM32H5xx_HAL_Driver/Src/stm32h5xx_hal_pcd.c ****         hpcd->MspDeInitCallback = HAL_PCD_MspDeInit;
 528:Drivers/STM32H5xx_HAL_Driver/Src/stm32h5xx_hal_pcd.c ****         break;
 529:Drivers/STM32H5xx_HAL_Driver/Src/stm32h5xx_hal_pcd.c **** 
 530:Drivers/STM32H5xx_HAL_Driver/Src/stm32h5xx_hal_pcd.c ****       default :
 531:Drivers/STM32H5xx_HAL_Driver/Src/stm32h5xx_hal_pcd.c ****         /* Update the error code */
 532:Drivers/STM32H5xx_HAL_Driver/Src/stm32h5xx_hal_pcd.c ****         hpcd->ErrorCode |= HAL_PCD_ERROR_INVALID_CALLBACK;
 533:Drivers/STM32H5xx_HAL_Driver/Src/stm32h5xx_hal_pcd.c **** 
 534:Drivers/STM32H5xx_HAL_Driver/Src/stm32h5xx_hal_pcd.c ****         /* Return error status */
 535:Drivers/STM32H5xx_HAL_Driver/Src/stm32h5xx_hal_pcd.c ****         status =  HAL_ERROR;
 536:Drivers/STM32H5xx_HAL_Driver/Src/stm32h5xx_hal_pcd.c ****         break;
 537:Drivers/STM32H5xx_HAL_Driver/Src/stm32h5xx_hal_pcd.c ****     }
 538:Drivers/STM32H5xx_HAL_Driver/Src/stm32h5xx_hal_pcd.c ****   }
 539:Drivers/STM32H5xx_HAL_Driver/Src/stm32h5xx_hal_pcd.c ****   else
 540:Drivers/STM32H5xx_HAL_Driver/Src/stm32h5xx_hal_pcd.c ****   {
 541:Drivers/STM32H5xx_HAL_Driver/Src/stm32h5xx_hal_pcd.c ****     /* Update the error code */
 542:Drivers/STM32H5xx_HAL_Driver/Src/stm32h5xx_hal_pcd.c ****     hpcd->ErrorCode |= HAL_PCD_ERROR_INVALID_CALLBACK;
 543:Drivers/STM32H5xx_HAL_Driver/Src/stm32h5xx_hal_pcd.c **** 
 544:Drivers/STM32H5xx_HAL_Driver/Src/stm32h5xx_hal_pcd.c ****     /* Return error status */
 545:Drivers/STM32H5xx_HAL_Driver/Src/stm32h5xx_hal_pcd.c ****     status =  HAL_ERROR;
 546:Drivers/STM32H5xx_HAL_Driver/Src/stm32h5xx_hal_pcd.c ****   }
 547:Drivers/STM32H5xx_HAL_Driver/Src/stm32h5xx_hal_pcd.c **** 
 548:Drivers/STM32H5xx_HAL_Driver/Src/stm32h5xx_hal_pcd.c ****   /* Release Lock */
 549:Drivers/STM32H5xx_HAL_Driver/Src/stm32h5xx_hal_pcd.c ****   __HAL_UNLOCK(hpcd);
 550:Drivers/STM32H5xx_HAL_Driver/Src/stm32h5xx_hal_pcd.c ****   return status;
 551:Drivers/STM32H5xx_HAL_Driver/Src/stm32h5xx_hal_pcd.c **** }
 552:Drivers/STM32H5xx_HAL_Driver/Src/stm32h5xx_hal_pcd.c **** 
 553:Drivers/STM32H5xx_HAL_Driver/Src/stm32h5xx_hal_pcd.c **** /**
 554:Drivers/STM32H5xx_HAL_Driver/Src/stm32h5xx_hal_pcd.c ****   * @brief  Register USB PCD Data OUT Stage Callback
 555:Drivers/STM32H5xx_HAL_Driver/Src/stm32h5xx_hal_pcd.c ****   *         To be used instead of the weak HAL_PCD_DataOutStageCallback() predefined callback
 556:Drivers/STM32H5xx_HAL_Driver/Src/stm32h5xx_hal_pcd.c ****   * @param  hpcd PCD handle
 557:Drivers/STM32H5xx_HAL_Driver/Src/stm32h5xx_hal_pcd.c ****   * @param  pCallback pointer to the USB PCD Data OUT Stage Callback function
 558:Drivers/STM32H5xx_HAL_Driver/Src/stm32h5xx_hal_pcd.c ****   * @retval HAL status
ARM GAS  C:\Users\DELL\AppData\Local\Temp\ccskFJre.s 			page 26


 559:Drivers/STM32H5xx_HAL_Driver/Src/stm32h5xx_hal_pcd.c ****   */
 560:Drivers/STM32H5xx_HAL_Driver/Src/stm32h5xx_hal_pcd.c **** HAL_StatusTypeDef HAL_PCD_RegisterDataOutStageCallback(PCD_HandleTypeDef *hpcd,
 561:Drivers/STM32H5xx_HAL_Driver/Src/stm32h5xx_hal_pcd.c ****                                                        pPCD_DataOutStageCallbackTypeDef pCallback)
 562:Drivers/STM32H5xx_HAL_Driver/Src/stm32h5xx_hal_pcd.c **** {
 563:Drivers/STM32H5xx_HAL_Driver/Src/stm32h5xx_hal_pcd.c ****   HAL_StatusTypeDef status = HAL_OK;
 564:Drivers/STM32H5xx_HAL_Driver/Src/stm32h5xx_hal_pcd.c **** 
 565:Drivers/STM32H5xx_HAL_Driver/Src/stm32h5xx_hal_pcd.c ****   if (pCallback == NULL)
 566:Drivers/STM32H5xx_HAL_Driver/Src/stm32h5xx_hal_pcd.c ****   {
 567:Drivers/STM32H5xx_HAL_Driver/Src/stm32h5xx_hal_pcd.c ****     /* Update the error code */
 568:Drivers/STM32H5xx_HAL_Driver/Src/stm32h5xx_hal_pcd.c ****     hpcd->ErrorCode |= HAL_PCD_ERROR_INVALID_CALLBACK;
 569:Drivers/STM32H5xx_HAL_Driver/Src/stm32h5xx_hal_pcd.c **** 
 570:Drivers/STM32H5xx_HAL_Driver/Src/stm32h5xx_hal_pcd.c ****     return HAL_ERROR;
 571:Drivers/STM32H5xx_HAL_Driver/Src/stm32h5xx_hal_pcd.c ****   }
 572:Drivers/STM32H5xx_HAL_Driver/Src/stm32h5xx_hal_pcd.c **** 
 573:Drivers/STM32H5xx_HAL_Driver/Src/stm32h5xx_hal_pcd.c ****   /* Process locked */
 574:Drivers/STM32H5xx_HAL_Driver/Src/stm32h5xx_hal_pcd.c ****   __HAL_LOCK(hpcd);
 575:Drivers/STM32H5xx_HAL_Driver/Src/stm32h5xx_hal_pcd.c **** 
 576:Drivers/STM32H5xx_HAL_Driver/Src/stm32h5xx_hal_pcd.c ****   if (hpcd->State == HAL_PCD_STATE_READY)
 577:Drivers/STM32H5xx_HAL_Driver/Src/stm32h5xx_hal_pcd.c ****   {
 578:Drivers/STM32H5xx_HAL_Driver/Src/stm32h5xx_hal_pcd.c ****     hpcd->DataOutStageCallback = pCallback;
 579:Drivers/STM32H5xx_HAL_Driver/Src/stm32h5xx_hal_pcd.c ****   }
 580:Drivers/STM32H5xx_HAL_Driver/Src/stm32h5xx_hal_pcd.c ****   else
 581:Drivers/STM32H5xx_HAL_Driver/Src/stm32h5xx_hal_pcd.c ****   {
 582:Drivers/STM32H5xx_HAL_Driver/Src/stm32h5xx_hal_pcd.c ****     /* Update the error code */
 583:Drivers/STM32H5xx_HAL_Driver/Src/stm32h5xx_hal_pcd.c ****     hpcd->ErrorCode |= HAL_PCD_ERROR_INVALID_CALLBACK;
 584:Drivers/STM32H5xx_HAL_Driver/Src/stm32h5xx_hal_pcd.c **** 
 585:Drivers/STM32H5xx_HAL_Driver/Src/stm32h5xx_hal_pcd.c ****     /* Return error status */
 586:Drivers/STM32H5xx_HAL_Driver/Src/stm32h5xx_hal_pcd.c ****     status =  HAL_ERROR;
 587:Drivers/STM32H5xx_HAL_Driver/Src/stm32h5xx_hal_pcd.c ****   }
 588:Drivers/STM32H5xx_HAL_Driver/Src/stm32h5xx_hal_pcd.c **** 
 589:Drivers/STM32H5xx_HAL_Driver/Src/stm32h5xx_hal_pcd.c ****   /* Release Lock */
 590:Drivers/STM32H5xx_HAL_Driver/Src/stm32h5xx_hal_pcd.c ****   __HAL_UNLOCK(hpcd);
 591:Drivers/STM32H5xx_HAL_Driver/Src/stm32h5xx_hal_pcd.c **** 
 592:Drivers/STM32H5xx_HAL_Driver/Src/stm32h5xx_hal_pcd.c ****   return status;
 593:Drivers/STM32H5xx_HAL_Driver/Src/stm32h5xx_hal_pcd.c **** }
 594:Drivers/STM32H5xx_HAL_Driver/Src/stm32h5xx_hal_pcd.c **** 
 595:Drivers/STM32H5xx_HAL_Driver/Src/stm32h5xx_hal_pcd.c **** /**
 596:Drivers/STM32H5xx_HAL_Driver/Src/stm32h5xx_hal_pcd.c ****   * @brief  Unregister the USB PCD Data OUT Stage Callback
 597:Drivers/STM32H5xx_HAL_Driver/Src/stm32h5xx_hal_pcd.c ****   *         USB PCD Data OUT Stage Callback is redirected to the weak HAL_PCD_DataOutStageCallback(
 598:Drivers/STM32H5xx_HAL_Driver/Src/stm32h5xx_hal_pcd.c ****   * @param  hpcd PCD handle
 599:Drivers/STM32H5xx_HAL_Driver/Src/stm32h5xx_hal_pcd.c ****   * @retval HAL status
 600:Drivers/STM32H5xx_HAL_Driver/Src/stm32h5xx_hal_pcd.c ****   */
 601:Drivers/STM32H5xx_HAL_Driver/Src/stm32h5xx_hal_pcd.c **** HAL_StatusTypeDef HAL_PCD_UnRegisterDataOutStageCallback(PCD_HandleTypeDef *hpcd)
 602:Drivers/STM32H5xx_HAL_Driver/Src/stm32h5xx_hal_pcd.c **** {
 603:Drivers/STM32H5xx_HAL_Driver/Src/stm32h5xx_hal_pcd.c ****   HAL_StatusTypeDef status = HAL_OK;
 604:Drivers/STM32H5xx_HAL_Driver/Src/stm32h5xx_hal_pcd.c **** 
 605:Drivers/STM32H5xx_HAL_Driver/Src/stm32h5xx_hal_pcd.c ****   /* Process locked */
 606:Drivers/STM32H5xx_HAL_Driver/Src/stm32h5xx_hal_pcd.c ****   __HAL_LOCK(hpcd);
 607:Drivers/STM32H5xx_HAL_Driver/Src/stm32h5xx_hal_pcd.c **** 
 608:Drivers/STM32H5xx_HAL_Driver/Src/stm32h5xx_hal_pcd.c ****   if (hpcd->State == HAL_PCD_STATE_READY)
 609:Drivers/STM32H5xx_HAL_Driver/Src/stm32h5xx_hal_pcd.c ****   {
 610:Drivers/STM32H5xx_HAL_Driver/Src/stm32h5xx_hal_pcd.c ****     hpcd->DataOutStageCallback = HAL_PCD_DataOutStageCallback; /* Legacy weak DataOutStageCallback 
 611:Drivers/STM32H5xx_HAL_Driver/Src/stm32h5xx_hal_pcd.c ****   }
 612:Drivers/STM32H5xx_HAL_Driver/Src/stm32h5xx_hal_pcd.c ****   else
 613:Drivers/STM32H5xx_HAL_Driver/Src/stm32h5xx_hal_pcd.c ****   {
 614:Drivers/STM32H5xx_HAL_Driver/Src/stm32h5xx_hal_pcd.c ****     /* Update the error code */
 615:Drivers/STM32H5xx_HAL_Driver/Src/stm32h5xx_hal_pcd.c ****     hpcd->ErrorCode |= HAL_PCD_ERROR_INVALID_CALLBACK;
ARM GAS  C:\Users\DELL\AppData\Local\Temp\ccskFJre.s 			page 27


 616:Drivers/STM32H5xx_HAL_Driver/Src/stm32h5xx_hal_pcd.c **** 
 617:Drivers/STM32H5xx_HAL_Driver/Src/stm32h5xx_hal_pcd.c ****     /* Return error status */
 618:Drivers/STM32H5xx_HAL_Driver/Src/stm32h5xx_hal_pcd.c ****     status =  HAL_ERROR;
 619:Drivers/STM32H5xx_HAL_Driver/Src/stm32h5xx_hal_pcd.c ****   }
 620:Drivers/STM32H5xx_HAL_Driver/Src/stm32h5xx_hal_pcd.c **** 
 621:Drivers/STM32H5xx_HAL_Driver/Src/stm32h5xx_hal_pcd.c ****   /* Release Lock */
 622:Drivers/STM32H5xx_HAL_Driver/Src/stm32h5xx_hal_pcd.c ****   __HAL_UNLOCK(hpcd);
 623:Drivers/STM32H5xx_HAL_Driver/Src/stm32h5xx_hal_pcd.c **** 
 624:Drivers/STM32H5xx_HAL_Driver/Src/stm32h5xx_hal_pcd.c ****   return status;
 625:Drivers/STM32H5xx_HAL_Driver/Src/stm32h5xx_hal_pcd.c **** }
 626:Drivers/STM32H5xx_HAL_Driver/Src/stm32h5xx_hal_pcd.c **** 
 627:Drivers/STM32H5xx_HAL_Driver/Src/stm32h5xx_hal_pcd.c **** /**
 628:Drivers/STM32H5xx_HAL_Driver/Src/stm32h5xx_hal_pcd.c ****   * @brief  Register USB PCD Data IN Stage Callback
 629:Drivers/STM32H5xx_HAL_Driver/Src/stm32h5xx_hal_pcd.c ****   *         To be used instead of the weak HAL_PCD_DataInStageCallback() predefined callback
 630:Drivers/STM32H5xx_HAL_Driver/Src/stm32h5xx_hal_pcd.c ****   * @param  hpcd PCD handle
 631:Drivers/STM32H5xx_HAL_Driver/Src/stm32h5xx_hal_pcd.c ****   * @param  pCallback pointer to the USB PCD Data IN Stage Callback function
 632:Drivers/STM32H5xx_HAL_Driver/Src/stm32h5xx_hal_pcd.c ****   * @retval HAL status
 633:Drivers/STM32H5xx_HAL_Driver/Src/stm32h5xx_hal_pcd.c ****   */
 634:Drivers/STM32H5xx_HAL_Driver/Src/stm32h5xx_hal_pcd.c **** HAL_StatusTypeDef HAL_PCD_RegisterDataInStageCallback(PCD_HandleTypeDef *hpcd,
 635:Drivers/STM32H5xx_HAL_Driver/Src/stm32h5xx_hal_pcd.c ****                                                       pPCD_DataInStageCallbackTypeDef pCallback)
 636:Drivers/STM32H5xx_HAL_Driver/Src/stm32h5xx_hal_pcd.c **** {
 637:Drivers/STM32H5xx_HAL_Driver/Src/stm32h5xx_hal_pcd.c ****   HAL_StatusTypeDef status = HAL_OK;
 638:Drivers/STM32H5xx_HAL_Driver/Src/stm32h5xx_hal_pcd.c **** 
 639:Drivers/STM32H5xx_HAL_Driver/Src/stm32h5xx_hal_pcd.c ****   if (pCallback == NULL)
 640:Drivers/STM32H5xx_HAL_Driver/Src/stm32h5xx_hal_pcd.c ****   {
 641:Drivers/STM32H5xx_HAL_Driver/Src/stm32h5xx_hal_pcd.c ****     /* Update the error code */
 642:Drivers/STM32H5xx_HAL_Driver/Src/stm32h5xx_hal_pcd.c ****     hpcd->ErrorCode |= HAL_PCD_ERROR_INVALID_CALLBACK;
 643:Drivers/STM32H5xx_HAL_Driver/Src/stm32h5xx_hal_pcd.c **** 
 644:Drivers/STM32H5xx_HAL_Driver/Src/stm32h5xx_hal_pcd.c ****     return HAL_ERROR;
 645:Drivers/STM32H5xx_HAL_Driver/Src/stm32h5xx_hal_pcd.c ****   }
 646:Drivers/STM32H5xx_HAL_Driver/Src/stm32h5xx_hal_pcd.c **** 
 647:Drivers/STM32H5xx_HAL_Driver/Src/stm32h5xx_hal_pcd.c ****   /* Process locked */
 648:Drivers/STM32H5xx_HAL_Driver/Src/stm32h5xx_hal_pcd.c ****   __HAL_LOCK(hpcd);
 649:Drivers/STM32H5xx_HAL_Driver/Src/stm32h5xx_hal_pcd.c **** 
 650:Drivers/STM32H5xx_HAL_Driver/Src/stm32h5xx_hal_pcd.c ****   if (hpcd->State == HAL_PCD_STATE_READY)
 651:Drivers/STM32H5xx_HAL_Driver/Src/stm32h5xx_hal_pcd.c ****   {
 652:Drivers/STM32H5xx_HAL_Driver/Src/stm32h5xx_hal_pcd.c ****     hpcd->DataInStageCallback = pCallback;
 653:Drivers/STM32H5xx_HAL_Driver/Src/stm32h5xx_hal_pcd.c ****   }
 654:Drivers/STM32H5xx_HAL_Driver/Src/stm32h5xx_hal_pcd.c ****   else
 655:Drivers/STM32H5xx_HAL_Driver/Src/stm32h5xx_hal_pcd.c ****   {
 656:Drivers/STM32H5xx_HAL_Driver/Src/stm32h5xx_hal_pcd.c ****     /* Update the error code */
 657:Drivers/STM32H5xx_HAL_Driver/Src/stm32h5xx_hal_pcd.c ****     hpcd->ErrorCode |= HAL_PCD_ERROR_INVALID_CALLBACK;
 658:Drivers/STM32H5xx_HAL_Driver/Src/stm32h5xx_hal_pcd.c **** 
 659:Drivers/STM32H5xx_HAL_Driver/Src/stm32h5xx_hal_pcd.c ****     /* Return error status */
 660:Drivers/STM32H5xx_HAL_Driver/Src/stm32h5xx_hal_pcd.c ****     status =  HAL_ERROR;
 661:Drivers/STM32H5xx_HAL_Driver/Src/stm32h5xx_hal_pcd.c ****   }
 662:Drivers/STM32H5xx_HAL_Driver/Src/stm32h5xx_hal_pcd.c **** 
 663:Drivers/STM32H5xx_HAL_Driver/Src/stm32h5xx_hal_pcd.c ****   /* Release Lock */
 664:Drivers/STM32H5xx_HAL_Driver/Src/stm32h5xx_hal_pcd.c ****   __HAL_UNLOCK(hpcd);
 665:Drivers/STM32H5xx_HAL_Driver/Src/stm32h5xx_hal_pcd.c **** 
 666:Drivers/STM32H5xx_HAL_Driver/Src/stm32h5xx_hal_pcd.c ****   return status;
 667:Drivers/STM32H5xx_HAL_Driver/Src/stm32h5xx_hal_pcd.c **** }
 668:Drivers/STM32H5xx_HAL_Driver/Src/stm32h5xx_hal_pcd.c **** 
 669:Drivers/STM32H5xx_HAL_Driver/Src/stm32h5xx_hal_pcd.c **** /**
 670:Drivers/STM32H5xx_HAL_Driver/Src/stm32h5xx_hal_pcd.c ****   * @brief  Unregister the USB PCD Data IN Stage Callback
 671:Drivers/STM32H5xx_HAL_Driver/Src/stm32h5xx_hal_pcd.c ****   *         USB PCD Data OUT Stage Callback is redirected to the weak HAL_PCD_DataInStageCallback()
 672:Drivers/STM32H5xx_HAL_Driver/Src/stm32h5xx_hal_pcd.c ****   * @param  hpcd PCD handle
ARM GAS  C:\Users\DELL\AppData\Local\Temp\ccskFJre.s 			page 28


 673:Drivers/STM32H5xx_HAL_Driver/Src/stm32h5xx_hal_pcd.c ****   * @retval HAL status
 674:Drivers/STM32H5xx_HAL_Driver/Src/stm32h5xx_hal_pcd.c ****   */
 675:Drivers/STM32H5xx_HAL_Driver/Src/stm32h5xx_hal_pcd.c **** HAL_StatusTypeDef HAL_PCD_UnRegisterDataInStageCallback(PCD_HandleTypeDef *hpcd)
 676:Drivers/STM32H5xx_HAL_Driver/Src/stm32h5xx_hal_pcd.c **** {
 677:Drivers/STM32H5xx_HAL_Driver/Src/stm32h5xx_hal_pcd.c ****   HAL_StatusTypeDef status = HAL_OK;
 678:Drivers/STM32H5xx_HAL_Driver/Src/stm32h5xx_hal_pcd.c **** 
 679:Drivers/STM32H5xx_HAL_Driver/Src/stm32h5xx_hal_pcd.c ****   /* Process locked */
 680:Drivers/STM32H5xx_HAL_Driver/Src/stm32h5xx_hal_pcd.c ****   __HAL_LOCK(hpcd);
 681:Drivers/STM32H5xx_HAL_Driver/Src/stm32h5xx_hal_pcd.c **** 
 682:Drivers/STM32H5xx_HAL_Driver/Src/stm32h5xx_hal_pcd.c ****   if (hpcd->State == HAL_PCD_STATE_READY)
 683:Drivers/STM32H5xx_HAL_Driver/Src/stm32h5xx_hal_pcd.c ****   {
 684:Drivers/STM32H5xx_HAL_Driver/Src/stm32h5xx_hal_pcd.c ****     hpcd->DataInStageCallback = HAL_PCD_DataInStageCallback; /* Legacy weak DataInStageCallback  */
 685:Drivers/STM32H5xx_HAL_Driver/Src/stm32h5xx_hal_pcd.c ****   }
 686:Drivers/STM32H5xx_HAL_Driver/Src/stm32h5xx_hal_pcd.c ****   else
 687:Drivers/STM32H5xx_HAL_Driver/Src/stm32h5xx_hal_pcd.c ****   {
 688:Drivers/STM32H5xx_HAL_Driver/Src/stm32h5xx_hal_pcd.c ****     /* Update the error code */
 689:Drivers/STM32H5xx_HAL_Driver/Src/stm32h5xx_hal_pcd.c ****     hpcd->ErrorCode |= HAL_PCD_ERROR_INVALID_CALLBACK;
 690:Drivers/STM32H5xx_HAL_Driver/Src/stm32h5xx_hal_pcd.c **** 
 691:Drivers/STM32H5xx_HAL_Driver/Src/stm32h5xx_hal_pcd.c ****     /* Return error status */
 692:Drivers/STM32H5xx_HAL_Driver/Src/stm32h5xx_hal_pcd.c ****     status =  HAL_ERROR;
 693:Drivers/STM32H5xx_HAL_Driver/Src/stm32h5xx_hal_pcd.c ****   }
 694:Drivers/STM32H5xx_HAL_Driver/Src/stm32h5xx_hal_pcd.c **** 
 695:Drivers/STM32H5xx_HAL_Driver/Src/stm32h5xx_hal_pcd.c ****   /* Release Lock */
 696:Drivers/STM32H5xx_HAL_Driver/Src/stm32h5xx_hal_pcd.c ****   __HAL_UNLOCK(hpcd);
 697:Drivers/STM32H5xx_HAL_Driver/Src/stm32h5xx_hal_pcd.c **** 
 698:Drivers/STM32H5xx_HAL_Driver/Src/stm32h5xx_hal_pcd.c ****   return status;
 699:Drivers/STM32H5xx_HAL_Driver/Src/stm32h5xx_hal_pcd.c **** }
 700:Drivers/STM32H5xx_HAL_Driver/Src/stm32h5xx_hal_pcd.c **** 
 701:Drivers/STM32H5xx_HAL_Driver/Src/stm32h5xx_hal_pcd.c **** /**
 702:Drivers/STM32H5xx_HAL_Driver/Src/stm32h5xx_hal_pcd.c ****   * @brief  Register USB PCD Iso OUT incomplete Callback
 703:Drivers/STM32H5xx_HAL_Driver/Src/stm32h5xx_hal_pcd.c ****   *         To be used instead of the weak HAL_PCD_ISOOUTIncompleteCallback() predefined callback
 704:Drivers/STM32H5xx_HAL_Driver/Src/stm32h5xx_hal_pcd.c ****   * @param  hpcd PCD handle
 705:Drivers/STM32H5xx_HAL_Driver/Src/stm32h5xx_hal_pcd.c ****   * @param  pCallback pointer to the USB PCD Iso OUT incomplete Callback function
 706:Drivers/STM32H5xx_HAL_Driver/Src/stm32h5xx_hal_pcd.c ****   * @retval HAL status
 707:Drivers/STM32H5xx_HAL_Driver/Src/stm32h5xx_hal_pcd.c ****   */
 708:Drivers/STM32H5xx_HAL_Driver/Src/stm32h5xx_hal_pcd.c **** HAL_StatusTypeDef HAL_PCD_RegisterIsoOutIncpltCallback(PCD_HandleTypeDef *hpcd,
 709:Drivers/STM32H5xx_HAL_Driver/Src/stm32h5xx_hal_pcd.c ****                                                        pPCD_IsoOutIncpltCallbackTypeDef pCallback)
 710:Drivers/STM32H5xx_HAL_Driver/Src/stm32h5xx_hal_pcd.c **** {
 711:Drivers/STM32H5xx_HAL_Driver/Src/stm32h5xx_hal_pcd.c ****   HAL_StatusTypeDef status = HAL_OK;
 712:Drivers/STM32H5xx_HAL_Driver/Src/stm32h5xx_hal_pcd.c **** 
 713:Drivers/STM32H5xx_HAL_Driver/Src/stm32h5xx_hal_pcd.c ****   if (pCallback == NULL)
 714:Drivers/STM32H5xx_HAL_Driver/Src/stm32h5xx_hal_pcd.c ****   {
 715:Drivers/STM32H5xx_HAL_Driver/Src/stm32h5xx_hal_pcd.c ****     /* Update the error code */
 716:Drivers/STM32H5xx_HAL_Driver/Src/stm32h5xx_hal_pcd.c ****     hpcd->ErrorCode |= HAL_PCD_ERROR_INVALID_CALLBACK;
 717:Drivers/STM32H5xx_HAL_Driver/Src/stm32h5xx_hal_pcd.c **** 
 718:Drivers/STM32H5xx_HAL_Driver/Src/stm32h5xx_hal_pcd.c ****     return HAL_ERROR;
 719:Drivers/STM32H5xx_HAL_Driver/Src/stm32h5xx_hal_pcd.c ****   }
 720:Drivers/STM32H5xx_HAL_Driver/Src/stm32h5xx_hal_pcd.c **** 
 721:Drivers/STM32H5xx_HAL_Driver/Src/stm32h5xx_hal_pcd.c ****   /* Process locked */
 722:Drivers/STM32H5xx_HAL_Driver/Src/stm32h5xx_hal_pcd.c ****   __HAL_LOCK(hpcd);
 723:Drivers/STM32H5xx_HAL_Driver/Src/stm32h5xx_hal_pcd.c **** 
 724:Drivers/STM32H5xx_HAL_Driver/Src/stm32h5xx_hal_pcd.c ****   if (hpcd->State == HAL_PCD_STATE_READY)
 725:Drivers/STM32H5xx_HAL_Driver/Src/stm32h5xx_hal_pcd.c ****   {
 726:Drivers/STM32H5xx_HAL_Driver/Src/stm32h5xx_hal_pcd.c ****     hpcd->ISOOUTIncompleteCallback = pCallback;
 727:Drivers/STM32H5xx_HAL_Driver/Src/stm32h5xx_hal_pcd.c ****   }
 728:Drivers/STM32H5xx_HAL_Driver/Src/stm32h5xx_hal_pcd.c ****   else
 729:Drivers/STM32H5xx_HAL_Driver/Src/stm32h5xx_hal_pcd.c ****   {
ARM GAS  C:\Users\DELL\AppData\Local\Temp\ccskFJre.s 			page 29


 730:Drivers/STM32H5xx_HAL_Driver/Src/stm32h5xx_hal_pcd.c ****     /* Update the error code */
 731:Drivers/STM32H5xx_HAL_Driver/Src/stm32h5xx_hal_pcd.c ****     hpcd->ErrorCode |= HAL_PCD_ERROR_INVALID_CALLBACK;
 732:Drivers/STM32H5xx_HAL_Driver/Src/stm32h5xx_hal_pcd.c **** 
 733:Drivers/STM32H5xx_HAL_Driver/Src/stm32h5xx_hal_pcd.c ****     /* Return error status */
 734:Drivers/STM32H5xx_HAL_Driver/Src/stm32h5xx_hal_pcd.c ****     status =  HAL_ERROR;
 735:Drivers/STM32H5xx_HAL_Driver/Src/stm32h5xx_hal_pcd.c ****   }
 736:Drivers/STM32H5xx_HAL_Driver/Src/stm32h5xx_hal_pcd.c **** 
 737:Drivers/STM32H5xx_HAL_Driver/Src/stm32h5xx_hal_pcd.c ****   /* Release Lock */
 738:Drivers/STM32H5xx_HAL_Driver/Src/stm32h5xx_hal_pcd.c ****   __HAL_UNLOCK(hpcd);
 739:Drivers/STM32H5xx_HAL_Driver/Src/stm32h5xx_hal_pcd.c **** 
 740:Drivers/STM32H5xx_HAL_Driver/Src/stm32h5xx_hal_pcd.c ****   return status;
 741:Drivers/STM32H5xx_HAL_Driver/Src/stm32h5xx_hal_pcd.c **** }
 742:Drivers/STM32H5xx_HAL_Driver/Src/stm32h5xx_hal_pcd.c **** 
 743:Drivers/STM32H5xx_HAL_Driver/Src/stm32h5xx_hal_pcd.c **** /**
 744:Drivers/STM32H5xx_HAL_Driver/Src/stm32h5xx_hal_pcd.c ****   * @brief  Unregister the USB PCD Iso OUT incomplete Callback
 745:Drivers/STM32H5xx_HAL_Driver/Src/stm32h5xx_hal_pcd.c ****   *         USB PCD Iso OUT incomplete Callback is redirected
 746:Drivers/STM32H5xx_HAL_Driver/Src/stm32h5xx_hal_pcd.c ****   *         to the weak HAL_PCD_ISOOUTIncompleteCallback() predefined callback
 747:Drivers/STM32H5xx_HAL_Driver/Src/stm32h5xx_hal_pcd.c ****   * @param  hpcd PCD handle
 748:Drivers/STM32H5xx_HAL_Driver/Src/stm32h5xx_hal_pcd.c ****   * @retval HAL status
 749:Drivers/STM32H5xx_HAL_Driver/Src/stm32h5xx_hal_pcd.c ****   */
 750:Drivers/STM32H5xx_HAL_Driver/Src/stm32h5xx_hal_pcd.c **** HAL_StatusTypeDef HAL_PCD_UnRegisterIsoOutIncpltCallback(PCD_HandleTypeDef *hpcd)
 751:Drivers/STM32H5xx_HAL_Driver/Src/stm32h5xx_hal_pcd.c **** {
 752:Drivers/STM32H5xx_HAL_Driver/Src/stm32h5xx_hal_pcd.c ****   HAL_StatusTypeDef status = HAL_OK;
 753:Drivers/STM32H5xx_HAL_Driver/Src/stm32h5xx_hal_pcd.c **** 
 754:Drivers/STM32H5xx_HAL_Driver/Src/stm32h5xx_hal_pcd.c ****   /* Process locked */
 755:Drivers/STM32H5xx_HAL_Driver/Src/stm32h5xx_hal_pcd.c ****   __HAL_LOCK(hpcd);
 756:Drivers/STM32H5xx_HAL_Driver/Src/stm32h5xx_hal_pcd.c **** 
 757:Drivers/STM32H5xx_HAL_Driver/Src/stm32h5xx_hal_pcd.c ****   if (hpcd->State == HAL_PCD_STATE_READY)
 758:Drivers/STM32H5xx_HAL_Driver/Src/stm32h5xx_hal_pcd.c ****   {
 759:Drivers/STM32H5xx_HAL_Driver/Src/stm32h5xx_hal_pcd.c ****     hpcd->ISOOUTIncompleteCallback = HAL_PCD_ISOOUTIncompleteCallback; /* Legacy weak ISOOUTIncompl
 760:Drivers/STM32H5xx_HAL_Driver/Src/stm32h5xx_hal_pcd.c ****   }
 761:Drivers/STM32H5xx_HAL_Driver/Src/stm32h5xx_hal_pcd.c ****   else
 762:Drivers/STM32H5xx_HAL_Driver/Src/stm32h5xx_hal_pcd.c ****   {
 763:Drivers/STM32H5xx_HAL_Driver/Src/stm32h5xx_hal_pcd.c ****     /* Update the error code */
 764:Drivers/STM32H5xx_HAL_Driver/Src/stm32h5xx_hal_pcd.c ****     hpcd->ErrorCode |= HAL_PCD_ERROR_INVALID_CALLBACK;
 765:Drivers/STM32H5xx_HAL_Driver/Src/stm32h5xx_hal_pcd.c **** 
 766:Drivers/STM32H5xx_HAL_Driver/Src/stm32h5xx_hal_pcd.c ****     /* Return error status */
 767:Drivers/STM32H5xx_HAL_Driver/Src/stm32h5xx_hal_pcd.c ****     status =  HAL_ERROR;
 768:Drivers/STM32H5xx_HAL_Driver/Src/stm32h5xx_hal_pcd.c ****   }
 769:Drivers/STM32H5xx_HAL_Driver/Src/stm32h5xx_hal_pcd.c **** 
 770:Drivers/STM32H5xx_HAL_Driver/Src/stm32h5xx_hal_pcd.c ****   /* Release Lock */
 771:Drivers/STM32H5xx_HAL_Driver/Src/stm32h5xx_hal_pcd.c ****   __HAL_UNLOCK(hpcd);
 772:Drivers/STM32H5xx_HAL_Driver/Src/stm32h5xx_hal_pcd.c **** 
 773:Drivers/STM32H5xx_HAL_Driver/Src/stm32h5xx_hal_pcd.c ****   return status;
 774:Drivers/STM32H5xx_HAL_Driver/Src/stm32h5xx_hal_pcd.c **** }
 775:Drivers/STM32H5xx_HAL_Driver/Src/stm32h5xx_hal_pcd.c **** 
 776:Drivers/STM32H5xx_HAL_Driver/Src/stm32h5xx_hal_pcd.c **** /**
 777:Drivers/STM32H5xx_HAL_Driver/Src/stm32h5xx_hal_pcd.c ****   * @brief  Register USB PCD Iso IN incomplete Callback
 778:Drivers/STM32H5xx_HAL_Driver/Src/stm32h5xx_hal_pcd.c ****   *         To be used instead of the weak HAL_PCD_ISOINIncompleteCallback() predefined callback
 779:Drivers/STM32H5xx_HAL_Driver/Src/stm32h5xx_hal_pcd.c ****   * @param  hpcd PCD handle
 780:Drivers/STM32H5xx_HAL_Driver/Src/stm32h5xx_hal_pcd.c ****   * @param  pCallback pointer to the USB PCD Iso IN incomplete Callback function
 781:Drivers/STM32H5xx_HAL_Driver/Src/stm32h5xx_hal_pcd.c ****   * @retval HAL status
 782:Drivers/STM32H5xx_HAL_Driver/Src/stm32h5xx_hal_pcd.c ****   */
 783:Drivers/STM32H5xx_HAL_Driver/Src/stm32h5xx_hal_pcd.c **** HAL_StatusTypeDef HAL_PCD_RegisterIsoInIncpltCallback(PCD_HandleTypeDef *hpcd,
 784:Drivers/STM32H5xx_HAL_Driver/Src/stm32h5xx_hal_pcd.c ****                                                       pPCD_IsoInIncpltCallbackTypeDef pCallback)
 785:Drivers/STM32H5xx_HAL_Driver/Src/stm32h5xx_hal_pcd.c **** {
 786:Drivers/STM32H5xx_HAL_Driver/Src/stm32h5xx_hal_pcd.c ****   HAL_StatusTypeDef status = HAL_OK;
ARM GAS  C:\Users\DELL\AppData\Local\Temp\ccskFJre.s 			page 30


 787:Drivers/STM32H5xx_HAL_Driver/Src/stm32h5xx_hal_pcd.c **** 
 788:Drivers/STM32H5xx_HAL_Driver/Src/stm32h5xx_hal_pcd.c ****   if (pCallback == NULL)
 789:Drivers/STM32H5xx_HAL_Driver/Src/stm32h5xx_hal_pcd.c ****   {
 790:Drivers/STM32H5xx_HAL_Driver/Src/stm32h5xx_hal_pcd.c ****     /* Update the error code */
 791:Drivers/STM32H5xx_HAL_Driver/Src/stm32h5xx_hal_pcd.c ****     hpcd->ErrorCode |= HAL_PCD_ERROR_INVALID_CALLBACK;
 792:Drivers/STM32H5xx_HAL_Driver/Src/stm32h5xx_hal_pcd.c **** 
 793:Drivers/STM32H5xx_HAL_Driver/Src/stm32h5xx_hal_pcd.c ****     return HAL_ERROR;
 794:Drivers/STM32H5xx_HAL_Driver/Src/stm32h5xx_hal_pcd.c ****   }
 795:Drivers/STM32H5xx_HAL_Driver/Src/stm32h5xx_hal_pcd.c **** 
 796:Drivers/STM32H5xx_HAL_Driver/Src/stm32h5xx_hal_pcd.c ****   /* Process locked */
 797:Drivers/STM32H5xx_HAL_Driver/Src/stm32h5xx_hal_pcd.c ****   __HAL_LOCK(hpcd);
 798:Drivers/STM32H5xx_HAL_Driver/Src/stm32h5xx_hal_pcd.c **** 
 799:Drivers/STM32H5xx_HAL_Driver/Src/stm32h5xx_hal_pcd.c ****   if (hpcd->State == HAL_PCD_STATE_READY)
 800:Drivers/STM32H5xx_HAL_Driver/Src/stm32h5xx_hal_pcd.c ****   {
 801:Drivers/STM32H5xx_HAL_Driver/Src/stm32h5xx_hal_pcd.c ****     hpcd->ISOINIncompleteCallback = pCallback;
 802:Drivers/STM32H5xx_HAL_Driver/Src/stm32h5xx_hal_pcd.c ****   }
 803:Drivers/STM32H5xx_HAL_Driver/Src/stm32h5xx_hal_pcd.c ****   else
 804:Drivers/STM32H5xx_HAL_Driver/Src/stm32h5xx_hal_pcd.c ****   {
 805:Drivers/STM32H5xx_HAL_Driver/Src/stm32h5xx_hal_pcd.c ****     /* Update the error code */
 806:Drivers/STM32H5xx_HAL_Driver/Src/stm32h5xx_hal_pcd.c ****     hpcd->ErrorCode |= HAL_PCD_ERROR_INVALID_CALLBACK;
 807:Drivers/STM32H5xx_HAL_Driver/Src/stm32h5xx_hal_pcd.c **** 
 808:Drivers/STM32H5xx_HAL_Driver/Src/stm32h5xx_hal_pcd.c ****     /* Return error status */
 809:Drivers/STM32H5xx_HAL_Driver/Src/stm32h5xx_hal_pcd.c ****     status =  HAL_ERROR;
 810:Drivers/STM32H5xx_HAL_Driver/Src/stm32h5xx_hal_pcd.c ****   }
 811:Drivers/STM32H5xx_HAL_Driver/Src/stm32h5xx_hal_pcd.c **** 
 812:Drivers/STM32H5xx_HAL_Driver/Src/stm32h5xx_hal_pcd.c ****   /* Release Lock */
 813:Drivers/STM32H5xx_HAL_Driver/Src/stm32h5xx_hal_pcd.c ****   __HAL_UNLOCK(hpcd);
 814:Drivers/STM32H5xx_HAL_Driver/Src/stm32h5xx_hal_pcd.c **** 
 815:Drivers/STM32H5xx_HAL_Driver/Src/stm32h5xx_hal_pcd.c ****   return status;
 816:Drivers/STM32H5xx_HAL_Driver/Src/stm32h5xx_hal_pcd.c **** }
 817:Drivers/STM32H5xx_HAL_Driver/Src/stm32h5xx_hal_pcd.c **** 
 818:Drivers/STM32H5xx_HAL_Driver/Src/stm32h5xx_hal_pcd.c **** /**
 819:Drivers/STM32H5xx_HAL_Driver/Src/stm32h5xx_hal_pcd.c ****   * @brief  Unregister the USB PCD Iso IN incomplete Callback
 820:Drivers/STM32H5xx_HAL_Driver/Src/stm32h5xx_hal_pcd.c ****   *         USB PCD Iso IN incomplete Callback is redirected
 821:Drivers/STM32H5xx_HAL_Driver/Src/stm32h5xx_hal_pcd.c ****   *         to the weak HAL_PCD_ISOINIncompleteCallback() predefined callback
 822:Drivers/STM32H5xx_HAL_Driver/Src/stm32h5xx_hal_pcd.c ****   * @param  hpcd PCD handle
 823:Drivers/STM32H5xx_HAL_Driver/Src/stm32h5xx_hal_pcd.c ****   * @retval HAL status
 824:Drivers/STM32H5xx_HAL_Driver/Src/stm32h5xx_hal_pcd.c ****   */
 825:Drivers/STM32H5xx_HAL_Driver/Src/stm32h5xx_hal_pcd.c **** HAL_StatusTypeDef HAL_PCD_UnRegisterIsoInIncpltCallback(PCD_HandleTypeDef *hpcd)
 826:Drivers/STM32H5xx_HAL_Driver/Src/stm32h5xx_hal_pcd.c **** {
 827:Drivers/STM32H5xx_HAL_Driver/Src/stm32h5xx_hal_pcd.c ****   HAL_StatusTypeDef status = HAL_OK;
 828:Drivers/STM32H5xx_HAL_Driver/Src/stm32h5xx_hal_pcd.c **** 
 829:Drivers/STM32H5xx_HAL_Driver/Src/stm32h5xx_hal_pcd.c ****   /* Process locked */
 830:Drivers/STM32H5xx_HAL_Driver/Src/stm32h5xx_hal_pcd.c ****   __HAL_LOCK(hpcd);
 831:Drivers/STM32H5xx_HAL_Driver/Src/stm32h5xx_hal_pcd.c **** 
 832:Drivers/STM32H5xx_HAL_Driver/Src/stm32h5xx_hal_pcd.c ****   if (hpcd->State == HAL_PCD_STATE_READY)
 833:Drivers/STM32H5xx_HAL_Driver/Src/stm32h5xx_hal_pcd.c ****   {
 834:Drivers/STM32H5xx_HAL_Driver/Src/stm32h5xx_hal_pcd.c ****     hpcd->ISOINIncompleteCallback = HAL_PCD_ISOINIncompleteCallback; /* Legacy weak ISOINIncomplete
 835:Drivers/STM32H5xx_HAL_Driver/Src/stm32h5xx_hal_pcd.c ****   }
 836:Drivers/STM32H5xx_HAL_Driver/Src/stm32h5xx_hal_pcd.c ****   else
 837:Drivers/STM32H5xx_HAL_Driver/Src/stm32h5xx_hal_pcd.c ****   {
 838:Drivers/STM32H5xx_HAL_Driver/Src/stm32h5xx_hal_pcd.c ****     /* Update the error code */
 839:Drivers/STM32H5xx_HAL_Driver/Src/stm32h5xx_hal_pcd.c ****     hpcd->ErrorCode |= HAL_PCD_ERROR_INVALID_CALLBACK;
 840:Drivers/STM32H5xx_HAL_Driver/Src/stm32h5xx_hal_pcd.c **** 
 841:Drivers/STM32H5xx_HAL_Driver/Src/stm32h5xx_hal_pcd.c ****     /* Return error status */
 842:Drivers/STM32H5xx_HAL_Driver/Src/stm32h5xx_hal_pcd.c ****     status =  HAL_ERROR;
 843:Drivers/STM32H5xx_HAL_Driver/Src/stm32h5xx_hal_pcd.c ****   }
ARM GAS  C:\Users\DELL\AppData\Local\Temp\ccskFJre.s 			page 31


 844:Drivers/STM32H5xx_HAL_Driver/Src/stm32h5xx_hal_pcd.c **** 
 845:Drivers/STM32H5xx_HAL_Driver/Src/stm32h5xx_hal_pcd.c ****   /* Release Lock */
 846:Drivers/STM32H5xx_HAL_Driver/Src/stm32h5xx_hal_pcd.c ****   __HAL_UNLOCK(hpcd);
 847:Drivers/STM32H5xx_HAL_Driver/Src/stm32h5xx_hal_pcd.c **** 
 848:Drivers/STM32H5xx_HAL_Driver/Src/stm32h5xx_hal_pcd.c ****   return status;
 849:Drivers/STM32H5xx_HAL_Driver/Src/stm32h5xx_hal_pcd.c **** }
 850:Drivers/STM32H5xx_HAL_Driver/Src/stm32h5xx_hal_pcd.c **** 
 851:Drivers/STM32H5xx_HAL_Driver/Src/stm32h5xx_hal_pcd.c **** /**
 852:Drivers/STM32H5xx_HAL_Driver/Src/stm32h5xx_hal_pcd.c ****   * @brief  Register USB PCD BCD Callback
 853:Drivers/STM32H5xx_HAL_Driver/Src/stm32h5xx_hal_pcd.c ****   *         To be used instead of the weak HAL_PCDEx_BCD_Callback() predefined callback
 854:Drivers/STM32H5xx_HAL_Driver/Src/stm32h5xx_hal_pcd.c ****   * @param  hpcd PCD handle
 855:Drivers/STM32H5xx_HAL_Driver/Src/stm32h5xx_hal_pcd.c ****   * @param  pCallback pointer to the USB PCD BCD Callback function
 856:Drivers/STM32H5xx_HAL_Driver/Src/stm32h5xx_hal_pcd.c ****   * @retval HAL status
 857:Drivers/STM32H5xx_HAL_Driver/Src/stm32h5xx_hal_pcd.c ****   */
 858:Drivers/STM32H5xx_HAL_Driver/Src/stm32h5xx_hal_pcd.c **** HAL_StatusTypeDef HAL_PCD_RegisterBcdCallback(PCD_HandleTypeDef *hpcd, pPCD_BcdCallbackTypeDef pCal
 859:Drivers/STM32H5xx_HAL_Driver/Src/stm32h5xx_hal_pcd.c **** {
 860:Drivers/STM32H5xx_HAL_Driver/Src/stm32h5xx_hal_pcd.c ****   HAL_StatusTypeDef status = HAL_OK;
 861:Drivers/STM32H5xx_HAL_Driver/Src/stm32h5xx_hal_pcd.c **** 
 862:Drivers/STM32H5xx_HAL_Driver/Src/stm32h5xx_hal_pcd.c ****   if (pCallback == NULL)
 863:Drivers/STM32H5xx_HAL_Driver/Src/stm32h5xx_hal_pcd.c ****   {
 864:Drivers/STM32H5xx_HAL_Driver/Src/stm32h5xx_hal_pcd.c ****     /* Update the error code */
 865:Drivers/STM32H5xx_HAL_Driver/Src/stm32h5xx_hal_pcd.c ****     hpcd->ErrorCode |= HAL_PCD_ERROR_INVALID_CALLBACK;
 866:Drivers/STM32H5xx_HAL_Driver/Src/stm32h5xx_hal_pcd.c **** 
 867:Drivers/STM32H5xx_HAL_Driver/Src/stm32h5xx_hal_pcd.c ****     return HAL_ERROR;
 868:Drivers/STM32H5xx_HAL_Driver/Src/stm32h5xx_hal_pcd.c ****   }
 869:Drivers/STM32H5xx_HAL_Driver/Src/stm32h5xx_hal_pcd.c **** 
 870:Drivers/STM32H5xx_HAL_Driver/Src/stm32h5xx_hal_pcd.c ****   /* Process locked */
 871:Drivers/STM32H5xx_HAL_Driver/Src/stm32h5xx_hal_pcd.c ****   __HAL_LOCK(hpcd);
 872:Drivers/STM32H5xx_HAL_Driver/Src/stm32h5xx_hal_pcd.c **** 
 873:Drivers/STM32H5xx_HAL_Driver/Src/stm32h5xx_hal_pcd.c ****   if (hpcd->State == HAL_PCD_STATE_READY)
 874:Drivers/STM32H5xx_HAL_Driver/Src/stm32h5xx_hal_pcd.c ****   {
 875:Drivers/STM32H5xx_HAL_Driver/Src/stm32h5xx_hal_pcd.c ****     hpcd->BCDCallback = pCallback;
 876:Drivers/STM32H5xx_HAL_Driver/Src/stm32h5xx_hal_pcd.c ****   }
 877:Drivers/STM32H5xx_HAL_Driver/Src/stm32h5xx_hal_pcd.c ****   else
 878:Drivers/STM32H5xx_HAL_Driver/Src/stm32h5xx_hal_pcd.c ****   {
 879:Drivers/STM32H5xx_HAL_Driver/Src/stm32h5xx_hal_pcd.c ****     /* Update the error code */
 880:Drivers/STM32H5xx_HAL_Driver/Src/stm32h5xx_hal_pcd.c ****     hpcd->ErrorCode |= HAL_PCD_ERROR_INVALID_CALLBACK;
 881:Drivers/STM32H5xx_HAL_Driver/Src/stm32h5xx_hal_pcd.c **** 
 882:Drivers/STM32H5xx_HAL_Driver/Src/stm32h5xx_hal_pcd.c ****     /* Return error status */
 883:Drivers/STM32H5xx_HAL_Driver/Src/stm32h5xx_hal_pcd.c ****     status =  HAL_ERROR;
 884:Drivers/STM32H5xx_HAL_Driver/Src/stm32h5xx_hal_pcd.c ****   }
 885:Drivers/STM32H5xx_HAL_Driver/Src/stm32h5xx_hal_pcd.c **** 
 886:Drivers/STM32H5xx_HAL_Driver/Src/stm32h5xx_hal_pcd.c ****   /* Release Lock */
 887:Drivers/STM32H5xx_HAL_Driver/Src/stm32h5xx_hal_pcd.c ****   __HAL_UNLOCK(hpcd);
 888:Drivers/STM32H5xx_HAL_Driver/Src/stm32h5xx_hal_pcd.c **** 
 889:Drivers/STM32H5xx_HAL_Driver/Src/stm32h5xx_hal_pcd.c ****   return status;
 890:Drivers/STM32H5xx_HAL_Driver/Src/stm32h5xx_hal_pcd.c **** }
 891:Drivers/STM32H5xx_HAL_Driver/Src/stm32h5xx_hal_pcd.c **** 
 892:Drivers/STM32H5xx_HAL_Driver/Src/stm32h5xx_hal_pcd.c **** /**
 893:Drivers/STM32H5xx_HAL_Driver/Src/stm32h5xx_hal_pcd.c ****   * @brief  Unregister the USB PCD BCD Callback
 894:Drivers/STM32H5xx_HAL_Driver/Src/stm32h5xx_hal_pcd.c ****   *         USB BCD Callback is redirected to the weak HAL_PCDEx_BCD_Callback() predefined callback
 895:Drivers/STM32H5xx_HAL_Driver/Src/stm32h5xx_hal_pcd.c ****   * @param  hpcd PCD handle
 896:Drivers/STM32H5xx_HAL_Driver/Src/stm32h5xx_hal_pcd.c ****   * @retval HAL status
 897:Drivers/STM32H5xx_HAL_Driver/Src/stm32h5xx_hal_pcd.c ****   */
 898:Drivers/STM32H5xx_HAL_Driver/Src/stm32h5xx_hal_pcd.c **** HAL_StatusTypeDef HAL_PCD_UnRegisterBcdCallback(PCD_HandleTypeDef *hpcd)
 899:Drivers/STM32H5xx_HAL_Driver/Src/stm32h5xx_hal_pcd.c **** {
 900:Drivers/STM32H5xx_HAL_Driver/Src/stm32h5xx_hal_pcd.c ****   HAL_StatusTypeDef status = HAL_OK;
ARM GAS  C:\Users\DELL\AppData\Local\Temp\ccskFJre.s 			page 32


 901:Drivers/STM32H5xx_HAL_Driver/Src/stm32h5xx_hal_pcd.c **** 
 902:Drivers/STM32H5xx_HAL_Driver/Src/stm32h5xx_hal_pcd.c ****   /* Process locked */
 903:Drivers/STM32H5xx_HAL_Driver/Src/stm32h5xx_hal_pcd.c ****   __HAL_LOCK(hpcd);
 904:Drivers/STM32H5xx_HAL_Driver/Src/stm32h5xx_hal_pcd.c **** 
 905:Drivers/STM32H5xx_HAL_Driver/Src/stm32h5xx_hal_pcd.c ****   if (hpcd->State == HAL_PCD_STATE_READY)
 906:Drivers/STM32H5xx_HAL_Driver/Src/stm32h5xx_hal_pcd.c ****   {
 907:Drivers/STM32H5xx_HAL_Driver/Src/stm32h5xx_hal_pcd.c ****     hpcd->BCDCallback = HAL_PCDEx_BCD_Callback; /* Legacy weak HAL_PCDEx_BCD_Callback  */
 908:Drivers/STM32H5xx_HAL_Driver/Src/stm32h5xx_hal_pcd.c ****   }
 909:Drivers/STM32H5xx_HAL_Driver/Src/stm32h5xx_hal_pcd.c ****   else
 910:Drivers/STM32H5xx_HAL_Driver/Src/stm32h5xx_hal_pcd.c ****   {
 911:Drivers/STM32H5xx_HAL_Driver/Src/stm32h5xx_hal_pcd.c ****     /* Update the error code */
 912:Drivers/STM32H5xx_HAL_Driver/Src/stm32h5xx_hal_pcd.c ****     hpcd->ErrorCode |= HAL_PCD_ERROR_INVALID_CALLBACK;
 913:Drivers/STM32H5xx_HAL_Driver/Src/stm32h5xx_hal_pcd.c **** 
 914:Drivers/STM32H5xx_HAL_Driver/Src/stm32h5xx_hal_pcd.c ****     /* Return error status */
 915:Drivers/STM32H5xx_HAL_Driver/Src/stm32h5xx_hal_pcd.c ****     status =  HAL_ERROR;
 916:Drivers/STM32H5xx_HAL_Driver/Src/stm32h5xx_hal_pcd.c ****   }
 917:Drivers/STM32H5xx_HAL_Driver/Src/stm32h5xx_hal_pcd.c **** 
 918:Drivers/STM32H5xx_HAL_Driver/Src/stm32h5xx_hal_pcd.c ****   /* Release Lock */
 919:Drivers/STM32H5xx_HAL_Driver/Src/stm32h5xx_hal_pcd.c ****   __HAL_UNLOCK(hpcd);
 920:Drivers/STM32H5xx_HAL_Driver/Src/stm32h5xx_hal_pcd.c **** 
 921:Drivers/STM32H5xx_HAL_Driver/Src/stm32h5xx_hal_pcd.c ****   return status;
 922:Drivers/STM32H5xx_HAL_Driver/Src/stm32h5xx_hal_pcd.c **** }
 923:Drivers/STM32H5xx_HAL_Driver/Src/stm32h5xx_hal_pcd.c **** 
 924:Drivers/STM32H5xx_HAL_Driver/Src/stm32h5xx_hal_pcd.c **** /**
 925:Drivers/STM32H5xx_HAL_Driver/Src/stm32h5xx_hal_pcd.c ****   * @brief  Register USB PCD LPM Callback
 926:Drivers/STM32H5xx_HAL_Driver/Src/stm32h5xx_hal_pcd.c ****   *         To be used instead of the weak HAL_PCDEx_LPM_Callback() predefined callback
 927:Drivers/STM32H5xx_HAL_Driver/Src/stm32h5xx_hal_pcd.c ****   * @param  hpcd PCD handle
 928:Drivers/STM32H5xx_HAL_Driver/Src/stm32h5xx_hal_pcd.c ****   * @param  pCallback pointer to the USB PCD LPM Callback function
 929:Drivers/STM32H5xx_HAL_Driver/Src/stm32h5xx_hal_pcd.c ****   * @retval HAL status
 930:Drivers/STM32H5xx_HAL_Driver/Src/stm32h5xx_hal_pcd.c ****   */
 931:Drivers/STM32H5xx_HAL_Driver/Src/stm32h5xx_hal_pcd.c **** HAL_StatusTypeDef HAL_PCD_RegisterLpmCallback(PCD_HandleTypeDef *hpcd, pPCD_LpmCallbackTypeDef pCal
 932:Drivers/STM32H5xx_HAL_Driver/Src/stm32h5xx_hal_pcd.c **** {
 933:Drivers/STM32H5xx_HAL_Driver/Src/stm32h5xx_hal_pcd.c ****   HAL_StatusTypeDef status = HAL_OK;
 934:Drivers/STM32H5xx_HAL_Driver/Src/stm32h5xx_hal_pcd.c **** 
 935:Drivers/STM32H5xx_HAL_Driver/Src/stm32h5xx_hal_pcd.c ****   if (pCallback == NULL)
 936:Drivers/STM32H5xx_HAL_Driver/Src/stm32h5xx_hal_pcd.c ****   {
 937:Drivers/STM32H5xx_HAL_Driver/Src/stm32h5xx_hal_pcd.c ****     /* Update the error code */
 938:Drivers/STM32H5xx_HAL_Driver/Src/stm32h5xx_hal_pcd.c ****     hpcd->ErrorCode |= HAL_PCD_ERROR_INVALID_CALLBACK;
 939:Drivers/STM32H5xx_HAL_Driver/Src/stm32h5xx_hal_pcd.c **** 
 940:Drivers/STM32H5xx_HAL_Driver/Src/stm32h5xx_hal_pcd.c ****     return HAL_ERROR;
 941:Drivers/STM32H5xx_HAL_Driver/Src/stm32h5xx_hal_pcd.c ****   }
 942:Drivers/STM32H5xx_HAL_Driver/Src/stm32h5xx_hal_pcd.c **** 
 943:Drivers/STM32H5xx_HAL_Driver/Src/stm32h5xx_hal_pcd.c ****   /* Process locked */
 944:Drivers/STM32H5xx_HAL_Driver/Src/stm32h5xx_hal_pcd.c ****   __HAL_LOCK(hpcd);
 945:Drivers/STM32H5xx_HAL_Driver/Src/stm32h5xx_hal_pcd.c **** 
 946:Drivers/STM32H5xx_HAL_Driver/Src/stm32h5xx_hal_pcd.c ****   if (hpcd->State == HAL_PCD_STATE_READY)
 947:Drivers/STM32H5xx_HAL_Driver/Src/stm32h5xx_hal_pcd.c ****   {
 948:Drivers/STM32H5xx_HAL_Driver/Src/stm32h5xx_hal_pcd.c ****     hpcd->LPMCallback = pCallback;
 949:Drivers/STM32H5xx_HAL_Driver/Src/stm32h5xx_hal_pcd.c ****   }
 950:Drivers/STM32H5xx_HAL_Driver/Src/stm32h5xx_hal_pcd.c ****   else
 951:Drivers/STM32H5xx_HAL_Driver/Src/stm32h5xx_hal_pcd.c ****   {
 952:Drivers/STM32H5xx_HAL_Driver/Src/stm32h5xx_hal_pcd.c ****     /* Update the error code */
 953:Drivers/STM32H5xx_HAL_Driver/Src/stm32h5xx_hal_pcd.c ****     hpcd->ErrorCode |= HAL_PCD_ERROR_INVALID_CALLBACK;
 954:Drivers/STM32H5xx_HAL_Driver/Src/stm32h5xx_hal_pcd.c **** 
 955:Drivers/STM32H5xx_HAL_Driver/Src/stm32h5xx_hal_pcd.c ****     /* Return error status */
 956:Drivers/STM32H5xx_HAL_Driver/Src/stm32h5xx_hal_pcd.c ****     status =  HAL_ERROR;
 957:Drivers/STM32H5xx_HAL_Driver/Src/stm32h5xx_hal_pcd.c ****   }
ARM GAS  C:\Users\DELL\AppData\Local\Temp\ccskFJre.s 			page 33


 958:Drivers/STM32H5xx_HAL_Driver/Src/stm32h5xx_hal_pcd.c **** 
 959:Drivers/STM32H5xx_HAL_Driver/Src/stm32h5xx_hal_pcd.c ****   /* Release Lock */
 960:Drivers/STM32H5xx_HAL_Driver/Src/stm32h5xx_hal_pcd.c ****   __HAL_UNLOCK(hpcd);
 961:Drivers/STM32H5xx_HAL_Driver/Src/stm32h5xx_hal_pcd.c **** 
 962:Drivers/STM32H5xx_HAL_Driver/Src/stm32h5xx_hal_pcd.c ****   return status;
 963:Drivers/STM32H5xx_HAL_Driver/Src/stm32h5xx_hal_pcd.c **** }
 964:Drivers/STM32H5xx_HAL_Driver/Src/stm32h5xx_hal_pcd.c **** 
 965:Drivers/STM32H5xx_HAL_Driver/Src/stm32h5xx_hal_pcd.c **** /**
 966:Drivers/STM32H5xx_HAL_Driver/Src/stm32h5xx_hal_pcd.c ****   * @brief  Unregister the USB PCD LPM Callback
 967:Drivers/STM32H5xx_HAL_Driver/Src/stm32h5xx_hal_pcd.c ****   *         USB LPM Callback is redirected to the weak HAL_PCDEx_LPM_Callback() predefined callback
 968:Drivers/STM32H5xx_HAL_Driver/Src/stm32h5xx_hal_pcd.c ****   * @param  hpcd PCD handle
 969:Drivers/STM32H5xx_HAL_Driver/Src/stm32h5xx_hal_pcd.c ****   * @retval HAL status
 970:Drivers/STM32H5xx_HAL_Driver/Src/stm32h5xx_hal_pcd.c ****   */
 971:Drivers/STM32H5xx_HAL_Driver/Src/stm32h5xx_hal_pcd.c **** HAL_StatusTypeDef HAL_PCD_UnRegisterLpmCallback(PCD_HandleTypeDef *hpcd)
 972:Drivers/STM32H5xx_HAL_Driver/Src/stm32h5xx_hal_pcd.c **** {
 973:Drivers/STM32H5xx_HAL_Driver/Src/stm32h5xx_hal_pcd.c ****   HAL_StatusTypeDef status = HAL_OK;
 974:Drivers/STM32H5xx_HAL_Driver/Src/stm32h5xx_hal_pcd.c **** 
 975:Drivers/STM32H5xx_HAL_Driver/Src/stm32h5xx_hal_pcd.c ****   /* Process locked */
 976:Drivers/STM32H5xx_HAL_Driver/Src/stm32h5xx_hal_pcd.c ****   __HAL_LOCK(hpcd);
 977:Drivers/STM32H5xx_HAL_Driver/Src/stm32h5xx_hal_pcd.c **** 
 978:Drivers/STM32H5xx_HAL_Driver/Src/stm32h5xx_hal_pcd.c ****   if (hpcd->State == HAL_PCD_STATE_READY)
 979:Drivers/STM32H5xx_HAL_Driver/Src/stm32h5xx_hal_pcd.c ****   {
 980:Drivers/STM32H5xx_HAL_Driver/Src/stm32h5xx_hal_pcd.c ****     hpcd->LPMCallback = HAL_PCDEx_LPM_Callback; /* Legacy weak HAL_PCDEx_LPM_Callback  */
 981:Drivers/STM32H5xx_HAL_Driver/Src/stm32h5xx_hal_pcd.c ****   }
 982:Drivers/STM32H5xx_HAL_Driver/Src/stm32h5xx_hal_pcd.c ****   else
 983:Drivers/STM32H5xx_HAL_Driver/Src/stm32h5xx_hal_pcd.c ****   {
 984:Drivers/STM32H5xx_HAL_Driver/Src/stm32h5xx_hal_pcd.c ****     /* Update the error code */
 985:Drivers/STM32H5xx_HAL_Driver/Src/stm32h5xx_hal_pcd.c ****     hpcd->ErrorCode |= HAL_PCD_ERROR_INVALID_CALLBACK;
 986:Drivers/STM32H5xx_HAL_Driver/Src/stm32h5xx_hal_pcd.c **** 
 987:Drivers/STM32H5xx_HAL_Driver/Src/stm32h5xx_hal_pcd.c ****     /* Return error status */
 988:Drivers/STM32H5xx_HAL_Driver/Src/stm32h5xx_hal_pcd.c ****     status =  HAL_ERROR;
 989:Drivers/STM32H5xx_HAL_Driver/Src/stm32h5xx_hal_pcd.c ****   }
 990:Drivers/STM32H5xx_HAL_Driver/Src/stm32h5xx_hal_pcd.c **** 
 991:Drivers/STM32H5xx_HAL_Driver/Src/stm32h5xx_hal_pcd.c ****   /* Release Lock */
 992:Drivers/STM32H5xx_HAL_Driver/Src/stm32h5xx_hal_pcd.c ****   __HAL_UNLOCK(hpcd);
 993:Drivers/STM32H5xx_HAL_Driver/Src/stm32h5xx_hal_pcd.c **** 
 994:Drivers/STM32H5xx_HAL_Driver/Src/stm32h5xx_hal_pcd.c ****   return status;
 995:Drivers/STM32H5xx_HAL_Driver/Src/stm32h5xx_hal_pcd.c **** }
 996:Drivers/STM32H5xx_HAL_Driver/Src/stm32h5xx_hal_pcd.c **** #endif /* USE_HAL_PCD_REGISTER_CALLBACKS */
 997:Drivers/STM32H5xx_HAL_Driver/Src/stm32h5xx_hal_pcd.c **** 
 998:Drivers/STM32H5xx_HAL_Driver/Src/stm32h5xx_hal_pcd.c **** /**
 999:Drivers/STM32H5xx_HAL_Driver/Src/stm32h5xx_hal_pcd.c ****   * @}
1000:Drivers/STM32H5xx_HAL_Driver/Src/stm32h5xx_hal_pcd.c ****   */
1001:Drivers/STM32H5xx_HAL_Driver/Src/stm32h5xx_hal_pcd.c **** 
1002:Drivers/STM32H5xx_HAL_Driver/Src/stm32h5xx_hal_pcd.c **** /** @defgroup PCD_Exported_Functions_Group2 Input and Output operation functions
1003:Drivers/STM32H5xx_HAL_Driver/Src/stm32h5xx_hal_pcd.c ****   *  @brief   Data transfers functions
1004:Drivers/STM32H5xx_HAL_Driver/Src/stm32h5xx_hal_pcd.c ****   *
1005:Drivers/STM32H5xx_HAL_Driver/Src/stm32h5xx_hal_pcd.c **** @verbatim
1006:Drivers/STM32H5xx_HAL_Driver/Src/stm32h5xx_hal_pcd.c ****  ===============================================================================
1007:Drivers/STM32H5xx_HAL_Driver/Src/stm32h5xx_hal_pcd.c ****                       ##### IO operation functions #####
1008:Drivers/STM32H5xx_HAL_Driver/Src/stm32h5xx_hal_pcd.c ****  ===============================================================================
1009:Drivers/STM32H5xx_HAL_Driver/Src/stm32h5xx_hal_pcd.c ****     [..]
1010:Drivers/STM32H5xx_HAL_Driver/Src/stm32h5xx_hal_pcd.c ****     This subsection provides a set of functions allowing to manage the PCD data
1011:Drivers/STM32H5xx_HAL_Driver/Src/stm32h5xx_hal_pcd.c ****     transfers.
1012:Drivers/STM32H5xx_HAL_Driver/Src/stm32h5xx_hal_pcd.c **** 
1013:Drivers/STM32H5xx_HAL_Driver/Src/stm32h5xx_hal_pcd.c **** @endverbatim
1014:Drivers/STM32H5xx_HAL_Driver/Src/stm32h5xx_hal_pcd.c ****   * @{
ARM GAS  C:\Users\DELL\AppData\Local\Temp\ccskFJre.s 			page 34


1015:Drivers/STM32H5xx_HAL_Driver/Src/stm32h5xx_hal_pcd.c ****   */
1016:Drivers/STM32H5xx_HAL_Driver/Src/stm32h5xx_hal_pcd.c **** 
1017:Drivers/STM32H5xx_HAL_Driver/Src/stm32h5xx_hal_pcd.c **** /**
1018:Drivers/STM32H5xx_HAL_Driver/Src/stm32h5xx_hal_pcd.c ****   * @brief  Start the USB device
1019:Drivers/STM32H5xx_HAL_Driver/Src/stm32h5xx_hal_pcd.c ****   * @param  hpcd PCD handle
1020:Drivers/STM32H5xx_HAL_Driver/Src/stm32h5xx_hal_pcd.c ****   * @retval HAL status
1021:Drivers/STM32H5xx_HAL_Driver/Src/stm32h5xx_hal_pcd.c ****   */
1022:Drivers/STM32H5xx_HAL_Driver/Src/stm32h5xx_hal_pcd.c **** HAL_StatusTypeDef HAL_PCD_Start(PCD_HandleTypeDef *hpcd)
1023:Drivers/STM32H5xx_HAL_Driver/Src/stm32h5xx_hal_pcd.c **** {
1024:Drivers/STM32H5xx_HAL_Driver/Src/stm32h5xx_hal_pcd.c **** #if defined (USB_OTG_FS)
1025:Drivers/STM32H5xx_HAL_Driver/Src/stm32h5xx_hal_pcd.c ****   USB_OTG_GlobalTypeDef *USBx = hpcd->Instance;
1026:Drivers/STM32H5xx_HAL_Driver/Src/stm32h5xx_hal_pcd.c **** #endif /* defined (USB_OTG_FS) */
1027:Drivers/STM32H5xx_HAL_Driver/Src/stm32h5xx_hal_pcd.c **** 
1028:Drivers/STM32H5xx_HAL_Driver/Src/stm32h5xx_hal_pcd.c ****   __HAL_LOCK(hpcd);
1029:Drivers/STM32H5xx_HAL_Driver/Src/stm32h5xx_hal_pcd.c **** #if defined (USB_OTG_FS)
1030:Drivers/STM32H5xx_HAL_Driver/Src/stm32h5xx_hal_pcd.c ****   if (hpcd->Init.battery_charging_enable == 1U)
1031:Drivers/STM32H5xx_HAL_Driver/Src/stm32h5xx_hal_pcd.c ****   {
1032:Drivers/STM32H5xx_HAL_Driver/Src/stm32h5xx_hal_pcd.c ****     /* Enable USB Transceiver */
1033:Drivers/STM32H5xx_HAL_Driver/Src/stm32h5xx_hal_pcd.c ****     USBx->GCCFG |= USB_OTG_GCCFG_PWRDWN;
1034:Drivers/STM32H5xx_HAL_Driver/Src/stm32h5xx_hal_pcd.c ****   }
1035:Drivers/STM32H5xx_HAL_Driver/Src/stm32h5xx_hal_pcd.c **** #endif /* defined (USB_OTG_FS) */
1036:Drivers/STM32H5xx_HAL_Driver/Src/stm32h5xx_hal_pcd.c ****   __HAL_PCD_ENABLE(hpcd);
1037:Drivers/STM32H5xx_HAL_Driver/Src/stm32h5xx_hal_pcd.c ****   (void)USB_DevConnect(hpcd->Instance);
1038:Drivers/STM32H5xx_HAL_Driver/Src/stm32h5xx_hal_pcd.c ****   __HAL_UNLOCK(hpcd);
1039:Drivers/STM32H5xx_HAL_Driver/Src/stm32h5xx_hal_pcd.c **** 
1040:Drivers/STM32H5xx_HAL_Driver/Src/stm32h5xx_hal_pcd.c ****   return HAL_OK;
1041:Drivers/STM32H5xx_HAL_Driver/Src/stm32h5xx_hal_pcd.c **** }
1042:Drivers/STM32H5xx_HAL_Driver/Src/stm32h5xx_hal_pcd.c **** 
1043:Drivers/STM32H5xx_HAL_Driver/Src/stm32h5xx_hal_pcd.c **** /**
1044:Drivers/STM32H5xx_HAL_Driver/Src/stm32h5xx_hal_pcd.c ****   * @brief  Stop the USB device.
1045:Drivers/STM32H5xx_HAL_Driver/Src/stm32h5xx_hal_pcd.c ****   * @param  hpcd PCD handle
1046:Drivers/STM32H5xx_HAL_Driver/Src/stm32h5xx_hal_pcd.c ****   * @retval HAL status
1047:Drivers/STM32H5xx_HAL_Driver/Src/stm32h5xx_hal_pcd.c ****   */
1048:Drivers/STM32H5xx_HAL_Driver/Src/stm32h5xx_hal_pcd.c **** HAL_StatusTypeDef HAL_PCD_Stop(PCD_HandleTypeDef *hpcd)
1049:Drivers/STM32H5xx_HAL_Driver/Src/stm32h5xx_hal_pcd.c **** {
1050:Drivers/STM32H5xx_HAL_Driver/Src/stm32h5xx_hal_pcd.c **** #if defined (USB_OTG_FS)
1051:Drivers/STM32H5xx_HAL_Driver/Src/stm32h5xx_hal_pcd.c ****   USB_OTG_GlobalTypeDef *USBx = hpcd->Instance;
1052:Drivers/STM32H5xx_HAL_Driver/Src/stm32h5xx_hal_pcd.c **** #endif /* defined (USB_OTG_FS) */
1053:Drivers/STM32H5xx_HAL_Driver/Src/stm32h5xx_hal_pcd.c **** 
1054:Drivers/STM32H5xx_HAL_Driver/Src/stm32h5xx_hal_pcd.c ****   __HAL_LOCK(hpcd);
1055:Drivers/STM32H5xx_HAL_Driver/Src/stm32h5xx_hal_pcd.c ****   __HAL_PCD_DISABLE(hpcd);
1056:Drivers/STM32H5xx_HAL_Driver/Src/stm32h5xx_hal_pcd.c ****   (void)USB_DevDisconnect(hpcd->Instance);
1057:Drivers/STM32H5xx_HAL_Driver/Src/stm32h5xx_hal_pcd.c **** 
1058:Drivers/STM32H5xx_HAL_Driver/Src/stm32h5xx_hal_pcd.c **** #if defined (USB_OTG_FS) || defined (USB_OTG_HS)
1059:Drivers/STM32H5xx_HAL_Driver/Src/stm32h5xx_hal_pcd.c ****   (void)USB_FlushTxFifo(hpcd->Instance, 0x10U);
1060:Drivers/STM32H5xx_HAL_Driver/Src/stm32h5xx_hal_pcd.c **** #endif /* defined (USB_OTG_FS) || defined (USB_OTG_HS) */
1061:Drivers/STM32H5xx_HAL_Driver/Src/stm32h5xx_hal_pcd.c **** 
1062:Drivers/STM32H5xx_HAL_Driver/Src/stm32h5xx_hal_pcd.c **** #if defined (USB_OTG_FS)
1063:Drivers/STM32H5xx_HAL_Driver/Src/stm32h5xx_hal_pcd.c ****   if (hpcd->Init.battery_charging_enable == 1U)
1064:Drivers/STM32H5xx_HAL_Driver/Src/stm32h5xx_hal_pcd.c ****   {
1065:Drivers/STM32H5xx_HAL_Driver/Src/stm32h5xx_hal_pcd.c ****     /* Disable USB Transceiver */
1066:Drivers/STM32H5xx_HAL_Driver/Src/stm32h5xx_hal_pcd.c ****     USBx->GCCFG &= ~(USB_OTG_GCCFG_PWRDWN);
1067:Drivers/STM32H5xx_HAL_Driver/Src/stm32h5xx_hal_pcd.c ****   }
1068:Drivers/STM32H5xx_HAL_Driver/Src/stm32h5xx_hal_pcd.c **** #endif /* defined (USB_OTG_FS) */
1069:Drivers/STM32H5xx_HAL_Driver/Src/stm32h5xx_hal_pcd.c **** 
1070:Drivers/STM32H5xx_HAL_Driver/Src/stm32h5xx_hal_pcd.c ****   __HAL_UNLOCK(hpcd);
1071:Drivers/STM32H5xx_HAL_Driver/Src/stm32h5xx_hal_pcd.c **** 
ARM GAS  C:\Users\DELL\AppData\Local\Temp\ccskFJre.s 			page 35


1072:Drivers/STM32H5xx_HAL_Driver/Src/stm32h5xx_hal_pcd.c ****   return HAL_OK;
1073:Drivers/STM32H5xx_HAL_Driver/Src/stm32h5xx_hal_pcd.c **** }
1074:Drivers/STM32H5xx_HAL_Driver/Src/stm32h5xx_hal_pcd.c **** 
1075:Drivers/STM32H5xx_HAL_Driver/Src/stm32h5xx_hal_pcd.c **** #if defined (USB_OTG_FS) || defined (USB_OTG_HS)
1076:Drivers/STM32H5xx_HAL_Driver/Src/stm32h5xx_hal_pcd.c **** /**
1077:Drivers/STM32H5xx_HAL_Driver/Src/stm32h5xx_hal_pcd.c ****   * @brief  Handles PCD interrupt request.
1078:Drivers/STM32H5xx_HAL_Driver/Src/stm32h5xx_hal_pcd.c ****   * @param  hpcd PCD handle
1079:Drivers/STM32H5xx_HAL_Driver/Src/stm32h5xx_hal_pcd.c ****   * @retval HAL status
1080:Drivers/STM32H5xx_HAL_Driver/Src/stm32h5xx_hal_pcd.c ****   */
1081:Drivers/STM32H5xx_HAL_Driver/Src/stm32h5xx_hal_pcd.c **** void HAL_PCD_IRQHandler(PCD_HandleTypeDef *hpcd)
1082:Drivers/STM32H5xx_HAL_Driver/Src/stm32h5xx_hal_pcd.c **** {
1083:Drivers/STM32H5xx_HAL_Driver/Src/stm32h5xx_hal_pcd.c ****   USB_OTG_GlobalTypeDef *USBx = hpcd->Instance;
1084:Drivers/STM32H5xx_HAL_Driver/Src/stm32h5xx_hal_pcd.c ****   uint32_t USBx_BASE = (uint32_t)USBx;
1085:Drivers/STM32H5xx_HAL_Driver/Src/stm32h5xx_hal_pcd.c ****   USB_OTG_EPTypeDef *ep;
1086:Drivers/STM32H5xx_HAL_Driver/Src/stm32h5xx_hal_pcd.c ****   uint32_t i;
1087:Drivers/STM32H5xx_HAL_Driver/Src/stm32h5xx_hal_pcd.c ****   uint32_t ep_intr;
1088:Drivers/STM32H5xx_HAL_Driver/Src/stm32h5xx_hal_pcd.c ****   uint32_t epint;
1089:Drivers/STM32H5xx_HAL_Driver/Src/stm32h5xx_hal_pcd.c ****   uint32_t epnum;
1090:Drivers/STM32H5xx_HAL_Driver/Src/stm32h5xx_hal_pcd.c ****   uint32_t fifoemptymsk;
1091:Drivers/STM32H5xx_HAL_Driver/Src/stm32h5xx_hal_pcd.c ****   uint32_t RegVal;
1092:Drivers/STM32H5xx_HAL_Driver/Src/stm32h5xx_hal_pcd.c **** 
1093:Drivers/STM32H5xx_HAL_Driver/Src/stm32h5xx_hal_pcd.c ****   /* ensure that we are in device mode */
1094:Drivers/STM32H5xx_HAL_Driver/Src/stm32h5xx_hal_pcd.c ****   if (USB_GetMode(hpcd->Instance) == USB_OTG_MODE_DEVICE)
1095:Drivers/STM32H5xx_HAL_Driver/Src/stm32h5xx_hal_pcd.c ****   {
1096:Drivers/STM32H5xx_HAL_Driver/Src/stm32h5xx_hal_pcd.c ****     /* avoid spurious interrupt */
1097:Drivers/STM32H5xx_HAL_Driver/Src/stm32h5xx_hal_pcd.c ****     if (__HAL_PCD_IS_INVALID_INTERRUPT(hpcd))
1098:Drivers/STM32H5xx_HAL_Driver/Src/stm32h5xx_hal_pcd.c ****     {
1099:Drivers/STM32H5xx_HAL_Driver/Src/stm32h5xx_hal_pcd.c ****       return;
1100:Drivers/STM32H5xx_HAL_Driver/Src/stm32h5xx_hal_pcd.c ****     }
1101:Drivers/STM32H5xx_HAL_Driver/Src/stm32h5xx_hal_pcd.c **** 
1102:Drivers/STM32H5xx_HAL_Driver/Src/stm32h5xx_hal_pcd.c ****     /* store current frame number */
1103:Drivers/STM32H5xx_HAL_Driver/Src/stm32h5xx_hal_pcd.c ****     hpcd->FrameNumber = (USBx_DEVICE->DSTS & USB_OTG_DSTS_FNSOF_Msk) >> USB_OTG_DSTS_FNSOF_Pos;
1104:Drivers/STM32H5xx_HAL_Driver/Src/stm32h5xx_hal_pcd.c **** 
1105:Drivers/STM32H5xx_HAL_Driver/Src/stm32h5xx_hal_pcd.c ****     if (__HAL_PCD_GET_FLAG(hpcd, USB_OTG_GINTSTS_MMIS))
1106:Drivers/STM32H5xx_HAL_Driver/Src/stm32h5xx_hal_pcd.c ****     {
1107:Drivers/STM32H5xx_HAL_Driver/Src/stm32h5xx_hal_pcd.c ****       /* incorrect mode, acknowledge the interrupt */
1108:Drivers/STM32H5xx_HAL_Driver/Src/stm32h5xx_hal_pcd.c ****       __HAL_PCD_CLEAR_FLAG(hpcd, USB_OTG_GINTSTS_MMIS);
1109:Drivers/STM32H5xx_HAL_Driver/Src/stm32h5xx_hal_pcd.c ****     }
1110:Drivers/STM32H5xx_HAL_Driver/Src/stm32h5xx_hal_pcd.c **** 
1111:Drivers/STM32H5xx_HAL_Driver/Src/stm32h5xx_hal_pcd.c ****     /* Handle RxQLevel Interrupt */
1112:Drivers/STM32H5xx_HAL_Driver/Src/stm32h5xx_hal_pcd.c ****     if (__HAL_PCD_GET_FLAG(hpcd, USB_OTG_GINTSTS_RXFLVL))
1113:Drivers/STM32H5xx_HAL_Driver/Src/stm32h5xx_hal_pcd.c ****     {
1114:Drivers/STM32H5xx_HAL_Driver/Src/stm32h5xx_hal_pcd.c ****       USB_MASK_INTERRUPT(hpcd->Instance, USB_OTG_GINTSTS_RXFLVL);
1115:Drivers/STM32H5xx_HAL_Driver/Src/stm32h5xx_hal_pcd.c **** 
1116:Drivers/STM32H5xx_HAL_Driver/Src/stm32h5xx_hal_pcd.c ****       RegVal = USBx->GRXSTSP;
1117:Drivers/STM32H5xx_HAL_Driver/Src/stm32h5xx_hal_pcd.c **** 
1118:Drivers/STM32H5xx_HAL_Driver/Src/stm32h5xx_hal_pcd.c ****       ep = &hpcd->OUT_ep[RegVal & USB_OTG_GRXSTSP_EPNUM];
1119:Drivers/STM32H5xx_HAL_Driver/Src/stm32h5xx_hal_pcd.c **** 
1120:Drivers/STM32H5xx_HAL_Driver/Src/stm32h5xx_hal_pcd.c ****       if (((RegVal & USB_OTG_GRXSTSP_PKTSTS) >> 17) ==  STS_DATA_UPDT)
1121:Drivers/STM32H5xx_HAL_Driver/Src/stm32h5xx_hal_pcd.c ****       {
1122:Drivers/STM32H5xx_HAL_Driver/Src/stm32h5xx_hal_pcd.c ****         if ((RegVal & USB_OTG_GRXSTSP_BCNT) != 0U)
1123:Drivers/STM32H5xx_HAL_Driver/Src/stm32h5xx_hal_pcd.c ****         {
1124:Drivers/STM32H5xx_HAL_Driver/Src/stm32h5xx_hal_pcd.c ****           (void)USB_ReadPacket(USBx, ep->xfer_buff,
1125:Drivers/STM32H5xx_HAL_Driver/Src/stm32h5xx_hal_pcd.c ****                                (uint16_t)((RegVal & USB_OTG_GRXSTSP_BCNT) >> 4));
1126:Drivers/STM32H5xx_HAL_Driver/Src/stm32h5xx_hal_pcd.c **** 
1127:Drivers/STM32H5xx_HAL_Driver/Src/stm32h5xx_hal_pcd.c ****           ep->xfer_buff += (RegVal & USB_OTG_GRXSTSP_BCNT) >> 4;
1128:Drivers/STM32H5xx_HAL_Driver/Src/stm32h5xx_hal_pcd.c ****           ep->xfer_count += (RegVal & USB_OTG_GRXSTSP_BCNT) >> 4;
ARM GAS  C:\Users\DELL\AppData\Local\Temp\ccskFJre.s 			page 36


1129:Drivers/STM32H5xx_HAL_Driver/Src/stm32h5xx_hal_pcd.c ****         }
1130:Drivers/STM32H5xx_HAL_Driver/Src/stm32h5xx_hal_pcd.c ****       }
1131:Drivers/STM32H5xx_HAL_Driver/Src/stm32h5xx_hal_pcd.c ****       else if (((RegVal & USB_OTG_GRXSTSP_PKTSTS) >> 17) == STS_SETUP_UPDT)
1132:Drivers/STM32H5xx_HAL_Driver/Src/stm32h5xx_hal_pcd.c ****       {
1133:Drivers/STM32H5xx_HAL_Driver/Src/stm32h5xx_hal_pcd.c ****         (void)USB_ReadPacket(USBx, (uint8_t *)hpcd->Setup, 8U);
1134:Drivers/STM32H5xx_HAL_Driver/Src/stm32h5xx_hal_pcd.c ****         ep->xfer_count += (RegVal & USB_OTG_GRXSTSP_BCNT) >> 4;
1135:Drivers/STM32H5xx_HAL_Driver/Src/stm32h5xx_hal_pcd.c ****       }
1136:Drivers/STM32H5xx_HAL_Driver/Src/stm32h5xx_hal_pcd.c ****       else
1137:Drivers/STM32H5xx_HAL_Driver/Src/stm32h5xx_hal_pcd.c ****       {
1138:Drivers/STM32H5xx_HAL_Driver/Src/stm32h5xx_hal_pcd.c ****         /* ... */
1139:Drivers/STM32H5xx_HAL_Driver/Src/stm32h5xx_hal_pcd.c ****       }
1140:Drivers/STM32H5xx_HAL_Driver/Src/stm32h5xx_hal_pcd.c **** 
1141:Drivers/STM32H5xx_HAL_Driver/Src/stm32h5xx_hal_pcd.c ****       USB_UNMASK_INTERRUPT(hpcd->Instance, USB_OTG_GINTSTS_RXFLVL);
1142:Drivers/STM32H5xx_HAL_Driver/Src/stm32h5xx_hal_pcd.c ****     }
1143:Drivers/STM32H5xx_HAL_Driver/Src/stm32h5xx_hal_pcd.c **** 
1144:Drivers/STM32H5xx_HAL_Driver/Src/stm32h5xx_hal_pcd.c ****     if (__HAL_PCD_GET_FLAG(hpcd, USB_OTG_GINTSTS_OEPINT))
1145:Drivers/STM32H5xx_HAL_Driver/Src/stm32h5xx_hal_pcd.c ****     {
1146:Drivers/STM32H5xx_HAL_Driver/Src/stm32h5xx_hal_pcd.c ****       epnum = 0U;
1147:Drivers/STM32H5xx_HAL_Driver/Src/stm32h5xx_hal_pcd.c **** 
1148:Drivers/STM32H5xx_HAL_Driver/Src/stm32h5xx_hal_pcd.c ****       /* Read in the device interrupt bits */
1149:Drivers/STM32H5xx_HAL_Driver/Src/stm32h5xx_hal_pcd.c ****       ep_intr = USB_ReadDevAllOutEpInterrupt(hpcd->Instance);
1150:Drivers/STM32H5xx_HAL_Driver/Src/stm32h5xx_hal_pcd.c **** 
1151:Drivers/STM32H5xx_HAL_Driver/Src/stm32h5xx_hal_pcd.c ****       while (ep_intr != 0U)
1152:Drivers/STM32H5xx_HAL_Driver/Src/stm32h5xx_hal_pcd.c ****       {
1153:Drivers/STM32H5xx_HAL_Driver/Src/stm32h5xx_hal_pcd.c ****         if ((ep_intr & 0x1U) != 0U)
1154:Drivers/STM32H5xx_HAL_Driver/Src/stm32h5xx_hal_pcd.c ****         {
1155:Drivers/STM32H5xx_HAL_Driver/Src/stm32h5xx_hal_pcd.c ****           epint = USB_ReadDevOutEPInterrupt(hpcd->Instance, (uint8_t)epnum);
1156:Drivers/STM32H5xx_HAL_Driver/Src/stm32h5xx_hal_pcd.c **** 
1157:Drivers/STM32H5xx_HAL_Driver/Src/stm32h5xx_hal_pcd.c ****           if ((epint & USB_OTG_DOEPINT_XFRC) == USB_OTG_DOEPINT_XFRC)
1158:Drivers/STM32H5xx_HAL_Driver/Src/stm32h5xx_hal_pcd.c ****           {
1159:Drivers/STM32H5xx_HAL_Driver/Src/stm32h5xx_hal_pcd.c ****             CLEAR_OUT_EP_INTR(epnum, USB_OTG_DOEPINT_XFRC);
1160:Drivers/STM32H5xx_HAL_Driver/Src/stm32h5xx_hal_pcd.c ****             (void)PCD_EP_OutXfrComplete_int(hpcd, epnum);
1161:Drivers/STM32H5xx_HAL_Driver/Src/stm32h5xx_hal_pcd.c ****           }
1162:Drivers/STM32H5xx_HAL_Driver/Src/stm32h5xx_hal_pcd.c **** 
1163:Drivers/STM32H5xx_HAL_Driver/Src/stm32h5xx_hal_pcd.c ****           if ((epint & USB_OTG_DOEPINT_STUP) == USB_OTG_DOEPINT_STUP)
1164:Drivers/STM32H5xx_HAL_Driver/Src/stm32h5xx_hal_pcd.c ****           {
1165:Drivers/STM32H5xx_HAL_Driver/Src/stm32h5xx_hal_pcd.c ****             CLEAR_OUT_EP_INTR(epnum, USB_OTG_DOEPINT_STUP);
1166:Drivers/STM32H5xx_HAL_Driver/Src/stm32h5xx_hal_pcd.c ****             /* Class B setup phase done for previous decoded setup */
1167:Drivers/STM32H5xx_HAL_Driver/Src/stm32h5xx_hal_pcd.c ****             (void)PCD_EP_OutSetupPacket_int(hpcd, epnum);
1168:Drivers/STM32H5xx_HAL_Driver/Src/stm32h5xx_hal_pcd.c ****           }
1169:Drivers/STM32H5xx_HAL_Driver/Src/stm32h5xx_hal_pcd.c **** 
1170:Drivers/STM32H5xx_HAL_Driver/Src/stm32h5xx_hal_pcd.c ****           if ((epint & USB_OTG_DOEPINT_OTEPDIS) == USB_OTG_DOEPINT_OTEPDIS)
1171:Drivers/STM32H5xx_HAL_Driver/Src/stm32h5xx_hal_pcd.c ****           {
1172:Drivers/STM32H5xx_HAL_Driver/Src/stm32h5xx_hal_pcd.c ****             CLEAR_OUT_EP_INTR(epnum, USB_OTG_DOEPINT_OTEPDIS);
1173:Drivers/STM32H5xx_HAL_Driver/Src/stm32h5xx_hal_pcd.c ****           }
1174:Drivers/STM32H5xx_HAL_Driver/Src/stm32h5xx_hal_pcd.c **** 
1175:Drivers/STM32H5xx_HAL_Driver/Src/stm32h5xx_hal_pcd.c ****           /* Clear OUT Endpoint disable interrupt */
1176:Drivers/STM32H5xx_HAL_Driver/Src/stm32h5xx_hal_pcd.c ****           if ((epint & USB_OTG_DOEPINT_EPDISD) == USB_OTG_DOEPINT_EPDISD)
1177:Drivers/STM32H5xx_HAL_Driver/Src/stm32h5xx_hal_pcd.c ****           {
1178:Drivers/STM32H5xx_HAL_Driver/Src/stm32h5xx_hal_pcd.c ****             if ((USBx->GINTSTS & USB_OTG_GINTSTS_BOUTNAKEFF) == USB_OTG_GINTSTS_BOUTNAKEFF)
1179:Drivers/STM32H5xx_HAL_Driver/Src/stm32h5xx_hal_pcd.c ****             {
1180:Drivers/STM32H5xx_HAL_Driver/Src/stm32h5xx_hal_pcd.c ****               USBx_DEVICE->DCTL |= USB_OTG_DCTL_CGONAK;
1181:Drivers/STM32H5xx_HAL_Driver/Src/stm32h5xx_hal_pcd.c ****             }
1182:Drivers/STM32H5xx_HAL_Driver/Src/stm32h5xx_hal_pcd.c **** 
1183:Drivers/STM32H5xx_HAL_Driver/Src/stm32h5xx_hal_pcd.c ****             ep = &hpcd->OUT_ep[epnum];
1184:Drivers/STM32H5xx_HAL_Driver/Src/stm32h5xx_hal_pcd.c **** 
1185:Drivers/STM32H5xx_HAL_Driver/Src/stm32h5xx_hal_pcd.c ****             if (ep->is_iso_incomplete == 1U)
ARM GAS  C:\Users\DELL\AppData\Local\Temp\ccskFJre.s 			page 37


1186:Drivers/STM32H5xx_HAL_Driver/Src/stm32h5xx_hal_pcd.c ****             {
1187:Drivers/STM32H5xx_HAL_Driver/Src/stm32h5xx_hal_pcd.c ****               ep->is_iso_incomplete = 0U;
1188:Drivers/STM32H5xx_HAL_Driver/Src/stm32h5xx_hal_pcd.c **** 
1189:Drivers/STM32H5xx_HAL_Driver/Src/stm32h5xx_hal_pcd.c **** #if (USE_HAL_PCD_REGISTER_CALLBACKS == 1U)
1190:Drivers/STM32H5xx_HAL_Driver/Src/stm32h5xx_hal_pcd.c ****               hpcd->ISOOUTIncompleteCallback(hpcd, (uint8_t)epnum);
1191:Drivers/STM32H5xx_HAL_Driver/Src/stm32h5xx_hal_pcd.c **** #else
1192:Drivers/STM32H5xx_HAL_Driver/Src/stm32h5xx_hal_pcd.c ****               HAL_PCD_ISOOUTIncompleteCallback(hpcd, (uint8_t)epnum);
1193:Drivers/STM32H5xx_HAL_Driver/Src/stm32h5xx_hal_pcd.c **** #endif /* USE_HAL_PCD_REGISTER_CALLBACKS */
1194:Drivers/STM32H5xx_HAL_Driver/Src/stm32h5xx_hal_pcd.c ****             }
1195:Drivers/STM32H5xx_HAL_Driver/Src/stm32h5xx_hal_pcd.c **** 
1196:Drivers/STM32H5xx_HAL_Driver/Src/stm32h5xx_hal_pcd.c ****             CLEAR_OUT_EP_INTR(epnum, USB_OTG_DOEPINT_EPDISD);
1197:Drivers/STM32H5xx_HAL_Driver/Src/stm32h5xx_hal_pcd.c ****           }
1198:Drivers/STM32H5xx_HAL_Driver/Src/stm32h5xx_hal_pcd.c **** 
1199:Drivers/STM32H5xx_HAL_Driver/Src/stm32h5xx_hal_pcd.c ****           /* Clear Status Phase Received interrupt */
1200:Drivers/STM32H5xx_HAL_Driver/Src/stm32h5xx_hal_pcd.c ****           if ((epint & USB_OTG_DOEPINT_OTEPSPR) == USB_OTG_DOEPINT_OTEPSPR)
1201:Drivers/STM32H5xx_HAL_Driver/Src/stm32h5xx_hal_pcd.c ****           {
1202:Drivers/STM32H5xx_HAL_Driver/Src/stm32h5xx_hal_pcd.c ****             CLEAR_OUT_EP_INTR(epnum, USB_OTG_DOEPINT_OTEPSPR);
1203:Drivers/STM32H5xx_HAL_Driver/Src/stm32h5xx_hal_pcd.c ****           }
1204:Drivers/STM32H5xx_HAL_Driver/Src/stm32h5xx_hal_pcd.c **** 
1205:Drivers/STM32H5xx_HAL_Driver/Src/stm32h5xx_hal_pcd.c ****           /* Clear OUT NAK interrupt */
1206:Drivers/STM32H5xx_HAL_Driver/Src/stm32h5xx_hal_pcd.c ****           if ((epint & USB_OTG_DOEPINT_NAK) == USB_OTG_DOEPINT_NAK)
1207:Drivers/STM32H5xx_HAL_Driver/Src/stm32h5xx_hal_pcd.c ****           {
1208:Drivers/STM32H5xx_HAL_Driver/Src/stm32h5xx_hal_pcd.c ****             CLEAR_OUT_EP_INTR(epnum, USB_OTG_DOEPINT_NAK);
1209:Drivers/STM32H5xx_HAL_Driver/Src/stm32h5xx_hal_pcd.c ****           }
1210:Drivers/STM32H5xx_HAL_Driver/Src/stm32h5xx_hal_pcd.c ****         }
1211:Drivers/STM32H5xx_HAL_Driver/Src/stm32h5xx_hal_pcd.c ****         epnum++;
1212:Drivers/STM32H5xx_HAL_Driver/Src/stm32h5xx_hal_pcd.c ****         ep_intr >>= 1U;
1213:Drivers/STM32H5xx_HAL_Driver/Src/stm32h5xx_hal_pcd.c ****       }
1214:Drivers/STM32H5xx_HAL_Driver/Src/stm32h5xx_hal_pcd.c ****     }
1215:Drivers/STM32H5xx_HAL_Driver/Src/stm32h5xx_hal_pcd.c **** 
1216:Drivers/STM32H5xx_HAL_Driver/Src/stm32h5xx_hal_pcd.c ****     if (__HAL_PCD_GET_FLAG(hpcd, USB_OTG_GINTSTS_IEPINT))
1217:Drivers/STM32H5xx_HAL_Driver/Src/stm32h5xx_hal_pcd.c ****     {
1218:Drivers/STM32H5xx_HAL_Driver/Src/stm32h5xx_hal_pcd.c ****       /* Read in the device interrupt bits */
1219:Drivers/STM32H5xx_HAL_Driver/Src/stm32h5xx_hal_pcd.c ****       ep_intr = USB_ReadDevAllInEpInterrupt(hpcd->Instance);
1220:Drivers/STM32H5xx_HAL_Driver/Src/stm32h5xx_hal_pcd.c **** 
1221:Drivers/STM32H5xx_HAL_Driver/Src/stm32h5xx_hal_pcd.c ****       epnum = 0U;
1222:Drivers/STM32H5xx_HAL_Driver/Src/stm32h5xx_hal_pcd.c **** 
1223:Drivers/STM32H5xx_HAL_Driver/Src/stm32h5xx_hal_pcd.c ****       while (ep_intr != 0U)
1224:Drivers/STM32H5xx_HAL_Driver/Src/stm32h5xx_hal_pcd.c ****       {
1225:Drivers/STM32H5xx_HAL_Driver/Src/stm32h5xx_hal_pcd.c ****         if ((ep_intr & 0x1U) != 0U) /* In ITR */
1226:Drivers/STM32H5xx_HAL_Driver/Src/stm32h5xx_hal_pcd.c ****         {
1227:Drivers/STM32H5xx_HAL_Driver/Src/stm32h5xx_hal_pcd.c ****           epint = USB_ReadDevInEPInterrupt(hpcd->Instance, (uint8_t)epnum);
1228:Drivers/STM32H5xx_HAL_Driver/Src/stm32h5xx_hal_pcd.c **** 
1229:Drivers/STM32H5xx_HAL_Driver/Src/stm32h5xx_hal_pcd.c ****           if ((epint & USB_OTG_DIEPINT_XFRC) == USB_OTG_DIEPINT_XFRC)
1230:Drivers/STM32H5xx_HAL_Driver/Src/stm32h5xx_hal_pcd.c ****           {
1231:Drivers/STM32H5xx_HAL_Driver/Src/stm32h5xx_hal_pcd.c ****             fifoemptymsk = (uint32_t)(0x1UL << (epnum & EP_ADDR_MSK));
1232:Drivers/STM32H5xx_HAL_Driver/Src/stm32h5xx_hal_pcd.c ****             USBx_DEVICE->DIEPEMPMSK &= ~fifoemptymsk;
1233:Drivers/STM32H5xx_HAL_Driver/Src/stm32h5xx_hal_pcd.c **** 
1234:Drivers/STM32H5xx_HAL_Driver/Src/stm32h5xx_hal_pcd.c ****             CLEAR_IN_EP_INTR(epnum, USB_OTG_DIEPINT_XFRC);
1235:Drivers/STM32H5xx_HAL_Driver/Src/stm32h5xx_hal_pcd.c **** 
1236:Drivers/STM32H5xx_HAL_Driver/Src/stm32h5xx_hal_pcd.c ****             if (hpcd->Init.dma_enable == 1U)
1237:Drivers/STM32H5xx_HAL_Driver/Src/stm32h5xx_hal_pcd.c ****             {
1238:Drivers/STM32H5xx_HAL_Driver/Src/stm32h5xx_hal_pcd.c ****               hpcd->IN_ep[epnum].xfer_buff += hpcd->IN_ep[epnum].maxpacket;
1239:Drivers/STM32H5xx_HAL_Driver/Src/stm32h5xx_hal_pcd.c **** 
1240:Drivers/STM32H5xx_HAL_Driver/Src/stm32h5xx_hal_pcd.c ****               /* this is ZLP, so prepare EP0 for next setup */
1241:Drivers/STM32H5xx_HAL_Driver/Src/stm32h5xx_hal_pcd.c ****               if ((epnum == 0U) && (hpcd->IN_ep[epnum].xfer_len == 0U))
1242:Drivers/STM32H5xx_HAL_Driver/Src/stm32h5xx_hal_pcd.c ****               {
ARM GAS  C:\Users\DELL\AppData\Local\Temp\ccskFJre.s 			page 38


1243:Drivers/STM32H5xx_HAL_Driver/Src/stm32h5xx_hal_pcd.c ****                 /* prepare to rx more setup packets */
1244:Drivers/STM32H5xx_HAL_Driver/Src/stm32h5xx_hal_pcd.c ****                 (void)USB_EP0_OutStart(hpcd->Instance, 1U, (uint8_t *)hpcd->Setup);
1245:Drivers/STM32H5xx_HAL_Driver/Src/stm32h5xx_hal_pcd.c ****               }
1246:Drivers/STM32H5xx_HAL_Driver/Src/stm32h5xx_hal_pcd.c ****             }
1247:Drivers/STM32H5xx_HAL_Driver/Src/stm32h5xx_hal_pcd.c **** 
1248:Drivers/STM32H5xx_HAL_Driver/Src/stm32h5xx_hal_pcd.c **** #if (USE_HAL_PCD_REGISTER_CALLBACKS == 1U)
1249:Drivers/STM32H5xx_HAL_Driver/Src/stm32h5xx_hal_pcd.c ****             hpcd->DataInStageCallback(hpcd, (uint8_t)epnum);
1250:Drivers/STM32H5xx_HAL_Driver/Src/stm32h5xx_hal_pcd.c **** #else
1251:Drivers/STM32H5xx_HAL_Driver/Src/stm32h5xx_hal_pcd.c ****             HAL_PCD_DataInStageCallback(hpcd, (uint8_t)epnum);
1252:Drivers/STM32H5xx_HAL_Driver/Src/stm32h5xx_hal_pcd.c **** #endif /* USE_HAL_PCD_REGISTER_CALLBACKS */
1253:Drivers/STM32H5xx_HAL_Driver/Src/stm32h5xx_hal_pcd.c ****           }
1254:Drivers/STM32H5xx_HAL_Driver/Src/stm32h5xx_hal_pcd.c ****           if ((epint & USB_OTG_DIEPINT_TOC) == USB_OTG_DIEPINT_TOC)
1255:Drivers/STM32H5xx_HAL_Driver/Src/stm32h5xx_hal_pcd.c ****           {
1256:Drivers/STM32H5xx_HAL_Driver/Src/stm32h5xx_hal_pcd.c ****             CLEAR_IN_EP_INTR(epnum, USB_OTG_DIEPINT_TOC);
1257:Drivers/STM32H5xx_HAL_Driver/Src/stm32h5xx_hal_pcd.c ****           }
1258:Drivers/STM32H5xx_HAL_Driver/Src/stm32h5xx_hal_pcd.c ****           if ((epint & USB_OTG_DIEPINT_ITTXFE) == USB_OTG_DIEPINT_ITTXFE)
1259:Drivers/STM32H5xx_HAL_Driver/Src/stm32h5xx_hal_pcd.c ****           {
1260:Drivers/STM32H5xx_HAL_Driver/Src/stm32h5xx_hal_pcd.c ****             CLEAR_IN_EP_INTR(epnum, USB_OTG_DIEPINT_ITTXFE);
1261:Drivers/STM32H5xx_HAL_Driver/Src/stm32h5xx_hal_pcd.c ****           }
1262:Drivers/STM32H5xx_HAL_Driver/Src/stm32h5xx_hal_pcd.c ****           if ((epint & USB_OTG_DIEPINT_INEPNE) == USB_OTG_DIEPINT_INEPNE)
1263:Drivers/STM32H5xx_HAL_Driver/Src/stm32h5xx_hal_pcd.c ****           {
1264:Drivers/STM32H5xx_HAL_Driver/Src/stm32h5xx_hal_pcd.c ****             CLEAR_IN_EP_INTR(epnum, USB_OTG_DIEPINT_INEPNE);
1265:Drivers/STM32H5xx_HAL_Driver/Src/stm32h5xx_hal_pcd.c ****           }
1266:Drivers/STM32H5xx_HAL_Driver/Src/stm32h5xx_hal_pcd.c ****           if ((epint & USB_OTG_DIEPINT_EPDISD) == USB_OTG_DIEPINT_EPDISD)
1267:Drivers/STM32H5xx_HAL_Driver/Src/stm32h5xx_hal_pcd.c ****           {
1268:Drivers/STM32H5xx_HAL_Driver/Src/stm32h5xx_hal_pcd.c ****             (void)USB_FlushTxFifo(USBx, epnum);
1269:Drivers/STM32H5xx_HAL_Driver/Src/stm32h5xx_hal_pcd.c **** 
1270:Drivers/STM32H5xx_HAL_Driver/Src/stm32h5xx_hal_pcd.c ****             ep = &hpcd->IN_ep[epnum];
1271:Drivers/STM32H5xx_HAL_Driver/Src/stm32h5xx_hal_pcd.c **** 
1272:Drivers/STM32H5xx_HAL_Driver/Src/stm32h5xx_hal_pcd.c ****             if (ep->is_iso_incomplete == 1U)
1273:Drivers/STM32H5xx_HAL_Driver/Src/stm32h5xx_hal_pcd.c ****             {
1274:Drivers/STM32H5xx_HAL_Driver/Src/stm32h5xx_hal_pcd.c ****               ep->is_iso_incomplete = 0U;
1275:Drivers/STM32H5xx_HAL_Driver/Src/stm32h5xx_hal_pcd.c **** 
1276:Drivers/STM32H5xx_HAL_Driver/Src/stm32h5xx_hal_pcd.c **** #if (USE_HAL_PCD_REGISTER_CALLBACKS == 1U)
1277:Drivers/STM32H5xx_HAL_Driver/Src/stm32h5xx_hal_pcd.c ****               hpcd->ISOINIncompleteCallback(hpcd, (uint8_t)epnum);
1278:Drivers/STM32H5xx_HAL_Driver/Src/stm32h5xx_hal_pcd.c **** #else
1279:Drivers/STM32H5xx_HAL_Driver/Src/stm32h5xx_hal_pcd.c ****               HAL_PCD_ISOINIncompleteCallback(hpcd, (uint8_t)epnum);
1280:Drivers/STM32H5xx_HAL_Driver/Src/stm32h5xx_hal_pcd.c **** #endif /* USE_HAL_PCD_REGISTER_CALLBACKS */
1281:Drivers/STM32H5xx_HAL_Driver/Src/stm32h5xx_hal_pcd.c ****             }
1282:Drivers/STM32H5xx_HAL_Driver/Src/stm32h5xx_hal_pcd.c **** 
1283:Drivers/STM32H5xx_HAL_Driver/Src/stm32h5xx_hal_pcd.c ****             CLEAR_IN_EP_INTR(epnum, USB_OTG_DIEPINT_EPDISD);
1284:Drivers/STM32H5xx_HAL_Driver/Src/stm32h5xx_hal_pcd.c ****           }
1285:Drivers/STM32H5xx_HAL_Driver/Src/stm32h5xx_hal_pcd.c ****           if ((epint & USB_OTG_DIEPINT_TXFE) == USB_OTG_DIEPINT_TXFE)
1286:Drivers/STM32H5xx_HAL_Driver/Src/stm32h5xx_hal_pcd.c ****           {
1287:Drivers/STM32H5xx_HAL_Driver/Src/stm32h5xx_hal_pcd.c ****             (void)PCD_WriteEmptyTxFifo(hpcd, epnum);
1288:Drivers/STM32H5xx_HAL_Driver/Src/stm32h5xx_hal_pcd.c ****           }
1289:Drivers/STM32H5xx_HAL_Driver/Src/stm32h5xx_hal_pcd.c ****         }
1290:Drivers/STM32H5xx_HAL_Driver/Src/stm32h5xx_hal_pcd.c ****         epnum++;
1291:Drivers/STM32H5xx_HAL_Driver/Src/stm32h5xx_hal_pcd.c ****         ep_intr >>= 1U;
1292:Drivers/STM32H5xx_HAL_Driver/Src/stm32h5xx_hal_pcd.c ****       }
1293:Drivers/STM32H5xx_HAL_Driver/Src/stm32h5xx_hal_pcd.c ****     }
1294:Drivers/STM32H5xx_HAL_Driver/Src/stm32h5xx_hal_pcd.c **** 
1295:Drivers/STM32H5xx_HAL_Driver/Src/stm32h5xx_hal_pcd.c ****     /* Handle Resume Interrupt */
1296:Drivers/STM32H5xx_HAL_Driver/Src/stm32h5xx_hal_pcd.c ****     if (__HAL_PCD_GET_FLAG(hpcd, USB_OTG_GINTSTS_WKUINT))
1297:Drivers/STM32H5xx_HAL_Driver/Src/stm32h5xx_hal_pcd.c ****     {
1298:Drivers/STM32H5xx_HAL_Driver/Src/stm32h5xx_hal_pcd.c ****       /* Clear the Remote Wake-up Signaling */
1299:Drivers/STM32H5xx_HAL_Driver/Src/stm32h5xx_hal_pcd.c ****       USBx_DEVICE->DCTL &= ~USB_OTG_DCTL_RWUSIG;
ARM GAS  C:\Users\DELL\AppData\Local\Temp\ccskFJre.s 			page 39


1300:Drivers/STM32H5xx_HAL_Driver/Src/stm32h5xx_hal_pcd.c **** 
1301:Drivers/STM32H5xx_HAL_Driver/Src/stm32h5xx_hal_pcd.c ****       if (hpcd->LPM_State == LPM_L1)
1302:Drivers/STM32H5xx_HAL_Driver/Src/stm32h5xx_hal_pcd.c ****       {
1303:Drivers/STM32H5xx_HAL_Driver/Src/stm32h5xx_hal_pcd.c ****         hpcd->LPM_State = LPM_L0;
1304:Drivers/STM32H5xx_HAL_Driver/Src/stm32h5xx_hal_pcd.c **** 
1305:Drivers/STM32H5xx_HAL_Driver/Src/stm32h5xx_hal_pcd.c **** #if (USE_HAL_PCD_REGISTER_CALLBACKS == 1U)
1306:Drivers/STM32H5xx_HAL_Driver/Src/stm32h5xx_hal_pcd.c ****         hpcd->LPMCallback(hpcd, PCD_LPM_L0_ACTIVE);
1307:Drivers/STM32H5xx_HAL_Driver/Src/stm32h5xx_hal_pcd.c **** #else
1308:Drivers/STM32H5xx_HAL_Driver/Src/stm32h5xx_hal_pcd.c ****         HAL_PCDEx_LPM_Callback(hpcd, PCD_LPM_L0_ACTIVE);
1309:Drivers/STM32H5xx_HAL_Driver/Src/stm32h5xx_hal_pcd.c **** #endif /* USE_HAL_PCD_REGISTER_CALLBACKS */
1310:Drivers/STM32H5xx_HAL_Driver/Src/stm32h5xx_hal_pcd.c ****       }
1311:Drivers/STM32H5xx_HAL_Driver/Src/stm32h5xx_hal_pcd.c ****       else
1312:Drivers/STM32H5xx_HAL_Driver/Src/stm32h5xx_hal_pcd.c ****       {
1313:Drivers/STM32H5xx_HAL_Driver/Src/stm32h5xx_hal_pcd.c **** #if (USE_HAL_PCD_REGISTER_CALLBACKS == 1U)
1314:Drivers/STM32H5xx_HAL_Driver/Src/stm32h5xx_hal_pcd.c ****         hpcd->ResumeCallback(hpcd);
1315:Drivers/STM32H5xx_HAL_Driver/Src/stm32h5xx_hal_pcd.c **** #else
1316:Drivers/STM32H5xx_HAL_Driver/Src/stm32h5xx_hal_pcd.c ****         HAL_PCD_ResumeCallback(hpcd);
1317:Drivers/STM32H5xx_HAL_Driver/Src/stm32h5xx_hal_pcd.c **** #endif /* USE_HAL_PCD_REGISTER_CALLBACKS */
1318:Drivers/STM32H5xx_HAL_Driver/Src/stm32h5xx_hal_pcd.c ****       }
1319:Drivers/STM32H5xx_HAL_Driver/Src/stm32h5xx_hal_pcd.c **** 
1320:Drivers/STM32H5xx_HAL_Driver/Src/stm32h5xx_hal_pcd.c ****       __HAL_PCD_CLEAR_FLAG(hpcd, USB_OTG_GINTSTS_WKUINT);
1321:Drivers/STM32H5xx_HAL_Driver/Src/stm32h5xx_hal_pcd.c ****     }
1322:Drivers/STM32H5xx_HAL_Driver/Src/stm32h5xx_hal_pcd.c **** 
1323:Drivers/STM32H5xx_HAL_Driver/Src/stm32h5xx_hal_pcd.c ****     /* Handle Suspend Interrupt */
1324:Drivers/STM32H5xx_HAL_Driver/Src/stm32h5xx_hal_pcd.c ****     if (__HAL_PCD_GET_FLAG(hpcd, USB_OTG_GINTSTS_USBSUSP))
1325:Drivers/STM32H5xx_HAL_Driver/Src/stm32h5xx_hal_pcd.c ****     {
1326:Drivers/STM32H5xx_HAL_Driver/Src/stm32h5xx_hal_pcd.c ****       if ((USBx_DEVICE->DSTS & USB_OTG_DSTS_SUSPSTS) == USB_OTG_DSTS_SUSPSTS)
1327:Drivers/STM32H5xx_HAL_Driver/Src/stm32h5xx_hal_pcd.c ****       {
1328:Drivers/STM32H5xx_HAL_Driver/Src/stm32h5xx_hal_pcd.c **** #if (USE_HAL_PCD_REGISTER_CALLBACKS == 1U)
1329:Drivers/STM32H5xx_HAL_Driver/Src/stm32h5xx_hal_pcd.c ****         hpcd->SuspendCallback(hpcd);
1330:Drivers/STM32H5xx_HAL_Driver/Src/stm32h5xx_hal_pcd.c **** #else
1331:Drivers/STM32H5xx_HAL_Driver/Src/stm32h5xx_hal_pcd.c ****         HAL_PCD_SuspendCallback(hpcd);
1332:Drivers/STM32H5xx_HAL_Driver/Src/stm32h5xx_hal_pcd.c **** #endif /* USE_HAL_PCD_REGISTER_CALLBACKS */
1333:Drivers/STM32H5xx_HAL_Driver/Src/stm32h5xx_hal_pcd.c ****       }
1334:Drivers/STM32H5xx_HAL_Driver/Src/stm32h5xx_hal_pcd.c ****       __HAL_PCD_CLEAR_FLAG(hpcd, USB_OTG_GINTSTS_USBSUSP);
1335:Drivers/STM32H5xx_HAL_Driver/Src/stm32h5xx_hal_pcd.c ****     }
1336:Drivers/STM32H5xx_HAL_Driver/Src/stm32h5xx_hal_pcd.c **** 
1337:Drivers/STM32H5xx_HAL_Driver/Src/stm32h5xx_hal_pcd.c ****     /* Handle LPM Interrupt */
1338:Drivers/STM32H5xx_HAL_Driver/Src/stm32h5xx_hal_pcd.c ****     if (__HAL_PCD_GET_FLAG(hpcd, USB_OTG_GINTSTS_LPMINT))
1339:Drivers/STM32H5xx_HAL_Driver/Src/stm32h5xx_hal_pcd.c ****     {
1340:Drivers/STM32H5xx_HAL_Driver/Src/stm32h5xx_hal_pcd.c ****       __HAL_PCD_CLEAR_FLAG(hpcd, USB_OTG_GINTSTS_LPMINT);
1341:Drivers/STM32H5xx_HAL_Driver/Src/stm32h5xx_hal_pcd.c **** 
1342:Drivers/STM32H5xx_HAL_Driver/Src/stm32h5xx_hal_pcd.c ****       if (hpcd->LPM_State == LPM_L0)
1343:Drivers/STM32H5xx_HAL_Driver/Src/stm32h5xx_hal_pcd.c ****       {
1344:Drivers/STM32H5xx_HAL_Driver/Src/stm32h5xx_hal_pcd.c ****         hpcd->LPM_State = LPM_L1;
1345:Drivers/STM32H5xx_HAL_Driver/Src/stm32h5xx_hal_pcd.c ****         hpcd->BESL = (hpcd->Instance->GLPMCFG & USB_OTG_GLPMCFG_BESL) >> 2U;
1346:Drivers/STM32H5xx_HAL_Driver/Src/stm32h5xx_hal_pcd.c **** 
1347:Drivers/STM32H5xx_HAL_Driver/Src/stm32h5xx_hal_pcd.c **** #if (USE_HAL_PCD_REGISTER_CALLBACKS == 1U)
1348:Drivers/STM32H5xx_HAL_Driver/Src/stm32h5xx_hal_pcd.c ****         hpcd->LPMCallback(hpcd, PCD_LPM_L1_ACTIVE);
1349:Drivers/STM32H5xx_HAL_Driver/Src/stm32h5xx_hal_pcd.c **** #else
1350:Drivers/STM32H5xx_HAL_Driver/Src/stm32h5xx_hal_pcd.c ****         HAL_PCDEx_LPM_Callback(hpcd, PCD_LPM_L1_ACTIVE);
1351:Drivers/STM32H5xx_HAL_Driver/Src/stm32h5xx_hal_pcd.c **** #endif /* USE_HAL_PCD_REGISTER_CALLBACKS */
1352:Drivers/STM32H5xx_HAL_Driver/Src/stm32h5xx_hal_pcd.c ****       }
1353:Drivers/STM32H5xx_HAL_Driver/Src/stm32h5xx_hal_pcd.c ****       else
1354:Drivers/STM32H5xx_HAL_Driver/Src/stm32h5xx_hal_pcd.c ****       {
1355:Drivers/STM32H5xx_HAL_Driver/Src/stm32h5xx_hal_pcd.c **** #if (USE_HAL_PCD_REGISTER_CALLBACKS == 1U)
1356:Drivers/STM32H5xx_HAL_Driver/Src/stm32h5xx_hal_pcd.c ****         hpcd->SuspendCallback(hpcd);
ARM GAS  C:\Users\DELL\AppData\Local\Temp\ccskFJre.s 			page 40


1357:Drivers/STM32H5xx_HAL_Driver/Src/stm32h5xx_hal_pcd.c **** #else
1358:Drivers/STM32H5xx_HAL_Driver/Src/stm32h5xx_hal_pcd.c ****         HAL_PCD_SuspendCallback(hpcd);
1359:Drivers/STM32H5xx_HAL_Driver/Src/stm32h5xx_hal_pcd.c **** #endif /* USE_HAL_PCD_REGISTER_CALLBACKS */
1360:Drivers/STM32H5xx_HAL_Driver/Src/stm32h5xx_hal_pcd.c ****       }
1361:Drivers/STM32H5xx_HAL_Driver/Src/stm32h5xx_hal_pcd.c ****     }
1362:Drivers/STM32H5xx_HAL_Driver/Src/stm32h5xx_hal_pcd.c **** 
1363:Drivers/STM32H5xx_HAL_Driver/Src/stm32h5xx_hal_pcd.c ****     /* Handle Reset Interrupt */
1364:Drivers/STM32H5xx_HAL_Driver/Src/stm32h5xx_hal_pcd.c ****     if (__HAL_PCD_GET_FLAG(hpcd, USB_OTG_GINTSTS_USBRST))
1365:Drivers/STM32H5xx_HAL_Driver/Src/stm32h5xx_hal_pcd.c ****     {
1366:Drivers/STM32H5xx_HAL_Driver/Src/stm32h5xx_hal_pcd.c ****       USBx_DEVICE->DCTL &= ~USB_OTG_DCTL_RWUSIG;
1367:Drivers/STM32H5xx_HAL_Driver/Src/stm32h5xx_hal_pcd.c ****       (void)USB_FlushTxFifo(hpcd->Instance, 0x10U);
1368:Drivers/STM32H5xx_HAL_Driver/Src/stm32h5xx_hal_pcd.c **** 
1369:Drivers/STM32H5xx_HAL_Driver/Src/stm32h5xx_hal_pcd.c ****       for (i = 0U; i < hpcd->Init.dev_endpoints; i++)
1370:Drivers/STM32H5xx_HAL_Driver/Src/stm32h5xx_hal_pcd.c ****       {
1371:Drivers/STM32H5xx_HAL_Driver/Src/stm32h5xx_hal_pcd.c ****         USBx_INEP(i)->DIEPINT = 0xFB7FU;
1372:Drivers/STM32H5xx_HAL_Driver/Src/stm32h5xx_hal_pcd.c ****         USBx_INEP(i)->DIEPCTL &= ~USB_OTG_DIEPCTL_STALL;
1373:Drivers/STM32H5xx_HAL_Driver/Src/stm32h5xx_hal_pcd.c ****         USBx_OUTEP(i)->DOEPINT = 0xFB7FU;
1374:Drivers/STM32H5xx_HAL_Driver/Src/stm32h5xx_hal_pcd.c ****         USBx_OUTEP(i)->DOEPCTL &= ~USB_OTG_DOEPCTL_STALL;
1375:Drivers/STM32H5xx_HAL_Driver/Src/stm32h5xx_hal_pcd.c ****         USBx_OUTEP(i)->DOEPCTL |= USB_OTG_DOEPCTL_SNAK;
1376:Drivers/STM32H5xx_HAL_Driver/Src/stm32h5xx_hal_pcd.c ****       }
1377:Drivers/STM32H5xx_HAL_Driver/Src/stm32h5xx_hal_pcd.c ****       USBx_DEVICE->DAINTMSK |= 0x10001U;
1378:Drivers/STM32H5xx_HAL_Driver/Src/stm32h5xx_hal_pcd.c **** 
1379:Drivers/STM32H5xx_HAL_Driver/Src/stm32h5xx_hal_pcd.c ****       if (hpcd->Init.use_dedicated_ep1 != 0U)
1380:Drivers/STM32H5xx_HAL_Driver/Src/stm32h5xx_hal_pcd.c ****       {
1381:Drivers/STM32H5xx_HAL_Driver/Src/stm32h5xx_hal_pcd.c ****         USBx_DEVICE->DOUTEP1MSK |= USB_OTG_DOEPMSK_STUPM |
1382:Drivers/STM32H5xx_HAL_Driver/Src/stm32h5xx_hal_pcd.c ****                                    USB_OTG_DOEPMSK_XFRCM |
1383:Drivers/STM32H5xx_HAL_Driver/Src/stm32h5xx_hal_pcd.c ****                                    USB_OTG_DOEPMSK_EPDM;
1384:Drivers/STM32H5xx_HAL_Driver/Src/stm32h5xx_hal_pcd.c **** 
1385:Drivers/STM32H5xx_HAL_Driver/Src/stm32h5xx_hal_pcd.c ****         USBx_DEVICE->DINEP1MSK |= USB_OTG_DIEPMSK_TOM |
1386:Drivers/STM32H5xx_HAL_Driver/Src/stm32h5xx_hal_pcd.c ****                                   USB_OTG_DIEPMSK_XFRCM |
1387:Drivers/STM32H5xx_HAL_Driver/Src/stm32h5xx_hal_pcd.c ****                                   USB_OTG_DIEPMSK_EPDM;
1388:Drivers/STM32H5xx_HAL_Driver/Src/stm32h5xx_hal_pcd.c ****       }
1389:Drivers/STM32H5xx_HAL_Driver/Src/stm32h5xx_hal_pcd.c ****       else
1390:Drivers/STM32H5xx_HAL_Driver/Src/stm32h5xx_hal_pcd.c ****       {
1391:Drivers/STM32H5xx_HAL_Driver/Src/stm32h5xx_hal_pcd.c ****         USBx_DEVICE->DOEPMSK |= USB_OTG_DOEPMSK_STUPM |
1392:Drivers/STM32H5xx_HAL_Driver/Src/stm32h5xx_hal_pcd.c ****                                 USB_OTG_DOEPMSK_XFRCM |
1393:Drivers/STM32H5xx_HAL_Driver/Src/stm32h5xx_hal_pcd.c ****                                 USB_OTG_DOEPMSK_EPDM |
1394:Drivers/STM32H5xx_HAL_Driver/Src/stm32h5xx_hal_pcd.c ****                                 USB_OTG_DOEPMSK_OTEPSPRM |
1395:Drivers/STM32H5xx_HAL_Driver/Src/stm32h5xx_hal_pcd.c ****                                 USB_OTG_DOEPMSK_NAKM;
1396:Drivers/STM32H5xx_HAL_Driver/Src/stm32h5xx_hal_pcd.c **** 
1397:Drivers/STM32H5xx_HAL_Driver/Src/stm32h5xx_hal_pcd.c ****         USBx_DEVICE->DIEPMSK |= USB_OTG_DIEPMSK_TOM |
1398:Drivers/STM32H5xx_HAL_Driver/Src/stm32h5xx_hal_pcd.c ****                                 USB_OTG_DIEPMSK_XFRCM |
1399:Drivers/STM32H5xx_HAL_Driver/Src/stm32h5xx_hal_pcd.c ****                                 USB_OTG_DIEPMSK_EPDM;
1400:Drivers/STM32H5xx_HAL_Driver/Src/stm32h5xx_hal_pcd.c ****       }
1401:Drivers/STM32H5xx_HAL_Driver/Src/stm32h5xx_hal_pcd.c **** 
1402:Drivers/STM32H5xx_HAL_Driver/Src/stm32h5xx_hal_pcd.c ****       /* Set Default Address to 0 */
1403:Drivers/STM32H5xx_HAL_Driver/Src/stm32h5xx_hal_pcd.c ****       USBx_DEVICE->DCFG &= ~USB_OTG_DCFG_DAD;
1404:Drivers/STM32H5xx_HAL_Driver/Src/stm32h5xx_hal_pcd.c **** 
1405:Drivers/STM32H5xx_HAL_Driver/Src/stm32h5xx_hal_pcd.c ****       /* setup EP0 to receive SETUP packets */
1406:Drivers/STM32H5xx_HAL_Driver/Src/stm32h5xx_hal_pcd.c ****       (void)USB_EP0_OutStart(hpcd->Instance, (uint8_t)hpcd->Init.dma_enable,
1407:Drivers/STM32H5xx_HAL_Driver/Src/stm32h5xx_hal_pcd.c ****                              (uint8_t *)hpcd->Setup);
1408:Drivers/STM32H5xx_HAL_Driver/Src/stm32h5xx_hal_pcd.c **** 
1409:Drivers/STM32H5xx_HAL_Driver/Src/stm32h5xx_hal_pcd.c ****       __HAL_PCD_CLEAR_FLAG(hpcd, USB_OTG_GINTSTS_USBRST);
1410:Drivers/STM32H5xx_HAL_Driver/Src/stm32h5xx_hal_pcd.c ****     }
1411:Drivers/STM32H5xx_HAL_Driver/Src/stm32h5xx_hal_pcd.c **** 
1412:Drivers/STM32H5xx_HAL_Driver/Src/stm32h5xx_hal_pcd.c ****     /* Handle Enumeration done Interrupt */
1413:Drivers/STM32H5xx_HAL_Driver/Src/stm32h5xx_hal_pcd.c ****     if (__HAL_PCD_GET_FLAG(hpcd, USB_OTG_GINTSTS_ENUMDNE))
ARM GAS  C:\Users\DELL\AppData\Local\Temp\ccskFJre.s 			page 41


1414:Drivers/STM32H5xx_HAL_Driver/Src/stm32h5xx_hal_pcd.c ****     {
1415:Drivers/STM32H5xx_HAL_Driver/Src/stm32h5xx_hal_pcd.c ****       (void)USB_ActivateSetup(hpcd->Instance);
1416:Drivers/STM32H5xx_HAL_Driver/Src/stm32h5xx_hal_pcd.c ****       hpcd->Init.speed = USB_GetDevSpeed(hpcd->Instance);
1417:Drivers/STM32H5xx_HAL_Driver/Src/stm32h5xx_hal_pcd.c **** 
1418:Drivers/STM32H5xx_HAL_Driver/Src/stm32h5xx_hal_pcd.c ****       /* Set USB Turnaround time */
1419:Drivers/STM32H5xx_HAL_Driver/Src/stm32h5xx_hal_pcd.c ****       (void)USB_SetTurnaroundTime(hpcd->Instance,
1420:Drivers/STM32H5xx_HAL_Driver/Src/stm32h5xx_hal_pcd.c ****                                   HAL_RCC_GetHCLKFreq(),
1421:Drivers/STM32H5xx_HAL_Driver/Src/stm32h5xx_hal_pcd.c ****                                   (uint8_t)hpcd->Init.speed);
1422:Drivers/STM32H5xx_HAL_Driver/Src/stm32h5xx_hal_pcd.c **** 
1423:Drivers/STM32H5xx_HAL_Driver/Src/stm32h5xx_hal_pcd.c **** #if (USE_HAL_PCD_REGISTER_CALLBACKS == 1U)
1424:Drivers/STM32H5xx_HAL_Driver/Src/stm32h5xx_hal_pcd.c ****       hpcd->ResetCallback(hpcd);
1425:Drivers/STM32H5xx_HAL_Driver/Src/stm32h5xx_hal_pcd.c **** #else
1426:Drivers/STM32H5xx_HAL_Driver/Src/stm32h5xx_hal_pcd.c ****       HAL_PCD_ResetCallback(hpcd);
1427:Drivers/STM32H5xx_HAL_Driver/Src/stm32h5xx_hal_pcd.c **** #endif /* USE_HAL_PCD_REGISTER_CALLBACKS */
1428:Drivers/STM32H5xx_HAL_Driver/Src/stm32h5xx_hal_pcd.c **** 
1429:Drivers/STM32H5xx_HAL_Driver/Src/stm32h5xx_hal_pcd.c ****       __HAL_PCD_CLEAR_FLAG(hpcd, USB_OTG_GINTSTS_ENUMDNE);
1430:Drivers/STM32H5xx_HAL_Driver/Src/stm32h5xx_hal_pcd.c ****     }
1431:Drivers/STM32H5xx_HAL_Driver/Src/stm32h5xx_hal_pcd.c **** 
1432:Drivers/STM32H5xx_HAL_Driver/Src/stm32h5xx_hal_pcd.c ****     /* Handle SOF Interrupt */
1433:Drivers/STM32H5xx_HAL_Driver/Src/stm32h5xx_hal_pcd.c ****     if (__HAL_PCD_GET_FLAG(hpcd, USB_OTG_GINTSTS_SOF))
1434:Drivers/STM32H5xx_HAL_Driver/Src/stm32h5xx_hal_pcd.c ****     {
1435:Drivers/STM32H5xx_HAL_Driver/Src/stm32h5xx_hal_pcd.c **** #if (USE_HAL_PCD_REGISTER_CALLBACKS == 1U)
1436:Drivers/STM32H5xx_HAL_Driver/Src/stm32h5xx_hal_pcd.c ****       hpcd->SOFCallback(hpcd);
1437:Drivers/STM32H5xx_HAL_Driver/Src/stm32h5xx_hal_pcd.c **** #else
1438:Drivers/STM32H5xx_HAL_Driver/Src/stm32h5xx_hal_pcd.c ****       HAL_PCD_SOFCallback(hpcd);
1439:Drivers/STM32H5xx_HAL_Driver/Src/stm32h5xx_hal_pcd.c **** #endif /* USE_HAL_PCD_REGISTER_CALLBACKS */
1440:Drivers/STM32H5xx_HAL_Driver/Src/stm32h5xx_hal_pcd.c **** 
1441:Drivers/STM32H5xx_HAL_Driver/Src/stm32h5xx_hal_pcd.c ****       __HAL_PCD_CLEAR_FLAG(hpcd, USB_OTG_GINTSTS_SOF);
1442:Drivers/STM32H5xx_HAL_Driver/Src/stm32h5xx_hal_pcd.c ****     }
1443:Drivers/STM32H5xx_HAL_Driver/Src/stm32h5xx_hal_pcd.c **** 
1444:Drivers/STM32H5xx_HAL_Driver/Src/stm32h5xx_hal_pcd.c ****     /* Handle Global OUT NAK effective Interrupt */
1445:Drivers/STM32H5xx_HAL_Driver/Src/stm32h5xx_hal_pcd.c ****     if (__HAL_PCD_GET_FLAG(hpcd, USB_OTG_GINTSTS_BOUTNAKEFF))
1446:Drivers/STM32H5xx_HAL_Driver/Src/stm32h5xx_hal_pcd.c ****     {
1447:Drivers/STM32H5xx_HAL_Driver/Src/stm32h5xx_hal_pcd.c ****       USBx->GINTMSK &= ~USB_OTG_GINTMSK_GONAKEFFM;
1448:Drivers/STM32H5xx_HAL_Driver/Src/stm32h5xx_hal_pcd.c **** 
1449:Drivers/STM32H5xx_HAL_Driver/Src/stm32h5xx_hal_pcd.c ****       for (epnum = 1U; epnum < hpcd->Init.dev_endpoints; epnum++)
1450:Drivers/STM32H5xx_HAL_Driver/Src/stm32h5xx_hal_pcd.c ****       {
1451:Drivers/STM32H5xx_HAL_Driver/Src/stm32h5xx_hal_pcd.c ****         if (hpcd->OUT_ep[epnum].is_iso_incomplete == 1U)
1452:Drivers/STM32H5xx_HAL_Driver/Src/stm32h5xx_hal_pcd.c ****         {
1453:Drivers/STM32H5xx_HAL_Driver/Src/stm32h5xx_hal_pcd.c ****           /* Abort current transaction and disable the EP */
1454:Drivers/STM32H5xx_HAL_Driver/Src/stm32h5xx_hal_pcd.c ****           (void)HAL_PCD_EP_Abort(hpcd, (uint8_t)epnum);
1455:Drivers/STM32H5xx_HAL_Driver/Src/stm32h5xx_hal_pcd.c ****         }
1456:Drivers/STM32H5xx_HAL_Driver/Src/stm32h5xx_hal_pcd.c ****       }
1457:Drivers/STM32H5xx_HAL_Driver/Src/stm32h5xx_hal_pcd.c ****     }
1458:Drivers/STM32H5xx_HAL_Driver/Src/stm32h5xx_hal_pcd.c **** 
1459:Drivers/STM32H5xx_HAL_Driver/Src/stm32h5xx_hal_pcd.c ****     /* Handle Incomplete ISO IN Interrupt */
1460:Drivers/STM32H5xx_HAL_Driver/Src/stm32h5xx_hal_pcd.c ****     if (__HAL_PCD_GET_FLAG(hpcd, USB_OTG_GINTSTS_IISOIXFR))
1461:Drivers/STM32H5xx_HAL_Driver/Src/stm32h5xx_hal_pcd.c ****     {
1462:Drivers/STM32H5xx_HAL_Driver/Src/stm32h5xx_hal_pcd.c ****       for (epnum = 1U; epnum < hpcd->Init.dev_endpoints; epnum++)
1463:Drivers/STM32H5xx_HAL_Driver/Src/stm32h5xx_hal_pcd.c ****       {
1464:Drivers/STM32H5xx_HAL_Driver/Src/stm32h5xx_hal_pcd.c ****         RegVal = USBx_INEP(epnum)->DIEPCTL;
1465:Drivers/STM32H5xx_HAL_Driver/Src/stm32h5xx_hal_pcd.c **** 
1466:Drivers/STM32H5xx_HAL_Driver/Src/stm32h5xx_hal_pcd.c ****         if ((hpcd->IN_ep[epnum].type == EP_TYPE_ISOC) &&
1467:Drivers/STM32H5xx_HAL_Driver/Src/stm32h5xx_hal_pcd.c ****             ((RegVal & USB_OTG_DIEPCTL_EPENA) == USB_OTG_DIEPCTL_EPENA))
1468:Drivers/STM32H5xx_HAL_Driver/Src/stm32h5xx_hal_pcd.c ****         {
1469:Drivers/STM32H5xx_HAL_Driver/Src/stm32h5xx_hal_pcd.c ****           hpcd->IN_ep[epnum].is_iso_incomplete = 1U;
1470:Drivers/STM32H5xx_HAL_Driver/Src/stm32h5xx_hal_pcd.c **** 
ARM GAS  C:\Users\DELL\AppData\Local\Temp\ccskFJre.s 			page 42


1471:Drivers/STM32H5xx_HAL_Driver/Src/stm32h5xx_hal_pcd.c ****           /* Abort current transaction and disable the EP */
1472:Drivers/STM32H5xx_HAL_Driver/Src/stm32h5xx_hal_pcd.c ****           (void)HAL_PCD_EP_Abort(hpcd, (uint8_t)(epnum | 0x80U));
1473:Drivers/STM32H5xx_HAL_Driver/Src/stm32h5xx_hal_pcd.c ****         }
1474:Drivers/STM32H5xx_HAL_Driver/Src/stm32h5xx_hal_pcd.c ****       }
1475:Drivers/STM32H5xx_HAL_Driver/Src/stm32h5xx_hal_pcd.c **** 
1476:Drivers/STM32H5xx_HAL_Driver/Src/stm32h5xx_hal_pcd.c ****       __HAL_PCD_CLEAR_FLAG(hpcd, USB_OTG_GINTSTS_IISOIXFR);
1477:Drivers/STM32H5xx_HAL_Driver/Src/stm32h5xx_hal_pcd.c ****     }
1478:Drivers/STM32H5xx_HAL_Driver/Src/stm32h5xx_hal_pcd.c **** 
1479:Drivers/STM32H5xx_HAL_Driver/Src/stm32h5xx_hal_pcd.c ****     /* Handle Incomplete ISO OUT Interrupt */
1480:Drivers/STM32H5xx_HAL_Driver/Src/stm32h5xx_hal_pcd.c ****     if (__HAL_PCD_GET_FLAG(hpcd, USB_OTG_GINTSTS_PXFR_INCOMPISOOUT))
1481:Drivers/STM32H5xx_HAL_Driver/Src/stm32h5xx_hal_pcd.c ****     {
1482:Drivers/STM32H5xx_HAL_Driver/Src/stm32h5xx_hal_pcd.c ****       for (epnum = 1U; epnum < hpcd->Init.dev_endpoints; epnum++)
1483:Drivers/STM32H5xx_HAL_Driver/Src/stm32h5xx_hal_pcd.c ****       {
1484:Drivers/STM32H5xx_HAL_Driver/Src/stm32h5xx_hal_pcd.c ****         RegVal = USBx_OUTEP(epnum)->DOEPCTL;
1485:Drivers/STM32H5xx_HAL_Driver/Src/stm32h5xx_hal_pcd.c **** 
1486:Drivers/STM32H5xx_HAL_Driver/Src/stm32h5xx_hal_pcd.c ****         if ((hpcd->OUT_ep[epnum].type == EP_TYPE_ISOC) &&
1487:Drivers/STM32H5xx_HAL_Driver/Src/stm32h5xx_hal_pcd.c ****             ((RegVal & USB_OTG_DOEPCTL_EPENA) == USB_OTG_DOEPCTL_EPENA) &&
1488:Drivers/STM32H5xx_HAL_Driver/Src/stm32h5xx_hal_pcd.c ****             (((RegVal & (0x1U << 16)) >> 16U) == (hpcd->FrameNumber & 0x1U)))
1489:Drivers/STM32H5xx_HAL_Driver/Src/stm32h5xx_hal_pcd.c ****         {
1490:Drivers/STM32H5xx_HAL_Driver/Src/stm32h5xx_hal_pcd.c ****           hpcd->OUT_ep[epnum].is_iso_incomplete = 1U;
1491:Drivers/STM32H5xx_HAL_Driver/Src/stm32h5xx_hal_pcd.c **** 
1492:Drivers/STM32H5xx_HAL_Driver/Src/stm32h5xx_hal_pcd.c ****           USBx->GINTMSK |= USB_OTG_GINTMSK_GONAKEFFM;
1493:Drivers/STM32H5xx_HAL_Driver/Src/stm32h5xx_hal_pcd.c **** 
1494:Drivers/STM32H5xx_HAL_Driver/Src/stm32h5xx_hal_pcd.c ****           if ((USBx->GINTSTS & USB_OTG_GINTSTS_BOUTNAKEFF) == 0U)
1495:Drivers/STM32H5xx_HAL_Driver/Src/stm32h5xx_hal_pcd.c ****           {
1496:Drivers/STM32H5xx_HAL_Driver/Src/stm32h5xx_hal_pcd.c ****             USBx_DEVICE->DCTL |= USB_OTG_DCTL_SGONAK;
1497:Drivers/STM32H5xx_HAL_Driver/Src/stm32h5xx_hal_pcd.c ****             break;
1498:Drivers/STM32H5xx_HAL_Driver/Src/stm32h5xx_hal_pcd.c ****           }
1499:Drivers/STM32H5xx_HAL_Driver/Src/stm32h5xx_hal_pcd.c ****         }
1500:Drivers/STM32H5xx_HAL_Driver/Src/stm32h5xx_hal_pcd.c ****       }
1501:Drivers/STM32H5xx_HAL_Driver/Src/stm32h5xx_hal_pcd.c **** 
1502:Drivers/STM32H5xx_HAL_Driver/Src/stm32h5xx_hal_pcd.c ****       __HAL_PCD_CLEAR_FLAG(hpcd, USB_OTG_GINTSTS_PXFR_INCOMPISOOUT);
1503:Drivers/STM32H5xx_HAL_Driver/Src/stm32h5xx_hal_pcd.c ****     }
1504:Drivers/STM32H5xx_HAL_Driver/Src/stm32h5xx_hal_pcd.c **** 
1505:Drivers/STM32H5xx_HAL_Driver/Src/stm32h5xx_hal_pcd.c ****     /* Handle Connection event Interrupt */
1506:Drivers/STM32H5xx_HAL_Driver/Src/stm32h5xx_hal_pcd.c ****     if (__HAL_PCD_GET_FLAG(hpcd, USB_OTG_GINTSTS_SRQINT))
1507:Drivers/STM32H5xx_HAL_Driver/Src/stm32h5xx_hal_pcd.c ****     {
1508:Drivers/STM32H5xx_HAL_Driver/Src/stm32h5xx_hal_pcd.c **** #if (USE_HAL_PCD_REGISTER_CALLBACKS == 1U)
1509:Drivers/STM32H5xx_HAL_Driver/Src/stm32h5xx_hal_pcd.c ****       hpcd->ConnectCallback(hpcd);
1510:Drivers/STM32H5xx_HAL_Driver/Src/stm32h5xx_hal_pcd.c **** #else
1511:Drivers/STM32H5xx_HAL_Driver/Src/stm32h5xx_hal_pcd.c ****       HAL_PCD_ConnectCallback(hpcd);
1512:Drivers/STM32H5xx_HAL_Driver/Src/stm32h5xx_hal_pcd.c **** #endif /* USE_HAL_PCD_REGISTER_CALLBACKS */
1513:Drivers/STM32H5xx_HAL_Driver/Src/stm32h5xx_hal_pcd.c **** 
1514:Drivers/STM32H5xx_HAL_Driver/Src/stm32h5xx_hal_pcd.c ****       __HAL_PCD_CLEAR_FLAG(hpcd, USB_OTG_GINTSTS_SRQINT);
1515:Drivers/STM32H5xx_HAL_Driver/Src/stm32h5xx_hal_pcd.c ****     }
1516:Drivers/STM32H5xx_HAL_Driver/Src/stm32h5xx_hal_pcd.c **** 
1517:Drivers/STM32H5xx_HAL_Driver/Src/stm32h5xx_hal_pcd.c ****     /* Handle Disconnection event Interrupt */
1518:Drivers/STM32H5xx_HAL_Driver/Src/stm32h5xx_hal_pcd.c ****     if (__HAL_PCD_GET_FLAG(hpcd, USB_OTG_GINTSTS_OTGINT))
1519:Drivers/STM32H5xx_HAL_Driver/Src/stm32h5xx_hal_pcd.c ****     {
1520:Drivers/STM32H5xx_HAL_Driver/Src/stm32h5xx_hal_pcd.c ****       RegVal = hpcd->Instance->GOTGINT;
1521:Drivers/STM32H5xx_HAL_Driver/Src/stm32h5xx_hal_pcd.c **** 
1522:Drivers/STM32H5xx_HAL_Driver/Src/stm32h5xx_hal_pcd.c ****       if ((RegVal & USB_OTG_GOTGINT_SEDET) == USB_OTG_GOTGINT_SEDET)
1523:Drivers/STM32H5xx_HAL_Driver/Src/stm32h5xx_hal_pcd.c ****       {
1524:Drivers/STM32H5xx_HAL_Driver/Src/stm32h5xx_hal_pcd.c **** #if (USE_HAL_PCD_REGISTER_CALLBACKS == 1U)
1525:Drivers/STM32H5xx_HAL_Driver/Src/stm32h5xx_hal_pcd.c ****         hpcd->DisconnectCallback(hpcd);
1526:Drivers/STM32H5xx_HAL_Driver/Src/stm32h5xx_hal_pcd.c **** #else
1527:Drivers/STM32H5xx_HAL_Driver/Src/stm32h5xx_hal_pcd.c ****         HAL_PCD_DisconnectCallback(hpcd);
ARM GAS  C:\Users\DELL\AppData\Local\Temp\ccskFJre.s 			page 43


1528:Drivers/STM32H5xx_HAL_Driver/Src/stm32h5xx_hal_pcd.c **** #endif /* USE_HAL_PCD_REGISTER_CALLBACKS */
1529:Drivers/STM32H5xx_HAL_Driver/Src/stm32h5xx_hal_pcd.c ****       }
1530:Drivers/STM32H5xx_HAL_Driver/Src/stm32h5xx_hal_pcd.c ****       hpcd->Instance->GOTGINT |= RegVal;
1531:Drivers/STM32H5xx_HAL_Driver/Src/stm32h5xx_hal_pcd.c ****     }
1532:Drivers/STM32H5xx_HAL_Driver/Src/stm32h5xx_hal_pcd.c ****   }
1533:Drivers/STM32H5xx_HAL_Driver/Src/stm32h5xx_hal_pcd.c **** }
1534:Drivers/STM32H5xx_HAL_Driver/Src/stm32h5xx_hal_pcd.c **** #endif /* defined (USB_OTG_FS) || defined (USB_OTG_HS) */
1535:Drivers/STM32H5xx_HAL_Driver/Src/stm32h5xx_hal_pcd.c **** 
1536:Drivers/STM32H5xx_HAL_Driver/Src/stm32h5xx_hal_pcd.c **** #if defined (USB_DRD_FS)
1537:Drivers/STM32H5xx_HAL_Driver/Src/stm32h5xx_hal_pcd.c **** /**
1538:Drivers/STM32H5xx_HAL_Driver/Src/stm32h5xx_hal_pcd.c ****   * @brief  This function handles PCD interrupt request.
1539:Drivers/STM32H5xx_HAL_Driver/Src/stm32h5xx_hal_pcd.c ****   * @param  hpcd PCD handle
1540:Drivers/STM32H5xx_HAL_Driver/Src/stm32h5xx_hal_pcd.c ****   * @retval HAL status
1541:Drivers/STM32H5xx_HAL_Driver/Src/stm32h5xx_hal_pcd.c ****   */
1542:Drivers/STM32H5xx_HAL_Driver/Src/stm32h5xx_hal_pcd.c **** void HAL_PCD_IRQHandler(PCD_HandleTypeDef *hpcd)
1543:Drivers/STM32H5xx_HAL_Driver/Src/stm32h5xx_hal_pcd.c **** {
1544:Drivers/STM32H5xx_HAL_Driver/Src/stm32h5xx_hal_pcd.c ****   uint32_t wIstr = USB_ReadInterrupts(hpcd->Instance);
1545:Drivers/STM32H5xx_HAL_Driver/Src/stm32h5xx_hal_pcd.c **** 
1546:Drivers/STM32H5xx_HAL_Driver/Src/stm32h5xx_hal_pcd.c ****   if ((wIstr & USB_ISTR_CTR) == USB_ISTR_CTR)
1547:Drivers/STM32H5xx_HAL_Driver/Src/stm32h5xx_hal_pcd.c ****   {
1548:Drivers/STM32H5xx_HAL_Driver/Src/stm32h5xx_hal_pcd.c ****     /* servicing of the endpoint correct transfer interrupt */
1549:Drivers/STM32H5xx_HAL_Driver/Src/stm32h5xx_hal_pcd.c ****     /* clear of the CTR flag into the sub */
1550:Drivers/STM32H5xx_HAL_Driver/Src/stm32h5xx_hal_pcd.c ****     (void)PCD_EP_ISR_Handler(hpcd);
1551:Drivers/STM32H5xx_HAL_Driver/Src/stm32h5xx_hal_pcd.c **** 
1552:Drivers/STM32H5xx_HAL_Driver/Src/stm32h5xx_hal_pcd.c ****     return;
1553:Drivers/STM32H5xx_HAL_Driver/Src/stm32h5xx_hal_pcd.c ****   }
1554:Drivers/STM32H5xx_HAL_Driver/Src/stm32h5xx_hal_pcd.c **** 
1555:Drivers/STM32H5xx_HAL_Driver/Src/stm32h5xx_hal_pcd.c ****   if ((wIstr & USB_ISTR_RESET) == USB_ISTR_RESET)
1556:Drivers/STM32H5xx_HAL_Driver/Src/stm32h5xx_hal_pcd.c ****   {
1557:Drivers/STM32H5xx_HAL_Driver/Src/stm32h5xx_hal_pcd.c ****     __HAL_PCD_CLEAR_FLAG(hpcd, USB_ISTR_RESET);
1558:Drivers/STM32H5xx_HAL_Driver/Src/stm32h5xx_hal_pcd.c **** 
1559:Drivers/STM32H5xx_HAL_Driver/Src/stm32h5xx_hal_pcd.c **** #if (USE_HAL_PCD_REGISTER_CALLBACKS == 1U)
1560:Drivers/STM32H5xx_HAL_Driver/Src/stm32h5xx_hal_pcd.c ****     hpcd->ResetCallback(hpcd);
1561:Drivers/STM32H5xx_HAL_Driver/Src/stm32h5xx_hal_pcd.c **** #else
1562:Drivers/STM32H5xx_HAL_Driver/Src/stm32h5xx_hal_pcd.c ****     HAL_PCD_ResetCallback(hpcd);
1563:Drivers/STM32H5xx_HAL_Driver/Src/stm32h5xx_hal_pcd.c **** #endif /* USE_HAL_PCD_REGISTER_CALLBACKS */
1564:Drivers/STM32H5xx_HAL_Driver/Src/stm32h5xx_hal_pcd.c **** 
1565:Drivers/STM32H5xx_HAL_Driver/Src/stm32h5xx_hal_pcd.c ****     (void)HAL_PCD_SetAddress(hpcd, 0U);
1566:Drivers/STM32H5xx_HAL_Driver/Src/stm32h5xx_hal_pcd.c **** 
1567:Drivers/STM32H5xx_HAL_Driver/Src/stm32h5xx_hal_pcd.c ****     return;
1568:Drivers/STM32H5xx_HAL_Driver/Src/stm32h5xx_hal_pcd.c ****   }
1569:Drivers/STM32H5xx_HAL_Driver/Src/stm32h5xx_hal_pcd.c **** 
1570:Drivers/STM32H5xx_HAL_Driver/Src/stm32h5xx_hal_pcd.c ****   if ((wIstr & USB_ISTR_PMAOVR) == USB_ISTR_PMAOVR)
1571:Drivers/STM32H5xx_HAL_Driver/Src/stm32h5xx_hal_pcd.c ****   {
1572:Drivers/STM32H5xx_HAL_Driver/Src/stm32h5xx_hal_pcd.c ****     __HAL_PCD_CLEAR_FLAG(hpcd, USB_ISTR_PMAOVR);
1573:Drivers/STM32H5xx_HAL_Driver/Src/stm32h5xx_hal_pcd.c **** 
1574:Drivers/STM32H5xx_HAL_Driver/Src/stm32h5xx_hal_pcd.c ****     return;
1575:Drivers/STM32H5xx_HAL_Driver/Src/stm32h5xx_hal_pcd.c ****   }
1576:Drivers/STM32H5xx_HAL_Driver/Src/stm32h5xx_hal_pcd.c **** 
1577:Drivers/STM32H5xx_HAL_Driver/Src/stm32h5xx_hal_pcd.c ****   if ((wIstr & USB_ISTR_ERR) == USB_ISTR_ERR)
1578:Drivers/STM32H5xx_HAL_Driver/Src/stm32h5xx_hal_pcd.c ****   {
1579:Drivers/STM32H5xx_HAL_Driver/Src/stm32h5xx_hal_pcd.c ****     __HAL_PCD_CLEAR_FLAG(hpcd, USB_ISTR_ERR);
1580:Drivers/STM32H5xx_HAL_Driver/Src/stm32h5xx_hal_pcd.c **** 
1581:Drivers/STM32H5xx_HAL_Driver/Src/stm32h5xx_hal_pcd.c ****     return;
1582:Drivers/STM32H5xx_HAL_Driver/Src/stm32h5xx_hal_pcd.c ****   }
1583:Drivers/STM32H5xx_HAL_Driver/Src/stm32h5xx_hal_pcd.c **** 
1584:Drivers/STM32H5xx_HAL_Driver/Src/stm32h5xx_hal_pcd.c ****   if ((wIstr & USB_ISTR_WKUP) == USB_ISTR_WKUP)
ARM GAS  C:\Users\DELL\AppData\Local\Temp\ccskFJre.s 			page 44


1585:Drivers/STM32H5xx_HAL_Driver/Src/stm32h5xx_hal_pcd.c ****   {
1586:Drivers/STM32H5xx_HAL_Driver/Src/stm32h5xx_hal_pcd.c ****     hpcd->Instance->CNTR &= ~(USB_CNTR_SUSPRDY);
1587:Drivers/STM32H5xx_HAL_Driver/Src/stm32h5xx_hal_pcd.c ****     hpcd->Instance->CNTR &= ~(USB_CNTR_SUSPEN);
1588:Drivers/STM32H5xx_HAL_Driver/Src/stm32h5xx_hal_pcd.c **** 
1589:Drivers/STM32H5xx_HAL_Driver/Src/stm32h5xx_hal_pcd.c ****     if (hpcd->LPM_State == LPM_L1)
1590:Drivers/STM32H5xx_HAL_Driver/Src/stm32h5xx_hal_pcd.c ****     {
1591:Drivers/STM32H5xx_HAL_Driver/Src/stm32h5xx_hal_pcd.c ****       hpcd->LPM_State = LPM_L0;
1592:Drivers/STM32H5xx_HAL_Driver/Src/stm32h5xx_hal_pcd.c **** #if (USE_HAL_PCD_REGISTER_CALLBACKS == 1U)
1593:Drivers/STM32H5xx_HAL_Driver/Src/stm32h5xx_hal_pcd.c ****       hpcd->LPMCallback(hpcd, PCD_LPM_L0_ACTIVE);
1594:Drivers/STM32H5xx_HAL_Driver/Src/stm32h5xx_hal_pcd.c **** #else
1595:Drivers/STM32H5xx_HAL_Driver/Src/stm32h5xx_hal_pcd.c ****       HAL_PCDEx_LPM_Callback(hpcd, PCD_LPM_L0_ACTIVE);
1596:Drivers/STM32H5xx_HAL_Driver/Src/stm32h5xx_hal_pcd.c **** #endif /* USE_HAL_PCD_REGISTER_CALLBACKS */
1597:Drivers/STM32H5xx_HAL_Driver/Src/stm32h5xx_hal_pcd.c ****     }
1598:Drivers/STM32H5xx_HAL_Driver/Src/stm32h5xx_hal_pcd.c **** 
1599:Drivers/STM32H5xx_HAL_Driver/Src/stm32h5xx_hal_pcd.c **** #if (USE_HAL_PCD_REGISTER_CALLBACKS == 1U)
1600:Drivers/STM32H5xx_HAL_Driver/Src/stm32h5xx_hal_pcd.c ****     hpcd->ResumeCallback(hpcd);
1601:Drivers/STM32H5xx_HAL_Driver/Src/stm32h5xx_hal_pcd.c **** #else
1602:Drivers/STM32H5xx_HAL_Driver/Src/stm32h5xx_hal_pcd.c ****     HAL_PCD_ResumeCallback(hpcd);
1603:Drivers/STM32H5xx_HAL_Driver/Src/stm32h5xx_hal_pcd.c **** #endif /* USE_HAL_PCD_REGISTER_CALLBACKS */
1604:Drivers/STM32H5xx_HAL_Driver/Src/stm32h5xx_hal_pcd.c **** 
1605:Drivers/STM32H5xx_HAL_Driver/Src/stm32h5xx_hal_pcd.c ****     __HAL_PCD_CLEAR_FLAG(hpcd, USB_ISTR_WKUP);
1606:Drivers/STM32H5xx_HAL_Driver/Src/stm32h5xx_hal_pcd.c **** 
1607:Drivers/STM32H5xx_HAL_Driver/Src/stm32h5xx_hal_pcd.c ****     return;
1608:Drivers/STM32H5xx_HAL_Driver/Src/stm32h5xx_hal_pcd.c ****   }
1609:Drivers/STM32H5xx_HAL_Driver/Src/stm32h5xx_hal_pcd.c **** 
1610:Drivers/STM32H5xx_HAL_Driver/Src/stm32h5xx_hal_pcd.c ****   if ((wIstr & USB_ISTR_SUSP) == USB_ISTR_SUSP)
1611:Drivers/STM32H5xx_HAL_Driver/Src/stm32h5xx_hal_pcd.c ****   {
1612:Drivers/STM32H5xx_HAL_Driver/Src/stm32h5xx_hal_pcd.c ****     /* Force low-power mode in the macrocell */
1613:Drivers/STM32H5xx_HAL_Driver/Src/stm32h5xx_hal_pcd.c ****     hpcd->Instance->CNTR |= USB_CNTR_SUSPEN;
1614:Drivers/STM32H5xx_HAL_Driver/Src/stm32h5xx_hal_pcd.c **** 
1615:Drivers/STM32H5xx_HAL_Driver/Src/stm32h5xx_hal_pcd.c ****     /* clear of the ISTR bit must be done after setting of CNTR_FSUSP */
1616:Drivers/STM32H5xx_HAL_Driver/Src/stm32h5xx_hal_pcd.c ****     __HAL_PCD_CLEAR_FLAG(hpcd, USB_ISTR_SUSP);
1617:Drivers/STM32H5xx_HAL_Driver/Src/stm32h5xx_hal_pcd.c **** 
1618:Drivers/STM32H5xx_HAL_Driver/Src/stm32h5xx_hal_pcd.c ****     hpcd->Instance->CNTR |= USB_CNTR_SUSPRDY;
1619:Drivers/STM32H5xx_HAL_Driver/Src/stm32h5xx_hal_pcd.c **** 
1620:Drivers/STM32H5xx_HAL_Driver/Src/stm32h5xx_hal_pcd.c **** #if (USE_HAL_PCD_REGISTER_CALLBACKS == 1U)
1621:Drivers/STM32H5xx_HAL_Driver/Src/stm32h5xx_hal_pcd.c ****     hpcd->SuspendCallback(hpcd);
1622:Drivers/STM32H5xx_HAL_Driver/Src/stm32h5xx_hal_pcd.c **** #else
1623:Drivers/STM32H5xx_HAL_Driver/Src/stm32h5xx_hal_pcd.c ****     HAL_PCD_SuspendCallback(hpcd);
1624:Drivers/STM32H5xx_HAL_Driver/Src/stm32h5xx_hal_pcd.c **** #endif /* USE_HAL_PCD_REGISTER_CALLBACKS */
1625:Drivers/STM32H5xx_HAL_Driver/Src/stm32h5xx_hal_pcd.c **** 
1626:Drivers/STM32H5xx_HAL_Driver/Src/stm32h5xx_hal_pcd.c ****     return;
1627:Drivers/STM32H5xx_HAL_Driver/Src/stm32h5xx_hal_pcd.c ****   }
1628:Drivers/STM32H5xx_HAL_Driver/Src/stm32h5xx_hal_pcd.c **** 
1629:Drivers/STM32H5xx_HAL_Driver/Src/stm32h5xx_hal_pcd.c ****   /* Handle LPM Interrupt */
1630:Drivers/STM32H5xx_HAL_Driver/Src/stm32h5xx_hal_pcd.c ****   if ((wIstr & USB_ISTR_L1REQ) == USB_ISTR_L1REQ)
1631:Drivers/STM32H5xx_HAL_Driver/Src/stm32h5xx_hal_pcd.c ****   {
1632:Drivers/STM32H5xx_HAL_Driver/Src/stm32h5xx_hal_pcd.c ****     __HAL_PCD_CLEAR_FLAG(hpcd, USB_ISTR_L1REQ);
1633:Drivers/STM32H5xx_HAL_Driver/Src/stm32h5xx_hal_pcd.c ****     if (hpcd->LPM_State == LPM_L0)
1634:Drivers/STM32H5xx_HAL_Driver/Src/stm32h5xx_hal_pcd.c ****     {
1635:Drivers/STM32H5xx_HAL_Driver/Src/stm32h5xx_hal_pcd.c ****       /* Force suspend and low-power mode before going to L1 state*/
1636:Drivers/STM32H5xx_HAL_Driver/Src/stm32h5xx_hal_pcd.c ****       hpcd->Instance->CNTR |= USB_CNTR_SUSPRDY;
1637:Drivers/STM32H5xx_HAL_Driver/Src/stm32h5xx_hal_pcd.c ****       hpcd->Instance->CNTR |= USB_CNTR_SUSPEN;
1638:Drivers/STM32H5xx_HAL_Driver/Src/stm32h5xx_hal_pcd.c **** 
1639:Drivers/STM32H5xx_HAL_Driver/Src/stm32h5xx_hal_pcd.c ****       hpcd->LPM_State = LPM_L1;
1640:Drivers/STM32H5xx_HAL_Driver/Src/stm32h5xx_hal_pcd.c ****       hpcd->BESL = ((uint32_t)hpcd->Instance->LPMCSR & USB_LPMCSR_BESL) >> 2;
1641:Drivers/STM32H5xx_HAL_Driver/Src/stm32h5xx_hal_pcd.c **** #if (USE_HAL_PCD_REGISTER_CALLBACKS == 1U)
ARM GAS  C:\Users\DELL\AppData\Local\Temp\ccskFJre.s 			page 45


1642:Drivers/STM32H5xx_HAL_Driver/Src/stm32h5xx_hal_pcd.c ****       hpcd->LPMCallback(hpcd, PCD_LPM_L1_ACTIVE);
1643:Drivers/STM32H5xx_HAL_Driver/Src/stm32h5xx_hal_pcd.c **** #else
1644:Drivers/STM32H5xx_HAL_Driver/Src/stm32h5xx_hal_pcd.c ****       HAL_PCDEx_LPM_Callback(hpcd, PCD_LPM_L1_ACTIVE);
1645:Drivers/STM32H5xx_HAL_Driver/Src/stm32h5xx_hal_pcd.c **** #endif /* USE_HAL_PCD_REGISTER_CALLBACKS */
1646:Drivers/STM32H5xx_HAL_Driver/Src/stm32h5xx_hal_pcd.c ****     }
1647:Drivers/STM32H5xx_HAL_Driver/Src/stm32h5xx_hal_pcd.c ****     else
1648:Drivers/STM32H5xx_HAL_Driver/Src/stm32h5xx_hal_pcd.c ****     {
1649:Drivers/STM32H5xx_HAL_Driver/Src/stm32h5xx_hal_pcd.c **** #if (USE_HAL_PCD_REGISTER_CALLBACKS == 1U)
1650:Drivers/STM32H5xx_HAL_Driver/Src/stm32h5xx_hal_pcd.c ****       hpcd->SuspendCallback(hpcd);
1651:Drivers/STM32H5xx_HAL_Driver/Src/stm32h5xx_hal_pcd.c **** #else
1652:Drivers/STM32H5xx_HAL_Driver/Src/stm32h5xx_hal_pcd.c ****       HAL_PCD_SuspendCallback(hpcd);
1653:Drivers/STM32H5xx_HAL_Driver/Src/stm32h5xx_hal_pcd.c **** #endif /* USE_HAL_PCD_REGISTER_CALLBACKS */
1654:Drivers/STM32H5xx_HAL_Driver/Src/stm32h5xx_hal_pcd.c ****     }
1655:Drivers/STM32H5xx_HAL_Driver/Src/stm32h5xx_hal_pcd.c **** 
1656:Drivers/STM32H5xx_HAL_Driver/Src/stm32h5xx_hal_pcd.c ****     return;
1657:Drivers/STM32H5xx_HAL_Driver/Src/stm32h5xx_hal_pcd.c ****   }
1658:Drivers/STM32H5xx_HAL_Driver/Src/stm32h5xx_hal_pcd.c **** 
1659:Drivers/STM32H5xx_HAL_Driver/Src/stm32h5xx_hal_pcd.c ****   if ((wIstr & USB_ISTR_SOF) == USB_ISTR_SOF)
1660:Drivers/STM32H5xx_HAL_Driver/Src/stm32h5xx_hal_pcd.c ****   {
1661:Drivers/STM32H5xx_HAL_Driver/Src/stm32h5xx_hal_pcd.c ****     __HAL_PCD_CLEAR_FLAG(hpcd, USB_ISTR_SOF);
1662:Drivers/STM32H5xx_HAL_Driver/Src/stm32h5xx_hal_pcd.c **** 
1663:Drivers/STM32H5xx_HAL_Driver/Src/stm32h5xx_hal_pcd.c **** #if (USE_HAL_PCD_REGISTER_CALLBACKS == 1U)
1664:Drivers/STM32H5xx_HAL_Driver/Src/stm32h5xx_hal_pcd.c ****     hpcd->SOFCallback(hpcd);
1665:Drivers/STM32H5xx_HAL_Driver/Src/stm32h5xx_hal_pcd.c **** #else
1666:Drivers/STM32H5xx_HAL_Driver/Src/stm32h5xx_hal_pcd.c ****     HAL_PCD_SOFCallback(hpcd);
1667:Drivers/STM32H5xx_HAL_Driver/Src/stm32h5xx_hal_pcd.c **** #endif /* USE_HAL_PCD_REGISTER_CALLBACKS */
1668:Drivers/STM32H5xx_HAL_Driver/Src/stm32h5xx_hal_pcd.c **** 
1669:Drivers/STM32H5xx_HAL_Driver/Src/stm32h5xx_hal_pcd.c ****     return;
1670:Drivers/STM32H5xx_HAL_Driver/Src/stm32h5xx_hal_pcd.c ****   }
1671:Drivers/STM32H5xx_HAL_Driver/Src/stm32h5xx_hal_pcd.c **** 
1672:Drivers/STM32H5xx_HAL_Driver/Src/stm32h5xx_hal_pcd.c ****   if ((wIstr & USB_ISTR_ESOF) == USB_ISTR_ESOF)
1673:Drivers/STM32H5xx_HAL_Driver/Src/stm32h5xx_hal_pcd.c ****   {
1674:Drivers/STM32H5xx_HAL_Driver/Src/stm32h5xx_hal_pcd.c ****     /* clear ESOF flag in ISTR */
1675:Drivers/STM32H5xx_HAL_Driver/Src/stm32h5xx_hal_pcd.c ****     __HAL_PCD_CLEAR_FLAG(hpcd, USB_ISTR_ESOF);
1676:Drivers/STM32H5xx_HAL_Driver/Src/stm32h5xx_hal_pcd.c **** 
1677:Drivers/STM32H5xx_HAL_Driver/Src/stm32h5xx_hal_pcd.c ****     return;
1678:Drivers/STM32H5xx_HAL_Driver/Src/stm32h5xx_hal_pcd.c ****   }
1679:Drivers/STM32H5xx_HAL_Driver/Src/stm32h5xx_hal_pcd.c **** }
1680:Drivers/STM32H5xx_HAL_Driver/Src/stm32h5xx_hal_pcd.c **** #endif /* defined (USB_DRD_FS) */
1681:Drivers/STM32H5xx_HAL_Driver/Src/stm32h5xx_hal_pcd.c **** 
1682:Drivers/STM32H5xx_HAL_Driver/Src/stm32h5xx_hal_pcd.c **** /**
1683:Drivers/STM32H5xx_HAL_Driver/Src/stm32h5xx_hal_pcd.c ****   * @brief  Data OUT stage callback.
1684:Drivers/STM32H5xx_HAL_Driver/Src/stm32h5xx_hal_pcd.c ****   * @param  hpcd PCD handle
1685:Drivers/STM32H5xx_HAL_Driver/Src/stm32h5xx_hal_pcd.c ****   * @param  epnum endpoint number
1686:Drivers/STM32H5xx_HAL_Driver/Src/stm32h5xx_hal_pcd.c ****   * @retval None
1687:Drivers/STM32H5xx_HAL_Driver/Src/stm32h5xx_hal_pcd.c ****   */
1688:Drivers/STM32H5xx_HAL_Driver/Src/stm32h5xx_hal_pcd.c **** __weak void HAL_PCD_DataOutStageCallback(PCD_HandleTypeDef *hpcd, uint8_t epnum)
1689:Drivers/STM32H5xx_HAL_Driver/Src/stm32h5xx_hal_pcd.c **** {
1690:Drivers/STM32H5xx_HAL_Driver/Src/stm32h5xx_hal_pcd.c ****   /* Prevent unused argument(s) compilation warning */
1691:Drivers/STM32H5xx_HAL_Driver/Src/stm32h5xx_hal_pcd.c ****   UNUSED(hpcd);
1692:Drivers/STM32H5xx_HAL_Driver/Src/stm32h5xx_hal_pcd.c ****   UNUSED(epnum);
1693:Drivers/STM32H5xx_HAL_Driver/Src/stm32h5xx_hal_pcd.c **** 
1694:Drivers/STM32H5xx_HAL_Driver/Src/stm32h5xx_hal_pcd.c ****   /* NOTE : This function should not be modified, when the callback is needed,
1695:Drivers/STM32H5xx_HAL_Driver/Src/stm32h5xx_hal_pcd.c ****             the HAL_PCD_DataOutStageCallback could be implemented in the user file
1696:Drivers/STM32H5xx_HAL_Driver/Src/stm32h5xx_hal_pcd.c ****    */
1697:Drivers/STM32H5xx_HAL_Driver/Src/stm32h5xx_hal_pcd.c **** }
1698:Drivers/STM32H5xx_HAL_Driver/Src/stm32h5xx_hal_pcd.c **** 
ARM GAS  C:\Users\DELL\AppData\Local\Temp\ccskFJre.s 			page 46


1699:Drivers/STM32H5xx_HAL_Driver/Src/stm32h5xx_hal_pcd.c **** /**
1700:Drivers/STM32H5xx_HAL_Driver/Src/stm32h5xx_hal_pcd.c ****   * @brief  Data IN stage callback
1701:Drivers/STM32H5xx_HAL_Driver/Src/stm32h5xx_hal_pcd.c ****   * @param  hpcd PCD handle
1702:Drivers/STM32H5xx_HAL_Driver/Src/stm32h5xx_hal_pcd.c ****   * @param  epnum endpoint number
1703:Drivers/STM32H5xx_HAL_Driver/Src/stm32h5xx_hal_pcd.c ****   * @retval None
1704:Drivers/STM32H5xx_HAL_Driver/Src/stm32h5xx_hal_pcd.c ****   */
1705:Drivers/STM32H5xx_HAL_Driver/Src/stm32h5xx_hal_pcd.c **** __weak void HAL_PCD_DataInStageCallback(PCD_HandleTypeDef *hpcd, uint8_t epnum)
1706:Drivers/STM32H5xx_HAL_Driver/Src/stm32h5xx_hal_pcd.c **** {
1707:Drivers/STM32H5xx_HAL_Driver/Src/stm32h5xx_hal_pcd.c ****   /* Prevent unused argument(s) compilation warning */
1708:Drivers/STM32H5xx_HAL_Driver/Src/stm32h5xx_hal_pcd.c ****   UNUSED(hpcd);
1709:Drivers/STM32H5xx_HAL_Driver/Src/stm32h5xx_hal_pcd.c ****   UNUSED(epnum);
1710:Drivers/STM32H5xx_HAL_Driver/Src/stm32h5xx_hal_pcd.c **** 
1711:Drivers/STM32H5xx_HAL_Driver/Src/stm32h5xx_hal_pcd.c ****   /* NOTE : This function should not be modified, when the callback is needed,
1712:Drivers/STM32H5xx_HAL_Driver/Src/stm32h5xx_hal_pcd.c ****             the HAL_PCD_DataInStageCallback could be implemented in the user file
1713:Drivers/STM32H5xx_HAL_Driver/Src/stm32h5xx_hal_pcd.c ****    */
1714:Drivers/STM32H5xx_HAL_Driver/Src/stm32h5xx_hal_pcd.c **** }
1715:Drivers/STM32H5xx_HAL_Driver/Src/stm32h5xx_hal_pcd.c **** /**
1716:Drivers/STM32H5xx_HAL_Driver/Src/stm32h5xx_hal_pcd.c ****   * @brief  Setup stage callback
1717:Drivers/STM32H5xx_HAL_Driver/Src/stm32h5xx_hal_pcd.c ****   * @param  hpcd PCD handle
1718:Drivers/STM32H5xx_HAL_Driver/Src/stm32h5xx_hal_pcd.c ****   * @retval None
1719:Drivers/STM32H5xx_HAL_Driver/Src/stm32h5xx_hal_pcd.c ****   */
1720:Drivers/STM32H5xx_HAL_Driver/Src/stm32h5xx_hal_pcd.c **** __weak void HAL_PCD_SetupStageCallback(PCD_HandleTypeDef *hpcd)
1721:Drivers/STM32H5xx_HAL_Driver/Src/stm32h5xx_hal_pcd.c **** {
1722:Drivers/STM32H5xx_HAL_Driver/Src/stm32h5xx_hal_pcd.c ****   /* Prevent unused argument(s) compilation warning */
1723:Drivers/STM32H5xx_HAL_Driver/Src/stm32h5xx_hal_pcd.c ****   UNUSED(hpcd);
1724:Drivers/STM32H5xx_HAL_Driver/Src/stm32h5xx_hal_pcd.c **** 
1725:Drivers/STM32H5xx_HAL_Driver/Src/stm32h5xx_hal_pcd.c ****   /* NOTE : This function should not be modified, when the callback is needed,
1726:Drivers/STM32H5xx_HAL_Driver/Src/stm32h5xx_hal_pcd.c ****             the HAL_PCD_SetupStageCallback could be implemented in the user file
1727:Drivers/STM32H5xx_HAL_Driver/Src/stm32h5xx_hal_pcd.c ****    */
1728:Drivers/STM32H5xx_HAL_Driver/Src/stm32h5xx_hal_pcd.c **** }
1729:Drivers/STM32H5xx_HAL_Driver/Src/stm32h5xx_hal_pcd.c **** 
1730:Drivers/STM32H5xx_HAL_Driver/Src/stm32h5xx_hal_pcd.c **** /**
1731:Drivers/STM32H5xx_HAL_Driver/Src/stm32h5xx_hal_pcd.c ****   * @brief  USB Start Of Frame callback.
1732:Drivers/STM32H5xx_HAL_Driver/Src/stm32h5xx_hal_pcd.c ****   * @param  hpcd PCD handle
1733:Drivers/STM32H5xx_HAL_Driver/Src/stm32h5xx_hal_pcd.c ****   * @retval None
1734:Drivers/STM32H5xx_HAL_Driver/Src/stm32h5xx_hal_pcd.c ****   */
1735:Drivers/STM32H5xx_HAL_Driver/Src/stm32h5xx_hal_pcd.c **** __weak void HAL_PCD_SOFCallback(PCD_HandleTypeDef *hpcd)
1736:Drivers/STM32H5xx_HAL_Driver/Src/stm32h5xx_hal_pcd.c **** {
1737:Drivers/STM32H5xx_HAL_Driver/Src/stm32h5xx_hal_pcd.c ****   /* Prevent unused argument(s) compilation warning */
1738:Drivers/STM32H5xx_HAL_Driver/Src/stm32h5xx_hal_pcd.c ****   UNUSED(hpcd);
1739:Drivers/STM32H5xx_HAL_Driver/Src/stm32h5xx_hal_pcd.c **** 
1740:Drivers/STM32H5xx_HAL_Driver/Src/stm32h5xx_hal_pcd.c ****   /* NOTE : This function should not be modified, when the callback is needed,
1741:Drivers/STM32H5xx_HAL_Driver/Src/stm32h5xx_hal_pcd.c ****             the HAL_PCD_SOFCallback could be implemented in the user file
1742:Drivers/STM32H5xx_HAL_Driver/Src/stm32h5xx_hal_pcd.c ****    */
1743:Drivers/STM32H5xx_HAL_Driver/Src/stm32h5xx_hal_pcd.c **** }
1744:Drivers/STM32H5xx_HAL_Driver/Src/stm32h5xx_hal_pcd.c **** 
1745:Drivers/STM32H5xx_HAL_Driver/Src/stm32h5xx_hal_pcd.c **** /**
1746:Drivers/STM32H5xx_HAL_Driver/Src/stm32h5xx_hal_pcd.c ****   * @brief  USB Reset callback.
1747:Drivers/STM32H5xx_HAL_Driver/Src/stm32h5xx_hal_pcd.c ****   * @param  hpcd PCD handle
1748:Drivers/STM32H5xx_HAL_Driver/Src/stm32h5xx_hal_pcd.c ****   * @retval None
1749:Drivers/STM32H5xx_HAL_Driver/Src/stm32h5xx_hal_pcd.c ****   */
1750:Drivers/STM32H5xx_HAL_Driver/Src/stm32h5xx_hal_pcd.c **** __weak void HAL_PCD_ResetCallback(PCD_HandleTypeDef *hpcd)
1751:Drivers/STM32H5xx_HAL_Driver/Src/stm32h5xx_hal_pcd.c **** {
1752:Drivers/STM32H5xx_HAL_Driver/Src/stm32h5xx_hal_pcd.c ****   /* Prevent unused argument(s) compilation warning */
1753:Drivers/STM32H5xx_HAL_Driver/Src/stm32h5xx_hal_pcd.c ****   UNUSED(hpcd);
1754:Drivers/STM32H5xx_HAL_Driver/Src/stm32h5xx_hal_pcd.c **** 
1755:Drivers/STM32H5xx_HAL_Driver/Src/stm32h5xx_hal_pcd.c ****   /* NOTE : This function should not be modified, when the callback is needed,
ARM GAS  C:\Users\DELL\AppData\Local\Temp\ccskFJre.s 			page 47


1756:Drivers/STM32H5xx_HAL_Driver/Src/stm32h5xx_hal_pcd.c ****             the HAL_PCD_ResetCallback could be implemented in the user file
1757:Drivers/STM32H5xx_HAL_Driver/Src/stm32h5xx_hal_pcd.c ****    */
1758:Drivers/STM32H5xx_HAL_Driver/Src/stm32h5xx_hal_pcd.c **** }
1759:Drivers/STM32H5xx_HAL_Driver/Src/stm32h5xx_hal_pcd.c **** 
1760:Drivers/STM32H5xx_HAL_Driver/Src/stm32h5xx_hal_pcd.c **** /**
1761:Drivers/STM32H5xx_HAL_Driver/Src/stm32h5xx_hal_pcd.c ****   * @brief  Suspend event callback.
1762:Drivers/STM32H5xx_HAL_Driver/Src/stm32h5xx_hal_pcd.c ****   * @param  hpcd PCD handle
1763:Drivers/STM32H5xx_HAL_Driver/Src/stm32h5xx_hal_pcd.c ****   * @retval None
1764:Drivers/STM32H5xx_HAL_Driver/Src/stm32h5xx_hal_pcd.c ****   */
1765:Drivers/STM32H5xx_HAL_Driver/Src/stm32h5xx_hal_pcd.c **** __weak void HAL_PCD_SuspendCallback(PCD_HandleTypeDef *hpcd)
1766:Drivers/STM32H5xx_HAL_Driver/Src/stm32h5xx_hal_pcd.c **** {
1767:Drivers/STM32H5xx_HAL_Driver/Src/stm32h5xx_hal_pcd.c ****   /* Prevent unused argument(s) compilation warning */
1768:Drivers/STM32H5xx_HAL_Driver/Src/stm32h5xx_hal_pcd.c ****   UNUSED(hpcd);
1769:Drivers/STM32H5xx_HAL_Driver/Src/stm32h5xx_hal_pcd.c **** 
1770:Drivers/STM32H5xx_HAL_Driver/Src/stm32h5xx_hal_pcd.c ****   /* NOTE : This function should not be modified, when the callback is needed,
1771:Drivers/STM32H5xx_HAL_Driver/Src/stm32h5xx_hal_pcd.c ****             the HAL_PCD_SuspendCallback could be implemented in the user file
1772:Drivers/STM32H5xx_HAL_Driver/Src/stm32h5xx_hal_pcd.c ****    */
1773:Drivers/STM32H5xx_HAL_Driver/Src/stm32h5xx_hal_pcd.c **** }
1774:Drivers/STM32H5xx_HAL_Driver/Src/stm32h5xx_hal_pcd.c **** 
1775:Drivers/STM32H5xx_HAL_Driver/Src/stm32h5xx_hal_pcd.c **** /**
1776:Drivers/STM32H5xx_HAL_Driver/Src/stm32h5xx_hal_pcd.c ****   * @brief  Resume event callback.
1777:Drivers/STM32H5xx_HAL_Driver/Src/stm32h5xx_hal_pcd.c ****   * @param  hpcd PCD handle
1778:Drivers/STM32H5xx_HAL_Driver/Src/stm32h5xx_hal_pcd.c ****   * @retval None
1779:Drivers/STM32H5xx_HAL_Driver/Src/stm32h5xx_hal_pcd.c ****   */
1780:Drivers/STM32H5xx_HAL_Driver/Src/stm32h5xx_hal_pcd.c **** __weak void HAL_PCD_ResumeCallback(PCD_HandleTypeDef *hpcd)
1781:Drivers/STM32H5xx_HAL_Driver/Src/stm32h5xx_hal_pcd.c **** {
1782:Drivers/STM32H5xx_HAL_Driver/Src/stm32h5xx_hal_pcd.c ****   /* Prevent unused argument(s) compilation warning */
1783:Drivers/STM32H5xx_HAL_Driver/Src/stm32h5xx_hal_pcd.c ****   UNUSED(hpcd);
1784:Drivers/STM32H5xx_HAL_Driver/Src/stm32h5xx_hal_pcd.c **** 
1785:Drivers/STM32H5xx_HAL_Driver/Src/stm32h5xx_hal_pcd.c ****   /* NOTE : This function should not be modified, when the callback is needed,
1786:Drivers/STM32H5xx_HAL_Driver/Src/stm32h5xx_hal_pcd.c ****             the HAL_PCD_ResumeCallback could be implemented in the user file
1787:Drivers/STM32H5xx_HAL_Driver/Src/stm32h5xx_hal_pcd.c ****    */
1788:Drivers/STM32H5xx_HAL_Driver/Src/stm32h5xx_hal_pcd.c **** }
1789:Drivers/STM32H5xx_HAL_Driver/Src/stm32h5xx_hal_pcd.c **** 
1790:Drivers/STM32H5xx_HAL_Driver/Src/stm32h5xx_hal_pcd.c **** /**
1791:Drivers/STM32H5xx_HAL_Driver/Src/stm32h5xx_hal_pcd.c ****   * @brief  Incomplete ISO OUT callback.
1792:Drivers/STM32H5xx_HAL_Driver/Src/stm32h5xx_hal_pcd.c ****   * @param  hpcd PCD handle
1793:Drivers/STM32H5xx_HAL_Driver/Src/stm32h5xx_hal_pcd.c ****   * @param  epnum endpoint number
1794:Drivers/STM32H5xx_HAL_Driver/Src/stm32h5xx_hal_pcd.c ****   * @retval None
1795:Drivers/STM32H5xx_HAL_Driver/Src/stm32h5xx_hal_pcd.c ****   */
1796:Drivers/STM32H5xx_HAL_Driver/Src/stm32h5xx_hal_pcd.c **** __weak void HAL_PCD_ISOOUTIncompleteCallback(PCD_HandleTypeDef *hpcd, uint8_t epnum)
1797:Drivers/STM32H5xx_HAL_Driver/Src/stm32h5xx_hal_pcd.c **** {
1798:Drivers/STM32H5xx_HAL_Driver/Src/stm32h5xx_hal_pcd.c ****   /* Prevent unused argument(s) compilation warning */
1799:Drivers/STM32H5xx_HAL_Driver/Src/stm32h5xx_hal_pcd.c ****   UNUSED(hpcd);
1800:Drivers/STM32H5xx_HAL_Driver/Src/stm32h5xx_hal_pcd.c ****   UNUSED(epnum);
1801:Drivers/STM32H5xx_HAL_Driver/Src/stm32h5xx_hal_pcd.c **** 
1802:Drivers/STM32H5xx_HAL_Driver/Src/stm32h5xx_hal_pcd.c ****   /* NOTE : This function should not be modified, when the callback is needed,
1803:Drivers/STM32H5xx_HAL_Driver/Src/stm32h5xx_hal_pcd.c ****             the HAL_PCD_ISOOUTIncompleteCallback could be implemented in the user file
1804:Drivers/STM32H5xx_HAL_Driver/Src/stm32h5xx_hal_pcd.c ****    */
1805:Drivers/STM32H5xx_HAL_Driver/Src/stm32h5xx_hal_pcd.c **** }
1806:Drivers/STM32H5xx_HAL_Driver/Src/stm32h5xx_hal_pcd.c **** 
1807:Drivers/STM32H5xx_HAL_Driver/Src/stm32h5xx_hal_pcd.c **** /**
1808:Drivers/STM32H5xx_HAL_Driver/Src/stm32h5xx_hal_pcd.c ****   * @brief  Incomplete ISO IN callback.
1809:Drivers/STM32H5xx_HAL_Driver/Src/stm32h5xx_hal_pcd.c ****   * @param  hpcd PCD handle
1810:Drivers/STM32H5xx_HAL_Driver/Src/stm32h5xx_hal_pcd.c ****   * @param  epnum endpoint number
1811:Drivers/STM32H5xx_HAL_Driver/Src/stm32h5xx_hal_pcd.c ****   * @retval None
1812:Drivers/STM32H5xx_HAL_Driver/Src/stm32h5xx_hal_pcd.c ****   */
ARM GAS  C:\Users\DELL\AppData\Local\Temp\ccskFJre.s 			page 48


1813:Drivers/STM32H5xx_HAL_Driver/Src/stm32h5xx_hal_pcd.c **** __weak void HAL_PCD_ISOINIncompleteCallback(PCD_HandleTypeDef *hpcd, uint8_t epnum)
1814:Drivers/STM32H5xx_HAL_Driver/Src/stm32h5xx_hal_pcd.c **** {
1815:Drivers/STM32H5xx_HAL_Driver/Src/stm32h5xx_hal_pcd.c ****   /* Prevent unused argument(s) compilation warning */
1816:Drivers/STM32H5xx_HAL_Driver/Src/stm32h5xx_hal_pcd.c ****   UNUSED(hpcd);
1817:Drivers/STM32H5xx_HAL_Driver/Src/stm32h5xx_hal_pcd.c ****   UNUSED(epnum);
1818:Drivers/STM32H5xx_HAL_Driver/Src/stm32h5xx_hal_pcd.c **** 
1819:Drivers/STM32H5xx_HAL_Driver/Src/stm32h5xx_hal_pcd.c ****   /* NOTE : This function should not be modified, when the callback is needed,
1820:Drivers/STM32H5xx_HAL_Driver/Src/stm32h5xx_hal_pcd.c ****             the HAL_PCD_ISOINIncompleteCallback could be implemented in the user file
1821:Drivers/STM32H5xx_HAL_Driver/Src/stm32h5xx_hal_pcd.c ****    */
1822:Drivers/STM32H5xx_HAL_Driver/Src/stm32h5xx_hal_pcd.c **** }
1823:Drivers/STM32H5xx_HAL_Driver/Src/stm32h5xx_hal_pcd.c **** 
1824:Drivers/STM32H5xx_HAL_Driver/Src/stm32h5xx_hal_pcd.c **** /**
1825:Drivers/STM32H5xx_HAL_Driver/Src/stm32h5xx_hal_pcd.c ****   * @brief  Connection event callback.
1826:Drivers/STM32H5xx_HAL_Driver/Src/stm32h5xx_hal_pcd.c ****   * @param  hpcd PCD handle
1827:Drivers/STM32H5xx_HAL_Driver/Src/stm32h5xx_hal_pcd.c ****   * @retval None
1828:Drivers/STM32H5xx_HAL_Driver/Src/stm32h5xx_hal_pcd.c ****   */
1829:Drivers/STM32H5xx_HAL_Driver/Src/stm32h5xx_hal_pcd.c **** __weak void HAL_PCD_ConnectCallback(PCD_HandleTypeDef *hpcd)
1830:Drivers/STM32H5xx_HAL_Driver/Src/stm32h5xx_hal_pcd.c **** {
1831:Drivers/STM32H5xx_HAL_Driver/Src/stm32h5xx_hal_pcd.c ****   /* Prevent unused argument(s) compilation warning */
1832:Drivers/STM32H5xx_HAL_Driver/Src/stm32h5xx_hal_pcd.c ****   UNUSED(hpcd);
1833:Drivers/STM32H5xx_HAL_Driver/Src/stm32h5xx_hal_pcd.c **** 
1834:Drivers/STM32H5xx_HAL_Driver/Src/stm32h5xx_hal_pcd.c ****   /* NOTE : This function should not be modified, when the callback is needed,
1835:Drivers/STM32H5xx_HAL_Driver/Src/stm32h5xx_hal_pcd.c ****             the HAL_PCD_ConnectCallback could be implemented in the user file
1836:Drivers/STM32H5xx_HAL_Driver/Src/stm32h5xx_hal_pcd.c ****    */
1837:Drivers/STM32H5xx_HAL_Driver/Src/stm32h5xx_hal_pcd.c **** }
1838:Drivers/STM32H5xx_HAL_Driver/Src/stm32h5xx_hal_pcd.c **** 
1839:Drivers/STM32H5xx_HAL_Driver/Src/stm32h5xx_hal_pcd.c **** /**
1840:Drivers/STM32H5xx_HAL_Driver/Src/stm32h5xx_hal_pcd.c ****   * @brief  Disconnection event callback.
1841:Drivers/STM32H5xx_HAL_Driver/Src/stm32h5xx_hal_pcd.c ****   * @param  hpcd PCD handle
1842:Drivers/STM32H5xx_HAL_Driver/Src/stm32h5xx_hal_pcd.c ****   * @retval None
1843:Drivers/STM32H5xx_HAL_Driver/Src/stm32h5xx_hal_pcd.c ****   */
1844:Drivers/STM32H5xx_HAL_Driver/Src/stm32h5xx_hal_pcd.c **** __weak void HAL_PCD_DisconnectCallback(PCD_HandleTypeDef *hpcd)
1845:Drivers/STM32H5xx_HAL_Driver/Src/stm32h5xx_hal_pcd.c **** {
1846:Drivers/STM32H5xx_HAL_Driver/Src/stm32h5xx_hal_pcd.c ****   /* Prevent unused argument(s) compilation warning */
1847:Drivers/STM32H5xx_HAL_Driver/Src/stm32h5xx_hal_pcd.c ****   UNUSED(hpcd);
1848:Drivers/STM32H5xx_HAL_Driver/Src/stm32h5xx_hal_pcd.c **** 
1849:Drivers/STM32H5xx_HAL_Driver/Src/stm32h5xx_hal_pcd.c ****   /* NOTE : This function should not be modified, when the callback is needed,
1850:Drivers/STM32H5xx_HAL_Driver/Src/stm32h5xx_hal_pcd.c ****             the HAL_PCD_DisconnectCallback could be implemented in the user file
1851:Drivers/STM32H5xx_HAL_Driver/Src/stm32h5xx_hal_pcd.c ****    */
1852:Drivers/STM32H5xx_HAL_Driver/Src/stm32h5xx_hal_pcd.c **** }
1853:Drivers/STM32H5xx_HAL_Driver/Src/stm32h5xx_hal_pcd.c **** 
1854:Drivers/STM32H5xx_HAL_Driver/Src/stm32h5xx_hal_pcd.c **** /**
1855:Drivers/STM32H5xx_HAL_Driver/Src/stm32h5xx_hal_pcd.c ****   * @}
1856:Drivers/STM32H5xx_HAL_Driver/Src/stm32h5xx_hal_pcd.c ****   */
1857:Drivers/STM32H5xx_HAL_Driver/Src/stm32h5xx_hal_pcd.c **** 
1858:Drivers/STM32H5xx_HAL_Driver/Src/stm32h5xx_hal_pcd.c **** /** @defgroup PCD_Exported_Functions_Group3 Peripheral Control functions
1859:Drivers/STM32H5xx_HAL_Driver/Src/stm32h5xx_hal_pcd.c ****   *  @brief   management functions
1860:Drivers/STM32H5xx_HAL_Driver/Src/stm32h5xx_hal_pcd.c ****   *
1861:Drivers/STM32H5xx_HAL_Driver/Src/stm32h5xx_hal_pcd.c **** @verbatim
1862:Drivers/STM32H5xx_HAL_Driver/Src/stm32h5xx_hal_pcd.c ****  ===============================================================================
1863:Drivers/STM32H5xx_HAL_Driver/Src/stm32h5xx_hal_pcd.c ****                       ##### Peripheral Control functions #####
1864:Drivers/STM32H5xx_HAL_Driver/Src/stm32h5xx_hal_pcd.c ****  ===============================================================================
1865:Drivers/STM32H5xx_HAL_Driver/Src/stm32h5xx_hal_pcd.c ****     [..]
1866:Drivers/STM32H5xx_HAL_Driver/Src/stm32h5xx_hal_pcd.c ****     This subsection provides a set of functions allowing to control the PCD data
1867:Drivers/STM32H5xx_HAL_Driver/Src/stm32h5xx_hal_pcd.c ****     transfers.
1868:Drivers/STM32H5xx_HAL_Driver/Src/stm32h5xx_hal_pcd.c **** 
1869:Drivers/STM32H5xx_HAL_Driver/Src/stm32h5xx_hal_pcd.c **** @endverbatim
ARM GAS  C:\Users\DELL\AppData\Local\Temp\ccskFJre.s 			page 49


1870:Drivers/STM32H5xx_HAL_Driver/Src/stm32h5xx_hal_pcd.c ****   * @{
1871:Drivers/STM32H5xx_HAL_Driver/Src/stm32h5xx_hal_pcd.c ****   */
1872:Drivers/STM32H5xx_HAL_Driver/Src/stm32h5xx_hal_pcd.c **** 
1873:Drivers/STM32H5xx_HAL_Driver/Src/stm32h5xx_hal_pcd.c **** /**
1874:Drivers/STM32H5xx_HAL_Driver/Src/stm32h5xx_hal_pcd.c ****   * @brief  Connect the USB device
1875:Drivers/STM32H5xx_HAL_Driver/Src/stm32h5xx_hal_pcd.c ****   * @param  hpcd PCD handle
1876:Drivers/STM32H5xx_HAL_Driver/Src/stm32h5xx_hal_pcd.c ****   * @retval HAL status
1877:Drivers/STM32H5xx_HAL_Driver/Src/stm32h5xx_hal_pcd.c ****   */
1878:Drivers/STM32H5xx_HAL_Driver/Src/stm32h5xx_hal_pcd.c **** HAL_StatusTypeDef HAL_PCD_DevConnect(PCD_HandleTypeDef *hpcd)
1879:Drivers/STM32H5xx_HAL_Driver/Src/stm32h5xx_hal_pcd.c **** {
1880:Drivers/STM32H5xx_HAL_Driver/Src/stm32h5xx_hal_pcd.c **** #if defined (USB_OTG_FS)
1881:Drivers/STM32H5xx_HAL_Driver/Src/stm32h5xx_hal_pcd.c ****   USB_OTG_GlobalTypeDef *USBx = hpcd->Instance;
1882:Drivers/STM32H5xx_HAL_Driver/Src/stm32h5xx_hal_pcd.c **** #endif /* defined (USB_OTG_FS) */
1883:Drivers/STM32H5xx_HAL_Driver/Src/stm32h5xx_hal_pcd.c **** 
1884:Drivers/STM32H5xx_HAL_Driver/Src/stm32h5xx_hal_pcd.c ****   __HAL_LOCK(hpcd);
1885:Drivers/STM32H5xx_HAL_Driver/Src/stm32h5xx_hal_pcd.c **** 
1886:Drivers/STM32H5xx_HAL_Driver/Src/stm32h5xx_hal_pcd.c **** #if defined (USB_OTG_FS)
