ARM GAS  C:\Users\DELL\AppData\Local\Temp\ccMtHSyM.s 			page 1


   1              		.cpu cortex-m33
   2              		.arch armv8-m.main
   3              		.fpu fpv5-sp-d16
   4              		.arch_extension dsp
   5              		.eabi_attribute 27, 1
   6              		.eabi_attribute 28, 1
   7              		.eabi_attribute 20, 1
   8              		.eabi_attribute 21, 1
   9              		.eabi_attribute 23, 3
  10              		.eabi_attribute 24, 1
  11              		.eabi_attribute 25, 1
  12              		.eabi_attribute 26, 1
  13              		.eabi_attribute 30, 1
  14              		.eabi_attribute 34, 1
  15              		.eabi_attribute 18, 4
  16              		.file	"stm32h5xx_hal_rtc_ex.c"
  17              		.text
  18              	.Ltext0:
  19              		.cfi_sections	.debug_frame
  20              		.file 1 "Drivers/STM32H5xx_HAL_Driver/Src/stm32h5xx_hal_rtc_ex.c"
  21              		.section	.text.HAL_RTCEx_SetTimeStamp,"ax",%progbits
  22              		.align	1
  23              		.global	HAL_RTCEx_SetTimeStamp
  24              		.syntax unified
  25              		.thumb
  26              		.thumb_func
  28              	HAL_RTCEx_SetTimeStamp:
  29              	.LVL0:
  30              	.LFB297:
   1:Drivers/STM32H5xx_HAL_Driver/Src/stm32h5xx_hal_rtc_ex.c **** /**
   2:Drivers/STM32H5xx_HAL_Driver/Src/stm32h5xx_hal_rtc_ex.c ****   ******************************************************************************
   3:Drivers/STM32H5xx_HAL_Driver/Src/stm32h5xx_hal_rtc_ex.c ****   * @file    stm32h5xx_hal_rtc_ex.c
   4:Drivers/STM32H5xx_HAL_Driver/Src/stm32h5xx_hal_rtc_ex.c ****   * @author  MCD Application Team
   5:Drivers/STM32H5xx_HAL_Driver/Src/stm32h5xx_hal_rtc_ex.c ****   * @brief   Extended RTC HAL module driver.
   6:Drivers/STM32H5xx_HAL_Driver/Src/stm32h5xx_hal_rtc_ex.c ****   *          This file provides firmware functions to manage the following
   7:Drivers/STM32H5xx_HAL_Driver/Src/stm32h5xx_hal_rtc_ex.c ****   *          functionalities of the Real Time Clock (RTC) Extended peripheral:
   8:Drivers/STM32H5xx_HAL_Driver/Src/stm32h5xx_hal_rtc_ex.c ****   *           + RTC Time Stamp functions
   9:Drivers/STM32H5xx_HAL_Driver/Src/stm32h5xx_hal_rtc_ex.c ****   *           + RTC Tamper functions
  10:Drivers/STM32H5xx_HAL_Driver/Src/stm32h5xx_hal_rtc_ex.c ****   *           + RTC Wake-up functions
  11:Drivers/STM32H5xx_HAL_Driver/Src/stm32h5xx_hal_rtc_ex.c ****   *           + Extended Control functions
  12:Drivers/STM32H5xx_HAL_Driver/Src/stm32h5xx_hal_rtc_ex.c ****   *           + Extended RTC features functions
  13:Drivers/STM32H5xx_HAL_Driver/Src/stm32h5xx_hal_rtc_ex.c ****   *
  14:Drivers/STM32H5xx_HAL_Driver/Src/stm32h5xx_hal_rtc_ex.c ****   ******************************************************************************
  15:Drivers/STM32H5xx_HAL_Driver/Src/stm32h5xx_hal_rtc_ex.c ****   * @attention
  16:Drivers/STM32H5xx_HAL_Driver/Src/stm32h5xx_hal_rtc_ex.c ****   *
  17:Drivers/STM32H5xx_HAL_Driver/Src/stm32h5xx_hal_rtc_ex.c ****   * Copyright (c) 2023 STMicroelectronics.
  18:Drivers/STM32H5xx_HAL_Driver/Src/stm32h5xx_hal_rtc_ex.c ****   * All rights reserved.
  19:Drivers/STM32H5xx_HAL_Driver/Src/stm32h5xx_hal_rtc_ex.c ****   *
  20:Drivers/STM32H5xx_HAL_Driver/Src/stm32h5xx_hal_rtc_ex.c ****   * This software is licensed under terms that can be found in the LICENSE file
  21:Drivers/STM32H5xx_HAL_Driver/Src/stm32h5xx_hal_rtc_ex.c ****   * in the root directory of this software component.
  22:Drivers/STM32H5xx_HAL_Driver/Src/stm32h5xx_hal_rtc_ex.c ****   * If no LICENSE file comes with this software, it is provided AS-IS.
  23:Drivers/STM32H5xx_HAL_Driver/Src/stm32h5xx_hal_rtc_ex.c ****   *
  24:Drivers/STM32H5xx_HAL_Driver/Src/stm32h5xx_hal_rtc_ex.c ****   ******************************************************************************
  25:Drivers/STM32H5xx_HAL_Driver/Src/stm32h5xx_hal_rtc_ex.c ****   @verbatim
  26:Drivers/STM32H5xx_HAL_Driver/Src/stm32h5xx_hal_rtc_ex.c ****   ==============================================================================
  27:Drivers/STM32H5xx_HAL_Driver/Src/stm32h5xx_hal_rtc_ex.c ****                   ##### How to use this driver #####
  28:Drivers/STM32H5xx_HAL_Driver/Src/stm32h5xx_hal_rtc_ex.c ****   ==============================================================================
ARM GAS  C:\Users\DELL\AppData\Local\Temp\ccMtHSyM.s 			page 2


  29:Drivers/STM32H5xx_HAL_Driver/Src/stm32h5xx_hal_rtc_ex.c ****   [..]
  30:Drivers/STM32H5xx_HAL_Driver/Src/stm32h5xx_hal_rtc_ex.c ****     (+) Enable the RTC domain access.
  31:Drivers/STM32H5xx_HAL_Driver/Src/stm32h5xx_hal_rtc_ex.c ****     (+) Configure the RTC Prescaler (Asynchronous and Synchronous) and RTC hour
  32:Drivers/STM32H5xx_HAL_Driver/Src/stm32h5xx_hal_rtc_ex.c ****         format using the HAL_RTC_Init() function.
  33:Drivers/STM32H5xx_HAL_Driver/Src/stm32h5xx_hal_rtc_ex.c **** 
  34:Drivers/STM32H5xx_HAL_Driver/Src/stm32h5xx_hal_rtc_ex.c ****   *** RTC Wakeup configuration ***
  35:Drivers/STM32H5xx_HAL_Driver/Src/stm32h5xx_hal_rtc_ex.c ****   ================================
  36:Drivers/STM32H5xx_HAL_Driver/Src/stm32h5xx_hal_rtc_ex.c ****   [..]
  37:Drivers/STM32H5xx_HAL_Driver/Src/stm32h5xx_hal_rtc_ex.c ****     (+) To configure the RTC Wakeup Clock source and Counter use the HAL_RTCEx_SetWakeUpTimer()
  38:Drivers/STM32H5xx_HAL_Driver/Src/stm32h5xx_hal_rtc_ex.c ****         function. You can also configure the RTC Wakeup timer with interrupt mode
  39:Drivers/STM32H5xx_HAL_Driver/Src/stm32h5xx_hal_rtc_ex.c ****         using the HAL_RTCEx_SetWakeUpTimer_IT() function.
  40:Drivers/STM32H5xx_HAL_Driver/Src/stm32h5xx_hal_rtc_ex.c ****     (+) To read the RTC WakeUp Counter register, use the HAL_RTCEx_GetWakeUpTimer()
  41:Drivers/STM32H5xx_HAL_Driver/Src/stm32h5xx_hal_rtc_ex.c ****         function.
  42:Drivers/STM32H5xx_HAL_Driver/Src/stm32h5xx_hal_rtc_ex.c **** 
  43:Drivers/STM32H5xx_HAL_Driver/Src/stm32h5xx_hal_rtc_ex.c ****   *** Outputs configuration ***
  44:Drivers/STM32H5xx_HAL_Driver/Src/stm32h5xx_hal_rtc_ex.c ****   =============================
  45:Drivers/STM32H5xx_HAL_Driver/Src/stm32h5xx_hal_rtc_ex.c ****   [..]  The RTC has 2 outputs pins (RTC_OUT1 & RTC_OUT2).
  46:Drivers/STM32H5xx_HAL_Driver/Src/stm32h5xx_hal_rtc_ex.c ****         To configure the outputs, use the HAL_RTC_Init() function.
  47:Drivers/STM32H5xx_HAL_Driver/Src/stm32h5xx_hal_rtc_ex.c ****     (+) RTC_OUT1 and RTC_OUT2 which select one of the following two outputs:
  48:Drivers/STM32H5xx_HAL_Driver/Src/stm32h5xx_hal_rtc_ex.c ****     (+) CALIB: 512Hz or 1Hz clock output (with an LSE frequency of 32.768kHz).
  49:Drivers/STM32H5xx_HAL_Driver/Src/stm32h5xx_hal_rtc_ex.c ****         To enable the CALIB, use the HAL_RTCEx_SetCalibrationOutPut() function.
  50:Drivers/STM32H5xx_HAL_Driver/Src/stm32h5xx_hal_rtc_ex.c ****     (+) TAMPALRM: This output is the OR between rtc_tamp_evt and ALARM signals.
  51:Drivers/STM32H5xx_HAL_Driver/Src/stm32h5xx_hal_rtc_ex.c ****         ALARM is enabled by configuring the OSEL[1:0] bits in the RTC_CR register
  52:Drivers/STM32H5xx_HAL_Driver/Src/stm32h5xx_hal_rtc_ex.c ****         which select the alarm A, alarm B or wakeup outputs.
  53:Drivers/STM32H5xx_HAL_Driver/Src/stm32h5xx_hal_rtc_ex.c ****         rtc_tamp_evt is enabled by setting the TAMPOE bit
  54:Drivers/STM32H5xx_HAL_Driver/Src/stm32h5xx_hal_rtc_ex.c ****         in the RTC_CR register which selects the tamper event outputs.
  55:Drivers/STM32H5xx_HAL_Driver/Src/stm32h5xx_hal_rtc_ex.c **** 
  56:Drivers/STM32H5xx_HAL_Driver/Src/stm32h5xx_hal_rtc_ex.c ****   *** Smooth digital Calibration configuration ***
  57:Drivers/STM32H5xx_HAL_Driver/Src/stm32h5xx_hal_rtc_ex.c ****   ================================================
  58:Drivers/STM32H5xx_HAL_Driver/Src/stm32h5xx_hal_rtc_ex.c ****   [..]
  59:Drivers/STM32H5xx_HAL_Driver/Src/stm32h5xx_hal_rtc_ex.c ****     (+) Configure the RTC Original Digital Calibration Value and the corresponding
  60:Drivers/STM32H5xx_HAL_Driver/Src/stm32h5xx_hal_rtc_ex.c ****         calibration cycle period (32s,16s and 8s) using the HAL_RTCEx_SetSmoothCalib()
  61:Drivers/STM32H5xx_HAL_Driver/Src/stm32h5xx_hal_rtc_ex.c ****         function.
  62:Drivers/STM32H5xx_HAL_Driver/Src/stm32h5xx_hal_rtc_ex.c **** 
  63:Drivers/STM32H5xx_HAL_Driver/Src/stm32h5xx_hal_rtc_ex.c ****   *** RTC synchronization ***
  64:Drivers/STM32H5xx_HAL_Driver/Src/stm32h5xx_hal_rtc_ex.c ****   ================================================
  65:Drivers/STM32H5xx_HAL_Driver/Src/stm32h5xx_hal_rtc_ex.c ****   [..]
  66:Drivers/STM32H5xx_HAL_Driver/Src/stm32h5xx_hal_rtc_ex.c ****     (+) The RTC can be finely adjusted using HAL_RTCEx_SetSynchroShift() function.
  67:Drivers/STM32H5xx_HAL_Driver/Src/stm32h5xx_hal_rtc_ex.c ****         Writing to RTC_SHIFTR can shift (either delay or advance) the clock with
  68:Drivers/STM32H5xx_HAL_Driver/Src/stm32h5xx_hal_rtc_ex.c ****         a resolution of 1 ck_apre period.
  69:Drivers/STM32H5xx_HAL_Driver/Src/stm32h5xx_hal_rtc_ex.c ****         The shift operation consists in adding the SUBFS[14:0] value to the synchronous
  70:Drivers/STM32H5xx_HAL_Driver/Src/stm32h5xx_hal_rtc_ex.c ****         prescaler counter SS[15:0]: this delays the clock.
  71:Drivers/STM32H5xx_HAL_Driver/Src/stm32h5xx_hal_rtc_ex.c **** 
  72:Drivers/STM32H5xx_HAL_Driver/Src/stm32h5xx_hal_rtc_ex.c ****   *** Bypass shadow registers ***
  73:Drivers/STM32H5xx_HAL_Driver/Src/stm32h5xx_hal_rtc_ex.c ****   ================================================
  74:Drivers/STM32H5xx_HAL_Driver/Src/stm32h5xx_hal_rtc_ex.c ****   [..]
  75:Drivers/STM32H5xx_HAL_Driver/Src/stm32h5xx_hal_rtc_ex.c ****     (+) Enable bypass shadow registers using the HAL_RTCEx_EnableBypassShadow().
  76:Drivers/STM32H5xx_HAL_Driver/Src/stm32h5xx_hal_rtc_ex.c ****         When the Bypass Shadow is enabled the calendar value are taken directly
  77:Drivers/STM32H5xx_HAL_Driver/Src/stm32h5xx_hal_rtc_ex.c ****         from the Calendar counter.
  78:Drivers/STM32H5xx_HAL_Driver/Src/stm32h5xx_hal_rtc_ex.c ****         Thus eliminating the need to wait for the RSF bit to be set.
  79:Drivers/STM32H5xx_HAL_Driver/Src/stm32h5xx_hal_rtc_ex.c ****         This is especially useful after exiting from low-power modes (Stop or Standby),
  80:Drivers/STM32H5xx_HAL_Driver/Src/stm32h5xx_hal_rtc_ex.c ****         since the shadow registers are not updated during these modes.
  81:Drivers/STM32H5xx_HAL_Driver/Src/stm32h5xx_hal_rtc_ex.c **** 
  82:Drivers/STM32H5xx_HAL_Driver/Src/stm32h5xx_hal_rtc_ex.c ****   *** RTC ultra-low-power mode ***
  83:Drivers/STM32H5xx_HAL_Driver/Src/stm32h5xx_hal_rtc_ex.c ****   ================================================
  84:Drivers/STM32H5xx_HAL_Driver/Src/stm32h5xx_hal_rtc_ex.c ****   [..]
  85:Drivers/STM32H5xx_HAL_Driver/Src/stm32h5xx_hal_rtc_ex.c ****     (+) Configure the RTC ultra-low-power mode using HAL_RTCEx_SetLowPowerCalib() function.
ARM GAS  C:\Users\DELL\AppData\Local\Temp\ccMtHSyM.s 			page 3


  86:Drivers/STM32H5xx_HAL_Driver/Src/stm32h5xx_hal_rtc_ex.c ****         In this case, the calibration mechanism is applied on ck_apre instead of RTCCLK.
  87:Drivers/STM32H5xx_HAL_Driver/Src/stm32h5xx_hal_rtc_ex.c ****         The resulting accuracy is the same, but the calibration is performed during a
  88:Drivers/STM32H5xx_HAL_Driver/Src/stm32h5xx_hal_rtc_ex.c ****         calibration cycle of about 220 x PREDIV_A x RTCCLK pulses instead of 220 RTCCLK pulses.
  89:Drivers/STM32H5xx_HAL_Driver/Src/stm32h5xx_hal_rtc_ex.c **** 
  90:Drivers/STM32H5xx_HAL_Driver/Src/stm32h5xx_hal_rtc_ex.c ****   *** RTC subsecond register underflow interruption ***
  91:Drivers/STM32H5xx_HAL_Driver/Src/stm32h5xx_hal_rtc_ex.c ****   ================================================
  92:Drivers/STM32H5xx_HAL_Driver/Src/stm32h5xx_hal_rtc_ex.c ****   [..]
  93:Drivers/STM32H5xx_HAL_Driver/Src/stm32h5xx_hal_rtc_ex.c ****     (+) Enable the RTC SSRU interruption mode using HAL_RTCEx_SetSSRU_IT() function.
  94:Drivers/STM32H5xx_HAL_Driver/Src/stm32h5xx_hal_rtc_ex.c ****         In this case, when the SSR rolls under 0, an SSRU interruption is triggered.
  95:Drivers/STM32H5xx_HAL_Driver/Src/stm32h5xx_hal_rtc_ex.c ****         Disable the RTC SSRU interruption mode using HAL_RTCEx_DeactivateSSRU() function.
  96:Drivers/STM32H5xx_HAL_Driver/Src/stm32h5xx_hal_rtc_ex.c **** 
  97:Drivers/STM32H5xx_HAL_Driver/Src/stm32h5xx_hal_rtc_ex.c ****   *** TimeStamp configuration ***
  98:Drivers/STM32H5xx_HAL_Driver/Src/stm32h5xx_hal_rtc_ex.c ****   ===============================
  99:Drivers/STM32H5xx_HAL_Driver/Src/stm32h5xx_hal_rtc_ex.c ****   [..]
 100:Drivers/STM32H5xx_HAL_Driver/Src/stm32h5xx_hal_rtc_ex.c ****     (+) Enable the RTC TimeStamp using the HAL_RTCEx_SetTimeStamp() function.
 101:Drivers/STM32H5xx_HAL_Driver/Src/stm32h5xx_hal_rtc_ex.c ****         You can also configure the RTC TimeStamp with interrupt mode using the
 102:Drivers/STM32H5xx_HAL_Driver/Src/stm32h5xx_hal_rtc_ex.c ****         HAL_RTCEx_SetTimeStamp_IT() function.
 103:Drivers/STM32H5xx_HAL_Driver/Src/stm32h5xx_hal_rtc_ex.c ****     (+) To read the RTC TimeStamp Time and Date register, use the HAL_RTCEx_GetTimeStamp()
 104:Drivers/STM32H5xx_HAL_Driver/Src/stm32h5xx_hal_rtc_ex.c ****         function.
 105:Drivers/STM32H5xx_HAL_Driver/Src/stm32h5xx_hal_rtc_ex.c **** 
 106:Drivers/STM32H5xx_HAL_Driver/Src/stm32h5xx_hal_rtc_ex.c ****   *** Internal TimeStamp configuration ***
 107:Drivers/STM32H5xx_HAL_Driver/Src/stm32h5xx_hal_rtc_ex.c ****   ===============================
 108:Drivers/STM32H5xx_HAL_Driver/Src/stm32h5xx_hal_rtc_ex.c ****   [..]
 109:Drivers/STM32H5xx_HAL_Driver/Src/stm32h5xx_hal_rtc_ex.c ****     (+) Enable the RTC internal TimeStamp using the HAL_RTCEx_SetInternalTimeStamp() function.
 110:Drivers/STM32H5xx_HAL_Driver/Src/stm32h5xx_hal_rtc_ex.c ****         User has to check internal timestamp occurrence using __HAL_RTC_INTERNAL_TIMESTAMP_GET_FLAG
 111:Drivers/STM32H5xx_HAL_Driver/Src/stm32h5xx_hal_rtc_ex.c ****     (+) To read the RTC TimeStamp Time and Date register, use the HAL_RTCEx_GetTimeStamp()
 112:Drivers/STM32H5xx_HAL_Driver/Src/stm32h5xx_hal_rtc_ex.c ****         function.
 113:Drivers/STM32H5xx_HAL_Driver/Src/stm32h5xx_hal_rtc_ex.c **** 
 114:Drivers/STM32H5xx_HAL_Driver/Src/stm32h5xx_hal_rtc_ex.c ****    *** Tamper configuration ***
 115:Drivers/STM32H5xx_HAL_Driver/Src/stm32h5xx_hal_rtc_ex.c ****    ============================
 116:Drivers/STM32H5xx_HAL_Driver/Src/stm32h5xx_hal_rtc_ex.c ****    [..]
 117:Drivers/STM32H5xx_HAL_Driver/Src/stm32h5xx_hal_rtc_ex.c ****      (+) Enable the RTC Tamper and configure the Tamper filter count, trigger Edge
 118:Drivers/STM32H5xx_HAL_Driver/Src/stm32h5xx_hal_rtc_ex.c ****          or Level according to the Tamper filter (if equal to 0 Edge else Level)
 119:Drivers/STM32H5xx_HAL_Driver/Src/stm32h5xx_hal_rtc_ex.c ****          value, sampling frequency, NoErase, MaskFlag,  precharge or discharge and
 120:Drivers/STM32H5xx_HAL_Driver/Src/stm32h5xx_hal_rtc_ex.c ****          Pull-UP using the HAL_RTCEx_SetTamper() function. You can configure RTC Tamper
 121:Drivers/STM32H5xx_HAL_Driver/Src/stm32h5xx_hal_rtc_ex.c ****          with interrupt mode using HAL_RTCEx_SetTamper_IT() function.
 122:Drivers/STM32H5xx_HAL_Driver/Src/stm32h5xx_hal_rtc_ex.c ****      (+) The default configuration of the Tamper erases the backup registers. To avoid
 123:Drivers/STM32H5xx_HAL_Driver/Src/stm32h5xx_hal_rtc_ex.c ****          erase, enable the NoErase field on the TAMP_CR2 register.
 124:Drivers/STM32H5xx_HAL_Driver/Src/stm32h5xx_hal_rtc_ex.c ****      (+) With new RTC tamper configuration, you have to call HAL_RTC_Init() in order to
 125:Drivers/STM32H5xx_HAL_Driver/Src/stm32h5xx_hal_rtc_ex.c ****          perform TAMP base address offset calculation.
 126:Drivers/STM32H5xx_HAL_Driver/Src/stm32h5xx_hal_rtc_ex.c ****      (+) Enable Internal tamper using HAL_RTCEx_SetInternalTamper. IT mode can be chosen using
 127:Drivers/STM32H5xx_HAL_Driver/Src/stm32h5xx_hal_rtc_ex.c ****          setting Interrupt field.
 128:Drivers/STM32H5xx_HAL_Driver/Src/stm32h5xx_hal_rtc_ex.c **** 
 129:Drivers/STM32H5xx_HAL_Driver/Src/stm32h5xx_hal_rtc_ex.c ****    *** Backup Data Registers and Device Secrets configuration ***
 130:Drivers/STM32H5xx_HAL_Driver/Src/stm32h5xx_hal_rtc_ex.c ****    ===========================================
 131:Drivers/STM32H5xx_HAL_Driver/Src/stm32h5xx_hal_rtc_ex.c ****    [..]
 132:Drivers/STM32H5xx_HAL_Driver/Src/stm32h5xx_hal_rtc_ex.c ****      (+) To write to the RTC Backup Data registers, use the HAL_RTCEx_BKUPWrite()
 133:Drivers/STM32H5xx_HAL_Driver/Src/stm32h5xx_hal_rtc_ex.c ****          function.
 134:Drivers/STM32H5xx_HAL_Driver/Src/stm32h5xx_hal_rtc_ex.c ****      (+) To read the RTC Backup registers, use the HAL_RTCEx_BKUPRead()
 135:Drivers/STM32H5xx_HAL_Driver/Src/stm32h5xx_hal_rtc_ex.c ****          function.
 136:Drivers/STM32H5xx_HAL_Driver/Src/stm32h5xx_hal_rtc_ex.c ****      (+) To reset the RTC Backup registers and erase the device secrets,
 137:Drivers/STM32H5xx_HAL_Driver/Src/stm32h5xx_hal_rtc_ex.c ****          use HAL_RTCEx_BKUPErase() function.
 138:Drivers/STM32H5xx_HAL_Driver/Src/stm32h5xx_hal_rtc_ex.c ****      (+) Enable the lock of the Boot hardware Key using the HAL_RTCEx_LockBootHardwareKey()
 139:Drivers/STM32H5xx_HAL_Driver/Src/stm32h5xx_hal_rtc_ex.c ****          function.
 140:Drivers/STM32H5xx_HAL_Driver/Src/stm32h5xx_hal_rtc_ex.c ****          The backup registers from TAMP_BKP0R to TAMP_BKP7R cannot be accessed neither in
 141:Drivers/STM32H5xx_HAL_Driver/Src/stm32h5xx_hal_rtc_ex.c ****          read nor in write (they are read as 0 and write ignore).
 142:Drivers/STM32H5xx_HAL_Driver/Src/stm32h5xx_hal_rtc_ex.c ****      (+) Configure the erase of the Device Secrets using HAL_RTCEx_ConfigEraseDeviceSecrets()
ARM GAS  C:\Users\DELL\AppData\Local\Temp\ccMtHSyM.s 			page 4


 143:Drivers/STM32H5xx_HAL_Driver/Src/stm32h5xx_hal_rtc_ex.c ****          function.
 144:Drivers/STM32H5xx_HAL_Driver/Src/stm32h5xx_hal_rtc_ex.c ****      (+) Block the access to the RTC Backup registers and all the device secrets
 145:Drivers/STM32H5xx_HAL_Driver/Src/stm32h5xx_hal_rtc_ex.c ****          using HAL_RTCEx_BKUPBlock() function.
 146:Drivers/STM32H5xx_HAL_Driver/Src/stm32h5xx_hal_rtc_ex.c **** 
 147:Drivers/STM32H5xx_HAL_Driver/Src/stm32h5xx_hal_rtc_ex.c ****   *** Monotonic counter ***
 148:Drivers/STM32H5xx_HAL_Driver/Src/stm32h5xx_hal_rtc_ex.c ****   ================================================
 149:Drivers/STM32H5xx_HAL_Driver/Src/stm32h5xx_hal_rtc_ex.c ****   [..]
 150:Drivers/STM32H5xx_HAL_Driver/Src/stm32h5xx_hal_rtc_ex.c ****      (+) To increment the Monotonic counter, use the HAL_RTCEx_MonotonicCounterIncrement()
 151:Drivers/STM32H5xx_HAL_Driver/Src/stm32h5xx_hal_rtc_ex.c ****          function.
 152:Drivers/STM32H5xx_HAL_Driver/Src/stm32h5xx_hal_rtc_ex.c ****      (+) To get the current value of the Monotonic counter, use the HAL_RTCEx_MonotonicCounterGet()
 153:Drivers/STM32H5xx_HAL_Driver/Src/stm32h5xx_hal_rtc_ex.c ****          function.
 154:Drivers/STM32H5xx_HAL_Driver/Src/stm32h5xx_hal_rtc_ex.c **** 
 155:Drivers/STM32H5xx_HAL_Driver/Src/stm32h5xx_hal_rtc_ex.c ****   *** RTC & TAMP secure protection modes ***
 156:Drivers/STM32H5xx_HAL_Driver/Src/stm32h5xx_hal_rtc_ex.c ****   ================================================
 157:Drivers/STM32H5xx_HAL_Driver/Src/stm32h5xx_hal_rtc_ex.c ****   [..]
 158:Drivers/STM32H5xx_HAL_Driver/Src/stm32h5xx_hal_rtc_ex.c ****      (+) Set the security level of the RTC/TAMP/Backup registers using HAL_RTCEx_SecureModeSet()
 159:Drivers/STM32H5xx_HAL_Driver/Src/stm32h5xx_hal_rtc_ex.c ****          function.
 160:Drivers/STM32H5xx_HAL_Driver/Src/stm32h5xx_hal_rtc_ex.c ****       +) Get the security level of the RTC/TAMP/Backup registers using HAL_RTCEx_SecureModeGet()
 161:Drivers/STM32H5xx_HAL_Driver/Src/stm32h5xx_hal_rtc_ex.c ****          function.
 162:Drivers/STM32H5xx_HAL_Driver/Src/stm32h5xx_hal_rtc_ex.c **** 
 163:Drivers/STM32H5xx_HAL_Driver/Src/stm32h5xx_hal_rtc_ex.c ****   *** RTC & TAMP privilege protection modes ***
 164:Drivers/STM32H5xx_HAL_Driver/Src/stm32h5xx_hal_rtc_ex.c ****   ================================================
 165:Drivers/STM32H5xx_HAL_Driver/Src/stm32h5xx_hal_rtc_ex.c ****   [..]
 166:Drivers/STM32H5xx_HAL_Driver/Src/stm32h5xx_hal_rtc_ex.c ****      (+) Set the privilege level of the RTC/TAMP/Backup registers using HAL_RTCEx_PrivilegeModeSet(
 167:Drivers/STM32H5xx_HAL_Driver/Src/stm32h5xx_hal_rtc_ex.c ****          function.
 168:Drivers/STM32H5xx_HAL_Driver/Src/stm32h5xx_hal_rtc_ex.c ****       +) Get the privilege level of the RTC/TAMP/Backup registers using HAL_RTCEx_PrivilegeModeGet(
 169:Drivers/STM32H5xx_HAL_Driver/Src/stm32h5xx_hal_rtc_ex.c ****          function.
 170:Drivers/STM32H5xx_HAL_Driver/Src/stm32h5xx_hal_rtc_ex.c **** 
 171:Drivers/STM32H5xx_HAL_Driver/Src/stm32h5xx_hal_rtc_ex.c ****   @endverbatim
 172:Drivers/STM32H5xx_HAL_Driver/Src/stm32h5xx_hal_rtc_ex.c ****   */
 173:Drivers/STM32H5xx_HAL_Driver/Src/stm32h5xx_hal_rtc_ex.c **** 
 174:Drivers/STM32H5xx_HAL_Driver/Src/stm32h5xx_hal_rtc_ex.c **** /* Includes ------------------------------------------------------------------*/
 175:Drivers/STM32H5xx_HAL_Driver/Src/stm32h5xx_hal_rtc_ex.c **** #include "stm32h5xx_hal.h"
 176:Drivers/STM32H5xx_HAL_Driver/Src/stm32h5xx_hal_rtc_ex.c **** 
 177:Drivers/STM32H5xx_HAL_Driver/Src/stm32h5xx_hal_rtc_ex.c **** /** @addtogroup STM32H5xx_HAL_Driver
 178:Drivers/STM32H5xx_HAL_Driver/Src/stm32h5xx_hal_rtc_ex.c ****   * @{
 179:Drivers/STM32H5xx_HAL_Driver/Src/stm32h5xx_hal_rtc_ex.c ****   */
 180:Drivers/STM32H5xx_HAL_Driver/Src/stm32h5xx_hal_rtc_ex.c **** 
 181:Drivers/STM32H5xx_HAL_Driver/Src/stm32h5xx_hal_rtc_ex.c **** /** @addtogroup RTCEx
 182:Drivers/STM32H5xx_HAL_Driver/Src/stm32h5xx_hal_rtc_ex.c ****   * @brief RTC Extended HAL module driver
 183:Drivers/STM32H5xx_HAL_Driver/Src/stm32h5xx_hal_rtc_ex.c ****   * @{
 184:Drivers/STM32H5xx_HAL_Driver/Src/stm32h5xx_hal_rtc_ex.c ****   */
 185:Drivers/STM32H5xx_HAL_Driver/Src/stm32h5xx_hal_rtc_ex.c **** 
 186:Drivers/STM32H5xx_HAL_Driver/Src/stm32h5xx_hal_rtc_ex.c **** #ifdef HAL_RTC_MODULE_ENABLED
 187:Drivers/STM32H5xx_HAL_Driver/Src/stm32h5xx_hal_rtc_ex.c **** 
 188:Drivers/STM32H5xx_HAL_Driver/Src/stm32h5xx_hal_rtc_ex.c **** /* Private typedef -----------------------------------------------------------*/
 189:Drivers/STM32H5xx_HAL_Driver/Src/stm32h5xx_hal_rtc_ex.c **** /* Private define ------------------------------------------------------------*/
 190:Drivers/STM32H5xx_HAL_Driver/Src/stm32h5xx_hal_rtc_ex.c **** #define TAMP_ALL RTC_TAMPER_ALL
 191:Drivers/STM32H5xx_HAL_Driver/Src/stm32h5xx_hal_rtc_ex.c **** 
 192:Drivers/STM32H5xx_HAL_Driver/Src/stm32h5xx_hal_rtc_ex.c **** /* Private macro -------------------------------------------------------------*/
 193:Drivers/STM32H5xx_HAL_Driver/Src/stm32h5xx_hal_rtc_ex.c **** /* Private variables ---------------------------------------------------------*/
 194:Drivers/STM32H5xx_HAL_Driver/Src/stm32h5xx_hal_rtc_ex.c **** /* Private function prototypes -----------------------------------------------*/
 195:Drivers/STM32H5xx_HAL_Driver/Src/stm32h5xx_hal_rtc_ex.c **** /* Exported functions --------------------------------------------------------*/
 196:Drivers/STM32H5xx_HAL_Driver/Src/stm32h5xx_hal_rtc_ex.c **** 
 197:Drivers/STM32H5xx_HAL_Driver/Src/stm32h5xx_hal_rtc_ex.c **** /** @addtogroup RTCEx_Exported_Functions
 198:Drivers/STM32H5xx_HAL_Driver/Src/stm32h5xx_hal_rtc_ex.c ****   * @{
 199:Drivers/STM32H5xx_HAL_Driver/Src/stm32h5xx_hal_rtc_ex.c ****   */
ARM GAS  C:\Users\DELL\AppData\Local\Temp\ccMtHSyM.s 			page 5


 200:Drivers/STM32H5xx_HAL_Driver/Src/stm32h5xx_hal_rtc_ex.c **** 
 201:Drivers/STM32H5xx_HAL_Driver/Src/stm32h5xx_hal_rtc_ex.c **** 
 202:Drivers/STM32H5xx_HAL_Driver/Src/stm32h5xx_hal_rtc_ex.c **** /** @addtogroup RTCEx_Exported_Functions_Group1
 203:Drivers/STM32H5xx_HAL_Driver/Src/stm32h5xx_hal_rtc_ex.c ****   *  @brief   RTC TimeStamp and Tamper functions
 204:Drivers/STM32H5xx_HAL_Driver/Src/stm32h5xx_hal_rtc_ex.c ****   *
 205:Drivers/STM32H5xx_HAL_Driver/Src/stm32h5xx_hal_rtc_ex.c **** @verbatim
 206:Drivers/STM32H5xx_HAL_Driver/Src/stm32h5xx_hal_rtc_ex.c ****  ===============================================================================
 207:Drivers/STM32H5xx_HAL_Driver/Src/stm32h5xx_hal_rtc_ex.c ****                  ##### RTC TimeStamp and Tamper functions #####
 208:Drivers/STM32H5xx_HAL_Driver/Src/stm32h5xx_hal_rtc_ex.c ****  ===============================================================================
 209:Drivers/STM32H5xx_HAL_Driver/Src/stm32h5xx_hal_rtc_ex.c **** 
 210:Drivers/STM32H5xx_HAL_Driver/Src/stm32h5xx_hal_rtc_ex.c ****  [..] This section provides functions allowing to configure TimeStamp feature
 211:Drivers/STM32H5xx_HAL_Driver/Src/stm32h5xx_hal_rtc_ex.c **** 
 212:Drivers/STM32H5xx_HAL_Driver/Src/stm32h5xx_hal_rtc_ex.c **** @endverbatim
 213:Drivers/STM32H5xx_HAL_Driver/Src/stm32h5xx_hal_rtc_ex.c ****   * @{
 214:Drivers/STM32H5xx_HAL_Driver/Src/stm32h5xx_hal_rtc_ex.c ****   */
 215:Drivers/STM32H5xx_HAL_Driver/Src/stm32h5xx_hal_rtc_ex.c **** 
 216:Drivers/STM32H5xx_HAL_Driver/Src/stm32h5xx_hal_rtc_ex.c **** #ifdef RTC_CR_TSE
 217:Drivers/STM32H5xx_HAL_Driver/Src/stm32h5xx_hal_rtc_ex.c **** /**
 218:Drivers/STM32H5xx_HAL_Driver/Src/stm32h5xx_hal_rtc_ex.c ****   * @brief  Set TimeStamp.
 219:Drivers/STM32H5xx_HAL_Driver/Src/stm32h5xx_hal_rtc_ex.c ****   * @note   This API must be called before enabling the TimeStamp feature.
 220:Drivers/STM32H5xx_HAL_Driver/Src/stm32h5xx_hal_rtc_ex.c ****   * @param  hrtc RTC handle
 221:Drivers/STM32H5xx_HAL_Driver/Src/stm32h5xx_hal_rtc_ex.c ****   * @param  TimeStampEdge Specifies the pin edge on which the TimeStamp is
 222:Drivers/STM32H5xx_HAL_Driver/Src/stm32h5xx_hal_rtc_ex.c ****   *         activated.
 223:Drivers/STM32H5xx_HAL_Driver/Src/stm32h5xx_hal_rtc_ex.c ****   *          This parameter can be one of the following values:
 224:Drivers/STM32H5xx_HAL_Driver/Src/stm32h5xx_hal_rtc_ex.c ****   *             @arg RTC_TIMESTAMPEDGE_RISING: the Time stamp event occurs on the
 225:Drivers/STM32H5xx_HAL_Driver/Src/stm32h5xx_hal_rtc_ex.c ****   *                                        rising edge of the related pin.
 226:Drivers/STM32H5xx_HAL_Driver/Src/stm32h5xx_hal_rtc_ex.c ****   *             @arg RTC_TIMESTAMPEDGE_FALLING: the Time stamp event occurs on the
 227:Drivers/STM32H5xx_HAL_Driver/Src/stm32h5xx_hal_rtc_ex.c ****   *                                         falling edge of the related pin.
 228:Drivers/STM32H5xx_HAL_Driver/Src/stm32h5xx_hal_rtc_ex.c ****   * @param  RTC_TimeStampPin specifies the RTC TimeStamp Pin.
 229:Drivers/STM32H5xx_HAL_Driver/Src/stm32h5xx_hal_rtc_ex.c ****   *          This parameter can be one of the following values:
 230:Drivers/STM32H5xx_HAL_Driver/Src/stm32h5xx_hal_rtc_ex.c ****   *             @arg RTC_TIMESTAMPPIN_DEFAULT: PC13 is selected as RTC TimeStamp Pin.
 231:Drivers/STM32H5xx_HAL_Driver/Src/stm32h5xx_hal_rtc_ex.c ****   *               The RTC TimeStamp Pin is per default PC13, but for reasons of
 232:Drivers/STM32H5xx_HAL_Driver/Src/stm32h5xx_hal_rtc_ex.c ****   *               compatibility, this parameter is required.
 233:Drivers/STM32H5xx_HAL_Driver/Src/stm32h5xx_hal_rtc_ex.c ****   * @retval HAL status
 234:Drivers/STM32H5xx_HAL_Driver/Src/stm32h5xx_hal_rtc_ex.c ****   */
 235:Drivers/STM32H5xx_HAL_Driver/Src/stm32h5xx_hal_rtc_ex.c **** HAL_StatusTypeDef HAL_RTCEx_SetTimeStamp(RTC_HandleTypeDef *hrtc, uint32_t TimeStampEdge, uint32_t 
 236:Drivers/STM32H5xx_HAL_Driver/Src/stm32h5xx_hal_rtc_ex.c **** {
  31              		.loc 1 236 1 view -0
  32              		.cfi_startproc
  33              		@ args = 0, pretend = 0, frame = 0
  34              		@ frame_needed = 0, uses_anonymous_args = 0
  35              		@ link register save eliminated.
 237:Drivers/STM32H5xx_HAL_Driver/Src/stm32h5xx_hal_rtc_ex.c ****   /* Check the parameters */
 238:Drivers/STM32H5xx_HAL_Driver/Src/stm32h5xx_hal_rtc_ex.c **** #if defined(RTC_CR_TSEDGE)
 239:Drivers/STM32H5xx_HAL_Driver/Src/stm32h5xx_hal_rtc_ex.c ****   assert_param(IS_TIMESTAMP_EDGE(TimeStampEdge));
  36              		.loc 1 239 3 view .LVU1
 240:Drivers/STM32H5xx_HAL_Driver/Src/stm32h5xx_hal_rtc_ex.c **** #endif /* RTC_CR_TSEDGE */
 241:Drivers/STM32H5xx_HAL_Driver/Src/stm32h5xx_hal_rtc_ex.c ****   assert_param(IS_RTC_TIMESTAMP_PIN(RTC_TimeStampPin));
  37              		.loc 1 241 3 view .LVU2
 242:Drivers/STM32H5xx_HAL_Driver/Src/stm32h5xx_hal_rtc_ex.c ****   UNUSED(RTC_TimeStampPin);
  38              		.loc 1 242 3 view .LVU3
 243:Drivers/STM32H5xx_HAL_Driver/Src/stm32h5xx_hal_rtc_ex.c **** 
 244:Drivers/STM32H5xx_HAL_Driver/Src/stm32h5xx_hal_rtc_ex.c ****   /* Process Locked */
 245:Drivers/STM32H5xx_HAL_Driver/Src/stm32h5xx_hal_rtc_ex.c ****   __HAL_LOCK(hrtc);
  39              		.loc 1 245 3 view .LVU4
  40              		.loc 1 245 3 view .LVU5
  41 0000 90F82C30 		ldrb	r3, [r0, #44]	@ zero_extendqisi2
ARM GAS  C:\Users\DELL\AppData\Local\Temp\ccMtHSyM.s 			page 6


  42 0004 012B     		cmp	r3, #1
  43 0006 19D0     		beq	.L3
  44              		.loc 1 245 3 discriminator 2 view .LVU6
  45 0008 4FF0010C 		mov	ip, #1
  46 000c 80F82CC0 		strb	ip, [r0, #44]
  47              		.loc 1 245 3 view .LVU7
 246:Drivers/STM32H5xx_HAL_Driver/Src/stm32h5xx_hal_rtc_ex.c **** 
 247:Drivers/STM32H5xx_HAL_Driver/Src/stm32h5xx_hal_rtc_ex.c ****   /* Change RTC state */
 248:Drivers/STM32H5xx_HAL_Driver/Src/stm32h5xx_hal_rtc_ex.c ****   hrtc->State = HAL_RTC_STATE_BUSY;
  48              		.loc 1 248 3 view .LVU8
  49              		.loc 1 248 15 is_stmt 0 view .LVU9
  50 0010 0223     		movs	r3, #2
  51 0012 80F82D30 		strb	r3, [r0, #45]
 249:Drivers/STM32H5xx_HAL_Driver/Src/stm32h5xx_hal_rtc_ex.c **** 
 250:Drivers/STM32H5xx_HAL_Driver/Src/stm32h5xx_hal_rtc_ex.c ****   /* Get the RTC_CR register and clear the bits to be configured */
 251:Drivers/STM32H5xx_HAL_Driver/Src/stm32h5xx_hal_rtc_ex.c **** #if defined(RTC_CR_TSEDGE)
 252:Drivers/STM32H5xx_HAL_Driver/Src/stm32h5xx_hal_rtc_ex.c ****   CLEAR_BIT(RTC->CR, (RTC_CR_TSEDGE | RTC_CR_TSE));
  52              		.loc 1 252 3 is_stmt 1 view .LVU10
  53 0016 0A4A     		ldr	r2, .L4
  54              	.LVL1:
  55              		.loc 1 252 3 is_stmt 0 view .LVU11
  56 0018 9369     		ldr	r3, [r2, #24]
  57 001a 23F40063 		bic	r3, r3, #2048
  58 001e 23F00803 		bic	r3, r3, #8
  59 0022 9361     		str	r3, [r2, #24]
 253:Drivers/STM32H5xx_HAL_Driver/Src/stm32h5xx_hal_rtc_ex.c **** #else
 254:Drivers/STM32H5xx_HAL_Driver/Src/stm32h5xx_hal_rtc_ex.c ****   CLEAR_BIT(RTC->CR, RTC_CR_TSE);
 255:Drivers/STM32H5xx_HAL_Driver/Src/stm32h5xx_hal_rtc_ex.c **** #endif /* RTC_CR_TSEDGE */
 256:Drivers/STM32H5xx_HAL_Driver/Src/stm32h5xx_hal_rtc_ex.c **** 
 257:Drivers/STM32H5xx_HAL_Driver/Src/stm32h5xx_hal_rtc_ex.c ****   /* Configure the Time Stamp TSEDGE and Enable bits */
 258:Drivers/STM32H5xx_HAL_Driver/Src/stm32h5xx_hal_rtc_ex.c ****   SET_BIT(RTC->CR, (uint32_t)TimeStampEdge | RTC_CR_TSE);
  60              		.loc 1 258 3 is_stmt 1 view .LVU12
  61 0024 9369     		ldr	r3, [r2, #24]
  62 0026 1943     		orrs	r1, r1, r3
  63              	.LVL2:
  64              		.loc 1 258 3 is_stmt 0 view .LVU13
  65 0028 41F40061 		orr	r1, r1, #2048
  66 002c 9161     		str	r1, [r2, #24]
 259:Drivers/STM32H5xx_HAL_Driver/Src/stm32h5xx_hal_rtc_ex.c **** 
 260:Drivers/STM32H5xx_HAL_Driver/Src/stm32h5xx_hal_rtc_ex.c ****   /* Change RTC state */
 261:Drivers/STM32H5xx_HAL_Driver/Src/stm32h5xx_hal_rtc_ex.c ****   hrtc->State = HAL_RTC_STATE_READY;
  67              		.loc 1 261 3 is_stmt 1 view .LVU14
  68              		.loc 1 261 15 is_stmt 0 view .LVU15
  69 002e 80F82DC0 		strb	ip, [r0, #45]
 262:Drivers/STM32H5xx_HAL_Driver/Src/stm32h5xx_hal_rtc_ex.c **** 
 263:Drivers/STM32H5xx_HAL_Driver/Src/stm32h5xx_hal_rtc_ex.c ****   /* Process Unlocked */
 264:Drivers/STM32H5xx_HAL_Driver/Src/stm32h5xx_hal_rtc_ex.c ****   __HAL_UNLOCK(hrtc);
  70              		.loc 1 264 3 is_stmt 1 view .LVU16
  71              		.loc 1 264 3 view .LVU17
  72 0032 0023     		movs	r3, #0
  73 0034 80F82C30 		strb	r3, [r0, #44]
  74              		.loc 1 264 3 view .LVU18
 265:Drivers/STM32H5xx_HAL_Driver/Src/stm32h5xx_hal_rtc_ex.c **** 
 266:Drivers/STM32H5xx_HAL_Driver/Src/stm32h5xx_hal_rtc_ex.c ****   return HAL_OK;
  75              		.loc 1 266 3 view .LVU19
  76              		.loc 1 266 10 is_stmt 0 view .LVU20
  77 0038 1846     		mov	r0, r3
ARM GAS  C:\Users\DELL\AppData\Local\Temp\ccMtHSyM.s 			page 7


  78              	.LVL3:
  79              		.loc 1 266 10 view .LVU21
  80 003a 7047     		bx	lr
  81              	.LVL4:
  82              	.L3:
 245:Drivers/STM32H5xx_HAL_Driver/Src/stm32h5xx_hal_rtc_ex.c **** 
  83              		.loc 1 245 3 discriminator 1 view .LVU22
  84 003c 0220     		movs	r0, #2
  85              	.LVL5:
 267:Drivers/STM32H5xx_HAL_Driver/Src/stm32h5xx_hal_rtc_ex.c **** }
  86              		.loc 1 267 1 view .LVU23
  87 003e 7047     		bx	lr
  88              	.L5:
  89              		.align	2
  90              	.L4:
  91 0040 00780044 		.word	1140881408
  92              		.cfi_endproc
  93              	.LFE297:
  95              		.section	.text.HAL_RTCEx_SetTimeStamp_IT,"ax",%progbits
  96              		.align	1
  97              		.global	HAL_RTCEx_SetTimeStamp_IT
  98              		.syntax unified
  99              		.thumb
 100              		.thumb_func
 102              	HAL_RTCEx_SetTimeStamp_IT:
 103              	.LVL6:
 104              	.LFB298:
 268:Drivers/STM32H5xx_HAL_Driver/Src/stm32h5xx_hal_rtc_ex.c **** 
 269:Drivers/STM32H5xx_HAL_Driver/Src/stm32h5xx_hal_rtc_ex.c **** /**
 270:Drivers/STM32H5xx_HAL_Driver/Src/stm32h5xx_hal_rtc_ex.c ****   * @brief  Set TimeStamp with Interrupt.
 271:Drivers/STM32H5xx_HAL_Driver/Src/stm32h5xx_hal_rtc_ex.c ****   * @note   This API must be called before enabling the TimeStamp feature.
 272:Drivers/STM32H5xx_HAL_Driver/Src/stm32h5xx_hal_rtc_ex.c ****   * @note   The application must ensure that the EXTI RTC interrupt line is enabled.
 273:Drivers/STM32H5xx_HAL_Driver/Src/stm32h5xx_hal_rtc_ex.c ****   * @param  hrtc RTC handle
 274:Drivers/STM32H5xx_HAL_Driver/Src/stm32h5xx_hal_rtc_ex.c ****   * @param  TimeStampEdge Specifies the pin edge on which the TimeStamp is
 275:Drivers/STM32H5xx_HAL_Driver/Src/stm32h5xx_hal_rtc_ex.c ****   *         activated.
 276:Drivers/STM32H5xx_HAL_Driver/Src/stm32h5xx_hal_rtc_ex.c ****   *          This parameter can be one of the following values:
 277:Drivers/STM32H5xx_HAL_Driver/Src/stm32h5xx_hal_rtc_ex.c ****   *             @arg RTC_TIMESTAMPEDGE_RISING: the Time stamp event occurs on the
 278:Drivers/STM32H5xx_HAL_Driver/Src/stm32h5xx_hal_rtc_ex.c ****   *                                        rising edge of the related pin.
 279:Drivers/STM32H5xx_HAL_Driver/Src/stm32h5xx_hal_rtc_ex.c ****   *             @arg RTC_TIMESTAMPEDGE_FALLING: the Time stamp event occurs on the
 280:Drivers/STM32H5xx_HAL_Driver/Src/stm32h5xx_hal_rtc_ex.c ****   *                                         falling edge of the related pin.
 281:Drivers/STM32H5xx_HAL_Driver/Src/stm32h5xx_hal_rtc_ex.c ****   * @param  RTC_TimeStampPin Specifies the RTC TimeStamp Pin.
 282:Drivers/STM32H5xx_HAL_Driver/Src/stm32h5xx_hal_rtc_ex.c ****   *          This parameter can be one of the following values:
 283:Drivers/STM32H5xx_HAL_Driver/Src/stm32h5xx_hal_rtc_ex.c ****   *             @arg RTC_TIMESTAMPPIN_DEFAULT: PC13 is selected as RTC TimeStamp Pin.
 284:Drivers/STM32H5xx_HAL_Driver/Src/stm32h5xx_hal_rtc_ex.c ****   *               The RTC TimeStamp Pin is per default PC13, but for reasons of
 285:Drivers/STM32H5xx_HAL_Driver/Src/stm32h5xx_hal_rtc_ex.c ****   *               compatibility, this parameter is required.
 286:Drivers/STM32H5xx_HAL_Driver/Src/stm32h5xx_hal_rtc_ex.c ****   * @retval HAL status
 287:Drivers/STM32H5xx_HAL_Driver/Src/stm32h5xx_hal_rtc_ex.c ****   */
 288:Drivers/STM32H5xx_HAL_Driver/Src/stm32h5xx_hal_rtc_ex.c **** HAL_StatusTypeDef HAL_RTCEx_SetTimeStamp_IT(RTC_HandleTypeDef *hrtc, uint32_t TimeStampEdge, uint32
 289:Drivers/STM32H5xx_HAL_Driver/Src/stm32h5xx_hal_rtc_ex.c **** {
 105              		.loc 1 289 1 is_stmt 1 view -0
 106              		.cfi_startproc
 107              		@ args = 0, pretend = 0, frame = 0
 108              		@ frame_needed = 0, uses_anonymous_args = 0
 109              		@ link register save eliminated.
 110              		.loc 1 289 1 is_stmt 0 view .LVU25
 111 0000 0346     		mov	r3, r0
 290:Drivers/STM32H5xx_HAL_Driver/Src/stm32h5xx_hal_rtc_ex.c ****   /* Check the parameters */
ARM GAS  C:\Users\DELL\AppData\Local\Temp\ccMtHSyM.s 			page 8


 291:Drivers/STM32H5xx_HAL_Driver/Src/stm32h5xx_hal_rtc_ex.c **** #if defined(RTC_CR_TSEDGE)
 292:Drivers/STM32H5xx_HAL_Driver/Src/stm32h5xx_hal_rtc_ex.c ****   assert_param(IS_TIMESTAMP_EDGE(TimeStampEdge));
 112              		.loc 1 292 3 is_stmt 1 view .LVU26
 293:Drivers/STM32H5xx_HAL_Driver/Src/stm32h5xx_hal_rtc_ex.c **** #endif /* RTC_CR_TSEDGE */
 294:Drivers/STM32H5xx_HAL_Driver/Src/stm32h5xx_hal_rtc_ex.c ****   assert_param(IS_RTC_TIMESTAMP_PIN(RTC_TimeStampPin));
 113              		.loc 1 294 3 view .LVU27
 295:Drivers/STM32H5xx_HAL_Driver/Src/stm32h5xx_hal_rtc_ex.c ****   UNUSED(RTC_TimeStampPin);
 114              		.loc 1 295 3 view .LVU28
 296:Drivers/STM32H5xx_HAL_Driver/Src/stm32h5xx_hal_rtc_ex.c **** 
 297:Drivers/STM32H5xx_HAL_Driver/Src/stm32h5xx_hal_rtc_ex.c ****   /* Process Locked */
 298:Drivers/STM32H5xx_HAL_Driver/Src/stm32h5xx_hal_rtc_ex.c ****   __HAL_LOCK(hrtc);
 115              		.loc 1 298 3 view .LVU29
 116              		.loc 1 298 3 view .LVU30
 117 0002 90F82C20 		ldrb	r2, [r0, #44]	@ zero_extendqisi2
 118              	.LVL7:
 119              		.loc 1 298 3 is_stmt 0 view .LVU31
 120 0006 012A     		cmp	r2, #1
 121 0008 1AD0     		beq	.L8
 122              		.loc 1 298 3 is_stmt 1 discriminator 2 view .LVU32
 123 000a 4FF0010C 		mov	ip, #1
 124 000e 80F82CC0 		strb	ip, [r0, #44]
 125              		.loc 1 298 3 view .LVU33
 299:Drivers/STM32H5xx_HAL_Driver/Src/stm32h5xx_hal_rtc_ex.c **** 
 300:Drivers/STM32H5xx_HAL_Driver/Src/stm32h5xx_hal_rtc_ex.c ****   /* Change RTC state */
 301:Drivers/STM32H5xx_HAL_Driver/Src/stm32h5xx_hal_rtc_ex.c ****   hrtc->State = HAL_RTC_STATE_BUSY;
 126              		.loc 1 301 3 view .LVU34
 127              		.loc 1 301 15 is_stmt 0 view .LVU35
 128 0012 0222     		movs	r2, #2
 129 0014 80F82D20 		strb	r2, [r0, #45]
 302:Drivers/STM32H5xx_HAL_Driver/Src/stm32h5xx_hal_rtc_ex.c **** 
 303:Drivers/STM32H5xx_HAL_Driver/Src/stm32h5xx_hal_rtc_ex.c ****   /* Get the RTC_CR register and clear the bits to be configured */
 304:Drivers/STM32H5xx_HAL_Driver/Src/stm32h5xx_hal_rtc_ex.c **** #if defined(RTC_CR_TSEDGE)
 305:Drivers/STM32H5xx_HAL_Driver/Src/stm32h5xx_hal_rtc_ex.c ****   CLEAR_BIT(RTC->CR, (RTC_CR_TSEDGE | RTC_CR_TSE | RTC_CR_TSIE));
 130              		.loc 1 305 3 is_stmt 1 view .LVU36
 131 0018 0A4A     		ldr	r2, .L9
 132 001a 9069     		ldr	r0, [r2, #24]
 133              	.LVL8:
 134              		.loc 1 305 3 is_stmt 0 view .LVU37
 135 001c 20F40840 		bic	r0, r0, #34816
 136 0020 20F00800 		bic	r0, r0, #8
 137 0024 9061     		str	r0, [r2, #24]
 306:Drivers/STM32H5xx_HAL_Driver/Src/stm32h5xx_hal_rtc_ex.c **** #else
 307:Drivers/STM32H5xx_HAL_Driver/Src/stm32h5xx_hal_rtc_ex.c ****   CLEAR_BIT(RTC->CR, (RTC_CR_TSE | RTC_CR_TSIE));
 308:Drivers/STM32H5xx_HAL_Driver/Src/stm32h5xx_hal_rtc_ex.c **** #endif /* RTC_CR_TSEDGE */
 309:Drivers/STM32H5xx_HAL_Driver/Src/stm32h5xx_hal_rtc_ex.c **** 
 310:Drivers/STM32H5xx_HAL_Driver/Src/stm32h5xx_hal_rtc_ex.c ****   /* Configure the Time Stamp TSEDGE before Enable bit to avoid unwanted TSF setting. */
 311:Drivers/STM32H5xx_HAL_Driver/Src/stm32h5xx_hal_rtc_ex.c ****   SET_BIT(RTC->CR, (uint32_t)TimeStampEdge);
 138              		.loc 1 311 3 is_stmt 1 view .LVU38
 139 0026 9069     		ldr	r0, [r2, #24]
 140 0028 0143     		orrs	r1, r1, r0
 141              	.LVL9:
 142              		.loc 1 311 3 is_stmt 0 view .LVU39
 143 002a 9161     		str	r1, [r2, #24]
 312:Drivers/STM32H5xx_HAL_Driver/Src/stm32h5xx_hal_rtc_ex.c **** 
 313:Drivers/STM32H5xx_HAL_Driver/Src/stm32h5xx_hal_rtc_ex.c ****   /* Enable timestamp and IT */
 314:Drivers/STM32H5xx_HAL_Driver/Src/stm32h5xx_hal_rtc_ex.c ****   SET_BIT(RTC->CR, RTC_CR_TSE | RTC_CR_TSIE);
 144              		.loc 1 314 3 is_stmt 1 view .LVU40
ARM GAS  C:\Users\DELL\AppData\Local\Temp\ccMtHSyM.s 			page 9


 145 002c 9169     		ldr	r1, [r2, #24]
 146 002e 41F40841 		orr	r1, r1, #34816
 147 0032 9161     		str	r1, [r2, #24]
 315:Drivers/STM32H5xx_HAL_Driver/Src/stm32h5xx_hal_rtc_ex.c **** 
 316:Drivers/STM32H5xx_HAL_Driver/Src/stm32h5xx_hal_rtc_ex.c ****   /* Change RTC state */
 317:Drivers/STM32H5xx_HAL_Driver/Src/stm32h5xx_hal_rtc_ex.c ****   hrtc->State = HAL_RTC_STATE_READY;
 148              		.loc 1 317 3 view .LVU41
 149              		.loc 1 317 15 is_stmt 0 view .LVU42
 150 0034 83F82DC0 		strb	ip, [r3, #45]
 318:Drivers/STM32H5xx_HAL_Driver/Src/stm32h5xx_hal_rtc_ex.c **** 
 319:Drivers/STM32H5xx_HAL_Driver/Src/stm32h5xx_hal_rtc_ex.c ****   /* Process Unlocked */
 320:Drivers/STM32H5xx_HAL_Driver/Src/stm32h5xx_hal_rtc_ex.c ****   __HAL_UNLOCK(hrtc);
 151              		.loc 1 320 3 is_stmt 1 view .LVU43
 152              		.loc 1 320 3 view .LVU44
 153 0038 0020     		movs	r0, #0
 154 003a 83F82C00 		strb	r0, [r3, #44]
 155              		.loc 1 320 3 view .LVU45
 321:Drivers/STM32H5xx_HAL_Driver/Src/stm32h5xx_hal_rtc_ex.c **** 
 322:Drivers/STM32H5xx_HAL_Driver/Src/stm32h5xx_hal_rtc_ex.c ****   return HAL_OK;
 156              		.loc 1 322 3 view .LVU46
 157              		.loc 1 322 10 is_stmt 0 view .LVU47
 158 003e 7047     		bx	lr
 159              	.LVL10:
 160              	.L8:
 298:Drivers/STM32H5xx_HAL_Driver/Src/stm32h5xx_hal_rtc_ex.c **** 
 161              		.loc 1 298 3 discriminator 1 view .LVU48
 162 0040 0220     		movs	r0, #2
 163              	.LVL11:
 323:Drivers/STM32H5xx_HAL_Driver/Src/stm32h5xx_hal_rtc_ex.c **** }
 164              		.loc 1 323 1 view .LVU49
 165 0042 7047     		bx	lr
 166              	.L10:
 167              		.align	2
 168              	.L9:
 169 0044 00780044 		.word	1140881408
 170              		.cfi_endproc
 171              	.LFE298:
 173              		.section	.text.HAL_RTCEx_DeactivateTimeStamp,"ax",%progbits
 174              		.align	1
 175              		.global	HAL_RTCEx_DeactivateTimeStamp
 176              		.syntax unified
 177              		.thumb
 178              		.thumb_func
 180              	HAL_RTCEx_DeactivateTimeStamp:
 181              	.LVL12:
 182              	.LFB299:
 324:Drivers/STM32H5xx_HAL_Driver/Src/stm32h5xx_hal_rtc_ex.c **** 
 325:Drivers/STM32H5xx_HAL_Driver/Src/stm32h5xx_hal_rtc_ex.c **** /**
 326:Drivers/STM32H5xx_HAL_Driver/Src/stm32h5xx_hal_rtc_ex.c ****   * @brief  Deactivate TimeStamp.
 327:Drivers/STM32H5xx_HAL_Driver/Src/stm32h5xx_hal_rtc_ex.c ****   * @param  hrtc RTC handle
 328:Drivers/STM32H5xx_HAL_Driver/Src/stm32h5xx_hal_rtc_ex.c ****   * @retval HAL status
 329:Drivers/STM32H5xx_HAL_Driver/Src/stm32h5xx_hal_rtc_ex.c ****   */
 330:Drivers/STM32H5xx_HAL_Driver/Src/stm32h5xx_hal_rtc_ex.c **** HAL_StatusTypeDef HAL_RTCEx_DeactivateTimeStamp(RTC_HandleTypeDef *hrtc)
 331:Drivers/STM32H5xx_HAL_Driver/Src/stm32h5xx_hal_rtc_ex.c **** {
 183              		.loc 1 331 1 is_stmt 1 view -0
 184              		.cfi_startproc
 185              		@ args = 0, pretend = 0, frame = 0
ARM GAS  C:\Users\DELL\AppData\Local\Temp\ccMtHSyM.s 			page 10


 186              		@ frame_needed = 0, uses_anonymous_args = 0
 187              		@ link register save eliminated.
 332:Drivers/STM32H5xx_HAL_Driver/Src/stm32h5xx_hal_rtc_ex.c ****   /* Process Locked */
 333:Drivers/STM32H5xx_HAL_Driver/Src/stm32h5xx_hal_rtc_ex.c ****   __HAL_LOCK(hrtc);
 188              		.loc 1 333 3 view .LVU51
 189              		.loc 1 333 3 view .LVU52
 190 0000 90F82C30 		ldrb	r3, [r0, #44]	@ zero_extendqisi2
 191 0004 012B     		cmp	r3, #1
 192 0006 13D0     		beq	.L13
 193              		.loc 1 333 3 discriminator 2 view .LVU53
 194 0008 0122     		movs	r2, #1
 195 000a 80F82C20 		strb	r2, [r0, #44]
 196              		.loc 1 333 3 view .LVU54
 334:Drivers/STM32H5xx_HAL_Driver/Src/stm32h5xx_hal_rtc_ex.c **** 
 335:Drivers/STM32H5xx_HAL_Driver/Src/stm32h5xx_hal_rtc_ex.c ****   /* Change RTC state */
 336:Drivers/STM32H5xx_HAL_Driver/Src/stm32h5xx_hal_rtc_ex.c ****   hrtc->State = HAL_RTC_STATE_BUSY;
 197              		.loc 1 336 3 view .LVU55
 198              		.loc 1 336 15 is_stmt 0 view .LVU56
 199 000e 0223     		movs	r3, #2
 200 0010 80F82D30 		strb	r3, [r0, #45]
 337:Drivers/STM32H5xx_HAL_Driver/Src/stm32h5xx_hal_rtc_ex.c **** 
 338:Drivers/STM32H5xx_HAL_Driver/Src/stm32h5xx_hal_rtc_ex.c ****   /* In case of interrupt mode is used, the interrupt source must disabled */
 339:Drivers/STM32H5xx_HAL_Driver/Src/stm32h5xx_hal_rtc_ex.c **** #if defined(RTC_CR_TSEDGE)
 340:Drivers/STM32H5xx_HAL_Driver/Src/stm32h5xx_hal_rtc_ex.c ****   CLEAR_BIT(RTC->CR, (RTC_CR_TSEDGE | RTC_CR_TSE | RTC_CR_TSIE));
 201              		.loc 1 340 3 is_stmt 1 view .LVU57
 202 0014 0749     		ldr	r1, .L14
 203 0016 8B69     		ldr	r3, [r1, #24]
 204 0018 23F40843 		bic	r3, r3, #34816
 205 001c 23F00803 		bic	r3, r3, #8
 206 0020 8B61     		str	r3, [r1, #24]
 341:Drivers/STM32H5xx_HAL_Driver/Src/stm32h5xx_hal_rtc_ex.c **** #else
 342:Drivers/STM32H5xx_HAL_Driver/Src/stm32h5xx_hal_rtc_ex.c ****   CLEAR_BIT(RTC->CR, (RTC_CR_TSE | RTC_CR_TSIE));
 343:Drivers/STM32H5xx_HAL_Driver/Src/stm32h5xx_hal_rtc_ex.c **** #endif /* RTC_CR_TSEDGE */
 344:Drivers/STM32H5xx_HAL_Driver/Src/stm32h5xx_hal_rtc_ex.c **** 
 345:Drivers/STM32H5xx_HAL_Driver/Src/stm32h5xx_hal_rtc_ex.c ****   /* Change RTC state */
 346:Drivers/STM32H5xx_HAL_Driver/Src/stm32h5xx_hal_rtc_ex.c ****   hrtc->State = HAL_RTC_STATE_READY;
 207              		.loc 1 346 3 view .LVU58
 208              		.loc 1 346 15 is_stmt 0 view .LVU59
 209 0022 80F82D20 		strb	r2, [r0, #45]
 347:Drivers/STM32H5xx_HAL_Driver/Src/stm32h5xx_hal_rtc_ex.c **** 
 348:Drivers/STM32H5xx_HAL_Driver/Src/stm32h5xx_hal_rtc_ex.c ****   /* Process Unlocked */
 349:Drivers/STM32H5xx_HAL_Driver/Src/stm32h5xx_hal_rtc_ex.c ****   __HAL_UNLOCK(hrtc);
 210              		.loc 1 349 3 is_stmt 1 view .LVU60
 211              		.loc 1 349 3 view .LVU61
 212 0026 0023     		movs	r3, #0
 213 0028 80F82C30 		strb	r3, [r0, #44]
 214              		.loc 1 349 3 view .LVU62
 350:Drivers/STM32H5xx_HAL_Driver/Src/stm32h5xx_hal_rtc_ex.c **** 
 351:Drivers/STM32H5xx_HAL_Driver/Src/stm32h5xx_hal_rtc_ex.c ****   return HAL_OK;
 215              		.loc 1 351 3 view .LVU63
 216              		.loc 1 351 10 is_stmt 0 view .LVU64
 217 002c 1846     		mov	r0, r3
 218              	.LVL13:
 219              		.loc 1 351 10 view .LVU65
 220 002e 7047     		bx	lr
 221              	.LVL14:
 222              	.L13:
ARM GAS  C:\Users\DELL\AppData\Local\Temp\ccMtHSyM.s 			page 11


 333:Drivers/STM32H5xx_HAL_Driver/Src/stm32h5xx_hal_rtc_ex.c **** 
 223              		.loc 1 333 3 discriminator 1 view .LVU66
 224 0030 0220     		movs	r0, #2
 225              	.LVL15:
 352:Drivers/STM32H5xx_HAL_Driver/Src/stm32h5xx_hal_rtc_ex.c **** }
 226              		.loc 1 352 1 view .LVU67
 227 0032 7047     		bx	lr
 228              	.L15:
 229              		.align	2
 230              	.L14:
 231 0034 00780044 		.word	1140881408
 232              		.cfi_endproc
 233              	.LFE299:
 235              		.section	.text.HAL_RTCEx_SetInternalTimeStamp,"ax",%progbits
 236              		.align	1
 237              		.global	HAL_RTCEx_SetInternalTimeStamp
 238              		.syntax unified
 239              		.thumb
 240              		.thumb_func
 242              	HAL_RTCEx_SetInternalTimeStamp:
 243              	.LVL16:
 244              	.LFB300:
 353:Drivers/STM32H5xx_HAL_Driver/Src/stm32h5xx_hal_rtc_ex.c **** #endif /* RTC_CR_TSE */
 354:Drivers/STM32H5xx_HAL_Driver/Src/stm32h5xx_hal_rtc_ex.c **** 
 355:Drivers/STM32H5xx_HAL_Driver/Src/stm32h5xx_hal_rtc_ex.c **** /**
 356:Drivers/STM32H5xx_HAL_Driver/Src/stm32h5xx_hal_rtc_ex.c ****   * @brief  Set Internal TimeStamp.
 357:Drivers/STM32H5xx_HAL_Driver/Src/stm32h5xx_hal_rtc_ex.c ****   * @note   This API must be called before enabling the internal TimeStamp feature.
 358:Drivers/STM32H5xx_HAL_Driver/Src/stm32h5xx_hal_rtc_ex.c ****   * @param  hrtc RTC handle
 359:Drivers/STM32H5xx_HAL_Driver/Src/stm32h5xx_hal_rtc_ex.c ****   * @retval HAL status
 360:Drivers/STM32H5xx_HAL_Driver/Src/stm32h5xx_hal_rtc_ex.c ****   */
 361:Drivers/STM32H5xx_HAL_Driver/Src/stm32h5xx_hal_rtc_ex.c **** HAL_StatusTypeDef HAL_RTCEx_SetInternalTimeStamp(RTC_HandleTypeDef *hrtc)
 362:Drivers/STM32H5xx_HAL_Driver/Src/stm32h5xx_hal_rtc_ex.c **** {
 245              		.loc 1 362 1 is_stmt 1 view -0
 246              		.cfi_startproc
 247              		@ args = 0, pretend = 0, frame = 0
 248              		@ frame_needed = 0, uses_anonymous_args = 0
 249              		@ link register save eliminated.
 363:Drivers/STM32H5xx_HAL_Driver/Src/stm32h5xx_hal_rtc_ex.c ****   /* Process Locked */
 364:Drivers/STM32H5xx_HAL_Driver/Src/stm32h5xx_hal_rtc_ex.c ****   __HAL_LOCK(hrtc);
 250              		.loc 1 364 3 view .LVU69
 251              		.loc 1 364 3 view .LVU70
 252 0000 90F82C30 		ldrb	r3, [r0, #44]	@ zero_extendqisi2
 253 0004 012B     		cmp	r3, #1
 254 0006 11D0     		beq	.L18
 255              		.loc 1 364 3 discriminator 2 view .LVU71
 256 0008 0122     		movs	r2, #1
 257 000a 80F82C20 		strb	r2, [r0, #44]
 258              		.loc 1 364 3 view .LVU72
 365:Drivers/STM32H5xx_HAL_Driver/Src/stm32h5xx_hal_rtc_ex.c **** 
 366:Drivers/STM32H5xx_HAL_Driver/Src/stm32h5xx_hal_rtc_ex.c ****   /* Change RTC state */
 367:Drivers/STM32H5xx_HAL_Driver/Src/stm32h5xx_hal_rtc_ex.c ****   hrtc->State = HAL_RTC_STATE_BUSY;
 259              		.loc 1 367 3 view .LVU73
 260              		.loc 1 367 15 is_stmt 0 view .LVU74
 261 000e 0223     		movs	r3, #2
 262 0010 80F82D30 		strb	r3, [r0, #45]
 368:Drivers/STM32H5xx_HAL_Driver/Src/stm32h5xx_hal_rtc_ex.c **** 
 369:Drivers/STM32H5xx_HAL_Driver/Src/stm32h5xx_hal_rtc_ex.c ****   /* Configure the internal Time Stamp Enable bits */
ARM GAS  C:\Users\DELL\AppData\Local\Temp\ccMtHSyM.s 			page 12


 370:Drivers/STM32H5xx_HAL_Driver/Src/stm32h5xx_hal_rtc_ex.c ****   SET_BIT(RTC->CR, RTC_CR_ITSE);
 263              		.loc 1 370 3 is_stmt 1 view .LVU75
 264 0014 0649     		ldr	r1, .L19
 265 0016 8B69     		ldr	r3, [r1, #24]
 266 0018 43F08073 		orr	r3, r3, #16777216
 267 001c 8B61     		str	r3, [r1, #24]
 371:Drivers/STM32H5xx_HAL_Driver/Src/stm32h5xx_hal_rtc_ex.c **** 
 372:Drivers/STM32H5xx_HAL_Driver/Src/stm32h5xx_hal_rtc_ex.c ****   /* Change RTC state */
 373:Drivers/STM32H5xx_HAL_Driver/Src/stm32h5xx_hal_rtc_ex.c ****   hrtc->State = HAL_RTC_STATE_READY;
 268              		.loc 1 373 3 view .LVU76
 269              		.loc 1 373 15 is_stmt 0 view .LVU77
 270 001e 80F82D20 		strb	r2, [r0, #45]
 374:Drivers/STM32H5xx_HAL_Driver/Src/stm32h5xx_hal_rtc_ex.c **** 
 375:Drivers/STM32H5xx_HAL_Driver/Src/stm32h5xx_hal_rtc_ex.c ****   /* Process Unlocked */
 376:Drivers/STM32H5xx_HAL_Driver/Src/stm32h5xx_hal_rtc_ex.c ****   __HAL_UNLOCK(hrtc);
 271              		.loc 1 376 3 is_stmt 1 view .LVU78
 272              		.loc 1 376 3 view .LVU79
 273 0022 0023     		movs	r3, #0
 274 0024 80F82C30 		strb	r3, [r0, #44]
 275              		.loc 1 376 3 view .LVU80
 377:Drivers/STM32H5xx_HAL_Driver/Src/stm32h5xx_hal_rtc_ex.c **** 
 378:Drivers/STM32H5xx_HAL_Driver/Src/stm32h5xx_hal_rtc_ex.c ****   return HAL_OK;
 276              		.loc 1 378 3 view .LVU81
 277              		.loc 1 378 10 is_stmt 0 view .LVU82
 278 0028 1846     		mov	r0, r3
 279              	.LVL17:
 280              		.loc 1 378 10 view .LVU83
 281 002a 7047     		bx	lr
 282              	.LVL18:
 283              	.L18:
 364:Drivers/STM32H5xx_HAL_Driver/Src/stm32h5xx_hal_rtc_ex.c **** 
 284              		.loc 1 364 3 discriminator 1 view .LVU84
 285 002c 0220     		movs	r0, #2
 286              	.LVL19:
 379:Drivers/STM32H5xx_HAL_Driver/Src/stm32h5xx_hal_rtc_ex.c **** }
 287              		.loc 1 379 1 view .LVU85
 288 002e 7047     		bx	lr
 289              	.L20:
 290              		.align	2
 291              	.L19:
 292 0030 00780044 		.word	1140881408
 293              		.cfi_endproc
 294              	.LFE300:
 296              		.section	.text.HAL_RTCEx_DeactivateInternalTimeStamp,"ax",%progbits
 297              		.align	1
 298              		.global	HAL_RTCEx_DeactivateInternalTimeStamp
 299              		.syntax unified
 300              		.thumb
 301              		.thumb_func
 303              	HAL_RTCEx_DeactivateInternalTimeStamp:
 304              	.LVL20:
 305              	.LFB301:
 380:Drivers/STM32H5xx_HAL_Driver/Src/stm32h5xx_hal_rtc_ex.c **** 
 381:Drivers/STM32H5xx_HAL_Driver/Src/stm32h5xx_hal_rtc_ex.c **** /**
 382:Drivers/STM32H5xx_HAL_Driver/Src/stm32h5xx_hal_rtc_ex.c ****   * @brief  Deactivate Internal TimeStamp.
 383:Drivers/STM32H5xx_HAL_Driver/Src/stm32h5xx_hal_rtc_ex.c ****   * @param  hrtc RTC handle
 384:Drivers/STM32H5xx_HAL_Driver/Src/stm32h5xx_hal_rtc_ex.c ****   * @retval HAL status
ARM GAS  C:\Users\DELL\AppData\Local\Temp\ccMtHSyM.s 			page 13


 385:Drivers/STM32H5xx_HAL_Driver/Src/stm32h5xx_hal_rtc_ex.c ****   */
 386:Drivers/STM32H5xx_HAL_Driver/Src/stm32h5xx_hal_rtc_ex.c **** HAL_StatusTypeDef HAL_RTCEx_DeactivateInternalTimeStamp(RTC_HandleTypeDef *hrtc)
 387:Drivers/STM32H5xx_HAL_Driver/Src/stm32h5xx_hal_rtc_ex.c **** {
 306              		.loc 1 387 1 is_stmt 1 view -0
 307              		.cfi_startproc
 308              		@ args = 0, pretend = 0, frame = 0
 309              		@ frame_needed = 0, uses_anonymous_args = 0
 310              		@ link register save eliminated.
 388:Drivers/STM32H5xx_HAL_Driver/Src/stm32h5xx_hal_rtc_ex.c ****   /* Process Locked */
 389:Drivers/STM32H5xx_HAL_Driver/Src/stm32h5xx_hal_rtc_ex.c ****   __HAL_LOCK(hrtc);
 311              		.loc 1 389 3 view .LVU87
 312              		.loc 1 389 3 view .LVU88
 313 0000 90F82C30 		ldrb	r3, [r0, #44]	@ zero_extendqisi2
 314 0004 012B     		cmp	r3, #1
 315 0006 11D0     		beq	.L23
 316              		.loc 1 389 3 discriminator 2 view .LVU89
 317 0008 0122     		movs	r2, #1
 318 000a 80F82C20 		strb	r2, [r0, #44]
 319              		.loc 1 389 3 view .LVU90
 390:Drivers/STM32H5xx_HAL_Driver/Src/stm32h5xx_hal_rtc_ex.c **** 
 391:Drivers/STM32H5xx_HAL_Driver/Src/stm32h5xx_hal_rtc_ex.c ****   /* Change RTC state */
 392:Drivers/STM32H5xx_HAL_Driver/Src/stm32h5xx_hal_rtc_ex.c ****   hrtc->State = HAL_RTC_STATE_BUSY;
 320              		.loc 1 392 3 view .LVU91
 321              		.loc 1 392 15 is_stmt 0 view .LVU92
 322 000e 0223     		movs	r3, #2
 323 0010 80F82D30 		strb	r3, [r0, #45]
 393:Drivers/STM32H5xx_HAL_Driver/Src/stm32h5xx_hal_rtc_ex.c **** 
 394:Drivers/STM32H5xx_HAL_Driver/Src/stm32h5xx_hal_rtc_ex.c ****   /* Configure the internal Time Stamp Enable bits */
 395:Drivers/STM32H5xx_HAL_Driver/Src/stm32h5xx_hal_rtc_ex.c ****   CLEAR_BIT(RTC->CR, RTC_CR_ITSE);
 324              		.loc 1 395 3 is_stmt 1 view .LVU93
 325 0014 0649     		ldr	r1, .L24
 326 0016 8B69     		ldr	r3, [r1, #24]
 327 0018 23F08073 		bic	r3, r3, #16777216
 328 001c 8B61     		str	r3, [r1, #24]
 396:Drivers/STM32H5xx_HAL_Driver/Src/stm32h5xx_hal_rtc_ex.c **** 
 397:Drivers/STM32H5xx_HAL_Driver/Src/stm32h5xx_hal_rtc_ex.c ****   hrtc->State = HAL_RTC_STATE_READY;
 329              		.loc 1 397 3 view .LVU94
 330              		.loc 1 397 15 is_stmt 0 view .LVU95
 331 001e 80F82D20 		strb	r2, [r0, #45]
 398:Drivers/STM32H5xx_HAL_Driver/Src/stm32h5xx_hal_rtc_ex.c **** 
 399:Drivers/STM32H5xx_HAL_Driver/Src/stm32h5xx_hal_rtc_ex.c ****   /* Process Unlocked */
 400:Drivers/STM32H5xx_HAL_Driver/Src/stm32h5xx_hal_rtc_ex.c ****   __HAL_UNLOCK(hrtc);
 332              		.loc 1 400 3 is_stmt 1 view .LVU96
 333              		.loc 1 400 3 view .LVU97
 334 0022 0023     		movs	r3, #0
 335 0024 80F82C30 		strb	r3, [r0, #44]
 336              		.loc 1 400 3 view .LVU98
 401:Drivers/STM32H5xx_HAL_Driver/Src/stm32h5xx_hal_rtc_ex.c **** 
 402:Drivers/STM32H5xx_HAL_Driver/Src/stm32h5xx_hal_rtc_ex.c ****   return HAL_OK;
 337              		.loc 1 402 3 view .LVU99
 338              		.loc 1 402 10 is_stmt 0 view .LVU100
 339 0028 1846     		mov	r0, r3
 340              	.LVL21:
 341              		.loc 1 402 10 view .LVU101
 342 002a 7047     		bx	lr
 343              	.LVL22:
 344              	.L23:
ARM GAS  C:\Users\DELL\AppData\Local\Temp\ccMtHSyM.s 			page 14


 389:Drivers/STM32H5xx_HAL_Driver/Src/stm32h5xx_hal_rtc_ex.c **** 
 345              		.loc 1 389 3 discriminator 1 view .LVU102
 346 002c 0220     		movs	r0, #2
 347              	.LVL23:
 403:Drivers/STM32H5xx_HAL_Driver/Src/stm32h5xx_hal_rtc_ex.c **** }
 348              		.loc 1 403 1 view .LVU103
 349 002e 7047     		bx	lr
 350              	.L25:
 351              		.align	2
 352              	.L24:
 353 0030 00780044 		.word	1140881408
 354              		.cfi_endproc
 355              	.LFE301:
 357              		.section	.text.HAL_RTCEx_GetTimeStamp,"ax",%progbits
 358              		.align	1
 359              		.global	HAL_RTCEx_GetTimeStamp
 360              		.syntax unified
 361              		.thumb
 362              		.thumb_func
 364              	HAL_RTCEx_GetTimeStamp:
 365              	.LVL24:
 366              	.LFB302:
 404:Drivers/STM32H5xx_HAL_Driver/Src/stm32h5xx_hal_rtc_ex.c **** 
 405:Drivers/STM32H5xx_HAL_Driver/Src/stm32h5xx_hal_rtc_ex.c **** /**
 406:Drivers/STM32H5xx_HAL_Driver/Src/stm32h5xx_hal_rtc_ex.c ****   * @brief  Get the RTC TimeStamp value.
 407:Drivers/STM32H5xx_HAL_Driver/Src/stm32h5xx_hal_rtc_ex.c ****   * @param  hrtc RTC handle
 408:Drivers/STM32H5xx_HAL_Driver/Src/stm32h5xx_hal_rtc_ex.c ****   * @param  sTimeStamp Pointer to Time structure
 409:Drivers/STM32H5xx_HAL_Driver/Src/stm32h5xx_hal_rtc_ex.c ****   * @param  sTimeStampDate Pointer to Date structure
 410:Drivers/STM32H5xx_HAL_Driver/Src/stm32h5xx_hal_rtc_ex.c ****   * @param  Format specifies the format of the entered parameters.
 411:Drivers/STM32H5xx_HAL_Driver/Src/stm32h5xx_hal_rtc_ex.c ****   *          This parameter can be one of the following values:
 412:Drivers/STM32H5xx_HAL_Driver/Src/stm32h5xx_hal_rtc_ex.c ****   *             @arg RTC_FORMAT_BIN: Binary data format
 413:Drivers/STM32H5xx_HAL_Driver/Src/stm32h5xx_hal_rtc_ex.c ****   *             @arg RTC_FORMAT_BCD: BCD data format
 414:Drivers/STM32H5xx_HAL_Driver/Src/stm32h5xx_hal_rtc_ex.c ****   * @retval HAL status
 415:Drivers/STM32H5xx_HAL_Driver/Src/stm32h5xx_hal_rtc_ex.c ****   */
 416:Drivers/STM32H5xx_HAL_Driver/Src/stm32h5xx_hal_rtc_ex.c **** HAL_StatusTypeDef HAL_RTCEx_GetTimeStamp(const RTC_HandleTypeDef *hrtc, RTC_TimeTypeDef *sTimeStamp
 417:Drivers/STM32H5xx_HAL_Driver/Src/stm32h5xx_hal_rtc_ex.c ****                                          RTC_DateTypeDef *sTimeStampDate, uint32_t Format)
 418:Drivers/STM32H5xx_HAL_Driver/Src/stm32h5xx_hal_rtc_ex.c **** {
 367              		.loc 1 418 1 is_stmt 1 view -0
 368              		.cfi_startproc
 369              		@ args = 0, pretend = 0, frame = 0
 370              		@ frame_needed = 0, uses_anonymous_args = 0
 371              		.loc 1 418 1 is_stmt 0 view .LVU105
 372 0000 38B5     		push	{r3, r4, r5, lr}
 373              	.LCFI0:
 374              		.cfi_def_cfa_offset 16
 375              		.cfi_offset 3, -16
 376              		.cfi_offset 4, -12
 377              		.cfi_offset 5, -8
 378              		.cfi_offset 14, -4
 379 0002 0C46     		mov	r4, r1
 380 0004 1546     		mov	r5, r2
 419:Drivers/STM32H5xx_HAL_Driver/Src/stm32h5xx_hal_rtc_ex.c ****   uint32_t tmptime;
 381              		.loc 1 419 3 is_stmt 1 view .LVU106
 420:Drivers/STM32H5xx_HAL_Driver/Src/stm32h5xx_hal_rtc_ex.c ****   uint32_t tmpdate;
 382              		.loc 1 420 3 view .LVU107
 421:Drivers/STM32H5xx_HAL_Driver/Src/stm32h5xx_hal_rtc_ex.c **** 
 422:Drivers/STM32H5xx_HAL_Driver/Src/stm32h5xx_hal_rtc_ex.c ****   /* Prevent unused argument(s) compilation warning */
ARM GAS  C:\Users\DELL\AppData\Local\Temp\ccMtHSyM.s 			page 15


 423:Drivers/STM32H5xx_HAL_Driver/Src/stm32h5xx_hal_rtc_ex.c ****   UNUSED(hrtc);
 383              		.loc 1 423 3 view .LVU108
 424:Drivers/STM32H5xx_HAL_Driver/Src/stm32h5xx_hal_rtc_ex.c **** 
 425:Drivers/STM32H5xx_HAL_Driver/Src/stm32h5xx_hal_rtc_ex.c ****   /* Check the parameters */
 426:Drivers/STM32H5xx_HAL_Driver/Src/stm32h5xx_hal_rtc_ex.c ****   assert_param(IS_RTC_FORMAT(Format));
 384              		.loc 1 426 3 view .LVU109
 427:Drivers/STM32H5xx_HAL_Driver/Src/stm32h5xx_hal_rtc_ex.c **** 
 428:Drivers/STM32H5xx_HAL_Driver/Src/stm32h5xx_hal_rtc_ex.c ****   /* Get the TimeStamp time and date registers values */
 429:Drivers/STM32H5xx_HAL_Driver/Src/stm32h5xx_hal_rtc_ex.c ****   tmptime = READ_BIT(RTC->TSTR, RTC_TR_RESERVED_MASK);
 385              		.loc 1 429 3 view .LVU110
 386              		.loc 1 429 13 is_stmt 0 view .LVU111
 387 0006 1F48     		ldr	r0, .L30
 388              	.LVL25:
 389              		.loc 1 429 13 view .LVU112
 390 0008 026B     		ldr	r2, [r0, #48]
 391              	.LVL26:
 430:Drivers/STM32H5xx_HAL_Driver/Src/stm32h5xx_hal_rtc_ex.c ****   tmpdate = READ_BIT(RTC->TSDR, RTC_DR_RESERVED_MASK);
 392              		.loc 1 430 3 is_stmt 1 view .LVU113
 393              		.loc 1 430 13 is_stmt 0 view .LVU114
 394 000a 416B     		ldr	r1, [r0, #52]
 395              	.LVL27:
 431:Drivers/STM32H5xx_HAL_Driver/Src/stm32h5xx_hal_rtc_ex.c **** 
 432:Drivers/STM32H5xx_HAL_Driver/Src/stm32h5xx_hal_rtc_ex.c ****   /* Fill the Time structure fields with the read parameters */
 433:Drivers/STM32H5xx_HAL_Driver/Src/stm32h5xx_hal_rtc_ex.c ****   sTimeStamp->Hours = (uint8_t)((tmptime & (RTC_TSTR_HT | RTC_TSTR_HU)) >> RTC_TSTR_HU_Pos);
 396              		.loc 1 433 3 is_stmt 1 view .LVU115
 397              		.loc 1 433 23 is_stmt 0 view .LVU116
 398 000c C2F3054C 		ubfx	ip, r2, #16, #6
 399              		.loc 1 433 21 view .LVU117
 400 0010 84F800C0 		strb	ip, [r4]
 434:Drivers/STM32H5xx_HAL_Driver/Src/stm32h5xx_hal_rtc_ex.c ****   sTimeStamp->Minutes = (uint8_t)((tmptime & (RTC_TSTR_MNT | RTC_TSTR_MNU)) >> RTC_TSTR_MNU_Pos);
 401              		.loc 1 434 3 is_stmt 1 view .LVU118
 402              		.loc 1 434 25 is_stmt 0 view .LVU119
 403 0014 C2F3062C 		ubfx	ip, r2, #8, #7
 404              		.loc 1 434 23 view .LVU120
 405 0018 84F801C0 		strb	ip, [r4, #1]
 435:Drivers/STM32H5xx_HAL_Driver/Src/stm32h5xx_hal_rtc_ex.c ****   sTimeStamp->Seconds = (uint8_t)((tmptime & (RTC_TSTR_ST | RTC_TSTR_SU)) >> RTC_TSTR_SU_Pos);
 406              		.loc 1 435 3 is_stmt 1 view .LVU121
 407              		.loc 1 435 25 is_stmt 0 view .LVU122
 408 001c 02F07F0C 		and	ip, r2, #127
 409              		.loc 1 435 23 view .LVU123
 410 0020 84F802C0 		strb	ip, [r4, #2]
 436:Drivers/STM32H5xx_HAL_Driver/Src/stm32h5xx_hal_rtc_ex.c ****   sTimeStamp->TimeFormat = (uint8_t)((tmptime & (RTC_TSTR_PM)) >> RTC_TSTR_PM_Pos);
 411              		.loc 1 436 3 is_stmt 1 view .LVU124
 412              		.loc 1 436 28 is_stmt 0 view .LVU125
 413 0024 C2F38052 		ubfx	r2, r2, #22, #1
 414              	.LVL28:
 415              		.loc 1 436 26 view .LVU126
 416 0028 E270     		strb	r2, [r4, #3]
 437:Drivers/STM32H5xx_HAL_Driver/Src/stm32h5xx_hal_rtc_ex.c ****   sTimeStamp->SubSeconds = READ_BIT(RTC->TSSSR, RTC_TSSSR_SS);
 417              		.loc 1 437 3 is_stmt 1 view .LVU127
 418              		.loc 1 437 28 is_stmt 0 view .LVU128
 419 002a 826B     		ldr	r2, [r0, #56]
 420              		.loc 1 437 26 view .LVU129
 421 002c 6260     		str	r2, [r4, #4]
 438:Drivers/STM32H5xx_HAL_Driver/Src/stm32h5xx_hal_rtc_ex.c **** 
 439:Drivers/STM32H5xx_HAL_Driver/Src/stm32h5xx_hal_rtc_ex.c ****   /* Fill the Date structure fields with the read parameters */
 440:Drivers/STM32H5xx_HAL_Driver/Src/stm32h5xx_hal_rtc_ex.c ****   sTimeStampDate->Year = 0U;
ARM GAS  C:\Users\DELL\AppData\Local\Temp\ccMtHSyM.s 			page 16


 422              		.loc 1 440 3 is_stmt 1 view .LVU130
 423              		.loc 1 440 24 is_stmt 0 view .LVU131
 424 002e 0022     		movs	r2, #0
 425 0030 EA70     		strb	r2, [r5, #3]
 441:Drivers/STM32H5xx_HAL_Driver/Src/stm32h5xx_hal_rtc_ex.c ****   sTimeStampDate->Month = (uint8_t)((tmpdate & (RTC_TSDR_MT | RTC_TSDR_MU)) >> RTC_TSDR_MU_Pos);
 426              		.loc 1 441 3 is_stmt 1 view .LVU132
 427              		.loc 1 441 27 is_stmt 0 view .LVU133
 428 0032 C1F30422 		ubfx	r2, r1, #8, #5
 429              		.loc 1 441 25 view .LVU134
 430 0036 6A70     		strb	r2, [r5, #1]
 442:Drivers/STM32H5xx_HAL_Driver/Src/stm32h5xx_hal_rtc_ex.c ****   sTimeStampDate->Date = (uint8_t)(tmpdate & (RTC_TSDR_DT | RTC_TSDR_DU));
 431              		.loc 1 442 3 is_stmt 1 view .LVU135
 432              		.loc 1 442 26 is_stmt 0 view .LVU136
 433 0038 01F03F02 		and	r2, r1, #63
 434              		.loc 1 442 24 view .LVU137
 435 003c AA70     		strb	r2, [r5, #2]
 443:Drivers/STM32H5xx_HAL_Driver/Src/stm32h5xx_hal_rtc_ex.c ****   sTimeStampDate->WeekDay = (uint8_t)((tmpdate & (RTC_TSDR_WDU)) >> RTC_TSDR_WDU_Pos);
 436              		.loc 1 443 3 is_stmt 1 view .LVU138
 437              		.loc 1 443 29 is_stmt 0 view .LVU139
 438 003e C1F34231 		ubfx	r1, r1, #13, #3
 439              	.LVL29:
 440              		.loc 1 443 27 view .LVU140
 441 0042 2970     		strb	r1, [r5]
 444:Drivers/STM32H5xx_HAL_Driver/Src/stm32h5xx_hal_rtc_ex.c **** 
 445:Drivers/STM32H5xx_HAL_Driver/Src/stm32h5xx_hal_rtc_ex.c ****   /* Check the input parameters format */
 446:Drivers/STM32H5xx_HAL_Driver/Src/stm32h5xx_hal_rtc_ex.c ****   if (Format == RTC_FORMAT_BIN)
 442              		.loc 1 446 3 is_stmt 1 view .LVU141
 443              		.loc 1 446 6 is_stmt 0 view .LVU142
 444 0044 23B1     		cbz	r3, .L29
 445              	.LVL30:
 446              	.L27:
 447:Drivers/STM32H5xx_HAL_Driver/Src/stm32h5xx_hal_rtc_ex.c ****   {
 448:Drivers/STM32H5xx_HAL_Driver/Src/stm32h5xx_hal_rtc_ex.c ****     /* Convert the TimeStamp structure parameters to Binary format */
 449:Drivers/STM32H5xx_HAL_Driver/Src/stm32h5xx_hal_rtc_ex.c ****     sTimeStamp->Hours = (uint8_t)RTC_Bcd2ToByte(sTimeStamp->Hours);
 450:Drivers/STM32H5xx_HAL_Driver/Src/stm32h5xx_hal_rtc_ex.c ****     sTimeStamp->Minutes = (uint8_t)RTC_Bcd2ToByte(sTimeStamp->Minutes);
 451:Drivers/STM32H5xx_HAL_Driver/Src/stm32h5xx_hal_rtc_ex.c ****     sTimeStamp->Seconds = (uint8_t)RTC_Bcd2ToByte(sTimeStamp->Seconds);
 452:Drivers/STM32H5xx_HAL_Driver/Src/stm32h5xx_hal_rtc_ex.c **** 
 453:Drivers/STM32H5xx_HAL_Driver/Src/stm32h5xx_hal_rtc_ex.c ****     /* Convert the DateTimeStamp structure parameters to Binary format */
 454:Drivers/STM32H5xx_HAL_Driver/Src/stm32h5xx_hal_rtc_ex.c ****     sTimeStampDate->Month = (uint8_t)RTC_Bcd2ToByte(sTimeStampDate->Month);
 455:Drivers/STM32H5xx_HAL_Driver/Src/stm32h5xx_hal_rtc_ex.c ****     sTimeStampDate->Date = (uint8_t)RTC_Bcd2ToByte(sTimeStampDate->Date);
 456:Drivers/STM32H5xx_HAL_Driver/Src/stm32h5xx_hal_rtc_ex.c ****     sTimeStampDate->WeekDay = (uint8_t)RTC_Bcd2ToByte(sTimeStampDate->WeekDay);
 457:Drivers/STM32H5xx_HAL_Driver/Src/stm32h5xx_hal_rtc_ex.c ****   }
 458:Drivers/STM32H5xx_HAL_Driver/Src/stm32h5xx_hal_rtc_ex.c **** 
 459:Drivers/STM32H5xx_HAL_Driver/Src/stm32h5xx_hal_rtc_ex.c ****   /* Clear the TIMESTAMP Flags */
 460:Drivers/STM32H5xx_HAL_Driver/Src/stm32h5xx_hal_rtc_ex.c ****   WRITE_REG(RTC->SCR, (RTC_SCR_CITSF | RTC_SCR_CTSF));
 447              		.loc 1 460 3 is_stmt 1 view .LVU143
 448 0046 0F4B     		ldr	r3, .L30
 449 0048 2822     		movs	r2, #40
 450 004a DA65     		str	r2, [r3, #92]
 461:Drivers/STM32H5xx_HAL_Driver/Src/stm32h5xx_hal_rtc_ex.c **** 
 462:Drivers/STM32H5xx_HAL_Driver/Src/stm32h5xx_hal_rtc_ex.c ****   return HAL_OK;
 451              		.loc 1 462 3 view .LVU144
 463:Drivers/STM32H5xx_HAL_Driver/Src/stm32h5xx_hal_rtc_ex.c **** }
 452              		.loc 1 463 1 is_stmt 0 view .LVU145
 453 004c 0020     		movs	r0, #0
 454 004e 38BD     		pop	{r3, r4, r5, pc}
 455              	.LVL31:
ARM GAS  C:\Users\DELL\AppData\Local\Temp\ccMtHSyM.s 			page 17


 456              	.L29:
 449:Drivers/STM32H5xx_HAL_Driver/Src/stm32h5xx_hal_rtc_ex.c ****     sTimeStamp->Minutes = (uint8_t)RTC_Bcd2ToByte(sTimeStamp->Minutes);
 457              		.loc 1 449 5 is_stmt 1 view .LVU146
 449:Drivers/STM32H5xx_HAL_Driver/Src/stm32h5xx_hal_rtc_ex.c ****     sTimeStamp->Minutes = (uint8_t)RTC_Bcd2ToByte(sTimeStamp->Minutes);
 458              		.loc 1 449 34 is_stmt 0 view .LVU147
 459 0050 2078     		ldrb	r0, [r4]	@ zero_extendqisi2
 460 0052 FFF7FEFF 		bl	RTC_Bcd2ToByte
 461              	.LVL32:
 449:Drivers/STM32H5xx_HAL_Driver/Src/stm32h5xx_hal_rtc_ex.c ****     sTimeStamp->Minutes = (uint8_t)RTC_Bcd2ToByte(sTimeStamp->Minutes);
 462              		.loc 1 449 23 discriminator 1 view .LVU148
 463 0056 2070     		strb	r0, [r4]
 450:Drivers/STM32H5xx_HAL_Driver/Src/stm32h5xx_hal_rtc_ex.c ****     sTimeStamp->Seconds = (uint8_t)RTC_Bcd2ToByte(sTimeStamp->Seconds);
 464              		.loc 1 450 5 is_stmt 1 view .LVU149
 450:Drivers/STM32H5xx_HAL_Driver/Src/stm32h5xx_hal_rtc_ex.c ****     sTimeStamp->Seconds = (uint8_t)RTC_Bcd2ToByte(sTimeStamp->Seconds);
 465              		.loc 1 450 36 is_stmt 0 view .LVU150
 466 0058 6078     		ldrb	r0, [r4, #1]	@ zero_extendqisi2
 467 005a FFF7FEFF 		bl	RTC_Bcd2ToByte
 468              	.LVL33:
 450:Drivers/STM32H5xx_HAL_Driver/Src/stm32h5xx_hal_rtc_ex.c ****     sTimeStamp->Seconds = (uint8_t)RTC_Bcd2ToByte(sTimeStamp->Seconds);
 469              		.loc 1 450 25 discriminator 1 view .LVU151
 470 005e 6070     		strb	r0, [r4, #1]
 451:Drivers/STM32H5xx_HAL_Driver/Src/stm32h5xx_hal_rtc_ex.c **** 
 471              		.loc 1 451 5 is_stmt 1 view .LVU152
 451:Drivers/STM32H5xx_HAL_Driver/Src/stm32h5xx_hal_rtc_ex.c **** 
 472              		.loc 1 451 36 is_stmt 0 view .LVU153
 473 0060 A078     		ldrb	r0, [r4, #2]	@ zero_extendqisi2
 474 0062 FFF7FEFF 		bl	RTC_Bcd2ToByte
 475              	.LVL34:
 451:Drivers/STM32H5xx_HAL_Driver/Src/stm32h5xx_hal_rtc_ex.c **** 
 476              		.loc 1 451 25 discriminator 1 view .LVU154
 477 0066 A070     		strb	r0, [r4, #2]
 454:Drivers/STM32H5xx_HAL_Driver/Src/stm32h5xx_hal_rtc_ex.c ****     sTimeStampDate->Date = (uint8_t)RTC_Bcd2ToByte(sTimeStampDate->Date);
 478              		.loc 1 454 5 is_stmt 1 view .LVU155
 454:Drivers/STM32H5xx_HAL_Driver/Src/stm32h5xx_hal_rtc_ex.c ****     sTimeStampDate->Date = (uint8_t)RTC_Bcd2ToByte(sTimeStampDate->Date);
 479              		.loc 1 454 38 is_stmt 0 view .LVU156
 480 0068 6878     		ldrb	r0, [r5, #1]	@ zero_extendqisi2
 481 006a FFF7FEFF 		bl	RTC_Bcd2ToByte
 482              	.LVL35:
 454:Drivers/STM32H5xx_HAL_Driver/Src/stm32h5xx_hal_rtc_ex.c ****     sTimeStampDate->Date = (uint8_t)RTC_Bcd2ToByte(sTimeStampDate->Date);
 483              		.loc 1 454 27 discriminator 1 view .LVU157
 484 006e 6870     		strb	r0, [r5, #1]
 455:Drivers/STM32H5xx_HAL_Driver/Src/stm32h5xx_hal_rtc_ex.c ****     sTimeStampDate->WeekDay = (uint8_t)RTC_Bcd2ToByte(sTimeStampDate->WeekDay);
 485              		.loc 1 455 5 is_stmt 1 view .LVU158
 455:Drivers/STM32H5xx_HAL_Driver/Src/stm32h5xx_hal_rtc_ex.c ****     sTimeStampDate->WeekDay = (uint8_t)RTC_Bcd2ToByte(sTimeStampDate->WeekDay);
 486              		.loc 1 455 37 is_stmt 0 view .LVU159
 487 0070 A878     		ldrb	r0, [r5, #2]	@ zero_extendqisi2
 488 0072 FFF7FEFF 		bl	RTC_Bcd2ToByte
 489              	.LVL36:
 455:Drivers/STM32H5xx_HAL_Driver/Src/stm32h5xx_hal_rtc_ex.c ****     sTimeStampDate->WeekDay = (uint8_t)RTC_Bcd2ToByte(sTimeStampDate->WeekDay);
 490              		.loc 1 455 26 discriminator 1 view .LVU160
 491 0076 A870     		strb	r0, [r5, #2]
 456:Drivers/STM32H5xx_HAL_Driver/Src/stm32h5xx_hal_rtc_ex.c ****   }
 492              		.loc 1 456 5 is_stmt 1 view .LVU161
 456:Drivers/STM32H5xx_HAL_Driver/Src/stm32h5xx_hal_rtc_ex.c ****   }
 493              		.loc 1 456 40 is_stmt 0 view .LVU162
 494 0078 2878     		ldrb	r0, [r5]	@ zero_extendqisi2
 495 007a FFF7FEFF 		bl	RTC_Bcd2ToByte
ARM GAS  C:\Users\DELL\AppData\Local\Temp\ccMtHSyM.s 			page 18


 496              	.LVL37:
 456:Drivers/STM32H5xx_HAL_Driver/Src/stm32h5xx_hal_rtc_ex.c ****   }
 497              		.loc 1 456 29 discriminator 1 view .LVU163
 498 007e 2870     		strb	r0, [r5]
 499 0080 E1E7     		b	.L27
 500              	.L31:
 501 0082 00BF     		.align	2
 502              	.L30:
 503 0084 00780044 		.word	1140881408
 504              		.cfi_endproc
 505              	.LFE302:
 507              		.section	.text.HAL_RTCEx_TimeStampEventCallback,"ax",%progbits
 508              		.align	1
 509              		.weak	HAL_RTCEx_TimeStampEventCallback
 510              		.syntax unified
 511              		.thumb
 512              		.thumb_func
 514              	HAL_RTCEx_TimeStampEventCallback:
 515              	.LVL38:
 516              	.LFB304:
 464:Drivers/STM32H5xx_HAL_Driver/Src/stm32h5xx_hal_rtc_ex.c **** 
 465:Drivers/STM32H5xx_HAL_Driver/Src/stm32h5xx_hal_rtc_ex.c **** /**
 466:Drivers/STM32H5xx_HAL_Driver/Src/stm32h5xx_hal_rtc_ex.c ****   * @brief  Handle TimeStamp interrupt request.
 467:Drivers/STM32H5xx_HAL_Driver/Src/stm32h5xx_hal_rtc_ex.c ****   * @param  hrtc RTC handle
 468:Drivers/STM32H5xx_HAL_Driver/Src/stm32h5xx_hal_rtc_ex.c ****   * @retval None
 469:Drivers/STM32H5xx_HAL_Driver/Src/stm32h5xx_hal_rtc_ex.c ****   */
 470:Drivers/STM32H5xx_HAL_Driver/Src/stm32h5xx_hal_rtc_ex.c **** void HAL_RTCEx_TimeStampIRQHandler(RTC_HandleTypeDef *hrtc)
 471:Drivers/STM32H5xx_HAL_Driver/Src/stm32h5xx_hal_rtc_ex.c **** {
 472:Drivers/STM32H5xx_HAL_Driver/Src/stm32h5xx_hal_rtc_ex.c ****   /* Get the pending status of the TimeStamp Interrupt */
 473:Drivers/STM32H5xx_HAL_Driver/Src/stm32h5xx_hal_rtc_ex.c **** #if defined (__ARM_FEATURE_CMSE) && (__ARM_FEATURE_CMSE == 3U)
 474:Drivers/STM32H5xx_HAL_Driver/Src/stm32h5xx_hal_rtc_ex.c ****   if (READ_BIT(RTC->SMISR, RTC_SMISR_TSMF) != 0U)
 475:Drivers/STM32H5xx_HAL_Driver/Src/stm32h5xx_hal_rtc_ex.c **** #else
 476:Drivers/STM32H5xx_HAL_Driver/Src/stm32h5xx_hal_rtc_ex.c ****   if (READ_BIT(RTC->MISR, RTC_MISR_TSMF) != 0U)
 477:Drivers/STM32H5xx_HAL_Driver/Src/stm32h5xx_hal_rtc_ex.c **** #endif /* #if defined (__ARM_FEATURE_CMSE) && (__ARM_FEATURE_CMSE == 3U) */
 478:Drivers/STM32H5xx_HAL_Driver/Src/stm32h5xx_hal_rtc_ex.c ****   {
 479:Drivers/STM32H5xx_HAL_Driver/Src/stm32h5xx_hal_rtc_ex.c **** #if (USE_HAL_RTC_REGISTER_CALLBACKS == 1)
 480:Drivers/STM32H5xx_HAL_Driver/Src/stm32h5xx_hal_rtc_ex.c ****     /* Call TimeStampEvent registered Callback */
 481:Drivers/STM32H5xx_HAL_Driver/Src/stm32h5xx_hal_rtc_ex.c ****     hrtc->TimeStampEventCallback(hrtc);
 482:Drivers/STM32H5xx_HAL_Driver/Src/stm32h5xx_hal_rtc_ex.c **** #else
 483:Drivers/STM32H5xx_HAL_Driver/Src/stm32h5xx_hal_rtc_ex.c ****     HAL_RTCEx_TimeStampEventCallback(hrtc);
 484:Drivers/STM32H5xx_HAL_Driver/Src/stm32h5xx_hal_rtc_ex.c **** #endif /* USE_HAL_RTC_REGISTER_CALLBACKS */
 485:Drivers/STM32H5xx_HAL_Driver/Src/stm32h5xx_hal_rtc_ex.c **** 
 486:Drivers/STM32H5xx_HAL_Driver/Src/stm32h5xx_hal_rtc_ex.c ****     /* Clearing flags after the Callback because the content of RTC_TSTR and RTC_TSDR are cleared w
 487:Drivers/STM32H5xx_HAL_Driver/Src/stm32h5xx_hal_rtc_ex.c ****        TSF bit is reset.*/
 488:Drivers/STM32H5xx_HAL_Driver/Src/stm32h5xx_hal_rtc_ex.c ****     WRITE_REG(RTC->SCR, RTC_SCR_CITSF | RTC_SCR_CTSF);
 489:Drivers/STM32H5xx_HAL_Driver/Src/stm32h5xx_hal_rtc_ex.c ****   }
 490:Drivers/STM32H5xx_HAL_Driver/Src/stm32h5xx_hal_rtc_ex.c **** 
 491:Drivers/STM32H5xx_HAL_Driver/Src/stm32h5xx_hal_rtc_ex.c ****   /* Change RTC state */
 492:Drivers/STM32H5xx_HAL_Driver/Src/stm32h5xx_hal_rtc_ex.c ****   hrtc->State = HAL_RTC_STATE_READY;
 493:Drivers/STM32H5xx_HAL_Driver/Src/stm32h5xx_hal_rtc_ex.c **** }
 494:Drivers/STM32H5xx_HAL_Driver/Src/stm32h5xx_hal_rtc_ex.c **** 
 495:Drivers/STM32H5xx_HAL_Driver/Src/stm32h5xx_hal_rtc_ex.c **** /**
 496:Drivers/STM32H5xx_HAL_Driver/Src/stm32h5xx_hal_rtc_ex.c ****   * @brief  TimeStamp callback.
 497:Drivers/STM32H5xx_HAL_Driver/Src/stm32h5xx_hal_rtc_ex.c ****   * @param  hrtc RTC handle
 498:Drivers/STM32H5xx_HAL_Driver/Src/stm32h5xx_hal_rtc_ex.c ****   * @retval None
 499:Drivers/STM32H5xx_HAL_Driver/Src/stm32h5xx_hal_rtc_ex.c ****   */
 500:Drivers/STM32H5xx_HAL_Driver/Src/stm32h5xx_hal_rtc_ex.c **** __weak void HAL_RTCEx_TimeStampEventCallback(RTC_HandleTypeDef *hrtc)
ARM GAS  C:\Users\DELL\AppData\Local\Temp\ccMtHSyM.s 			page 19


 501:Drivers/STM32H5xx_HAL_Driver/Src/stm32h5xx_hal_rtc_ex.c **** {
 517              		.loc 1 501 1 is_stmt 1 view -0
 518              		.cfi_startproc
 519              		@ args = 0, pretend = 0, frame = 0
 520              		@ frame_needed = 0, uses_anonymous_args = 0
 521              		@ link register save eliminated.
 502:Drivers/STM32H5xx_HAL_Driver/Src/stm32h5xx_hal_rtc_ex.c ****   /* Prevent unused argument(s) compilation warning */
 503:Drivers/STM32H5xx_HAL_Driver/Src/stm32h5xx_hal_rtc_ex.c ****   UNUSED(hrtc);
 522              		.loc 1 503 3 view .LVU165
 504:Drivers/STM32H5xx_HAL_Driver/Src/stm32h5xx_hal_rtc_ex.c **** 
 505:Drivers/STM32H5xx_HAL_Driver/Src/stm32h5xx_hal_rtc_ex.c ****   /* NOTE : This function should not be modified, when the callback is needed,
 506:Drivers/STM32H5xx_HAL_Driver/Src/stm32h5xx_hal_rtc_ex.c ****             the HAL_RTCEx_TimeStampEventCallback could be implemented in the user file
 507:Drivers/STM32H5xx_HAL_Driver/Src/stm32h5xx_hal_rtc_ex.c ****   */
 508:Drivers/STM32H5xx_HAL_Driver/Src/stm32h5xx_hal_rtc_ex.c **** }
 523              		.loc 1 508 1 is_stmt 0 view .LVU166
 524 0000 7047     		bx	lr
 525              		.cfi_endproc
 526              	.LFE304:
 528              		.section	.text.HAL_RTCEx_TimeStampIRQHandler,"ax",%progbits
 529              		.align	1
 530              		.global	HAL_RTCEx_TimeStampIRQHandler
 531              		.syntax unified
 532              		.thumb
 533              		.thumb_func
 535              	HAL_RTCEx_TimeStampIRQHandler:
 536              	.LVL39:
 537              	.LFB303:
 471:Drivers/STM32H5xx_HAL_Driver/Src/stm32h5xx_hal_rtc_ex.c ****   /* Get the pending status of the TimeStamp Interrupt */
 538              		.loc 1 471 1 is_stmt 1 view -0
 539              		.cfi_startproc
 540              		@ args = 0, pretend = 0, frame = 0
 541              		@ frame_needed = 0, uses_anonymous_args = 0
 471:Drivers/STM32H5xx_HAL_Driver/Src/stm32h5xx_hal_rtc_ex.c ****   /* Get the pending status of the TimeStamp Interrupt */
 542              		.loc 1 471 1 is_stmt 0 view .LVU168
 543 0000 10B5     		push	{r4, lr}
 544              	.LCFI1:
 545              		.cfi_def_cfa_offset 8
 546              		.cfi_offset 4, -8
 547              		.cfi_offset 14, -4
 548 0002 0446     		mov	r4, r0
 476:Drivers/STM32H5xx_HAL_Driver/Src/stm32h5xx_hal_rtc_ex.c **** #endif /* #if defined (__ARM_FEATURE_CMSE) && (__ARM_FEATURE_CMSE == 3U) */
 549              		.loc 1 476 3 is_stmt 1 view .LVU169
 476:Drivers/STM32H5xx_HAL_Driver/Src/stm32h5xx_hal_rtc_ex.c **** #endif /* #if defined (__ARM_FEATURE_CMSE) && (__ARM_FEATURE_CMSE == 3U) */
 550              		.loc 1 476 7 is_stmt 0 view .LVU170
 551 0004 074B     		ldr	r3, .L37
 552 0006 5B6D     		ldr	r3, [r3, #84]
 476:Drivers/STM32H5xx_HAL_Driver/Src/stm32h5xx_hal_rtc_ex.c **** #endif /* #if defined (__ARM_FEATURE_CMSE) && (__ARM_FEATURE_CMSE == 3U) */
 553              		.loc 1 476 6 view .LVU171
 554 0008 13F0080F 		tst	r3, #8
 555 000c 03D1     		bne	.L36
 556              	.LVL40:
 557              	.L34:
 492:Drivers/STM32H5xx_HAL_Driver/Src/stm32h5xx_hal_rtc_ex.c **** }
 558              		.loc 1 492 3 is_stmt 1 view .LVU172
 492:Drivers/STM32H5xx_HAL_Driver/Src/stm32h5xx_hal_rtc_ex.c **** }
 559              		.loc 1 492 15 is_stmt 0 view .LVU173
 560 000e 0123     		movs	r3, #1
ARM GAS  C:\Users\DELL\AppData\Local\Temp\ccMtHSyM.s 			page 20


 561 0010 84F82D30 		strb	r3, [r4, #45]
 493:Drivers/STM32H5xx_HAL_Driver/Src/stm32h5xx_hal_rtc_ex.c **** 
 562              		.loc 1 493 1 view .LVU174
 563 0014 10BD     		pop	{r4, pc}
 564              	.LVL41:
 565              	.L36:
 483:Drivers/STM32H5xx_HAL_Driver/Src/stm32h5xx_hal_rtc_ex.c **** #endif /* USE_HAL_RTC_REGISTER_CALLBACKS */
 566              		.loc 1 483 5 is_stmt 1 view .LVU175
 567 0016 FFF7FEFF 		bl	HAL_RTCEx_TimeStampEventCallback
 568              	.LVL42:
 488:Drivers/STM32H5xx_HAL_Driver/Src/stm32h5xx_hal_rtc_ex.c ****   }
 569              		.loc 1 488 5 view .LVU176
 570 001a 024B     		ldr	r3, .L37
 571 001c 2822     		movs	r2, #40
 572 001e DA65     		str	r2, [r3, #92]
 573 0020 F5E7     		b	.L34
 574              	.L38:
 575 0022 00BF     		.align	2
 576              	.L37:
 577 0024 00780044 		.word	1140881408
 578              		.cfi_endproc
 579              	.LFE303:
 581              		.section	.text.HAL_RTCEx_PollForTimeStampEvent,"ax",%progbits
 582              		.align	1
 583              		.global	HAL_RTCEx_PollForTimeStampEvent
 584              		.syntax unified
 585              		.thumb
 586              		.thumb_func
 588              	HAL_RTCEx_PollForTimeStampEvent:
 589              	.LVL43:
 590              	.LFB305:
 509:Drivers/STM32H5xx_HAL_Driver/Src/stm32h5xx_hal_rtc_ex.c **** 
 510:Drivers/STM32H5xx_HAL_Driver/Src/stm32h5xx_hal_rtc_ex.c **** /**
 511:Drivers/STM32H5xx_HAL_Driver/Src/stm32h5xx_hal_rtc_ex.c ****   * @brief  Handle TimeStamp polling request.
 512:Drivers/STM32H5xx_HAL_Driver/Src/stm32h5xx_hal_rtc_ex.c ****   * @param  hrtc RTC handle
 513:Drivers/STM32H5xx_HAL_Driver/Src/stm32h5xx_hal_rtc_ex.c ****   * @param  Timeout Timeout duration
 514:Drivers/STM32H5xx_HAL_Driver/Src/stm32h5xx_hal_rtc_ex.c ****   * @retval HAL status
 515:Drivers/STM32H5xx_HAL_Driver/Src/stm32h5xx_hal_rtc_ex.c ****   */
 516:Drivers/STM32H5xx_HAL_Driver/Src/stm32h5xx_hal_rtc_ex.c **** HAL_StatusTypeDef HAL_RTCEx_PollForTimeStampEvent(const RTC_HandleTypeDef *hrtc, uint32_t Timeout)
 517:Drivers/STM32H5xx_HAL_Driver/Src/stm32h5xx_hal_rtc_ex.c **** {
 591              		.loc 1 517 1 view -0
 592              		.cfi_startproc
 593              		@ args = 0, pretend = 0, frame = 0
 594              		@ frame_needed = 0, uses_anonymous_args = 0
 595              		.loc 1 517 1 is_stmt 0 view .LVU178
 596 0000 38B5     		push	{r3, r4, r5, lr}
 597              	.LCFI2:
 598              		.cfi_def_cfa_offset 16
 599              		.cfi_offset 3, -16
 600              		.cfi_offset 4, -12
 601              		.cfi_offset 5, -8
 602              		.cfi_offset 14, -4
 603 0002 0C46     		mov	r4, r1
 518:Drivers/STM32H5xx_HAL_Driver/Src/stm32h5xx_hal_rtc_ex.c ****   /* Prevent unused argument(s) compilation warning */
 519:Drivers/STM32H5xx_HAL_Driver/Src/stm32h5xx_hal_rtc_ex.c ****   UNUSED(hrtc);
 604              		.loc 1 519 3 is_stmt 1 view .LVU179
 520:Drivers/STM32H5xx_HAL_Driver/Src/stm32h5xx_hal_rtc_ex.c **** 
ARM GAS  C:\Users\DELL\AppData\Local\Temp\ccMtHSyM.s 			page 21


 521:Drivers/STM32H5xx_HAL_Driver/Src/stm32h5xx_hal_rtc_ex.c ****   uint32_t tickstart = HAL_GetTick();
 605              		.loc 1 521 3 view .LVU180
 606              		.loc 1 521 24 is_stmt 0 view .LVU181
 607 0004 FFF7FEFF 		bl	HAL_GetTick
 608              	.LVL44:
 609              		.loc 1 521 24 view .LVU182
 610 0008 0546     		mov	r5, r0
 611              	.LVL45:
 522:Drivers/STM32H5xx_HAL_Driver/Src/stm32h5xx_hal_rtc_ex.c **** 
 523:Drivers/STM32H5xx_HAL_Driver/Src/stm32h5xx_hal_rtc_ex.c ****   while (READ_BIT(RTC->SR, RTC_SR_TSF) == 0U)
 612              		.loc 1 523 3 is_stmt 1 view .LVU183
 613              	.L43:
 614              		.loc 1 523 40 view .LVU184
 615              		.loc 1 523 10 is_stmt 0 view .LVU185
 616 000a 124B     		ldr	r3, .L50
 617 000c 1B6D     		ldr	r3, [r3, #80]
 618              		.loc 1 523 40 view .LVU186
 619 000e 13F0080F 		tst	r3, #8
 620 0012 1AD1     		bne	.L48
 524:Drivers/STM32H5xx_HAL_Driver/Src/stm32h5xx_hal_rtc_ex.c ****   {
 525:Drivers/STM32H5xx_HAL_Driver/Src/stm32h5xx_hal_rtc_ex.c ****     if (READ_BIT(RTC->SR, RTC_SR_TSOVF) != 0U)
 621              		.loc 1 525 5 is_stmt 1 view .LVU187
 622              		.loc 1 525 9 is_stmt 0 view .LVU188
 623 0014 0F4B     		ldr	r3, .L50
 624 0016 1B6D     		ldr	r3, [r3, #80]
 625              		.loc 1 525 8 view .LVU189
 626 0018 13F0100F 		tst	r3, #16
 627 001c 10D1     		bne	.L49
 526:Drivers/STM32H5xx_HAL_Driver/Src/stm32h5xx_hal_rtc_ex.c ****     {
 527:Drivers/STM32H5xx_HAL_Driver/Src/stm32h5xx_hal_rtc_ex.c ****       /* Clear the TIMESTAMP OverRun Flag */
 528:Drivers/STM32H5xx_HAL_Driver/Src/stm32h5xx_hal_rtc_ex.c ****       WRITE_REG(RTC->SCR, RTC_SCR_CTSOVF);
 529:Drivers/STM32H5xx_HAL_Driver/Src/stm32h5xx_hal_rtc_ex.c **** 
 530:Drivers/STM32H5xx_HAL_Driver/Src/stm32h5xx_hal_rtc_ex.c ****       return HAL_ERROR;
 531:Drivers/STM32H5xx_HAL_Driver/Src/stm32h5xx_hal_rtc_ex.c ****     }
 532:Drivers/STM32H5xx_HAL_Driver/Src/stm32h5xx_hal_rtc_ex.c **** 
 533:Drivers/STM32H5xx_HAL_Driver/Src/stm32h5xx_hal_rtc_ex.c ****     if (Timeout != HAL_MAX_DELAY)
 628              		.loc 1 533 5 is_stmt 1 view .LVU190
 629              		.loc 1 533 8 is_stmt 0 view .LVU191
 630 001e B4F1FF3F 		cmp	r4, #-1
 631 0022 F2D0     		beq	.L43
 534:Drivers/STM32H5xx_HAL_Driver/Src/stm32h5xx_hal_rtc_ex.c ****     {
 535:Drivers/STM32H5xx_HAL_Driver/Src/stm32h5xx_hal_rtc_ex.c ****       if (((HAL_GetTick() - tickstart) > Timeout) || (Timeout == 0U))
 632              		.loc 1 535 7 is_stmt 1 view .LVU192
 633              		.loc 1 535 13 is_stmt 0 view .LVU193
 634 0024 FFF7FEFF 		bl	HAL_GetTick
 635              	.LVL46:
 636              		.loc 1 535 27 discriminator 1 view .LVU194
 637 0028 401B     		subs	r0, r0, r5
 638              		.loc 1 535 10 discriminator 1 view .LVU195
 639 002a A042     		cmp	r0, r4
 640 002c 01D8     		bhi	.L44
 641              		.loc 1 535 51 discriminator 1 view .LVU196
 642 002e 002C     		cmp	r4, #0
 643 0030 EBD1     		bne	.L43
 644              	.L44:
 536:Drivers/STM32H5xx_HAL_Driver/Src/stm32h5xx_hal_rtc_ex.c ****       {
 537:Drivers/STM32H5xx_HAL_Driver/Src/stm32h5xx_hal_rtc_ex.c ****         /* New check to avoid false timeout detection in case of preemption */
ARM GAS  C:\Users\DELL\AppData\Local\Temp\ccMtHSyM.s 			page 22


 538:Drivers/STM32H5xx_HAL_Driver/Src/stm32h5xx_hal_rtc_ex.c ****         if (READ_BIT(RTC->SR, RTC_SR_TSF) == 0U)
 645              		.loc 1 538 9 is_stmt 1 view .LVU197
 646              		.loc 1 538 13 is_stmt 0 view .LVU198
 647 0032 084B     		ldr	r3, .L50
 648 0034 1B6D     		ldr	r3, [r3, #80]
 649              		.loc 1 538 12 view .LVU199
 650 0036 13F0080F 		tst	r3, #8
 651 003a 08D0     		beq	.L46
 539:Drivers/STM32H5xx_HAL_Driver/Src/stm32h5xx_hal_rtc_ex.c ****         {
 540:Drivers/STM32H5xx_HAL_Driver/Src/stm32h5xx_hal_rtc_ex.c ****           return HAL_TIMEOUT;
 541:Drivers/STM32H5xx_HAL_Driver/Src/stm32h5xx_hal_rtc_ex.c ****         }
 542:Drivers/STM32H5xx_HAL_Driver/Src/stm32h5xx_hal_rtc_ex.c ****         else
 543:Drivers/STM32H5xx_HAL_Driver/Src/stm32h5xx_hal_rtc_ex.c ****         {
 544:Drivers/STM32H5xx_HAL_Driver/Src/stm32h5xx_hal_rtc_ex.c ****           break;
 545:Drivers/STM32H5xx_HAL_Driver/Src/stm32h5xx_hal_rtc_ex.c ****         }
 546:Drivers/STM32H5xx_HAL_Driver/Src/stm32h5xx_hal_rtc_ex.c ****       }
 547:Drivers/STM32H5xx_HAL_Driver/Src/stm32h5xx_hal_rtc_ex.c ****     }
 548:Drivers/STM32H5xx_HAL_Driver/Src/stm32h5xx_hal_rtc_ex.c ****   }
 549:Drivers/STM32H5xx_HAL_Driver/Src/stm32h5xx_hal_rtc_ex.c **** 
 550:Drivers/STM32H5xx_HAL_Driver/Src/stm32h5xx_hal_rtc_ex.c ****   return HAL_OK;
 652              		.loc 1 550 10 view .LVU200
 653 003c 0020     		movs	r0, #0
 654 003e 05E0     		b	.L42
 655              	.L49:
 528:Drivers/STM32H5xx_HAL_Driver/Src/stm32h5xx_hal_rtc_ex.c **** 
 656              		.loc 1 528 7 is_stmt 1 view .LVU201
 657 0040 044B     		ldr	r3, .L50
 658 0042 1022     		movs	r2, #16
 659 0044 DA65     		str	r2, [r3, #92]
 530:Drivers/STM32H5xx_HAL_Driver/Src/stm32h5xx_hal_rtc_ex.c ****     }
 660              		.loc 1 530 7 view .LVU202
 530:Drivers/STM32H5xx_HAL_Driver/Src/stm32h5xx_hal_rtc_ex.c ****     }
 661              		.loc 1 530 14 is_stmt 0 view .LVU203
 662 0046 0120     		movs	r0, #1
 663 0048 00E0     		b	.L42
 664              	.L48:
 665              		.loc 1 550 10 view .LVU204
 666 004a 0020     		movs	r0, #0
 667              	.L42:
 551:Drivers/STM32H5xx_HAL_Driver/Src/stm32h5xx_hal_rtc_ex.c **** }
 668              		.loc 1 551 1 view .LVU205
 669 004c 38BD     		pop	{r3, r4, r5, pc}
 670              	.LVL47:
 671              	.L46:
 540:Drivers/STM32H5xx_HAL_Driver/Src/stm32h5xx_hal_rtc_ex.c ****         }
 672              		.loc 1 540 18 view .LVU206
 673 004e 0320     		movs	r0, #3
 674 0050 FCE7     		b	.L42
 675              	.L51:
 676 0052 00BF     		.align	2
 677              	.L50:
 678 0054 00780044 		.word	1140881408
 679              		.cfi_endproc
 680              	.LFE305:
 682              		.section	.text.HAL_RTCEx_SetWakeUpTimer,"ax",%progbits
 683              		.align	1
 684              		.global	HAL_RTCEx_SetWakeUpTimer
ARM GAS  C:\Users\DELL\AppData\Local\Temp\ccMtHSyM.s 			page 23


 685              		.syntax unified
 686              		.thumb
 687              		.thumb_func
 689              	HAL_RTCEx_SetWakeUpTimer:
 690              	.LVL48:
 691              	.LFB306:
 552:Drivers/STM32H5xx_HAL_Driver/Src/stm32h5xx_hal_rtc_ex.c **** 
 553:Drivers/STM32H5xx_HAL_Driver/Src/stm32h5xx_hal_rtc_ex.c **** /**
 554:Drivers/STM32H5xx_HAL_Driver/Src/stm32h5xx_hal_rtc_ex.c ****   * @}
 555:Drivers/STM32H5xx_HAL_Driver/Src/stm32h5xx_hal_rtc_ex.c ****   */
 556:Drivers/STM32H5xx_HAL_Driver/Src/stm32h5xx_hal_rtc_ex.c **** 
 557:Drivers/STM32H5xx_HAL_Driver/Src/stm32h5xx_hal_rtc_ex.c **** /** @addtogroup RTCEx_Exported_Functions_Group2
 558:Drivers/STM32H5xx_HAL_Driver/Src/stm32h5xx_hal_rtc_ex.c ****   * @brief    RTC Wake-up functions
 559:Drivers/STM32H5xx_HAL_Driver/Src/stm32h5xx_hal_rtc_ex.c ****   *
 560:Drivers/STM32H5xx_HAL_Driver/Src/stm32h5xx_hal_rtc_ex.c **** @verbatim
 561:Drivers/STM32H5xx_HAL_Driver/Src/stm32h5xx_hal_rtc_ex.c ****  ===============================================================================
 562:Drivers/STM32H5xx_HAL_Driver/Src/stm32h5xx_hal_rtc_ex.c ****                         ##### RTC Wake-up functions #####
 563:Drivers/STM32H5xx_HAL_Driver/Src/stm32h5xx_hal_rtc_ex.c ****  ===============================================================================
 564:Drivers/STM32H5xx_HAL_Driver/Src/stm32h5xx_hal_rtc_ex.c **** 
 565:Drivers/STM32H5xx_HAL_Driver/Src/stm32h5xx_hal_rtc_ex.c ****  [..] This section provides functions allowing to configure Wake-up feature
 566:Drivers/STM32H5xx_HAL_Driver/Src/stm32h5xx_hal_rtc_ex.c **** 
 567:Drivers/STM32H5xx_HAL_Driver/Src/stm32h5xx_hal_rtc_ex.c **** @endverbatim
 568:Drivers/STM32H5xx_HAL_Driver/Src/stm32h5xx_hal_rtc_ex.c ****   * @{
 569:Drivers/STM32H5xx_HAL_Driver/Src/stm32h5xx_hal_rtc_ex.c ****   */
 570:Drivers/STM32H5xx_HAL_Driver/Src/stm32h5xx_hal_rtc_ex.c **** 
 571:Drivers/STM32H5xx_HAL_Driver/Src/stm32h5xx_hal_rtc_ex.c **** /**
 572:Drivers/STM32H5xx_HAL_Driver/Src/stm32h5xx_hal_rtc_ex.c ****   * @brief  Set wake up timer.
 573:Drivers/STM32H5xx_HAL_Driver/Src/stm32h5xx_hal_rtc_ex.c ****   * @param  hrtc RTC handle
 574:Drivers/STM32H5xx_HAL_Driver/Src/stm32h5xx_hal_rtc_ex.c ****   * @param  WakeUpCounter Wake up counter
 575:Drivers/STM32H5xx_HAL_Driver/Src/stm32h5xx_hal_rtc_ex.c ****   * @param  WakeUpClock Wake up clock
 576:Drivers/STM32H5xx_HAL_Driver/Src/stm32h5xx_hal_rtc_ex.c ****   * @retval HAL status
 577:Drivers/STM32H5xx_HAL_Driver/Src/stm32h5xx_hal_rtc_ex.c ****   */
 578:Drivers/STM32H5xx_HAL_Driver/Src/stm32h5xx_hal_rtc_ex.c **** HAL_StatusTypeDef HAL_RTCEx_SetWakeUpTimer(RTC_HandleTypeDef *hrtc, uint32_t WakeUpCounter, uint32_
 579:Drivers/STM32H5xx_HAL_Driver/Src/stm32h5xx_hal_rtc_ex.c **** {
 692              		.loc 1 579 1 is_stmt 1 view -0
 693              		.cfi_startproc
 694              		@ args = 0, pretend = 0, frame = 0
 695              		@ frame_needed = 0, uses_anonymous_args = 0
 696              		.loc 1 579 1 is_stmt 0 view .LVU208
 697 0000 F8B5     		push	{r3, r4, r5, r6, r7, lr}
 698              	.LCFI3:
 699              		.cfi_def_cfa_offset 24
 700              		.cfi_offset 3, -24
 701              		.cfi_offset 4, -20
 702              		.cfi_offset 5, -16
 703              		.cfi_offset 6, -12
 704              		.cfi_offset 7, -8
 705              		.cfi_offset 14, -4
 580:Drivers/STM32H5xx_HAL_Driver/Src/stm32h5xx_hal_rtc_ex.c ****   uint32_t tickstart;
 706              		.loc 1 580 3 is_stmt 1 view .LVU209
 581:Drivers/STM32H5xx_HAL_Driver/Src/stm32h5xx_hal_rtc_ex.c **** 
 582:Drivers/STM32H5xx_HAL_Driver/Src/stm32h5xx_hal_rtc_ex.c ****   /* Check the parameters */
 583:Drivers/STM32H5xx_HAL_Driver/Src/stm32h5xx_hal_rtc_ex.c ****   assert_param(IS_RTC_WAKEUP_CLOCK(WakeUpClock));
 707              		.loc 1 583 3 view .LVU210
 584:Drivers/STM32H5xx_HAL_Driver/Src/stm32h5xx_hal_rtc_ex.c ****   assert_param(IS_RTC_WAKEUP_COUNTER(WakeUpCounter));
 708              		.loc 1 584 3 view .LVU211
 585:Drivers/STM32H5xx_HAL_Driver/Src/stm32h5xx_hal_rtc_ex.c **** 
ARM GAS  C:\Users\DELL\AppData\Local\Temp\ccMtHSyM.s 			page 24


 586:Drivers/STM32H5xx_HAL_Driver/Src/stm32h5xx_hal_rtc_ex.c ****   /* Process Locked */
 587:Drivers/STM32H5xx_HAL_Driver/Src/stm32h5xx_hal_rtc_ex.c ****   __HAL_LOCK(hrtc);
 709              		.loc 1 587 3 view .LVU212
 710              		.loc 1 587 3 view .LVU213
 711 0002 90F82C30 		ldrb	r3, [r0, #44]	@ zero_extendqisi2
 712 0006 012B     		cmp	r3, #1
 713 0008 3DD0     		beq	.L57
 714 000a 0446     		mov	r4, r0
 715 000c 0D46     		mov	r5, r1
 716 000e 1646     		mov	r6, r2
 717              		.loc 1 587 3 discriminator 2 view .LVU214
 718 0010 0123     		movs	r3, #1
 719 0012 80F82C30 		strb	r3, [r0, #44]
 720              		.loc 1 587 3 view .LVU215
 588:Drivers/STM32H5xx_HAL_Driver/Src/stm32h5xx_hal_rtc_ex.c **** 
 589:Drivers/STM32H5xx_HAL_Driver/Src/stm32h5xx_hal_rtc_ex.c ****   /* Change RTC state */
 590:Drivers/STM32H5xx_HAL_Driver/Src/stm32h5xx_hal_rtc_ex.c ****   hrtc->State = HAL_RTC_STATE_BUSY;
 721              		.loc 1 590 3 view .LVU216
 722              		.loc 1 590 15 is_stmt 0 view .LVU217
 723 0016 0223     		movs	r3, #2
 724 0018 80F82D30 		strb	r3, [r0, #45]
 591:Drivers/STM32H5xx_HAL_Driver/Src/stm32h5xx_hal_rtc_ex.c **** 
 592:Drivers/STM32H5xx_HAL_Driver/Src/stm32h5xx_hal_rtc_ex.c ****   /* Clear WUTE in RTC_CR to disable the wakeup timer */
 593:Drivers/STM32H5xx_HAL_Driver/Src/stm32h5xx_hal_rtc_ex.c ****   CLEAR_BIT(RTC->CR, RTC_CR_WUTE);
 725              		.loc 1 593 3 is_stmt 1 view .LVU218
 726 001c 1B4B     		ldr	r3, .L60
 727 001e 9A69     		ldr	r2, [r3, #24]
 728              	.LVL49:
 729              		.loc 1 593 3 is_stmt 0 view .LVU219
 730 0020 22F48062 		bic	r2, r2, #1024
 731 0024 9A61     		str	r2, [r3, #24]
 594:Drivers/STM32H5xx_HAL_Driver/Src/stm32h5xx_hal_rtc_ex.c **** 
 595:Drivers/STM32H5xx_HAL_Driver/Src/stm32h5xx_hal_rtc_ex.c ****   /* Poll WUTWF until it is set in RTC_ICSR to make sure the access to wakeup autoreload
 596:Drivers/STM32H5xx_HAL_Driver/Src/stm32h5xx_hal_rtc_ex.c ****      counter and to WUCKSEL[2:0] bits is allowed. This step must be skipped in
 597:Drivers/STM32H5xx_HAL_Driver/Src/stm32h5xx_hal_rtc_ex.c ****      calendar initialization mode. */
 598:Drivers/STM32H5xx_HAL_Driver/Src/stm32h5xx_hal_rtc_ex.c ****   if (READ_BIT(RTC->ICSR, RTC_ICSR_INITF) == 0U)
 732              		.loc 1 598 3 is_stmt 1 view .LVU220
 733              		.loc 1 598 7 is_stmt 0 view .LVU221
 734 0026 DB68     		ldr	r3, [r3, #12]
 735              		.loc 1 598 6 view .LVU222
 736 0028 13F0400F 		tst	r3, #64
 737 002c 11D0     		beq	.L59
 738              	.LVL50:
 739              	.L54:
 599:Drivers/STM32H5xx_HAL_Driver/Src/stm32h5xx_hal_rtc_ex.c ****   {
 600:Drivers/STM32H5xx_HAL_Driver/Src/stm32h5xx_hal_rtc_ex.c ****     tickstart = HAL_GetTick();
 601:Drivers/STM32H5xx_HAL_Driver/Src/stm32h5xx_hal_rtc_ex.c **** 
 602:Drivers/STM32H5xx_HAL_Driver/Src/stm32h5xx_hal_rtc_ex.c ****     while (READ_BIT(RTC->ICSR, RTC_ICSR_WUTWF) == 0U)
 603:Drivers/STM32H5xx_HAL_Driver/Src/stm32h5xx_hal_rtc_ex.c ****     {
 604:Drivers/STM32H5xx_HAL_Driver/Src/stm32h5xx_hal_rtc_ex.c ****       if ((HAL_GetTick() - tickstart) > RTC_TIMEOUT_VALUE)
 605:Drivers/STM32H5xx_HAL_Driver/Src/stm32h5xx_hal_rtc_ex.c ****       {
 606:Drivers/STM32H5xx_HAL_Driver/Src/stm32h5xx_hal_rtc_ex.c ****         /* New check to avoid false timeout detection in case of preemption */
 607:Drivers/STM32H5xx_HAL_Driver/Src/stm32h5xx_hal_rtc_ex.c ****         if (READ_BIT(RTC->ICSR, RTC_ICSR_WUTWF) == 0U)
 608:Drivers/STM32H5xx_HAL_Driver/Src/stm32h5xx_hal_rtc_ex.c ****         {
 609:Drivers/STM32H5xx_HAL_Driver/Src/stm32h5xx_hal_rtc_ex.c ****           /* Change RTC state */
 610:Drivers/STM32H5xx_HAL_Driver/Src/stm32h5xx_hal_rtc_ex.c ****           hrtc->State = HAL_RTC_STATE_TIMEOUT;
 611:Drivers/STM32H5xx_HAL_Driver/Src/stm32h5xx_hal_rtc_ex.c **** 
ARM GAS  C:\Users\DELL\AppData\Local\Temp\ccMtHSyM.s 			page 25


 612:Drivers/STM32H5xx_HAL_Driver/Src/stm32h5xx_hal_rtc_ex.c ****           /* Process Unlocked */
 613:Drivers/STM32H5xx_HAL_Driver/Src/stm32h5xx_hal_rtc_ex.c ****           __HAL_UNLOCK(hrtc);
 614:Drivers/STM32H5xx_HAL_Driver/Src/stm32h5xx_hal_rtc_ex.c **** 
 615:Drivers/STM32H5xx_HAL_Driver/Src/stm32h5xx_hal_rtc_ex.c ****           return HAL_TIMEOUT;
 616:Drivers/STM32H5xx_HAL_Driver/Src/stm32h5xx_hal_rtc_ex.c ****         }
 617:Drivers/STM32H5xx_HAL_Driver/Src/stm32h5xx_hal_rtc_ex.c ****         else
 618:Drivers/STM32H5xx_HAL_Driver/Src/stm32h5xx_hal_rtc_ex.c ****         {
 619:Drivers/STM32H5xx_HAL_Driver/Src/stm32h5xx_hal_rtc_ex.c ****           break;
 620:Drivers/STM32H5xx_HAL_Driver/Src/stm32h5xx_hal_rtc_ex.c ****         }
 621:Drivers/STM32H5xx_HAL_Driver/Src/stm32h5xx_hal_rtc_ex.c ****       }
 622:Drivers/STM32H5xx_HAL_Driver/Src/stm32h5xx_hal_rtc_ex.c ****     }
 623:Drivers/STM32H5xx_HAL_Driver/Src/stm32h5xx_hal_rtc_ex.c ****   }
 624:Drivers/STM32H5xx_HAL_Driver/Src/stm32h5xx_hal_rtc_ex.c **** 
 625:Drivers/STM32H5xx_HAL_Driver/Src/stm32h5xx_hal_rtc_ex.c ****   /* Configure the clock source */
 626:Drivers/STM32H5xx_HAL_Driver/Src/stm32h5xx_hal_rtc_ex.c ****   MODIFY_REG(RTC->CR, RTC_CR_WUCKSEL, (uint32_t)WakeUpClock);
 740              		.loc 1 626 3 is_stmt 1 view .LVU223
 741 002e 174B     		ldr	r3, .L60
 742 0030 9A69     		ldr	r2, [r3, #24]
 743 0032 22F00702 		bic	r2, r2, #7
 744 0036 3243     		orrs	r2, r2, r6
 745 0038 9A61     		str	r2, [r3, #24]
 627:Drivers/STM32H5xx_HAL_Driver/Src/stm32h5xx_hal_rtc_ex.c **** 
 628:Drivers/STM32H5xx_HAL_Driver/Src/stm32h5xx_hal_rtc_ex.c ****   /* Configure the Wakeup Timer counter */
 629:Drivers/STM32H5xx_HAL_Driver/Src/stm32h5xx_hal_rtc_ex.c ****   WRITE_REG(RTC->WUTR, (uint32_t)WakeUpCounter);
 746              		.loc 1 629 3 view .LVU224
 747 003a 5D61     		str	r5, [r3, #20]
 630:Drivers/STM32H5xx_HAL_Driver/Src/stm32h5xx_hal_rtc_ex.c **** 
 631:Drivers/STM32H5xx_HAL_Driver/Src/stm32h5xx_hal_rtc_ex.c ****   /* Enable the Wakeup Timer */
 632:Drivers/STM32H5xx_HAL_Driver/Src/stm32h5xx_hal_rtc_ex.c ****   SET_BIT(RTC->CR, RTC_CR_WUTE);
 748              		.loc 1 632 3 view .LVU225
 749 003c 9A69     		ldr	r2, [r3, #24]
 750 003e 42F48062 		orr	r2, r2, #1024
 751 0042 9A61     		str	r2, [r3, #24]
 633:Drivers/STM32H5xx_HAL_Driver/Src/stm32h5xx_hal_rtc_ex.c **** 
 634:Drivers/STM32H5xx_HAL_Driver/Src/stm32h5xx_hal_rtc_ex.c ****   /* Change RTC state */
 635:Drivers/STM32H5xx_HAL_Driver/Src/stm32h5xx_hal_rtc_ex.c ****   hrtc->State = HAL_RTC_STATE_READY;
 752              		.loc 1 635 3 view .LVU226
 753              		.loc 1 635 15 is_stmt 0 view .LVU227
 754 0044 0123     		movs	r3, #1
 755 0046 84F82D30 		strb	r3, [r4, #45]
 636:Drivers/STM32H5xx_HAL_Driver/Src/stm32h5xx_hal_rtc_ex.c **** 
 637:Drivers/STM32H5xx_HAL_Driver/Src/stm32h5xx_hal_rtc_ex.c ****   /* Process Unlocked */
 638:Drivers/STM32H5xx_HAL_Driver/Src/stm32h5xx_hal_rtc_ex.c ****   __HAL_UNLOCK(hrtc);
 756              		.loc 1 638 3 is_stmt 1 view .LVU228
 757              		.loc 1 638 3 view .LVU229
 758 004a 0020     		movs	r0, #0
 759 004c 84F82C00 		strb	r0, [r4, #44]
 760              		.loc 1 638 3 view .LVU230
 639:Drivers/STM32H5xx_HAL_Driver/Src/stm32h5xx_hal_rtc_ex.c **** 
 640:Drivers/STM32H5xx_HAL_Driver/Src/stm32h5xx_hal_rtc_ex.c ****   return HAL_OK;
 761              		.loc 1 640 3 view .LVU231
 762              	.LVL51:
 763              	.L53:
 641:Drivers/STM32H5xx_HAL_Driver/Src/stm32h5xx_hal_rtc_ex.c **** }
 764              		.loc 1 641 1 is_stmt 0 view .LVU232
 765 0050 F8BD     		pop	{r3, r4, r5, r6, r7, pc}
 766              	.LVL52:
ARM GAS  C:\Users\DELL\AppData\Local\Temp\ccMtHSyM.s 			page 26


 767              	.L59:
 600:Drivers/STM32H5xx_HAL_Driver/Src/stm32h5xx_hal_rtc_ex.c **** 
 768              		.loc 1 600 5 is_stmt 1 view .LVU233
 600:Drivers/STM32H5xx_HAL_Driver/Src/stm32h5xx_hal_rtc_ex.c **** 
 769              		.loc 1 600 17 is_stmt 0 view .LVU234
 770 0052 FFF7FEFF 		bl	HAL_GetTick
 771              	.LVL53:
 600:Drivers/STM32H5xx_HAL_Driver/Src/stm32h5xx_hal_rtc_ex.c **** 
 772              		.loc 1 600 17 view .LVU235
 773 0056 0746     		mov	r7, r0
 774              	.LVL54:
 602:Drivers/STM32H5xx_HAL_Driver/Src/stm32h5xx_hal_rtc_ex.c ****     {
 775              		.loc 1 602 5 is_stmt 1 view .LVU236
 776              	.L55:
 602:Drivers/STM32H5xx_HAL_Driver/Src/stm32h5xx_hal_rtc_ex.c ****     {
 777              		.loc 1 602 48 view .LVU237
 602:Drivers/STM32H5xx_HAL_Driver/Src/stm32h5xx_hal_rtc_ex.c ****     {
 778              		.loc 1 602 12 is_stmt 0 view .LVU238
 779 0058 0C4B     		ldr	r3, .L60
 780 005a DB68     		ldr	r3, [r3, #12]
 602:Drivers/STM32H5xx_HAL_Driver/Src/stm32h5xx_hal_rtc_ex.c ****     {
 781              		.loc 1 602 48 view .LVU239
 782 005c 13F0040F 		tst	r3, #4
 783 0060 E5D1     		bne	.L54
 604:Drivers/STM32H5xx_HAL_Driver/Src/stm32h5xx_hal_rtc_ex.c ****       {
 784              		.loc 1 604 7 is_stmt 1 view .LVU240
 604:Drivers/STM32H5xx_HAL_Driver/Src/stm32h5xx_hal_rtc_ex.c ****       {
 785              		.loc 1 604 12 is_stmt 0 view .LVU241
 786 0062 FFF7FEFF 		bl	HAL_GetTick
 787              	.LVL55:
 604:Drivers/STM32H5xx_HAL_Driver/Src/stm32h5xx_hal_rtc_ex.c ****       {
 788              		.loc 1 604 26 discriminator 1 view .LVU242
 789 0066 C31B     		subs	r3, r0, r7
 604:Drivers/STM32H5xx_HAL_Driver/Src/stm32h5xx_hal_rtc_ex.c ****       {
 790              		.loc 1 604 10 discriminator 1 view .LVU243
 791 0068 B3F57A7F 		cmp	r3, #1000
 792 006c F4D9     		bls	.L55
 607:Drivers/STM32H5xx_HAL_Driver/Src/stm32h5xx_hal_rtc_ex.c ****         {
 793              		.loc 1 607 9 is_stmt 1 view .LVU244
 607:Drivers/STM32H5xx_HAL_Driver/Src/stm32h5xx_hal_rtc_ex.c ****         {
 794              		.loc 1 607 13 is_stmt 0 view .LVU245
 795 006e 074B     		ldr	r3, .L60
 796 0070 DB68     		ldr	r3, [r3, #12]
 607:Drivers/STM32H5xx_HAL_Driver/Src/stm32h5xx_hal_rtc_ex.c ****         {
 797              		.loc 1 607 12 view .LVU246
 798 0072 13F0040F 		tst	r3, #4
 799 0076 DAD1     		bne	.L54
 610:Drivers/STM32H5xx_HAL_Driver/Src/stm32h5xx_hal_rtc_ex.c **** 
 800              		.loc 1 610 11 is_stmt 1 view .LVU247
 610:Drivers/STM32H5xx_HAL_Driver/Src/stm32h5xx_hal_rtc_ex.c **** 
 801              		.loc 1 610 23 is_stmt 0 view .LVU248
 802 0078 0320     		movs	r0, #3
 803 007a 84F82D00 		strb	r0, [r4, #45]
 613:Drivers/STM32H5xx_HAL_Driver/Src/stm32h5xx_hal_rtc_ex.c **** 
 804              		.loc 1 613 11 is_stmt 1 view .LVU249
 613:Drivers/STM32H5xx_HAL_Driver/Src/stm32h5xx_hal_rtc_ex.c **** 
 805              		.loc 1 613 11 view .LVU250
ARM GAS  C:\Users\DELL\AppData\Local\Temp\ccMtHSyM.s 			page 27


 806 007e 0023     		movs	r3, #0
 807 0080 84F82C30 		strb	r3, [r4, #44]
 613:Drivers/STM32H5xx_HAL_Driver/Src/stm32h5xx_hal_rtc_ex.c **** 
 808              		.loc 1 613 11 view .LVU251
 615:Drivers/STM32H5xx_HAL_Driver/Src/stm32h5xx_hal_rtc_ex.c ****         }
 809              		.loc 1 615 11 view .LVU252
 615:Drivers/STM32H5xx_HAL_Driver/Src/stm32h5xx_hal_rtc_ex.c ****         }
 810              		.loc 1 615 18 is_stmt 0 view .LVU253
 811 0084 E4E7     		b	.L53
 812              	.LVL56:
 813              	.L57:
 587:Drivers/STM32H5xx_HAL_Driver/Src/stm32h5xx_hal_rtc_ex.c **** 
 814              		.loc 1 587 3 discriminator 1 view .LVU254
 815 0086 0220     		movs	r0, #2
 816              	.LVL57:
 587:Drivers/STM32H5xx_HAL_Driver/Src/stm32h5xx_hal_rtc_ex.c **** 
 817              		.loc 1 587 3 discriminator 1 view .LVU255
 818 0088 E2E7     		b	.L53
 819              	.L61:
 820 008a 00BF     		.align	2
 821              	.L60:
 822 008c 00780044 		.word	1140881408
 823              		.cfi_endproc
 824              	.LFE306:
 826              		.section	.text.HAL_RTCEx_SetWakeUpTimer_IT,"ax",%progbits
 827              		.align	1
 828              		.global	HAL_RTCEx_SetWakeUpTimer_IT
 829              		.syntax unified
 830              		.thumb
 831              		.thumb_func
 833              	HAL_RTCEx_SetWakeUpTimer_IT:
 834              	.LVL58:
 835              	.LFB307:
 642:Drivers/STM32H5xx_HAL_Driver/Src/stm32h5xx_hal_rtc_ex.c **** 
 643:Drivers/STM32H5xx_HAL_Driver/Src/stm32h5xx_hal_rtc_ex.c **** /**
 644:Drivers/STM32H5xx_HAL_Driver/Src/stm32h5xx_hal_rtc_ex.c ****   * @brief  Set wake up timer with interrupt.
 645:Drivers/STM32H5xx_HAL_Driver/Src/stm32h5xx_hal_rtc_ex.c ****   * @note   The application must ensure that the EXTI RTC interrupt line is enabled.
 646:Drivers/STM32H5xx_HAL_Driver/Src/stm32h5xx_hal_rtc_ex.c ****   * @param  hrtc RTC handle
 647:Drivers/STM32H5xx_HAL_Driver/Src/stm32h5xx_hal_rtc_ex.c ****   * @param  WakeUpCounter Wake up counter
 648:Drivers/STM32H5xx_HAL_Driver/Src/stm32h5xx_hal_rtc_ex.c ****   * @param  WakeUpClock Wake up clock
 649:Drivers/STM32H5xx_HAL_Driver/Src/stm32h5xx_hal_rtc_ex.c ****   * @param  WakeUpAutoClr Wake up auto clear value (look at WUTOCLR in reference manual)
 650:Drivers/STM32H5xx_HAL_Driver/Src/stm32h5xx_hal_rtc_ex.c ****   *                       - No effect if WakeUpAutoClr is set to zero
 651:Drivers/STM32H5xx_HAL_Driver/Src/stm32h5xx_hal_rtc_ex.c ****   *                       - This feature is meaningful in case of Low power mode to avoid any RTC s
 652:Drivers/STM32H5xx_HAL_Driver/Src/stm32h5xx_hal_rtc_ex.c ****   *                         after Wake Up.
 653:Drivers/STM32H5xx_HAL_Driver/Src/stm32h5xx_hal_rtc_ex.c ****   * @retval HAL status
 654:Drivers/STM32H5xx_HAL_Driver/Src/stm32h5xx_hal_rtc_ex.c ****   */
 655:Drivers/STM32H5xx_HAL_Driver/Src/stm32h5xx_hal_rtc_ex.c **** HAL_StatusTypeDef HAL_RTCEx_SetWakeUpTimer_IT(RTC_HandleTypeDef *hrtc, uint32_t WakeUpCounter, uint
 656:Drivers/STM32H5xx_HAL_Driver/Src/stm32h5xx_hal_rtc_ex.c ****                                               uint32_t WakeUpAutoClr)
 657:Drivers/STM32H5xx_HAL_Driver/Src/stm32h5xx_hal_rtc_ex.c **** {
 836              		.loc 1 657 1 is_stmt 1 view -0
 837              		.cfi_startproc
 838              		@ args = 0, pretend = 0, frame = 0
 839              		@ frame_needed = 0, uses_anonymous_args = 0
 840              		.loc 1 657 1 is_stmt 0 view .LVU257
 841 0000 2DE9F041 		push	{r4, r5, r6, r7, r8, lr}
 842              	.LCFI4:
 843              		.cfi_def_cfa_offset 24
ARM GAS  C:\Users\DELL\AppData\Local\Temp\ccMtHSyM.s 			page 28


 844              		.cfi_offset 4, -24
 845              		.cfi_offset 5, -20
 846              		.cfi_offset 6, -16
 847              		.cfi_offset 7, -12
 848              		.cfi_offset 8, -8
 849              		.cfi_offset 14, -4
 850 0004 1F46     		mov	r7, r3
 658:Drivers/STM32H5xx_HAL_Driver/Src/stm32h5xx_hal_rtc_ex.c ****   uint32_t tickstart;
 851              		.loc 1 658 3 is_stmt 1 view .LVU258
 659:Drivers/STM32H5xx_HAL_Driver/Src/stm32h5xx_hal_rtc_ex.c **** 
 660:Drivers/STM32H5xx_HAL_Driver/Src/stm32h5xx_hal_rtc_ex.c ****   /* Check the parameters */
 661:Drivers/STM32H5xx_HAL_Driver/Src/stm32h5xx_hal_rtc_ex.c ****   assert_param(IS_RTC_WAKEUP_CLOCK(WakeUpClock));
 852              		.loc 1 661 3 view .LVU259
 662:Drivers/STM32H5xx_HAL_Driver/Src/stm32h5xx_hal_rtc_ex.c ****   assert_param(IS_RTC_WAKEUP_COUNTER(WakeUpCounter));
 853              		.loc 1 662 3 view .LVU260
 663:Drivers/STM32H5xx_HAL_Driver/Src/stm32h5xx_hal_rtc_ex.c ****   /* (0x0000<=WUTOCLR<=WUT) */
 664:Drivers/STM32H5xx_HAL_Driver/Src/stm32h5xx_hal_rtc_ex.c ****   assert_param(WakeUpAutoClr <= WakeUpCounter);
 854              		.loc 1 664 3 view .LVU261
 665:Drivers/STM32H5xx_HAL_Driver/Src/stm32h5xx_hal_rtc_ex.c **** 
 666:Drivers/STM32H5xx_HAL_Driver/Src/stm32h5xx_hal_rtc_ex.c ****   /* Process Locked */
 667:Drivers/STM32H5xx_HAL_Driver/Src/stm32h5xx_hal_rtc_ex.c ****   __HAL_LOCK(hrtc);
 855              		.loc 1 667 3 view .LVU262
 856              		.loc 1 667 3 view .LVU263
 857 0006 90F82C30 		ldrb	r3, [r0, #44]	@ zero_extendqisi2
 858              	.LVL59:
 859              		.loc 1 667 3 is_stmt 0 view .LVU264
 860 000a 012B     		cmp	r3, #1
 861 000c 43D0     		beq	.L67
 862 000e 0446     		mov	r4, r0
 863 0010 0D46     		mov	r5, r1
 864 0012 1646     		mov	r6, r2
 865              		.loc 1 667 3 is_stmt 1 discriminator 2 view .LVU265
 866 0014 0123     		movs	r3, #1
 867 0016 80F82C30 		strb	r3, [r0, #44]
 868              		.loc 1 667 3 view .LVU266
 668:Drivers/STM32H5xx_HAL_Driver/Src/stm32h5xx_hal_rtc_ex.c **** 
 669:Drivers/STM32H5xx_HAL_Driver/Src/stm32h5xx_hal_rtc_ex.c ****   /* Change RTC state */
 670:Drivers/STM32H5xx_HAL_Driver/Src/stm32h5xx_hal_rtc_ex.c ****   hrtc->State = HAL_RTC_STATE_BUSY;
 869              		.loc 1 670 3 view .LVU267
 870              		.loc 1 670 15 is_stmt 0 view .LVU268
 871 001a 0223     		movs	r3, #2
 872 001c 80F82D30 		strb	r3, [r0, #45]
 671:Drivers/STM32H5xx_HAL_Driver/Src/stm32h5xx_hal_rtc_ex.c **** 
 672:Drivers/STM32H5xx_HAL_Driver/Src/stm32h5xx_hal_rtc_ex.c ****   /* Clear WUTE in RTC_CR to disable the wakeup timer */
 673:Drivers/STM32H5xx_HAL_Driver/Src/stm32h5xx_hal_rtc_ex.c ****   CLEAR_BIT(RTC->CR, RTC_CR_WUTE);
 873              		.loc 1 673 3 is_stmt 1 view .LVU269
 874 0020 1E4B     		ldr	r3, .L70
 875 0022 9A69     		ldr	r2, [r3, #24]
 876              	.LVL60:
 877              		.loc 1 673 3 is_stmt 0 view .LVU270
 878 0024 22F48062 		bic	r2, r2, #1024
 879 0028 9A61     		str	r2, [r3, #24]
 674:Drivers/STM32H5xx_HAL_Driver/Src/stm32h5xx_hal_rtc_ex.c **** 
 675:Drivers/STM32H5xx_HAL_Driver/Src/stm32h5xx_hal_rtc_ex.c ****   /* Clear flag Wake-Up */
 676:Drivers/STM32H5xx_HAL_Driver/Src/stm32h5xx_hal_rtc_ex.c ****   WRITE_REG(RTC->SCR, RTC_SCR_CWUTF);
 880              		.loc 1 676 3 is_stmt 1 view .LVU271
 881 002a 0422     		movs	r2, #4
ARM GAS  C:\Users\DELL\AppData\Local\Temp\ccMtHSyM.s 			page 29


 882 002c DA65     		str	r2, [r3, #92]
 677:Drivers/STM32H5xx_HAL_Driver/Src/stm32h5xx_hal_rtc_ex.c **** 
 678:Drivers/STM32H5xx_HAL_Driver/Src/stm32h5xx_hal_rtc_ex.c ****   /* Poll WUTWF until it is set in RTC_ICSR to make sure the access to wakeup autoreload
 679:Drivers/STM32H5xx_HAL_Driver/Src/stm32h5xx_hal_rtc_ex.c ****      counter and to WUCKSEL[2:0] bits is allowed. This step must be skipped in
 680:Drivers/STM32H5xx_HAL_Driver/Src/stm32h5xx_hal_rtc_ex.c ****      calendar initialization mode. */
 681:Drivers/STM32H5xx_HAL_Driver/Src/stm32h5xx_hal_rtc_ex.c ****   if (READ_BIT(RTC->ICSR, RTC_ICSR_INITF) == 0U)
 883              		.loc 1 681 3 view .LVU272
 884              		.loc 1 681 7 is_stmt 0 view .LVU273
 885 002e DB68     		ldr	r3, [r3, #12]
 886              		.loc 1 681 6 view .LVU274
 887 0030 13F0400F 		tst	r3, #64
 888 0034 14D0     		beq	.L69
 889              	.LVL61:
 890              	.L64:
 682:Drivers/STM32H5xx_HAL_Driver/Src/stm32h5xx_hal_rtc_ex.c ****   {
 683:Drivers/STM32H5xx_HAL_Driver/Src/stm32h5xx_hal_rtc_ex.c ****     tickstart = HAL_GetTick();
 684:Drivers/STM32H5xx_HAL_Driver/Src/stm32h5xx_hal_rtc_ex.c ****     while (READ_BIT(RTC->ICSR, RTC_ICSR_WUTWF) == 0U)
 685:Drivers/STM32H5xx_HAL_Driver/Src/stm32h5xx_hal_rtc_ex.c ****     {
 686:Drivers/STM32H5xx_HAL_Driver/Src/stm32h5xx_hal_rtc_ex.c ****       if ((HAL_GetTick() - tickstart) > RTC_TIMEOUT_VALUE)
 687:Drivers/STM32H5xx_HAL_Driver/Src/stm32h5xx_hal_rtc_ex.c ****       {
 688:Drivers/STM32H5xx_HAL_Driver/Src/stm32h5xx_hal_rtc_ex.c ****         /* New check to avoid false timeout detection in case of preemption */
 689:Drivers/STM32H5xx_HAL_Driver/Src/stm32h5xx_hal_rtc_ex.c ****         if (READ_BIT(RTC->ICSR, RTC_ICSR_WUTWF) == 0U)
 690:Drivers/STM32H5xx_HAL_Driver/Src/stm32h5xx_hal_rtc_ex.c ****         {
 691:Drivers/STM32H5xx_HAL_Driver/Src/stm32h5xx_hal_rtc_ex.c ****           /* Change RTC state */
 692:Drivers/STM32H5xx_HAL_Driver/Src/stm32h5xx_hal_rtc_ex.c ****           hrtc->State = HAL_RTC_STATE_TIMEOUT;
 693:Drivers/STM32H5xx_HAL_Driver/Src/stm32h5xx_hal_rtc_ex.c **** 
 694:Drivers/STM32H5xx_HAL_Driver/Src/stm32h5xx_hal_rtc_ex.c ****           /* Process Unlocked */
 695:Drivers/STM32H5xx_HAL_Driver/Src/stm32h5xx_hal_rtc_ex.c ****           __HAL_UNLOCK(hrtc);
 696:Drivers/STM32H5xx_HAL_Driver/Src/stm32h5xx_hal_rtc_ex.c **** 
 697:Drivers/STM32H5xx_HAL_Driver/Src/stm32h5xx_hal_rtc_ex.c ****           return HAL_TIMEOUT;
 698:Drivers/STM32H5xx_HAL_Driver/Src/stm32h5xx_hal_rtc_ex.c ****         }
 699:Drivers/STM32H5xx_HAL_Driver/Src/stm32h5xx_hal_rtc_ex.c ****         else
 700:Drivers/STM32H5xx_HAL_Driver/Src/stm32h5xx_hal_rtc_ex.c ****         {
 701:Drivers/STM32H5xx_HAL_Driver/Src/stm32h5xx_hal_rtc_ex.c ****           break;
 702:Drivers/STM32H5xx_HAL_Driver/Src/stm32h5xx_hal_rtc_ex.c ****         }
 703:Drivers/STM32H5xx_HAL_Driver/Src/stm32h5xx_hal_rtc_ex.c ****       }
 704:Drivers/STM32H5xx_HAL_Driver/Src/stm32h5xx_hal_rtc_ex.c ****     }
 705:Drivers/STM32H5xx_HAL_Driver/Src/stm32h5xx_hal_rtc_ex.c ****   }
 706:Drivers/STM32H5xx_HAL_Driver/Src/stm32h5xx_hal_rtc_ex.c **** 
 707:Drivers/STM32H5xx_HAL_Driver/Src/stm32h5xx_hal_rtc_ex.c ****   /* Configure the Wakeup Timer counter and auto clear value */
 708:Drivers/STM32H5xx_HAL_Driver/Src/stm32h5xx_hal_rtc_ex.c ****   WRITE_REG(RTC->WUTR, (uint32_t)(WakeUpCounter | (WakeUpAutoClr << RTC_WUTR_WUTOCLR_Pos)));
 891              		.loc 1 708 3 is_stmt 1 view .LVU275
 892 0036 45EA0745 		orr	r5, r5, r7, lsl #16
 893              	.LVL62:
 894              		.loc 1 708 3 is_stmt 0 view .LVU276
 895 003a 184B     		ldr	r3, .L70
 896 003c 5D61     		str	r5, [r3, #20]
 709:Drivers/STM32H5xx_HAL_Driver/Src/stm32h5xx_hal_rtc_ex.c **** 
 710:Drivers/STM32H5xx_HAL_Driver/Src/stm32h5xx_hal_rtc_ex.c ****   /* Configure the clock source */
 711:Drivers/STM32H5xx_HAL_Driver/Src/stm32h5xx_hal_rtc_ex.c ****   MODIFY_REG(RTC->CR, RTC_CR_WUCKSEL, (uint32_t)WakeUpClock);
 897              		.loc 1 711 3 is_stmt 1 view .LVU277
 898 003e 9A69     		ldr	r2, [r3, #24]
 899 0040 22F00702 		bic	r2, r2, #7
 900 0044 3243     		orrs	r2, r2, r6
 901 0046 9A61     		str	r2, [r3, #24]
 712:Drivers/STM32H5xx_HAL_Driver/Src/stm32h5xx_hal_rtc_ex.c **** 
 713:Drivers/STM32H5xx_HAL_Driver/Src/stm32h5xx_hal_rtc_ex.c ****   /* Configure the Interrupt in the RTC_CR register and Enable the Wakeup Timer*/
ARM GAS  C:\Users\DELL\AppData\Local\Temp\ccMtHSyM.s 			page 30


 714:Drivers/STM32H5xx_HAL_Driver/Src/stm32h5xx_hal_rtc_ex.c ****   SET_BIT(RTC->CR, (RTC_CR_WUTIE | RTC_CR_WUTE));
 902              		.loc 1 714 3 view .LVU278
 903 0048 9A69     		ldr	r2, [r3, #24]
 904 004a 42F48842 		orr	r2, r2, #17408
 905 004e 9A61     		str	r2, [r3, #24]
 715:Drivers/STM32H5xx_HAL_Driver/Src/stm32h5xx_hal_rtc_ex.c **** 
 716:Drivers/STM32H5xx_HAL_Driver/Src/stm32h5xx_hal_rtc_ex.c ****   /* Change RTC state */
 717:Drivers/STM32H5xx_HAL_Driver/Src/stm32h5xx_hal_rtc_ex.c ****   hrtc->State = HAL_RTC_STATE_READY;
 906              		.loc 1 717 3 view .LVU279
 907              		.loc 1 717 15 is_stmt 0 view .LVU280
 908 0050 0123     		movs	r3, #1
 909 0052 84F82D30 		strb	r3, [r4, #45]
 718:Drivers/STM32H5xx_HAL_Driver/Src/stm32h5xx_hal_rtc_ex.c **** 
 719:Drivers/STM32H5xx_HAL_Driver/Src/stm32h5xx_hal_rtc_ex.c ****   /* Process Unlocked */
 720:Drivers/STM32H5xx_HAL_Driver/Src/stm32h5xx_hal_rtc_ex.c ****   __HAL_UNLOCK(hrtc);
 910              		.loc 1 720 3 is_stmt 1 view .LVU281
 911              		.loc 1 720 3 view .LVU282
 912 0056 0020     		movs	r0, #0
 913 0058 84F82C00 		strb	r0, [r4, #44]
 914              		.loc 1 720 3 view .LVU283
 721:Drivers/STM32H5xx_HAL_Driver/Src/stm32h5xx_hal_rtc_ex.c **** 
 722:Drivers/STM32H5xx_HAL_Driver/Src/stm32h5xx_hal_rtc_ex.c ****   return HAL_OK;
 915              		.loc 1 722 3 view .LVU284
 916              	.LVL63:
 917              	.L63:
 723:Drivers/STM32H5xx_HAL_Driver/Src/stm32h5xx_hal_rtc_ex.c **** }
 918              		.loc 1 723 1 is_stmt 0 view .LVU285
 919 005c BDE8F081 		pop	{r4, r5, r6, r7, r8, pc}
 920              	.LVL64:
 921              	.L69:
 683:Drivers/STM32H5xx_HAL_Driver/Src/stm32h5xx_hal_rtc_ex.c ****     while (READ_BIT(RTC->ICSR, RTC_ICSR_WUTWF) == 0U)
 922              		.loc 1 683 5 is_stmt 1 view .LVU286
 683:Drivers/STM32H5xx_HAL_Driver/Src/stm32h5xx_hal_rtc_ex.c ****     while (READ_BIT(RTC->ICSR, RTC_ICSR_WUTWF) == 0U)
 923              		.loc 1 683 17 is_stmt 0 view .LVU287
 924 0060 FFF7FEFF 		bl	HAL_GetTick
 925              	.LVL65:
 683:Drivers/STM32H5xx_HAL_Driver/Src/stm32h5xx_hal_rtc_ex.c ****     while (READ_BIT(RTC->ICSR, RTC_ICSR_WUTWF) == 0U)
 926              		.loc 1 683 17 view .LVU288
 927 0064 8046     		mov	r8, r0
 928              	.LVL66:
 684:Drivers/STM32H5xx_HAL_Driver/Src/stm32h5xx_hal_rtc_ex.c ****     {
 929              		.loc 1 684 5 is_stmt 1 view .LVU289
 930              	.L65:
 684:Drivers/STM32H5xx_HAL_Driver/Src/stm32h5xx_hal_rtc_ex.c ****     {
 931              		.loc 1 684 48 view .LVU290
 684:Drivers/STM32H5xx_HAL_Driver/Src/stm32h5xx_hal_rtc_ex.c ****     {
 932              		.loc 1 684 12 is_stmt 0 view .LVU291
 933 0066 0D4B     		ldr	r3, .L70
 934 0068 D968     		ldr	r1, [r3, #12]
 684:Drivers/STM32H5xx_HAL_Driver/Src/stm32h5xx_hal_rtc_ex.c ****     {
 935              		.loc 1 684 48 view .LVU292
 936 006a 11F0040F 		tst	r1, #4
 937 006e E2D1     		bne	.L64
 686:Drivers/STM32H5xx_HAL_Driver/Src/stm32h5xx_hal_rtc_ex.c ****       {
 938              		.loc 1 686 7 is_stmt 1 view .LVU293
 686:Drivers/STM32H5xx_HAL_Driver/Src/stm32h5xx_hal_rtc_ex.c ****       {
 939              		.loc 1 686 12 is_stmt 0 view .LVU294
ARM GAS  C:\Users\DELL\AppData\Local\Temp\ccMtHSyM.s 			page 31


 940 0070 FFF7FEFF 		bl	HAL_GetTick
 941              	.LVL67:
 686:Drivers/STM32H5xx_HAL_Driver/Src/stm32h5xx_hal_rtc_ex.c ****       {
 942              		.loc 1 686 26 discriminator 1 view .LVU295
 943 0074 A0EB080C 		sub	ip, r0, r8
 686:Drivers/STM32H5xx_HAL_Driver/Src/stm32h5xx_hal_rtc_ex.c ****       {
 944              		.loc 1 686 10 discriminator 1 view .LVU296
 945 0078 BCF57A7F 		cmp	ip, #1000
 946 007c F3D9     		bls	.L65
 689:Drivers/STM32H5xx_HAL_Driver/Src/stm32h5xx_hal_rtc_ex.c ****         {
 947              		.loc 1 689 9 is_stmt 1 view .LVU297
 689:Drivers/STM32H5xx_HAL_Driver/Src/stm32h5xx_hal_rtc_ex.c ****         {
 948              		.loc 1 689 13 is_stmt 0 view .LVU298
 949 007e 074B     		ldr	r3, .L70
 950 0080 DB68     		ldr	r3, [r3, #12]
 689:Drivers/STM32H5xx_HAL_Driver/Src/stm32h5xx_hal_rtc_ex.c ****         {
 951              		.loc 1 689 12 view .LVU299
 952 0082 13F0040F 		tst	r3, #4
 953 0086 D6D1     		bne	.L64
 692:Drivers/STM32H5xx_HAL_Driver/Src/stm32h5xx_hal_rtc_ex.c **** 
 954              		.loc 1 692 11 is_stmt 1 view .LVU300
 692:Drivers/STM32H5xx_HAL_Driver/Src/stm32h5xx_hal_rtc_ex.c **** 
 955              		.loc 1 692 23 is_stmt 0 view .LVU301
 956 0088 0320     		movs	r0, #3
 957 008a 84F82D00 		strb	r0, [r4, #45]
 695:Drivers/STM32H5xx_HAL_Driver/Src/stm32h5xx_hal_rtc_ex.c **** 
 958              		.loc 1 695 11 is_stmt 1 view .LVU302
 695:Drivers/STM32H5xx_HAL_Driver/Src/stm32h5xx_hal_rtc_ex.c **** 
 959              		.loc 1 695 11 view .LVU303
 960 008e 0023     		movs	r3, #0
 961 0090 84F82C30 		strb	r3, [r4, #44]
 695:Drivers/STM32H5xx_HAL_Driver/Src/stm32h5xx_hal_rtc_ex.c **** 
 962              		.loc 1 695 11 view .LVU304
 697:Drivers/STM32H5xx_HAL_Driver/Src/stm32h5xx_hal_rtc_ex.c ****         }
 963              		.loc 1 697 11 view .LVU305
 697:Drivers/STM32H5xx_HAL_Driver/Src/stm32h5xx_hal_rtc_ex.c ****         }
 964              		.loc 1 697 18 is_stmt 0 view .LVU306
 965 0094 E2E7     		b	.L63
 966              	.LVL68:
 967              	.L67:
 667:Drivers/STM32H5xx_HAL_Driver/Src/stm32h5xx_hal_rtc_ex.c **** 
 968              		.loc 1 667 3 discriminator 1 view .LVU307
 969 0096 0220     		movs	r0, #2
 970              	.LVL69:
 667:Drivers/STM32H5xx_HAL_Driver/Src/stm32h5xx_hal_rtc_ex.c **** 
 971              		.loc 1 667 3 discriminator 1 view .LVU308
 972 0098 E0E7     		b	.L63
 973              	.L71:
 974 009a 00BF     		.align	2
 975              	.L70:
 976 009c 00780044 		.word	1140881408
 977              		.cfi_endproc
 978              	.LFE307:
 980              		.section	.text.HAL_RTCEx_DeactivateWakeUpTimer,"ax",%progbits
 981              		.align	1
 982              		.global	HAL_RTCEx_DeactivateWakeUpTimer
 983              		.syntax unified
ARM GAS  C:\Users\DELL\AppData\Local\Temp\ccMtHSyM.s 			page 32


 984              		.thumb
 985              		.thumb_func
 987              	HAL_RTCEx_DeactivateWakeUpTimer:
 988              	.LVL70:
 989              	.LFB308:
 724:Drivers/STM32H5xx_HAL_Driver/Src/stm32h5xx_hal_rtc_ex.c **** 
 725:Drivers/STM32H5xx_HAL_Driver/Src/stm32h5xx_hal_rtc_ex.c **** /**
 726:Drivers/STM32H5xx_HAL_Driver/Src/stm32h5xx_hal_rtc_ex.c ****   * @brief  Deactivate wake up timer counter.
 727:Drivers/STM32H5xx_HAL_Driver/Src/stm32h5xx_hal_rtc_ex.c ****   * @param  hrtc RTC handle
 728:Drivers/STM32H5xx_HAL_Driver/Src/stm32h5xx_hal_rtc_ex.c ****   * @retval HAL status
 729:Drivers/STM32H5xx_HAL_Driver/Src/stm32h5xx_hal_rtc_ex.c ****   */
 730:Drivers/STM32H5xx_HAL_Driver/Src/stm32h5xx_hal_rtc_ex.c **** HAL_StatusTypeDef HAL_RTCEx_DeactivateWakeUpTimer(RTC_HandleTypeDef *hrtc)
 731:Drivers/STM32H5xx_HAL_Driver/Src/stm32h5xx_hal_rtc_ex.c **** {
 990              		.loc 1 731 1 is_stmt 1 view -0
 991              		.cfi_startproc
 992              		@ args = 0, pretend = 0, frame = 0
 993              		@ frame_needed = 0, uses_anonymous_args = 0
 994              		@ link register save eliminated.
 732:Drivers/STM32H5xx_HAL_Driver/Src/stm32h5xx_hal_rtc_ex.c ****   /* Process Locked */
 733:Drivers/STM32H5xx_HAL_Driver/Src/stm32h5xx_hal_rtc_ex.c ****   __HAL_LOCK(hrtc);
 995              		.loc 1 733 3 view .LVU310
 996              		.loc 1 733 3 view .LVU311
 997 0000 90F82C30 		ldrb	r3, [r0, #44]	@ zero_extendqisi2
 998 0004 012B     		cmp	r3, #1
 999 0006 11D0     		beq	.L74
 1000              		.loc 1 733 3 discriminator 2 view .LVU312
 1001 0008 0122     		movs	r2, #1
 1002 000a 80F82C20 		strb	r2, [r0, #44]
 1003              		.loc 1 733 3 view .LVU313
 734:Drivers/STM32H5xx_HAL_Driver/Src/stm32h5xx_hal_rtc_ex.c **** 
 735:Drivers/STM32H5xx_HAL_Driver/Src/stm32h5xx_hal_rtc_ex.c ****   /* Change RTC state */
 736:Drivers/STM32H5xx_HAL_Driver/Src/stm32h5xx_hal_rtc_ex.c ****   hrtc->State = HAL_RTC_STATE_BUSY;
 1004              		.loc 1 736 3 view .LVU314
 1005              		.loc 1 736 15 is_stmt 0 view .LVU315
 1006 000e 0223     		movs	r3, #2
 1007 0010 80F82D30 		strb	r3, [r0, #45]
 737:Drivers/STM32H5xx_HAL_Driver/Src/stm32h5xx_hal_rtc_ex.c **** 
 738:Drivers/STM32H5xx_HAL_Driver/Src/stm32h5xx_hal_rtc_ex.c ****   /* Disable the Wakeup Timer */
 739:Drivers/STM32H5xx_HAL_Driver/Src/stm32h5xx_hal_rtc_ex.c ****   /* In case of interrupt mode is used, the interrupt source must disabled */
 740:Drivers/STM32H5xx_HAL_Driver/Src/stm32h5xx_hal_rtc_ex.c ****   CLEAR_BIT(RTC->CR, (RTC_CR_WUTE | RTC_CR_WUTIE));
 1008              		.loc 1 740 3 is_stmt 1 view .LVU316
 1009 0014 0649     		ldr	r1, .L75
 1010 0016 8B69     		ldr	r3, [r1, #24]
 1011 0018 23F48843 		bic	r3, r3, #17408
 1012 001c 8B61     		str	r3, [r1, #24]
 741:Drivers/STM32H5xx_HAL_Driver/Src/stm32h5xx_hal_rtc_ex.c **** 
 742:Drivers/STM32H5xx_HAL_Driver/Src/stm32h5xx_hal_rtc_ex.c ****   /* Change RTC state */
 743:Drivers/STM32H5xx_HAL_Driver/Src/stm32h5xx_hal_rtc_ex.c ****   hrtc->State = HAL_RTC_STATE_READY;
 1013              		.loc 1 743 3 view .LVU317
 1014              		.loc 1 743 15 is_stmt 0 view .LVU318
 1015 001e 80F82D20 		strb	r2, [r0, #45]
 744:Drivers/STM32H5xx_HAL_Driver/Src/stm32h5xx_hal_rtc_ex.c **** 
 745:Drivers/STM32H5xx_HAL_Driver/Src/stm32h5xx_hal_rtc_ex.c ****   /* Process Unlocked */
 746:Drivers/STM32H5xx_HAL_Driver/Src/stm32h5xx_hal_rtc_ex.c ****   __HAL_UNLOCK(hrtc);
 1016              		.loc 1 746 3 is_stmt 1 view .LVU319
 1017              		.loc 1 746 3 view .LVU320
 1018 0022 0023     		movs	r3, #0
ARM GAS  C:\Users\DELL\AppData\Local\Temp\ccMtHSyM.s 			page 33


 1019 0024 80F82C30 		strb	r3, [r0, #44]
 1020              		.loc 1 746 3 view .LVU321
 747:Drivers/STM32H5xx_HAL_Driver/Src/stm32h5xx_hal_rtc_ex.c **** 
 748:Drivers/STM32H5xx_HAL_Driver/Src/stm32h5xx_hal_rtc_ex.c ****   return HAL_OK;
 1021              		.loc 1 748 3 view .LVU322
 1022              		.loc 1 748 10 is_stmt 0 view .LVU323
 1023 0028 1846     		mov	r0, r3
 1024              	.LVL71:
 1025              		.loc 1 748 10 view .LVU324
 1026 002a 7047     		bx	lr
 1027              	.LVL72:
 1028              	.L74:
 733:Drivers/STM32H5xx_HAL_Driver/Src/stm32h5xx_hal_rtc_ex.c **** 
 1029              		.loc 1 733 3 discriminator 1 view .LVU325
 1030 002c 0220     		movs	r0, #2
 1031              	.LVL73:
 749:Drivers/STM32H5xx_HAL_Driver/Src/stm32h5xx_hal_rtc_ex.c **** }
 1032              		.loc 1 749 1 view .LVU326
 1033 002e 7047     		bx	lr
 1034              	.L76:
 1035              		.align	2
 1036              	.L75:
 1037 0030 00780044 		.word	1140881408
 1038              		.cfi_endproc
 1039              	.LFE308:
 1041              		.section	.text.HAL_RTCEx_GetWakeUpTimer,"ax",%progbits
 1042              		.align	1
 1043              		.global	HAL_RTCEx_GetWakeUpTimer
 1044              		.syntax unified
 1045              		.thumb
 1046              		.thumb_func
 1048              	HAL_RTCEx_GetWakeUpTimer:
 1049              	.LVL74:
 1050              	.LFB309:
 750:Drivers/STM32H5xx_HAL_Driver/Src/stm32h5xx_hal_rtc_ex.c **** 
 751:Drivers/STM32H5xx_HAL_Driver/Src/stm32h5xx_hal_rtc_ex.c **** /**
 752:Drivers/STM32H5xx_HAL_Driver/Src/stm32h5xx_hal_rtc_ex.c ****   * @brief  Get wake up timer counter.
 753:Drivers/STM32H5xx_HAL_Driver/Src/stm32h5xx_hal_rtc_ex.c ****   * @param  hrtc RTC handle
 754:Drivers/STM32H5xx_HAL_Driver/Src/stm32h5xx_hal_rtc_ex.c ****   * @retval Counter value
 755:Drivers/STM32H5xx_HAL_Driver/Src/stm32h5xx_hal_rtc_ex.c ****   */
 756:Drivers/STM32H5xx_HAL_Driver/Src/stm32h5xx_hal_rtc_ex.c **** uint32_t HAL_RTCEx_GetWakeUpTimer(const RTC_HandleTypeDef *hrtc)
 757:Drivers/STM32H5xx_HAL_Driver/Src/stm32h5xx_hal_rtc_ex.c **** {
 1051              		.loc 1 757 1 is_stmt 1 view -0
 1052              		.cfi_startproc
 1053              		@ args = 0, pretend = 0, frame = 0
 1054              		@ frame_needed = 0, uses_anonymous_args = 0
 1055              		@ link register save eliminated.
 758:Drivers/STM32H5xx_HAL_Driver/Src/stm32h5xx_hal_rtc_ex.c ****   /* Prevent unused argument(s) compilation warning */
 759:Drivers/STM32H5xx_HAL_Driver/Src/stm32h5xx_hal_rtc_ex.c ****   UNUSED(hrtc);
 1056              		.loc 1 759 3 view .LVU328
 760:Drivers/STM32H5xx_HAL_Driver/Src/stm32h5xx_hal_rtc_ex.c **** 
 761:Drivers/STM32H5xx_HAL_Driver/Src/stm32h5xx_hal_rtc_ex.c ****   /* Get the counter value */
 762:Drivers/STM32H5xx_HAL_Driver/Src/stm32h5xx_hal_rtc_ex.c ****   return (uint32_t)(READ_BIT(RTC->WUTR, RTC_WUTR_WUT));
 1057              		.loc 1 762 3 view .LVU329
 1058              		.loc 1 762 21 is_stmt 0 view .LVU330
 1059 0000 014B     		ldr	r3, .L78
 1060 0002 5869     		ldr	r0, [r3, #20]
ARM GAS  C:\Users\DELL\AppData\Local\Temp\ccMtHSyM.s 			page 34


 1061              	.LVL75:
 763:Drivers/STM32H5xx_HAL_Driver/Src/stm32h5xx_hal_rtc_ex.c **** }
 1062              		.loc 1 763 1 view .LVU331
 1063 0004 80B2     		uxth	r0, r0
 1064 0006 7047     		bx	lr
 1065              	.L79:
 1066              		.align	2
 1067              	.L78:
 1068 0008 00780044 		.word	1140881408
 1069              		.cfi_endproc
 1070              	.LFE309:
 1072              		.section	.text.HAL_RTCEx_WakeUpTimerEventCallback,"ax",%progbits
 1073              		.align	1
 1074              		.weak	HAL_RTCEx_WakeUpTimerEventCallback
 1075              		.syntax unified
 1076              		.thumb
 1077              		.thumb_func
 1079              	HAL_RTCEx_WakeUpTimerEventCallback:
 1080              	.LVL76:
 1081              	.LFB311:
 764:Drivers/STM32H5xx_HAL_Driver/Src/stm32h5xx_hal_rtc_ex.c **** 
 765:Drivers/STM32H5xx_HAL_Driver/Src/stm32h5xx_hal_rtc_ex.c **** /**
 766:Drivers/STM32H5xx_HAL_Driver/Src/stm32h5xx_hal_rtc_ex.c ****   * @brief  Handle Wake Up Timer interrupt request.
 767:Drivers/STM32H5xx_HAL_Driver/Src/stm32h5xx_hal_rtc_ex.c ****   * @param  hrtc RTC handle
 768:Drivers/STM32H5xx_HAL_Driver/Src/stm32h5xx_hal_rtc_ex.c ****   * @retval None
 769:Drivers/STM32H5xx_HAL_Driver/Src/stm32h5xx_hal_rtc_ex.c ****   */
 770:Drivers/STM32H5xx_HAL_Driver/Src/stm32h5xx_hal_rtc_ex.c **** void HAL_RTCEx_WakeUpTimerIRQHandler(RTC_HandleTypeDef *hrtc)
 771:Drivers/STM32H5xx_HAL_Driver/Src/stm32h5xx_hal_rtc_ex.c **** {
 772:Drivers/STM32H5xx_HAL_Driver/Src/stm32h5xx_hal_rtc_ex.c ****   /* Get the pending status of the Wake-Up Timer Interrupt */
 773:Drivers/STM32H5xx_HAL_Driver/Src/stm32h5xx_hal_rtc_ex.c **** #if defined (__ARM_FEATURE_CMSE) && (__ARM_FEATURE_CMSE == 3U)
 774:Drivers/STM32H5xx_HAL_Driver/Src/stm32h5xx_hal_rtc_ex.c ****   if (READ_BIT(RTC->SMISR, RTC_SMISR_WUTMF) != 0U)
 775:Drivers/STM32H5xx_HAL_Driver/Src/stm32h5xx_hal_rtc_ex.c **** #else
 776:Drivers/STM32H5xx_HAL_Driver/Src/stm32h5xx_hal_rtc_ex.c ****   if (READ_BIT(RTC->MISR, RTC_MISR_WUTMF) != 0U)
 777:Drivers/STM32H5xx_HAL_Driver/Src/stm32h5xx_hal_rtc_ex.c **** #endif /* #if defined (__ARM_FEATURE_CMSE) && (__ARM_FEATURE_CMSE == 3U) */
 778:Drivers/STM32H5xx_HAL_Driver/Src/stm32h5xx_hal_rtc_ex.c ****   {
 779:Drivers/STM32H5xx_HAL_Driver/Src/stm32h5xx_hal_rtc_ex.c ****     /* Immediately clear flags */
 780:Drivers/STM32H5xx_HAL_Driver/Src/stm32h5xx_hal_rtc_ex.c ****     WRITE_REG(RTC->SCR, RTC_SCR_CWUTF);
 781:Drivers/STM32H5xx_HAL_Driver/Src/stm32h5xx_hal_rtc_ex.c **** #if (USE_HAL_RTC_REGISTER_CALLBACKS == 1)
 782:Drivers/STM32H5xx_HAL_Driver/Src/stm32h5xx_hal_rtc_ex.c ****     /* Call wake up timer registered Callback */
 783:Drivers/STM32H5xx_HAL_Driver/Src/stm32h5xx_hal_rtc_ex.c ****     hrtc->WakeUpTimerEventCallback(hrtc);
 784:Drivers/STM32H5xx_HAL_Driver/Src/stm32h5xx_hal_rtc_ex.c **** #else
 785:Drivers/STM32H5xx_HAL_Driver/Src/stm32h5xx_hal_rtc_ex.c ****     HAL_RTCEx_WakeUpTimerEventCallback(hrtc);
 786:Drivers/STM32H5xx_HAL_Driver/Src/stm32h5xx_hal_rtc_ex.c **** #endif /* USE_HAL_RTC_REGISTER_CALLBACKS */
 787:Drivers/STM32H5xx_HAL_Driver/Src/stm32h5xx_hal_rtc_ex.c ****   }
 788:Drivers/STM32H5xx_HAL_Driver/Src/stm32h5xx_hal_rtc_ex.c **** 
 789:Drivers/STM32H5xx_HAL_Driver/Src/stm32h5xx_hal_rtc_ex.c ****   /* Change RTC state */
 790:Drivers/STM32H5xx_HAL_Driver/Src/stm32h5xx_hal_rtc_ex.c ****   hrtc->State = HAL_RTC_STATE_READY;
 791:Drivers/STM32H5xx_HAL_Driver/Src/stm32h5xx_hal_rtc_ex.c **** }
 792:Drivers/STM32H5xx_HAL_Driver/Src/stm32h5xx_hal_rtc_ex.c **** 
 793:Drivers/STM32H5xx_HAL_Driver/Src/stm32h5xx_hal_rtc_ex.c **** /**
 794:Drivers/STM32H5xx_HAL_Driver/Src/stm32h5xx_hal_rtc_ex.c ****   * @brief  Wake Up Timer callback.
 795:Drivers/STM32H5xx_HAL_Driver/Src/stm32h5xx_hal_rtc_ex.c ****   * @param  hrtc RTC handle
 796:Drivers/STM32H5xx_HAL_Driver/Src/stm32h5xx_hal_rtc_ex.c ****   * @retval None
 797:Drivers/STM32H5xx_HAL_Driver/Src/stm32h5xx_hal_rtc_ex.c ****   */
 798:Drivers/STM32H5xx_HAL_Driver/Src/stm32h5xx_hal_rtc_ex.c **** __weak void HAL_RTCEx_WakeUpTimerEventCallback(RTC_HandleTypeDef *hrtc)
 799:Drivers/STM32H5xx_HAL_Driver/Src/stm32h5xx_hal_rtc_ex.c **** {
 1082              		.loc 1 799 1 is_stmt 1 view -0
ARM GAS  C:\Users\DELL\AppData\Local\Temp\ccMtHSyM.s 			page 35


 1083              		.cfi_startproc
 1084              		@ args = 0, pretend = 0, frame = 0
 1085              		@ frame_needed = 0, uses_anonymous_args = 0
 1086              		@ link register save eliminated.
 800:Drivers/STM32H5xx_HAL_Driver/Src/stm32h5xx_hal_rtc_ex.c ****   /* Prevent unused argument(s) compilation warning */
 801:Drivers/STM32H5xx_HAL_Driver/Src/stm32h5xx_hal_rtc_ex.c ****   UNUSED(hrtc);
 1087              		.loc 1 801 3 view .LVU333
 802:Drivers/STM32H5xx_HAL_Driver/Src/stm32h5xx_hal_rtc_ex.c **** 
 803:Drivers/STM32H5xx_HAL_Driver/Src/stm32h5xx_hal_rtc_ex.c ****   /* NOTE : This function should not be modified, when the callback is needed,
 804:Drivers/STM32H5xx_HAL_Driver/Src/stm32h5xx_hal_rtc_ex.c ****             the HAL_RTCEx_WakeUpTimerEventCallback could be implemented in the user file
 805:Drivers/STM32H5xx_HAL_Driver/Src/stm32h5xx_hal_rtc_ex.c ****    */
 806:Drivers/STM32H5xx_HAL_Driver/Src/stm32h5xx_hal_rtc_ex.c **** }
 1088              		.loc 1 806 1 is_stmt 0 view .LVU334
 1089 0000 7047     		bx	lr
 1090              		.cfi_endproc
 1091              	.LFE311:
 1093              		.section	.text.HAL_RTCEx_WakeUpTimerIRQHandler,"ax",%progbits
 1094              		.align	1
 1095              		.global	HAL_RTCEx_WakeUpTimerIRQHandler
 1096              		.syntax unified
 1097              		.thumb
 1098              		.thumb_func
 1100              	HAL_RTCEx_WakeUpTimerIRQHandler:
 1101              	.LVL77:
 1102              	.LFB310:
 771:Drivers/STM32H5xx_HAL_Driver/Src/stm32h5xx_hal_rtc_ex.c ****   /* Get the pending status of the Wake-Up Timer Interrupt */
 1103              		.loc 1 771 1 is_stmt 1 view -0
 1104              		.cfi_startproc
 1105              		@ args = 0, pretend = 0, frame = 0
 1106              		@ frame_needed = 0, uses_anonymous_args = 0
 771:Drivers/STM32H5xx_HAL_Driver/Src/stm32h5xx_hal_rtc_ex.c ****   /* Get the pending status of the Wake-Up Timer Interrupt */
 1107              		.loc 1 771 1 is_stmt 0 view .LVU336
 1108 0000 10B5     		push	{r4, lr}
 1109              	.LCFI5:
 1110              		.cfi_def_cfa_offset 8
 1111              		.cfi_offset 4, -8
 1112              		.cfi_offset 14, -4
 1113 0002 0446     		mov	r4, r0
 776:Drivers/STM32H5xx_HAL_Driver/Src/stm32h5xx_hal_rtc_ex.c **** #endif /* #if defined (__ARM_FEATURE_CMSE) && (__ARM_FEATURE_CMSE == 3U) */
 1114              		.loc 1 776 3 is_stmt 1 view .LVU337
 776:Drivers/STM32H5xx_HAL_Driver/Src/stm32h5xx_hal_rtc_ex.c **** #endif /* #if defined (__ARM_FEATURE_CMSE) && (__ARM_FEATURE_CMSE == 3U) */
 1115              		.loc 1 776 7 is_stmt 0 view .LVU338
 1116 0004 074B     		ldr	r3, .L85
 1117 0006 5B6D     		ldr	r3, [r3, #84]
 776:Drivers/STM32H5xx_HAL_Driver/Src/stm32h5xx_hal_rtc_ex.c **** #endif /* #if defined (__ARM_FEATURE_CMSE) && (__ARM_FEATURE_CMSE == 3U) */
 1118              		.loc 1 776 6 view .LVU339
 1119 0008 13F0040F 		tst	r3, #4
 1120 000c 03D1     		bne	.L84
 1121              	.LVL78:
 1122              	.L82:
 790:Drivers/STM32H5xx_HAL_Driver/Src/stm32h5xx_hal_rtc_ex.c **** }
 1123              		.loc 1 790 3 is_stmt 1 view .LVU340
 790:Drivers/STM32H5xx_HAL_Driver/Src/stm32h5xx_hal_rtc_ex.c **** }
 1124              		.loc 1 790 15 is_stmt 0 view .LVU341
 1125 000e 0123     		movs	r3, #1
 1126 0010 84F82D30 		strb	r3, [r4, #45]
 791:Drivers/STM32H5xx_HAL_Driver/Src/stm32h5xx_hal_rtc_ex.c **** 
ARM GAS  C:\Users\DELL\AppData\Local\Temp\ccMtHSyM.s 			page 36


 1127              		.loc 1 791 1 view .LVU342
 1128 0014 10BD     		pop	{r4, pc}
 1129              	.LVL79:
 1130              	.L84:
 780:Drivers/STM32H5xx_HAL_Driver/Src/stm32h5xx_hal_rtc_ex.c **** #if (USE_HAL_RTC_REGISTER_CALLBACKS == 1)
 1131              		.loc 1 780 5 is_stmt 1 view .LVU343
 1132 0016 034B     		ldr	r3, .L85
 1133 0018 0422     		movs	r2, #4
 1134 001a DA65     		str	r2, [r3, #92]
 785:Drivers/STM32H5xx_HAL_Driver/Src/stm32h5xx_hal_rtc_ex.c **** #endif /* USE_HAL_RTC_REGISTER_CALLBACKS */
 1135              		.loc 1 785 5 view .LVU344
 1136 001c FFF7FEFF 		bl	HAL_RTCEx_WakeUpTimerEventCallback
 1137              	.LVL80:
 785:Drivers/STM32H5xx_HAL_Driver/Src/stm32h5xx_hal_rtc_ex.c **** #endif /* USE_HAL_RTC_REGISTER_CALLBACKS */
 1138              		.loc 1 785 5 is_stmt 0 view .LVU345
 1139 0020 F5E7     		b	.L82
 1140              	.L86:
 1141 0022 00BF     		.align	2
 1142              	.L85:
 1143 0024 00780044 		.word	1140881408
 1144              		.cfi_endproc
 1145              	.LFE310:
 1147              		.section	.text.HAL_RTCEx_PollForWakeUpTimerEvent,"ax",%progbits
 1148              		.align	1
 1149              		.global	HAL_RTCEx_PollForWakeUpTimerEvent
 1150              		.syntax unified
 1151              		.thumb
 1152              		.thumb_func
 1154              	HAL_RTCEx_PollForWakeUpTimerEvent:
 1155              	.LVL81:
 1156              	.LFB312:
 807:Drivers/STM32H5xx_HAL_Driver/Src/stm32h5xx_hal_rtc_ex.c **** 
 808:Drivers/STM32H5xx_HAL_Driver/Src/stm32h5xx_hal_rtc_ex.c **** /**
 809:Drivers/STM32H5xx_HAL_Driver/Src/stm32h5xx_hal_rtc_ex.c ****   * @brief  Handle Wake Up Timer Polling.
 810:Drivers/STM32H5xx_HAL_Driver/Src/stm32h5xx_hal_rtc_ex.c ****   * @param  hrtc RTC handle
 811:Drivers/STM32H5xx_HAL_Driver/Src/stm32h5xx_hal_rtc_ex.c ****   * @param  Timeout Timeout duration
 812:Drivers/STM32H5xx_HAL_Driver/Src/stm32h5xx_hal_rtc_ex.c ****   * @retval HAL status
 813:Drivers/STM32H5xx_HAL_Driver/Src/stm32h5xx_hal_rtc_ex.c ****   */
 814:Drivers/STM32H5xx_HAL_Driver/Src/stm32h5xx_hal_rtc_ex.c **** HAL_StatusTypeDef HAL_RTCEx_PollForWakeUpTimerEvent(const RTC_HandleTypeDef *hrtc, uint32_t Timeout
 815:Drivers/STM32H5xx_HAL_Driver/Src/stm32h5xx_hal_rtc_ex.c **** {
 1157              		.loc 1 815 1 is_stmt 1 view -0
 1158              		.cfi_startproc
 1159              		@ args = 0, pretend = 0, frame = 0
 1160              		@ frame_needed = 0, uses_anonymous_args = 0
 1161              		.loc 1 815 1 is_stmt 0 view .LVU347
 1162 0000 38B5     		push	{r3, r4, r5, lr}
 1163              	.LCFI6:
 1164              		.cfi_def_cfa_offset 16
 1165              		.cfi_offset 3, -16
 1166              		.cfi_offset 4, -12
 1167              		.cfi_offset 5, -8
 1168              		.cfi_offset 14, -4
 1169 0002 0C46     		mov	r4, r1
 816:Drivers/STM32H5xx_HAL_Driver/Src/stm32h5xx_hal_rtc_ex.c ****   /* Prevent unused argument(s) compilation warning */
 817:Drivers/STM32H5xx_HAL_Driver/Src/stm32h5xx_hal_rtc_ex.c ****   UNUSED(hrtc);
 1170              		.loc 1 817 3 is_stmt 1 view .LVU348
 818:Drivers/STM32H5xx_HAL_Driver/Src/stm32h5xx_hal_rtc_ex.c **** 
ARM GAS  C:\Users\DELL\AppData\Local\Temp\ccMtHSyM.s 			page 37


 819:Drivers/STM32H5xx_HAL_Driver/Src/stm32h5xx_hal_rtc_ex.c ****   uint32_t tickstart = HAL_GetTick();
 1171              		.loc 1 819 3 view .LVU349
 1172              		.loc 1 819 24 is_stmt 0 view .LVU350
 1173 0004 FFF7FEFF 		bl	HAL_GetTick
 1174              	.LVL82:
 1175              		.loc 1 819 24 view .LVU351
 1176 0008 0546     		mov	r5, r0
 1177              	.LVL83:
 820:Drivers/STM32H5xx_HAL_Driver/Src/stm32h5xx_hal_rtc_ex.c **** 
 821:Drivers/STM32H5xx_HAL_Driver/Src/stm32h5xx_hal_rtc_ex.c ****   while (READ_BIT(RTC->SR, RTC_SR_WUTF) == 0U)
 1178              		.loc 1 821 3 is_stmt 1 view .LVU352
 1179              	.L89:
 1180              		.loc 1 821 41 view .LVU353
 1181              		.loc 1 821 10 is_stmt 0 view .LVU354
 1182 000a 0D4B     		ldr	r3, .L97
 1183 000c 1B6D     		ldr	r3, [r3, #80]
 1184              		.loc 1 821 41 view .LVU355
 1185 000e 13F0040F 		tst	r3, #4
 1186 0012 0ED1     		bne	.L92
 822:Drivers/STM32H5xx_HAL_Driver/Src/stm32h5xx_hal_rtc_ex.c ****   {
 823:Drivers/STM32H5xx_HAL_Driver/Src/stm32h5xx_hal_rtc_ex.c ****     if (Timeout != HAL_MAX_DELAY)
 1187              		.loc 1 823 5 is_stmt 1 view .LVU356
 1188              		.loc 1 823 8 is_stmt 0 view .LVU357
 1189 0014 B4F1FF3F 		cmp	r4, #-1
 1190 0018 F7D0     		beq	.L89
 824:Drivers/STM32H5xx_HAL_Driver/Src/stm32h5xx_hal_rtc_ex.c ****     {
 825:Drivers/STM32H5xx_HAL_Driver/Src/stm32h5xx_hal_rtc_ex.c ****       if (((HAL_GetTick() - tickstart) > Timeout) || (Timeout == 0U))
 1191              		.loc 1 825 7 is_stmt 1 view .LVU358
 1192              		.loc 1 825 13 is_stmt 0 view .LVU359
 1193 001a FFF7FEFF 		bl	HAL_GetTick
 1194              	.LVL84:
 1195              		.loc 1 825 27 discriminator 1 view .LVU360
 1196 001e 401B     		subs	r0, r0, r5
 1197              		.loc 1 825 10 discriminator 1 view .LVU361
 1198 0020 A042     		cmp	r0, r4
 1199 0022 01D8     		bhi	.L90
 1200              		.loc 1 825 51 discriminator 1 view .LVU362
 1201 0024 002C     		cmp	r4, #0
 1202 0026 F0D1     		bne	.L89
 1203              	.L90:
 826:Drivers/STM32H5xx_HAL_Driver/Src/stm32h5xx_hal_rtc_ex.c ****       {
 827:Drivers/STM32H5xx_HAL_Driver/Src/stm32h5xx_hal_rtc_ex.c ****         /* New check to avoid false timeout detection in case of preemption */
 828:Drivers/STM32H5xx_HAL_Driver/Src/stm32h5xx_hal_rtc_ex.c ****         if (READ_BIT(RTC->SR, RTC_SR_WUTF) == 0U)
 1204              		.loc 1 828 9 is_stmt 1 view .LVU363
 1205              		.loc 1 828 13 is_stmt 0 view .LVU364
 1206 0028 054B     		ldr	r3, .L97
 1207 002a 1B6D     		ldr	r3, [r3, #80]
 1208              		.loc 1 828 12 view .LVU365
 1209 002c 13F0040F 		tst	r3, #4
 1210 0030 04D0     		beq	.L96
 1211              	.L92:
 829:Drivers/STM32H5xx_HAL_Driver/Src/stm32h5xx_hal_rtc_ex.c ****         {
 830:Drivers/STM32H5xx_HAL_Driver/Src/stm32h5xx_hal_rtc_ex.c ****           return HAL_TIMEOUT;
 831:Drivers/STM32H5xx_HAL_Driver/Src/stm32h5xx_hal_rtc_ex.c ****         }
 832:Drivers/STM32H5xx_HAL_Driver/Src/stm32h5xx_hal_rtc_ex.c ****         else
 833:Drivers/STM32H5xx_HAL_Driver/Src/stm32h5xx_hal_rtc_ex.c ****         {
 834:Drivers/STM32H5xx_HAL_Driver/Src/stm32h5xx_hal_rtc_ex.c ****           break;
ARM GAS  C:\Users\DELL\AppData\Local\Temp\ccMtHSyM.s 			page 38


 835:Drivers/STM32H5xx_HAL_Driver/Src/stm32h5xx_hal_rtc_ex.c ****         }
 836:Drivers/STM32H5xx_HAL_Driver/Src/stm32h5xx_hal_rtc_ex.c ****       }
 837:Drivers/STM32H5xx_HAL_Driver/Src/stm32h5xx_hal_rtc_ex.c ****     }
 838:Drivers/STM32H5xx_HAL_Driver/Src/stm32h5xx_hal_rtc_ex.c ****   }
 839:Drivers/STM32H5xx_HAL_Driver/Src/stm32h5xx_hal_rtc_ex.c **** 
 840:Drivers/STM32H5xx_HAL_Driver/Src/stm32h5xx_hal_rtc_ex.c ****   /* Clear the WAKEUPTIMER Flag */
 841:Drivers/STM32H5xx_HAL_Driver/Src/stm32h5xx_hal_rtc_ex.c ****   WRITE_REG(RTC->SCR, RTC_SCR_CWUTF);
 1212              		.loc 1 841 3 is_stmt 1 view .LVU366
 1213 0032 034B     		ldr	r3, .L97
 1214 0034 0422     		movs	r2, #4
 1215 0036 DA65     		str	r2, [r3, #92]
 842:Drivers/STM32H5xx_HAL_Driver/Src/stm32h5xx_hal_rtc_ex.c **** 
 843:Drivers/STM32H5xx_HAL_Driver/Src/stm32h5xx_hal_rtc_ex.c ****   return HAL_OK;
 1216              		.loc 1 843 3 view .LVU367
 1217              		.loc 1 843 10 is_stmt 0 view .LVU368
 1218 0038 0020     		movs	r0, #0
 1219              	.L91:
 844:Drivers/STM32H5xx_HAL_Driver/Src/stm32h5xx_hal_rtc_ex.c **** }
 1220              		.loc 1 844 1 view .LVU369
 1221 003a 38BD     		pop	{r3, r4, r5, pc}
 1222              	.LVL85:
 1223              	.L96:
 830:Drivers/STM32H5xx_HAL_Driver/Src/stm32h5xx_hal_rtc_ex.c ****         }
 1224              		.loc 1 830 18 view .LVU370
 1225 003c 0320     		movs	r0, #3
 1226 003e FCE7     		b	.L91
 1227              	.L98:
 1228              		.align	2
 1229              	.L97:
 1230 0040 00780044 		.word	1140881408
 1231              		.cfi_endproc
 1232              	.LFE312:
 1234              		.section	.text.HAL_RTCEx_SetSmoothCalib,"ax",%progbits
 1235              		.align	1
 1236              		.global	HAL_RTCEx_SetSmoothCalib
 1237              		.syntax unified
 1238              		.thumb
 1239              		.thumb_func
 1241              	HAL_RTCEx_SetSmoothCalib:
 1242              	.LVL86:
 1243              	.LFB313:
 845:Drivers/STM32H5xx_HAL_Driver/Src/stm32h5xx_hal_rtc_ex.c **** 
 846:Drivers/STM32H5xx_HAL_Driver/Src/stm32h5xx_hal_rtc_ex.c **** /**
 847:Drivers/STM32H5xx_HAL_Driver/Src/stm32h5xx_hal_rtc_ex.c ****   * @}
 848:Drivers/STM32H5xx_HAL_Driver/Src/stm32h5xx_hal_rtc_ex.c ****   */
 849:Drivers/STM32H5xx_HAL_Driver/Src/stm32h5xx_hal_rtc_ex.c **** 
 850:Drivers/STM32H5xx_HAL_Driver/Src/stm32h5xx_hal_rtc_ex.c **** /** @addtogroup RTCEx_Exported_Functions_Group3
 851:Drivers/STM32H5xx_HAL_Driver/Src/stm32h5xx_hal_rtc_ex.c ****   * @brief    Extended Peripheral Control functions
 852:Drivers/STM32H5xx_HAL_Driver/Src/stm32h5xx_hal_rtc_ex.c ****   *
 853:Drivers/STM32H5xx_HAL_Driver/Src/stm32h5xx_hal_rtc_ex.c **** @verbatim
 854:Drivers/STM32H5xx_HAL_Driver/Src/stm32h5xx_hal_rtc_ex.c ****  ===============================================================================
 855:Drivers/STM32H5xx_HAL_Driver/Src/stm32h5xx_hal_rtc_ex.c ****               ##### Extended Peripheral Control functions #####
 856:Drivers/STM32H5xx_HAL_Driver/Src/stm32h5xx_hal_rtc_ex.c ****  ===============================================================================
 857:Drivers/STM32H5xx_HAL_Driver/Src/stm32h5xx_hal_rtc_ex.c ****     [..]
 858:Drivers/STM32H5xx_HAL_Driver/Src/stm32h5xx_hal_rtc_ex.c ****     This subsection provides functions allowing to
 859:Drivers/STM32H5xx_HAL_Driver/Src/stm32h5xx_hal_rtc_ex.c ****       (+) Write a data in a specified RTC Backup data register
 860:Drivers/STM32H5xx_HAL_Driver/Src/stm32h5xx_hal_rtc_ex.c ****       (+) Read a data in a specified RTC Backup data register
ARM GAS  C:\Users\DELL\AppData\Local\Temp\ccMtHSyM.s 			page 39


 861:Drivers/STM32H5xx_HAL_Driver/Src/stm32h5xx_hal_rtc_ex.c ****       (+) Set the Coarse calibration parameters.
 862:Drivers/STM32H5xx_HAL_Driver/Src/stm32h5xx_hal_rtc_ex.c ****       (+) Deactivate the Coarse calibration parameters
 863:Drivers/STM32H5xx_HAL_Driver/Src/stm32h5xx_hal_rtc_ex.c ****       (+) Set the Smooth calibration parameters.
 864:Drivers/STM32H5xx_HAL_Driver/Src/stm32h5xx_hal_rtc_ex.c ****       (+) Set Low Power calibration parameter.
 865:Drivers/STM32H5xx_HAL_Driver/Src/stm32h5xx_hal_rtc_ex.c ****       (+) Configure the Synchronization Shift Control Settings.
 866:Drivers/STM32H5xx_HAL_Driver/Src/stm32h5xx_hal_rtc_ex.c ****       (+) Configure the Calibration Pinout (RTC_CALIB) Selection (1Hz or 512Hz).
 867:Drivers/STM32H5xx_HAL_Driver/Src/stm32h5xx_hal_rtc_ex.c ****       (+) Deactivate the Calibration Pinout (RTC_CALIB) Selection (1Hz or 512Hz).
 868:Drivers/STM32H5xx_HAL_Driver/Src/stm32h5xx_hal_rtc_ex.c ****       (+) Enable the RTC reference clock detection.
 869:Drivers/STM32H5xx_HAL_Driver/Src/stm32h5xx_hal_rtc_ex.c ****       (+) Disable the RTC reference clock detection.
 870:Drivers/STM32H5xx_HAL_Driver/Src/stm32h5xx_hal_rtc_ex.c ****       (+) Enable the Bypass Shadow feature.
 871:Drivers/STM32H5xx_HAL_Driver/Src/stm32h5xx_hal_rtc_ex.c ****       (+) Disable the Bypass Shadow feature.
 872:Drivers/STM32H5xx_HAL_Driver/Src/stm32h5xx_hal_rtc_ex.c **** 
 873:Drivers/STM32H5xx_HAL_Driver/Src/stm32h5xx_hal_rtc_ex.c **** @endverbatim
 874:Drivers/STM32H5xx_HAL_Driver/Src/stm32h5xx_hal_rtc_ex.c ****   * @{
 875:Drivers/STM32H5xx_HAL_Driver/Src/stm32h5xx_hal_rtc_ex.c ****   */
 876:Drivers/STM32H5xx_HAL_Driver/Src/stm32h5xx_hal_rtc_ex.c **** 
 877:Drivers/STM32H5xx_HAL_Driver/Src/stm32h5xx_hal_rtc_ex.c **** /**
 878:Drivers/STM32H5xx_HAL_Driver/Src/stm32h5xx_hal_rtc_ex.c ****   * @brief  Set the Smooth calibration parameters.
 879:Drivers/STM32H5xx_HAL_Driver/Src/stm32h5xx_hal_rtc_ex.c ****   * @note   To deactivate the smooth calibration, the field SmoothCalibPlusPulses
 880:Drivers/STM32H5xx_HAL_Driver/Src/stm32h5xx_hal_rtc_ex.c ****   *         must be equal to SMOOTHCALIB_PLUSPULSES_RESET and the field
 881:Drivers/STM32H5xx_HAL_Driver/Src/stm32h5xx_hal_rtc_ex.c ****   *         SmoothCalibMinusPulsesValue must be equal to 0.
 882:Drivers/STM32H5xx_HAL_Driver/Src/stm32h5xx_hal_rtc_ex.c ****   * @param  hrtc RTC handle
 883:Drivers/STM32H5xx_HAL_Driver/Src/stm32h5xx_hal_rtc_ex.c ****   * @param  SmoothCalibPeriod  Select the Smooth Calibration Period.
 884:Drivers/STM32H5xx_HAL_Driver/Src/stm32h5xx_hal_rtc_ex.c ****   *          This parameter can be one of the following values :
 885:Drivers/STM32H5xx_HAL_Driver/Src/stm32h5xx_hal_rtc_ex.c ****   *             @arg RTC_SMOOTHCALIB_PERIOD_32SEC: The smooth calibration period is 32s.
 886:Drivers/STM32H5xx_HAL_Driver/Src/stm32h5xx_hal_rtc_ex.c ****   *             @arg RTC_SMOOTHCALIB_PERIOD_16SEC: The smooth calibration period is 16s.
 887:Drivers/STM32H5xx_HAL_Driver/Src/stm32h5xx_hal_rtc_ex.c ****   *             @arg RTC_SMOOTHCALIB_PERIOD_8SEC: The smooth calibration period is 8s.
 888:Drivers/STM32H5xx_HAL_Driver/Src/stm32h5xx_hal_rtc_ex.c ****   * @param  SmoothCalibPlusPulses  Select to Set or reset the CALP bit.
 889:Drivers/STM32H5xx_HAL_Driver/Src/stm32h5xx_hal_rtc_ex.c ****   *          This parameter can be one of the following values:
 890:Drivers/STM32H5xx_HAL_Driver/Src/stm32h5xx_hal_rtc_ex.c ****   *             @arg RTC_SMOOTHCALIB_PLUSPULSES_SET: Add one RTCCLK pulse every 2*11 pulses.
 891:Drivers/STM32H5xx_HAL_Driver/Src/stm32h5xx_hal_rtc_ex.c ****   *             @arg RTC_SMOOTHCALIB_PLUSPULSES_RESET: No RTCCLK pulses are added.
 892:Drivers/STM32H5xx_HAL_Driver/Src/stm32h5xx_hal_rtc_ex.c ****   * @param  SmoothCalibMinusPulsesValue  Select the value of CALM[8:0] bits.
 893:Drivers/STM32H5xx_HAL_Driver/Src/stm32h5xx_hal_rtc_ex.c ****   *          This parameter can be one any value from 0 to 0x000001FF.
 894:Drivers/STM32H5xx_HAL_Driver/Src/stm32h5xx_hal_rtc_ex.c ****   * @retval HAL status
 895:Drivers/STM32H5xx_HAL_Driver/Src/stm32h5xx_hal_rtc_ex.c ****   */
 896:Drivers/STM32H5xx_HAL_Driver/Src/stm32h5xx_hal_rtc_ex.c **** HAL_StatusTypeDef HAL_RTCEx_SetSmoothCalib(RTC_HandleTypeDef *hrtc, uint32_t SmoothCalibPeriod,
 897:Drivers/STM32H5xx_HAL_Driver/Src/stm32h5xx_hal_rtc_ex.c ****                                            uint32_t SmoothCalibPlusPulses, uint32_t SmoothCalibMinu
 898:Drivers/STM32H5xx_HAL_Driver/Src/stm32h5xx_hal_rtc_ex.c **** {
 1244              		.loc 1 898 1 is_stmt 1 view -0
 1245              		.cfi_startproc
 1246              		@ args = 0, pretend = 0, frame = 0
 1247              		@ frame_needed = 0, uses_anonymous_args = 0
 1248              		.loc 1 898 1 is_stmt 0 view .LVU372
 1249 0000 2DE9F843 		push	{r3, r4, r5, r6, r7, r8, r9, lr}
 1250              	.LCFI7:
 1251              		.cfi_def_cfa_offset 32
 1252              		.cfi_offset 3, -32
 1253              		.cfi_offset 4, -28
 1254              		.cfi_offset 5, -24
 1255              		.cfi_offset 6, -20
 1256              		.cfi_offset 7, -16
 1257              		.cfi_offset 8, -12
 1258              		.cfi_offset 9, -8
 1259              		.cfi_offset 14, -4
 1260 0004 9846     		mov	r8, r3
 899:Drivers/STM32H5xx_HAL_Driver/Src/stm32h5xx_hal_rtc_ex.c ****   uint32_t tickstart;
 1261              		.loc 1 899 3 is_stmt 1 view .LVU373
ARM GAS  C:\Users\DELL\AppData\Local\Temp\ccMtHSyM.s 			page 40


 900:Drivers/STM32H5xx_HAL_Driver/Src/stm32h5xx_hal_rtc_ex.c **** 
 901:Drivers/STM32H5xx_HAL_Driver/Src/stm32h5xx_hal_rtc_ex.c ****   /* Check the parameters */
 902:Drivers/STM32H5xx_HAL_Driver/Src/stm32h5xx_hal_rtc_ex.c ****   assert_param(IS_RTC_SMOOTH_CALIB_PERIOD(SmoothCalibPeriod));
 1262              		.loc 1 902 3 view .LVU374
 903:Drivers/STM32H5xx_HAL_Driver/Src/stm32h5xx_hal_rtc_ex.c ****   assert_param(IS_RTC_SMOOTH_CALIB_PLUS(SmoothCalibPlusPulses));
 1263              		.loc 1 903 3 view .LVU375
 904:Drivers/STM32H5xx_HAL_Driver/Src/stm32h5xx_hal_rtc_ex.c ****   assert_param(IS_RTC_SMOOTH_CALIB_MINUS(SmoothCalibMinusPulsesValue));
 1264              		.loc 1 904 3 view .LVU376
 905:Drivers/STM32H5xx_HAL_Driver/Src/stm32h5xx_hal_rtc_ex.c **** 
 906:Drivers/STM32H5xx_HAL_Driver/Src/stm32h5xx_hal_rtc_ex.c ****   /* Process Locked */
 907:Drivers/STM32H5xx_HAL_Driver/Src/stm32h5xx_hal_rtc_ex.c ****   __HAL_LOCK(hrtc);
 1265              		.loc 1 907 3 view .LVU377
 1266              		.loc 1 907 3 view .LVU378
 1267 0006 90F82C30 		ldrb	r3, [r0, #44]	@ zero_extendqisi2
 1268              	.LVL87:
 1269              		.loc 1 907 3 is_stmt 0 view .LVU379
 1270 000a 012B     		cmp	r3, #1
 1271 000c 3DD0     		beq	.L104
 1272 000e 0646     		mov	r6, r0
 1273 0010 0F46     		mov	r7, r1
 1274 0012 9146     		mov	r9, r2
 1275              		.loc 1 907 3 is_stmt 1 discriminator 2 view .LVU380
 1276 0014 0123     		movs	r3, #1
 1277 0016 80F82C30 		strb	r3, [r0, #44]
 1278              		.loc 1 907 3 view .LVU381
 908:Drivers/STM32H5xx_HAL_Driver/Src/stm32h5xx_hal_rtc_ex.c **** 
 909:Drivers/STM32H5xx_HAL_Driver/Src/stm32h5xx_hal_rtc_ex.c ****   /* Change RTC state */
 910:Drivers/STM32H5xx_HAL_Driver/Src/stm32h5xx_hal_rtc_ex.c ****   hrtc->State = HAL_RTC_STATE_BUSY;
 1279              		.loc 1 910 3 view .LVU382
 1280              		.loc 1 910 15 is_stmt 0 view .LVU383
 1281 001a 0223     		movs	r3, #2
 1282 001c 80F82D30 		strb	r3, [r0, #45]
 911:Drivers/STM32H5xx_HAL_Driver/Src/stm32h5xx_hal_rtc_ex.c **** 
 912:Drivers/STM32H5xx_HAL_Driver/Src/stm32h5xx_hal_rtc_ex.c ****   tickstart = HAL_GetTick();
 1283              		.loc 1 912 3 is_stmt 1 view .LVU384
 1284              		.loc 1 912 15 is_stmt 0 view .LVU385
 1285 0020 FFF7FEFF 		bl	HAL_GetTick
 1286              	.LVL88:
 1287              		.loc 1 912 15 view .LVU386
 1288 0024 0546     		mov	r5, r0
 1289              	.LVL89:
 913:Drivers/STM32H5xx_HAL_Driver/Src/stm32h5xx_hal_rtc_ex.c **** 
 914:Drivers/STM32H5xx_HAL_Driver/Src/stm32h5xx_hal_rtc_ex.c ****   /* check if a calibration is pending */
 915:Drivers/STM32H5xx_HAL_Driver/Src/stm32h5xx_hal_rtc_ex.c ****   while (READ_BIT(RTC->ICSR, RTC_ICSR_RECALPF) != 0U)
 1290              		.loc 1 915 3 is_stmt 1 view .LVU387
 1291              	.L101:
 1292              		.loc 1 915 48 view .LVU388
 1293              		.loc 1 915 10 is_stmt 0 view .LVU389
 1294 0026 1A4B     		ldr	r3, .L107
 1295 0028 DC68     		ldr	r4, [r3, #12]
 1296              		.loc 1 915 48 view .LVU390
 1297 002a 14F4803F 		tst	r4, #65536
 1298 002e 0BD0     		beq	.L102
 916:Drivers/STM32H5xx_HAL_Driver/Src/stm32h5xx_hal_rtc_ex.c ****   {
 917:Drivers/STM32H5xx_HAL_Driver/Src/stm32h5xx_hal_rtc_ex.c ****     if ((HAL_GetTick() - tickstart) > RTC_TIMEOUT_VALUE)
 1299              		.loc 1 917 5 is_stmt 1 view .LVU391
 1300              		.loc 1 917 10 is_stmt 0 view .LVU392
ARM GAS  C:\Users\DELL\AppData\Local\Temp\ccMtHSyM.s 			page 41


 1301 0030 FFF7FEFF 		bl	HAL_GetTick
 1302              	.LVL90:
 1303              		.loc 1 917 24 discriminator 1 view .LVU393
 1304 0034 A0EB050C 		sub	ip, r0, r5
 1305              		.loc 1 917 8 discriminator 1 view .LVU394
 1306 0038 BCF57A7F 		cmp	ip, #1000
 1307 003c F3D9     		bls	.L101
 918:Drivers/STM32H5xx_HAL_Driver/Src/stm32h5xx_hal_rtc_ex.c ****     {
 919:Drivers/STM32H5xx_HAL_Driver/Src/stm32h5xx_hal_rtc_ex.c ****       /* New check to avoid false timeout detection in case of preemption */
 920:Drivers/STM32H5xx_HAL_Driver/Src/stm32h5xx_hal_rtc_ex.c ****       if (READ_BIT(RTC->ICSR, RTC_ICSR_RECALPF) != 0U)
 1308              		.loc 1 920 7 is_stmt 1 view .LVU395
 1309              		.loc 1 920 11 is_stmt 0 view .LVU396
 1310 003e 144B     		ldr	r3, .L107
 1311 0040 DB68     		ldr	r3, [r3, #12]
 1312              		.loc 1 920 10 view .LVU397
 1313 0042 13F4803F 		tst	r3, #65536
 1314 0046 19D1     		bne	.L106
 1315              	.L102:
 921:Drivers/STM32H5xx_HAL_Driver/Src/stm32h5xx_hal_rtc_ex.c ****       {
 922:Drivers/STM32H5xx_HAL_Driver/Src/stm32h5xx_hal_rtc_ex.c **** 
 923:Drivers/STM32H5xx_HAL_Driver/Src/stm32h5xx_hal_rtc_ex.c ****         /* Change RTC state */
 924:Drivers/STM32H5xx_HAL_Driver/Src/stm32h5xx_hal_rtc_ex.c ****         hrtc->State = HAL_RTC_STATE_TIMEOUT;
 925:Drivers/STM32H5xx_HAL_Driver/Src/stm32h5xx_hal_rtc_ex.c **** 
 926:Drivers/STM32H5xx_HAL_Driver/Src/stm32h5xx_hal_rtc_ex.c ****         /* Process Unlocked */
 927:Drivers/STM32H5xx_HAL_Driver/Src/stm32h5xx_hal_rtc_ex.c ****         __HAL_UNLOCK(hrtc);
 928:Drivers/STM32H5xx_HAL_Driver/Src/stm32h5xx_hal_rtc_ex.c **** 
 929:Drivers/STM32H5xx_HAL_Driver/Src/stm32h5xx_hal_rtc_ex.c ****         return HAL_TIMEOUT;
 930:Drivers/STM32H5xx_HAL_Driver/Src/stm32h5xx_hal_rtc_ex.c ****       }
 931:Drivers/STM32H5xx_HAL_Driver/Src/stm32h5xx_hal_rtc_ex.c ****       else
 932:Drivers/STM32H5xx_HAL_Driver/Src/stm32h5xx_hal_rtc_ex.c ****       {
 933:Drivers/STM32H5xx_HAL_Driver/Src/stm32h5xx_hal_rtc_ex.c ****         break;
 934:Drivers/STM32H5xx_HAL_Driver/Src/stm32h5xx_hal_rtc_ex.c ****       }
 935:Drivers/STM32H5xx_HAL_Driver/Src/stm32h5xx_hal_rtc_ex.c ****     }
 936:Drivers/STM32H5xx_HAL_Driver/Src/stm32h5xx_hal_rtc_ex.c ****   }
 937:Drivers/STM32H5xx_HAL_Driver/Src/stm32h5xx_hal_rtc_ex.c **** 
 938:Drivers/STM32H5xx_HAL_Driver/Src/stm32h5xx_hal_rtc_ex.c ****   /* Disable the write protection for RTC registers */
 939:Drivers/STM32H5xx_HAL_Driver/Src/stm32h5xx_hal_rtc_ex.c ****   __HAL_RTC_WRITEPROTECTION_DISABLE(hrtc);
 1316              		.loc 1 939 3 is_stmt 1 view .LVU398
 1317              		.loc 1 939 3 view .LVU399
 1318 0048 114A     		ldr	r2, .L107
 1319 004a CA23     		movs	r3, #202
 1320 004c 5362     		str	r3, [r2, #36]
 1321              		.loc 1 939 3 view .LVU400
 1322 004e 5323     		movs	r3, #83
 1323 0050 5362     		str	r3, [r2, #36]
 1324              		.loc 1 939 3 view .LVU401
 940:Drivers/STM32H5xx_HAL_Driver/Src/stm32h5xx_hal_rtc_ex.c **** 
 941:Drivers/STM32H5xx_HAL_Driver/Src/stm32h5xx_hal_rtc_ex.c ****   /* Configure the Smooth calibration settings */
 942:Drivers/STM32H5xx_HAL_Driver/Src/stm32h5xx_hal_rtc_ex.c ****   MODIFY_REG(RTC->CALR, (RTC_CALR_CALP | RTC_CALR_CALW8 | RTC_CALR_CALW16 | RTC_CALR_CALM),
 1325              		.loc 1 942 3 view .LVU402
 1326 0052 936A     		ldr	r3, [r2, #40]
 1327 0054 23F46143 		bic	r3, r3, #57600
 1328 0058 23F0FF03 		bic	r3, r3, #255
 1329 005c 47EA0907 		orr	r7, r7, r9
 1330              	.LVL91:
 1331              		.loc 1 942 3 is_stmt 0 view .LVU403
 1332 0060 47EA0807 		orr	r7, r7, r8
ARM GAS  C:\Users\DELL\AppData\Local\Temp\ccMtHSyM.s 			page 42


 1333 0064 3B43     		orrs	r3, r3, r7
 1334 0066 9362     		str	r3, [r2, #40]
 943:Drivers/STM32H5xx_HAL_Driver/Src/stm32h5xx_hal_rtc_ex.c ****              (uint32_t)(SmoothCalibPeriod | SmoothCalibPlusPulses | SmoothCalibMinusPulsesValue));
 944:Drivers/STM32H5xx_HAL_Driver/Src/stm32h5xx_hal_rtc_ex.c **** 
 945:Drivers/STM32H5xx_HAL_Driver/Src/stm32h5xx_hal_rtc_ex.c ****   /* Enable the write protection for RTC registers */
 946:Drivers/STM32H5xx_HAL_Driver/Src/stm32h5xx_hal_rtc_ex.c ****   __HAL_RTC_WRITEPROTECTION_ENABLE(hrtc);
 1335              		.loc 1 946 3 is_stmt 1 view .LVU404
 1336              		.loc 1 946 3 view .LVU405
 1337 0068 FF23     		movs	r3, #255
 1338 006a 5362     		str	r3, [r2, #36]
 1339              		.loc 1 946 3 view .LVU406
 947:Drivers/STM32H5xx_HAL_Driver/Src/stm32h5xx_hal_rtc_ex.c **** 
 948:Drivers/STM32H5xx_HAL_Driver/Src/stm32h5xx_hal_rtc_ex.c ****   /* Change RTC state */
 949:Drivers/STM32H5xx_HAL_Driver/Src/stm32h5xx_hal_rtc_ex.c ****   hrtc->State = HAL_RTC_STATE_READY;
 1340              		.loc 1 949 3 view .LVU407
 1341              		.loc 1 949 15 is_stmt 0 view .LVU408
 1342 006c 0123     		movs	r3, #1
 1343 006e 86F82D30 		strb	r3, [r6, #45]
 950:Drivers/STM32H5xx_HAL_Driver/Src/stm32h5xx_hal_rtc_ex.c **** 
 951:Drivers/STM32H5xx_HAL_Driver/Src/stm32h5xx_hal_rtc_ex.c ****   /* Process Unlocked */
 952:Drivers/STM32H5xx_HAL_Driver/Src/stm32h5xx_hal_rtc_ex.c ****   __HAL_UNLOCK(hrtc);
 1344              		.loc 1 952 3 is_stmt 1 view .LVU409
 1345              		.loc 1 952 3 view .LVU410
 1346 0072 0020     		movs	r0, #0
 1347 0074 86F82C00 		strb	r0, [r6, #44]
 1348              		.loc 1 952 3 view .LVU411
 953:Drivers/STM32H5xx_HAL_Driver/Src/stm32h5xx_hal_rtc_ex.c **** 
 954:Drivers/STM32H5xx_HAL_Driver/Src/stm32h5xx_hal_rtc_ex.c ****   return HAL_OK;
 1349              		.loc 1 954 3 view .LVU412
 1350              	.LVL92:
 1351              	.L100:
 955:Drivers/STM32H5xx_HAL_Driver/Src/stm32h5xx_hal_rtc_ex.c **** }
 1352              		.loc 1 955 1 is_stmt 0 view .LVU413
 1353 0078 BDE8F883 		pop	{r3, r4, r5, r6, r7, r8, r9, pc}
 1354              	.LVL93:
 1355              	.L106:
 924:Drivers/STM32H5xx_HAL_Driver/Src/stm32h5xx_hal_rtc_ex.c **** 
 1356              		.loc 1 924 9 is_stmt 1 view .LVU414
 924:Drivers/STM32H5xx_HAL_Driver/Src/stm32h5xx_hal_rtc_ex.c **** 
 1357              		.loc 1 924 21 is_stmt 0 view .LVU415
 1358 007c 0320     		movs	r0, #3
 1359 007e 86F82D00 		strb	r0, [r6, #45]
 927:Drivers/STM32H5xx_HAL_Driver/Src/stm32h5xx_hal_rtc_ex.c **** 
 1360              		.loc 1 927 9 is_stmt 1 view .LVU416
 927:Drivers/STM32H5xx_HAL_Driver/Src/stm32h5xx_hal_rtc_ex.c **** 
 1361              		.loc 1 927 9 view .LVU417
 1362 0082 0023     		movs	r3, #0
 1363 0084 86F82C30 		strb	r3, [r6, #44]
 927:Drivers/STM32H5xx_HAL_Driver/Src/stm32h5xx_hal_rtc_ex.c **** 
 1364              		.loc 1 927 9 view .LVU418
 929:Drivers/STM32H5xx_HAL_Driver/Src/stm32h5xx_hal_rtc_ex.c ****       }
 1365              		.loc 1 929 9 view .LVU419
 929:Drivers/STM32H5xx_HAL_Driver/Src/stm32h5xx_hal_rtc_ex.c ****       }
 1366              		.loc 1 929 16 is_stmt 0 view .LVU420
 1367 0088 F6E7     		b	.L100
 1368              	.LVL94:
 1369              	.L104:
ARM GAS  C:\Users\DELL\AppData\Local\Temp\ccMtHSyM.s 			page 43


 907:Drivers/STM32H5xx_HAL_Driver/Src/stm32h5xx_hal_rtc_ex.c **** 
 1370              		.loc 1 907 3 discriminator 1 view .LVU421
 1371 008a 0220     		movs	r0, #2
 1372              	.LVL95:
 907:Drivers/STM32H5xx_HAL_Driver/Src/stm32h5xx_hal_rtc_ex.c **** 
 1373              		.loc 1 907 3 discriminator 1 view .LVU422
 1374 008c F4E7     		b	.L100
 1375              	.L108:
 1376 008e 00BF     		.align	2
 1377              	.L107:
 1378 0090 00780044 		.word	1140881408
 1379              		.cfi_endproc
 1380              	.LFE313:
 1382              		.section	.text.HAL_RTCEx_SetLowPowerCalib,"ax",%progbits
 1383              		.align	1
 1384              		.global	HAL_RTCEx_SetLowPowerCalib
 1385              		.syntax unified
 1386              		.thumb
 1387              		.thumb_func
 1389              	HAL_RTCEx_SetLowPowerCalib:
 1390              	.LVL96:
 1391              	.LFB314:
 956:Drivers/STM32H5xx_HAL_Driver/Src/stm32h5xx_hal_rtc_ex.c **** 
 957:Drivers/STM32H5xx_HAL_Driver/Src/stm32h5xx_hal_rtc_ex.c **** /**
 958:Drivers/STM32H5xx_HAL_Driver/Src/stm32h5xx_hal_rtc_ex.c ****   * @brief  Select the low power Calibration mode.
 959:Drivers/STM32H5xx_HAL_Driver/Src/stm32h5xx_hal_rtc_ex.c ****   * @param  hrtc: RTC handle
 960:Drivers/STM32H5xx_HAL_Driver/Src/stm32h5xx_hal_rtc_ex.c ****   * @param  LowPowerCalib: Low power Calibration mode.
 961:Drivers/STM32H5xx_HAL_Driver/Src/stm32h5xx_hal_rtc_ex.c ****   *          This parameter can be one of the following values :
 962:Drivers/STM32H5xx_HAL_Driver/Src/stm32h5xx_hal_rtc_ex.c ****   *             @arg RTC_LPCAL_SET: Low power mode.
 963:Drivers/STM32H5xx_HAL_Driver/Src/stm32h5xx_hal_rtc_ex.c ****   *             @arg RTC_LPCAL_RESET: High consumption mode.
 964:Drivers/STM32H5xx_HAL_Driver/Src/stm32h5xx_hal_rtc_ex.c ****   * @retval HAL status
 965:Drivers/STM32H5xx_HAL_Driver/Src/stm32h5xx_hal_rtc_ex.c ****   */
 966:Drivers/STM32H5xx_HAL_Driver/Src/stm32h5xx_hal_rtc_ex.c **** HAL_StatusTypeDef HAL_RTCEx_SetLowPowerCalib(RTC_HandleTypeDef *hrtc, uint32_t LowPowerCalib)
 967:Drivers/STM32H5xx_HAL_Driver/Src/stm32h5xx_hal_rtc_ex.c **** {
 1392              		.loc 1 967 1 is_stmt 1 view -0
 1393              		.cfi_startproc
 1394              		@ args = 0, pretend = 0, frame = 0
 1395              		@ frame_needed = 0, uses_anonymous_args = 0
 1396              		@ link register save eliminated.
 1397              		.loc 1 967 1 is_stmt 0 view .LVU424
 1398 0000 0346     		mov	r3, r0
 968:Drivers/STM32H5xx_HAL_Driver/Src/stm32h5xx_hal_rtc_ex.c ****   /* Check the parameters */
 969:Drivers/STM32H5xx_HAL_Driver/Src/stm32h5xx_hal_rtc_ex.c ****   assert_param(IS_RTC_LOW_POWER_CALIB(LowPowerCalib));
 1399              		.loc 1 969 3 is_stmt 1 view .LVU425
 970:Drivers/STM32H5xx_HAL_Driver/Src/stm32h5xx_hal_rtc_ex.c **** 
 971:Drivers/STM32H5xx_HAL_Driver/Src/stm32h5xx_hal_rtc_ex.c ****   /* Process Locked */
 972:Drivers/STM32H5xx_HAL_Driver/Src/stm32h5xx_hal_rtc_ex.c ****   __HAL_LOCK(hrtc);
 1400              		.loc 1 972 3 view .LVU426
 1401              		.loc 1 972 3 view .LVU427
 1402 0002 90F82C20 		ldrb	r2, [r0, #44]	@ zero_extendqisi2
 1403 0006 012A     		cmp	r2, #1
 1404 0008 18D0     		beq	.L111
 1405              		.loc 1 972 3 discriminator 2 view .LVU428
 1406 000a 4FF0010C 		mov	ip, #1
 1407 000e 80F82CC0 		strb	ip, [r0, #44]
 1408              		.loc 1 972 3 view .LVU429
 973:Drivers/STM32H5xx_HAL_Driver/Src/stm32h5xx_hal_rtc_ex.c **** 
ARM GAS  C:\Users\DELL\AppData\Local\Temp\ccMtHSyM.s 			page 44


 974:Drivers/STM32H5xx_HAL_Driver/Src/stm32h5xx_hal_rtc_ex.c ****   /* Change RTC state */
 975:Drivers/STM32H5xx_HAL_Driver/Src/stm32h5xx_hal_rtc_ex.c ****   hrtc->State = HAL_RTC_STATE_BUSY;
 1409              		.loc 1 975 3 view .LVU430
 1410              		.loc 1 975 15 is_stmt 0 view .LVU431
 1411 0012 0222     		movs	r2, #2
 1412 0014 80F82D20 		strb	r2, [r0, #45]
 976:Drivers/STM32H5xx_HAL_Driver/Src/stm32h5xx_hal_rtc_ex.c **** 
 977:Drivers/STM32H5xx_HAL_Driver/Src/stm32h5xx_hal_rtc_ex.c ****   /* Disable the write protection for RTC registers */
 978:Drivers/STM32H5xx_HAL_Driver/Src/stm32h5xx_hal_rtc_ex.c ****   __HAL_RTC_WRITEPROTECTION_DISABLE(hrtc);
 1413              		.loc 1 978 3 is_stmt 1 view .LVU432
 1414              		.loc 1 978 3 view .LVU433
 1415 0018 094A     		ldr	r2, .L112
 1416 001a CA20     		movs	r0, #202
 1417              	.LVL97:
 1418              		.loc 1 978 3 is_stmt 0 view .LVU434
 1419 001c 5062     		str	r0, [r2, #36]
 1420              		.loc 1 978 3 is_stmt 1 view .LVU435
 1421 001e 5320     		movs	r0, #83
 1422 0020 5062     		str	r0, [r2, #36]
 1423              		.loc 1 978 3 view .LVU436
 979:Drivers/STM32H5xx_HAL_Driver/Src/stm32h5xx_hal_rtc_ex.c **** 
 980:Drivers/STM32H5xx_HAL_Driver/Src/stm32h5xx_hal_rtc_ex.c ****   /* Configure the Smooth calibration settings */
 981:Drivers/STM32H5xx_HAL_Driver/Src/stm32h5xx_hal_rtc_ex.c ****   MODIFY_REG(RTC->CALR, RTC_CALR_LPCAL, LowPowerCalib);
 1424              		.loc 1 981 3 view .LVU437
 1425 0022 906A     		ldr	r0, [r2, #40]
 1426 0024 20F48050 		bic	r0, r0, #4096
 1427 0028 0143     		orrs	r1, r1, r0
 1428              	.LVL98:
 1429              		.loc 1 981 3 is_stmt 0 view .LVU438
 1430 002a 9162     		str	r1, [r2, #40]
 982:Drivers/STM32H5xx_HAL_Driver/Src/stm32h5xx_hal_rtc_ex.c **** 
 983:Drivers/STM32H5xx_HAL_Driver/Src/stm32h5xx_hal_rtc_ex.c ****   /* Enable the write protection for RTC registers */
 984:Drivers/STM32H5xx_HAL_Driver/Src/stm32h5xx_hal_rtc_ex.c ****   __HAL_RTC_WRITEPROTECTION_ENABLE(hrtc);
 1431              		.loc 1 984 3 is_stmt 1 view .LVU439
 1432              		.loc 1 984 3 view .LVU440
 1433 002c FF21     		movs	r1, #255
 1434 002e 5162     		str	r1, [r2, #36]
 1435              		.loc 1 984 3 view .LVU441
 985:Drivers/STM32H5xx_HAL_Driver/Src/stm32h5xx_hal_rtc_ex.c **** 
 986:Drivers/STM32H5xx_HAL_Driver/Src/stm32h5xx_hal_rtc_ex.c ****   /* Change RTC state */
 987:Drivers/STM32H5xx_HAL_Driver/Src/stm32h5xx_hal_rtc_ex.c ****   hrtc->State = HAL_RTC_STATE_READY;
 1436              		.loc 1 987 3 view .LVU442
 1437              		.loc 1 987 15 is_stmt 0 view .LVU443
 1438 0030 83F82DC0 		strb	ip, [r3, #45]
 988:Drivers/STM32H5xx_HAL_Driver/Src/stm32h5xx_hal_rtc_ex.c **** 
 989:Drivers/STM32H5xx_HAL_Driver/Src/stm32h5xx_hal_rtc_ex.c ****   /* Process Unlocked */
 990:Drivers/STM32H5xx_HAL_Driver/Src/stm32h5xx_hal_rtc_ex.c ****   __HAL_UNLOCK(hrtc);
 1439              		.loc 1 990 3 is_stmt 1 view .LVU444
 1440              		.loc 1 990 3 view .LVU445
 1441 0034 0020     		movs	r0, #0
 1442 0036 83F82C00 		strb	r0, [r3, #44]
 1443              		.loc 1 990 3 view .LVU446
 991:Drivers/STM32H5xx_HAL_Driver/Src/stm32h5xx_hal_rtc_ex.c **** 
 992:Drivers/STM32H5xx_HAL_Driver/Src/stm32h5xx_hal_rtc_ex.c ****   return HAL_OK;
 1444              		.loc 1 992 3 view .LVU447
 1445              		.loc 1 992 10 is_stmt 0 view .LVU448
 1446 003a 7047     		bx	lr
ARM GAS  C:\Users\DELL\AppData\Local\Temp\ccMtHSyM.s 			page 45


 1447              	.LVL99:
 1448              	.L111:
 972:Drivers/STM32H5xx_HAL_Driver/Src/stm32h5xx_hal_rtc_ex.c **** 
 1449              		.loc 1 972 3 discriminator 1 view .LVU449
 1450 003c 0220     		movs	r0, #2
 1451              	.LVL100:
 993:Drivers/STM32H5xx_HAL_Driver/Src/stm32h5xx_hal_rtc_ex.c **** }
 1452              		.loc 1 993 1 view .LVU450
 1453 003e 7047     		bx	lr
 1454              	.L113:
 1455              		.align	2
 1456              	.L112:
 1457 0040 00780044 		.word	1140881408
 1458              		.cfi_endproc
 1459              	.LFE314:
 1461              		.section	.text.HAL_RTCEx_SetSynchroShift,"ax",%progbits
 1462              		.align	1
 1463              		.global	HAL_RTCEx_SetSynchroShift
 1464              		.syntax unified
 1465              		.thumb
 1466              		.thumb_func
 1468              	HAL_RTCEx_SetSynchroShift:
 1469              	.LVL101:
 1470              	.LFB315:
 994:Drivers/STM32H5xx_HAL_Driver/Src/stm32h5xx_hal_rtc_ex.c **** 
 995:Drivers/STM32H5xx_HAL_Driver/Src/stm32h5xx_hal_rtc_ex.c **** /**
 996:Drivers/STM32H5xx_HAL_Driver/Src/stm32h5xx_hal_rtc_ex.c ****   * @brief  Configure the Synchronization Shift Control Settings.
 997:Drivers/STM32H5xx_HAL_Driver/Src/stm32h5xx_hal_rtc_ex.c ****   * @note   When REFCKON is set, firmware must not write to Shift control register.
 998:Drivers/STM32H5xx_HAL_Driver/Src/stm32h5xx_hal_rtc_ex.c ****   * @param  hrtc RTC handle
 999:Drivers/STM32H5xx_HAL_Driver/Src/stm32h5xx_hal_rtc_ex.c ****   * @param  ShiftAdd1S Select to add or not 1 second to the time calendar.
1000:Drivers/STM32H5xx_HAL_Driver/Src/stm32h5xx_hal_rtc_ex.c ****   *          This parameter can be one of the following values:
1001:Drivers/STM32H5xx_HAL_Driver/Src/stm32h5xx_hal_rtc_ex.c ****   *             @arg RTC_SHIFTADD1S_SET: Add one second to the clock calendar.
1002:Drivers/STM32H5xx_HAL_Driver/Src/stm32h5xx_hal_rtc_ex.c ****   *             @arg RTC_SHIFTADD1S_RESET: No effect.
1003:Drivers/STM32H5xx_HAL_Driver/Src/stm32h5xx_hal_rtc_ex.c ****   * @param  ShiftSubFS Select the number of Second Fractions to substitute.
1004:Drivers/STM32H5xx_HAL_Driver/Src/stm32h5xx_hal_rtc_ex.c ****   *          This parameter can be one any value from 0 to 0x7FFF.
1005:Drivers/STM32H5xx_HAL_Driver/Src/stm32h5xx_hal_rtc_ex.c ****   * @retval HAL status
1006:Drivers/STM32H5xx_HAL_Driver/Src/stm32h5xx_hal_rtc_ex.c ****   */
1007:Drivers/STM32H5xx_HAL_Driver/Src/stm32h5xx_hal_rtc_ex.c **** HAL_StatusTypeDef HAL_RTCEx_SetSynchroShift(RTC_HandleTypeDef *hrtc, uint32_t ShiftAdd1S, uint32_t 
1008:Drivers/STM32H5xx_HAL_Driver/Src/stm32h5xx_hal_rtc_ex.c **** {
 1471              		.loc 1 1008 1 is_stmt 1 view -0
 1472              		.cfi_startproc
 1473              		@ args = 0, pretend = 0, frame = 0
 1474              		@ frame_needed = 0, uses_anonymous_args = 0
 1475              		.loc 1 1008 1 is_stmt 0 view .LVU452
 1476 0000 F8B5     		push	{r3, r4, r5, r6, r7, lr}
 1477              	.LCFI8:
 1478              		.cfi_def_cfa_offset 24
 1479              		.cfi_offset 3, -24
 1480              		.cfi_offset 4, -20
 1481              		.cfi_offset 5, -16
 1482              		.cfi_offset 6, -12
 1483              		.cfi_offset 7, -8
 1484              		.cfi_offset 14, -4
1009:Drivers/STM32H5xx_HAL_Driver/Src/stm32h5xx_hal_rtc_ex.c ****   uint32_t tickstart;
 1485              		.loc 1 1009 3 is_stmt 1 view .LVU453
1010:Drivers/STM32H5xx_HAL_Driver/Src/stm32h5xx_hal_rtc_ex.c **** 
1011:Drivers/STM32H5xx_HAL_Driver/Src/stm32h5xx_hal_rtc_ex.c ****   /* Check the parameters */
ARM GAS  C:\Users\DELL\AppData\Local\Temp\ccMtHSyM.s 			page 46


1012:Drivers/STM32H5xx_HAL_Driver/Src/stm32h5xx_hal_rtc_ex.c ****   assert_param(IS_RTC_SHIFT_ADD1S(ShiftAdd1S));
 1486              		.loc 1 1012 3 view .LVU454
1013:Drivers/STM32H5xx_HAL_Driver/Src/stm32h5xx_hal_rtc_ex.c ****   assert_param(IS_RTC_SHIFT_SUBFS(ShiftSubFS));
 1487              		.loc 1 1013 3 view .LVU455
1014:Drivers/STM32H5xx_HAL_Driver/Src/stm32h5xx_hal_rtc_ex.c **** 
1015:Drivers/STM32H5xx_HAL_Driver/Src/stm32h5xx_hal_rtc_ex.c ****   /* Process Locked */
1016:Drivers/STM32H5xx_HAL_Driver/Src/stm32h5xx_hal_rtc_ex.c ****   __HAL_LOCK(hrtc);
 1488              		.loc 1 1016 3 view .LVU456
 1489              		.loc 1 1016 3 view .LVU457
 1490 0002 90F82C30 		ldrb	r3, [r0, #44]	@ zero_extendqisi2
 1491 0006 012B     		cmp	r3, #1
 1492 0008 5BD0     		beq	.L121
 1493 000a 0546     		mov	r5, r0
 1494 000c 0F46     		mov	r7, r1
 1495 000e 1646     		mov	r6, r2
 1496              		.loc 1 1016 3 discriminator 2 view .LVU458
 1497 0010 0123     		movs	r3, #1
 1498 0012 80F82C30 		strb	r3, [r0, #44]
 1499              		.loc 1 1016 3 view .LVU459
1017:Drivers/STM32H5xx_HAL_Driver/Src/stm32h5xx_hal_rtc_ex.c **** 
1018:Drivers/STM32H5xx_HAL_Driver/Src/stm32h5xx_hal_rtc_ex.c ****   /* Change RTC state */
1019:Drivers/STM32H5xx_HAL_Driver/Src/stm32h5xx_hal_rtc_ex.c ****   hrtc->State = HAL_RTC_STATE_BUSY;
 1500              		.loc 1 1019 3 view .LVU460
 1501              		.loc 1 1019 15 is_stmt 0 view .LVU461
 1502 0016 0223     		movs	r3, #2
 1503 0018 80F82D30 		strb	r3, [r0, #45]
1020:Drivers/STM32H5xx_HAL_Driver/Src/stm32h5xx_hal_rtc_ex.c **** 
1021:Drivers/STM32H5xx_HAL_Driver/Src/stm32h5xx_hal_rtc_ex.c ****   tickstart = HAL_GetTick();
 1504              		.loc 1 1021 3 is_stmt 1 view .LVU462
 1505              		.loc 1 1021 15 is_stmt 0 view .LVU463
 1506 001c FFF7FEFF 		bl	HAL_GetTick
 1507              	.LVL102:
 1508              		.loc 1 1021 15 view .LVU464
 1509 0020 0446     		mov	r4, r0
 1510              	.LVL103:
1022:Drivers/STM32H5xx_HAL_Driver/Src/stm32h5xx_hal_rtc_ex.c **** 
1023:Drivers/STM32H5xx_HAL_Driver/Src/stm32h5xx_hal_rtc_ex.c ****   /* Wait until the shift is completed */
1024:Drivers/STM32H5xx_HAL_Driver/Src/stm32h5xx_hal_rtc_ex.c ****   while (READ_BIT(RTC->ICSR, RTC_ICSR_SHPF) != 0U)
 1511              		.loc 1 1024 3 is_stmt 1 view .LVU465
 1512              	.L116:
 1513              		.loc 1 1024 45 view .LVU466
 1514              		.loc 1 1024 10 is_stmt 0 view .LVU467
 1515 0022 294B     		ldr	r3, .L125
 1516 0024 DB68     		ldr	r3, [r3, #12]
 1517              		.loc 1 1024 45 view .LVU468
 1518 0026 13F0080F 		tst	r3, #8
 1519 002a 0AD0     		beq	.L117
1025:Drivers/STM32H5xx_HAL_Driver/Src/stm32h5xx_hal_rtc_ex.c ****   {
1026:Drivers/STM32H5xx_HAL_Driver/Src/stm32h5xx_hal_rtc_ex.c ****     if ((HAL_GetTick() - tickstart) > RTC_TIMEOUT_VALUE)
 1520              		.loc 1 1026 5 is_stmt 1 view .LVU469
 1521              		.loc 1 1026 10 is_stmt 0 view .LVU470
 1522 002c FFF7FEFF 		bl	HAL_GetTick
 1523              	.LVL104:
 1524              		.loc 1 1026 24 discriminator 1 view .LVU471
 1525 0030 031B     		subs	r3, r0, r4
 1526              		.loc 1 1026 8 discriminator 1 view .LVU472
 1527 0032 B3F57A7F 		cmp	r3, #1000
ARM GAS  C:\Users\DELL\AppData\Local\Temp\ccMtHSyM.s 			page 47


 1528 0036 F4D9     		bls	.L116
1027:Drivers/STM32H5xx_HAL_Driver/Src/stm32h5xx_hal_rtc_ex.c ****     {
1028:Drivers/STM32H5xx_HAL_Driver/Src/stm32h5xx_hal_rtc_ex.c ****       /* New check to avoid false timeout detection in case of preemption */
1029:Drivers/STM32H5xx_HAL_Driver/Src/stm32h5xx_hal_rtc_ex.c ****       if (READ_BIT(RTC->ICSR, RTC_ICSR_SHPF) != 0U)
 1529              		.loc 1 1029 7 is_stmt 1 view .LVU473
 1530              		.loc 1 1029 11 is_stmt 0 view .LVU474
 1531 0038 234B     		ldr	r3, .L125
 1532 003a DB68     		ldr	r3, [r3, #12]
 1533              		.loc 1 1029 10 view .LVU475
 1534 003c 13F0080F 		tst	r3, #8
 1535 0040 1DD1     		bne	.L123
 1536              	.L117:
1030:Drivers/STM32H5xx_HAL_Driver/Src/stm32h5xx_hal_rtc_ex.c ****       {
1031:Drivers/STM32H5xx_HAL_Driver/Src/stm32h5xx_hal_rtc_ex.c ****         /* Change RTC state */
1032:Drivers/STM32H5xx_HAL_Driver/Src/stm32h5xx_hal_rtc_ex.c ****         hrtc->State = HAL_RTC_STATE_TIMEOUT;
1033:Drivers/STM32H5xx_HAL_Driver/Src/stm32h5xx_hal_rtc_ex.c **** 
1034:Drivers/STM32H5xx_HAL_Driver/Src/stm32h5xx_hal_rtc_ex.c ****         /* Process Unlocked */
1035:Drivers/STM32H5xx_HAL_Driver/Src/stm32h5xx_hal_rtc_ex.c ****         __HAL_UNLOCK(hrtc);
1036:Drivers/STM32H5xx_HAL_Driver/Src/stm32h5xx_hal_rtc_ex.c **** 
1037:Drivers/STM32H5xx_HAL_Driver/Src/stm32h5xx_hal_rtc_ex.c ****         return HAL_TIMEOUT;
1038:Drivers/STM32H5xx_HAL_Driver/Src/stm32h5xx_hal_rtc_ex.c ****       }
1039:Drivers/STM32H5xx_HAL_Driver/Src/stm32h5xx_hal_rtc_ex.c ****       else
1040:Drivers/STM32H5xx_HAL_Driver/Src/stm32h5xx_hal_rtc_ex.c ****       {
1041:Drivers/STM32H5xx_HAL_Driver/Src/stm32h5xx_hal_rtc_ex.c ****         break;
1042:Drivers/STM32H5xx_HAL_Driver/Src/stm32h5xx_hal_rtc_ex.c ****       }
1043:Drivers/STM32H5xx_HAL_Driver/Src/stm32h5xx_hal_rtc_ex.c ****     }
1044:Drivers/STM32H5xx_HAL_Driver/Src/stm32h5xx_hal_rtc_ex.c ****   }
1045:Drivers/STM32H5xx_HAL_Driver/Src/stm32h5xx_hal_rtc_ex.c **** 
1046:Drivers/STM32H5xx_HAL_Driver/Src/stm32h5xx_hal_rtc_ex.c ****   /* Disable the write protection for RTC registers */
1047:Drivers/STM32H5xx_HAL_Driver/Src/stm32h5xx_hal_rtc_ex.c ****   __HAL_RTC_WRITEPROTECTION_DISABLE(hrtc);
 1537              		.loc 1 1047 3 is_stmt 1 view .LVU476
 1538              		.loc 1 1047 3 view .LVU477
 1539 0042 214B     		ldr	r3, .L125
 1540 0044 CA22     		movs	r2, #202
 1541 0046 5A62     		str	r2, [r3, #36]
 1542              		.loc 1 1047 3 view .LVU478
 1543 0048 5322     		movs	r2, #83
 1544 004a 5A62     		str	r2, [r3, #36]
 1545              		.loc 1 1047 3 view .LVU479
1048:Drivers/STM32H5xx_HAL_Driver/Src/stm32h5xx_hal_rtc_ex.c **** 
1049:Drivers/STM32H5xx_HAL_Driver/Src/stm32h5xx_hal_rtc_ex.c **** #if defined(RTC_CR_REFCKON)
1050:Drivers/STM32H5xx_HAL_Driver/Src/stm32h5xx_hal_rtc_ex.c ****   /* Check if the reference clock detection is disabled */
1051:Drivers/STM32H5xx_HAL_Driver/Src/stm32h5xx_hal_rtc_ex.c ****   if (READ_BIT(RTC->CR, RTC_CR_REFCKON) == 0U)
 1546              		.loc 1 1051 3 view .LVU480
 1547              		.loc 1 1051 7 is_stmt 0 view .LVU481
 1548 004c 9B69     		ldr	r3, [r3, #24]
 1549              		.loc 1 1051 6 view .LVU482
 1550 004e 13F0100F 		tst	r3, #16
 1551 0052 2BD1     		bne	.L119
1052:Drivers/STM32H5xx_HAL_Driver/Src/stm32h5xx_hal_rtc_ex.c ****   {
1053:Drivers/STM32H5xx_HAL_Driver/Src/stm32h5xx_hal_rtc_ex.c **** #endif /* RTC_CR_REFCKON */
1054:Drivers/STM32H5xx_HAL_Driver/Src/stm32h5xx_hal_rtc_ex.c ****     /* Configure the Shift settings */
1055:Drivers/STM32H5xx_HAL_Driver/Src/stm32h5xx_hal_rtc_ex.c ****     MODIFY_REG(RTC->SHIFTR, RTC_SHIFTR_SUBFS, (uint32_t)(ShiftSubFS) | (uint32_t)(ShiftAdd1S));
 1552              		.loc 1 1055 5 is_stmt 1 view .LVU483
 1553 0054 1C4A     		ldr	r2, .L125
 1554 0056 D36A     		ldr	r3, [r2, #44]
 1555 0058 6FF30E03 		bfc	r3, #0, #15
ARM GAS  C:\Users\DELL\AppData\Local\Temp\ccMtHSyM.s 			page 48


 1556 005c 3E43     		orrs	r6, r6, r7
 1557              	.LVL105:
 1558              		.loc 1 1055 5 is_stmt 0 view .LVU484
 1559 005e 3343     		orrs	r3, r3, r6
 1560 0060 D362     		str	r3, [r2, #44]
1056:Drivers/STM32H5xx_HAL_Driver/Src/stm32h5xx_hal_rtc_ex.c **** 
1057:Drivers/STM32H5xx_HAL_Driver/Src/stm32h5xx_hal_rtc_ex.c ****     /* If  RTC_CR_BYPSHAD bit = 0, wait for synchro else this check is not needed */
1058:Drivers/STM32H5xx_HAL_Driver/Src/stm32h5xx_hal_rtc_ex.c ****     if (READ_BIT(RTC->CR, RTC_CR_BYPSHAD) == 0U)
 1561              		.loc 1 1058 5 is_stmt 1 view .LVU485
 1562              		.loc 1 1058 9 is_stmt 0 view .LVU486
 1563 0062 9369     		ldr	r3, [r2, #24]
 1564              		.loc 1 1058 8 view .LVU487
 1565 0064 13F0200F 		tst	r3, #32
 1566 0068 10D0     		beq	.L124
 1567              	.L120:
1059:Drivers/STM32H5xx_HAL_Driver/Src/stm32h5xx_hal_rtc_ex.c ****     {
1060:Drivers/STM32H5xx_HAL_Driver/Src/stm32h5xx_hal_rtc_ex.c ****       if (HAL_RTC_WaitForSynchro(hrtc) != HAL_OK)
1061:Drivers/STM32H5xx_HAL_Driver/Src/stm32h5xx_hal_rtc_ex.c ****       {
1062:Drivers/STM32H5xx_HAL_Driver/Src/stm32h5xx_hal_rtc_ex.c ****         /* Enable the write protection for RTC registers */
1063:Drivers/STM32H5xx_HAL_Driver/Src/stm32h5xx_hal_rtc_ex.c ****         __HAL_RTC_WRITEPROTECTION_ENABLE(hrtc);
1064:Drivers/STM32H5xx_HAL_Driver/Src/stm32h5xx_hal_rtc_ex.c **** 
1065:Drivers/STM32H5xx_HAL_Driver/Src/stm32h5xx_hal_rtc_ex.c ****         /* Change RTC state */
1066:Drivers/STM32H5xx_HAL_Driver/Src/stm32h5xx_hal_rtc_ex.c ****         hrtc->State = HAL_RTC_STATE_ERROR;
1067:Drivers/STM32H5xx_HAL_Driver/Src/stm32h5xx_hal_rtc_ex.c **** 
1068:Drivers/STM32H5xx_HAL_Driver/Src/stm32h5xx_hal_rtc_ex.c ****         /* Process Unlocked */
1069:Drivers/STM32H5xx_HAL_Driver/Src/stm32h5xx_hal_rtc_ex.c ****         __HAL_UNLOCK(hrtc);
1070:Drivers/STM32H5xx_HAL_Driver/Src/stm32h5xx_hal_rtc_ex.c **** 
1071:Drivers/STM32H5xx_HAL_Driver/Src/stm32h5xx_hal_rtc_ex.c ****         return HAL_ERROR;
1072:Drivers/STM32H5xx_HAL_Driver/Src/stm32h5xx_hal_rtc_ex.c ****       }
1073:Drivers/STM32H5xx_HAL_Driver/Src/stm32h5xx_hal_rtc_ex.c ****     }
1074:Drivers/STM32H5xx_HAL_Driver/Src/stm32h5xx_hal_rtc_ex.c **** #if defined(RTC_CR_REFCKON)
1075:Drivers/STM32H5xx_HAL_Driver/Src/stm32h5xx_hal_rtc_ex.c ****   }
1076:Drivers/STM32H5xx_HAL_Driver/Src/stm32h5xx_hal_rtc_ex.c ****   else
1077:Drivers/STM32H5xx_HAL_Driver/Src/stm32h5xx_hal_rtc_ex.c ****   {
1078:Drivers/STM32H5xx_HAL_Driver/Src/stm32h5xx_hal_rtc_ex.c ****     /* Enable the write protection for RTC registers */
1079:Drivers/STM32H5xx_HAL_Driver/Src/stm32h5xx_hal_rtc_ex.c ****     __HAL_RTC_WRITEPROTECTION_ENABLE(hrtc);
1080:Drivers/STM32H5xx_HAL_Driver/Src/stm32h5xx_hal_rtc_ex.c **** 
1081:Drivers/STM32H5xx_HAL_Driver/Src/stm32h5xx_hal_rtc_ex.c ****     /* Change RTC state */
1082:Drivers/STM32H5xx_HAL_Driver/Src/stm32h5xx_hal_rtc_ex.c ****     hrtc->State = HAL_RTC_STATE_ERROR;
1083:Drivers/STM32H5xx_HAL_Driver/Src/stm32h5xx_hal_rtc_ex.c **** 
1084:Drivers/STM32H5xx_HAL_Driver/Src/stm32h5xx_hal_rtc_ex.c ****     /* Process Unlocked */
1085:Drivers/STM32H5xx_HAL_Driver/Src/stm32h5xx_hal_rtc_ex.c ****     __HAL_UNLOCK(hrtc);
1086:Drivers/STM32H5xx_HAL_Driver/Src/stm32h5xx_hal_rtc_ex.c **** 
1087:Drivers/STM32H5xx_HAL_Driver/Src/stm32h5xx_hal_rtc_ex.c ****     return HAL_ERROR;
1088:Drivers/STM32H5xx_HAL_Driver/Src/stm32h5xx_hal_rtc_ex.c ****   }
1089:Drivers/STM32H5xx_HAL_Driver/Src/stm32h5xx_hal_rtc_ex.c **** #endif /* RTC_CR_REFCKON */
1090:Drivers/STM32H5xx_HAL_Driver/Src/stm32h5xx_hal_rtc_ex.c **** 
1091:Drivers/STM32H5xx_HAL_Driver/Src/stm32h5xx_hal_rtc_ex.c ****   /* Enable the write protection for RTC registers */
1092:Drivers/STM32H5xx_HAL_Driver/Src/stm32h5xx_hal_rtc_ex.c ****   __HAL_RTC_WRITEPROTECTION_ENABLE(hrtc);
 1568              		.loc 1 1092 3 is_stmt 1 view .LVU488
 1569              		.loc 1 1092 3 view .LVU489
 1570 006a 174B     		ldr	r3, .L125
 1571 006c FF22     		movs	r2, #255
 1572 006e 5A62     		str	r2, [r3, #36]
 1573              		.loc 1 1092 3 view .LVU490
1093:Drivers/STM32H5xx_HAL_Driver/Src/stm32h5xx_hal_rtc_ex.c **** 
1094:Drivers/STM32H5xx_HAL_Driver/Src/stm32h5xx_hal_rtc_ex.c ****   /* Change RTC state */
ARM GAS  C:\Users\DELL\AppData\Local\Temp\ccMtHSyM.s 			page 49


1095:Drivers/STM32H5xx_HAL_Driver/Src/stm32h5xx_hal_rtc_ex.c ****   hrtc->State = HAL_RTC_STATE_READY;
 1574              		.loc 1 1095 3 view .LVU491
 1575              		.loc 1 1095 15 is_stmt 0 view .LVU492
 1576 0070 0123     		movs	r3, #1
 1577 0072 85F82D30 		strb	r3, [r5, #45]
1096:Drivers/STM32H5xx_HAL_Driver/Src/stm32h5xx_hal_rtc_ex.c **** 
1097:Drivers/STM32H5xx_HAL_Driver/Src/stm32h5xx_hal_rtc_ex.c ****   /* Process Unlocked */
1098:Drivers/STM32H5xx_HAL_Driver/Src/stm32h5xx_hal_rtc_ex.c ****   __HAL_UNLOCK(hrtc);
 1578              		.loc 1 1098 3 is_stmt 1 view .LVU493
 1579              		.loc 1 1098 3 view .LVU494
 1580 0076 0020     		movs	r0, #0
 1581 0078 85F82C00 		strb	r0, [r5, #44]
 1582              		.loc 1 1098 3 view .LVU495
1099:Drivers/STM32H5xx_HAL_Driver/Src/stm32h5xx_hal_rtc_ex.c **** 
1100:Drivers/STM32H5xx_HAL_Driver/Src/stm32h5xx_hal_rtc_ex.c ****   return HAL_OK;
 1583              		.loc 1 1100 3 view .LVU496
 1584              	.LVL106:
 1585              	.L115:
1101:Drivers/STM32H5xx_HAL_Driver/Src/stm32h5xx_hal_rtc_ex.c **** }
 1586              		.loc 1 1101 1 is_stmt 0 view .LVU497
 1587 007c F8BD     		pop	{r3, r4, r5, r6, r7, pc}
 1588              	.LVL107:
 1589              	.L123:
1032:Drivers/STM32H5xx_HAL_Driver/Src/stm32h5xx_hal_rtc_ex.c **** 
 1590              		.loc 1 1032 9 is_stmt 1 view .LVU498
1032:Drivers/STM32H5xx_HAL_Driver/Src/stm32h5xx_hal_rtc_ex.c **** 
 1591              		.loc 1 1032 21 is_stmt 0 view .LVU499
 1592 007e 0320     		movs	r0, #3
 1593 0080 85F82D00 		strb	r0, [r5, #45]
1035:Drivers/STM32H5xx_HAL_Driver/Src/stm32h5xx_hal_rtc_ex.c **** 
 1594              		.loc 1 1035 9 is_stmt 1 view .LVU500
1035:Drivers/STM32H5xx_HAL_Driver/Src/stm32h5xx_hal_rtc_ex.c **** 
 1595              		.loc 1 1035 9 view .LVU501
 1596 0084 0023     		movs	r3, #0
 1597 0086 85F82C30 		strb	r3, [r5, #44]
1035:Drivers/STM32H5xx_HAL_Driver/Src/stm32h5xx_hal_rtc_ex.c **** 
 1598              		.loc 1 1035 9 view .LVU502
1037:Drivers/STM32H5xx_HAL_Driver/Src/stm32h5xx_hal_rtc_ex.c ****       }
 1599              		.loc 1 1037 9 view .LVU503
1037:Drivers/STM32H5xx_HAL_Driver/Src/stm32h5xx_hal_rtc_ex.c ****       }
 1600              		.loc 1 1037 16 is_stmt 0 view .LVU504
 1601 008a F7E7     		b	.L115
 1602              	.LVL108:
 1603              	.L124:
1060:Drivers/STM32H5xx_HAL_Driver/Src/stm32h5xx_hal_rtc_ex.c ****       {
 1604              		.loc 1 1060 7 is_stmt 1 view .LVU505
1060:Drivers/STM32H5xx_HAL_Driver/Src/stm32h5xx_hal_rtc_ex.c ****       {
 1605              		.loc 1 1060 11 is_stmt 0 view .LVU506
 1606 008c 2846     		mov	r0, r5
 1607 008e FFF7FEFF 		bl	HAL_RTC_WaitForSynchro
 1608              	.LVL109:
1060:Drivers/STM32H5xx_HAL_Driver/Src/stm32h5xx_hal_rtc_ex.c ****       {
 1609              		.loc 1 1060 10 discriminator 1 view .LVU507
 1610 0092 0028     		cmp	r0, #0
 1611 0094 E9D0     		beq	.L120
1063:Drivers/STM32H5xx_HAL_Driver/Src/stm32h5xx_hal_rtc_ex.c **** 
 1612              		.loc 1 1063 9 is_stmt 1 view .LVU508
ARM GAS  C:\Users\DELL\AppData\Local\Temp\ccMtHSyM.s 			page 50


1063:Drivers/STM32H5xx_HAL_Driver/Src/stm32h5xx_hal_rtc_ex.c **** 
 1613              		.loc 1 1063 9 view .LVU509
 1614 0096 0C4B     		ldr	r3, .L125
 1615 0098 FF22     		movs	r2, #255
 1616 009a 5A62     		str	r2, [r3, #36]
1063:Drivers/STM32H5xx_HAL_Driver/Src/stm32h5xx_hal_rtc_ex.c **** 
 1617              		.loc 1 1063 9 view .LVU510
1066:Drivers/STM32H5xx_HAL_Driver/Src/stm32h5xx_hal_rtc_ex.c **** 
 1618              		.loc 1 1066 9 view .LVU511
1066:Drivers/STM32H5xx_HAL_Driver/Src/stm32h5xx_hal_rtc_ex.c **** 
 1619              		.loc 1 1066 21 is_stmt 0 view .LVU512
 1620 009c 0423     		movs	r3, #4
 1621 009e 85F82D30 		strb	r3, [r5, #45]
1069:Drivers/STM32H5xx_HAL_Driver/Src/stm32h5xx_hal_rtc_ex.c **** 
 1622              		.loc 1 1069 9 is_stmt 1 view .LVU513
1069:Drivers/STM32H5xx_HAL_Driver/Src/stm32h5xx_hal_rtc_ex.c **** 
 1623              		.loc 1 1069 9 view .LVU514
 1624 00a2 0023     		movs	r3, #0
 1625 00a4 85F82C30 		strb	r3, [r5, #44]
1069:Drivers/STM32H5xx_HAL_Driver/Src/stm32h5xx_hal_rtc_ex.c **** 
 1626              		.loc 1 1069 9 view .LVU515
1071:Drivers/STM32H5xx_HAL_Driver/Src/stm32h5xx_hal_rtc_ex.c ****       }
 1627              		.loc 1 1071 9 view .LVU516
1071:Drivers/STM32H5xx_HAL_Driver/Src/stm32h5xx_hal_rtc_ex.c ****       }
 1628              		.loc 1 1071 16 is_stmt 0 view .LVU517
 1629 00a8 0120     		movs	r0, #1
 1630 00aa E7E7     		b	.L115
 1631              	.LVL110:
 1632              	.L119:
1079:Drivers/STM32H5xx_HAL_Driver/Src/stm32h5xx_hal_rtc_ex.c **** 
 1633              		.loc 1 1079 5 is_stmt 1 view .LVU518
1079:Drivers/STM32H5xx_HAL_Driver/Src/stm32h5xx_hal_rtc_ex.c **** 
 1634              		.loc 1 1079 5 view .LVU519
 1635 00ac 064B     		ldr	r3, .L125
 1636 00ae FF22     		movs	r2, #255
 1637 00b0 5A62     		str	r2, [r3, #36]
1079:Drivers/STM32H5xx_HAL_Driver/Src/stm32h5xx_hal_rtc_ex.c **** 
 1638              		.loc 1 1079 5 view .LVU520
1082:Drivers/STM32H5xx_HAL_Driver/Src/stm32h5xx_hal_rtc_ex.c **** 
 1639              		.loc 1 1082 5 view .LVU521
1082:Drivers/STM32H5xx_HAL_Driver/Src/stm32h5xx_hal_rtc_ex.c **** 
 1640              		.loc 1 1082 17 is_stmt 0 view .LVU522
 1641 00b2 0423     		movs	r3, #4
 1642 00b4 85F82D30 		strb	r3, [r5, #45]
1085:Drivers/STM32H5xx_HAL_Driver/Src/stm32h5xx_hal_rtc_ex.c **** 
 1643              		.loc 1 1085 5 is_stmt 1 view .LVU523
1085:Drivers/STM32H5xx_HAL_Driver/Src/stm32h5xx_hal_rtc_ex.c **** 
 1644              		.loc 1 1085 5 view .LVU524
 1645 00b8 0023     		movs	r3, #0
 1646 00ba 85F82C30 		strb	r3, [r5, #44]
1085:Drivers/STM32H5xx_HAL_Driver/Src/stm32h5xx_hal_rtc_ex.c **** 
 1647              		.loc 1 1085 5 view .LVU525
1087:Drivers/STM32H5xx_HAL_Driver/Src/stm32h5xx_hal_rtc_ex.c ****   }
 1648              		.loc 1 1087 5 view .LVU526
1087:Drivers/STM32H5xx_HAL_Driver/Src/stm32h5xx_hal_rtc_ex.c ****   }
 1649              		.loc 1 1087 12 is_stmt 0 view .LVU527
 1650 00be 0120     		movs	r0, #1
ARM GAS  C:\Users\DELL\AppData\Local\Temp\ccMtHSyM.s 			page 51


 1651 00c0 DCE7     		b	.L115
 1652              	.LVL111:
 1653              	.L121:
1016:Drivers/STM32H5xx_HAL_Driver/Src/stm32h5xx_hal_rtc_ex.c **** 
 1654              		.loc 1 1016 3 discriminator 1 view .LVU528
 1655 00c2 0220     		movs	r0, #2
 1656              	.LVL112:
1016:Drivers/STM32H5xx_HAL_Driver/Src/stm32h5xx_hal_rtc_ex.c **** 
 1657              		.loc 1 1016 3 discriminator 1 view .LVU529
 1658 00c4 DAE7     		b	.L115
 1659              	.L126:
 1660 00c6 00BF     		.align	2
 1661              	.L125:
 1662 00c8 00780044 		.word	1140881408
 1663              		.cfi_endproc
 1664              	.LFE315:
 1666              		.section	.text.HAL_RTCEx_SetCalibrationOutPut,"ax",%progbits
 1667              		.align	1
 1668              		.global	HAL_RTCEx_SetCalibrationOutPut
 1669              		.syntax unified
 1670              		.thumb
 1671              		.thumb_func
 1673              	HAL_RTCEx_SetCalibrationOutPut:
 1674              	.LVL113:
 1675              	.LFB316:
1102:Drivers/STM32H5xx_HAL_Driver/Src/stm32h5xx_hal_rtc_ex.c **** 
1103:Drivers/STM32H5xx_HAL_Driver/Src/stm32h5xx_hal_rtc_ex.c **** #if defined(RTC_CR_COSEL)
1104:Drivers/STM32H5xx_HAL_Driver/Src/stm32h5xx_hal_rtc_ex.c **** /**
1105:Drivers/STM32H5xx_HAL_Driver/Src/stm32h5xx_hal_rtc_ex.c ****   * @brief  Configure the Calibration Pinout (RTC_CALIB) Selection (1Hz or 512Hz).
1106:Drivers/STM32H5xx_HAL_Driver/Src/stm32h5xx_hal_rtc_ex.c ****   * @param  hrtc RTC handle
1107:Drivers/STM32H5xx_HAL_Driver/Src/stm32h5xx_hal_rtc_ex.c ****   * @param  CalibOutput Select the Calibration output Selection .
1108:Drivers/STM32H5xx_HAL_Driver/Src/stm32h5xx_hal_rtc_ex.c ****   *          This parameter can be one of the following values:
1109:Drivers/STM32H5xx_HAL_Driver/Src/stm32h5xx_hal_rtc_ex.c ****   *             @arg RTC_CALIBOUTPUT_512HZ: A signal has a regular waveform at 512Hz.
1110:Drivers/STM32H5xx_HAL_Driver/Src/stm32h5xx_hal_rtc_ex.c ****   *             @arg RTC_CALIBOUTPUT_1HZ: A signal has a regular waveform at 1Hz.
1111:Drivers/STM32H5xx_HAL_Driver/Src/stm32h5xx_hal_rtc_ex.c ****   * @retval HAL status
1112:Drivers/STM32H5xx_HAL_Driver/Src/stm32h5xx_hal_rtc_ex.c ****   */
1113:Drivers/STM32H5xx_HAL_Driver/Src/stm32h5xx_hal_rtc_ex.c **** HAL_StatusTypeDef HAL_RTCEx_SetCalibrationOutPut(RTC_HandleTypeDef *hrtc, uint32_t CalibOutput)
1114:Drivers/STM32H5xx_HAL_Driver/Src/stm32h5xx_hal_rtc_ex.c **** {
 1676              		.loc 1 1114 1 is_stmt 1 view -0
 1677              		.cfi_startproc
 1678              		@ args = 0, pretend = 0, frame = 0
 1679              		@ frame_needed = 0, uses_anonymous_args = 0
 1680              		@ link register save eliminated.
1115:Drivers/STM32H5xx_HAL_Driver/Src/stm32h5xx_hal_rtc_ex.c ****   /* Check the parameters */
1116:Drivers/STM32H5xx_HAL_Driver/Src/stm32h5xx_hal_rtc_ex.c ****   assert_param(IS_RTC_CALIB_OUTPUT(CalibOutput));
 1681              		.loc 1 1116 3 view .LVU531
1117:Drivers/STM32H5xx_HAL_Driver/Src/stm32h5xx_hal_rtc_ex.c **** 
1118:Drivers/STM32H5xx_HAL_Driver/Src/stm32h5xx_hal_rtc_ex.c ****   /* Process Locked */
1119:Drivers/STM32H5xx_HAL_Driver/Src/stm32h5xx_hal_rtc_ex.c ****   __HAL_LOCK(hrtc);
 1682              		.loc 1 1119 3 view .LVU532
 1683              		.loc 1 1119 3 view .LVU533
 1684 0000 90F82C30 		ldrb	r3, [r0, #44]	@ zero_extendqisi2
 1685 0004 012B     		cmp	r3, #1
 1686 0006 17D0     		beq	.L129
 1687              		.loc 1 1119 3 discriminator 2 view .LVU534
 1688 0008 4FF0010C 		mov	ip, #1
 1689 000c 80F82CC0 		strb	ip, [r0, #44]
ARM GAS  C:\Users\DELL\AppData\Local\Temp\ccMtHSyM.s 			page 52


 1690              		.loc 1 1119 3 view .LVU535
1120:Drivers/STM32H5xx_HAL_Driver/Src/stm32h5xx_hal_rtc_ex.c **** 
1121:Drivers/STM32H5xx_HAL_Driver/Src/stm32h5xx_hal_rtc_ex.c ****   /* Change RTC state */
1122:Drivers/STM32H5xx_HAL_Driver/Src/stm32h5xx_hal_rtc_ex.c ****   hrtc->State = HAL_RTC_STATE_BUSY;
 1691              		.loc 1 1122 3 view .LVU536
 1692              		.loc 1 1122 15 is_stmt 0 view .LVU537
 1693 0010 0223     		movs	r3, #2
 1694 0012 80F82D30 		strb	r3, [r0, #45]
1123:Drivers/STM32H5xx_HAL_Driver/Src/stm32h5xx_hal_rtc_ex.c **** 
1124:Drivers/STM32H5xx_HAL_Driver/Src/stm32h5xx_hal_rtc_ex.c ****   /* Configure the RTC_CR register */
1125:Drivers/STM32H5xx_HAL_Driver/Src/stm32h5xx_hal_rtc_ex.c ****   MODIFY_REG(RTC->CR, RTC_CR_COSEL, CalibOutput);
 1695              		.loc 1 1125 3 is_stmt 1 view .LVU538
 1696 0016 094A     		ldr	r2, .L130
 1697 0018 9369     		ldr	r3, [r2, #24]
 1698 001a 23F40023 		bic	r3, r3, #524288
 1699 001e 1943     		orrs	r1, r1, r3
 1700              	.LVL114:
 1701              		.loc 1 1125 3 is_stmt 0 view .LVU539
 1702 0020 9161     		str	r1, [r2, #24]
1126:Drivers/STM32H5xx_HAL_Driver/Src/stm32h5xx_hal_rtc_ex.c **** 
1127:Drivers/STM32H5xx_HAL_Driver/Src/stm32h5xx_hal_rtc_ex.c ****   /* Enable calibration output */
1128:Drivers/STM32H5xx_HAL_Driver/Src/stm32h5xx_hal_rtc_ex.c ****   SET_BIT(RTC->CR, RTC_CR_COE);
 1703              		.loc 1 1128 3 is_stmt 1 view .LVU540
 1704 0022 9369     		ldr	r3, [r2, #24]
 1705 0024 43F40003 		orr	r3, r3, #8388608
 1706 0028 9361     		str	r3, [r2, #24]
1129:Drivers/STM32H5xx_HAL_Driver/Src/stm32h5xx_hal_rtc_ex.c **** 
1130:Drivers/STM32H5xx_HAL_Driver/Src/stm32h5xx_hal_rtc_ex.c ****   /* Change RTC state */
1131:Drivers/STM32H5xx_HAL_Driver/Src/stm32h5xx_hal_rtc_ex.c ****   hrtc->State = HAL_RTC_STATE_READY;
 1707              		.loc 1 1131 3 view .LVU541
 1708              		.loc 1 1131 15 is_stmt 0 view .LVU542
 1709 002a 80F82DC0 		strb	ip, [r0, #45]
1132:Drivers/STM32H5xx_HAL_Driver/Src/stm32h5xx_hal_rtc_ex.c **** 
1133:Drivers/STM32H5xx_HAL_Driver/Src/stm32h5xx_hal_rtc_ex.c ****   /* Process Unlocked */
1134:Drivers/STM32H5xx_HAL_Driver/Src/stm32h5xx_hal_rtc_ex.c ****   __HAL_UNLOCK(hrtc);
 1710              		.loc 1 1134 3 is_stmt 1 view .LVU543
 1711              		.loc 1 1134 3 view .LVU544
 1712 002e 0023     		movs	r3, #0
 1713 0030 80F82C30 		strb	r3, [r0, #44]
 1714              		.loc 1 1134 3 view .LVU545
1135:Drivers/STM32H5xx_HAL_Driver/Src/stm32h5xx_hal_rtc_ex.c **** 
1136:Drivers/STM32H5xx_HAL_Driver/Src/stm32h5xx_hal_rtc_ex.c ****   return HAL_OK;
 1715              		.loc 1 1136 3 view .LVU546
 1716              		.loc 1 1136 10 is_stmt 0 view .LVU547
 1717 0034 1846     		mov	r0, r3
 1718              	.LVL115:
 1719              		.loc 1 1136 10 view .LVU548
 1720 0036 7047     		bx	lr
 1721              	.LVL116:
 1722              	.L129:
1119:Drivers/STM32H5xx_HAL_Driver/Src/stm32h5xx_hal_rtc_ex.c **** 
 1723              		.loc 1 1119 3 discriminator 1 view .LVU549
 1724 0038 0220     		movs	r0, #2
 1725              	.LVL117:
1137:Drivers/STM32H5xx_HAL_Driver/Src/stm32h5xx_hal_rtc_ex.c **** }
 1726              		.loc 1 1137 1 view .LVU550
 1727 003a 7047     		bx	lr
ARM GAS  C:\Users\DELL\AppData\Local\Temp\ccMtHSyM.s 			page 53


 1728              	.L131:
 1729              		.align	2
 1730              	.L130:
 1731 003c 00780044 		.word	1140881408
 1732              		.cfi_endproc
 1733              	.LFE316:
 1735              		.section	.text.HAL_RTCEx_DeactivateCalibrationOutPut,"ax",%progbits
 1736              		.align	1
 1737              		.global	HAL_RTCEx_DeactivateCalibrationOutPut
 1738              		.syntax unified
 1739              		.thumb
 1740              		.thumb_func
 1742              	HAL_RTCEx_DeactivateCalibrationOutPut:
 1743              	.LVL118:
 1744              	.LFB317:
1138:Drivers/STM32H5xx_HAL_Driver/Src/stm32h5xx_hal_rtc_ex.c **** 
1139:Drivers/STM32H5xx_HAL_Driver/Src/stm32h5xx_hal_rtc_ex.c **** /**
1140:Drivers/STM32H5xx_HAL_Driver/Src/stm32h5xx_hal_rtc_ex.c ****   * @brief  Deactivate the Calibration Pinout (RTC_CALIB) Selection (1Hz or 512Hz).
1141:Drivers/STM32H5xx_HAL_Driver/Src/stm32h5xx_hal_rtc_ex.c ****   * @param  hrtc RTC handle
1142:Drivers/STM32H5xx_HAL_Driver/Src/stm32h5xx_hal_rtc_ex.c ****   * @retval HAL status
1143:Drivers/STM32H5xx_HAL_Driver/Src/stm32h5xx_hal_rtc_ex.c ****   */
1144:Drivers/STM32H5xx_HAL_Driver/Src/stm32h5xx_hal_rtc_ex.c **** HAL_StatusTypeDef HAL_RTCEx_DeactivateCalibrationOutPut(RTC_HandleTypeDef *hrtc)
1145:Drivers/STM32H5xx_HAL_Driver/Src/stm32h5xx_hal_rtc_ex.c **** {
 1745              		.loc 1 1145 1 is_stmt 1 view -0
 1746              		.cfi_startproc
 1747              		@ args = 0, pretend = 0, frame = 0
 1748              		@ frame_needed = 0, uses_anonymous_args = 0
 1749              		@ link register save eliminated.
1146:Drivers/STM32H5xx_HAL_Driver/Src/stm32h5xx_hal_rtc_ex.c ****   /* Process Locked */
1147:Drivers/STM32H5xx_HAL_Driver/Src/stm32h5xx_hal_rtc_ex.c ****   __HAL_LOCK(hrtc);
 1750              		.loc 1 1147 3 view .LVU552
 1751              		.loc 1 1147 3 view .LVU553
 1752 0000 90F82C30 		ldrb	r3, [r0, #44]	@ zero_extendqisi2
 1753 0004 012B     		cmp	r3, #1
 1754 0006 11D0     		beq	.L134
 1755              		.loc 1 1147 3 discriminator 2 view .LVU554
 1756 0008 0122     		movs	r2, #1
 1757 000a 80F82C20 		strb	r2, [r0, #44]
 1758              		.loc 1 1147 3 view .LVU555
1148:Drivers/STM32H5xx_HAL_Driver/Src/stm32h5xx_hal_rtc_ex.c **** 
1149:Drivers/STM32H5xx_HAL_Driver/Src/stm32h5xx_hal_rtc_ex.c ****   /* Change RTC state */
1150:Drivers/STM32H5xx_HAL_Driver/Src/stm32h5xx_hal_rtc_ex.c ****   hrtc->State = HAL_RTC_STATE_BUSY;
 1759              		.loc 1 1150 3 view .LVU556
 1760              		.loc 1 1150 15 is_stmt 0 view .LVU557
 1761 000e 0223     		movs	r3, #2
 1762 0010 80F82D30 		strb	r3, [r0, #45]
1151:Drivers/STM32H5xx_HAL_Driver/Src/stm32h5xx_hal_rtc_ex.c **** 
1152:Drivers/STM32H5xx_HAL_Driver/Src/stm32h5xx_hal_rtc_ex.c ****   /* Disable calibration output */
1153:Drivers/STM32H5xx_HAL_Driver/Src/stm32h5xx_hal_rtc_ex.c ****   CLEAR_BIT(RTC->CR, RTC_CR_COE);
 1763              		.loc 1 1153 3 is_stmt 1 view .LVU558
 1764 0014 0649     		ldr	r1, .L135
 1765 0016 8B69     		ldr	r3, [r1, #24]
 1766 0018 23F40003 		bic	r3, r3, #8388608
 1767 001c 8B61     		str	r3, [r1, #24]
1154:Drivers/STM32H5xx_HAL_Driver/Src/stm32h5xx_hal_rtc_ex.c **** 
1155:Drivers/STM32H5xx_HAL_Driver/Src/stm32h5xx_hal_rtc_ex.c ****   /* Change RTC state */
1156:Drivers/STM32H5xx_HAL_Driver/Src/stm32h5xx_hal_rtc_ex.c ****   hrtc->State = HAL_RTC_STATE_READY;
ARM GAS  C:\Users\DELL\AppData\Local\Temp\ccMtHSyM.s 			page 54


 1768              		.loc 1 1156 3 view .LVU559
 1769              		.loc 1 1156 15 is_stmt 0 view .LVU560
 1770 001e 80F82D20 		strb	r2, [r0, #45]
1157:Drivers/STM32H5xx_HAL_Driver/Src/stm32h5xx_hal_rtc_ex.c **** 
1158:Drivers/STM32H5xx_HAL_Driver/Src/stm32h5xx_hal_rtc_ex.c ****   /* Process Unlocked */
1159:Drivers/STM32H5xx_HAL_Driver/Src/stm32h5xx_hal_rtc_ex.c ****   __HAL_UNLOCK(hrtc);
 1771              		.loc 1 1159 3 is_stmt 1 view .LVU561
 1772              		.loc 1 1159 3 view .LVU562
 1773 0022 0023     		movs	r3, #0
 1774 0024 80F82C30 		strb	r3, [r0, #44]
 1775              		.loc 1 1159 3 view .LVU563
1160:Drivers/STM32H5xx_HAL_Driver/Src/stm32h5xx_hal_rtc_ex.c **** 
1161:Drivers/STM32H5xx_HAL_Driver/Src/stm32h5xx_hal_rtc_ex.c ****   return HAL_OK;
 1776              		.loc 1 1161 3 view .LVU564
 1777              		.loc 1 1161 10 is_stmt 0 view .LVU565
 1778 0028 1846     		mov	r0, r3
 1779              	.LVL119:
 1780              		.loc 1 1161 10 view .LVU566
 1781 002a 7047     		bx	lr
 1782              	.LVL120:
 1783              	.L134:
1147:Drivers/STM32H5xx_HAL_Driver/Src/stm32h5xx_hal_rtc_ex.c **** 
 1784              		.loc 1 1147 3 discriminator 1 view .LVU567
 1785 002c 0220     		movs	r0, #2
 1786              	.LVL121:
1162:Drivers/STM32H5xx_HAL_Driver/Src/stm32h5xx_hal_rtc_ex.c **** }
 1787              		.loc 1 1162 1 view .LVU568
 1788 002e 7047     		bx	lr
 1789              	.L136:
 1790              		.align	2
 1791              	.L135:
 1792 0030 00780044 		.word	1140881408
 1793              		.cfi_endproc
 1794              	.LFE317:
 1796              		.section	.text.HAL_RTCEx_SetRefClock,"ax",%progbits
 1797              		.align	1
 1798              		.global	HAL_RTCEx_SetRefClock
 1799              		.syntax unified
 1800              		.thumb
 1801              		.thumb_func
 1803              	HAL_RTCEx_SetRefClock:
 1804              	.LVL122:
 1805              	.LFB318:
1163:Drivers/STM32H5xx_HAL_Driver/Src/stm32h5xx_hal_rtc_ex.c **** #endif /* RTC_CR_COSEL */
1164:Drivers/STM32H5xx_HAL_Driver/Src/stm32h5xx_hal_rtc_ex.c **** 
1165:Drivers/STM32H5xx_HAL_Driver/Src/stm32h5xx_hal_rtc_ex.c **** #if defined(RTC_CR_REFCKON)
1166:Drivers/STM32H5xx_HAL_Driver/Src/stm32h5xx_hal_rtc_ex.c **** /**
1167:Drivers/STM32H5xx_HAL_Driver/Src/stm32h5xx_hal_rtc_ex.c ****   * @brief  Enable the RTC reference clock detection.
1168:Drivers/STM32H5xx_HAL_Driver/Src/stm32h5xx_hal_rtc_ex.c ****   * @param  hrtc RTC handle
1169:Drivers/STM32H5xx_HAL_Driver/Src/stm32h5xx_hal_rtc_ex.c ****   * @retval HAL status
1170:Drivers/STM32H5xx_HAL_Driver/Src/stm32h5xx_hal_rtc_ex.c ****   */
1171:Drivers/STM32H5xx_HAL_Driver/Src/stm32h5xx_hal_rtc_ex.c **** HAL_StatusTypeDef HAL_RTCEx_SetRefClock(RTC_HandleTypeDef *hrtc)
1172:Drivers/STM32H5xx_HAL_Driver/Src/stm32h5xx_hal_rtc_ex.c **** {
 1806              		.loc 1 1172 1 is_stmt 1 view -0
 1807              		.cfi_startproc
 1808              		@ args = 0, pretend = 0, frame = 0
 1809              		@ frame_needed = 0, uses_anonymous_args = 0
ARM GAS  C:\Users\DELL\AppData\Local\Temp\ccMtHSyM.s 			page 55


 1810              		.loc 1 1172 1 is_stmt 0 view .LVU570
 1811 0000 38B5     		push	{r3, r4, r5, lr}
 1812              	.LCFI9:
 1813              		.cfi_def_cfa_offset 16
 1814              		.cfi_offset 3, -16
 1815              		.cfi_offset 4, -12
 1816              		.cfi_offset 5, -8
 1817              		.cfi_offset 14, -4
1173:Drivers/STM32H5xx_HAL_Driver/Src/stm32h5xx_hal_rtc_ex.c ****   HAL_StatusTypeDef status;
 1818              		.loc 1 1173 3 is_stmt 1 view .LVU571
1174:Drivers/STM32H5xx_HAL_Driver/Src/stm32h5xx_hal_rtc_ex.c **** 
1175:Drivers/STM32H5xx_HAL_Driver/Src/stm32h5xx_hal_rtc_ex.c ****   /* Process Locked */
1176:Drivers/STM32H5xx_HAL_Driver/Src/stm32h5xx_hal_rtc_ex.c ****   __HAL_LOCK(hrtc);
 1819              		.loc 1 1176 3 view .LVU572
 1820              		.loc 1 1176 3 view .LVU573
 1821 0002 90F82C30 		ldrb	r3, [r0, #44]	@ zero_extendqisi2
 1822 0006 012B     		cmp	r3, #1
 1823 0008 25D0     		beq	.L141
 1824 000a 0446     		mov	r4, r0
 1825              		.loc 1 1176 3 discriminator 2 view .LVU574
 1826 000c 0123     		movs	r3, #1
 1827 000e 80F82C30 		strb	r3, [r0, #44]
 1828              		.loc 1 1176 3 view .LVU575
1177:Drivers/STM32H5xx_HAL_Driver/Src/stm32h5xx_hal_rtc_ex.c **** 
1178:Drivers/STM32H5xx_HAL_Driver/Src/stm32h5xx_hal_rtc_ex.c ****   /* Change RTC state */
1179:Drivers/STM32H5xx_HAL_Driver/Src/stm32h5xx_hal_rtc_ex.c ****   hrtc->State = HAL_RTC_STATE_BUSY;
 1829              		.loc 1 1179 3 view .LVU576
 1830              		.loc 1 1179 15 is_stmt 0 view .LVU577
 1831 0012 0223     		movs	r3, #2
 1832 0014 80F82D30 		strb	r3, [r0, #45]
1180:Drivers/STM32H5xx_HAL_Driver/Src/stm32h5xx_hal_rtc_ex.c **** 
1181:Drivers/STM32H5xx_HAL_Driver/Src/stm32h5xx_hal_rtc_ex.c ****   /* Disable the write protection for RTC registers */
1182:Drivers/STM32H5xx_HAL_Driver/Src/stm32h5xx_hal_rtc_ex.c ****   __HAL_RTC_WRITEPROTECTION_DISABLE(hrtc);
 1833              		.loc 1 1182 3 is_stmt 1 view .LVU578
 1834              		.loc 1 1182 3 view .LVU579
 1835 0018 104B     		ldr	r3, .L143
 1836 001a CA22     		movs	r2, #202
 1837 001c 5A62     		str	r2, [r3, #36]
 1838              		.loc 1 1182 3 view .LVU580
 1839 001e 5322     		movs	r2, #83
 1840 0020 5A62     		str	r2, [r3, #36]
 1841              		.loc 1 1182 3 view .LVU581
1183:Drivers/STM32H5xx_HAL_Driver/Src/stm32h5xx_hal_rtc_ex.c **** 
1184:Drivers/STM32H5xx_HAL_Driver/Src/stm32h5xx_hal_rtc_ex.c ****   /* Enter Initialization mode */
1185:Drivers/STM32H5xx_HAL_Driver/Src/stm32h5xx_hal_rtc_ex.c ****   status = RTC_EnterInitMode(hrtc);
 1842              		.loc 1 1185 3 view .LVU582
 1843              		.loc 1 1185 12 is_stmt 0 view .LVU583
 1844 0022 FFF7FEFF 		bl	RTC_EnterInitMode
 1845              	.LVL123:
1186:Drivers/STM32H5xx_HAL_Driver/Src/stm32h5xx_hal_rtc_ex.c ****   if (status == HAL_OK)
 1846              		.loc 1 1186 3 is_stmt 1 view .LVU584
 1847              		.loc 1 1186 6 is_stmt 0 view .LVU585
 1848 0026 30B1     		cbz	r0, .L139
1187:Drivers/STM32H5xx_HAL_Driver/Src/stm32h5xx_hal_rtc_ex.c ****   {
1188:Drivers/STM32H5xx_HAL_Driver/Src/stm32h5xx_hal_rtc_ex.c ****     /* Enable clockref detection */
1189:Drivers/STM32H5xx_HAL_Driver/Src/stm32h5xx_hal_rtc_ex.c ****     SET_BIT(RTC->CR, RTC_CR_REFCKON);
1190:Drivers/STM32H5xx_HAL_Driver/Src/stm32h5xx_hal_rtc_ex.c **** 
ARM GAS  C:\Users\DELL\AppData\Local\Temp\ccMtHSyM.s 			page 56


1191:Drivers/STM32H5xx_HAL_Driver/Src/stm32h5xx_hal_rtc_ex.c ****     /* Exit Initialization mode */
1192:Drivers/STM32H5xx_HAL_Driver/Src/stm32h5xx_hal_rtc_ex.c ****     status = RTC_ExitInitMode(hrtc);
1193:Drivers/STM32H5xx_HAL_Driver/Src/stm32h5xx_hal_rtc_ex.c ****   }
1194:Drivers/STM32H5xx_HAL_Driver/Src/stm32h5xx_hal_rtc_ex.c **** 
1195:Drivers/STM32H5xx_HAL_Driver/Src/stm32h5xx_hal_rtc_ex.c ****   /* Enable the write protection for RTC registers */
1196:Drivers/STM32H5xx_HAL_Driver/Src/stm32h5xx_hal_rtc_ex.c ****   __HAL_RTC_WRITEPROTECTION_ENABLE(hrtc);
 1849              		.loc 1 1196 3 is_stmt 1 view .LVU586
 1850              		.loc 1 1196 3 view .LVU587
 1851 0028 0C4B     		ldr	r3, .L143
 1852 002a FF22     		movs	r2, #255
 1853 002c 5A62     		str	r2, [r3, #36]
 1854              		.loc 1 1196 3 view .LVU588
1197:Drivers/STM32H5xx_HAL_Driver/Src/stm32h5xx_hal_rtc_ex.c **** 
1198:Drivers/STM32H5xx_HAL_Driver/Src/stm32h5xx_hal_rtc_ex.c ****   if (status == HAL_OK)
 1855              		.loc 1 1198 3 view .LVU589
 1856              	.L140:
1199:Drivers/STM32H5xx_HAL_Driver/Src/stm32h5xx_hal_rtc_ex.c ****   {
1200:Drivers/STM32H5xx_HAL_Driver/Src/stm32h5xx_hal_rtc_ex.c ****     /* Change RTC state */
1201:Drivers/STM32H5xx_HAL_Driver/Src/stm32h5xx_hal_rtc_ex.c ****     hrtc->State = HAL_RTC_STATE_READY;
1202:Drivers/STM32H5xx_HAL_Driver/Src/stm32h5xx_hal_rtc_ex.c ****   }
1203:Drivers/STM32H5xx_HAL_Driver/Src/stm32h5xx_hal_rtc_ex.c **** 
1204:Drivers/STM32H5xx_HAL_Driver/Src/stm32h5xx_hal_rtc_ex.c ****   /* Process Unlocked */
1205:Drivers/STM32H5xx_HAL_Driver/Src/stm32h5xx_hal_rtc_ex.c ****   __HAL_UNLOCK(hrtc);
 1857              		.loc 1 1205 3 view .LVU590
 1858              		.loc 1 1205 3 view .LVU591
 1859 002e 0023     		movs	r3, #0
 1860 0030 84F82C30 		strb	r3, [r4, #44]
 1861              		.loc 1 1205 3 view .LVU592
1206:Drivers/STM32H5xx_HAL_Driver/Src/stm32h5xx_hal_rtc_ex.c **** 
1207:Drivers/STM32H5xx_HAL_Driver/Src/stm32h5xx_hal_rtc_ex.c ****   return status;
 1862              		.loc 1 1207 3 view .LVU593
 1863              	.LVL124:
 1864              	.L138:
1208:Drivers/STM32H5xx_HAL_Driver/Src/stm32h5xx_hal_rtc_ex.c **** }
 1865              		.loc 1 1208 1 is_stmt 0 view .LVU594
 1866 0034 38BD     		pop	{r3, r4, r5, pc}
 1867              	.LVL125:
 1868              	.L139:
1189:Drivers/STM32H5xx_HAL_Driver/Src/stm32h5xx_hal_rtc_ex.c **** 
 1869              		.loc 1 1189 5 is_stmt 1 view .LVU595
 1870 0036 094D     		ldr	r5, .L143
 1871 0038 AB69     		ldr	r3, [r5, #24]
 1872 003a 43F01003 		orr	r3, r3, #16
 1873 003e AB61     		str	r3, [r5, #24]
1192:Drivers/STM32H5xx_HAL_Driver/Src/stm32h5xx_hal_rtc_ex.c ****   }
 1874              		.loc 1 1192 5 view .LVU596
1192:Drivers/STM32H5xx_HAL_Driver/Src/stm32h5xx_hal_rtc_ex.c ****   }
 1875              		.loc 1 1192 14 is_stmt 0 view .LVU597
 1876 0040 2046     		mov	r0, r4
 1877              	.LVL126:
1192:Drivers/STM32H5xx_HAL_Driver/Src/stm32h5xx_hal_rtc_ex.c ****   }
 1878              		.loc 1 1192 14 view .LVU598
 1879 0042 FFF7FEFF 		bl	RTC_ExitInitMode
 1880              	.LVL127:
1196:Drivers/STM32H5xx_HAL_Driver/Src/stm32h5xx_hal_rtc_ex.c **** 
 1881              		.loc 1 1196 3 is_stmt 1 view .LVU599
1196:Drivers/STM32H5xx_HAL_Driver/Src/stm32h5xx_hal_rtc_ex.c **** 
ARM GAS  C:\Users\DELL\AppData\Local\Temp\ccMtHSyM.s 			page 57


 1882              		.loc 1 1196 3 view .LVU600
 1883 0046 FF22     		movs	r2, #255
 1884 0048 6A62     		str	r2, [r5, #36]
1196:Drivers/STM32H5xx_HAL_Driver/Src/stm32h5xx_hal_rtc_ex.c **** 
 1885              		.loc 1 1196 3 view .LVU601
1198:Drivers/STM32H5xx_HAL_Driver/Src/stm32h5xx_hal_rtc_ex.c ****   {
 1886              		.loc 1 1198 3 view .LVU602
1198:Drivers/STM32H5xx_HAL_Driver/Src/stm32h5xx_hal_rtc_ex.c ****   {
 1887              		.loc 1 1198 6 is_stmt 0 view .LVU603
 1888 004a 0028     		cmp	r0, #0
 1889 004c EFD1     		bne	.L140
1201:Drivers/STM32H5xx_HAL_Driver/Src/stm32h5xx_hal_rtc_ex.c ****   }
 1890              		.loc 1 1201 5 is_stmt 1 view .LVU604
1201:Drivers/STM32H5xx_HAL_Driver/Src/stm32h5xx_hal_rtc_ex.c ****   }
 1891              		.loc 1 1201 17 is_stmt 0 view .LVU605
 1892 004e 0123     		movs	r3, #1
 1893 0050 84F82D30 		strb	r3, [r4, #45]
 1894 0054 EBE7     		b	.L140
 1895              	.LVL128:
 1896              	.L141:
1176:Drivers/STM32H5xx_HAL_Driver/Src/stm32h5xx_hal_rtc_ex.c **** 
 1897              		.loc 1 1176 3 discriminator 1 view .LVU606
 1898 0056 0220     		movs	r0, #2
 1899              	.LVL129:
1176:Drivers/STM32H5xx_HAL_Driver/Src/stm32h5xx_hal_rtc_ex.c **** 
 1900              		.loc 1 1176 3 discriminator 1 view .LVU607
 1901 0058 ECE7     		b	.L138
 1902              	.L144:
 1903 005a 00BF     		.align	2
 1904              	.L143:
 1905 005c 00780044 		.word	1140881408
 1906              		.cfi_endproc
 1907              	.LFE318:
 1909              		.section	.text.HAL_RTCEx_DeactivateRefClock,"ax",%progbits
 1910              		.align	1
 1911              		.global	HAL_RTCEx_DeactivateRefClock
 1912              		.syntax unified
 1913              		.thumb
 1914              		.thumb_func
 1916              	HAL_RTCEx_DeactivateRefClock:
 1917              	.LVL130:
 1918              	.LFB319:
1209:Drivers/STM32H5xx_HAL_Driver/Src/stm32h5xx_hal_rtc_ex.c **** 
1210:Drivers/STM32H5xx_HAL_Driver/Src/stm32h5xx_hal_rtc_ex.c **** /**
1211:Drivers/STM32H5xx_HAL_Driver/Src/stm32h5xx_hal_rtc_ex.c ****   * @brief  Disable the RTC reference clock detection.
1212:Drivers/STM32H5xx_HAL_Driver/Src/stm32h5xx_hal_rtc_ex.c ****   * @param  hrtc RTC handle
1213:Drivers/STM32H5xx_HAL_Driver/Src/stm32h5xx_hal_rtc_ex.c ****   * @retval HAL status
1214:Drivers/STM32H5xx_HAL_Driver/Src/stm32h5xx_hal_rtc_ex.c ****   */
1215:Drivers/STM32H5xx_HAL_Driver/Src/stm32h5xx_hal_rtc_ex.c **** HAL_StatusTypeDef HAL_RTCEx_DeactivateRefClock(RTC_HandleTypeDef *hrtc)
1216:Drivers/STM32H5xx_HAL_Driver/Src/stm32h5xx_hal_rtc_ex.c **** {
 1919              		.loc 1 1216 1 is_stmt 1 view -0
 1920              		.cfi_startproc
 1921              		@ args = 0, pretend = 0, frame = 0
 1922              		@ frame_needed = 0, uses_anonymous_args = 0
 1923              		.loc 1 1216 1 is_stmt 0 view .LVU609
 1924 0000 38B5     		push	{r3, r4, r5, lr}
 1925              	.LCFI10:
ARM GAS  C:\Users\DELL\AppData\Local\Temp\ccMtHSyM.s 			page 58


 1926              		.cfi_def_cfa_offset 16
 1927              		.cfi_offset 3, -16
 1928              		.cfi_offset 4, -12
 1929              		.cfi_offset 5, -8
 1930              		.cfi_offset 14, -4
1217:Drivers/STM32H5xx_HAL_Driver/Src/stm32h5xx_hal_rtc_ex.c ****   HAL_StatusTypeDef status;
 1931              		.loc 1 1217 3 is_stmt 1 view .LVU610
1218:Drivers/STM32H5xx_HAL_Driver/Src/stm32h5xx_hal_rtc_ex.c **** 
1219:Drivers/STM32H5xx_HAL_Driver/Src/stm32h5xx_hal_rtc_ex.c ****   /* Process Locked */
1220:Drivers/STM32H5xx_HAL_Driver/Src/stm32h5xx_hal_rtc_ex.c ****   __HAL_LOCK(hrtc);
 1932              		.loc 1 1220 3 view .LVU611
 1933              		.loc 1 1220 3 view .LVU612
 1934 0002 90F82C30 		ldrb	r3, [r0, #44]	@ zero_extendqisi2
 1935 0006 012B     		cmp	r3, #1
 1936 0008 25D0     		beq	.L149
 1937 000a 0446     		mov	r4, r0
 1938              		.loc 1 1220 3 discriminator 2 view .LVU613
 1939 000c 0123     		movs	r3, #1
 1940 000e 80F82C30 		strb	r3, [r0, #44]
 1941              		.loc 1 1220 3 view .LVU614
1221:Drivers/STM32H5xx_HAL_Driver/Src/stm32h5xx_hal_rtc_ex.c **** 
1222:Drivers/STM32H5xx_HAL_Driver/Src/stm32h5xx_hal_rtc_ex.c ****   /* Change RTC state */
1223:Drivers/STM32H5xx_HAL_Driver/Src/stm32h5xx_hal_rtc_ex.c ****   hrtc->State = HAL_RTC_STATE_BUSY;
 1942              		.loc 1 1223 3 view .LVU615
 1943              		.loc 1 1223 15 is_stmt 0 view .LVU616
 1944 0012 0223     		movs	r3, #2
 1945 0014 80F82D30 		strb	r3, [r0, #45]
1224:Drivers/STM32H5xx_HAL_Driver/Src/stm32h5xx_hal_rtc_ex.c **** 
1225:Drivers/STM32H5xx_HAL_Driver/Src/stm32h5xx_hal_rtc_ex.c ****   /* Disable the write protection for RTC registers */
1226:Drivers/STM32H5xx_HAL_Driver/Src/stm32h5xx_hal_rtc_ex.c ****   __HAL_RTC_WRITEPROTECTION_DISABLE(hrtc);
 1946              		.loc 1 1226 3 is_stmt 1 view .LVU617
 1947              		.loc 1 1226 3 view .LVU618
 1948 0018 104B     		ldr	r3, .L151
 1949 001a CA22     		movs	r2, #202
 1950 001c 5A62     		str	r2, [r3, #36]
 1951              		.loc 1 1226 3 view .LVU619
 1952 001e 5322     		movs	r2, #83
 1953 0020 5A62     		str	r2, [r3, #36]
 1954              		.loc 1 1226 3 view .LVU620
1227:Drivers/STM32H5xx_HAL_Driver/Src/stm32h5xx_hal_rtc_ex.c **** 
1228:Drivers/STM32H5xx_HAL_Driver/Src/stm32h5xx_hal_rtc_ex.c ****   /* Enter Initialization mode */
1229:Drivers/STM32H5xx_HAL_Driver/Src/stm32h5xx_hal_rtc_ex.c ****   status = RTC_EnterInitMode(hrtc);
 1955              		.loc 1 1229 3 view .LVU621
 1956              		.loc 1 1229 12 is_stmt 0 view .LVU622
 1957 0022 FFF7FEFF 		bl	RTC_EnterInitMode
 1958              	.LVL131:
1230:Drivers/STM32H5xx_HAL_Driver/Src/stm32h5xx_hal_rtc_ex.c ****   if (status == HAL_OK)
 1959              		.loc 1 1230 3 is_stmt 1 view .LVU623
 1960              		.loc 1 1230 6 is_stmt 0 view .LVU624
 1961 0026 30B1     		cbz	r0, .L147
1231:Drivers/STM32H5xx_HAL_Driver/Src/stm32h5xx_hal_rtc_ex.c ****   {
1232:Drivers/STM32H5xx_HAL_Driver/Src/stm32h5xx_hal_rtc_ex.c ****     /* Disable clockref detection */
1233:Drivers/STM32H5xx_HAL_Driver/Src/stm32h5xx_hal_rtc_ex.c ****     CLEAR_BIT(RTC->CR, RTC_CR_REFCKON);
1234:Drivers/STM32H5xx_HAL_Driver/Src/stm32h5xx_hal_rtc_ex.c **** 
1235:Drivers/STM32H5xx_HAL_Driver/Src/stm32h5xx_hal_rtc_ex.c ****     /* Exit Initialization mode */
1236:Drivers/STM32H5xx_HAL_Driver/Src/stm32h5xx_hal_rtc_ex.c ****     status = RTC_ExitInitMode(hrtc);
1237:Drivers/STM32H5xx_HAL_Driver/Src/stm32h5xx_hal_rtc_ex.c ****   }
ARM GAS  C:\Users\DELL\AppData\Local\Temp\ccMtHSyM.s 			page 59


1238:Drivers/STM32H5xx_HAL_Driver/Src/stm32h5xx_hal_rtc_ex.c **** 
1239:Drivers/STM32H5xx_HAL_Driver/Src/stm32h5xx_hal_rtc_ex.c ****   /* Enable the write protection for RTC registers */
1240:Drivers/STM32H5xx_HAL_Driver/Src/stm32h5xx_hal_rtc_ex.c ****   __HAL_RTC_WRITEPROTECTION_ENABLE(hrtc);
 1962              		.loc 1 1240 3 is_stmt 1 view .LVU625
 1963              		.loc 1 1240 3 view .LVU626
 1964 0028 0C4B     		ldr	r3, .L151
 1965 002a FF22     		movs	r2, #255
 1966 002c 5A62     		str	r2, [r3, #36]
 1967              		.loc 1 1240 3 view .LVU627
1241:Drivers/STM32H5xx_HAL_Driver/Src/stm32h5xx_hal_rtc_ex.c **** 
1242:Drivers/STM32H5xx_HAL_Driver/Src/stm32h5xx_hal_rtc_ex.c ****   if (status == HAL_OK)
 1968              		.loc 1 1242 3 view .LVU628
 1969              	.L148:
1243:Drivers/STM32H5xx_HAL_Driver/Src/stm32h5xx_hal_rtc_ex.c ****   {
1244:Drivers/STM32H5xx_HAL_Driver/Src/stm32h5xx_hal_rtc_ex.c ****     /* Change RTC state */
1245:Drivers/STM32H5xx_HAL_Driver/Src/stm32h5xx_hal_rtc_ex.c ****     hrtc->State = HAL_RTC_STATE_READY;
1246:Drivers/STM32H5xx_HAL_Driver/Src/stm32h5xx_hal_rtc_ex.c ****   }
1247:Drivers/STM32H5xx_HAL_Driver/Src/stm32h5xx_hal_rtc_ex.c **** 
1248:Drivers/STM32H5xx_HAL_Driver/Src/stm32h5xx_hal_rtc_ex.c ****   /* Process Unlocked */
1249:Drivers/STM32H5xx_HAL_Driver/Src/stm32h5xx_hal_rtc_ex.c ****   __HAL_UNLOCK(hrtc);
 1970              		.loc 1 1249 3 view .LVU629
 1971              		.loc 1 1249 3 view .LVU630
 1972 002e 0023     		movs	r3, #0
 1973 0030 84F82C30 		strb	r3, [r4, #44]
 1974              		.loc 1 1249 3 view .LVU631
1250:Drivers/STM32H5xx_HAL_Driver/Src/stm32h5xx_hal_rtc_ex.c **** 
1251:Drivers/STM32H5xx_HAL_Driver/Src/stm32h5xx_hal_rtc_ex.c ****   return status;
 1975              		.loc 1 1251 3 view .LVU632
 1976              	.LVL132:
 1977              	.L146:
1252:Drivers/STM32H5xx_HAL_Driver/Src/stm32h5xx_hal_rtc_ex.c **** }
 1978              		.loc 1 1252 1 is_stmt 0 view .LVU633
 1979 0034 38BD     		pop	{r3, r4, r5, pc}
 1980              	.LVL133:
 1981              	.L147:
1233:Drivers/STM32H5xx_HAL_Driver/Src/stm32h5xx_hal_rtc_ex.c **** 
 1982              		.loc 1 1233 5 is_stmt 1 view .LVU634
 1983 0036 094D     		ldr	r5, .L151
 1984 0038 AB69     		ldr	r3, [r5, #24]
 1985 003a 23F01003 		bic	r3, r3, #16
 1986 003e AB61     		str	r3, [r5, #24]
1236:Drivers/STM32H5xx_HAL_Driver/Src/stm32h5xx_hal_rtc_ex.c ****   }
 1987              		.loc 1 1236 5 view .LVU635
1236:Drivers/STM32H5xx_HAL_Driver/Src/stm32h5xx_hal_rtc_ex.c ****   }
 1988              		.loc 1 1236 14 is_stmt 0 view .LVU636
 1989 0040 2046     		mov	r0, r4
 1990              	.LVL134:
1236:Drivers/STM32H5xx_HAL_Driver/Src/stm32h5xx_hal_rtc_ex.c ****   }
 1991              		.loc 1 1236 14 view .LVU637
 1992 0042 FFF7FEFF 		bl	RTC_ExitInitMode
 1993              	.LVL135:
1240:Drivers/STM32H5xx_HAL_Driver/Src/stm32h5xx_hal_rtc_ex.c **** 
 1994              		.loc 1 1240 3 is_stmt 1 view .LVU638
1240:Drivers/STM32H5xx_HAL_Driver/Src/stm32h5xx_hal_rtc_ex.c **** 
 1995              		.loc 1 1240 3 view .LVU639
 1996 0046 FF22     		movs	r2, #255
 1997 0048 6A62     		str	r2, [r5, #36]
ARM GAS  C:\Users\DELL\AppData\Local\Temp\ccMtHSyM.s 			page 60


1240:Drivers/STM32H5xx_HAL_Driver/Src/stm32h5xx_hal_rtc_ex.c **** 
 1998              		.loc 1 1240 3 view .LVU640
1242:Drivers/STM32H5xx_HAL_Driver/Src/stm32h5xx_hal_rtc_ex.c ****   {
 1999              		.loc 1 1242 3 view .LVU641
1242:Drivers/STM32H5xx_HAL_Driver/Src/stm32h5xx_hal_rtc_ex.c ****   {
 2000              		.loc 1 1242 6 is_stmt 0 view .LVU642
 2001 004a 0028     		cmp	r0, #0
 2002 004c EFD1     		bne	.L148
1245:Drivers/STM32H5xx_HAL_Driver/Src/stm32h5xx_hal_rtc_ex.c ****   }
 2003              		.loc 1 1245 5 is_stmt 1 view .LVU643
1245:Drivers/STM32H5xx_HAL_Driver/Src/stm32h5xx_hal_rtc_ex.c ****   }
 2004              		.loc 1 1245 17 is_stmt 0 view .LVU644
 2005 004e 0123     		movs	r3, #1
 2006 0050 84F82D30 		strb	r3, [r4, #45]
 2007 0054 EBE7     		b	.L148
 2008              	.LVL136:
 2009              	.L149:
1220:Drivers/STM32H5xx_HAL_Driver/Src/stm32h5xx_hal_rtc_ex.c **** 
 2010              		.loc 1 1220 3 discriminator 1 view .LVU645
 2011 0056 0220     		movs	r0, #2
 2012              	.LVL137:
1220:Drivers/STM32H5xx_HAL_Driver/Src/stm32h5xx_hal_rtc_ex.c **** 
 2013              		.loc 1 1220 3 discriminator 1 view .LVU646
 2014 0058 ECE7     		b	.L146
 2015              	.L152:
 2016 005a 00BF     		.align	2
 2017              	.L151:
 2018 005c 00780044 		.word	1140881408
 2019              		.cfi_endproc
 2020              	.LFE319:
 2022              		.section	.text.HAL_RTCEx_EnableBypassShadow,"ax",%progbits
 2023              		.align	1
 2024              		.global	HAL_RTCEx_EnableBypassShadow
 2025              		.syntax unified
 2026              		.thumb
 2027              		.thumb_func
 2029              	HAL_RTCEx_EnableBypassShadow:
 2030              	.LVL138:
 2031              	.LFB320:
1253:Drivers/STM32H5xx_HAL_Driver/Src/stm32h5xx_hal_rtc_ex.c **** #endif /* RTC_CR_REFCKON */
1254:Drivers/STM32H5xx_HAL_Driver/Src/stm32h5xx_hal_rtc_ex.c **** 
1255:Drivers/STM32H5xx_HAL_Driver/Src/stm32h5xx_hal_rtc_ex.c **** /**
1256:Drivers/STM32H5xx_HAL_Driver/Src/stm32h5xx_hal_rtc_ex.c ****   * @brief  Enable the Bypass Shadow feature.
1257:Drivers/STM32H5xx_HAL_Driver/Src/stm32h5xx_hal_rtc_ex.c ****   * @note   When the Bypass Shadow is enabled the calendar value are taken
1258:Drivers/STM32H5xx_HAL_Driver/Src/stm32h5xx_hal_rtc_ex.c ****   *         directly from the Calendar counter.
1259:Drivers/STM32H5xx_HAL_Driver/Src/stm32h5xx_hal_rtc_ex.c ****   * @param  hrtc RTC handle
1260:Drivers/STM32H5xx_HAL_Driver/Src/stm32h5xx_hal_rtc_ex.c ****   * @retval HAL status
1261:Drivers/STM32H5xx_HAL_Driver/Src/stm32h5xx_hal_rtc_ex.c ****   */
1262:Drivers/STM32H5xx_HAL_Driver/Src/stm32h5xx_hal_rtc_ex.c **** HAL_StatusTypeDef HAL_RTCEx_EnableBypassShadow(RTC_HandleTypeDef *hrtc)
1263:Drivers/STM32H5xx_HAL_Driver/Src/stm32h5xx_hal_rtc_ex.c **** {
 2032              		.loc 1 1263 1 is_stmt 1 view -0
 2033              		.cfi_startproc
 2034              		@ args = 0, pretend = 0, frame = 0
 2035              		@ frame_needed = 0, uses_anonymous_args = 0
 2036              		@ link register save eliminated.
1264:Drivers/STM32H5xx_HAL_Driver/Src/stm32h5xx_hal_rtc_ex.c ****   /* Process Locked */
1265:Drivers/STM32H5xx_HAL_Driver/Src/stm32h5xx_hal_rtc_ex.c ****   __HAL_LOCK(hrtc);
ARM GAS  C:\Users\DELL\AppData\Local\Temp\ccMtHSyM.s 			page 61


 2037              		.loc 1 1265 3 view .LVU648
 2038              		.loc 1 1265 3 view .LVU649
 2039 0000 90F82C30 		ldrb	r3, [r0, #44]	@ zero_extendqisi2
 2040 0004 012B     		cmp	r3, #1
 2041 0006 11D0     		beq	.L155
 2042              		.loc 1 1265 3 discriminator 2 view .LVU650
 2043 0008 0122     		movs	r2, #1
 2044 000a 80F82C20 		strb	r2, [r0, #44]
 2045              		.loc 1 1265 3 view .LVU651
1266:Drivers/STM32H5xx_HAL_Driver/Src/stm32h5xx_hal_rtc_ex.c **** 
1267:Drivers/STM32H5xx_HAL_Driver/Src/stm32h5xx_hal_rtc_ex.c ****   /* Change RTC state */
1268:Drivers/STM32H5xx_HAL_Driver/Src/stm32h5xx_hal_rtc_ex.c ****   hrtc->State = HAL_RTC_STATE_BUSY;
 2046              		.loc 1 1268 3 view .LVU652
 2047              		.loc 1 1268 15 is_stmt 0 view .LVU653
 2048 000e 0223     		movs	r3, #2
 2049 0010 80F82D30 		strb	r3, [r0, #45]
1269:Drivers/STM32H5xx_HAL_Driver/Src/stm32h5xx_hal_rtc_ex.c **** 
1270:Drivers/STM32H5xx_HAL_Driver/Src/stm32h5xx_hal_rtc_ex.c ****   /* Set the BYPSHAD bit */
1271:Drivers/STM32H5xx_HAL_Driver/Src/stm32h5xx_hal_rtc_ex.c ****   SET_BIT(RTC->CR, RTC_CR_BYPSHAD);
 2050              		.loc 1 1271 3 is_stmt 1 view .LVU654
 2051 0014 0649     		ldr	r1, .L156
 2052 0016 8B69     		ldr	r3, [r1, #24]
 2053 0018 43F02003 		orr	r3, r3, #32
 2054 001c 8B61     		str	r3, [r1, #24]
1272:Drivers/STM32H5xx_HAL_Driver/Src/stm32h5xx_hal_rtc_ex.c **** 
1273:Drivers/STM32H5xx_HAL_Driver/Src/stm32h5xx_hal_rtc_ex.c ****   /* Change RTC state */
1274:Drivers/STM32H5xx_HAL_Driver/Src/stm32h5xx_hal_rtc_ex.c ****   hrtc->State = HAL_RTC_STATE_READY;
 2055              		.loc 1 1274 3 view .LVU655
 2056              		.loc 1 1274 15 is_stmt 0 view .LVU656
 2057 001e 80F82D20 		strb	r2, [r0, #45]
1275:Drivers/STM32H5xx_HAL_Driver/Src/stm32h5xx_hal_rtc_ex.c **** 
1276:Drivers/STM32H5xx_HAL_Driver/Src/stm32h5xx_hal_rtc_ex.c ****   /* Process Unlocked */
1277:Drivers/STM32H5xx_HAL_Driver/Src/stm32h5xx_hal_rtc_ex.c ****   __HAL_UNLOCK(hrtc);
 2058              		.loc 1 1277 3 is_stmt 1 view .LVU657
 2059              		.loc 1 1277 3 view .LVU658
 2060 0022 0023     		movs	r3, #0
 2061 0024 80F82C30 		strb	r3, [r0, #44]
 2062              		.loc 1 1277 3 view .LVU659
1278:Drivers/STM32H5xx_HAL_Driver/Src/stm32h5xx_hal_rtc_ex.c **** 
1279:Drivers/STM32H5xx_HAL_Driver/Src/stm32h5xx_hal_rtc_ex.c ****   return HAL_OK;
 2063              		.loc 1 1279 3 view .LVU660
 2064              		.loc 1 1279 10 is_stmt 0 view .LVU661
 2065 0028 1846     		mov	r0, r3
 2066              	.LVL139:
 2067              		.loc 1 1279 10 view .LVU662
 2068 002a 7047     		bx	lr
 2069              	.LVL140:
 2070              	.L155:
1265:Drivers/STM32H5xx_HAL_Driver/Src/stm32h5xx_hal_rtc_ex.c **** 
 2071              		.loc 1 1265 3 discriminator 1 view .LVU663
 2072 002c 0220     		movs	r0, #2
 2073              	.LVL141:
1280:Drivers/STM32H5xx_HAL_Driver/Src/stm32h5xx_hal_rtc_ex.c **** }
 2074              		.loc 1 1280 1 view .LVU664
 2075 002e 7047     		bx	lr
 2076              	.L157:
 2077              		.align	2
ARM GAS  C:\Users\DELL\AppData\Local\Temp\ccMtHSyM.s 			page 62


 2078              	.L156:
 2079 0030 00780044 		.word	1140881408
 2080              		.cfi_endproc
 2081              	.LFE320:
 2083              		.section	.text.HAL_RTCEx_DisableBypassShadow,"ax",%progbits
 2084              		.align	1
 2085              		.global	HAL_RTCEx_DisableBypassShadow
 2086              		.syntax unified
 2087              		.thumb
 2088              		.thumb_func
 2090              	HAL_RTCEx_DisableBypassShadow:
 2091              	.LVL142:
 2092              	.LFB321:
1281:Drivers/STM32H5xx_HAL_Driver/Src/stm32h5xx_hal_rtc_ex.c **** 
1282:Drivers/STM32H5xx_HAL_Driver/Src/stm32h5xx_hal_rtc_ex.c **** /**
1283:Drivers/STM32H5xx_HAL_Driver/Src/stm32h5xx_hal_rtc_ex.c ****   * @brief  Disable the Bypass Shadow feature.
1284:Drivers/STM32H5xx_HAL_Driver/Src/stm32h5xx_hal_rtc_ex.c ****   * @note   When the Bypass Shadow is enabled the calendar value are taken
1285:Drivers/STM32H5xx_HAL_Driver/Src/stm32h5xx_hal_rtc_ex.c ****   *         directly from the Calendar counter.
1286:Drivers/STM32H5xx_HAL_Driver/Src/stm32h5xx_hal_rtc_ex.c ****   * @param  hrtc RTC handle
1287:Drivers/STM32H5xx_HAL_Driver/Src/stm32h5xx_hal_rtc_ex.c ****   * @retval HAL status
1288:Drivers/STM32H5xx_HAL_Driver/Src/stm32h5xx_hal_rtc_ex.c ****   */
1289:Drivers/STM32H5xx_HAL_Driver/Src/stm32h5xx_hal_rtc_ex.c **** HAL_StatusTypeDef HAL_RTCEx_DisableBypassShadow(RTC_HandleTypeDef *hrtc)
1290:Drivers/STM32H5xx_HAL_Driver/Src/stm32h5xx_hal_rtc_ex.c **** {
 2093              		.loc 1 1290 1 is_stmt 1 view -0
 2094              		.cfi_startproc
 2095              		@ args = 0, pretend = 0, frame = 0
 2096              		@ frame_needed = 0, uses_anonymous_args = 0
 2097              		@ link register save eliminated.
1291:Drivers/STM32H5xx_HAL_Driver/Src/stm32h5xx_hal_rtc_ex.c ****   /* Process Locked */
1292:Drivers/STM32H5xx_HAL_Driver/Src/stm32h5xx_hal_rtc_ex.c ****   __HAL_LOCK(hrtc);
 2098              		.loc 1 1292 3 view .LVU666
 2099              		.loc 1 1292 3 view .LVU667
 2100 0000 90F82C30 		ldrb	r3, [r0, #44]	@ zero_extendqisi2
 2101 0004 012B     		cmp	r3, #1
 2102 0006 11D0     		beq	.L160
 2103              		.loc 1 1292 3 discriminator 2 view .LVU668
 2104 0008 0122     		movs	r2, #1
 2105 000a 80F82C20 		strb	r2, [r0, #44]
 2106              		.loc 1 1292 3 view .LVU669
1293:Drivers/STM32H5xx_HAL_Driver/Src/stm32h5xx_hal_rtc_ex.c **** 
1294:Drivers/STM32H5xx_HAL_Driver/Src/stm32h5xx_hal_rtc_ex.c ****   /* Change RTC state */
1295:Drivers/STM32H5xx_HAL_Driver/Src/stm32h5xx_hal_rtc_ex.c ****   hrtc->State = HAL_RTC_STATE_BUSY;
 2107              		.loc 1 1295 3 view .LVU670
 2108              		.loc 1 1295 15 is_stmt 0 view .LVU671
 2109 000e 0223     		movs	r3, #2
 2110 0010 80F82D30 		strb	r3, [r0, #45]
1296:Drivers/STM32H5xx_HAL_Driver/Src/stm32h5xx_hal_rtc_ex.c **** 
1297:Drivers/STM32H5xx_HAL_Driver/Src/stm32h5xx_hal_rtc_ex.c ****   /* Reset the BYPSHAD bit */
1298:Drivers/STM32H5xx_HAL_Driver/Src/stm32h5xx_hal_rtc_ex.c ****   CLEAR_BIT(RTC->CR, RTC_CR_BYPSHAD);
 2111              		.loc 1 1298 3 is_stmt 1 view .LVU672
 2112 0014 0649     		ldr	r1, .L161
 2113 0016 8B69     		ldr	r3, [r1, #24]
 2114 0018 23F02003 		bic	r3, r3, #32
 2115 001c 8B61     		str	r3, [r1, #24]
1299:Drivers/STM32H5xx_HAL_Driver/Src/stm32h5xx_hal_rtc_ex.c **** 
1300:Drivers/STM32H5xx_HAL_Driver/Src/stm32h5xx_hal_rtc_ex.c ****   /* Change RTC state */
1301:Drivers/STM32H5xx_HAL_Driver/Src/stm32h5xx_hal_rtc_ex.c ****   hrtc->State = HAL_RTC_STATE_READY;
ARM GAS  C:\Users\DELL\AppData\Local\Temp\ccMtHSyM.s 			page 63


 2116              		.loc 1 1301 3 view .LVU673
 2117              		.loc 1 1301 15 is_stmt 0 view .LVU674
 2118 001e 80F82D20 		strb	r2, [r0, #45]
1302:Drivers/STM32H5xx_HAL_Driver/Src/stm32h5xx_hal_rtc_ex.c **** 
1303:Drivers/STM32H5xx_HAL_Driver/Src/stm32h5xx_hal_rtc_ex.c ****   /* Process Unlocked */
1304:Drivers/STM32H5xx_HAL_Driver/Src/stm32h5xx_hal_rtc_ex.c ****   __HAL_UNLOCK(hrtc);
 2119              		.loc 1 1304 3 is_stmt 1 view .LVU675
 2120              		.loc 1 1304 3 view .LVU676
 2121 0022 0023     		movs	r3, #0
 2122 0024 80F82C30 		strb	r3, [r0, #44]
 2123              		.loc 1 1304 3 view .LVU677
1305:Drivers/STM32H5xx_HAL_Driver/Src/stm32h5xx_hal_rtc_ex.c **** 
1306:Drivers/STM32H5xx_HAL_Driver/Src/stm32h5xx_hal_rtc_ex.c ****   return HAL_OK;
 2124              		.loc 1 1306 3 view .LVU678
 2125              		.loc 1 1306 10 is_stmt 0 view .LVU679
 2126 0028 1846     		mov	r0, r3
 2127              	.LVL143:
 2128              		.loc 1 1306 10 view .LVU680
 2129 002a 7047     		bx	lr
 2130              	.LVL144:
 2131              	.L160:
1292:Drivers/STM32H5xx_HAL_Driver/Src/stm32h5xx_hal_rtc_ex.c **** 
 2132              		.loc 1 1292 3 discriminator 1 view .LVU681
 2133 002c 0220     		movs	r0, #2
 2134              	.LVL145:
1307:Drivers/STM32H5xx_HAL_Driver/Src/stm32h5xx_hal_rtc_ex.c **** }
 2135              		.loc 1 1307 1 view .LVU682
 2136 002e 7047     		bx	lr
 2137              	.L162:
 2138              		.align	2
 2139              	.L161:
 2140 0030 00780044 		.word	1140881408
 2141              		.cfi_endproc
 2142              	.LFE321:
 2144              		.section	.text.HAL_RTCEx_MonotonicCounterIncrement,"ax",%progbits
 2145              		.align	1
 2146              		.global	HAL_RTCEx_MonotonicCounterIncrement
 2147              		.syntax unified
 2148              		.thumb
 2149              		.thumb_func
 2151              	HAL_RTCEx_MonotonicCounterIncrement:
 2152              	.LVL146:
 2153              	.LFB322:
1308:Drivers/STM32H5xx_HAL_Driver/Src/stm32h5xx_hal_rtc_ex.c **** 
1309:Drivers/STM32H5xx_HAL_Driver/Src/stm32h5xx_hal_rtc_ex.c **** /**
1310:Drivers/STM32H5xx_HAL_Driver/Src/stm32h5xx_hal_rtc_ex.c ****   * @brief  Increment Monotonic counter.
1311:Drivers/STM32H5xx_HAL_Driver/Src/stm32h5xx_hal_rtc_ex.c ****   * @param  hrtc RTC handle
1312:Drivers/STM32H5xx_HAL_Driver/Src/stm32h5xx_hal_rtc_ex.c ****   * @param  Instance  Monotonic counter Instance
1313:Drivers/STM32H5xx_HAL_Driver/Src/stm32h5xx_hal_rtc_ex.c ****   *         This parameter can be one of the following values :
1314:Drivers/STM32H5xx_HAL_Driver/Src/stm32h5xx_hal_rtc_ex.c ****   *           @arg RTC_MONOTONIC_COUNTER_1
1315:Drivers/STM32H5xx_HAL_Driver/Src/stm32h5xx_hal_rtc_ex.c ****   * @retval HAL status
1316:Drivers/STM32H5xx_HAL_Driver/Src/stm32h5xx_hal_rtc_ex.c ****   */
1317:Drivers/STM32H5xx_HAL_Driver/Src/stm32h5xx_hal_rtc_ex.c **** HAL_StatusTypeDef HAL_RTCEx_MonotonicCounterIncrement(const RTC_HandleTypeDef *hrtc, uint32_t Insta
1318:Drivers/STM32H5xx_HAL_Driver/Src/stm32h5xx_hal_rtc_ex.c **** {
 2154              		.loc 1 1318 1 is_stmt 1 view -0
 2155              		.cfi_startproc
 2156              		@ args = 0, pretend = 0, frame = 0
ARM GAS  C:\Users\DELL\AppData\Local\Temp\ccMtHSyM.s 			page 64


 2157              		@ frame_needed = 0, uses_anonymous_args = 0
 2158              		@ link register save eliminated.
1319:Drivers/STM32H5xx_HAL_Driver/Src/stm32h5xx_hal_rtc_ex.c ****   /* Prevent unused argument(s) compilation warning */
1320:Drivers/STM32H5xx_HAL_Driver/Src/stm32h5xx_hal_rtc_ex.c ****   UNUSED(hrtc);
 2159              		.loc 1 1320 3 view .LVU684
1321:Drivers/STM32H5xx_HAL_Driver/Src/stm32h5xx_hal_rtc_ex.c ****   UNUSED(Instance);
 2160              		.loc 1 1321 3 view .LVU685
1322:Drivers/STM32H5xx_HAL_Driver/Src/stm32h5xx_hal_rtc_ex.c **** 
1323:Drivers/STM32H5xx_HAL_Driver/Src/stm32h5xx_hal_rtc_ex.c ****   /* This register is read-only only and is incremented by one when a write access is done to this
1324:Drivers/STM32H5xx_HAL_Driver/Src/stm32h5xx_hal_rtc_ex.c ****      register. This register cannot roll-over and is frozen when reaching the maximum value. */
1325:Drivers/STM32H5xx_HAL_Driver/Src/stm32h5xx_hal_rtc_ex.c ****   CLEAR_REG(TAMP->COUNT1R);
 2161              		.loc 1 1325 3 view .LVU686
 2162 0000 0020     		movs	r0, #0
 2163              	.LVL147:
 2164              		.loc 1 1325 3 is_stmt 0 view .LVU687
 2165 0002 014B     		ldr	r3, .L164
 2166 0004 1864     		str	r0, [r3, #64]
1326:Drivers/STM32H5xx_HAL_Driver/Src/stm32h5xx_hal_rtc_ex.c **** 
1327:Drivers/STM32H5xx_HAL_Driver/Src/stm32h5xx_hal_rtc_ex.c ****   return HAL_OK;
 2167              		.loc 1 1327 3 is_stmt 1 view .LVU688
1328:Drivers/STM32H5xx_HAL_Driver/Src/stm32h5xx_hal_rtc_ex.c **** }
 2168              		.loc 1 1328 1 is_stmt 0 view .LVU689
 2169 0006 7047     		bx	lr
 2170              	.L165:
 2171              		.align	2
 2172              	.L164:
 2173 0008 007C0044 		.word	1140882432
 2174              		.cfi_endproc
 2175              	.LFE322:
 2177              		.section	.text.HAL_RTCEx_MonotonicCounterGet,"ax",%progbits
 2178              		.align	1
 2179              		.global	HAL_RTCEx_MonotonicCounterGet
 2180              		.syntax unified
 2181              		.thumb
 2182              		.thumb_func
 2184              	HAL_RTCEx_MonotonicCounterGet:
 2185              	.LVL148:
 2186              	.LFB323:
1329:Drivers/STM32H5xx_HAL_Driver/Src/stm32h5xx_hal_rtc_ex.c **** 
1330:Drivers/STM32H5xx_HAL_Driver/Src/stm32h5xx_hal_rtc_ex.c **** /**
1331:Drivers/STM32H5xx_HAL_Driver/Src/stm32h5xx_hal_rtc_ex.c ****   * @brief  Monotonic counter.
1332:Drivers/STM32H5xx_HAL_Driver/Src/stm32h5xx_hal_rtc_ex.c ****   * @param  hrtc RTC handle
1333:Drivers/STM32H5xx_HAL_Driver/Src/stm32h5xx_hal_rtc_ex.c ****   * @param  Instance  Monotonic counter Instance
1334:Drivers/STM32H5xx_HAL_Driver/Src/stm32h5xx_hal_rtc_ex.c ****   *         This parameter can be one of the following values :
1335:Drivers/STM32H5xx_HAL_Driver/Src/stm32h5xx_hal_rtc_ex.c ****   *           @arg RTC_MONOTONIC_COUNTER_1
1336:Drivers/STM32H5xx_HAL_Driver/Src/stm32h5xx_hal_rtc_ex.c ****   * @param  pValue Pointer to the counter monotonic counter value
1337:Drivers/STM32H5xx_HAL_Driver/Src/stm32h5xx_hal_rtc_ex.c ****   * @retval HAL status
1338:Drivers/STM32H5xx_HAL_Driver/Src/stm32h5xx_hal_rtc_ex.c ****   */
1339:Drivers/STM32H5xx_HAL_Driver/Src/stm32h5xx_hal_rtc_ex.c **** HAL_StatusTypeDef HAL_RTCEx_MonotonicCounterGet(const RTC_HandleTypeDef *hrtc, uint32_t Instance, u
1340:Drivers/STM32H5xx_HAL_Driver/Src/stm32h5xx_hal_rtc_ex.c **** {
 2187              		.loc 1 1340 1 is_stmt 1 view -0
 2188              		.cfi_startproc
 2189              		@ args = 0, pretend = 0, frame = 0
 2190              		@ frame_needed = 0, uses_anonymous_args = 0
 2191              		@ link register save eliminated.
1341:Drivers/STM32H5xx_HAL_Driver/Src/stm32h5xx_hal_rtc_ex.c ****   /* Prevent unused argument(s) compilation warning */
1342:Drivers/STM32H5xx_HAL_Driver/Src/stm32h5xx_hal_rtc_ex.c ****   UNUSED(hrtc);
ARM GAS  C:\Users\DELL\AppData\Local\Temp\ccMtHSyM.s 			page 65


 2192              		.loc 1 1342 3 view .LVU691
1343:Drivers/STM32H5xx_HAL_Driver/Src/stm32h5xx_hal_rtc_ex.c ****   UNUSED(Instance);
 2193              		.loc 1 1343 3 view .LVU692
1344:Drivers/STM32H5xx_HAL_Driver/Src/stm32h5xx_hal_rtc_ex.c **** 
1345:Drivers/STM32H5xx_HAL_Driver/Src/stm32h5xx_hal_rtc_ex.c ****   /* This register is read-only only and is incremented by one when a write access is done to this
1346:Drivers/STM32H5xx_HAL_Driver/Src/stm32h5xx_hal_rtc_ex.c ****      register. This register cannot roll-over and is frozen when reaching the maximum value. */
1347:Drivers/STM32H5xx_HAL_Driver/Src/stm32h5xx_hal_rtc_ex.c ****   *pValue = READ_REG(TAMP->COUNT1R);
 2194              		.loc 1 1347 3 view .LVU693
 2195              		.loc 1 1347 13 is_stmt 0 view .LVU694
 2196 0000 024B     		ldr	r3, .L167
 2197 0002 1B6C     		ldr	r3, [r3, #64]
 2198              		.loc 1 1347 11 view .LVU695
 2199 0004 1360     		str	r3, [r2]
1348:Drivers/STM32H5xx_HAL_Driver/Src/stm32h5xx_hal_rtc_ex.c **** 
1349:Drivers/STM32H5xx_HAL_Driver/Src/stm32h5xx_hal_rtc_ex.c ****   return HAL_OK;
 2200              		.loc 1 1349 3 is_stmt 1 view .LVU696
1350:Drivers/STM32H5xx_HAL_Driver/Src/stm32h5xx_hal_rtc_ex.c **** }
 2201              		.loc 1 1350 1 is_stmt 0 view .LVU697
 2202 0006 0020     		movs	r0, #0
 2203              	.LVL149:
 2204              		.loc 1 1350 1 view .LVU698
 2205 0008 7047     		bx	lr
 2206              	.L168:
 2207 000a 00BF     		.align	2
 2208              	.L167:
 2209 000c 007C0044 		.word	1140882432
 2210              		.cfi_endproc
 2211              	.LFE323:
 2213              		.section	.text.HAL_RTCEx_SetSSRU_IT,"ax",%progbits
 2214              		.align	1
 2215              		.global	HAL_RTCEx_SetSSRU_IT
 2216              		.syntax unified
 2217              		.thumb
 2218              		.thumb_func
 2220              	HAL_RTCEx_SetSSRU_IT:
 2221              	.LVL150:
 2222              	.LFB324:
1351:Drivers/STM32H5xx_HAL_Driver/Src/stm32h5xx_hal_rtc_ex.c **** 
1352:Drivers/STM32H5xx_HAL_Driver/Src/stm32h5xx_hal_rtc_ex.c **** /**
1353:Drivers/STM32H5xx_HAL_Driver/Src/stm32h5xx_hal_rtc_ex.c ****   * @brief  Set SSR Underflow detection with Interrupt.
1354:Drivers/STM32H5xx_HAL_Driver/Src/stm32h5xx_hal_rtc_ex.c ****   * @note   The application must ensure that the EXTI RTC interrupt line is enabled.
1355:Drivers/STM32H5xx_HAL_Driver/Src/stm32h5xx_hal_rtc_ex.c ****   * @param  hrtc RTC handle
1356:Drivers/STM32H5xx_HAL_Driver/Src/stm32h5xx_hal_rtc_ex.c ****   * @retval HAL status
1357:Drivers/STM32H5xx_HAL_Driver/Src/stm32h5xx_hal_rtc_ex.c ****   */
1358:Drivers/STM32H5xx_HAL_Driver/Src/stm32h5xx_hal_rtc_ex.c **** HAL_StatusTypeDef HAL_RTCEx_SetSSRU_IT(RTC_HandleTypeDef *hrtc)
1359:Drivers/STM32H5xx_HAL_Driver/Src/stm32h5xx_hal_rtc_ex.c **** {
 2223              		.loc 1 1359 1 is_stmt 1 view -0
 2224              		.cfi_startproc
 2225              		@ args = 0, pretend = 0, frame = 0
 2226              		@ frame_needed = 0, uses_anonymous_args = 0
 2227              		@ link register save eliminated.
1360:Drivers/STM32H5xx_HAL_Driver/Src/stm32h5xx_hal_rtc_ex.c ****   /* Process Locked */
1361:Drivers/STM32H5xx_HAL_Driver/Src/stm32h5xx_hal_rtc_ex.c ****   __HAL_LOCK(hrtc);
 2228              		.loc 1 1361 3 view .LVU700
 2229              		.loc 1 1361 3 view .LVU701
 2230 0000 90F82C30 		ldrb	r3, [r0, #44]	@ zero_extendqisi2
 2231 0004 012B     		cmp	r3, #1
ARM GAS  C:\Users\DELL\AppData\Local\Temp\ccMtHSyM.s 			page 66


 2232 0006 11D0     		beq	.L171
 2233              		.loc 1 1361 3 discriminator 2 view .LVU702
 2234 0008 0122     		movs	r2, #1
 2235 000a 80F82C20 		strb	r2, [r0, #44]
 2236              		.loc 1 1361 3 view .LVU703
1362:Drivers/STM32H5xx_HAL_Driver/Src/stm32h5xx_hal_rtc_ex.c **** 
1363:Drivers/STM32H5xx_HAL_Driver/Src/stm32h5xx_hal_rtc_ex.c ****   /* Change RTC state */
1364:Drivers/STM32H5xx_HAL_Driver/Src/stm32h5xx_hal_rtc_ex.c ****   hrtc->State = HAL_RTC_STATE_BUSY;
 2237              		.loc 1 1364 3 view .LVU704
 2238              		.loc 1 1364 15 is_stmt 0 view .LVU705
 2239 000e 0223     		movs	r3, #2
 2240 0010 80F82D30 		strb	r3, [r0, #45]
1365:Drivers/STM32H5xx_HAL_Driver/Src/stm32h5xx_hal_rtc_ex.c **** 
1366:Drivers/STM32H5xx_HAL_Driver/Src/stm32h5xx_hal_rtc_ex.c ****   /* Enable IT SSRU */
1367:Drivers/STM32H5xx_HAL_Driver/Src/stm32h5xx_hal_rtc_ex.c ****   __HAL_RTC_SSRU_ENABLE_IT(hrtc, RTC_IT_SSRU);
 2241              		.loc 1 1367 3 is_stmt 1 view .LVU706
 2242 0014 0649     		ldr	r1, .L172
 2243 0016 8B69     		ldr	r3, [r1, #24]
 2244 0018 43F08003 		orr	r3, r3, #128
 2245 001c 8B61     		str	r3, [r1, #24]
1368:Drivers/STM32H5xx_HAL_Driver/Src/stm32h5xx_hal_rtc_ex.c **** 
1369:Drivers/STM32H5xx_HAL_Driver/Src/stm32h5xx_hal_rtc_ex.c ****   /* Change RTC state */
1370:Drivers/STM32H5xx_HAL_Driver/Src/stm32h5xx_hal_rtc_ex.c ****   hrtc->State = HAL_RTC_STATE_READY;
 2246              		.loc 1 1370 3 view .LVU707
 2247              		.loc 1 1370 15 is_stmt 0 view .LVU708
 2248 001e 80F82D20 		strb	r2, [r0, #45]
1371:Drivers/STM32H5xx_HAL_Driver/Src/stm32h5xx_hal_rtc_ex.c **** 
1372:Drivers/STM32H5xx_HAL_Driver/Src/stm32h5xx_hal_rtc_ex.c ****   /* Process Unlocked */
1373:Drivers/STM32H5xx_HAL_Driver/Src/stm32h5xx_hal_rtc_ex.c ****   __HAL_UNLOCK(hrtc);
 2249              		.loc 1 1373 3 is_stmt 1 view .LVU709
 2250              		.loc 1 1373 3 view .LVU710
 2251 0022 0023     		movs	r3, #0
 2252 0024 80F82C30 		strb	r3, [r0, #44]
 2253              		.loc 1 1373 3 view .LVU711
1374:Drivers/STM32H5xx_HAL_Driver/Src/stm32h5xx_hal_rtc_ex.c **** 
1375:Drivers/STM32H5xx_HAL_Driver/Src/stm32h5xx_hal_rtc_ex.c ****   return HAL_OK;
 2254              		.loc 1 1375 3 view .LVU712
 2255              		.loc 1 1375 10 is_stmt 0 view .LVU713
 2256 0028 1846     		mov	r0, r3
 2257              	.LVL151:
 2258              		.loc 1 1375 10 view .LVU714
 2259 002a 7047     		bx	lr
 2260              	.LVL152:
 2261              	.L171:
1361:Drivers/STM32H5xx_HAL_Driver/Src/stm32h5xx_hal_rtc_ex.c **** 
 2262              		.loc 1 1361 3 discriminator 1 view .LVU715
 2263 002c 0220     		movs	r0, #2
 2264              	.LVL153:
1376:Drivers/STM32H5xx_HAL_Driver/Src/stm32h5xx_hal_rtc_ex.c **** }
 2265              		.loc 1 1376 1 view .LVU716
 2266 002e 7047     		bx	lr
 2267              	.L173:
 2268              		.align	2
 2269              	.L172:
 2270 0030 00780044 		.word	1140881408
 2271              		.cfi_endproc
 2272              	.LFE324:
ARM GAS  C:\Users\DELL\AppData\Local\Temp\ccMtHSyM.s 			page 67


 2274              		.section	.text.HAL_RTCEx_DeactivateSSRU,"ax",%progbits
 2275              		.align	1
 2276              		.global	HAL_RTCEx_DeactivateSSRU
 2277              		.syntax unified
 2278              		.thumb
 2279              		.thumb_func
 2281              	HAL_RTCEx_DeactivateSSRU:
 2282              	.LVL154:
 2283              	.LFB325:
1377:Drivers/STM32H5xx_HAL_Driver/Src/stm32h5xx_hal_rtc_ex.c **** 
1378:Drivers/STM32H5xx_HAL_Driver/Src/stm32h5xx_hal_rtc_ex.c **** /**
1379:Drivers/STM32H5xx_HAL_Driver/Src/stm32h5xx_hal_rtc_ex.c ****   * @brief  Deactivate SSR Underflow.
1380:Drivers/STM32H5xx_HAL_Driver/Src/stm32h5xx_hal_rtc_ex.c ****   * @param  hrtc RTC handle
1381:Drivers/STM32H5xx_HAL_Driver/Src/stm32h5xx_hal_rtc_ex.c ****   * @retval HAL status
1382:Drivers/STM32H5xx_HAL_Driver/Src/stm32h5xx_hal_rtc_ex.c ****   */
1383:Drivers/STM32H5xx_HAL_Driver/Src/stm32h5xx_hal_rtc_ex.c **** HAL_StatusTypeDef HAL_RTCEx_DeactivateSSRU(RTC_HandleTypeDef *hrtc)
1384:Drivers/STM32H5xx_HAL_Driver/Src/stm32h5xx_hal_rtc_ex.c **** {
 2284              		.loc 1 1384 1 is_stmt 1 view -0
 2285              		.cfi_startproc
 2286              		@ args = 0, pretend = 0, frame = 0
 2287              		@ frame_needed = 0, uses_anonymous_args = 0
 2288              		@ link register save eliminated.
1385:Drivers/STM32H5xx_HAL_Driver/Src/stm32h5xx_hal_rtc_ex.c ****   /* Process Locked */
1386:Drivers/STM32H5xx_HAL_Driver/Src/stm32h5xx_hal_rtc_ex.c ****   __HAL_LOCK(hrtc);
 2289              		.loc 1 1386 3 view .LVU718
 2290              		.loc 1 1386 3 view .LVU719
 2291 0000 90F82C30 		ldrb	r3, [r0, #44]	@ zero_extendqisi2
 2292 0004 012B     		cmp	r3, #1
 2293 0006 11D0     		beq	.L176
 2294              		.loc 1 1386 3 discriminator 2 view .LVU720
 2295 0008 0122     		movs	r2, #1
 2296 000a 80F82C20 		strb	r2, [r0, #44]
 2297              		.loc 1 1386 3 view .LVU721
1387:Drivers/STM32H5xx_HAL_Driver/Src/stm32h5xx_hal_rtc_ex.c **** 
1388:Drivers/STM32H5xx_HAL_Driver/Src/stm32h5xx_hal_rtc_ex.c ****   /* Change RTC state */
1389:Drivers/STM32H5xx_HAL_Driver/Src/stm32h5xx_hal_rtc_ex.c ****   hrtc->State = HAL_RTC_STATE_BUSY;
 2298              		.loc 1 1389 3 view .LVU722
 2299              		.loc 1 1389 15 is_stmt 0 view .LVU723
 2300 000e 0223     		movs	r3, #2
 2301 0010 80F82D30 		strb	r3, [r0, #45]
1390:Drivers/STM32H5xx_HAL_Driver/Src/stm32h5xx_hal_rtc_ex.c **** 
1391:Drivers/STM32H5xx_HAL_Driver/Src/stm32h5xx_hal_rtc_ex.c ****   /* In case of interrupt mode is used, the interrupt source must disabled */
1392:Drivers/STM32H5xx_HAL_Driver/Src/stm32h5xx_hal_rtc_ex.c ****   __HAL_RTC_SSRU_DISABLE_IT(hrtc, RTC_IT_SSRU);
 2302              		.loc 1 1392 3 is_stmt 1 view .LVU724
 2303 0014 0649     		ldr	r1, .L177
 2304 0016 8B69     		ldr	r3, [r1, #24]
 2305 0018 23F08003 		bic	r3, r3, #128
 2306 001c 8B61     		str	r3, [r1, #24]
1393:Drivers/STM32H5xx_HAL_Driver/Src/stm32h5xx_hal_rtc_ex.c **** 
1394:Drivers/STM32H5xx_HAL_Driver/Src/stm32h5xx_hal_rtc_ex.c ****   /* Change RTC state */
1395:Drivers/STM32H5xx_HAL_Driver/Src/stm32h5xx_hal_rtc_ex.c ****   hrtc->State = HAL_RTC_STATE_READY;
 2307              		.loc 1 1395 3 view .LVU725
 2308              		.loc 1 1395 15 is_stmt 0 view .LVU726
 2309 001e 80F82D20 		strb	r2, [r0, #45]
1396:Drivers/STM32H5xx_HAL_Driver/Src/stm32h5xx_hal_rtc_ex.c **** 
1397:Drivers/STM32H5xx_HAL_Driver/Src/stm32h5xx_hal_rtc_ex.c ****   /* Process Unlocked */
1398:Drivers/STM32H5xx_HAL_Driver/Src/stm32h5xx_hal_rtc_ex.c ****   __HAL_UNLOCK(hrtc);
ARM GAS  C:\Users\DELL\AppData\Local\Temp\ccMtHSyM.s 			page 68


 2310              		.loc 1 1398 3 is_stmt 1 view .LVU727
 2311              		.loc 1 1398 3 view .LVU728
 2312 0022 0023     		movs	r3, #0
 2313 0024 80F82C30 		strb	r3, [r0, #44]
 2314              		.loc 1 1398 3 view .LVU729
1399:Drivers/STM32H5xx_HAL_Driver/Src/stm32h5xx_hal_rtc_ex.c **** 
1400:Drivers/STM32H5xx_HAL_Driver/Src/stm32h5xx_hal_rtc_ex.c ****   return HAL_OK;
 2315              		.loc 1 1400 3 view .LVU730
 2316              		.loc 1 1400 10 is_stmt 0 view .LVU731
 2317 0028 1846     		mov	r0, r3
 2318              	.LVL155:
 2319              		.loc 1 1400 10 view .LVU732
 2320 002a 7047     		bx	lr
 2321              	.LVL156:
 2322              	.L176:
1386:Drivers/STM32H5xx_HAL_Driver/Src/stm32h5xx_hal_rtc_ex.c **** 
 2323              		.loc 1 1386 3 discriminator 1 view .LVU733
 2324 002c 0220     		movs	r0, #2
 2325              	.LVL157:
1401:Drivers/STM32H5xx_HAL_Driver/Src/stm32h5xx_hal_rtc_ex.c **** }
 2326              		.loc 1 1401 1 view .LVU734
 2327 002e 7047     		bx	lr
 2328              	.L178:
 2329              		.align	2
 2330              	.L177:
 2331 0030 00780044 		.word	1140881408
 2332              		.cfi_endproc
 2333              	.LFE325:
