ARM GAS  C:\Users\DELL\AppData\Local\Temp\ccKkCxJb.s 			page 1


   1              		.cpu cortex-m33
   2              		.arch armv8-m.main
   3              		.fpu fpv5-sp-d16
   4              		.arch_extension dsp
   5              		.eabi_attribute 27, 1
   6              		.eabi_attribute 28, 1
   7              		.eabi_attribute 20, 1
   8              		.eabi_attribute 21, 1
   9              		.eabi_attribute 23, 3
  10              		.eabi_attribute 24, 1
  11              		.eabi_attribute 25, 1
  12              		.eabi_attribute 26, 1
  13              		.eabi_attribute 30, 1
  14              		.eabi_attribute 34, 1
  15              		.eabi_attribute 18, 4
  16              		.file	"sx_board.c"
  17              		.text
  18              	.Ltext0:
  19              		.cfi_sections	.debug_frame
  20              		.file 1 "SynaptiX_FDK/board/sx_board.c"
  21              		.section	.text.log_print,"ax",%progbits
  22              		.align	1
  23              		.syntax unified
  24              		.thumb
  25              		.thumb_func
  27              	log_print:
  28              	.LVL0:
  29              	.LFB439:
   1:SynaptiX_FDK/board/sx_board.c **** #include "sx_board.h"
   2:SynaptiX_FDK/board/sx_board.c **** #include "stm32h5xx_hal.h"
   3:SynaptiX_FDK/board/sx_board.c **** #include "tusb.h"
   4:SynaptiX_FDK/board/sx_board.c **** #include "usb.h"
   5:SynaptiX_FDK/board/sx_board.c **** #include "sx_user_cdc.h"
   6:SynaptiX_FDK/board/sx_board.c **** #include "sx_user_msc.h"
   7:SynaptiX_FDK/board/sx_board.c **** #include "logger.h"
   8:SynaptiX_FDK/board/sx_board.c **** #include "sx_delay.h"
   9:SynaptiX_FDK/board/sx_board.c **** #include "sx_gpio.h"
  10:SynaptiX_FDK/board/sx_board.c **** #include "app.h"
  11:SynaptiX_FDK/board/sx_board.c **** #include "sx_sleep.h"
  12:SynaptiX_FDK/board/sx_board.c **** 
  13:SynaptiX_FDK/board/sx_board.c **** static const char *TAG = "BOARD";
  14:SynaptiX_FDK/board/sx_board.c **** 
  15:SynaptiX_FDK/board/sx_board.c **** Board_t board;
  16:SynaptiX_FDK/board/sx_board.c **** 
  17:SynaptiX_FDK/board/sx_board.c **** 
  18:SynaptiX_FDK/board/sx_board.c **** static UART_HandleTypeDef *hal_uart[6] = {&huart1, &huart2, &huart3, &huart4, &huart5, &huart6}; //
  19:SynaptiX_FDK/board/sx_board.c **** static sx_uart_t *bsp_uart[6];
  20:SynaptiX_FDK/board/sx_board.c **** static uint8_t uart_rx_char[6];
  21:SynaptiX_FDK/board/sx_board.c **** 
  22:SynaptiX_FDK/board/sx_board.c **** static void set_enter_sleep_mode(void);
  23:SynaptiX_FDK/board/sx_board.c **** static void set_enter_full_mode(void);
  24:SynaptiX_FDK/board/sx_board.c **** 
  25:SynaptiX_FDK/board/sx_board.c **** void dcd_fs_msp_init(uint8_t rhport)
  26:SynaptiX_FDK/board/sx_board.c **** {
  27:SynaptiX_FDK/board/sx_board.c ****     (void)rhport;
  28:SynaptiX_FDK/board/sx_board.c ****     log_info(TAG, "dcd_fs_msp_init called");
  29:SynaptiX_FDK/board/sx_board.c ****     hpcd_USB_DRD_FS.Instance = USB_DRD_FS;
ARM GAS  C:\Users\DELL\AppData\Local\Temp\ccKkCxJb.s 			page 2


  30:SynaptiX_FDK/board/sx_board.c ****     HAL_PCD_MspInit(&hpcd_USB_DRD_FS);
  31:SynaptiX_FDK/board/sx_board.c ****     HAL_Delay(100);
  32:SynaptiX_FDK/board/sx_board.c ****     log_info(TAG, "MSP init done!");
  33:SynaptiX_FDK/board/sx_board.c **** }
  34:SynaptiX_FDK/board/sx_board.c **** 
  35:SynaptiX_FDK/board/sx_board.c **** void USB_DRD_FS_IRQHandler(void)
  36:SynaptiX_FDK/board/sx_board.c **** {
  37:SynaptiX_FDK/board/sx_board.c ****     tud_int_handler(0);
  38:SynaptiX_FDK/board/sx_board.c **** }
  39:SynaptiX_FDK/board/sx_board.c **** 
  40:SynaptiX_FDK/board/sx_board.c **** /* ------------------------------------------------------------------ */
  41:SynaptiX_FDK/board/sx_board.c **** /*  GPIO Define                                                       */
  42:SynaptiX_FDK/board/sx_board.c **** /* ------------------------------------------------------------------ */
  43:SynaptiX_FDK/board/sx_board.c **** static sx_gpio_pin_t s_lte_pwrkey_pin = {.pin = LTE_PWRKEY_Pin, .port = LTE_PWRKEY_Port};
  44:SynaptiX_FDK/board/sx_board.c **** /* LTE_RESET_Pin (GPIOD PIN_11) — per schematic, drives Q2's base through
  45:SynaptiX_FDK/board/sx_board.c ****  * R17 (open-collector style switch to GND on the module's own RESET pin).
  46:SynaptiX_FDK/board/sx_board.c ****  * MCU HIGH -> Q2 on -> module's RESET pin pulled low (native active-low
  47:SynaptiX_FDK/board/sx_board.c ****  * reset). MCU LOW (default/idle, R19 pulls Q2's base down, CubeMX also
  48:SynaptiX_FDK/board/sx_board.c ****  * inits this pin LOW at boot) -> Q2 off -> module's RESET pin floats high
  49:SynaptiX_FDK/board/sx_board.c ****  * via its internal VBAT pull-up -> normal operation. Used only by
  50:SynaptiX_FDK/board/sx_board.c ****  * a7677s_hard_reset() (modem_ops_t.hard_reset) as a last-resort escalation
  51:SynaptiX_FDK/board/sx_board.c ****  * when the normal PWRKEY power_off_start()/power_on_start() cycle has
  52:SynaptiX_FDK/board/sx_board.c ****  * itself failed to recover the modem, or it has stopped responding to AT
  53:SynaptiX_FDK/board/sx_board.c ****  * entirely — not a routine recovery path. See a7677s_t.resetPin's
  54:SynaptiX_FDK/board/sx_board.c ****  * doc-comment in a7677s.h for the full timing/state-machine details. */
  55:SynaptiX_FDK/board/sx_board.c **** static sx_gpio_pin_t s_lte_reset_pin = {.pin = LTE_RESET_Pin, .port = LTE_RESET_Port};
  56:SynaptiX_FDK/board/sx_board.c **** 
  57:SynaptiX_FDK/board/sx_board.c **** /* No VBAT-cutoff transistor on this board revision for the modem — see
  58:SynaptiX_FDK/board/sx_board.c ****  * a7677s_t.hasPowerPin (set to 0 below). A future board revision may add
  59:SynaptiX_FDK/board/sx_board.c ****  * one back, hence the field stays in modem_t/a7677s_t rather than being
  60:SynaptiX_FDK/board/sx_board.c ****  * removed outright (see modem.h's own comment on hasPowerPin/powerPin). */
  61:SynaptiX_FDK/board/sx_board.c **** 
  62:SynaptiX_FDK/board/sx_board.c **** static sx_gpio_pin_t s_gps_cpw_pin = {.pin = GPS_CPW_Pin, .port = GPS_CPW_Port};
  63:SynaptiX_FDK/board/sx_board.c **** static sx_gpio_pin_t s_gps_rst_pin = {.pin = GPS_RST_Pin, .port = GPS_RST_Port};
  64:SynaptiX_FDK/board/sx_board.c **** /* GPS_PPS_Pin is wired but not used by this firmware yet (no 1PPS capture
  65:SynaptiX_FDK/board/sx_board.c ****  * configured) — no sx_gpio_pin_t declared for it, nothing to pass around
  66:SynaptiX_FDK/board/sx_board.c ****  * until that feature is implemented. */
  67:SynaptiX_FDK/board/sx_board.c **** 
  68:SynaptiX_FDK/board/sx_board.c **** static sx_gpio_pin_t s_spi_cs_pin = {.pin = SPI_CS_Pin, .port = SPI_CS_Port};
  69:SynaptiX_FDK/board/sx_board.c **** 
  70:SynaptiX_FDK/board/sx_board.c **** /* RTC and IMU share the same physical reset line (I2C1_RESET_Pin) per the
  71:SynaptiX_FDK/board/sx_board.c ****  * schematic — one wire, not two independent pins. RTC does not use it at
  72:SynaptiX_FDK/board/sx_board.c ****  * all (rx8130ce_init() resets itself via an I2C register sequence per the
  73:SynaptiX_FDK/board/sx_board.c ****  * datasheet, see sx_ex_rtc.c's _software_reset()); only IMU takes this GPIO
  74:SynaptiX_FDK/board/sx_board.c ****  * as its reset_gpio. Kept as a single sx_gpio_t rather than one per
  75:SynaptiX_FDK/board/sx_board.c ****  * consumer, since writing it from two independent handles for what is one
  76:SynaptiX_FDK/board/sx_board.c ****  * physical wire invites the two drivers stepping on each other. */
  77:SynaptiX_FDK/board/sx_board.c **** static sx_gpio_t     s_i2c1_reset;
  78:SynaptiX_FDK/board/sx_board.c **** static sx_gpio_pin_t s_i2c1_reset_pin = {.pin = I2C1_RESET_Pin, .port = I2C1_RESET_Port};
  79:SynaptiX_FDK/board/sx_board.c **** 
  80:SynaptiX_FDK/board/sx_board.c **** /* RS485_RDE_Pin is wired (see sx_board.h) but not yet driven by any init
  81:SynaptiX_FDK/board/sx_board.c ****  * call in this file — left undeclared here rather than adding an unused
  82:SynaptiX_FDK/board/sx_board.c ****  * sx_gpio_t/sx_gpio_pin_t pair for a pin nothing reads or writes yet. */
  83:SynaptiX_FDK/board/sx_board.c **** 
  84:SynaptiX_FDK/board/sx_board.c **** /* SPS30 power enable — see EN_PW_DUST_Pin's doc-comment in sx_board.h for
  85:SynaptiX_FDK/board/sx_board.c ****  * the full opto/MOSFET chain and active-HIGH polarity. Defaults LOW at
  86:SynaptiX_FDK/board/sx_board.c ****  * boot (CubeMX's MX_GPIO_Init resets it low before this file ever runs),
ARM GAS  C:\Users\DELL\AppData\Local\Temp\ccKkCxJb.s 			page 3


  87:SynaptiX_FDK/board/sx_board.c ****  * so SPS30 stays unpowered until something explicitly drives it HIGH —
  88:SynaptiX_FDK/board/sx_board.c ****  * that on/off sequencing belongs to the SPS30 business-logic layer
  89:SynaptiX_FDK/board/sx_board.c ****  * (not yet written), not to board bring-up, so it is only declared here. */
  90:SynaptiX_FDK/board/sx_board.c **** static sx_gpio_t     s_en_pw_dust;
  91:SynaptiX_FDK/board/sx_board.c **** static sx_gpio_pin_t s_en_pw_dust_pin = {.pin = EN_PW_DUST_Pin, .port = EN_PW_DUST_Port};
  92:SynaptiX_FDK/board/sx_board.c **** 
  93:SynaptiX_FDK/board/sx_board.c **** /* ZE12A mux select lines (TMUX4052 A0/A1) — see gas_sensor_init() in
  94:SynaptiX_FDK/board/sx_board.c ****  * ze12a.c, which owns and drives these once initialized below. */
  95:SynaptiX_FDK/board/sx_board.c **** static sx_gpio_pin_t s_uart5_s0_pin = {.pin = UART5_S0_Pin, .port = UART5_S0_Port};
  96:SynaptiX_FDK/board/sx_board.c **** static sx_gpio_pin_t s_uart5_s1_pin = {.pin = UART5_S1_Pin, .port = UART5_S1_Port};
  97:SynaptiX_FDK/board/sx_board.c **** 
  98:SynaptiX_FDK/board/sx_board.c **** static void spi_storage_init(void){
  99:SynaptiX_FDK/board/sx_board.c ****     board.storage_cfg.cs_pin = s_spi_cs_pin;
 100:SynaptiX_FDK/board/sx_board.c ****     board.storage_cfg.hspi = &hspi1;
 101:SynaptiX_FDK/board/sx_board.c **** 
 102:SynaptiX_FDK/board/sx_board.c ****     sx_storage_init(&board.storage_cfg);
 103:SynaptiX_FDK/board/sx_board.c **** }
 104:SynaptiX_FDK/board/sx_board.c **** 
 105:SynaptiX_FDK/board/sx_board.c **** // USART define
 106:SynaptiX_FDK/board/sx_board.c **** 
 107:SynaptiX_FDK/board/sx_board.c **** /* ------------------------------------------------------------------ */
 108:SynaptiX_FDK/board/sx_board.c **** /*  Board                                                               */
 109:SynaptiX_FDK/board/sx_board.c **** /* ------------------------------------------------------------------ */
 110:SynaptiX_FDK/board/sx_board.c **** 
 111:SynaptiX_FDK/board/sx_board.c **** static void log_print(const char *str)
 112:SynaptiX_FDK/board/sx_board.c **** {
  30              		.loc 1 112 1 view -0
  31              		.cfi_startproc
  32              		@ args = 0, pretend = 0, frame = 0
  33              		@ frame_needed = 0, uses_anonymous_args = 0
  34              		.loc 1 112 1 is_stmt 0 view .LVU1
  35 0000 10B5     		push	{r4, lr}
  36              	.LCFI0:
  37              		.cfi_def_cfa_offset 8
  38              		.cfi_offset 4, -8
  39              		.cfi_offset 14, -4
  40 0002 0446     		mov	r4, r0
 113:SynaptiX_FDK/board/sx_board.c ****     sx_uart_write(&board.log_uart, (const uint8_t *)str, strlen(str));
  41              		.loc 1 113 5 is_stmt 1 view .LVU2
  42              		.loc 1 113 58 is_stmt 0 view .LVU3
  43 0004 FFF7FEFF 		bl	strlen
  44              	.LVL1:
  45              		.loc 1 113 58 view .LVU4
  46 0008 0246     		mov	r2, r0
  47              		.loc 1 113 5 discriminator 1 view .LVU5
  48 000a 2146     		mov	r1, r4
  49 000c 0148     		ldr	r0, .L3
  50 000e FFF7FEFF 		bl	sx_uart_write
  51              	.LVL2:
 114:SynaptiX_FDK/board/sx_board.c **** }
  52              		.loc 1 114 1 view .LVU6
  53 0012 10BD     		pop	{r4, pc}
  54              	.LVL3:
  55              	.L4:
  56              		.loc 1 114 1 view .LVU7
  57              		.align	2
  58              	.L3:
ARM GAS  C:\Users\DELL\AppData\Local\Temp\ccKkCxJb.s 			page 4


  59 0014 8CDD0000 		.word	board+56716
  60              		.cfi_endproc
  61              	.LFE439:
  63              		.section	.text.spi_storage_init,"ax",%progbits
  64              		.align	1
  65              		.syntax unified
  66              		.thumb
  67              		.thumb_func
  69              	spi_storage_init:
  70              	.LFB438:
  98:SynaptiX_FDK/board/sx_board.c ****     board.storage_cfg.cs_pin = s_spi_cs_pin;
  71              		.loc 1 98 35 is_stmt 1 view -0
  72              		.cfi_startproc
  73              		@ args = 0, pretend = 0, frame = 0
  74              		@ frame_needed = 0, uses_anonymous_args = 0
  75 0000 08B5     		push	{r3, lr}
  76              	.LCFI1:
  77              		.cfi_def_cfa_offset 8
  78              		.cfi_offset 3, -8
  79              		.cfi_offset 14, -4
  99:SynaptiX_FDK/board/sx_board.c ****     board.storage_cfg.hspi = &hspi1;
  80              		.loc 1 99 5 view .LVU9
  99:SynaptiX_FDK/board/sx_board.c ****     board.storage_cfg.hspi = &hspi1;
  81              		.loc 1 99 30 is_stmt 0 view .LVU10
  82 0002 074B     		ldr	r3, .L7
  83 0004 0749     		ldr	r1, .L7+4
  84 0006 03F63C62 		addw	r2, r3, #3644
  85 000a 03C9     		ldm	r1, {r0, r1}
  86 000c 82E80300 		stm	r2, {r0, r1}
 100:SynaptiX_FDK/board/sx_board.c **** 
  87              		.loc 1 100 5 is_stmt 1 view .LVU11
 100:SynaptiX_FDK/board/sx_board.c **** 
  88              		.loc 1 100 28 is_stmt 0 view .LVU12
  89 0010 054A     		ldr	r2, .L7+8
  90 0012 C3F8202E 		str	r2, [r3, #3616]
 102:SynaptiX_FDK/board/sx_board.c **** }
  91              		.loc 1 102 5 is_stmt 1 view .LVU13
  92 0016 03F56260 		add	r0, r3, #3616
  93 001a FFF7FEFF 		bl	sx_storage_init
  94              	.LVL4:
 103:SynaptiX_FDK/board/sx_board.c **** 
  95              		.loc 1 103 1 is_stmt 0 view .LVU14
  96 001e 08BD     		pop	{r3, pc}
  97              	.L8:
  98              		.align	2
  99              	.L7:
 100 0020 00D00000 		.word	board+53248
 101 0024 00000000 		.word	s_spi_cs_pin
 102 0028 00000000 		.word	hspi1
 103              		.cfi_endproc
 104              	.LFE438:
 106              		.section	.text.sx_gps_uart_abort,"ax",%progbits
 107              		.align	1
 108              		.syntax unified
 109              		.thumb
 110              		.thumb_func
 112              	sx_gps_uart_abort:
ARM GAS  C:\Users\DELL\AppData\Local\Temp\ccKkCxJb.s 			page 5


 113              	.LFB442:
 115:SynaptiX_FDK/board/sx_board.c **** 
 116:SynaptiX_FDK/board/sx_board.c **** void sx_board_init(void)
 117:SynaptiX_FDK/board/sx_board.c **** {
 118:SynaptiX_FDK/board/sx_board.c ****     // Initialize Logger
 119:SynaptiX_FDK/board/sx_board.c ****     static sx_uart_config_t uart_config[6];
 120:SynaptiX_FDK/board/sx_board.c ****     uart_config[UART_LOG].pDriver = hal_uart[UART_LOG];
 121:SynaptiX_FDK/board/sx_board.c ****     uart_config[UART_LOG].baudrate = 115200;
 122:SynaptiX_FDK/board/sx_board.c ****     uart_config[UART_LOG].bits = 8;
 123:SynaptiX_FDK/board/sx_board.c ****     uart_config[UART_LOG].parity = 0;
 124:SynaptiX_FDK/board/sx_board.c ****     uart_config[UART_LOG].stopbits = 1;
 125:SynaptiX_FDK/board/sx_board.c **** 
 126:SynaptiX_FDK/board/sx_board.c ****     bsp_uart[UART_LOG] = &board.log_uart;
 127:SynaptiX_FDK/board/sx_board.c **** 
 128:SynaptiX_FDK/board/sx_board.c ****     sx_uart_init(&board.log_uart, &uart_config[UART_LOG], 512, 512);
 129:SynaptiX_FDK/board/sx_board.c ****     logger_init(LOGGER_INFO, log_print);
 130:SynaptiX_FDK/board/sx_board.c ****     log_info(TAG, "Board init start");
 131:SynaptiX_FDK/board/sx_board.c ****     
 132:SynaptiX_FDK/board/sx_board.c ****     /*  USB  */ 
 133:SynaptiX_FDK/board/sx_board.c ****     #if BOARD_USE_MSC
 134:SynaptiX_FDK/board/sx_board.c ****     sx_user_msc_init();
 135:SynaptiX_FDK/board/sx_board.c ****     sx_user_msc_create_disk(USER_DISK_LABEL_CREATE);
 136:SynaptiX_FDK/board/sx_board.c ****     log_info(TAG, "MSC disk created");
 137:SynaptiX_FDK/board/sx_board.c ****     #endif
 138:SynaptiX_FDK/board/sx_board.c ****     board.usb_cfg.rx_buf_size = 256;
 139:SynaptiX_FDK/board/sx_board.c ****     board.usb_cfg.tx_buf_size = 256;
 140:SynaptiX_FDK/board/sx_board.c ****     dcd_fs_msp_init(0);
 141:SynaptiX_FDK/board/sx_board.c ****     sx_usb_tiny_init(&board.usb, &board.usb_cfg);
 142:SynaptiX_FDK/board/sx_board.c ****     log_info(TAG, "USB init done");
 143:SynaptiX_FDK/board/sx_board.c **** 
 144:SynaptiX_FDK/board/sx_board.c ****     uart_config[UART_LTE].pDriver = hal_uart[UART_LTE];
 145:SynaptiX_FDK/board/sx_board.c ****     uart_config[UART_LTE].baudrate = 115200;
 146:SynaptiX_FDK/board/sx_board.c ****     uart_config[UART_LTE].bits = 8;
 147:SynaptiX_FDK/board/sx_board.c ****     uart_config[UART_LTE].parity = 0;
 148:SynaptiX_FDK/board/sx_board.c ****     uart_config[UART_LTE].stopbits = 1;
 149:SynaptiX_FDK/board/sx_board.c **** 
 150:SynaptiX_FDK/board/sx_board.c ****     uart_config[UART_GPS].pDriver = hal_uart[UART_GPS];
 151:SynaptiX_FDK/board/sx_board.c ****     uart_config[UART_GPS].baudrate = 9600;
 152:SynaptiX_FDK/board/sx_board.c ****     uart_config[UART_GPS].bits = 8;
 153:SynaptiX_FDK/board/sx_board.c ****     uart_config[UART_GPS].parity = 0;
 154:SynaptiX_FDK/board/sx_board.c ****     uart_config[UART_GPS].stopbits = 1;
 155:SynaptiX_FDK/board/sx_board.c **** 
 156:SynaptiX_FDK/board/sx_board.c ****     uart_config[UART_RS485].pDriver = hal_uart[UART_RS485];
 157:SynaptiX_FDK/board/sx_board.c ****     uart_config[UART_RS485].baudrate = 115200;
 158:SynaptiX_FDK/board/sx_board.c ****     uart_config[UART_RS485].bits = 8;
 159:SynaptiX_FDK/board/sx_board.c ****     uart_config[UART_RS485].parity = 0;
 160:SynaptiX_FDK/board/sx_board.c ****     uart_config[UART_RS485].stopbits = 1;
 161:SynaptiX_FDK/board/sx_board.c **** 
 162:SynaptiX_FDK/board/sx_board.c ****     uart_config[UART_DUST].pDriver = hal_uart[UART_DUST];
 163:SynaptiX_FDK/board/sx_board.c ****     uart_config[UART_DUST].baudrate = 115200;
 164:SynaptiX_FDK/board/sx_board.c ****     uart_config[UART_DUST].bits = 8;
 165:SynaptiX_FDK/board/sx_board.c ****     uart_config[UART_DUST].parity = 0;
 166:SynaptiX_FDK/board/sx_board.c ****     uart_config[UART_DUST].stopbits = 1;
 167:SynaptiX_FDK/board/sx_board.c **** 
 168:SynaptiX_FDK/board/sx_board.c ****     uart_config[UART_EXTEND].pDriver = hal_uart[UART_EXTEND];
 169:SynaptiX_FDK/board/sx_board.c ****     uart_config[UART_EXTEND].baudrate = 9600;
 170:SynaptiX_FDK/board/sx_board.c ****     uart_config[UART_EXTEND].bits = 8;
ARM GAS  C:\Users\DELL\AppData\Local\Temp\ccKkCxJb.s 			page 6


 171:SynaptiX_FDK/board/sx_board.c ****     uart_config[UART_EXTEND].parity = 0;
 172:SynaptiX_FDK/board/sx_board.c ****     uart_config[UART_EXTEND].stopbits = 1;
 173:SynaptiX_FDK/board/sx_board.c **** 
 174:SynaptiX_FDK/board/sx_board.c ****     uart_config[UART_LOG].pDriver = hal_uart[UART_LOG];
 175:SynaptiX_FDK/board/sx_board.c ****     uart_config[UART_LOG].baudrate = 115200;
 176:SynaptiX_FDK/board/sx_board.c ****     uart_config[UART_LOG].bits = 8;
 177:SynaptiX_FDK/board/sx_board.c ****     uart_config[UART_LOG].parity = 0;
 178:SynaptiX_FDK/board/sx_board.c ****     uart_config[UART_LOG].stopbits = 1;
 179:SynaptiX_FDK/board/sx_board.c **** 
 180:SynaptiX_FDK/board/sx_board.c ****     bsp_uart[UART_LTE] = &board.a7677s.base.uart;
 181:SynaptiX_FDK/board/sx_board.c ****     bsp_uart[UART_GPS] = &board.gps.comm;
 182:SynaptiX_FDK/board/sx_board.c **** 
 183:SynaptiX_FDK/board/sx_board.c ****     // I2C
 184:SynaptiX_FDK/board/sx_board.c ****     sx_i2c_init(&board.i2c1, &sx_i2c_ops, &hi2c1);
 185:SynaptiX_FDK/board/sx_board.c **** 
 186:SynaptiX_FDK/board/sx_board.c ****     /* Shared I2C1 reset line — see s_i2c1_reset's own comment above. Only
 187:SynaptiX_FDK/board/sx_board.c ****      * initialized once here; RTC does not take it (self-resets via I2C),
 188:SynaptiX_FDK/board/sx_board.c ****      * only IMU below does. */
 189:SynaptiX_FDK/board/sx_board.c ****     sx_gpio_init(&s_i2c1_reset, &sx_gpio_ops, &s_i2c1_reset_pin);
 190:SynaptiX_FDK/board/sx_board.c **** 
 191:SynaptiX_FDK/board/sx_board.c ****     // RTC — no power-cutoff GPIO on this board (VIO/VDD/VBAT wired
 192:SynaptiX_FDK/board/sx_board.c ****     // directly to 3.3V), see sx_ex_rtc.c/.h.
 193:SynaptiX_FDK/board/sx_board.c ****     rx8130ce_init(&board.rtc, &board.i2c1);
 194:SynaptiX_FDK/board/sx_board.c ****     // IMU reset uses the shared s_i2c1_reset initialized above.
 195:SynaptiX_FDK/board/sx_board.c **** 
 196:SynaptiX_FDK/board/sx_board.c ****     // Initialize LTE (A7677S)
 197:SynaptiX_FDK/board/sx_board.c ****     a7677s_init(&board.a7677s);
 198:SynaptiX_FDK/board/sx_board.c ****     board.a7677s.base.hasPowerPin = 0;   /* no VBAT-cutoff transistor on this board */
 199:SynaptiX_FDK/board/sx_board.c ****     sx_gpio_init(&board.a7677s.base.pwrPin, &sx_gpio_ops, &s_lte_pwrkey_pin);
 200:SynaptiX_FDK/board/sx_board.c ****     sx_gpio_init(&board.a7677s.resetPin, &sx_gpio_ops, &s_lte_reset_pin);
 201:SynaptiX_FDK/board/sx_board.c ****     a7677s_set_full_apn(&board.a7677s, APN, USERNAME_APN, PASSWORD_APN);
 202:SynaptiX_FDK/board/sx_board.c ****     sx_uart_init(&board.a7677s.base.uart, &uart_config[UART_LTE], 512, 512);
 203:SynaptiX_FDK/board/sx_board.c ****     HAL_UART_Receive_IT(hal_uart[UART_LTE], &uart_rx_char[UART_LTE], 1);
 204:SynaptiX_FDK/board/sx_board.c **** 
 205:SynaptiX_FDK/board/sx_board.c ****     board.modem.ops = &a7677s_ops;
 206:SynaptiX_FDK/board/sx_board.c ****     board.modem.ctx = &board.a7677s;
 207:SynaptiX_FDK/board/sx_board.c **** 
 208:SynaptiX_FDK/board/sx_board.c ****     /* Only kick off power-on here — power_on_start() is asynchronous
 209:SynaptiX_FDK/board/sx_board.c ****      * (advances through a7677s_power_state_t over several poll() ticks).
 210:SynaptiX_FDK/board/sx_board.c ****      * start() is NOT called here: it would be rejected immediately since
 211:SynaptiX_FDK/board/sx_board.c ****      * power_state isn't READY yet. The app layer (sx_user_mqtt.c's
 212:SynaptiX_FDK/board/sx_board.c ****      * _common_init()) is what actually calls start(), via
 213:SynaptiX_FDK/board/sx_board.c ****      * set_on_ready()'s callback firing once the modem is truly ready — see
 214:SynaptiX_FDK/board/sx_board.c ****      * modem_ops.h. This keeps board init limited to bringing up hardware,
 215:SynaptiX_FDK/board/sx_board.c ****      * not driving application-level sequencing. */
 216:SynaptiX_FDK/board/sx_board.c ****     board.modem.ops->power_on_start(board.modem.ctx);
 217:SynaptiX_FDK/board/sx_board.c **** 
 218:SynaptiX_FDK/board/sx_board.c ****     // Initialize GPS
 219:SynaptiX_FDK/board/sx_board.c ****     gps_init(&board.gps, &uart_config[UART_GPS], &sx_gpio_ops, &s_gps_cpw_pin, &s_gps_rst_pin);
 220:SynaptiX_FDK/board/sx_board.c ****     HAL_UART_Receive_IT(hal_uart[UART_GPS], &uart_rx_char[UART_GPS], 1);
 221:SynaptiX_FDK/board/sx_board.c **** 
 222:SynaptiX_FDK/board/sx_board.c ****     spi_storage_init();
 223:SynaptiX_FDK/board/sx_board.c ****     bno055_init(&board.imu, &board.i2c1, BNO055_I2C_ADDR_DEFAULT, &s_i2c1_reset);
 224:SynaptiX_FDK/board/sx_board.c **** 
 225:SynaptiX_FDK/board/sx_board.c ****     // SPS30 power-enable GPIO — left LOW/unpowered here; the SPS30
 226:SynaptiX_FDK/board/sx_board.c ****     // business-logic layer (not yet written) is responsible for driving
 227:SynaptiX_FDK/board/sx_board.c ****     // it HIGH before talking to the sensor and LOW when done.
ARM GAS  C:\Users\DELL\AppData\Local\Temp\ccKkCxJb.s 			page 7


 228:SynaptiX_FDK/board/sx_board.c ****     sx_gpio_init(&s_en_pw_dust, &sx_gpio_ops, &s_en_pw_dust_pin);
 229:SynaptiX_FDK/board/sx_board.c **** 
 230:SynaptiX_FDK/board/sx_board.c ****     // SPS30 (UART_DUST) — sensirion_uart_hal_init() stores this sx_uart_t*
 231:SynaptiX_FDK/board/sx_board.c ****     // as the port every sensirion_uart_hal_tx/rx() call uses; nothing else
 232:SynaptiX_FDK/board/sx_board.c ****     // here needs a bsp_uart[] entry since SPS30 talks through the
 233:SynaptiX_FDK/board/sx_board.c ****     // Sensirion HAL layer, not sx_uart_t directly.
 234:SynaptiX_FDK/board/sx_board.c ****     sx_uart_init(&board.sps30_uart, &uart_config[UART_DUST], 512, 512);
 235:SynaptiX_FDK/board/sx_board.c ****     bsp_uart[UART_DUST] = &board.sps30_uart;
 236:SynaptiX_FDK/board/sx_board.c ****     sensirion_uart_hal_init(&board.sps30_uart);
 237:SynaptiX_FDK/board/sx_board.c ****     HAL_UART_Receive_IT(hal_uart[UART_DUST], &uart_rx_char[UART_DUST], 1);
 238:SynaptiX_FDK/board/sx_board.c **** 
 239:SynaptiX_FDK/board/sx_board.c ****     // SHT3x — shares I2C1 with the RTC/IMU, no separate UART or GPIO.
 240:SynaptiX_FDK/board/sx_board.c ****     sht3x_init(&board.sht3x, &board.i2c1);
 241:SynaptiX_FDK/board/sx_board.c **** 
 242:SynaptiX_FDK/board/sx_board.c ****     // ADS1115 - share I2C1 with the RTC/IMU/SHT3X
 243:SynaptiX_FDK/board/sx_board.c ****     ADS1115_Init(&board.ads1115, &board.i2c1, ADS1115_DATA_RATE_250, ADS1115_PGA_TWO);
 244:SynaptiX_FDK/board/sx_board.c **** 
 245:SynaptiX_FDK/board/sx_board.c ****     // ZE12A (UART_EXTEND) — gas_sensor_init() owns its UART instance and
 246:SynaptiX_FDK/board/sx_board.c ****     // both mux-select GPIOs internally (see ze12a.c). bsp_uart[UART_EXTEND]
 247:SynaptiX_FDK/board/sx_board.c ****     // is fetched via gas_sensor_get_uart() (valid only after init, which
 248:SynaptiX_FDK/board/sx_board.c ****     // just ran above) so HAL_UART_RxCpltCallback() below can route
 249:SynaptiX_FDK/board/sx_board.c ****     // received bytes into it the same way it does for LTE/GPS/LOG/DUST.
 250:SynaptiX_FDK/board/sx_board.c ****     gas_sensor_init(&uart_config[UART_EXTEND], &sx_gpio_ops, &s_uart5_s0_pin, &s_uart5_s1_pin);
 251:SynaptiX_FDK/board/sx_board.c ****     bsp_uart[UART_EXTEND] = gas_sensor_get_uart();
 252:SynaptiX_FDK/board/sx_board.c **** 
 253:SynaptiX_FDK/board/sx_board.c ****     HAL_UART_Receive_IT(hal_uart[UART_EXTEND], &uart_rx_char[UART_EXTEND], 1);
 254:SynaptiX_FDK/board/sx_board.c **** }
 255:SynaptiX_FDK/board/sx_board.c **** 
 256:SynaptiX_FDK/board/sx_board.c **** static void sx_lte_uart_abort(void) {
 257:SynaptiX_FDK/board/sx_board.c ****     HAL_UART_Abort(hal_uart[UART_LTE]);
 258:SynaptiX_FDK/board/sx_board.c **** }
 259:SynaptiX_FDK/board/sx_board.c **** 
 260:SynaptiX_FDK/board/sx_board.c **** static void sx_gps_uart_abort(){
 114              		.loc 1 260 32 is_stmt 1 view -0
 115              		.cfi_startproc
 116              		@ args = 0, pretend = 0, frame = 0
 117              		@ frame_needed = 0, uses_anonymous_args = 0
 118 0000 08B5     		push	{r3, lr}
 119              	.LCFI2:
 120              		.cfi_def_cfa_offset 8
 121              		.cfi_offset 3, -8
 122              		.cfi_offset 14, -4
 261:SynaptiX_FDK/board/sx_board.c ****     HAL_UART_Abort(hal_uart[UART_GPS]);
 123              		.loc 1 261 5 view .LVU16
 124 0002 0248     		ldr	r0, .L11
 125 0004 FFF7FEFF 		bl	HAL_UART_Abort
 126              	.LVL5:
 262:SynaptiX_FDK/board/sx_board.c **** }
 127              		.loc 1 262 1 is_stmt 0 view .LVU17
 128 0008 08BD     		pop	{r3, pc}
 129              	.L12:
 130 000a 00BF     		.align	2
 131              	.L11:
 132 000c 00000000 		.word	huart2
 133              		.cfi_endproc
 134              	.LFE442:
 136              		.section	.text.sx_lte_uart_abort,"ax",%progbits
ARM GAS  C:\Users\DELL\AppData\Local\Temp\ccKkCxJb.s 			page 8


 137              		.align	1
 138              		.syntax unified
 139              		.thumb
 140              		.thumb_func
 142              	sx_lte_uart_abort:
 143              	.LFB441:
 256:SynaptiX_FDK/board/sx_board.c ****     HAL_UART_Abort(hal_uart[UART_LTE]);
 144              		.loc 1 256 37 is_stmt 1 view -0
 145              		.cfi_startproc
 146              		@ args = 0, pretend = 0, frame = 0
 147              		@ frame_needed = 0, uses_anonymous_args = 0
 148 0000 08B5     		push	{r3, lr}
 149              	.LCFI3:
 150              		.cfi_def_cfa_offset 8
 151              		.cfi_offset 3, -8
 152              		.cfi_offset 14, -4
 257:SynaptiX_FDK/board/sx_board.c **** }
 153              		.loc 1 257 5 view .LVU19
 154 0002 0248     		ldr	r0, .L15
 155 0004 FFF7FEFF 		bl	HAL_UART_Abort
 156              	.LVL6:
 258:SynaptiX_FDK/board/sx_board.c **** 
 157              		.loc 1 258 1 is_stmt 0 view .LVU20
 158 0008 08BD     		pop	{r3, pc}
 159              	.L16:
 160 000a 00BF     		.align	2
 161              	.L15:
 162 000c 00000000 		.word	huart1
 163              		.cfi_endproc
 164              	.LFE441:
 166              		.section	.rodata.dcd_fs_msp_init.str1.4,"aMS",%progbits,1
 167              		.align	2
 168              	.LC0:
 169 0000 6463645F 		.ascii	"dcd_fs_msp_init called\000"
 169      66735F6D 
 169      73705F69 
 169      6E697420 
 169      63616C6C 
 170 0017 00       		.align	2
 171              	.LC1:
 172 0018 424F4152 		.ascii	"BOARD\000"
 172      4400
 173 001e 0000     		.align	2
 174              	.LC2:
 175 0020 4D535020 		.ascii	"MSP init done!\000"
 175      696E6974 
 175      20646F6E 
 175      652100
 176              		.section	.text.dcd_fs_msp_init,"ax",%progbits
 177              		.align	1
 178              		.global	dcd_fs_msp_init
 179              		.syntax unified
 180              		.thumb
 181              		.thumb_func
 183              	dcd_fs_msp_init:
 184              	.LVL7:
 185              	.LFB436:
ARM GAS  C:\Users\DELL\AppData\Local\Temp\ccKkCxJb.s 			page 9


  26:SynaptiX_FDK/board/sx_board.c ****     (void)rhport;
 186              		.loc 1 26 1 is_stmt 1 view -0
 187              		.cfi_startproc
 188              		@ args = 0, pretend = 0, frame = 0
 189              		@ frame_needed = 0, uses_anonymous_args = 0
  26:SynaptiX_FDK/board/sx_board.c ****     (void)rhport;
 190              		.loc 1 26 1 is_stmt 0 view .LVU22
 191 0000 10B5     		push	{r4, lr}
 192              	.LCFI4:
 193              		.cfi_def_cfa_offset 8
 194              		.cfi_offset 4, -8
 195              		.cfi_offset 14, -4
  27:SynaptiX_FDK/board/sx_board.c ****     log_info(TAG, "dcd_fs_msp_init called");
 196              		.loc 1 27 5 is_stmt 1 view .LVU23
  28:SynaptiX_FDK/board/sx_board.c ****     hpcd_USB_DRD_FS.Instance = USB_DRD_FS;
 197              		.loc 1 28 5 view .LVU24
 198 0002 0A4C     		ldr	r4, .L19
 199 0004 0A4A     		ldr	r2, .L19+4
 200 0006 2146     		mov	r1, r4
 201 0008 0320     		movs	r0, #3
 202              	.LVL8:
  28:SynaptiX_FDK/board/sx_board.c ****     hpcd_USB_DRD_FS.Instance = USB_DRD_FS;
 203              		.loc 1 28 5 is_stmt 0 view .LVU25
 204 000a FFF7FEFF 		bl	log_func
 205              	.LVL9:
  29:SynaptiX_FDK/board/sx_board.c ****     HAL_PCD_MspInit(&hpcd_USB_DRD_FS);
 206              		.loc 1 29 5 is_stmt 1 view .LVU26
  29:SynaptiX_FDK/board/sx_board.c ****     HAL_PCD_MspInit(&hpcd_USB_DRD_FS);
 207              		.loc 1 29 30 is_stmt 0 view .LVU27
 208 000e 0948     		ldr	r0, .L19+8
 209 0010 094B     		ldr	r3, .L19+12
 210 0012 0360     		str	r3, [r0]
  30:SynaptiX_FDK/board/sx_board.c ****     HAL_Delay(100);
 211              		.loc 1 30 5 is_stmt 1 view .LVU28
 212 0014 FFF7FEFF 		bl	HAL_PCD_MspInit
 213              	.LVL10:
  31:SynaptiX_FDK/board/sx_board.c ****     log_info(TAG, "MSP init done!");
 214              		.loc 1 31 5 view .LVU29
 215 0018 6420     		movs	r0, #100
 216 001a FFF7FEFF 		bl	HAL_Delay
 217              	.LVL11:
  32:SynaptiX_FDK/board/sx_board.c **** }
 218              		.loc 1 32 5 view .LVU30
 219 001e 074A     		ldr	r2, .L19+16
 220 0020 2146     		mov	r1, r4
 221 0022 0320     		movs	r0, #3
 222 0024 FFF7FEFF 		bl	log_func
 223              	.LVL12:
  33:SynaptiX_FDK/board/sx_board.c **** 
 224              		.loc 1 33 1 is_stmt 0 view .LVU31
 225 0028 10BD     		pop	{r4, pc}
 226              	.L20:
 227 002a 00BF     		.align	2
 228              	.L19:
 229 002c 18000000 		.word	.LC1
 230 0030 00000000 		.word	.LC0
 231 0034 00000000 		.word	hpcd_USB_DRD_FS
ARM GAS  C:\Users\DELL\AppData\Local\Temp\ccKkCxJb.s 			page 10


 232 0038 00600140 		.word	1073831936
 233 003c 20000000 		.word	.LC2
 234              		.cfi_endproc
 235              	.LFE436:
 237              		.section	.text.USB_DRD_FS_IRQHandler,"ax",%progbits
 238              		.align	1
 239              		.global	USB_DRD_FS_IRQHandler
 240              		.syntax unified
 241              		.thumb
 242              		.thumb_func
 244              	USB_DRD_FS_IRQHandler:
 245              	.LFB437:
  36:SynaptiX_FDK/board/sx_board.c ****     tud_int_handler(0);
 246              		.loc 1 36 1 is_stmt 1 view -0
 247              		.cfi_startproc
 248              		@ args = 0, pretend = 0, frame = 0
 249              		@ frame_needed = 0, uses_anonymous_args = 0
 250 0000 08B5     		push	{r3, lr}
 251              	.LCFI5:
 252              		.cfi_def_cfa_offset 8
 253              		.cfi_offset 3, -8
 254              		.cfi_offset 14, -4
  37:SynaptiX_FDK/board/sx_board.c **** }
 255              		.loc 1 37 5 view .LVU33
 256 0002 0020     		movs	r0, #0
 257 0004 FFF7FEFF 		bl	dcd_int_handler
 258              	.LVL13:
  38:SynaptiX_FDK/board/sx_board.c **** 
 259              		.loc 1 38 1 is_stmt 0 view .LVU34
 260 0008 08BD     		pop	{r3, pc}
 261              		.cfi_endproc
 262              	.LFE437:
 264              		.section	.rodata.sx_board_init.str1.4,"aMS",%progbits,1
 265              		.align	2
 266              	.LC3:
 267 0000 426F6172 		.ascii	"Board init start\000"
 267      6420696E 
 267      69742073 
 267      74617274 
 267      00
 268 0011 000000   		.align	2
 269              	.LC4:
 270 0014 56442047 		.ascii	"VD GPS\000"
 270      505300
 271 001b 00       		.align	2
 272              	.LC5:
 273 001c 4D534320 		.ascii	"MSC disk created\000"
 273      6469736B 
 273      20637265 
 273      61746564 
 273      00
 274 002d 000000   		.align	2
 275              	.LC6:
 276 0030 55534220 		.ascii	"USB init done\000"
 276      696E6974 
 276      20646F6E 
 276      6500
ARM GAS  C:\Users\DELL\AppData\Local\Temp\ccKkCxJb.s 			page 11


 277 003e 0000     		.align	2
 278              	.LC7:
 279 0040 762D696E 		.ascii	"v-internet\000"
 279      7465726E 
 279      657400
 280              		.section	.text.sx_board_init,"ax",%progbits
 281              		.align	1
 282              		.global	sx_board_init
 283              		.syntax unified
 284              		.thumb
 285              		.thumb_func
 287              	sx_board_init:
 288              	.LFB440:
 117:SynaptiX_FDK/board/sx_board.c ****     // Initialize Logger
 289              		.loc 1 117 1 is_stmt 1 view -0
 290              		.cfi_startproc
 291              		@ args = 0, pretend = 0, frame = 0
 292              		@ frame_needed = 0, uses_anonymous_args = 0
 293 0000 2DE9F04F 		push	{r4, r5, r6, r7, r8, r9, r10, fp, lr}
 294              	.LCFI6:
 295              		.cfi_def_cfa_offset 36
 296              		.cfi_offset 4, -36
 297              		.cfi_offset 5, -32
 298              		.cfi_offset 6, -28
 299              		.cfi_offset 7, -24
 300              		.cfi_offset 8, -20
 301              		.cfi_offset 9, -16
 302              		.cfi_offset 10, -12
 303              		.cfi_offset 11, -8
 304              		.cfi_offset 14, -4
 305 0004 83B0     		sub	sp, sp, #12
 306              	.LCFI7:
 307              		.cfi_def_cfa_offset 48
 119:SynaptiX_FDK/board/sx_board.c ****     uart_config[UART_LOG].pDriver = hal_uart[UART_LOG];
 308              		.loc 1 119 5 view .LVU36
 120:SynaptiX_FDK/board/sx_board.c ****     uart_config[UART_LOG].baudrate = 115200;
 309              		.loc 1 120 5 view .LVU37
 120:SynaptiX_FDK/board/sx_board.c ****     uart_config[UART_LOG].baudrate = 115200;
 310              		.loc 1 120 35 is_stmt 0 view .LVU38
 311 0006 914C     		ldr	r4, .L25
 312 0008 914B     		ldr	r3, .L25+4
 313 000a E363     		str	r3, [r4, #60]
 121:SynaptiX_FDK/board/sx_board.c ****     uart_config[UART_LOG].bits = 8;
 314              		.loc 1 121 5 is_stmt 1 view .LVU39
 121:SynaptiX_FDK/board/sx_board.c ****     uart_config[UART_LOG].bits = 8;
 315              		.loc 1 121 36 is_stmt 0 view .LVU40
 316 000c 4FF4E139 		mov	r9, #115200
 317 0010 C4F84090 		str	r9, [r4, #64]
 122:SynaptiX_FDK/board/sx_board.c ****     uart_config[UART_LOG].parity = 0;
 318              		.loc 1 122 5 is_stmt 1 view .LVU41
 122:SynaptiX_FDK/board/sx_board.c ****     uart_config[UART_LOG].parity = 0;
 319              		.loc 1 122 32 is_stmt 0 view .LVU42
 320 0014 4FF00808 		mov	r8, #8
 321 0018 84F84480 		strb	r8, [r4, #68]
 123:SynaptiX_FDK/board/sx_board.c ****     uart_config[UART_LOG].stopbits = 1;
 322              		.loc 1 123 5 is_stmt 1 view .LVU43
 123:SynaptiX_FDK/board/sx_board.c ****     uart_config[UART_LOG].stopbits = 1;
ARM GAS  C:\Users\DELL\AppData\Local\Temp\ccKkCxJb.s 			page 12


 323              		.loc 1 123 34 is_stmt 0 view .LVU44
 324 001c 0025     		movs	r5, #0
 325 001e 84F84550 		strb	r5, [r4, #69]
 124:SynaptiX_FDK/board/sx_board.c **** 
 326              		.loc 1 124 5 is_stmt 1 view .LVU45
 124:SynaptiX_FDK/board/sx_board.c **** 
 327              		.loc 1 124 36 is_stmt 0 view .LVU46
 328 0022 0127     		movs	r7, #1
 329 0024 84F84670 		strb	r7, [r4, #70]
 126:SynaptiX_FDK/board/sx_board.c **** 
 330              		.loc 1 126 5 is_stmt 1 view .LVU47
 126:SynaptiX_FDK/board/sx_board.c **** 
 331              		.loc 1 126 24 is_stmt 0 view .LVU48
 332 0028 8A48     		ldr	r0, .L25+8
 333 002a 8B4B     		ldr	r3, .L25+12
 334 002c 5861     		str	r0, [r3, #20]
 128:SynaptiX_FDK/board/sx_board.c ****     logger_init(LOGGER_INFO, log_print);
 335              		.loc 1 128 5 is_stmt 1 view .LVU49
 336 002e 4FF40073 		mov	r3, #512
 337 0032 1A46     		mov	r2, r3
 338 0034 04F13C01 		add	r1, r4, #60
 339 0038 FFF7FEFF 		bl	sx_uart_init
 340              	.LVL14:
 129:SynaptiX_FDK/board/sx_board.c ****     log_info(TAG, "Board init start");
 341              		.loc 1 129 5 view .LVU50
 342 003c 8749     		ldr	r1, .L25+16
 343 003e 0320     		movs	r0, #3
 344 0040 FFF7FEFF 		bl	logger_init
 345              	.LVL15:
 130:SynaptiX_FDK/board/sx_board.c ****     
 346              		.loc 1 130 5 view .LVU51
 347 0044 DFF874A2 		ldr	r10, .L25+112
 348 0048 854A     		ldr	r2, .L25+20
 349 004a 5146     		mov	r1, r10
 350 004c 0320     		movs	r0, #3
 351 004e FFF7FEFF 		bl	log_func
 352              	.LVL16:
 134:SynaptiX_FDK/board/sx_board.c ****     sx_user_msc_create_disk(USER_DISK_LABEL_CREATE);
 353              		.loc 1 134 5 view .LVU52
 354 0052 FFF7FEFF 		bl	sx_user_msc_init
 355              	.LVL17:
 135:SynaptiX_FDK/board/sx_board.c ****     log_info(TAG, "MSC disk created");
 356              		.loc 1 135 5 view .LVU53
 357 0056 8348     		ldr	r0, .L25+24
 358 0058 FFF7FEFF 		bl	sx_user_msc_create_disk
 359              	.LVL18:
 136:SynaptiX_FDK/board/sx_board.c ****     #endif
 360              		.loc 1 136 5 view .LVU54
 361 005c 824A     		ldr	r2, .L25+28
 362 005e 5146     		mov	r1, r10
 363 0060 0320     		movs	r0, #3
 364 0062 FFF7FEFF 		bl	log_func
 365              	.LVL19:
 138:SynaptiX_FDK/board/sx_board.c ****     board.usb_cfg.tx_buf_size = 256;
 366              		.loc 1 138 5 view .LVU55
 138:SynaptiX_FDK/board/sx_board.c ****     board.usb_cfg.tx_buf_size = 256;
 367              		.loc 1 138 31 is_stmt 0 view .LVU56
ARM GAS  C:\Users\DELL\AppData\Local\Temp\ccKkCxJb.s 			page 13


 368 0066 814E     		ldr	r6, .L25+32
 369 0068 06F5504B 		add	fp, r6, #53248
 370 006c 4FF48073 		mov	r3, #256
 371 0070 CBF8183E 		str	r3, [fp, #3608]
 139:SynaptiX_FDK/board/sx_board.c ****     dcd_fs_msp_init(0);
 372              		.loc 1 139 5 is_stmt 1 view .LVU57
 139:SynaptiX_FDK/board/sx_board.c ****     dcd_fs_msp_init(0);
 373              		.loc 1 139 31 is_stmt 0 view .LVU58
 374 0074 CBF81C3E 		str	r3, [fp, #3612]
 140:SynaptiX_FDK/board/sx_board.c ****     sx_usb_tiny_init(&board.usb, &board.usb_cfg);
 375              		.loc 1 140 5 is_stmt 1 view .LVU59
 376 0078 2846     		mov	r0, r5
 377 007a FFF7FEFF 		bl	dcd_fs_msp_init
 378              	.LVL20:
 141:SynaptiX_FDK/board/sx_board.c ****     log_info(TAG, "USB init done");
 379              		.loc 1 141 5 view .LVU60
 380 007e 0BF61861 		addw	r1, fp, #3608
 381 0082 A1F14800 		sub	r0, r1, #72
 382 0086 FFF7FEFF 		bl	sx_usb_tiny_init
 383              	.LVL21:
 142:SynaptiX_FDK/board/sx_board.c **** 
 384              		.loc 1 142 5 view .LVU61
 385 008a 794A     		ldr	r2, .L25+36
 386 008c 5146     		mov	r1, r10
 387 008e 0320     		movs	r0, #3
 388 0090 FFF7FEFF 		bl	log_func
 389              	.LVL22:
 144:SynaptiX_FDK/board/sx_board.c ****     uart_config[UART_LTE].baudrate = 115200;
 390              		.loc 1 144 5 view .LVU62
 144:SynaptiX_FDK/board/sx_board.c ****     uart_config[UART_LTE].baudrate = 115200;
 391              		.loc 1 144 35 is_stmt 0 view .LVU63
 392 0094 7749     		ldr	r1, .L25+40
 393 0096 2160     		str	r1, [r4]
 145:SynaptiX_FDK/board/sx_board.c ****     uart_config[UART_LTE].bits = 8;
 394              		.loc 1 145 5 is_stmt 1 view .LVU64
 145:SynaptiX_FDK/board/sx_board.c ****     uart_config[UART_LTE].bits = 8;
 395              		.loc 1 145 36 is_stmt 0 view .LVU65
 396 0098 C4F80490 		str	r9, [r4, #4]
 146:SynaptiX_FDK/board/sx_board.c ****     uart_config[UART_LTE].parity = 0;
 397              		.loc 1 146 5 is_stmt 1 view .LVU66
 146:SynaptiX_FDK/board/sx_board.c ****     uart_config[UART_LTE].parity = 0;
 398              		.loc 1 146 32 is_stmt 0 view .LVU67
 399 009c 84F80880 		strb	r8, [r4, #8]
 147:SynaptiX_FDK/board/sx_board.c ****     uart_config[UART_LTE].stopbits = 1;
 400              		.loc 1 147 5 is_stmt 1 view .LVU68
 147:SynaptiX_FDK/board/sx_board.c ****     uart_config[UART_LTE].stopbits = 1;
 401              		.loc 1 147 34 is_stmt 0 view .LVU69
 402 00a0 6572     		strb	r5, [r4, #9]
 148:SynaptiX_FDK/board/sx_board.c **** 
 403              		.loc 1 148 5 is_stmt 1 view .LVU70
 148:SynaptiX_FDK/board/sx_board.c **** 
 404              		.loc 1 148 36 is_stmt 0 view .LVU71
 405 00a2 A772     		strb	r7, [r4, #10]
 150:SynaptiX_FDK/board/sx_board.c ****     uart_config[UART_GPS].baudrate = 9600;
 406              		.loc 1 150 5 is_stmt 1 view .LVU72
 150:SynaptiX_FDK/board/sx_board.c ****     uart_config[UART_GPS].baudrate = 9600;
 407              		.loc 1 150 35 is_stmt 0 view .LVU73
ARM GAS  C:\Users\DELL\AppData\Local\Temp\ccKkCxJb.s 			page 14


 408 00a4 7449     		ldr	r1, .L25+44
 409 00a6 E160     		str	r1, [r4, #12]
 151:SynaptiX_FDK/board/sx_board.c ****     uart_config[UART_GPS].bits = 8;
 410              		.loc 1 151 5 is_stmt 1 view .LVU74
 151:SynaptiX_FDK/board/sx_board.c ****     uart_config[UART_GPS].bits = 8;
 411              		.loc 1 151 36 is_stmt 0 view .LVU75
 412 00a8 4FF41653 		mov	r3, #9600
 413 00ac 2361     		str	r3, [r4, #16]
 152:SynaptiX_FDK/board/sx_board.c ****     uart_config[UART_GPS].parity = 0;
 414              		.loc 1 152 5 is_stmt 1 view .LVU76
 152:SynaptiX_FDK/board/sx_board.c ****     uart_config[UART_GPS].parity = 0;
 415              		.loc 1 152 32 is_stmt 0 view .LVU77
 416 00ae 84F81480 		strb	r8, [r4, #20]
 153:SynaptiX_FDK/board/sx_board.c ****     uart_config[UART_GPS].stopbits = 1;
 417              		.loc 1 153 5 is_stmt 1 view .LVU78
 153:SynaptiX_FDK/board/sx_board.c ****     uart_config[UART_GPS].stopbits = 1;
 418              		.loc 1 153 34 is_stmt 0 view .LVU79
 419 00b2 6575     		strb	r5, [r4, #21]
 154:SynaptiX_FDK/board/sx_board.c **** 
 420              		.loc 1 154 5 is_stmt 1 view .LVU80
 154:SynaptiX_FDK/board/sx_board.c **** 
 421              		.loc 1 154 36 is_stmt 0 view .LVU81
 422 00b4 A775     		strb	r7, [r4, #22]
 156:SynaptiX_FDK/board/sx_board.c ****     uart_config[UART_RS485].baudrate = 115200;
 423              		.loc 1 156 5 is_stmt 1 view .LVU82
 156:SynaptiX_FDK/board/sx_board.c ****     uart_config[UART_RS485].baudrate = 115200;
 424              		.loc 1 156 37 is_stmt 0 view .LVU83
 425 00b6 714A     		ldr	r2, .L25+48
 426 00b8 A261     		str	r2, [r4, #24]
 157:SynaptiX_FDK/board/sx_board.c ****     uart_config[UART_RS485].bits = 8;
 427              		.loc 1 157 5 is_stmt 1 view .LVU84
 157:SynaptiX_FDK/board/sx_board.c ****     uart_config[UART_RS485].bits = 8;
 428              		.loc 1 157 38 is_stmt 0 view .LVU85
 429 00ba C4F81C90 		str	r9, [r4, #28]
 158:SynaptiX_FDK/board/sx_board.c ****     uart_config[UART_RS485].parity = 0;
 430              		.loc 1 158 5 is_stmt 1 view .LVU86
 158:SynaptiX_FDK/board/sx_board.c ****     uart_config[UART_RS485].parity = 0;
 431              		.loc 1 158 34 is_stmt 0 view .LVU87
 432 00be 84F82080 		strb	r8, [r4, #32]
 159:SynaptiX_FDK/board/sx_board.c ****     uart_config[UART_RS485].stopbits = 1;
 433              		.loc 1 159 5 is_stmt 1 view .LVU88
 159:SynaptiX_FDK/board/sx_board.c ****     uart_config[UART_RS485].stopbits = 1;
 434              		.loc 1 159 36 is_stmt 0 view .LVU89
 435 00c2 84F82150 		strb	r5, [r4, #33]
 160:SynaptiX_FDK/board/sx_board.c **** 
 436              		.loc 1 160 5 is_stmt 1 view .LVU90
 160:SynaptiX_FDK/board/sx_board.c **** 
 437              		.loc 1 160 38 is_stmt 0 view .LVU91
 438 00c6 84F82270 		strb	r7, [r4, #34]
 162:SynaptiX_FDK/board/sx_board.c ****     uart_config[UART_DUST].baudrate = 115200;
 439              		.loc 1 162 5 is_stmt 1 view .LVU92
 162:SynaptiX_FDK/board/sx_board.c ****     uart_config[UART_DUST].baudrate = 115200;
 440              		.loc 1 162 36 is_stmt 0 view .LVU93
 441 00ca 6D49     		ldr	r1, .L25+52
 442 00cc 6162     		str	r1, [r4, #36]
 163:SynaptiX_FDK/board/sx_board.c ****     uart_config[UART_DUST].bits = 8;
 443              		.loc 1 163 5 is_stmt 1 view .LVU94
ARM GAS  C:\Users\DELL\AppData\Local\Temp\ccKkCxJb.s 			page 15


 163:SynaptiX_FDK/board/sx_board.c ****     uart_config[UART_DUST].bits = 8;
 444              		.loc 1 163 37 is_stmt 0 view .LVU95
 445 00ce C4F82890 		str	r9, [r4, #40]
 164:SynaptiX_FDK/board/sx_board.c ****     uart_config[UART_DUST].parity = 0;
 446              		.loc 1 164 5 is_stmt 1 view .LVU96
 164:SynaptiX_FDK/board/sx_board.c ****     uart_config[UART_DUST].parity = 0;
 447              		.loc 1 164 33 is_stmt 0 view .LVU97
 448 00d2 84F82C80 		strb	r8, [r4, #44]
 165:SynaptiX_FDK/board/sx_board.c ****     uart_config[UART_DUST].stopbits = 1;
 449              		.loc 1 165 5 is_stmt 1 view .LVU98
 165:SynaptiX_FDK/board/sx_board.c ****     uart_config[UART_DUST].stopbits = 1;
 450              		.loc 1 165 35 is_stmt 0 view .LVU99
 451 00d6 84F82D50 		strb	r5, [r4, #45]
 166:SynaptiX_FDK/board/sx_board.c **** 
 452              		.loc 1 166 5 is_stmt 1 view .LVU100
 166:SynaptiX_FDK/board/sx_board.c **** 
 453              		.loc 1 166 37 is_stmt 0 view .LVU101
 454 00da 84F82E70 		strb	r7, [r4, #46]
 168:SynaptiX_FDK/board/sx_board.c ****     uart_config[UART_EXTEND].baudrate = 9600;
 455              		.loc 1 168 5 is_stmt 1 view .LVU102
 168:SynaptiX_FDK/board/sx_board.c ****     uart_config[UART_EXTEND].baudrate = 9600;
 456              		.loc 1 168 38 is_stmt 0 view .LVU103
 457 00de 6949     		ldr	r1, .L25+56
 458 00e0 2163     		str	r1, [r4, #48]
 169:SynaptiX_FDK/board/sx_board.c ****     uart_config[UART_EXTEND].bits = 8;
 459              		.loc 1 169 5 is_stmt 1 view .LVU104
 169:SynaptiX_FDK/board/sx_board.c ****     uart_config[UART_EXTEND].bits = 8;
 460              		.loc 1 169 39 is_stmt 0 view .LVU105
 461 00e2 6363     		str	r3, [r4, #52]
 170:SynaptiX_FDK/board/sx_board.c ****     uart_config[UART_EXTEND].parity = 0;
 462              		.loc 1 170 5 is_stmt 1 view .LVU106
 170:SynaptiX_FDK/board/sx_board.c ****     uart_config[UART_EXTEND].parity = 0;
 463              		.loc 1 170 35 is_stmt 0 view .LVU107
 464 00e4 84F83880 		strb	r8, [r4, #56]
 171:SynaptiX_FDK/board/sx_board.c ****     uart_config[UART_EXTEND].stopbits = 1;
 465              		.loc 1 171 5 is_stmt 1 view .LVU108
 171:SynaptiX_FDK/board/sx_board.c ****     uart_config[UART_EXTEND].stopbits = 1;
 466              		.loc 1 171 37 is_stmt 0 view .LVU109
 467 00e8 84F83950 		strb	r5, [r4, #57]
 172:SynaptiX_FDK/board/sx_board.c **** 
 468              		.loc 1 172 5 is_stmt 1 view .LVU110
 172:SynaptiX_FDK/board/sx_board.c **** 
 469              		.loc 1 172 39 is_stmt 0 view .LVU111
 470 00ec 84F83A70 		strb	r7, [r4, #58]
 174:SynaptiX_FDK/board/sx_board.c ****     uart_config[UART_LOG].baudrate = 115200;
 471              		.loc 1 174 5 is_stmt 1 view .LVU112
 174:SynaptiX_FDK/board/sx_board.c ****     uart_config[UART_LOG].baudrate = 115200;
 472              		.loc 1 174 35 is_stmt 0 view .LVU113
 473 00f0 574A     		ldr	r2, .L25+4
 474 00f2 E263     		str	r2, [r4, #60]
 175:SynaptiX_FDK/board/sx_board.c ****     uart_config[UART_LOG].bits = 8;
 475              		.loc 1 175 5 is_stmt 1 view .LVU114
 175:SynaptiX_FDK/board/sx_board.c ****     uart_config[UART_LOG].bits = 8;
 476              		.loc 1 175 36 is_stmt 0 view .LVU115
 477 00f4 C4F84090 		str	r9, [r4, #64]
 176:SynaptiX_FDK/board/sx_board.c ****     uart_config[UART_LOG].parity = 0;
 478              		.loc 1 176 5 is_stmt 1 view .LVU116
ARM GAS  C:\Users\DELL\AppData\Local\Temp\ccKkCxJb.s 			page 16


 176:SynaptiX_FDK/board/sx_board.c ****     uart_config[UART_LOG].parity = 0;
 479              		.loc 1 176 32 is_stmt 0 view .LVU117
 480 00f8 84F84480 		strb	r8, [r4, #68]
 177:SynaptiX_FDK/board/sx_board.c ****     uart_config[UART_LOG].stopbits = 1;
 481              		.loc 1 177 5 is_stmt 1 view .LVU118
 177:SynaptiX_FDK/board/sx_board.c ****     uart_config[UART_LOG].stopbits = 1;
 482              		.loc 1 177 34 is_stmt 0 view .LVU119
 483 00fc 84F84550 		strb	r5, [r4, #69]
 178:SynaptiX_FDK/board/sx_board.c **** 
 484              		.loc 1 178 5 is_stmt 1 view .LVU120
 178:SynaptiX_FDK/board/sx_board.c **** 
 485              		.loc 1 178 36 is_stmt 0 view .LVU121
 486 0100 84F84670 		strb	r7, [r4, #70]
 180:SynaptiX_FDK/board/sx_board.c ****     bsp_uart[UART_GPS] = &board.gps.comm;
 487              		.loc 1 180 5 is_stmt 1 view .LVU122
 180:SynaptiX_FDK/board/sx_board.c ****     bsp_uart[UART_GPS] = &board.gps.comm;
 488              		.loc 1 180 24 is_stmt 0 view .LVU123
 489 0104 06F50179 		add	r9, r6, #516
 490 0108 534B     		ldr	r3, .L25+12
 491 010a C3F80090 		str	r9, [r3]
 181:SynaptiX_FDK/board/sx_board.c **** 
 492              		.loc 1 181 5 is_stmt 1 view .LVU124
 181:SynaptiX_FDK/board/sx_board.c **** 
 493              		.loc 1 181 24 is_stmt 0 view .LVU125
 494 010e 0BF6E432 		addw	r2, fp, #3044
 495 0112 5A60     		str	r2, [r3, #4]
 184:SynaptiX_FDK/board/sx_board.c **** 
 496              		.loc 1 184 5 is_stmt 1 view .LVU126
 497              	.LVL23:
 498              	.LBB12:
 499              	.LBI12:
 500              		.file 2 "SynaptiX_FDK/components/peripherals/i2c/sx_i2c.h"
   1:SynaptiX_FDK/components/peripherals/i2c/sx_i2c.h **** #ifndef SX_I2C_H
   2:SynaptiX_FDK/components/peripherals/i2c/sx_i2c.h **** #define SX_I2C_H
   3:SynaptiX_FDK/components/peripherals/i2c/sx_i2c.h **** #ifdef __cplusplus
   4:SynaptiX_FDK/components/peripherals/i2c/sx_i2c.h **** extern "C" {
   5:SynaptiX_FDK/components/peripherals/i2c/sx_i2c.h **** #endif
   6:SynaptiX_FDK/components/peripherals/i2c/sx_i2c.h **** 
   7:SynaptiX_FDK/components/peripherals/i2c/sx_i2c.h **** #include <stdint.h>
   8:SynaptiX_FDK/components/peripherals/i2c/sx_i2c.h **** 
   9:SynaptiX_FDK/components/peripherals/i2c/sx_i2c.h **** typedef struct sx_i2c sx_i2c_t;
  10:SynaptiX_FDK/components/peripherals/i2c/sx_i2c.h **** 
  11:SynaptiX_FDK/components/peripherals/i2c/sx_i2c.h **** typedef struct sx_i2c_ops{
  12:SynaptiX_FDK/components/peripherals/i2c/sx_i2c.h ****     int (*write)(sx_i2c_t *i2c, uint16_t dev_addr, const uint8_t *data, uint32_t len);
  13:SynaptiX_FDK/components/peripherals/i2c/sx_i2c.h ****     int (*read)(sx_i2c_t *i2c, uint16_t dev_addr, uint8_t *data, uint32_t len);
  14:SynaptiX_FDK/components/peripherals/i2c/sx_i2c.h ****     int (*mem_write)(sx_i2c_t *i2c, uint16_t dev_addr, uint16_t mem_addr, uint16_t mem_addr_size, c
  15:SynaptiX_FDK/components/peripherals/i2c/sx_i2c.h ****     int (*mem_read)(sx_i2c_t *i2c, uint16_t dev_addr, uint16_t mem_addr, uint16_t mem_addr_size, ui
  16:SynaptiX_FDK/components/peripherals/i2c/sx_i2c.h ****     int (*is_device_ready)(sx_i2c_t *i2c, uint16_t dev_addr, uint8_t num_trial, uint32_t timeout);
  17:SynaptiX_FDK/components/peripherals/i2c/sx_i2c.h **** } sx_i2c_ops_t;
  18:SynaptiX_FDK/components/peripherals/i2c/sx_i2c.h **** 
  19:SynaptiX_FDK/components/peripherals/i2c/sx_i2c.h **** struct sx_i2c{
  20:SynaptiX_FDK/components/peripherals/i2c/sx_i2c.h ****     sx_i2c_ops_t *ops;
  21:SynaptiX_FDK/components/peripherals/i2c/sx_i2c.h ****     void *pDriver;
  22:SynaptiX_FDK/components/peripherals/i2c/sx_i2c.h **** };
  23:SynaptiX_FDK/components/peripherals/i2c/sx_i2c.h **** 
  24:SynaptiX_FDK/components/peripherals/i2c/sx_i2c.h **** static inline void sx_i2c_init(sx_i2c_t *i2c, sx_i2c_ops_t *ops, void *pDriver){
 501              		.loc 2 24 20 view .LVU127
ARM GAS  C:\Users\DELL\AppData\Local\Temp\ccKkCxJb.s 			page 17


 502              	.LBB13:
  25:SynaptiX_FDK/components/peripherals/i2c/sx_i2c.h ****     i2c->ops = ops;
 503              		.loc 2 25 5 view .LVU128
 504              		.loc 2 25 14 is_stmt 0 view .LVU129
 505 0114 5C4B     		ldr	r3, .L25+60
 506 0116 CBF8443E 		str	r3, [fp, #3652]
  26:SynaptiX_FDK/components/peripherals/i2c/sx_i2c.h ****     i2c->pDriver = pDriver;
 507              		.loc 2 26 5 is_stmt 1 view .LVU130
 508              		.loc 2 26 18 is_stmt 0 view .LVU131
 509 011a 5C4B     		ldr	r3, .L25+64
 510 011c CBF8483E 		str	r3, [fp, #3656]
 511              	.LVL24:
 512              		.loc 2 26 18 view .LVU132
 513              	.LBE13:
 514              	.LBE12:
 189:SynaptiX_FDK/board/sx_board.c **** 
 515              		.loc 1 189 5 is_stmt 1 view .LVU133
 516              	.LBB14:
 517              	.LBI14:
 518              		.file 3 "SynaptiX_FDK/components/peripherals/gpio/sx_gpio.h"
   1:SynaptiX_FDK/components/peripherals/gpio/sx_gpio.h **** #ifndef SX_GPIO_H
   2:SynaptiX_FDK/components/peripherals/gpio/sx_gpio.h **** #define SX_GPIO_H
   3:SynaptiX_FDK/components/peripherals/gpio/sx_gpio.h **** #ifdef __cplusplus
   4:SynaptiX_FDK/components/peripherals/gpio/sx_gpio.h **** extern "C" {
   5:SynaptiX_FDK/components/peripherals/gpio/sx_gpio.h **** #endif
   6:SynaptiX_FDK/components/peripherals/gpio/sx_gpio.h **** 
   7:SynaptiX_FDK/components/peripherals/gpio/sx_gpio.h **** #include <stdint.h>
   8:SynaptiX_FDK/components/peripherals/gpio/sx_gpio.h **** 
   9:SynaptiX_FDK/components/peripherals/gpio/sx_gpio.h **** typedef enum SX_GPIO_VALUE{
  10:SynaptiX_FDK/components/peripherals/gpio/sx_gpio.h ****     SX_GPIO_LOW = 0,
  11:SynaptiX_FDK/components/peripherals/gpio/sx_gpio.h ****     SX_GPIO_HIGH = 1
  12:SynaptiX_FDK/components/peripherals/gpio/sx_gpio.h **** } SX_GPIO_VALUE;
  13:SynaptiX_FDK/components/peripherals/gpio/sx_gpio.h **** 
  14:SynaptiX_FDK/components/peripherals/gpio/sx_gpio.h **** typedef struct sx_gpio sx_gpio_t;
  15:SynaptiX_FDK/components/peripherals/gpio/sx_gpio.h **** 
  16:SynaptiX_FDK/components/peripherals/gpio/sx_gpio.h **** typedef struct {
  17:SynaptiX_FDK/components/peripherals/gpio/sx_gpio.h ****     void    *port;
  18:SynaptiX_FDK/components/peripherals/gpio/sx_gpio.h ****     uint16_t pin;
  19:SynaptiX_FDK/components/peripherals/gpio/sx_gpio.h **** } sx_gpio_pin_t;
  20:SynaptiX_FDK/components/peripherals/gpio/sx_gpio.h **** 
  21:SynaptiX_FDK/components/peripherals/gpio/sx_gpio.h **** typedef struct sx_gpio_ops{
  22:SynaptiX_FDK/components/peripherals/gpio/sx_gpio.h ****     int (*write)(sx_gpio_t *gpio, SX_GPIO_VALUE value);
  23:SynaptiX_FDK/components/peripherals/gpio/sx_gpio.h ****     int (*read)(sx_gpio_t *gpio, SX_GPIO_VALUE *value);
  24:SynaptiX_FDK/components/peripherals/gpio/sx_gpio.h ****     int (*toggle)(sx_gpio_t *gpio);
  25:SynaptiX_FDK/components/peripherals/gpio/sx_gpio.h **** } sx_gpio_ops_t;
  26:SynaptiX_FDK/components/peripherals/gpio/sx_gpio.h **** 
  27:SynaptiX_FDK/components/peripherals/gpio/sx_gpio.h **** typedef struct sx_gpio{
  28:SynaptiX_FDK/components/peripherals/gpio/sx_gpio.h ****     sx_gpio_ops_t *ops;
  29:SynaptiX_FDK/components/peripherals/gpio/sx_gpio.h ****     void *pDriver;
  30:SynaptiX_FDK/components/peripherals/gpio/sx_gpio.h ****     SX_GPIO_VALUE value;
  31:SynaptiX_FDK/components/peripherals/gpio/sx_gpio.h **** } sx_gpio_t;
  32:SynaptiX_FDK/components/peripherals/gpio/sx_gpio.h **** 
  33:SynaptiX_FDK/components/peripherals/gpio/sx_gpio.h **** static inline void sx_gpio_init(sx_gpio_t *gpio, sx_gpio_ops_t *ops, void *pDriver){
 519              		.loc 3 33 20 view .LVU134
 520              	.LBB15:
  34:SynaptiX_FDK/components/peripherals/gpio/sx_gpio.h ****     gpio->ops = ops;
 521              		.loc 3 34 5 view .LVU135
ARM GAS  C:\Users\DELL\AppData\Local\Temp\ccKkCxJb.s 			page 18


 522              		.loc 3 34 15 is_stmt 0 view .LVU136
 523 0120 DFF89CA1 		ldr	r10, .L25+116
 524 0124 DFF89C81 		ldr	r8, .L25+120
 525 0128 CAF80080 		str	r8, [r10]
  35:SynaptiX_FDK/components/peripherals/gpio/sx_gpio.h ****     gpio->pDriver = pDriver;
 526              		.loc 3 35 5 is_stmt 1 view .LVU137
 527              		.loc 3 35 19 is_stmt 0 view .LVU138
 528 012c 584B     		ldr	r3, .L25+68
 529 012e CAF80430 		str	r3, [r10, #4]
  36:SynaptiX_FDK/components/peripherals/gpio/sx_gpio.h ****     gpio->value = SX_GPIO_LOW;
 530              		.loc 3 36 5 is_stmt 1 view .LVU139
 531              		.loc 3 36 17 is_stmt 0 view .LVU140
 532 0132 8AF80850 		strb	r5, [r10, #8]
 533              	.LVL25:
 534              		.loc 3 36 17 view .LVU141
 535              	.LBE15:
 536              	.LBE14:
 193:SynaptiX_FDK/board/sx_board.c ****     // IMU reset uses the shared s_i2c1_reset initialized above.
 537              		.loc 1 193 5 is_stmt 1 view .LVU142
 538 0136 02F51871 		add	r1, r2, #608
 539 013a 01F10800 		add	r0, r1, #8
 540 013e FFF7FEFF 		bl	rx8130ce_init
 541              	.LVL26:
 197:SynaptiX_FDK/board/sx_board.c ****     board.a7677s.base.hasPowerPin = 0;   /* no VBAT-cutoff transistor on this board */
 542              		.loc 1 197 5 view .LVU143
 543 0142 3046     		mov	r0, r6
 544 0144 FFF7FEFF 		bl	a7677s_init
 545              	.LVL27:
 198:SynaptiX_FDK/board/sx_board.c ****     sx_gpio_init(&board.a7677s.base.pwrPin, &sx_gpio_ops, &s_lte_pwrkey_pin);
 546              		.loc 1 198 5 view .LVU144
 198:SynaptiX_FDK/board/sx_board.c ****     sx_gpio_init(&board.a7677s.base.pwrPin, &sx_gpio_ops, &s_lte_pwrkey_pin);
 547              		.loc 1 198 35 is_stmt 0 view .LVU145
 548 0148 86F86052 		strb	r5, [r6, #608]
 199:SynaptiX_FDK/board/sx_board.c ****     sx_gpio_init(&board.a7677s.resetPin, &sx_gpio_ops, &s_lte_reset_pin);
 549              		.loc 1 199 5 is_stmt 1 view .LVU146
 550              	.LVL28:
 551              	.LBB16:
 552              	.LBI16:
  33:SynaptiX_FDK/components/peripherals/gpio/sx_gpio.h ****     gpio->ops = ops;
 553              		.loc 3 33 20 view .LVU147
 554              	.LBB17:
  34:SynaptiX_FDK/components/peripherals/gpio/sx_gpio.h ****     gpio->pDriver = pDriver;
 555              		.loc 3 34 5 view .LVU148
  34:SynaptiX_FDK/components/peripherals/gpio/sx_gpio.h ****     gpio->pDriver = pDriver;
 556              		.loc 3 34 15 is_stmt 0 view .LVU149
 557 014c C6F84882 		str	r8, [r6, #584]
  35:SynaptiX_FDK/components/peripherals/gpio/sx_gpio.h ****     gpio->value = SX_GPIO_LOW;
 558              		.loc 3 35 5 is_stmt 1 view .LVU150
  35:SynaptiX_FDK/components/peripherals/gpio/sx_gpio.h ****     gpio->value = SX_GPIO_LOW;
 559              		.loc 3 35 19 is_stmt 0 view .LVU151
 560 0150 504B     		ldr	r3, .L25+72
 561 0152 C6F84C32 		str	r3, [r6, #588]
 562              		.loc 3 36 5 is_stmt 1 view .LVU152
 563              		.loc 3 36 17 is_stmt 0 view .LVU153
 564 0156 86F85052 		strb	r5, [r6, #592]
 565              	.LVL29:
 566              		.loc 3 36 17 view .LVU154
ARM GAS  C:\Users\DELL\AppData\Local\Temp\ccKkCxJb.s 			page 19


 567              	.LBE17:
 568              	.LBE16:
 200:SynaptiX_FDK/board/sx_board.c ****     a7677s_set_full_apn(&board.a7677s, APN, USERNAME_APN, PASSWORD_APN);
 569              		.loc 1 200 5 is_stmt 1 view .LVU155
 570              	.LBB18:
 571              	.LBI18:
  33:SynaptiX_FDK/components/peripherals/gpio/sx_gpio.h ****     gpio->ops = ops;
 572              		.loc 3 33 20 view .LVU156
 573              	.LBB19:
  34:SynaptiX_FDK/components/peripherals/gpio/sx_gpio.h ****     gpio->pDriver = pDriver;
 574              		.loc 3 34 5 view .LVU157
  34:SynaptiX_FDK/components/peripherals/gpio/sx_gpio.h ****     gpio->pDriver = pDriver;
 575              		.loc 3 34 15 is_stmt 0 view .LVU158
 576 015a C6F87482 		str	r8, [r6, #628]
  35:SynaptiX_FDK/components/peripherals/gpio/sx_gpio.h ****     gpio->value = SX_GPIO_LOW;
 577              		.loc 3 35 5 is_stmt 1 view .LVU159
  35:SynaptiX_FDK/components/peripherals/gpio/sx_gpio.h ****     gpio->value = SX_GPIO_LOW;
 578              		.loc 3 35 19 is_stmt 0 view .LVU160
 579 015e 4E4B     		ldr	r3, .L25+76
 580 0160 C6F87832 		str	r3, [r6, #632]
 581              		.loc 3 36 5 is_stmt 1 view .LVU161
 582              		.loc 3 36 17 is_stmt 0 view .LVU162
 583 0164 86F87C52 		strb	r5, [r6, #636]
 584              	.LVL30:
 585              		.loc 3 36 17 view .LVU163
 586              	.LBE19:
 587              	.LBE18:
 201:SynaptiX_FDK/board/sx_board.c ****     sx_uart_init(&board.a7677s.base.uart, &uart_config[UART_LTE], 512, 512);
 588              		.loc 1 201 5 is_stmt 1 view .LVU164
 589 0168 2B46     		mov	r3, r5
 590 016a 2A46     		mov	r2, r5
 591 016c 4B49     		ldr	r1, .L25+80
 592 016e 3046     		mov	r0, r6
 593 0170 FFF7FEFF 		bl	a7677s_set_full_apn
 594              	.LVL31:
 202:SynaptiX_FDK/board/sx_board.c ****     HAL_UART_Receive_IT(hal_uart[UART_LTE], &uart_rx_char[UART_LTE], 1);
 595              		.loc 1 202 5 view .LVU165
 596 0174 4FF40073 		mov	r3, #512
 597 0178 1A46     		mov	r2, r3
 598 017a 2146     		mov	r1, r4
 599 017c 4846     		mov	r0, r9
 600 017e FFF7FEFF 		bl	sx_uart_init
 601              	.LVL32:
 203:SynaptiX_FDK/board/sx_board.c **** 
 602              		.loc 1 203 5 view .LVU166
 603 0182 DFF84491 		ldr	r9, .L25+124
 604 0186 3A46     		mov	r2, r7
 605 0188 4946     		mov	r1, r9
 606 018a 3A48     		ldr	r0, .L25+40
 607 018c FFF7FEFF 		bl	HAL_UART_Receive_IT
 608              	.LVL33:
 205:SynaptiX_FDK/board/sx_board.c ****     board.modem.ctx = &board.a7677s;
 609              		.loc 1 205 5 view .LVU167
 205:SynaptiX_FDK/board/sx_board.c ****     board.modem.ctx = &board.a7677s;
 610              		.loc 1 205 21 is_stmt 0 view .LVU168
 611 0190 434B     		ldr	r3, .L25+84
 612 0192 CBF8DC3B 		str	r3, [fp, #3036]
ARM GAS  C:\Users\DELL\AppData\Local\Temp\ccKkCxJb.s 			page 20


 206:SynaptiX_FDK/board/sx_board.c **** 
 613              		.loc 1 206 5 is_stmt 1 view .LVU169
 206:SynaptiX_FDK/board/sx_board.c **** 
 614              		.loc 1 206 21 is_stmt 0 view .LVU170
 615 0196 CBF8E06B 		str	r6, [fp, #3040]
 216:SynaptiX_FDK/board/sx_board.c **** 
 616              		.loc 1 216 5 is_stmt 1 view .LVU171
 216:SynaptiX_FDK/board/sx_board.c **** 
 617              		.loc 1 216 20 is_stmt 0 view .LVU172
 618 019a 1B68     		ldr	r3, [r3]
 216:SynaptiX_FDK/board/sx_board.c **** 
 619              		.loc 1 216 5 view .LVU173
 620 019c 3046     		mov	r0, r6
 621 019e 9847     		blx	r3
 622              	.LVL34:
 219:SynaptiX_FDK/board/sx_board.c ****     HAL_UART_Receive_IT(hal_uart[UART_GPS], &uart_rx_char[UART_GPS], 1);
 623              		.loc 1 219 5 is_stmt 1 view .LVU174
 624 01a0 404B     		ldr	r3, .L25+88
 625 01a2 0093     		str	r3, [sp]
 626 01a4 404B     		ldr	r3, .L25+92
 627 01a6 4246     		mov	r2, r8
 628 01a8 04F10C01 		add	r1, r4, #12
 629 01ac 0BF6E430 		addw	r0, fp, #3044
 630 01b0 FFF7FEFF 		bl	gps_init
 631              	.LVL35:
 220:SynaptiX_FDK/board/sx_board.c **** 
 632              		.loc 1 220 5 view .LVU175
 633 01b4 3A46     		mov	r2, r7
 634 01b6 09EB0701 		add	r1, r9, r7
 635 01ba 2F48     		ldr	r0, .L25+44
 636 01bc FFF7FEFF 		bl	HAL_UART_Receive_IT
 637              	.LVL36:
 222:SynaptiX_FDK/board/sx_board.c ****     bno055_init(&board.imu, &board.i2c1, BNO055_I2C_ADDR_DEFAULT, &s_i2c1_reset);
 638              		.loc 1 222 5 view .LVU176
 639 01c0 FFF7FEFF 		bl	spi_storage_init
 640              	.LVL37:
 223:SynaptiX_FDK/board/sx_board.c **** 
 641              		.loc 1 223 5 view .LVU177
 642 01c4 5346     		mov	r3, r10
 643 01c6 5222     		movs	r2, #82
 644 01c8 0BF64461 		addw	r1, fp, #3652
 645 01cc 01F11800 		add	r0, r1, #24
 646 01d0 FFF7FEFF 		bl	bno055_init
 647              	.LVL38:
 228:SynaptiX_FDK/board/sx_board.c **** 
 648              		.loc 1 228 5 view .LVU178
 649              	.LBB20:
 650              	.LBI20:
  33:SynaptiX_FDK/components/peripherals/gpio/sx_gpio.h ****     gpio->ops = ops;
 651              		.loc 3 33 20 view .LVU179
 652              	.LBB21:
  34:SynaptiX_FDK/components/peripherals/gpio/sx_gpio.h ****     gpio->pDriver = pDriver;
 653              		.loc 3 34 5 view .LVU180
  34:SynaptiX_FDK/components/peripherals/gpio/sx_gpio.h ****     gpio->pDriver = pDriver;
 654              		.loc 3 34 15 is_stmt 0 view .LVU181
 655 01d4 354B     		ldr	r3, .L25+96
 656 01d6 C3F80080 		str	r8, [r3]
ARM GAS  C:\Users\DELL\AppData\Local\Temp\ccKkCxJb.s 			page 21


  35:SynaptiX_FDK/components/peripherals/gpio/sx_gpio.h ****     gpio->value = SX_GPIO_LOW;
 657              		.loc 3 35 5 is_stmt 1 view .LVU182
  35:SynaptiX_FDK/components/peripherals/gpio/sx_gpio.h ****     gpio->value = SX_GPIO_LOW;
 658              		.loc 3 35 19 is_stmt 0 view .LVU183
 659 01da 354A     		ldr	r2, .L25+100
 660 01dc 5A60     		str	r2, [r3, #4]
 661              		.loc 3 36 5 is_stmt 1 view .LVU184
 662              		.loc 3 36 17 is_stmt 0 view .LVU185
 663 01de 1D72     		strb	r5, [r3, #8]
 664              	.LVL39:
 665              		.loc 3 36 17 view .LVU186
 666              	.LBE21:
 667              	.LBE20:
 234:SynaptiX_FDK/board/sx_board.c ****     bsp_uart[UART_DUST] = &board.sps30_uart;
 668              		.loc 1 234 5 is_stmt 1 view .LVU187
 669 01e0 0BF66C65 		addw	r5, fp, #3692
 670 01e4 4FF40073 		mov	r3, #512
 671 01e8 1A46     		mov	r2, r3
 672 01ea 04F12401 		add	r1, r4, #36
 673 01ee 2846     		mov	r0, r5
 674 01f0 FFF7FEFF 		bl	sx_uart_init
 675              	.LVL40:
 235:SynaptiX_FDK/board/sx_board.c ****     sensirion_uart_hal_init(&board.sps30_uart);
 676              		.loc 1 235 5 view .LVU188
 235:SynaptiX_FDK/board/sx_board.c ****     sensirion_uart_hal_init(&board.sps30_uart);
 677              		.loc 1 235 25 is_stmt 0 view .LVU189
 678 01f4 184E     		ldr	r6, .L25+12
 679 01f6 F560     		str	r5, [r6, #12]
 236:SynaptiX_FDK/board/sx_board.c ****     HAL_UART_Receive_IT(hal_uart[UART_DUST], &uart_rx_char[UART_DUST], 1);
 680              		.loc 1 236 5 is_stmt 1 view .LVU190
 681 01f8 2846     		mov	r0, r5
 682 01fa FFF7FEFF 		bl	sensirion_uart_hal_init
 683              	.LVL41:
 237:SynaptiX_FDK/board/sx_board.c **** 
 684              		.loc 1 237 5 view .LVU191
 685 01fe 3A46     		mov	r2, r7
 686 0200 09F10301 		add	r1, r9, #3
 687 0204 1E48     		ldr	r0, .L25+52
 688 0206 FFF7FEFF 		bl	HAL_UART_Receive_IT
 689              	.LVL42:
 240:SynaptiX_FDK/board/sx_board.c **** 
 690              		.loc 1 240 5 view .LVU192
 691 020a A5F12801 		sub	r1, r5, #40
 692 020e 01F16C00 		add	r0, r1, #108
 693 0212 FFF7FEFF 		bl	sht3x_init
 694              	.LVL43:
 243:SynaptiX_FDK/board/sx_board.c **** 
 695              		.loc 1 243 5 view .LVU193
 696 0216 0423     		movs	r3, #4
 697 0218 A022     		movs	r2, #160
 698 021a A5F12801 		sub	r1, r5, #40
 699 021e 01F17800 		add	r0, r1, #120
 700 0222 FFF7FEFF 		bl	ADS1115_Init
 701              	.LVL44:
 250:SynaptiX_FDK/board/sx_board.c ****     bsp_uart[UART_EXTEND] = gas_sensor_get_uart();
 702              		.loc 1 250 5 view .LVU194
 703 0226 234B     		ldr	r3, .L25+104
ARM GAS  C:\Users\DELL\AppData\Local\Temp\ccKkCxJb.s 			page 22


 704 0228 234A     		ldr	r2, .L25+108
 705 022a 4146     		mov	r1, r8
 706 022c 04F13000 		add	r0, r4, #48
 707 0230 FFF7FEFF 		bl	gas_sensor_init
 708              	.LVL45:
 251:SynaptiX_FDK/board/sx_board.c **** 
 709              		.loc 1 251 5 view .LVU195
 251:SynaptiX_FDK/board/sx_board.c **** 
 710              		.loc 1 251 29 is_stmt 0 view .LVU196
 711 0234 FFF7FEFF 		bl	gas_sensor_get_uart
 712              	.LVL46:
 251:SynaptiX_FDK/board/sx_board.c **** 
 713              		.loc 1 251 27 discriminator 1 view .LVU197
 714 0238 3061     		str	r0, [r6, #16]
 253:SynaptiX_FDK/board/sx_board.c **** }
 715              		.loc 1 253 5 is_stmt 1 view .LVU198
 716 023a 3A46     		mov	r2, r7
 717 023c 09F10401 		add	r1, r9, #4
 718 0240 1048     		ldr	r0, .L25+56
 719 0242 FFF7FEFF 		bl	HAL_UART_Receive_IT
 720              	.LVL47:
 254:SynaptiX_FDK/board/sx_board.c **** 
 721              		.loc 1 254 1 is_stmt 0 view .LVU199
 722 0246 03B0     		add	sp, sp, #12
 723              	.LCFI8:
 724              		.cfi_def_cfa_offset 36
 725              		@ sp needed
 726 0248 BDE8F08F 		pop	{r4, r5, r6, r7, r8, r9, r10, fp, pc}
 727              	.L26:
 728              		.align	2
 729              	.L25:
 730 024c 00000000 		.word	uart_config.0
 731 0250 00000000 		.word	huart6
 732 0254 8CDD0000 		.word	board+56716
 733 0258 00000000 		.word	bsp_uart
 734 025c 00000000 		.word	log_print
 735 0260 00000000 		.word	.LC3
 736 0264 14000000 		.word	.LC4
 737 0268 1C000000 		.word	.LC5
 738 026c 00000000 		.word	board
 739 0270 30000000 		.word	.LC6
 740 0274 00000000 		.word	huart1
 741 0278 00000000 		.word	huart2
 742 027c 00000000 		.word	huart3
 743 0280 00000000 		.word	huart4
 744 0284 00000000 		.word	huart5
 745 0288 00000000 		.word	sx_i2c_ops
 746 028c 00000000 		.word	hi2c1
 747 0290 00000000 		.word	s_i2c1_reset_pin
 748 0294 00000000 		.word	s_lte_pwrkey_pin
 749 0298 00000000 		.word	s_lte_reset_pin
 750 029c 40000000 		.word	.LC7
 751 02a0 00000000 		.word	a7677s_ops
 752 02a4 00000000 		.word	s_gps_rst_pin
 753 02a8 00000000 		.word	s_gps_cpw_pin
 754 02ac 00000000 		.word	s_en_pw_dust
 755 02b0 00000000 		.word	s_en_pw_dust_pin
ARM GAS  C:\Users\DELL\AppData\Local\Temp\ccKkCxJb.s 			page 23


 756 02b4 00000000 		.word	s_uart5_s1_pin
 757 02b8 00000000 		.word	s_uart5_s0_pin
 758 02bc 18000000 		.word	.LC1
 759 02c0 00000000 		.word	s_i2c1_reset
 760 02c4 00000000 		.word	sx_gpio_ops
 761 02c8 00000000 		.word	uart_rx_char
 762              		.cfi_endproc
 763              	.LFE440:
 765              		.section	.text.gps_it_handle,"ax",%progbits
 766              		.align	1
 767              		.global	gps_it_handle
 768              		.syntax unified
 769              		.thumb
 770              		.thumb_func
 772              	gps_it_handle:
 773              	.LFB443:
 263:SynaptiX_FDK/board/sx_board.c **** 
 264:SynaptiX_FDK/board/sx_board.c **** void gps_it_handle(){
 774              		.loc 1 264 21 is_stmt 1 view -0
 775              		.cfi_startproc
 776              		@ args = 0, pretend = 0, frame = 0
 777              		@ frame_needed = 0, uses_anonymous_args = 0
 778 0000 08B5     		push	{r3, lr}
 779              	.LCFI9:
 780              		.cfi_def_cfa_offset 8
 781              		.cfi_offset 3, -8
 782              		.cfi_offset 14, -4
 265:SynaptiX_FDK/board/sx_board.c ****     HAL_UART_Receive_IT(hal_uart[UART_GPS], &uart_rx_char[UART_GPS], 1);
 783              		.loc 1 265 5 view .LVU201
 784 0002 0122     		movs	r2, #1
 785 0004 0249     		ldr	r1, .L29
 786 0006 0348     		ldr	r0, .L29+4
 787 0008 FFF7FEFF 		bl	HAL_UART_Receive_IT
 788              	.LVL48:
 266:SynaptiX_FDK/board/sx_board.c **** }
 789              		.loc 1 266 1 is_stmt 0 view .LVU202
 790 000c 08BD     		pop	{r3, pc}
 791              	.L30:
 792 000e 00BF     		.align	2
 793              	.L29:
 794 0010 01000000 		.word	uart_rx_char+1
 795 0014 00000000 		.word	huart2
 796              		.cfi_endproc
 797              	.LFE443:
 799              		.section	.text.sim_it_handle,"ax",%progbits
 800              		.align	1
 801              		.global	sim_it_handle
 802              		.syntax unified
 803              		.thumb
 804              		.thumb_func
 806              	sim_it_handle:
 807              	.LFB444:
 267:SynaptiX_FDK/board/sx_board.c **** 
 268:SynaptiX_FDK/board/sx_board.c **** void sim_it_handle(){
 808              		.loc 1 268 21 is_stmt 1 view -0
 809              		.cfi_startproc
 810              		@ args = 0, pretend = 0, frame = 0
ARM GAS  C:\Users\DELL\AppData\Local\Temp\ccKkCxJb.s 			page 24


 811              		@ frame_needed = 0, uses_anonymous_args = 0
 812 0000 08B5     		push	{r3, lr}
 813              	.LCFI10:
 814              		.cfi_def_cfa_offset 8
 815              		.cfi_offset 3, -8
 816              		.cfi_offset 14, -4
 269:SynaptiX_FDK/board/sx_board.c ****     HAL_UART_Receive_IT(hal_uart[UART_LTE], &uart_rx_char[UART_LTE], 1);
 817              		.loc 1 269 5 view .LVU204
 818 0002 0122     		movs	r2, #1
 819 0004 0249     		ldr	r1, .L33
 820 0006 0348     		ldr	r0, .L33+4
 821 0008 FFF7FEFF 		bl	HAL_UART_Receive_IT
 822              	.LVL49:
 270:SynaptiX_FDK/board/sx_board.c **** }
 823              		.loc 1 270 1 is_stmt 0 view .LVU205
 824 000c 08BD     		pop	{r3, pc}
 825              	.L34:
 826 000e 00BF     		.align	2
 827              	.L33:
 828 0010 00000000 		.word	uart_rx_char
 829 0014 00000000 		.word	huart1
 830              		.cfi_endproc
 831              	.LFE444:
 833              		.section	.text.board_gps_uart_resume_it,"ax",%progbits
 834              		.align	1
 835              		.global	board_gps_uart_resume_it
 836              		.syntax unified
 837              		.thumb
 838              		.thumb_func
 840              	board_gps_uart_resume_it:
 841              	.LFB445:
 271:SynaptiX_FDK/board/sx_board.c **** 
 272:SynaptiX_FDK/board/sx_board.c **** void board_gps_uart_resume_it(void){
 842              		.loc 1 272 36 is_stmt 1 view -0
 843              		.cfi_startproc
 844              		@ args = 0, pretend = 0, frame = 0
 845              		@ frame_needed = 0, uses_anonymous_args = 0
 846 0000 08B5     		push	{r3, lr}
 847              	.LCFI11:
 848              		.cfi_def_cfa_offset 8
 849              		.cfi_offset 3, -8
 850              		.cfi_offset 14, -4
 273:SynaptiX_FDK/board/sx_board.c ****     sx_gps_uart_abort();
 851              		.loc 1 273 5 view .LVU207
 852 0002 FFF7FEFF 		bl	sx_gps_uart_abort
 853              	.LVL50:
 274:SynaptiX_FDK/board/sx_board.c ****     gps_it_handle();
 854              		.loc 1 274 5 view .LVU208
 855 0006 FFF7FEFF 		bl	gps_it_handle
 856              	.LVL51:
 275:SynaptiX_FDK/board/sx_board.c **** }
 857              		.loc 1 275 1 is_stmt 0 view .LVU209
 858 000a 08BD     		pop	{r3, pc}
 859              		.cfi_endproc
 860              	.LFE445:
 862              		.section	.text.board_sim_uart_resume_it,"ax",%progbits
 863              		.align	1
ARM GAS  C:\Users\DELL\AppData\Local\Temp\ccKkCxJb.s 			page 25


 864              		.global	board_sim_uart_resume_it
 865              		.syntax unified
 866              		.thumb
 867              		.thumb_func
 869              	board_sim_uart_resume_it:
 870              	.LFB446:
 276:SynaptiX_FDK/board/sx_board.c **** 
 277:SynaptiX_FDK/board/sx_board.c **** void board_sim_uart_resume_it(void){
 871              		.loc 1 277 36 is_stmt 1 view -0
 872              		.cfi_startproc
 873              		@ args = 0, pretend = 0, frame = 0
 874              		@ frame_needed = 0, uses_anonymous_args = 0
 875 0000 08B5     		push	{r3, lr}
 876              	.LCFI12:
 877              		.cfi_def_cfa_offset 8
 878              		.cfi_offset 3, -8
 879              		.cfi_offset 14, -4
 278:SynaptiX_FDK/board/sx_board.c ****     sx_lte_uart_abort();
 880              		.loc 1 278 5 view .LVU211
 881 0002 FFF7FEFF 		bl	sx_lte_uart_abort
 882              	.LVL52:
 279:SynaptiX_FDK/board/sx_board.c ****     sim_it_handle();
 883              		.loc 1 279 5 view .LVU212
 884 0006 FFF7FEFF 		bl	sim_it_handle
 885              	.LVL53:
 280:SynaptiX_FDK/board/sx_board.c **** }
 886              		.loc 1 280 1 is_stmt 0 view .LVU213
 887 000a 08BD     		pop	{r3, pc}
 888              		.cfi_endproc
 889              	.LFE446:
 891              		.section	.text.sx_board_uart_resume_it,"ax",%progbits
 892              		.align	1
 893              		.global	sx_board_uart_resume_it
 894              		.syntax unified
 895              		.thumb
 896              		.thumb_func
 898              	sx_board_uart_resume_it:
 899              	.LFB447:
 281:SynaptiX_FDK/board/sx_board.c **** void sx_board_uart_resume_it(void) {
 900              		.loc 1 281 36 is_stmt 1 view -0
 901              		.cfi_startproc
 902              		@ args = 0, pretend = 0, frame = 0
 903              		@ frame_needed = 0, uses_anonymous_args = 0
 904 0000 08B5     		push	{r3, lr}
 905              	.LCFI13:
 906              		.cfi_def_cfa_offset 8
 907              		.cfi_offset 3, -8
 908              		.cfi_offset 14, -4
 282:SynaptiX_FDK/board/sx_board.c ****     // sx_sim76_uart_abort();
 283:SynaptiX_FDK/board/sx_board.c ****     // sx_gps_uart_abort();
 284:SynaptiX_FDK/board/sx_board.c ****     // HAL_UART_Receive_IT(hal_uart[UART_LTE], &uart_rx_char[UART_LTE], 1);
 285:SynaptiX_FDK/board/sx_board.c ****     // HAL_UART_Receive_IT(hal_uart[UART_GPS], &uart_rx_char[UART_GPS], 1);
 286:SynaptiX_FDK/board/sx_board.c ****     board_gps_uart_resume_it();
 909              		.loc 1 286 5 view .LVU215
 910 0002 FFF7FEFF 		bl	board_gps_uart_resume_it
 911              	.LVL54:
 287:SynaptiX_FDK/board/sx_board.c ****     board_sim_uart_resume_it();
ARM GAS  C:\Users\DELL\AppData\Local\Temp\ccKkCxJb.s 			page 26


 912              		.loc 1 287 5 view .LVU216
 913 0006 FFF7FEFF 		bl	board_sim_uart_resume_it
 914              	.LVL55:
 288:SynaptiX_FDK/board/sx_board.c **** }
 915              		.loc 1 288 1 is_stmt 0 view .LVU217
 916 000a 08BD     		pop	{r3, pc}
 917              		.cfi_endproc
 918              	.LFE447:
 920              		.section	.rodata.tud_mount_cb.str1.4,"aMS",%progbits,1
 921              		.align	2
 922              	.LC8:
 923 0000 55534220 		.ascii	"USB tiny connected\000"
 923      74696E79 
 923      20636F6E 
 923      6E656374 
 923      656400
 924              		.section	.text.tud_mount_cb,"ax",%progbits
 925              		.align	1
 926              		.global	tud_mount_cb
 927              		.syntax unified
 928              		.thumb
 929              		.thumb_func
 931              	tud_mount_cb:
 932              	.LFB448:
 289:SynaptiX_FDK/board/sx_board.c **** 
 290:SynaptiX_FDK/board/sx_board.c **** // static void set_enter_sleep_mode(void) {
 291:SynaptiX_FDK/board/sx_board.c **** //     sx_gpio_write(&s_dis_charge, SX_GPIO_HIGH); 
 292:SynaptiX_FDK/board/sx_board.c **** //     sx_gpio_write(&s_charge, SX_GPIO_LOW);
 293:SynaptiX_FDK/board/sx_board.c **** //     log_info(TAG, "Enter sleep POWER");
 294:SynaptiX_FDK/board/sx_board.c **** // }
 295:SynaptiX_FDK/board/sx_board.c **** 
 296:SynaptiX_FDK/board/sx_board.c **** /* USB IT CB    */
 297:SynaptiX_FDK/board/sx_board.c **** void tud_mount_cb(void) {
 933              		.loc 1 297 25 is_stmt 1 view -0
 934              		.cfi_startproc
 935              		@ args = 0, pretend = 0, frame = 0
 936              		@ frame_needed = 0, uses_anonymous_args = 0
 937 0000 08B5     		push	{r3, lr}
 938              	.LCFI14:
 939              		.cfi_def_cfa_offset 8
 940              		.cfi_offset 3, -8
 941              		.cfi_offset 14, -4
 298:SynaptiX_FDK/board/sx_board.c ****     log_info(TAG, "USB tiny connected");
 942              		.loc 1 298 5 view .LVU219
 943 0002 034A     		ldr	r2, .L43
 944 0004 0349     		ldr	r1, .L43+4
 945 0006 0320     		movs	r0, #3
 946 0008 FFF7FEFF 		bl	log_func
 947              	.LVL56:
 299:SynaptiX_FDK/board/sx_board.c **** }
 948              		.loc 1 299 1 is_stmt 0 view .LVU220
 949 000c 08BD     		pop	{r3, pc}
 950              	.L44:
 951 000e 00BF     		.align	2
 952              	.L43:
 953 0010 00000000 		.word	.LC8
 954 0014 18000000 		.word	.LC1
ARM GAS  C:\Users\DELL\AppData\Local\Temp\ccKkCxJb.s 			page 27


 955              		.cfi_endproc
 956              	.LFE448:
 958              		.section	.rodata.tud_umount_cb.str1.4,"aMS",%progbits,1
 959              		.align	2
 960              	.LC9:
 961 0000 55534220 		.ascii	"USB discharge\000"
 961      64697363 
 961      68617267 
 961      6500
 962 000e 0000     		.align	2
 963              	.LC10:
 964 0010 55534220 		.ascii	"USB tiny disconnected\000"
 964      74696E79 
 964      20646973 
 964      636F6E6E 
 964      65637465 
 965              		.section	.text.tud_umount_cb,"ax",%progbits
 966              		.align	1
 967              		.global	tud_umount_cb
 968              		.syntax unified
 969              		.thumb
 970              		.thumb_func
 972              	tud_umount_cb:
 973              	.LFB449:
 300:SynaptiX_FDK/board/sx_board.c **** 
 301:SynaptiX_FDK/board/sx_board.c **** void tud_umount_cb(void) {
 974              		.loc 1 301 26 is_stmt 1 view -0
 975              		.cfi_startproc
 976              		@ args = 0, pretend = 0, frame = 0
 977              		@ frame_needed = 0, uses_anonymous_args = 0
 978 0000 10B5     		push	{r4, lr}
 979              	.LCFI15:
 980              		.cfi_def_cfa_offset 8
 981              		.cfi_offset 4, -8
 982              		.cfi_offset 14, -4
 302:SynaptiX_FDK/board/sx_board.c ****     log_info(TAG,"USB discharge");
 983              		.loc 1 302 5 view .LVU222
 984 0002 074C     		ldr	r4, .L47
 985 0004 074A     		ldr	r2, .L47+4
 986 0006 2146     		mov	r1, r4
 987 0008 0320     		movs	r0, #3
 988 000a FFF7FEFF 		bl	log_func
 989              	.LVL57:
 303:SynaptiX_FDK/board/sx_board.c ****     app_request_sleep();
 990              		.loc 1 303 5 view .LVU223
 991 000e FFF7FEFF 		bl	app_request_sleep
 992              	.LVL58:
 304:SynaptiX_FDK/board/sx_board.c ****     log_info(TAG, "USB tiny disconnected");
 993              		.loc 1 304 5 view .LVU224
 994 0012 054A     		ldr	r2, .L47+8
 995 0014 2146     		mov	r1, r4
 996 0016 0320     		movs	r0, #3
 997 0018 FFF7FEFF 		bl	log_func
 998              	.LVL59:
 305:SynaptiX_FDK/board/sx_board.c **** }
 999              		.loc 1 305 1 is_stmt 0 view .LVU225
 1000 001c 10BD     		pop	{r4, pc}
ARM GAS  C:\Users\DELL\AppData\Local\Temp\ccKkCxJb.s 			page 28


 1001              	.L48:
 1002 001e 00BF     		.align	2
 1003              	.L47:
 1004 0020 18000000 		.word	.LC1
 1005 0024 00000000 		.word	.LC9
 1006 0028 10000000 		.word	.LC10
 1007              		.cfi_endproc
 1008              	.LFE449:
 1010              		.section	.text.tud_suspend_cb,"ax",%progbits
 1011              		.align	1
 1012              		.global	tud_suspend_cb
 1013              		.syntax unified
 1014              		.thumb
 1015              		.thumb_func
 1017              	tud_suspend_cb:
 1018              	.LVL60:
 1019              	.LFB450:
 306:SynaptiX_FDK/board/sx_board.c **** 
 307:SynaptiX_FDK/board/sx_board.c **** void tud_suspend_cb(bool remote_wakeup_en) {
 1020              		.loc 1 307 44 is_stmt 1 view -0
 1021              		.cfi_startproc
 1022              		@ args = 0, pretend = 0, frame = 0
 1023              		@ frame_needed = 0, uses_anonymous_args = 0
 1024              		@ link register save eliminated.
 308:SynaptiX_FDK/board/sx_board.c **** 
 309:SynaptiX_FDK/board/sx_board.c **** }
 1025              		.loc 1 309 1 view .LVU227
 1026 0000 7047     		bx	lr
 1027              		.cfi_endproc
 1028              	.LFE450:
 1030              		.section	.rodata.tud_resume_cb.str1.4,"aMS",%progbits,1
 1031              		.align	2
 1032              	.LC11:
 1033 0000 55534220 		.ascii	"USB tiny resumed\000"
 1033      74696E79 
 1033      20726573 
 1033      756D6564 
 1033      00
 1034              		.section	.text.tud_resume_cb,"ax",%progbits
 1035              		.align	1
 1036              		.global	tud_resume_cb
 1037              		.syntax unified
 1038              		.thumb
 1039              		.thumb_func
 1041              	tud_resume_cb:
 1042              	.LFB451:
 310:SynaptiX_FDK/board/sx_board.c **** 
 311:SynaptiX_FDK/board/sx_board.c **** void tud_resume_cb(void) {
 1043              		.loc 1 311 26 view -0
 1044              		.cfi_startproc
 1045              		@ args = 0, pretend = 0, frame = 0
 1046              		@ frame_needed = 0, uses_anonymous_args = 0
 1047 0000 08B5     		push	{r3, lr}
 1048              	.LCFI16:
 1049              		.cfi_def_cfa_offset 8
 1050              		.cfi_offset 3, -8
 1051              		.cfi_offset 14, -4
ARM GAS  C:\Users\DELL\AppData\Local\Temp\ccKkCxJb.s 			page 29


 312:SynaptiX_FDK/board/sx_board.c ****     log_info(TAG, "USB tiny resumed");
 1052              		.loc 1 312 5 view .LVU229
 1053 0002 034A     		ldr	r2, .L52
 1054 0004 0349     		ldr	r1, .L52+4
 1055 0006 0320     		movs	r0, #3
 1056 0008 FFF7FEFF 		bl	log_func
 1057              	.LVL61:
 313:SynaptiX_FDK/board/sx_board.c **** }
 1058              		.loc 1 313 1 is_stmt 0 view .LVU230
 1059 000c 08BD     		pop	{r3, pc}
 1060              	.L53:
 1061 000e 00BF     		.align	2
 1062              	.L52:
 1063 0010 00000000 		.word	.LC11
 1064 0014 18000000 		.word	.LC1
 1065              		.cfi_endproc
 1066              	.LFE451:
 1068              		.section	.text.HAL_UART_RxCpltCallback,"ax",%progbits
 1069              		.align	1
 1070              		.global	HAL_UART_RxCpltCallback
 1071              		.syntax unified
 1072              		.thumb
 1073              		.thumb_func
 1075              	HAL_UART_RxCpltCallback:
 1076              	.LVL62:
 1077              	.LFB452:
 314:SynaptiX_FDK/board/sx_board.c **** 
 315:SynaptiX_FDK/board/sx_board.c **** 
 316:SynaptiX_FDK/board/sx_board.c **** void HAL_UART_RxCpltCallback(UART_HandleTypeDef *huart)
 317:SynaptiX_FDK/board/sx_board.c **** {
 1078              		.loc 1 317 1 is_stmt 1 view -0
 1079              		.cfi_startproc
 1080              		@ args = 0, pretend = 0, frame = 0
 1081              		@ frame_needed = 0, uses_anonymous_args = 0
 1082              		.loc 1 317 1 is_stmt 0 view .LVU232
 1083 0000 10B5     		push	{r4, lr}
 1084              	.LCFI17:
 1085              		.cfi_def_cfa_offset 8
 1086              		.cfi_offset 4, -8
 1087              		.cfi_offset 14, -4
 318:SynaptiX_FDK/board/sx_board.c ****     if(huart == hal_uart[UART_LTE]){
 1088              		.loc 1 318 5 is_stmt 1 view .LVU233
 1089              		.loc 1 318 7 is_stmt 0 view .LVU234
 1090 0002 284B     		ldr	r3, .L66
 1091 0004 9842     		cmp	r0, r3
 1092 0006 0CD0     		beq	.L61
 319:SynaptiX_FDK/board/sx_board.c ****         sx_uart_rx_callback(bsp_uart[UART_LTE], &uart_rx_char[UART_LTE], 1);
 320:SynaptiX_FDK/board/sx_board.c ****         HAL_UART_Receive_IT(hal_uart[UART_LTE], &uart_rx_char[UART_LTE], 1);
 321:SynaptiX_FDK/board/sx_board.c ****     } else if(huart == hal_uart[UART_GPS]){
 1093              		.loc 1 321 12 is_stmt 1 view .LVU235
 1094              		.loc 1 321 14 is_stmt 0 view .LVU236
 1095 0008 274B     		ldr	r3, .L66+4
 1096 000a 9842     		cmp	r0, r3
 1097 000c 16D0     		beq	.L62
 322:SynaptiX_FDK/board/sx_board.c ****         sx_uart_rx_callback(bsp_uart[UART_GPS], &uart_rx_char[UART_GPS], 1);
 323:SynaptiX_FDK/board/sx_board.c ****         HAL_UART_Receive_IT(hal_uart[UART_GPS], &uart_rx_char[UART_GPS], 1);
 324:SynaptiX_FDK/board/sx_board.c ****     } else if(huart == hal_uart[UART_LOG]){
ARM GAS  C:\Users\DELL\AppData\Local\Temp\ccKkCxJb.s 			page 30


 1098              		.loc 1 324 12 is_stmt 1 view .LVU237
 1099              		.loc 1 324 14 is_stmt 0 view .LVU238
 1100 000e 274B     		ldr	r3, .L66+8
 1101 0010 9842     		cmp	r0, r3
 1102 0012 20D0     		beq	.L63
 325:SynaptiX_FDK/board/sx_board.c ****         sx_uart_rx_callback(bsp_uart[UART_LOG], &uart_rx_char[UART_LOG], 1);
 326:SynaptiX_FDK/board/sx_board.c ****         HAL_UART_Receive_IT(hal_uart[UART_LOG], &uart_rx_char[UART_LOG], 1);
 327:SynaptiX_FDK/board/sx_board.c ****     } else if(huart == hal_uart[UART_DUST]){
 1103              		.loc 1 327 12 is_stmt 1 view .LVU239
 1104              		.loc 1 327 14 is_stmt 0 view .LVU240
 1105 0014 264B     		ldr	r3, .L66+12
 1106 0016 9842     		cmp	r0, r3
 1107 0018 2AD0     		beq	.L64
 328:SynaptiX_FDK/board/sx_board.c ****         sx_uart_rx_callback(bsp_uart[UART_DUST], &uart_rx_char[UART_DUST], 1);
 329:SynaptiX_FDK/board/sx_board.c ****         HAL_UART_Receive_IT(hal_uart[UART_DUST], &uart_rx_char[UART_DUST], 1);
 330:SynaptiX_FDK/board/sx_board.c ****     } else if(huart == hal_uart[UART_EXTEND]){
 1108              		.loc 1 330 12 is_stmt 1 view .LVU241
 1109              		.loc 1 330 14 is_stmt 0 view .LVU242
 1110 001a 264B     		ldr	r3, .L66+16
 1111 001c 9842     		cmp	r0, r3
 1112 001e 34D0     		beq	.L65
 1113              	.LVL63:
 1114              	.L54:
 331:SynaptiX_FDK/board/sx_board.c ****         sx_uart_rx_callback(bsp_uart[UART_EXTEND], &uart_rx_char[UART_EXTEND], 1);
 332:SynaptiX_FDK/board/sx_board.c ****         HAL_UART_Receive_IT(hal_uart[UART_EXTEND], &uart_rx_char[UART_EXTEND], 1);
 333:SynaptiX_FDK/board/sx_board.c ****     }
 334:SynaptiX_FDK/board/sx_board.c **** }
 1115              		.loc 1 334 1 view .LVU243
 1116 0020 10BD     		pop	{r4, pc}
 1117              	.LVL64:
 1118              	.L61:
 319:SynaptiX_FDK/board/sx_board.c ****         HAL_UART_Receive_IT(hal_uart[UART_LTE], &uart_rx_char[UART_LTE], 1);
 1119              		.loc 1 319 9 is_stmt 1 view .LVU244
 1120 0022 254C     		ldr	r4, .L66+20
 1121 0024 0122     		movs	r2, #1
 1122 0026 2146     		mov	r1, r4
 1123 0028 244B     		ldr	r3, .L66+24
 1124 002a 1868     		ldr	r0, [r3]
 1125              	.LVL65:
 319:SynaptiX_FDK/board/sx_board.c ****         HAL_UART_Receive_IT(hal_uart[UART_LTE], &uart_rx_char[UART_LTE], 1);
 1126              		.loc 1 319 9 is_stmt 0 view .LVU245
 1127 002c FFF7FEFF 		bl	sx_uart_rx_callback
 1128              	.LVL66:
 320:SynaptiX_FDK/board/sx_board.c ****     } else if(huart == hal_uart[UART_GPS]){
 1129              		.loc 1 320 9 is_stmt 1 view .LVU246
 1130 0030 0122     		movs	r2, #1
 1131 0032 2146     		mov	r1, r4
 1132 0034 1B48     		ldr	r0, .L66
 1133 0036 FFF7FEFF 		bl	HAL_UART_Receive_IT
 1134              	.LVL67:
 1135 003a F1E7     		b	.L54
 1136              	.LVL68:
 1137              	.L62:
 322:SynaptiX_FDK/board/sx_board.c ****         HAL_UART_Receive_IT(hal_uart[UART_GPS], &uart_rx_char[UART_GPS], 1);
 1138              		.loc 1 322 9 view .LVU247
 1139 003c 204C     		ldr	r4, .L66+28
 1140 003e 0122     		movs	r2, #1
ARM GAS  C:\Users\DELL\AppData\Local\Temp\ccKkCxJb.s 			page 31


 1141 0040 2146     		mov	r1, r4
 1142 0042 1E4B     		ldr	r3, .L66+24
 1143 0044 5868     		ldr	r0, [r3, #4]
 1144              	.LVL69:
 322:SynaptiX_FDK/board/sx_board.c ****         HAL_UART_Receive_IT(hal_uart[UART_GPS], &uart_rx_char[UART_GPS], 1);
 1145              		.loc 1 322 9 is_stmt 0 view .LVU248
 1146 0046 FFF7FEFF 		bl	sx_uart_rx_callback
 1147              	.LVL70:
 323:SynaptiX_FDK/board/sx_board.c ****     } else if(huart == hal_uart[UART_LOG]){
 1148              		.loc 1 323 9 is_stmt 1 view .LVU249
 1149 004a 0122     		movs	r2, #1
 1150 004c 2146     		mov	r1, r4
 1151 004e 1648     		ldr	r0, .L66+4
 1152 0050 FFF7FEFF 		bl	HAL_UART_Receive_IT
 1153              	.LVL71:
 1154 0054 E4E7     		b	.L54
 1155              	.LVL72:
 1156              	.L63:
 325:SynaptiX_FDK/board/sx_board.c ****         HAL_UART_Receive_IT(hal_uart[UART_LOG], &uart_rx_char[UART_LOG], 1);
 1157              		.loc 1 325 9 view .LVU250
 1158 0056 1B4C     		ldr	r4, .L66+32
 1159 0058 0122     		movs	r2, #1
 1160 005a 2146     		mov	r1, r4
 1161 005c 174B     		ldr	r3, .L66+24
 1162 005e 5869     		ldr	r0, [r3, #20]
 1163              	.LVL73:
 325:SynaptiX_FDK/board/sx_board.c ****         HAL_UART_Receive_IT(hal_uart[UART_LOG], &uart_rx_char[UART_LOG], 1);
 1164              		.loc 1 325 9 is_stmt 0 view .LVU251
 1165 0060 FFF7FEFF 		bl	sx_uart_rx_callback
 1166              	.LVL74:
 326:SynaptiX_FDK/board/sx_board.c ****     } else if(huart == hal_uart[UART_DUST]){
 1167              		.loc 1 326 9 is_stmt 1 view .LVU252
 1168 0064 0122     		movs	r2, #1
 1169 0066 2146     		mov	r1, r4
 1170 0068 1048     		ldr	r0, .L66+8
 1171 006a FFF7FEFF 		bl	HAL_UART_Receive_IT
 1172              	.LVL75:
 1173 006e D7E7     		b	.L54
 1174              	.LVL76:
 1175              	.L64:
 328:SynaptiX_FDK/board/sx_board.c ****         HAL_UART_Receive_IT(hal_uart[UART_DUST], &uart_rx_char[UART_DUST], 1);
 1176              		.loc 1 328 9 view .LVU253
 1177 0070 154C     		ldr	r4, .L66+36
 1178 0072 0122     		movs	r2, #1
 1179 0074 2146     		mov	r1, r4
 1180 0076 114B     		ldr	r3, .L66+24
 1181 0078 D868     		ldr	r0, [r3, #12]
 1182              	.LVL77:
 328:SynaptiX_FDK/board/sx_board.c ****         HAL_UART_Receive_IT(hal_uart[UART_DUST], &uart_rx_char[UART_DUST], 1);
 1183              		.loc 1 328 9 is_stmt 0 view .LVU254
 1184 007a FFF7FEFF 		bl	sx_uart_rx_callback
 1185              	.LVL78:
 329:SynaptiX_FDK/board/sx_board.c ****     } else if(huart == hal_uart[UART_EXTEND]){
 1186              		.loc 1 329 9 is_stmt 1 view .LVU255
 1187 007e 0122     		movs	r2, #1
 1188 0080 2146     		mov	r1, r4
 1189 0082 0B48     		ldr	r0, .L66+12
ARM GAS  C:\Users\DELL\AppData\Local\Temp\ccKkCxJb.s 			page 32


 1190 0084 FFF7FEFF 		bl	HAL_UART_Receive_IT
 1191              	.LVL79:
 1192 0088 CAE7     		b	.L54
 1193              	.LVL80:
 1194              	.L65:
 331:SynaptiX_FDK/board/sx_board.c ****         HAL_UART_Receive_IT(hal_uart[UART_EXTEND], &uart_rx_char[UART_EXTEND], 1);
 1195              		.loc 1 331 9 view .LVU256
 1196 008a 104C     		ldr	r4, .L66+40
 1197 008c 0122     		movs	r2, #1
 1198 008e 2146     		mov	r1, r4
 1199 0090 0A4B     		ldr	r3, .L66+24
 1200 0092 1869     		ldr	r0, [r3, #16]
 1201              	.LVL81:
 331:SynaptiX_FDK/board/sx_board.c ****         HAL_UART_Receive_IT(hal_uart[UART_EXTEND], &uart_rx_char[UART_EXTEND], 1);
 1202              		.loc 1 331 9 is_stmt 0 view .LVU257
 1203 0094 FFF7FEFF 		bl	sx_uart_rx_callback
 1204              	.LVL82:
 332:SynaptiX_FDK/board/sx_board.c ****     }
 1205              		.loc 1 332 9 is_stmt 1 view .LVU258
 1206 0098 0122     		movs	r2, #1
 1207 009a 2146     		mov	r1, r4
 1208 009c 0548     		ldr	r0, .L66+16
 1209 009e FFF7FEFF 		bl	HAL_UART_Receive_IT
 1210              	.LVL83:
 1211              		.loc 1 334 1 is_stmt 0 view .LVU259
 1212 00a2 BDE7     		b	.L54
 1213              	.L67:
 1214              		.align	2
 1215              	.L66:
 1216 00a4 00000000 		.word	huart1
 1217 00a8 00000000 		.word	huart2
 1218 00ac 00000000 		.word	huart6
 1219 00b0 00000000 		.word	huart4
 1220 00b4 00000000 		.word	huart5
 1221 00b8 00000000 		.word	uart_rx_char
 1222 00bc 00000000 		.word	bsp_uart
 1223 00c0 01000000 		.word	uart_rx_char+1
 1224 00c4 05000000 		.word	uart_rx_char+5
 1225 00c8 03000000 		.word	uart_rx_char+3
 1226 00cc 04000000 		.word	uart_rx_char+4
 1227              		.cfi_endproc
 1228              	.LFE452:
 1230              		.section	.rodata.tud_cdc_line_state_cb.str1.4,"aMS",%progbits,1
 1231              		.align	2
 1232              	.LC12:
 1233 0000 43444320 		.ascii	"CDC line state: dtr=%d rts=%d\000"
 1233      6C696E65 
 1233      20737461 
 1233      74653A20 
 1233      6474723D 
 1234 001e 0000     		.align	2
 1235              	.LC13:
 1236 0020 55534200 		.ascii	"USB\000"
 1237              		.section	.text.tud_cdc_line_state_cb,"ax",%progbits
 1238              		.align	1
 1239              		.global	tud_cdc_line_state_cb
 1240              		.syntax unified
ARM GAS  C:\Users\DELL\AppData\Local\Temp\ccKkCxJb.s 			page 33


 1241              		.thumb
 1242              		.thumb_func
 1244              	tud_cdc_line_state_cb:
 1245              	.LVL84:
 1246              	.LFB453:
 335:SynaptiX_FDK/board/sx_board.c **** 
 336:SynaptiX_FDK/board/sx_board.c **** void tud_cdc_line_state_cb(uint8_t itf, bool dtr, bool rts) {
 1247              		.loc 1 336 61 is_stmt 1 view -0
 1248              		.cfi_startproc
 1249              		@ args = 0, pretend = 0, frame = 0
 1250              		@ frame_needed = 0, uses_anonymous_args = 0
 1251              		.loc 1 336 61 is_stmt 0 view .LVU261
 1252 0000 00B5     		push	{lr}
 1253              	.LCFI18:
 1254              		.cfi_def_cfa_offset 4
 1255              		.cfi_offset 14, -4
 1256 0002 83B0     		sub	sp, sp, #12
 1257              	.LCFI19:
 1258              		.cfi_def_cfa_offset 16
 1259 0004 0B46     		mov	r3, r1
 337:SynaptiX_FDK/board/sx_board.c ****     log_info("USB", "CDC line state: dtr=%d rts=%d", dtr, rts);
 1260              		.loc 1 337 5 is_stmt 1 view .LVU262
 1261 0006 0092     		str	r2, [sp]
 1262 0008 034A     		ldr	r2, .L70
 1263              	.LVL85:
 1264              		.loc 1 337 5 is_stmt 0 view .LVU263
 1265 000a 0449     		ldr	r1, .L70+4
 1266              	.LVL86:
 1267              		.loc 1 337 5 view .LVU264
 1268 000c 0320     		movs	r0, #3
 1269              	.LVL87:
 1270              		.loc 1 337 5 view .LVU265
 1271 000e FFF7FEFF 		bl	log_func
 1272              	.LVL88:
 338:SynaptiX_FDK/board/sx_board.c **** }...
 1273              		.loc 1 338 1 view .LVU266
 1274 0012 03B0     		add	sp, sp, #12
 1275              	.LCFI20:
 1276              		.cfi_def_cfa_offset 4
 1277              		@ sp needed
 1278 0014 00BD     		pop	{pc}
 1279              	.L71:
 1280 0016 00BF     		.align	2
 1281              	.L70:
 1282 0018 00000000 		.word	.LC12
 1283 001c 20000000 		.word	.LC13
 1284              		.cfi_endproc
 1285              	.LFE453:
 1287              		.section	.bss.uart_config.0,"aw",%nobits
 1288              		.align	2
 1291              	uart_config.0:
 1292 0000 00000000 		.space	72
 1292      00000000 
 1292      00000000 
 1292      00000000 
 1292      00000000 
 1293              		.section	.data.s_uart5_s1_pin,"aw"
ARM GAS  C:\Users\DELL\AppData\Local\Temp\ccKkCxJb.s 			page 34


 1294              		.align	2
 1297              	s_uart5_s1_pin:
 1298 0000 00080242 		.word	1107429376
 1299 0004 1000     		.short	16
 1300 0006 0000     		.space	2
 1301              		.section	.data.s_uart5_s0_pin,"aw"
 1302              		.align	2
 1305              	s_uart5_s0_pin:
 1306 0000 00000242 		.word	1107427328
 1307 0004 8000     		.short	128
 1308 0006 0000     		.space	2
 1309              		.section	.data.s_en_pw_dust_pin,"aw"
 1310              		.align	2
 1313              	s_en_pw_dust_pin:
 1314 0000 00000242 		.word	1107427328
 1315 0004 0002     		.short	512
 1316 0006 0000     		.space	2
 1317              		.section	.bss.s_en_pw_dust,"aw",%nobits
 1318              		.align	2
 1321              	s_en_pw_dust:
 1322 0000 00000000 		.space	12
 1322      00000000 
 1322      00000000 
 1323              		.section	.data.s_i2c1_reset_pin,"aw"
 1324              		.align	2
 1327              	s_i2c1_reset_pin:
 1328 0000 00040242 		.word	1107428352
 1329 0004 0001     		.short	256
 1330 0006 0000     		.space	2
 1331              		.section	.bss.s_i2c1_reset,"aw",%nobits
 1332              		.align	2
 1335              	s_i2c1_reset:
 1336 0000 00000000 		.space	12
 1336      00000000 
 1336      00000000 
 1337              		.section	.rodata.s_spi_cs_pin,"a"
 1338              		.align	2
 1341              	s_spi_cs_pin:
 1342 0000 00080242 		.word	1107429376
 1343 0004 0010     		.short	4096
 1344 0006 0000     		.space	2
 1345              		.section	.data.s_gps_rst_pin,"aw"
 1346              		.align	2
 1349              	s_gps_rst_pin:
 1350 0000 00080242 		.word	1107429376
 1351 0004 0020     		.short	8192
 1352 0006 0000     		.space	2
 1353              		.section	.data.s_gps_cpw_pin,"aw"
 1354              		.align	2
 1357              	s_gps_cpw_pin:
 1358 0000 00080242 		.word	1107429376
 1359 0004 0010     		.short	4096
 1360 0006 0000     		.space	2
 1361              		.section	.data.s_lte_reset_pin,"aw"
 1362              		.align	2
 1365              	s_lte_reset_pin:
 1366 0000 000C0242 		.word	1107430400
ARM GAS  C:\Users\DELL\AppData\Local\Temp\ccKkCxJb.s 			page 35


 1367 0004 0008     		.short	2048
 1368 0006 0000     		.space	2
 1369              		.section	.data.s_lte_pwrkey_pin,"aw"
 1370              		.align	2
 1373              	s_lte_pwrkey_pin:
 1374 0000 000C0242 		.word	1107430400
 1375 0004 0010     		.short	4096
 1376 0006 0000     		.space	2
 1377              		.section	.bss.uart_rx_char,"aw",%nobits
 1378              		.align	2
 1381              	uart_rx_char:
 1382 0000 00000000 		.space	6
 1382      0000
 1383              		.section	.bss.bsp_uart,"aw",%nobits
 1384              		.align	2
 1387              	bsp_uart:
 1388 0000 00000000 		.space	24
 1388      00000000 
 1388      00000000 
 1388      00000000 
 1388      00000000 
 1389              		.global	board
 1390              		.section	.bss.board,"aw",%nobits
 1391              		.align	2
 1394              	board:
 1395 0000 00000000 		.space	57032
 1395      00000000 
 1395      00000000 
 1395      00000000 
 1395      00000000 
 1396              		.text
 1397              	.Letext0:
 1398              		.file 4 "D:\\stm32cubeclt\\STM32CubeCLT_1.21.0\\GNU-tools-for-STM32\\bin\\../lib/gcc/arm-none-eabi
 1399              		.file 5 "D:\\stm32cubeclt\\STM32CubeCLT_1.21.0\\GNU-tools-for-STM32\\bin\\../lib/gcc/arm-none-eabi
 1400              		.file 6 "D:\\stm32cubeclt\\STM32CubeCLT_1.21.0\\GNU-tools-for-STM32\\bin\\../lib/gcc/arm-none-eabi
 1401              		.file 7 "Drivers/CMSIS/Device/ST/STM32H5xx/Include/stm32h563xx.h"
 1402              		.file 8 "Drivers/STM32H5xx_HAL_Driver/Inc/stm32h5xx_hal_def.h"
 1403              		.file 9 "Drivers/STM32H5xx_HAL_Driver/Inc/stm32h5xx_hal_dma.h"
 1404              		.file 10 "Drivers/STM32H5xx_HAL_Driver/Inc/stm32h5xx_hal_dma_ex.h"
 1405              		.file 11 "Drivers/STM32H5xx_HAL_Driver/Inc/stm32h5xx_hal_i2c.h"
 1406              		.file 12 "Drivers/STM32H5xx_HAL_Driver/Inc/stm32h5xx_ll_lptim.h"
 1407              		.file 13 "Drivers/STM32H5xx_HAL_Driver/Inc/stm32h5xx_hal_spi.h"
 1408              		.file 14 "Drivers/STM32H5xx_HAL_Driver/Inc/stm32h5xx_hal_uart.h"
 1409              		.file 15 "Drivers/STM32H5xx_HAL_Driver/Inc/stm32h5xx_ll_usb.h"
 1410              		.file 16 "Drivers/STM32H5xx_HAL_Driver/Inc/stm32h5xx_hal_pcd.h"
 1411              		.file 17 "Core/Inc/usart.h"
 1412              		.file 18 "SynaptiX_FDK/components/peripherals/spi/sx_spi.h"
 1413              		.file 19 "SynaptiX_FDK/utils/cqueue/cqueue.h"
 1414              		.file 20 "SynaptiX_FDK/components/peripherals/uart/sx_uart.h"
 1415              		.file 21 "D:\\stm32cubeclt\\STM32CubeCLT_1.21.0\\GNU-tools-for-STM32\\bin\\../lib/gcc/arm-none-eab
 1416              		.file 22 "SynaptiX_FDK/components/modules/gps/minmea.h"
 1417              		.file 23 "SynaptiX_FDK/components/modules/gps/gps.h"
 1418              		.file 24 "SynaptiX_FDK/components/modules/modem/modem.h"
 1419              		.file 25 "SynaptiX_FDK/components/modules/modem_ops/modem_ops.h"
 1420              		.file 26 "SynaptiX_FDK/components/modules/a76xx/a7677s.h"
 1421              		.file 27 "SynaptiX_FDK/components/modules/external_flash/sx_W25Q128.h"
 1422              		.file 28 "SynaptiX_FDK/app/user/sx_ex_storage/sx_ex_storage.h"
ARM GAS  C:\Users\DELL\AppData\Local\Temp\ccKkCxJb.s 			page 36


 1423              		.file 29 "SynaptiX_FDK/components/peripherals/usb_cdc_tiny/sx_usb_tiny_cdc.h"
 1424              		.file 30 "Core/Inc/spi.h"
 1425              		.file 31 "Core/Inc/i2c.h"
 1426              		.file 32 "SynaptiX_FDK/components/modules/rtc/sx_ex_rtc.h"
 1427              		.file 33 "SynaptiX_FDK/components/modules/imu/bno055.h"
 1428              		.file 34 "SynaptiX_FDK/components/modules/sps30/sensirion_uart_portdescriptor.h"
 1429              		.file 35 "SynaptiX_FDK/components/modules/sht3x/sht3x.h"
 1430              		.file 36 "SynaptiX_FDK/components/modules/ads1115/ads1115.h"
 1431              		.file 37 "SynaptiX_FDK/board/sx_board.h"
 1432              		.file 38 "Core/Inc/usb.h"
 1433              		.file 39 "SynaptiX_FDK/app/user/sx_msc/sx_user_msc.h"
 1434              		.file 40 "SynaptiX_FDK/services/logger/logger.h"
 1435              		.file 41 "D:\\stm32cubeclt\\STM32CubeCLT_1.21.0\\GNU-tools-for-STM32\\bin\\../lib/gcc/arm-none-eab
 1436              		.file 42 "SynaptiX_FDK/components/modules/ze12a/ze12a.h"
 1437              		.file 43 "SynaptiX_FDK/components/modules/sps30/sensirion_uart_hal.h"
 1438              		.file 44 "SynaptiX_FDK/lib/tinyusb/src/device/usbd.h"
 1439              		.file 45 "Drivers/STM32H5xx_HAL_Driver/Inc/stm32h5xx_hal.h"
 1440              		.file 46 "SynaptiX_FDK/app/app.h"
ARM GAS  C:\Users\DELL\AppData\Local\Temp\ccKkCxJb.s 			page 37


DEFINED SYMBOLS
                            *ABS*:00000000 sx_board.c
C:\Users\DELL\AppData\Local\Temp\ccKkCxJb.s:22     .text.log_print:00000000 $t
C:\Users\DELL\AppData\Local\Temp\ccKkCxJb.s:27     .text.log_print:00000000 log_print
C:\Users\DELL\AppData\Local\Temp\ccKkCxJb.s:59     .text.log_print:00000014 $d
C:\Users\DELL\AppData\Local\Temp\ccKkCxJb.s:1394   .bss.board:00000000 board
C:\Users\DELL\AppData\Local\Temp\ccKkCxJb.s:64     .text.spi_storage_init:00000000 $t
C:\Users\DELL\AppData\Local\Temp\ccKkCxJb.s:69     .text.spi_storage_init:00000000 spi_storage_init
C:\Users\DELL\AppData\Local\Temp\ccKkCxJb.s:100    .text.spi_storage_init:00000020 $d
C:\Users\DELL\AppData\Local\Temp\ccKkCxJb.s:1341   .rodata.s_spi_cs_pin:00000000 s_spi_cs_pin
C:\Users\DELL\AppData\Local\Temp\ccKkCxJb.s:107    .text.sx_gps_uart_abort:00000000 $t
C:\Users\DELL\AppData\Local\Temp\ccKkCxJb.s:112    .text.sx_gps_uart_abort:00000000 sx_gps_uart_abort
C:\Users\DELL\AppData\Local\Temp\ccKkCxJb.s:132    .text.sx_gps_uart_abort:0000000c $d
C:\Users\DELL\AppData\Local\Temp\ccKkCxJb.s:137    .text.sx_lte_uart_abort:00000000 $t
C:\Users\DELL\AppData\Local\Temp\ccKkCxJb.s:142    .text.sx_lte_uart_abort:00000000 sx_lte_uart_abort
C:\Users\DELL\AppData\Local\Temp\ccKkCxJb.s:162    .text.sx_lte_uart_abort:0000000c $d
C:\Users\DELL\AppData\Local\Temp\ccKkCxJb.s:167    .rodata.dcd_fs_msp_init.str1.4:00000000 $d
C:\Users\DELL\AppData\Local\Temp\ccKkCxJb.s:177    .text.dcd_fs_msp_init:00000000 $t
C:\Users\DELL\AppData\Local\Temp\ccKkCxJb.s:183    .text.dcd_fs_msp_init:00000000 dcd_fs_msp_init
C:\Users\DELL\AppData\Local\Temp\ccKkCxJb.s:229    .text.dcd_fs_msp_init:0000002c $d
C:\Users\DELL\AppData\Local\Temp\ccKkCxJb.s:238    .text.USB_DRD_FS_IRQHandler:00000000 $t
C:\Users\DELL\AppData\Local\Temp\ccKkCxJb.s:244    .text.USB_DRD_FS_IRQHandler:00000000 USB_DRD_FS_IRQHandler
C:\Users\DELL\AppData\Local\Temp\ccKkCxJb.s:265    .rodata.sx_board_init.str1.4:00000000 $d
C:\Users\DELL\AppData\Local\Temp\ccKkCxJb.s:281    .text.sx_board_init:00000000 $t
C:\Users\DELL\AppData\Local\Temp\ccKkCxJb.s:287    .text.sx_board_init:00000000 sx_board_init
C:\Users\DELL\AppData\Local\Temp\ccKkCxJb.s:730    .text.sx_board_init:0000024c $d
C:\Users\DELL\AppData\Local\Temp\ccKkCxJb.s:1291   .bss.uart_config.0:00000000 uart_config.0
C:\Users\DELL\AppData\Local\Temp\ccKkCxJb.s:1387   .bss.bsp_uart:00000000 bsp_uart
C:\Users\DELL\AppData\Local\Temp\ccKkCxJb.s:1327   .data.s_i2c1_reset_pin:00000000 s_i2c1_reset_pin
C:\Users\DELL\AppData\Local\Temp\ccKkCxJb.s:1373   .data.s_lte_pwrkey_pin:00000000 s_lte_pwrkey_pin
C:\Users\DELL\AppData\Local\Temp\ccKkCxJb.s:1365   .data.s_lte_reset_pin:00000000 s_lte_reset_pin
C:\Users\DELL\AppData\Local\Temp\ccKkCxJb.s:1349   .data.s_gps_rst_pin:00000000 s_gps_rst_pin
C:\Users\DELL\AppData\Local\Temp\ccKkCxJb.s:1357   .data.s_gps_cpw_pin:00000000 s_gps_cpw_pin
C:\Users\DELL\AppData\Local\Temp\ccKkCxJb.s:1321   .bss.s_en_pw_dust:00000000 s_en_pw_dust
C:\Users\DELL\AppData\Local\Temp\ccKkCxJb.s:1313   .data.s_en_pw_dust_pin:00000000 s_en_pw_dust_pin
C:\Users\DELL\AppData\Local\Temp\ccKkCxJb.s:1297   .data.s_uart5_s1_pin:00000000 s_uart5_s1_pin
C:\Users\DELL\AppData\Local\Temp\ccKkCxJb.s:1305   .data.s_uart5_s0_pin:00000000 s_uart5_s0_pin
C:\Users\DELL\AppData\Local\Temp\ccKkCxJb.s:1335   .bss.s_i2c1_reset:00000000 s_i2c1_reset
C:\Users\DELL\AppData\Local\Temp\ccKkCxJb.s:1381   .bss.uart_rx_char:00000000 uart_rx_char
C:\Users\DELL\AppData\Local\Temp\ccKkCxJb.s:766    .text.gps_it_handle:00000000 $t
C:\Users\DELL\AppData\Local\Temp\ccKkCxJb.s:772    .text.gps_it_handle:00000000 gps_it_handle
C:\Users\DELL\AppData\Local\Temp\ccKkCxJb.s:794    .text.gps_it_handle:00000010 $d
C:\Users\DELL\AppData\Local\Temp\ccKkCxJb.s:800    .text.sim_it_handle:00000000 $t
C:\Users\DELL\AppData\Local\Temp\ccKkCxJb.s:806    .text.sim_it_handle:00000000 sim_it_handle
C:\Users\DELL\AppData\Local\Temp\ccKkCxJb.s:828    .text.sim_it_handle:00000010 $d
C:\Users\DELL\AppData\Local\Temp\ccKkCxJb.s:834    .text.board_gps_uart_resume_it:00000000 $t
C:\Users\DELL\AppData\Local\Temp\ccKkCxJb.s:840    .text.board_gps_uart_resume_it:00000000 board_gps_uart_resume_it
C:\Users\DELL\AppData\Local\Temp\ccKkCxJb.s:863    .text.board_sim_uart_resume_it:00000000 $t
C:\Users\DELL\AppData\Local\Temp\ccKkCxJb.s:869    .text.board_sim_uart_resume_it:00000000 board_sim_uart_resume_it
C:\Users\DELL\AppData\Local\Temp\ccKkCxJb.s:892    .text.sx_board_uart_resume_it:00000000 $t
C:\Users\DELL\AppData\Local\Temp\ccKkCxJb.s:898    .text.sx_board_uart_resume_it:00000000 sx_board_uart_resume_it
C:\Users\DELL\AppData\Local\Temp\ccKkCxJb.s:921    .rodata.tud_mount_cb.str1.4:00000000 $d
C:\Users\DELL\AppData\Local\Temp\ccKkCxJb.s:925    .text.tud_mount_cb:00000000 $t
C:\Users\DELL\AppData\Local\Temp\ccKkCxJb.s:931    .text.tud_mount_cb:00000000 tud_mount_cb
C:\Users\DELL\AppData\Local\Temp\ccKkCxJb.s:953    .text.tud_mount_cb:00000010 $d
C:\Users\DELL\AppData\Local\Temp\ccKkCxJb.s:959    .rodata.tud_umount_cb.str1.4:00000000 $d
C:\Users\DELL\AppData\Local\Temp\ccKkCxJb.s:966    .text.tud_umount_cb:00000000 $t
ARM GAS  C:\Users\DELL\AppData\Local\Temp\ccKkCxJb.s 			page 38


C:\Users\DELL\AppData\Local\Temp\ccKkCxJb.s:972    .text.tud_umount_cb:00000000 tud_umount_cb
C:\Users\DELL\AppData\Local\Temp\ccKkCxJb.s:1004   .text.tud_umount_cb:00000020 $d
C:\Users\DELL\AppData\Local\Temp\ccKkCxJb.s:1011   .text.tud_suspend_cb:00000000 $t
C:\Users\DELL\AppData\Local\Temp\ccKkCxJb.s:1017   .text.tud_suspend_cb:00000000 tud_suspend_cb
C:\Users\DELL\AppData\Local\Temp\ccKkCxJb.s:1031   .rodata.tud_resume_cb.str1.4:00000000 $d
C:\Users\DELL\AppData\Local\Temp\ccKkCxJb.s:1035   .text.tud_resume_cb:00000000 $t
C:\Users\DELL\AppData\Local\Temp\ccKkCxJb.s:1041   .text.tud_resume_cb:00000000 tud_resume_cb
C:\Users\DELL\AppData\Local\Temp\ccKkCxJb.s:1063   .text.tud_resume_cb:00000010 $d
C:\Users\DELL\AppData\Local\Temp\ccKkCxJb.s:1069   .text.HAL_UART_RxCpltCallback:00000000 $t
C:\Users\DELL\AppData\Local\Temp\ccKkCxJb.s:1075   .text.HAL_UART_RxCpltCallback:00000000 HAL_UART_RxCpltCallback
C:\Users\DELL\AppData\Local\Temp\ccKkCxJb.s:1216   .text.HAL_UART_RxCpltCallback:000000a4 $d
C:\Users\DELL\AppData\Local\Temp\ccKkCxJb.s:1231   .rodata.tud_cdc_line_state_cb.str1.4:00000000 $d
C:\Users\DELL\AppData\Local\Temp\ccKkCxJb.s:1238   .text.tud_cdc_line_state_cb:00000000 $t
C:\Users\DELL\AppData\Local\Temp\ccKkCxJb.s:1244   .text.tud_cdc_line_state_cb:00000000 tud_cdc_line_state_cb
C:\Users\DELL\AppData\Local\Temp\ccKkCxJb.s:1282   .text.tud_cdc_line_state_cb:00000018 $d
C:\Users\DELL\AppData\Local\Temp\ccKkCxJb.s:1288   .bss.uart_config.0:00000000 $d
C:\Users\DELL\AppData\Local\Temp\ccKkCxJb.s:1294   .data.s_uart5_s1_pin:00000000 $d
C:\Users\DELL\AppData\Local\Temp\ccKkCxJb.s:1302   .data.s_uart5_s0_pin:00000000 $d
C:\Users\DELL\AppData\Local\Temp\ccKkCxJb.s:1310   .data.s_en_pw_dust_pin:00000000 $d
C:\Users\DELL\AppData\Local\Temp\ccKkCxJb.s:1318   .bss.s_en_pw_dust:00000000 $d
C:\Users\DELL\AppData\Local\Temp\ccKkCxJb.s:1324   .data.s_i2c1_reset_pin:00000000 $d
C:\Users\DELL\AppData\Local\Temp\ccKkCxJb.s:1332   .bss.s_i2c1_reset:00000000 $d
C:\Users\DELL\AppData\Local\Temp\ccKkCxJb.s:1338   .rodata.s_spi_cs_pin:00000000 $d
C:\Users\DELL\AppData\Local\Temp\ccKkCxJb.s:1346   .data.s_gps_rst_pin:00000000 $d
C:\Users\DELL\AppData\Local\Temp\ccKkCxJb.s:1354   .data.s_gps_cpw_pin:00000000 $d
C:\Users\DELL\AppData\Local\Temp\ccKkCxJb.s:1362   .data.s_lte_reset_pin:00000000 $d
C:\Users\DELL\AppData\Local\Temp\ccKkCxJb.s:1370   .data.s_lte_pwrkey_pin:00000000 $d
C:\Users\DELL\AppData\Local\Temp\ccKkCxJb.s:1378   .bss.uart_rx_char:00000000 $d
C:\Users\DELL\AppData\Local\Temp\ccKkCxJb.s:1384   .bss.bsp_uart:00000000 $d
C:\Users\DELL\AppData\Local\Temp\ccKkCxJb.s:1391   .bss.board:00000000 $d

UNDEFINED SYMBOLS
strlen
sx_uart_write
sx_storage_init
hspi1
HAL_UART_Abort
huart2
huart1
log_func
HAL_PCD_MspInit
HAL_Delay
hpcd_USB_DRD_FS
dcd_int_handler
sx_uart_init
logger_init
sx_user_msc_init
sx_user_msc_create_disk
sx_usb_tiny_init
rx8130ce_init
a7677s_init
a7677s_set_full_apn
HAL_UART_Receive_IT
gps_init
bno055_init
sensirion_uart_hal_init
sht3x_init
ARM GAS  C:\Users\DELL\AppData\Local\Temp\ccKkCxJb.s 			page 39


ADS1115_Init
gas_sensor_init
gas_sensor_get_uart
huart6
huart3
huart4
huart5
sx_i2c_ops
hi2c1
a7677s_ops
sx_gpio_ops
app_request_sleep
sx_uart_rx_callback
