ARM GAS  C:\Users\DELL\AppData\Local\Temp\ccxg3WYq.s 			page 1


   1              		.cpu cortex-m33
   2              		.arch armv8-m.main
   3              		.fpu fpv5-sp-d16
   4              		.arch_extension dsp
   5              		.eabi_attribute 27, 1
   6              		.eabi_attribute 28, 1
   7              		.eabi_attribute 20, 1
   8              		.eabi_attribute 21, 1
   9              		.eabi_attribute 23, 3
  10              		.eabi_attribute 24, 1
  11              		.eabi_attribute 25, 1
  12              		.eabi_attribute 26, 1
  13              		.eabi_attribute 30, 1
  14              		.eabi_attribute 34, 1
  15              		.eabi_attribute 18, 4
  16              		.file	"sx_delay.c"
  17              		.text
  18              	.Ltext0:
  19              		.cfi_sections	.debug_frame
  20              		.file 1 "SynaptiX_FDK/utils/delay/sx_delay.c"
  21              		.section	.text.sx_delay_ms,"ax",%progbits
  22              		.align	1
  23              		.global	sx_delay_ms
  24              		.syntax unified
  25              		.thumb
  26              		.thumb_func
  28              	sx_delay_ms:
  29              	.LVL0:
  30              	.LFB297:
   1:SynaptiX_FDK/utils/delay/sx_delay.c **** #include "sx_delay.h"
   2:SynaptiX_FDK/utils/delay/sx_delay.c **** 
   3:SynaptiX_FDK/utils/delay/sx_delay.c **** #if SX_PLATFORM == SX_PLATFORM_STM32H5
   4:SynaptiX_FDK/utils/delay/sx_delay.c **** #include "stm32h5xx_hal.h"
   5:SynaptiX_FDK/utils/delay/sx_delay.c **** #elif SX_PLATFORM == SX_PLATFORM_STM32H7
   6:SynaptiX_FDK/utils/delay/sx_delay.c **** #include "stm32h7xx_hal.h"
   7:SynaptiX_FDK/utils/delay/sx_delay.c **** #elif SX_PLATFORM == SX_PLATFORM_STM32F7
   8:SynaptiX_FDK/utils/delay/sx_delay.c **** #include "stm32f7xx_hal.h"
   9:SynaptiX_FDK/utils/delay/sx_delay.c **** #elif SX_PLATFORM == SX_PLATFORM_STM32F4
  10:SynaptiX_FDK/utils/delay/sx_delay.c **** #include "stm32f4xx_hal.h"
  11:SynaptiX_FDK/utils/delay/sx_delay.c **** #elif SX_PLATFORM == SX_PLATFORM_STM32F1
  12:SynaptiX_FDK/utils/delay/sx_delay.c **** #include "stm32f1xx_hal.h"
  13:SynaptiX_FDK/utils/delay/sx_delay.c **** #endif
  14:SynaptiX_FDK/utils/delay/sx_delay.c **** 
  15:SynaptiX_FDK/utils/delay/sx_delay.c **** void sx_delay_ms(uint32_t ms)
  16:SynaptiX_FDK/utils/delay/sx_delay.c **** {
  31              		.loc 1 16 1 view -0
  32              		.cfi_startproc
  33              		@ args = 0, pretend = 0, frame = 0
  34              		@ frame_needed = 0, uses_anonymous_args = 0
  35              		.loc 1 16 1 is_stmt 0 view .LVU1
  36 0000 08B5     		push	{r3, lr}
  37              	.LCFI0:
  38              		.cfi_def_cfa_offset 8
  39              		.cfi_offset 3, -8
  40              		.cfi_offset 14, -4
  17:SynaptiX_FDK/utils/delay/sx_delay.c **** #if (SX_USE_OS == 1)
  18:SynaptiX_FDK/utils/delay/sx_delay.c ****     sx_os_msleep(ms);
ARM GAS  C:\Users\DELL\AppData\Local\Temp\ccxg3WYq.s 			page 2


  19:SynaptiX_FDK/utils/delay/sx_delay.c **** #else
  20:SynaptiX_FDK/utils/delay/sx_delay.c **** #if SX_PLATFORM == SX_PLATFORM_STM32H5 || SX_PLATFORM == SX_PLATFORM_STM32H7 || SX_PLATFORM == SX_P
  21:SynaptiX_FDK/utils/delay/sx_delay.c ****     HAL_Delay(ms);
  41              		.loc 1 21 5 is_stmt 1 view .LVU2
  42 0002 FFF7FEFF 		bl	HAL_Delay
  43              	.LVL1:
  22:SynaptiX_FDK/utils/delay/sx_delay.c **** #endif
  23:SynaptiX_FDK/utils/delay/sx_delay.c **** #endif
  24:SynaptiX_FDK/utils/delay/sx_delay.c **** }
  44              		.loc 1 24 1 is_stmt 0 view .LVU3
  45 0006 08BD     		pop	{r3, pc}
  46              		.cfi_endproc
  47              	.LFE297:
  49              		.section	.text.sx_gettick,"ax",%progbits
  50              		.align	1
  51              		.global	sx_gettick
  52              		.syntax unified
  53              		.thumb
  54              		.thumb_func
  56              	sx_gettick:
  57              	.LFB298:
  25:SynaptiX_FDK/utils/delay/sx_delay.c **** uint32_t sx_gettick(void){
  58              		.loc 1 25 26 is_stmt 1 view -0
  59              		.cfi_startproc
  60              		@ args = 0, pretend = 0, frame = 0
  61              		@ frame_needed = 0, uses_anonymous_args = 0
  62 0000 08B5     		push	{r3, lr}
  63              	.LCFI1:
  64              		.cfi_def_cfa_offset 8
  65              		.cfi_offset 3, -8
  66              		.cfi_offset 14, -4
  26:SynaptiX_FDK/utils/delay/sx_delay.c ****     #if SX_PLATFORM == SX_PLATFORM_STM32H5 || SX_PLATFORM == SX_PLATFORM_STM32H7 || SX_PLATFORM == 
  27:SynaptiX_FDK/utils/delay/sx_delay.c ****         return HAL_GetTick();
  67              		.loc 1 27 9 view .LVU5
  68              		.loc 1 27 16 is_stmt 0 view .LVU6
  69 0002 FFF7FEFF 		bl	HAL_GetTick
  70              	.LVL2:
  28:SynaptiX_FDK/utils/delay/sx_delay.c ****     #endif
  29:SynaptiX_FDK/utils/delay/sx_delay.c **** }...
  71              		.loc 1 29 1 view .LVU7
  72 0006 08BD     		pop	{r3, pc}
  73              		.cfi_endproc
  74              	.LFE298:
  76              		.text
  77              	.Letext0:
  78              		.file 2 "D:\\stm32cubeclt\\STM32CubeCLT_1.21.0\\GNU-tools-for-STM32\\bin\\../lib/gcc/arm-none-eabi
  79              		.file 3 "D:\\stm32cubeclt\\STM32CubeCLT_1.21.0\\GNU-tools-for-STM32\\bin\\../lib/gcc/arm-none-eabi
  80              		.file 4 "Drivers/STM32H5xx_HAL_Driver/Inc/stm32h5xx_ll_lptim.h"
  81              		.file 5 "Drivers/STM32H5xx_HAL_Driver/Inc/stm32h5xx_hal.h"
ARM GAS  C:\Users\DELL\AppData\Local\Temp\ccxg3WYq.s 			page 3

