ARM GAS  C:\Users\DELL\AppData\Local\Temp\ccAOPYjL.s 			page 1


   1              		.cpu cortex-m33
   2              		.arch armv8-m.main
   3              		.fpu fpv5-sp-d16
   4              		.arch_extension dsp
   5              		.eabi_attribute 27, 1
   6              		.eabi_attribute 28, 1
   7              		.eabi_attribute 20, 1
   8              		.eabi_attribute 21, 1
   9              		.eabi_attribute 23, 3
  10              		.eabi_attribute 24, 1
  11              		.eabi_attribute 25, 1
  12              		.eabi_attribute 26, 1
  13              		.eabi_attribute 30, 1
  14              		.eabi_attribute 34, 1
  15              		.eabi_attribute 18, 4
  16              		.file	"sx_ex_rtc.c"
  17              		.text
  18              	.Ltext0:
  19              		.cfi_sections	.debug_frame
  20              		.file 1 "SynaptiX_FDK/components/modules/rtc/sx_ex_rtc.c"
  21              		.section	.text.sx_i2c_mem_write,"ax",%progbits
  22              		.align	1
  23              		.syntax unified
  24              		.thumb
  25              		.thumb_func
  27              	sx_i2c_mem_write:
  28              	.LVL0:
  29              	.LFB3:
  30              		.file 2 "SynaptiX_FDK/components/peripherals/i2c/sx_i2c.h"
   1:SynaptiX_FDK/components/peripherals/i2c/sx_i2c.h **** #ifndef SX_I2C_H
   2:SynaptiX_FDK/components/peripherals/i2c/sx_i2c.h **** #define SX_I2C_H
   3:SynaptiX_FDK/components/peripherals/i2c/sx_i2c.h **** #ifdef __cplusplus
   4:SynaptiX_FDK/components/peripherals/i2c/sx_i2c.h **** extern "C" {
   5:SynaptiX_FDK/components/peripherals/i2c/sx_i2c.h **** #endif
   6:SynaptiX_FDK/components/peripherals/i2c/sx_i2c.h **** 
   7:SynaptiX_FDK/components/peripherals/i2c/sx_i2c.h **** #include <stdint.h>
   8:SynaptiX_FDK/components/peripherals/i2c/sx_i2c.h **** 
   9:SynaptiX_FDK/components/peripherals/i2c/sx_i2c.h **** typedef struct sx_i2c sx_i2c_t;
  10:SynaptiX_FDK/components/peripherals/i2c/sx_i2c.h **** 
  11:SynaptiX_FDK/components/peripherals/i2c/sx_i2c.h **** typedef struct sx_i2c_ops{
  12:SynaptiX_FDK/components/peripherals/i2c/sx_i2c.h ****     int (*write)(sx_i2c_t *i2c, uint16_t dev_addr, const uint8_t *data, uint32_t len);
  13:SynaptiX_FDK/components/peripherals/i2c/sx_i2c.h ****     int (*read)(sx_i2c_t *i2c, uint16_t dev_addr, uint8_t *data, uint32_t len);
  14:SynaptiX_FDK/components/peripherals/i2c/sx_i2c.h ****     int (*mem_write)(sx_i2c_t *i2c, uint16_t dev_addr, uint16_t mem_addr, uint16_t mem_addr_size, c
  15:SynaptiX_FDK/components/peripherals/i2c/sx_i2c.h ****     int (*mem_read)(sx_i2c_t *i2c, uint16_t dev_addr, uint16_t mem_addr, uint16_t mem_addr_size, ui
  16:SynaptiX_FDK/components/peripherals/i2c/sx_i2c.h ****     int (*is_device_ready)(sx_i2c_t *i2c, uint16_t dev_addr, uint8_t num_trial, uint32_t timeout);
  17:SynaptiX_FDK/components/peripherals/i2c/sx_i2c.h **** } sx_i2c_ops_t;
  18:SynaptiX_FDK/components/peripherals/i2c/sx_i2c.h **** 
  19:SynaptiX_FDK/components/peripherals/i2c/sx_i2c.h **** struct sx_i2c{
  20:SynaptiX_FDK/components/peripherals/i2c/sx_i2c.h ****     sx_i2c_ops_t *ops;
  21:SynaptiX_FDK/components/peripherals/i2c/sx_i2c.h ****     void *pDriver;
  22:SynaptiX_FDK/components/peripherals/i2c/sx_i2c.h **** };
  23:SynaptiX_FDK/components/peripherals/i2c/sx_i2c.h **** 
  24:SynaptiX_FDK/components/peripherals/i2c/sx_i2c.h **** static inline void sx_i2c_init(sx_i2c_t *i2c, sx_i2c_ops_t *ops, void *pDriver){
  25:SynaptiX_FDK/components/peripherals/i2c/sx_i2c.h ****     i2c->ops = ops;
  26:SynaptiX_FDK/components/peripherals/i2c/sx_i2c.h ****     i2c->pDriver = pDriver;
  27:SynaptiX_FDK/components/peripherals/i2c/sx_i2c.h **** }
  28:SynaptiX_FDK/components/peripherals/i2c/sx_i2c.h **** 
ARM GAS  C:\Users\DELL\AppData\Local\Temp\ccAOPYjL.s 			page 2


  29:SynaptiX_FDK/components/peripherals/i2c/sx_i2c.h **** static inline int sx_i2c_write(sx_i2c_t *i2c, uint16_t dev_addr, const uint8_t *data, uint32_t len)
  30:SynaptiX_FDK/components/peripherals/i2c/sx_i2c.h ****     if(i2c->ops && i2c->ops->write)
  31:SynaptiX_FDK/components/peripherals/i2c/sx_i2c.h ****         return i2c->ops->write(i2c, dev_addr, data, len);
  32:SynaptiX_FDK/components/peripherals/i2c/sx_i2c.h ****     return -1;
  33:SynaptiX_FDK/components/peripherals/i2c/sx_i2c.h **** }
  34:SynaptiX_FDK/components/peripherals/i2c/sx_i2c.h **** 
  35:SynaptiX_FDK/components/peripherals/i2c/sx_i2c.h **** static inline int sx_i2c_read(sx_i2c_t *i2c, uint16_t dev_addr, uint8_t *data, uint32_t len){
  36:SynaptiX_FDK/components/peripherals/i2c/sx_i2c.h ****     if(i2c->ops && i2c->ops->read)
  37:SynaptiX_FDK/components/peripherals/i2c/sx_i2c.h ****         return i2c->ops->read(i2c, dev_addr, data, len);
  38:SynaptiX_FDK/components/peripherals/i2c/sx_i2c.h ****     return -1;
  39:SynaptiX_FDK/components/peripherals/i2c/sx_i2c.h **** }
  40:SynaptiX_FDK/components/peripherals/i2c/sx_i2c.h **** 
  41:SynaptiX_FDK/components/peripherals/i2c/sx_i2c.h **** static inline int sx_i2c_mem_write(sx_i2c_t *i2c, uint16_t dev_addr, uint16_t mem_addr, uint16_t me
  31              		.loc 2 41 147 view -0
  32              		.cfi_startproc
  33              		@ args = 8, pretend = 0, frame = 0
  34              		@ frame_needed = 0, uses_anonymous_args = 0
  35              		.loc 2 41 147 is_stmt 0 view .LVU1
  36 0000 30B5     		push	{r4, r5, lr}
  37              	.LCFI0:
  38              		.cfi_def_cfa_offset 12
  39              		.cfi_offset 4, -12
  40              		.cfi_offset 5, -8
  41              		.cfi_offset 14, -4
  42 0002 83B0     		sub	sp, sp, #12
  43              	.LCFI1:
  44              		.cfi_def_cfa_offset 24
  42:SynaptiX_FDK/components/peripherals/i2c/sx_i2c.h ****     if(i2c->ops && i2c->ops->mem_write)
  45              		.loc 2 42 5 is_stmt 1 view .LVU2
  46              		.loc 2 42 11 is_stmt 0 view .LVU3
  47 0004 0468     		ldr	r4, [r0]
  48              		.loc 2 42 7 view .LVU4
  49 0006 44B1     		cbz	r4, .L3
  50              		.loc 2 42 28 discriminator 1 view .LVU5
  51 0008 A468     		ldr	r4, [r4, #8]
  52              		.loc 2 42 17 discriminator 1 view .LVU6
  53 000a 4CB1     		cbz	r4, .L4
  43:SynaptiX_FDK/components/peripherals/i2c/sx_i2c.h ****         return i2c->ops->mem_write(i2c, dev_addr, mem_addr, mem_addr_size, data, len);
  54              		.loc 2 43 9 is_stmt 1 view .LVU7
  55              		.loc 2 43 16 is_stmt 0 view .LVU8
  56 000c 079D     		ldr	r5, [sp, #28]
  57 000e 0195     		str	r5, [sp, #4]
  58 0010 069D     		ldr	r5, [sp, #24]
  59 0012 0095     		str	r5, [sp]
  60 0014 A047     		blx	r4
  61              	.LVL1:
  62              	.L1:
  44:SynaptiX_FDK/components/peripherals/i2c/sx_i2c.h ****     return -1;
  45:SynaptiX_FDK/components/peripherals/i2c/sx_i2c.h **** }
  63              		.loc 2 45 1 view .LVU9
  64 0016 03B0     		add	sp, sp, #12
  65              	.LCFI2:
  66              		.cfi_remember_state
  67              		.cfi_def_cfa_offset 12
  68              		@ sp needed
  69 0018 30BD     		pop	{r4, r5, pc}
  70              	.LVL2:
ARM GAS  C:\Users\DELL\AppData\Local\Temp\ccAOPYjL.s 			page 3


  71              	.L3:
  72              	.LCFI3:
  73              		.cfi_restore_state
  44:SynaptiX_FDK/components/peripherals/i2c/sx_i2c.h ****     return -1;
  74              		.loc 2 44 12 view .LVU10
  75 001a 4FF0FF30 		mov	r0, #-1
  76              	.LVL3:
  44:SynaptiX_FDK/components/peripherals/i2c/sx_i2c.h ****     return -1;
  77              		.loc 2 44 12 view .LVU11
  78 001e FAE7     		b	.L1
  79              	.LVL4:
  80              	.L4:
  44:SynaptiX_FDK/components/peripherals/i2c/sx_i2c.h ****     return -1;
  81              		.loc 2 44 12 view .LVU12
  82 0020 4FF0FF30 		mov	r0, #-1
  83              	.LVL5:
  44:SynaptiX_FDK/components/peripherals/i2c/sx_i2c.h ****     return -1;
  84              		.loc 2 44 12 view .LVU13
  85 0024 F7E7     		b	.L1
  86              		.cfi_endproc
  87              	.LFE3:
  89              		.section	.text.sx_i2c_mem_read,"ax",%progbits
  90              		.align	1
  91              		.syntax unified
  92              		.thumb
  93              		.thumb_func
  95              	sx_i2c_mem_read:
  96              	.LVL6:
  97              	.LFB4:
  46:SynaptiX_FDK/components/peripherals/i2c/sx_i2c.h **** 
  47:SynaptiX_FDK/components/peripherals/i2c/sx_i2c.h **** static inline int sx_i2c_mem_read(sx_i2c_t *i2c, uint16_t dev_addr, uint16_t mem_addr, uint16_t mem
  98              		.loc 2 47 140 is_stmt 1 view -0
  99              		.cfi_startproc
 100              		@ args = 8, pretend = 0, frame = 0
 101              		@ frame_needed = 0, uses_anonymous_args = 0
 102              		.loc 2 47 140 is_stmt 0 view .LVU15
 103 0000 30B5     		push	{r4, r5, lr}
 104              	.LCFI4:
 105              		.cfi_def_cfa_offset 12
 106              		.cfi_offset 4, -12
 107              		.cfi_offset 5, -8
 108              		.cfi_offset 14, -4
 109 0002 83B0     		sub	sp, sp, #12
 110              	.LCFI5:
 111              		.cfi_def_cfa_offset 24
  48:SynaptiX_FDK/components/peripherals/i2c/sx_i2c.h ****     if(i2c->ops && i2c->ops->mem_read)
 112              		.loc 2 48 5 is_stmt 1 view .LVU16
 113              		.loc 2 48 11 is_stmt 0 view .LVU17
 114 0004 0468     		ldr	r4, [r0]
 115              		.loc 2 48 7 view .LVU18
 116 0006 44B1     		cbz	r4, .L8
 117              		.loc 2 48 28 discriminator 1 view .LVU19
 118 0008 E468     		ldr	r4, [r4, #12]
 119              		.loc 2 48 17 discriminator 1 view .LVU20
 120 000a 4CB1     		cbz	r4, .L9
  49:SynaptiX_FDK/components/peripherals/i2c/sx_i2c.h ****         return i2c->ops->mem_read(i2c, dev_addr, mem_addr, mem_addr_size, data, len);
 121              		.loc 2 49 9 is_stmt 1 view .LVU21
ARM GAS  C:\Users\DELL\AppData\Local\Temp\ccAOPYjL.s 			page 4


 122              		.loc 2 49 16 is_stmt 0 view .LVU22
 123 000c 079D     		ldr	r5, [sp, #28]
 124 000e 0195     		str	r5, [sp, #4]
 125 0010 069D     		ldr	r5, [sp, #24]
 126 0012 0095     		str	r5, [sp]
 127 0014 A047     		blx	r4
 128              	.LVL7:
 129              	.L6:
  50:SynaptiX_FDK/components/peripherals/i2c/sx_i2c.h ****     return -1;
  51:SynaptiX_FDK/components/peripherals/i2c/sx_i2c.h **** }
 130              		.loc 2 51 1 view .LVU23
 131 0016 03B0     		add	sp, sp, #12
 132              	.LCFI6:
 133              		.cfi_remember_state
 134              		.cfi_def_cfa_offset 12
 135              		@ sp needed
 136 0018 30BD     		pop	{r4, r5, pc}
 137              	.LVL8:
 138              	.L8:
 139              	.LCFI7:
 140              		.cfi_restore_state
  50:SynaptiX_FDK/components/peripherals/i2c/sx_i2c.h ****     return -1;
 141              		.loc 2 50 12 view .LVU24
 142 001a 4FF0FF30 		mov	r0, #-1
 143              	.LVL9:
  50:SynaptiX_FDK/components/peripherals/i2c/sx_i2c.h ****     return -1;
 144              		.loc 2 50 12 view .LVU25
 145 001e FAE7     		b	.L6
 146              	.LVL10:
 147              	.L9:
  50:SynaptiX_FDK/components/peripherals/i2c/sx_i2c.h ****     return -1;
 148              		.loc 2 50 12 view .LVU26
 149 0020 4FF0FF30 		mov	r0, #-1
 150              	.LVL11:
  50:SynaptiX_FDK/components/peripherals/i2c/sx_i2c.h ****     return -1;
 151              		.loc 2 50 12 view .LVU27
 152 0024 F7E7     		b	.L6
 153              		.cfi_endproc
 154              	.LFE4:
 156              		.section	.text._reg_write,"ax",%progbits
 157              		.align	1
 158              		.syntax unified
 159              		.thumb
 160              		.thumb_func
 162              	_reg_write:
 163              	.LVL12:
 164              	.LFB9:
   1:SynaptiX_FDK/components/modules/rtc/sx_ex_rtc.c **** #include "sx_ex_rtc.h"
   2:SynaptiX_FDK/components/modules/rtc/sx_ex_rtc.c **** #include "sx_delay.h"   
   3:SynaptiX_FDK/components/modules/rtc/sx_ex_rtc.c **** #include <string.h>
   4:SynaptiX_FDK/components/modules/rtc/sx_ex_rtc.c **** 
   5:SynaptiX_FDK/components/modules/rtc/sx_ex_rtc.c **** /* ------------------------------------------------------------------ */
   6:SynaptiX_FDK/components/modules/rtc/sx_ex_rtc.c **** /*  Internal helpers                                                   */
   7:SynaptiX_FDK/components/modules/rtc/sx_ex_rtc.c **** /* ------------------------------------------------------------------ */
   8:SynaptiX_FDK/components/modules/rtc/sx_ex_rtc.c **** 
   9:SynaptiX_FDK/components/modules/rtc/sx_ex_rtc.c **** static inline uint8_t bcd_to_dec(uint8_t bcd)
  10:SynaptiX_FDK/components/modules/rtc/sx_ex_rtc.c **** {
ARM GAS  C:\Users\DELL\AppData\Local\Temp\ccAOPYjL.s 			page 5


  11:SynaptiX_FDK/components/modules/rtc/sx_ex_rtc.c ****     return (uint8_t)(((bcd >> 4) * 10U) + (bcd & 0x0FU));
  12:SynaptiX_FDK/components/modules/rtc/sx_ex_rtc.c **** }
  13:SynaptiX_FDK/components/modules/rtc/sx_ex_rtc.c **** 
  14:SynaptiX_FDK/components/modules/rtc/sx_ex_rtc.c **** static inline uint8_t dec_to_bcd(uint8_t dec)
  15:SynaptiX_FDK/components/modules/rtc/sx_ex_rtc.c **** {
  16:SynaptiX_FDK/components/modules/rtc/sx_ex_rtc.c ****     return (uint8_t)(((dec / 10U) << 4) | (dec % 10U));
  17:SynaptiX_FDK/components/modules/rtc/sx_ex_rtc.c **** }
  18:SynaptiX_FDK/components/modules/rtc/sx_ex_rtc.c **** 
  19:SynaptiX_FDK/components/modules/rtc/sx_ex_rtc.c **** static int _reg_write(rx8130ce_t *dev, uint8_t reg, uint8_t val)
  20:SynaptiX_FDK/components/modules/rtc/sx_ex_rtc.c **** {
 165              		.loc 1 20 1 is_stmt 1 view -0
 166              		.cfi_startproc
 167              		@ args = 0, pretend = 0, frame = 8
 168              		@ frame_needed = 0, uses_anonymous_args = 0
 169              		.loc 1 20 1 is_stmt 0 view .LVU29
 170 0000 00B5     		push	{lr}
 171              	.LCFI8:
 172              		.cfi_def_cfa_offset 4
 173              		.cfi_offset 14, -4
 174 0002 85B0     		sub	sp, sp, #20
 175              	.LCFI9:
 176              		.cfi_def_cfa_offset 24
 177 0004 8DF80F20 		strb	r2, [sp, #15]
  21:SynaptiX_FDK/components/modules/rtc/sx_ex_rtc.c ****     return sx_i2c_mem_write(dev->i2c,
 178              		.loc 1 21 5 is_stmt 1 view .LVU30
 179              		.loc 1 21 12 is_stmt 0 view .LVU31
 180 0008 0068     		ldr	r0, [r0]
 181              	.LVL13:
 182              		.loc 1 21 12 view .LVU32
 183 000a 0123     		movs	r3, #1
 184 000c 0193     		str	r3, [sp, #4]
 185 000e 0DF10F02 		add	r2, sp, #15
 186              	.LVL14:
 187              		.loc 1 21 12 view .LVU33
 188 0012 0092     		str	r2, [sp]
 189 0014 0A46     		mov	r2, r1
 190              	.LVL15:
 191              		.loc 1 21 12 view .LVU34
 192 0016 6421     		movs	r1, #100
 193              	.LVL16:
 194              		.loc 1 21 12 view .LVU35
 195 0018 FFF7FEFF 		bl	sx_i2c_mem_write
 196              	.LVL17:
  22:SynaptiX_FDK/components/modules/rtc/sx_ex_rtc.c ****                             RX8130CE_ADDR,
  23:SynaptiX_FDK/components/modules/rtc/sx_ex_rtc.c ****                             reg,
  24:SynaptiX_FDK/components/modules/rtc/sx_ex_rtc.c ****                             SX_I2C_MEMADD_SIZE_8BIT,
  25:SynaptiX_FDK/components/modules/rtc/sx_ex_rtc.c ****                             &val, 1);
  26:SynaptiX_FDK/components/modules/rtc/sx_ex_rtc.c **** }
 197              		.loc 1 26 1 view .LVU36
 198 001c 05B0     		add	sp, sp, #20
 199              	.LCFI10:
 200              		.cfi_def_cfa_offset 4
 201              		@ sp needed
 202 001e 00BD     		pop	{pc}
 203              		.cfi_endproc
 204              	.LFE9:
 206              		.section	.text._reg_read,"ax",%progbits
ARM GAS  C:\Users\DELL\AppData\Local\Temp\ccAOPYjL.s 			page 6


 207              		.align	1
 208              		.syntax unified
 209              		.thumb
 210              		.thumb_func
 212              	_reg_read:
 213              	.LVL18:
 214              	.LFB10:
  27:SynaptiX_FDK/components/modules/rtc/sx_ex_rtc.c **** 
  28:SynaptiX_FDK/components/modules/rtc/sx_ex_rtc.c **** static int _reg_read(rx8130ce_t *dev, uint8_t reg, uint8_t *buf, uint32_t len)
  29:SynaptiX_FDK/components/modules/rtc/sx_ex_rtc.c **** {
 215              		.loc 1 29 1 is_stmt 1 view -0
 216              		.cfi_startproc
 217              		@ args = 0, pretend = 0, frame = 0
 218              		@ frame_needed = 0, uses_anonymous_args = 0
 219              		.loc 1 29 1 is_stmt 0 view .LVU38
 220 0000 00B5     		push	{lr}
 221              	.LCFI11:
 222              		.cfi_def_cfa_offset 4
 223              		.cfi_offset 14, -4
 224 0002 83B0     		sub	sp, sp, #12
 225              	.LCFI12:
 226              		.cfi_def_cfa_offset 16
  30:SynaptiX_FDK/components/modules/rtc/sx_ex_rtc.c ****     return sx_i2c_mem_read(dev->i2c,
 227              		.loc 1 30 5 is_stmt 1 view .LVU39
 228              		.loc 1 30 12 is_stmt 0 view .LVU40
 229 0004 0068     		ldr	r0, [r0]
 230              	.LVL19:
 231              		.loc 1 30 12 view .LVU41
 232 0006 0193     		str	r3, [sp, #4]
 233 0008 0092     		str	r2, [sp]
 234 000a 0123     		movs	r3, #1
 235              	.LVL20:
 236              		.loc 1 30 12 view .LVU42
 237 000c 0A46     		mov	r2, r1
 238              	.LVL21:
 239              		.loc 1 30 12 view .LVU43
 240 000e 6421     		movs	r1, #100
 241              	.LVL22:
 242              		.loc 1 30 12 view .LVU44
 243 0010 FFF7FEFF 		bl	sx_i2c_mem_read
 244              	.LVL23:
  31:SynaptiX_FDK/components/modules/rtc/sx_ex_rtc.c ****                            RX8130CE_ADDR,
  32:SynaptiX_FDK/components/modules/rtc/sx_ex_rtc.c ****                            reg,
  33:SynaptiX_FDK/components/modules/rtc/sx_ex_rtc.c ****                            SX_I2C_MEMADD_SIZE_8BIT,
  34:SynaptiX_FDK/components/modules/rtc/sx_ex_rtc.c ****                            buf, len);
  35:SynaptiX_FDK/components/modules/rtc/sx_ex_rtc.c **** }
 245              		.loc 1 35 1 view .LVU45
 246 0014 03B0     		add	sp, sp, #12
 247              	.LCFI13:
 248              		.cfi_def_cfa_offset 4
 249              		@ sp needed
 250 0016 00BD     		pop	{pc}
 251              		.cfi_endproc
 252              	.LFE10:
 254              		.section	.text._software_reset,"ax",%progbits
 255              		.align	1
 256              		.syntax unified
ARM GAS  C:\Users\DELL\AppData\Local\Temp\ccAOPYjL.s 			page 7


 257              		.thumb
 258              		.thumb_func
 260              	_software_reset:
 261              	.LVL24:
 262              	.LFB11:
  36:SynaptiX_FDK/components/modules/rtc/sx_ex_rtc.c **** 
  37:SynaptiX_FDK/components/modules/rtc/sx_ex_rtc.c **** /* ------------------------------------------------------------------ */
  38:SynaptiX_FDK/components/modules/rtc/sx_ex_rtc.c **** /*  Software Reset sequence (datasheet §18.2)                         */
  39:SynaptiX_FDK/components/modules/rtc/sx_ex_rtc.c **** /* ------------------------------------------------------------------ */
  40:SynaptiX_FDK/components/modules/rtc/sx_ex_rtc.c **** 
  41:SynaptiX_FDK/components/modules/rtc/sx_ex_rtc.c **** static int _software_reset(rx8130ce_t *dev)
  42:SynaptiX_FDK/components/modules/rtc/sx_ex_rtc.c **** {
 263              		.loc 1 42 1 is_stmt 1 view -0
 264              		.cfi_startproc
 265              		@ args = 0, pretend = 0, frame = 8
 266              		@ frame_needed = 0, uses_anonymous_args = 0
 267              		.loc 1 42 1 is_stmt 0 view .LVU47
 268 0000 30B5     		push	{r4, r5, lr}
 269              	.LCFI14:
 270              		.cfi_def_cfa_offset 12
 271              		.cfi_offset 4, -12
 272              		.cfi_offset 5, -8
 273              		.cfi_offset 14, -4
 274 0002 83B0     		sub	sp, sp, #12
 275              	.LCFI15:
 276              		.cfi_def_cfa_offset 24
 277 0004 0446     		mov	r4, r0
  43:SynaptiX_FDK/components/modules/rtc/sx_ex_rtc.c ****     uint8_t dummy;
 278              		.loc 1 43 5 is_stmt 1 view .LVU48
  44:SynaptiX_FDK/components/modules/rtc/sx_ex_rtc.c **** 
  45:SynaptiX_FDK/components/modules/rtc/sx_ex_rtc.c ****     /* Steps 4-10 from datasheet software-reset flow */
  46:SynaptiX_FDK/components/modules/rtc/sx_ex_rtc.c ****     if (_reg_write(dev, 0x1E, 0x00) != 0) return RX8130CE_ERR_I2C;
 279              		.loc 1 46 5 view .LVU49
 280              		.loc 1 46 9 is_stmt 0 view .LVU50
 281 0006 0022     		movs	r2, #0
 282 0008 1E21     		movs	r1, #30
 283 000a FFF7FEFF 		bl	_reg_write
 284              	.LVL25:
 285              		.loc 1 46 8 discriminator 1 view .LVU51
 286 000e 88BB     		cbnz	r0, .L17
  47:SynaptiX_FDK/components/modules/rtc/sx_ex_rtc.c ****     if (_reg_write(dev, 0x1E, 0x80) != 0) return RX8130CE_ERR_I2C;
 287              		.loc 1 47 5 is_stmt 1 view .LVU52
 288              		.loc 1 47 9 is_stmt 0 view .LVU53
 289 0010 8022     		movs	r2, #128
 290 0012 1E21     		movs	r1, #30
 291 0014 2046     		mov	r0, r4
 292 0016 FFF7FEFF 		bl	_reg_write
 293              	.LVL26:
 294              		.loc 1 47 8 discriminator 1 view .LVU54
 295 001a 70BB     		cbnz	r0, .L18
  48:SynaptiX_FDK/components/modules/rtc/sx_ex_rtc.c ****     if (_reg_write(dev, 0x50, 0x6C) != 0) return RX8130CE_ERR_I2C;
 296              		.loc 1 48 5 is_stmt 1 view .LVU55
 297              		.loc 1 48 9 is_stmt 0 view .LVU56
 298 001c 6C22     		movs	r2, #108
 299 001e 5021     		movs	r1, #80
 300 0020 2046     		mov	r0, r4
 301 0022 FFF7FEFF 		bl	_reg_write
ARM GAS  C:\Users\DELL\AppData\Local\Temp\ccAOPYjL.s 			page 8


 302              	.LVL27:
 303              		.loc 1 48 8 discriminator 1 view .LVU57
 304 0026 58BB     		cbnz	r0, .L19
  49:SynaptiX_FDK/components/modules/rtc/sx_ex_rtc.c ****     if (_reg_write(dev, 0x53, 0x01) != 0) return RX8130CE_ERR_I2C;
 305              		.loc 1 49 5 is_stmt 1 view .LVU58
 306              		.loc 1 49 9 is_stmt 0 view .LVU59
 307 0028 0122     		movs	r2, #1
 308 002a 5321     		movs	r1, #83
 309 002c 2046     		mov	r0, r4
 310 002e FFF7FEFF 		bl	_reg_write
 311              	.LVL28:
 312              		.loc 1 49 8 discriminator 1 view .LVU60
 313 0032 40BB     		cbnz	r0, .L20
  50:SynaptiX_FDK/components/modules/rtc/sx_ex_rtc.c ****     if (_reg_write(dev, 0x66, 0x03) != 0) return RX8130CE_ERR_I2C;
 314              		.loc 1 50 5 is_stmt 1 view .LVU61
 315              		.loc 1 50 9 is_stmt 0 view .LVU62
 316 0034 0322     		movs	r2, #3
 317 0036 6621     		movs	r1, #102
 318 0038 2046     		mov	r0, r4
 319 003a FFF7FEFF 		bl	_reg_write
 320              	.LVL29:
 321              		.loc 1 50 8 discriminator 1 view .LVU63
 322 003e 28BB     		cbnz	r0, .L21
  51:SynaptiX_FDK/components/modules/rtc/sx_ex_rtc.c ****     if (_reg_write(dev, 0x6B, 0x02) != 0) return RX8130CE_ERR_I2C;
 323              		.loc 1 51 5 is_stmt 1 view .LVU64
 324              		.loc 1 51 9 is_stmt 0 view .LVU65
 325 0040 0222     		movs	r2, #2
 326 0042 6B21     		movs	r1, #107
 327 0044 2046     		mov	r0, r4
 328 0046 FFF7FEFF 		bl	_reg_write
 329              	.LVL30:
 330              		.loc 1 51 8 discriminator 1 view .LVU66
 331 004a 10BB     		cbnz	r0, .L22
  52:SynaptiX_FDK/components/modules/rtc/sx_ex_rtc.c ****     if (_reg_write(dev, 0x6B, 0x01) != 0) return RX8130CE_ERR_I2C;
 332              		.loc 1 52 5 is_stmt 1 view .LVU67
 333              		.loc 1 52 9 is_stmt 0 view .LVU68
 334 004c 0122     		movs	r2, #1
 335 004e 6B21     		movs	r1, #107
 336 0050 2046     		mov	r0, r4
 337 0052 FFF7FEFF 		bl	_reg_write
 338              	.LVL31:
 339              		.loc 1 52 8 discriminator 1 view .LVU69
 340 0056 0546     		mov	r5, r0
 341 0058 F0B9     		cbnz	r0, .L23
  53:SynaptiX_FDK/components/modules/rtc/sx_ex_rtc.c **** 
  54:SynaptiX_FDK/components/modules/rtc/sx_ex_rtc.c ****     /* Step 12: wait 125 ms for reset to complete */
  55:SynaptiX_FDK/components/modules/rtc/sx_ex_rtc.c ****     sx_delay_ms(125);
 342              		.loc 1 55 5 is_stmt 1 view .LVU70
 343 005a 7D20     		movs	r0, #125
 344 005c FFF7FEFF 		bl	sx_delay_ms
 345              	.LVL32:
  56:SynaptiX_FDK/components/modules/rtc/sx_ex_rtc.c **** 
  57:SynaptiX_FDK/components/modules/rtc/sx_ex_rtc.c ****     /* Ignore return — dummy read after reset */
  58:SynaptiX_FDK/components/modules/rtc/sx_ex_rtc.c ****     (void)_reg_read(dev, RX8130CE_REG_FLAG, &dummy, 1);
 346              		.loc 1 58 5 view .LVU71
 347              		.loc 1 58 11 is_stmt 0 view .LVU72
 348 0060 0123     		movs	r3, #1
ARM GAS  C:\Users\DELL\AppData\Local\Temp\ccAOPYjL.s 			page 9


 349 0062 0DF10702 		add	r2, sp, #7
 350 0066 1D21     		movs	r1, #29
 351 0068 2046     		mov	r0, r4
 352 006a FFF7FEFF 		bl	_reg_read
 353              	.LVL33:
  59:SynaptiX_FDK/components/modules/rtc/sx_ex_rtc.c **** 
  60:SynaptiX_FDK/components/modules/rtc/sx_ex_rtc.c ****     return RX8130CE_OK;
 354              		.loc 1 60 5 is_stmt 1 view .LVU73
 355              	.L15:
  61:SynaptiX_FDK/components/modules/rtc/sx_ex_rtc.c **** }
 356              		.loc 1 61 1 is_stmt 0 view .LVU74
 357 006e 2846     		mov	r0, r5
 358 0070 03B0     		add	sp, sp, #12
 359              	.LCFI16:
 360              		.cfi_remember_state
 361              		.cfi_def_cfa_offset 12
 362              		@ sp needed
 363 0072 30BD     		pop	{r4, r5, pc}
 364              	.LVL34:
 365              	.L17:
 366              	.LCFI17:
 367              		.cfi_restore_state
  46:SynaptiX_FDK/components/modules/rtc/sx_ex_rtc.c ****     if (_reg_write(dev, 0x1E, 0x80) != 0) return RX8130CE_ERR_I2C;
 368              		.loc 1 46 50 discriminator 1 view .LVU75
 369 0074 4FF0FF35 		mov	r5, #-1
 370 0078 F9E7     		b	.L15
 371              	.L18:
  47:SynaptiX_FDK/components/modules/rtc/sx_ex_rtc.c ****     if (_reg_write(dev, 0x50, 0x6C) != 0) return RX8130CE_ERR_I2C;
 372              		.loc 1 47 50 discriminator 1 view .LVU76
 373 007a 4FF0FF35 		mov	r5, #-1
 374 007e F6E7     		b	.L15
 375              	.L19:
  48:SynaptiX_FDK/components/modules/rtc/sx_ex_rtc.c ****     if (_reg_write(dev, 0x53, 0x01) != 0) return RX8130CE_ERR_I2C;
 376              		.loc 1 48 50 discriminator 1 view .LVU77
 377 0080 4FF0FF35 		mov	r5, #-1
 378 0084 F3E7     		b	.L15
 379              	.L20:
  49:SynaptiX_FDK/components/modules/rtc/sx_ex_rtc.c ****     if (_reg_write(dev, 0x66, 0x03) != 0) return RX8130CE_ERR_I2C;
 380              		.loc 1 49 50 discriminator 1 view .LVU78
 381 0086 4FF0FF35 		mov	r5, #-1
 382 008a F0E7     		b	.L15
 383              	.L21:
  50:SynaptiX_FDK/components/modules/rtc/sx_ex_rtc.c ****     if (_reg_write(dev, 0x6B, 0x02) != 0) return RX8130CE_ERR_I2C;
 384              		.loc 1 50 50 discriminator 1 view .LVU79
 385 008c 4FF0FF35 		mov	r5, #-1
 386 0090 EDE7     		b	.L15
 387              	.L22:
  51:SynaptiX_FDK/components/modules/rtc/sx_ex_rtc.c ****     if (_reg_write(dev, 0x6B, 0x01) != 0) return RX8130CE_ERR_I2C;
 388              		.loc 1 51 50 discriminator 1 view .LVU80
 389 0092 4FF0FF35 		mov	r5, #-1
 390 0096 EAE7     		b	.L15
 391              	.L23:
  52:SynaptiX_FDK/components/modules/rtc/sx_ex_rtc.c **** 
 392              		.loc 1 52 50 discriminator 1 view .LVU81
 393 0098 4FF0FF35 		mov	r5, #-1
 394 009c E7E7     		b	.L15
 395              		.cfi_endproc
ARM GAS  C:\Users\DELL\AppData\Local\Temp\ccAOPYjL.s 			page 10


 396              	.LFE11:
 398              		.section	.text.rx8130ce_init,"ax",%progbits
 399              		.align	1
 400              		.global	rx8130ce_init
 401              		.syntax unified
 402              		.thumb
 403              		.thumb_func
 405              	rx8130ce_init:
 406              	.LVL35:
 407              	.LFB12:
  62:SynaptiX_FDK/components/modules/rtc/sx_ex_rtc.c **** 
  63:SynaptiX_FDK/components/modules/rtc/sx_ex_rtc.c **** /* ------------------------------------------------------------------ */
  64:SynaptiX_FDK/components/modules/rtc/sx_ex_rtc.c **** /*  Initialisation                                                     */
  65:SynaptiX_FDK/components/modules/rtc/sx_ex_rtc.c **** /* ------------------------------------------------------------------ */
  66:SynaptiX_FDK/components/modules/rtc/sx_ex_rtc.c **** 
  67:SynaptiX_FDK/components/modules/rtc/sx_ex_rtc.c **** int rx8130ce_init(rx8130ce_t *dev, sx_i2c_t *i2c)
  68:SynaptiX_FDK/components/modules/rtc/sx_ex_rtc.c **** {
 408              		.loc 1 68 1 is_stmt 1 view -0
 409              		.cfi_startproc
 410              		@ args = 0, pretend = 0, frame = 8
 411              		@ frame_needed = 0, uses_anonymous_args = 0
  69:SynaptiX_FDK/components/modules/rtc/sx_ex_rtc.c ****     if (!dev || !i2c) return RX8130CE_ERR_PARAM;
 412              		.loc 1 69 5 view .LVU83
 413              		.loc 1 69 8 is_stmt 0 view .LVU84
 414 0000 0028     		cmp	r0, #0
 415 0002 6DD0     		beq	.L28
  68:SynaptiX_FDK/components/modules/rtc/sx_ex_rtc.c ****     if (!dev || !i2c) return RX8130CE_ERR_PARAM;
 416              		.loc 1 68 1 view .LVU85
 417 0004 30B5     		push	{r4, r5, lr}
 418              	.LCFI18:
 419              		.cfi_def_cfa_offset 12
 420              		.cfi_offset 4, -12
 421              		.cfi_offset 5, -8
 422              		.cfi_offset 14, -4
 423 0006 83B0     		sub	sp, sp, #12
 424              	.LCFI19:
 425              		.cfi_def_cfa_offset 24
 426 0008 0446     		mov	r4, r0
 427              		.loc 1 69 14 discriminator 2 view .LVU86
 428 000a 0029     		cmp	r1, #0
 429 000c 6BD0     		beq	.L29
  70:SynaptiX_FDK/components/modules/rtc/sx_ex_rtc.c **** 
  71:SynaptiX_FDK/components/modules/rtc/sx_ex_rtc.c ****     dev->i2c         = i2c;
 430              		.loc 1 71 5 is_stmt 1 view .LVU87
 431              		.loc 1 71 22 is_stmt 0 view .LVU88
 432 000e 0160     		str	r1, [r0]
  72:SynaptiX_FDK/components/modules/rtc/sx_ex_rtc.c ****     dev->initialized = false;
 433              		.loc 1 72 5 is_stmt 1 view .LVU89
 434              		.loc 1 72 22 is_stmt 0 view .LVU90
 435 0010 0025     		movs	r5, #0
 436 0012 0571     		strb	r5, [r0, #4]
  73:SynaptiX_FDK/components/modules/rtc/sx_ex_rtc.c **** 
  74:SynaptiX_FDK/components/modules/rtc/sx_ex_rtc.c ****     /* No power-on GPIO step here — VIO/VDD/VBAT are wired directly to
  75:SynaptiX_FDK/components/modules/rtc/sx_ex_rtc.c ****      * 3.3V on this board (no P-MOSFET switch), so supply is already stable
  76:SynaptiX_FDK/components/modules/rtc/sx_ex_rtc.c ****      * by the time board init reaches this call. Still wait for
  77:SynaptiX_FDK/components/modules/rtc/sx_ex_rtc.c ****      * oscillation start-up, per the datasheet (>= 30 ms after VDD is
  78:SynaptiX_FDK/components/modules/rtc/sx_ex_rtc.c ****      * applied) — this delay is intrinsic to the chip, not to how power was
ARM GAS  C:\Users\DELL\AppData\Local\Temp\ccAOPYjL.s 			page 11


  79:SynaptiX_FDK/components/modules/rtc/sx_ex_rtc.c ****      * turned on. */
  80:SynaptiX_FDK/components/modules/rtc/sx_ex_rtc.c ****     sx_delay_ms(40);
 437              		.loc 1 80 5 is_stmt 1 view .LVU91
 438 0014 2820     		movs	r0, #40
 439              	.LVL36:
 440              		.loc 1 80 5 is_stmt 0 view .LVU92
 441 0016 FFF7FEFF 		bl	sx_delay_ms
 442              	.LVL37:
 443              	.LBB26:
  81:SynaptiX_FDK/components/modules/rtc/sx_ex_rtc.c **** 
  82:SynaptiX_FDK/components/modules/rtc/sx_ex_rtc.c ****     /* 2. Dummy read — ignore ACK/NACK */
  83:SynaptiX_FDK/components/modules/rtc/sx_ex_rtc.c ****     {
  84:SynaptiX_FDK/components/modules/rtc/sx_ex_rtc.c ****         uint8_t dummy;
 444              		.loc 1 84 9 is_stmt 1 view .LVU93
  85:SynaptiX_FDK/components/modules/rtc/sx_ex_rtc.c ****         (void)_reg_read(dev, RX8130CE_REG_FLAG, &dummy, 1);
 445              		.loc 1 85 9 view .LVU94
 446              		.loc 1 85 15 is_stmt 0 view .LVU95
 447 001a 0123     		movs	r3, #1
 448 001c 01AA     		add	r2, sp, #4
 449 001e 1D21     		movs	r1, #29
 450 0020 2046     		mov	r0, r4
 451 0022 FFF7FEFF 		bl	_reg_read
 452              	.LVL38:
 453              	.LBE26:
  86:SynaptiX_FDK/components/modules/rtc/sx_ex_rtc.c ****     }
  87:SynaptiX_FDK/components/modules/rtc/sx_ex_rtc.c **** 
  88:SynaptiX_FDK/components/modules/rtc/sx_ex_rtc.c ****     /* 3. Check VLF bit */
  89:SynaptiX_FDK/components/modules/rtc/sx_ex_rtc.c ****     uint8_t flag = 0;
 454              		.loc 1 89 5 is_stmt 1 view .LVU96
 455              		.loc 1 89 13 is_stmt 0 view .LVU97
 456 0026 8DF80750 		strb	r5, [sp, #7]
  90:SynaptiX_FDK/components/modules/rtc/sx_ex_rtc.c ****     if (_reg_read(dev, RX8130CE_REG_FLAG, &flag, 1) != 0)
 457              		.loc 1 90 5 is_stmt 1 view .LVU98
 458              		.loc 1 90 9 is_stmt 0 view .LVU99
 459 002a 0123     		movs	r3, #1
 460 002c 0DF10702 		add	r2, sp, #7
 461 0030 1D21     		movs	r1, #29
 462 0032 2046     		mov	r0, r4
 463 0034 FFF7FEFF 		bl	_reg_read
 464              	.LVL39:
 465              		.loc 1 90 8 discriminator 1 view .LVU100
 466 0038 0028     		cmp	r0, #0
 467 003a 57D1     		bne	.L30
  91:SynaptiX_FDK/components/modules/rtc/sx_ex_rtc.c ****         return RX8130CE_ERR_I2C;
  92:SynaptiX_FDK/components/modules/rtc/sx_ex_rtc.c **** 
  93:SynaptiX_FDK/components/modules/rtc/sx_ex_rtc.c ****     if (flag & RX8130CE_FLAG_VLF) {
 468              		.loc 1 93 5 is_stmt 1 view .LVU101
 469              		.loc 1 93 14 is_stmt 0 view .LVU102
 470 003c 9DF80730 		ldrb	r3, [sp, #7]	@ zero_extendqisi2
 471              		.loc 1 93 8 view .LVU103
 472 0040 13F0020F 		tst	r3, #2
 473 0044 04D0     		beq	.L27
  94:SynaptiX_FDK/components/modules/rtc/sx_ex_rtc.c ****         /* Oscillation was stopped — perform software reset */
  95:SynaptiX_FDK/components/modules/rtc/sx_ex_rtc.c ****         if (_software_reset(dev) != 0) return RX8130CE_ERR_I2C;
 474              		.loc 1 95 9 is_stmt 1 view .LVU104
 475              		.loc 1 95 13 is_stmt 0 view .LVU105
 476 0046 2046     		mov	r0, r4
ARM GAS  C:\Users\DELL\AppData\Local\Temp\ccAOPYjL.s 			page 12


 477 0048 FFF7FEFF 		bl	_software_reset
 478              	.LVL40:
 479              		.loc 1 95 12 discriminator 1 view .LVU106
 480 004c 0028     		cmp	r0, #0
 481 004e 50D1     		bne	.L31
 482              	.L27:
  96:SynaptiX_FDK/components/modules/rtc/sx_ex_rtc.c ****     }
  97:SynaptiX_FDK/components/modules/rtc/sx_ex_rtc.c **** 
  98:SynaptiX_FDK/components/modules/rtc/sx_ex_rtc.c ****     /* 4. Configure Control Register 1 (0x1F):
  99:SynaptiX_FDK/components/modules/rtc/sx_ex_rtc.c ****      *      INIEN = 1  (power switchover enabled)
 100:SynaptiX_FDK/components/modules/rtc/sx_ex_rtc.c ****      *      CHGEN = 0  (VBAT is hardwired 3.3 V — no charge needed)
 101:SynaptiX_FDK/components/modules/rtc/sx_ex_rtc.c ****      */
 102:SynaptiX_FDK/components/modules/rtc/sx_ex_rtc.c ****     uint8_t ctrl1 = 0;
 483              		.loc 1 102 5 is_stmt 1 view .LVU107
 484              		.loc 1 102 13 is_stmt 0 view .LVU108
 485 0050 0023     		movs	r3, #0
 486 0052 8DF80630 		strb	r3, [sp, #6]
 103:SynaptiX_FDK/components/modules/rtc/sx_ex_rtc.c ****     if (_reg_read(dev, RX8130CE_REG_CTRL1, &ctrl1, 1) != 0)
 487              		.loc 1 103 5 is_stmt 1 view .LVU109
 488              		.loc 1 103 9 is_stmt 0 view .LVU110
 489 0056 0123     		movs	r3, #1
 490 0058 0DF10602 		add	r2, sp, #6
 491 005c 1F21     		movs	r1, #31
 492 005e 2046     		mov	r0, r4
 493 0060 FFF7FEFF 		bl	_reg_read
 494              	.LVL41:
 495              		.loc 1 103 8 discriminator 1 view .LVU111
 496 0064 0028     		cmp	r0, #0
 497 0066 47D1     		bne	.L32
 104:SynaptiX_FDK/components/modules/rtc/sx_ex_rtc.c ****         return RX8130CE_ERR_I2C;
 105:SynaptiX_FDK/components/modules/rtc/sx_ex_rtc.c **** 
 106:SynaptiX_FDK/components/modules/rtc/sx_ex_rtc.c ****     ctrl1 |=  RX8130CE_CTRL1_INIEN;
 498              		.loc 1 106 5 is_stmt 1 view .LVU112
 499              		.loc 1 106 11 is_stmt 0 view .LVU113
 500 0068 9DF80620 		ldrb	r2, [sp, #6]	@ zero_extendqisi2
 501 006c 42F01003 		orr	r3, r2, #16
 502 0070 8DF80630 		strb	r3, [sp, #6]
 107:SynaptiX_FDK/components/modules/rtc/sx_ex_rtc.c ****     ctrl1 &= ~RX8130CE_CTRL1_CHGEN;
 503              		.loc 1 107 5 is_stmt 1 view .LVU114
 504              		.loc 1 107 11 is_stmt 0 view .LVU115
 505 0074 22F02002 		bic	r2, r2, #32
 506 0078 42F01002 		orr	r2, r2, #16
 507 007c 8DF80620 		strb	r2, [sp, #6]
 108:SynaptiX_FDK/components/modules/rtc/sx_ex_rtc.c ****     if (_reg_write(dev, RX8130CE_REG_CTRL1, ctrl1) != 0)
 508              		.loc 1 108 5 is_stmt 1 view .LVU116
 509              		.loc 1 108 9 is_stmt 0 view .LVU117
 510 0080 1F21     		movs	r1, #31
 511 0082 2046     		mov	r0, r4
 512 0084 FFF7FEFF 		bl	_reg_write
 513              	.LVL42:
 514              		.loc 1 108 8 discriminator 1 view .LVU118
 515 0088 C8BB     		cbnz	r0, .L33
 109:SynaptiX_FDK/components/modules/rtc/sx_ex_rtc.c ****         return RX8130CE_ERR_I2C;
 110:SynaptiX_FDK/components/modules/rtc/sx_ex_rtc.c **** 
 111:SynaptiX_FDK/components/modules/rtc/sx_ex_rtc.c ****     /* 5. Configure Control Register 0 (0x1E):
 112:SynaptiX_FDK/components/modules/rtc/sx_ex_rtc.c ****      *      TEST = 0, AIE = 0, TIE = 0, UIE = 0
 113:SynaptiX_FDK/components/modules/rtc/sx_ex_rtc.c ****      *      STOP = 0  (timekeeping running)
ARM GAS  C:\Users\DELL\AppData\Local\Temp\ccAOPYjL.s 			page 13


 114:SynaptiX_FDK/components/modules/rtc/sx_ex_rtc.c ****      */
 115:SynaptiX_FDK/components/modules/rtc/sx_ex_rtc.c ****     if (_reg_write(dev, RX8130CE_REG_CTRL0, 0x00) != 0)
 516              		.loc 1 115 5 is_stmt 1 view .LVU119
 517              		.loc 1 115 9 is_stmt 0 view .LVU120
 518 008a 0022     		movs	r2, #0
 519 008c 1E21     		movs	r1, #30
 520 008e 2046     		mov	r0, r4
 521 0090 FFF7FEFF 		bl	_reg_write
 522              	.LVL43:
 523              		.loc 1 115 8 discriminator 1 view .LVU121
 524 0094 B0BB     		cbnz	r0, .L34
 116:SynaptiX_FDK/components/modules/rtc/sx_ex_rtc.c ****         return RX8130CE_ERR_I2C;
 117:SynaptiX_FDK/components/modules/rtc/sx_ex_rtc.c **** 
 118:SynaptiX_FDK/components/modules/rtc/sx_ex_rtc.c ****     /* 6. Clear TE bit in Extension Register (0x1C) — timer not used */
 119:SynaptiX_FDK/components/modules/rtc/sx_ex_rtc.c ****     uint8_t ext = 0;
 525              		.loc 1 119 5 is_stmt 1 view .LVU122
 526              		.loc 1 119 13 is_stmt 0 view .LVU123
 527 0096 0023     		movs	r3, #0
 528 0098 8DF80530 		strb	r3, [sp, #5]
 120:SynaptiX_FDK/components/modules/rtc/sx_ex_rtc.c ****     if (_reg_read(dev, RX8130CE_REG_EXT, &ext, 1) != 0)
 529              		.loc 1 120 5 is_stmt 1 view .LVU124
 530              		.loc 1 120 9 is_stmt 0 view .LVU125
 531 009c 0123     		movs	r3, #1
 532 009e 0DF10502 		add	r2, sp, #5
 533 00a2 1C21     		movs	r1, #28
 534 00a4 2046     		mov	r0, r4
 535 00a6 FFF7FEFF 		bl	_reg_read
 536              	.LVL44:
 537              		.loc 1 120 8 discriminator 1 view .LVU126
 538 00aa 70BB     		cbnz	r0, .L35
 121:SynaptiX_FDK/components/modules/rtc/sx_ex_rtc.c ****         return RX8130CE_ERR_I2C;
 122:SynaptiX_FDK/components/modules/rtc/sx_ex_rtc.c **** 
 123:SynaptiX_FDK/components/modules/rtc/sx_ex_rtc.c ****     ext &= ~RX8130CE_EXT_TE;
 539              		.loc 1 123 5 is_stmt 1 view .LVU127
 540              		.loc 1 123 9 is_stmt 0 view .LVU128
 541 00ac 9DF80520 		ldrb	r2, [sp, #5]	@ zero_extendqisi2
 542 00b0 02F0EF02 		and	r2, r2, #239
 543 00b4 8DF80520 		strb	r2, [sp, #5]
 124:SynaptiX_FDK/components/modules/rtc/sx_ex_rtc.c ****     if (_reg_write(dev, RX8130CE_REG_EXT, ext) != 0)
 544              		.loc 1 124 5 is_stmt 1 view .LVU129
 545              		.loc 1 124 9 is_stmt 0 view .LVU130
 546 00b8 1C21     		movs	r1, #28
 547 00ba 2046     		mov	r0, r4
 548 00bc FFF7FEFF 		bl	_reg_write
 549              	.LVL45:
 550              		.loc 1 124 8 discriminator 1 view .LVU131
 551 00c0 30BB     		cbnz	r0, .L36
 125:SynaptiX_FDK/components/modules/rtc/sx_ex_rtc.c ****         return RX8130CE_ERR_I2C;
 126:SynaptiX_FDK/components/modules/rtc/sx_ex_rtc.c **** 
 127:SynaptiX_FDK/components/modules/rtc/sx_ex_rtc.c ****     /* 7. Clear VLF bit */
 128:SynaptiX_FDK/components/modules/rtc/sx_ex_rtc.c ****     flag &= ~RX8130CE_FLAG_VLF;
 552              		.loc 1 128 5 is_stmt 1 view .LVU132
 553              		.loc 1 128 10 is_stmt 0 view .LVU133
 554 00c2 9DF80720 		ldrb	r2, [sp, #7]	@ zero_extendqisi2
 555 00c6 02F0FD02 		and	r2, r2, #253
 556 00ca 8DF80720 		strb	r2, [sp, #7]
 129:SynaptiX_FDK/components/modules/rtc/sx_ex_rtc.c ****     if (_reg_write(dev, RX8130CE_REG_FLAG, flag) != 0)
ARM GAS  C:\Users\DELL\AppData\Local\Temp\ccAOPYjL.s 			page 14


 557              		.loc 1 129 5 is_stmt 1 view .LVU134
 558              		.loc 1 129 9 is_stmt 0 view .LVU135
 559 00ce 1D21     		movs	r1, #29
 560 00d0 2046     		mov	r0, r4
 561 00d2 FFF7FEFF 		bl	_reg_write
 562              	.LVL46:
 563              		.loc 1 129 8 discriminator 1 view .LVU136
 564 00d6 F0B9     		cbnz	r0, .L37
 130:SynaptiX_FDK/components/modules/rtc/sx_ex_rtc.c ****         return RX8130CE_ERR_I2C;
 131:SynaptiX_FDK/components/modules/rtc/sx_ex_rtc.c **** 
 132:SynaptiX_FDK/components/modules/rtc/sx_ex_rtc.c ****     dev->initialized = true;
 565              		.loc 1 132 5 is_stmt 1 view .LVU137
 566              		.loc 1 132 22 is_stmt 0 view .LVU138
 567 00d8 0123     		movs	r3, #1
 568 00da 2371     		strb	r3, [r4, #4]
 133:SynaptiX_FDK/components/modules/rtc/sx_ex_rtc.c ****     return RX8130CE_OK;
 569              		.loc 1 133 5 is_stmt 1 view .LVU139
 570              	.L25:
 134:SynaptiX_FDK/components/modules/rtc/sx_ex_rtc.c **** }
 571              		.loc 1 134 1 is_stmt 0 view .LVU140
 572 00dc 03B0     		add	sp, sp, #12
 573              	.LCFI20:
 574              		.cfi_def_cfa_offset 12
 575              		@ sp needed
 576 00de 30BD     		pop	{r4, r5, pc}
 577              	.LVL47:
 578              	.L28:
 579              	.LCFI21:
 580              		.cfi_def_cfa_offset 0
 581              		.cfi_restore 4
 582              		.cfi_restore 5
 583              		.cfi_restore 14
  69:SynaptiX_FDK/components/modules/rtc/sx_ex_rtc.c **** 
 584              		.loc 1 69 30 discriminator 3 view .LVU141
 585 00e0 6FF00200 		mvn	r0, #2
 586              	.LVL48:
 587              		.loc 1 134 1 view .LVU142
 588 00e4 7047     		bx	lr
 589              	.LVL49:
 590              	.L29:
 591              	.LCFI22:
 592              		.cfi_def_cfa_offset 24
 593              		.cfi_offset 4, -12
 594              		.cfi_offset 5, -8
 595              		.cfi_offset 14, -4
  69:SynaptiX_FDK/components/modules/rtc/sx_ex_rtc.c **** 
 596              		.loc 1 69 30 discriminator 3 view .LVU143
 597 00e6 6FF00200 		mvn	r0, #2
 598              	.LVL50:
  69:SynaptiX_FDK/components/modules/rtc/sx_ex_rtc.c **** 
 599              		.loc 1 69 30 discriminator 3 view .LVU144
 600 00ea F7E7     		b	.L25
 601              	.LVL51:
 602              	.L30:
  91:SynaptiX_FDK/components/modules/rtc/sx_ex_rtc.c **** 
 603              		.loc 1 91 16 view .LVU145
 604 00ec 4FF0FF30 		mov	r0, #-1
ARM GAS  C:\Users\DELL\AppData\Local\Temp\ccAOPYjL.s 			page 15


 605 00f0 F4E7     		b	.L25
 606              	.L31:
  95:SynaptiX_FDK/components/modules/rtc/sx_ex_rtc.c ****     }
 607              		.loc 1 95 47 discriminator 1 view .LVU146
 608 00f2 4FF0FF30 		mov	r0, #-1
 609 00f6 F1E7     		b	.L25
 610              	.L32:
 104:SynaptiX_FDK/components/modules/rtc/sx_ex_rtc.c **** 
 611              		.loc 1 104 16 view .LVU147
 612 00f8 4FF0FF30 		mov	r0, #-1
 613 00fc EEE7     		b	.L25
 614              	.L33:
 109:SynaptiX_FDK/components/modules/rtc/sx_ex_rtc.c **** 
 615              		.loc 1 109 16 view .LVU148
 616 00fe 4FF0FF30 		mov	r0, #-1
 617 0102 EBE7     		b	.L25
 618              	.L34:
 116:SynaptiX_FDK/components/modules/rtc/sx_ex_rtc.c **** 
 619              		.loc 1 116 16 view .LVU149
 620 0104 4FF0FF30 		mov	r0, #-1
 621 0108 E8E7     		b	.L25
 622              	.L35:
 121:SynaptiX_FDK/components/modules/rtc/sx_ex_rtc.c **** 
 623              		.loc 1 121 16 view .LVU150
 624 010a 4FF0FF30 		mov	r0, #-1
 625 010e E5E7     		b	.L25
 626              	.L36:
 125:SynaptiX_FDK/components/modules/rtc/sx_ex_rtc.c **** 
 627              		.loc 1 125 16 view .LVU151
 628 0110 4FF0FF30 		mov	r0, #-1
 629 0114 E2E7     		b	.L25
 630              	.L37:
 130:SynaptiX_FDK/components/modules/rtc/sx_ex_rtc.c **** 
 631              		.loc 1 130 16 view .LVU152
 632 0116 4FF0FF30 		mov	r0, #-1
 633 011a DFE7     		b	.L25
 634              		.cfi_endproc
 635              	.LFE12:
 637              		.section	.text.rx8130ce_set_time,"ax",%progbits
 638              		.align	1
 639              		.global	rx8130ce_set_time
 640              		.syntax unified
 641              		.thumb
 642              		.thumb_func
 644              	rx8130ce_set_time:
 645              	.LVL52:
 646              	.LFB13:
 135:SynaptiX_FDK/components/modules/rtc/sx_ex_rtc.c **** 
 136:SynaptiX_FDK/components/modules/rtc/sx_ex_rtc.c **** /* ------------------------------------------------------------------ */
 137:SynaptiX_FDK/components/modules/rtc/sx_ex_rtc.c **** /*  Set time                                                           */
 138:SynaptiX_FDK/components/modules/rtc/sx_ex_rtc.c **** /* ------------------------------------------------------------------ */
 139:SynaptiX_FDK/components/modules/rtc/sx_ex_rtc.c **** 
 140:SynaptiX_FDK/components/modules/rtc/sx_ex_rtc.c **** int rx8130ce_set_time(rx8130ce_t *dev, const rx8130ce_time_t *t)
 141:SynaptiX_FDK/components/modules/rtc/sx_ex_rtc.c **** {
 647              		.loc 1 141 1 is_stmt 1 view -0
 648              		.cfi_startproc
 649              		@ args = 0, pretend = 0, frame = 8
ARM GAS  C:\Users\DELL\AppData\Local\Temp\ccAOPYjL.s 			page 16


 650              		@ frame_needed = 0, uses_anonymous_args = 0
 651              		.loc 1 141 1 is_stmt 0 view .LVU154
 652 0000 30B5     		push	{r4, r5, lr}
 653              	.LCFI23:
 654              		.cfi_def_cfa_offset 12
 655              		.cfi_offset 4, -12
 656              		.cfi_offset 5, -8
 657              		.cfi_offset 14, -4
 658 0002 85B0     		sub	sp, sp, #20
 659              	.LCFI24:
 660              		.cfi_def_cfa_offset 32
 142:SynaptiX_FDK/components/modules/rtc/sx_ex_rtc.c ****     if (!dev || !t)                return RX8130CE_ERR_PARAM;
 661              		.loc 1 142 5 is_stmt 1 view .LVU155
 662              		.loc 1 142 8 is_stmt 0 view .LVU156
 663 0004 0028     		cmp	r0, #0
 664 0006 00F0B180 		beq	.L44
 665 000a 0C46     		mov	r4, r1
 666 000c 0546     		mov	r5, r0
 667              		.loc 1 142 14 discriminator 2 view .LVU157
 668 000e 0029     		cmp	r1, #0
 669 0010 00F0AF80 		beq	.L45
 143:SynaptiX_FDK/components/modules/rtc/sx_ex_rtc.c ****     if (!dev->initialized)         return RX8130CE_ERR_NOT_INIT;
 670              		.loc 1 143 5 is_stmt 1 view .LVU158
 671              		.loc 1 143 13 is_stmt 0 view .LVU159
 672 0014 0379     		ldrb	r3, [r0, #4]	@ zero_extendqisi2
 673              		.loc 1 143 8 view .LVU160
 674 0016 002B     		cmp	r3, #0
 675 0018 00F0AE80 		beq	.L46
 144:SynaptiX_FDK/components/modules/rtc/sx_ex_rtc.c **** 
 145:SynaptiX_FDK/components/modules/rtc/sx_ex_rtc.c ****     /* Validate ranges */
 146:SynaptiX_FDK/components/modules/rtc/sx_ex_rtc.c ****     if (t->sec   > 59 || t->min   > 59 || t->hour > 23 ||
 676              		.loc 1 146 5 is_stmt 1 view .LVU161
 677              		.loc 1 146 10 is_stmt 0 view .LVU162
 678 001c 0B78     		ldrb	r3, [r1]	@ zero_extendqisi2
 679              		.loc 1 146 8 view .LVU163
 680 001e 3B2B     		cmp	r3, #59
 681 0020 00F2AD80 		bhi	.L47
 682              		.loc 1 146 27 discriminator 1 view .LVU164
 683 0024 4B78     		ldrb	r3, [r1, #1]	@ zero_extendqisi2
 684              		.loc 1 146 23 discriminator 1 view .LVU165
 685 0026 3B2B     		cmp	r3, #59
 686 0028 00F2AC80 		bhi	.L48
 687              		.loc 1 146 44 discriminator 2 view .LVU166
 688 002c 8B78     		ldrb	r3, [r1, #2]	@ zero_extendqisi2
 689              		.loc 1 146 40 discriminator 2 view .LVU167
 690 002e 172B     		cmp	r3, #23
 691 0030 00F2AB80 		bhi	.L49
 147:SynaptiX_FDK/components/modules/rtc/sx_ex_rtc.c ****         t->day   < 1  || t->day   > 31 ||
 692              		.loc 1 147 10 view .LVU168
 693 0034 0B79     		ldrb	r3, [r1, #4]	@ zero_extendqisi2
 146:SynaptiX_FDK/components/modules/rtc/sx_ex_rtc.c ****         t->day   < 1  || t->day   > 31 ||
 694              		.loc 1 146 56 discriminator 3 view .LVU169
 695 0036 002B     		cmp	r3, #0
 696 0038 00F0AA80 		beq	.L50
 697              		.loc 1 147 23 view .LVU170
 698 003c 1F2B     		cmp	r3, #31
 699 003e 00F2AA80 		bhi	.L51
ARM GAS  C:\Users\DELL\AppData\Local\Temp\ccAOPYjL.s 			page 17


 148:SynaptiX_FDK/components/modules/rtc/sx_ex_rtc.c ****         t->month < 1  || t->month > 12 || t->year  > 99)
 700              		.loc 1 148 10 view .LVU171
 701 0042 4B79     		ldrb	r3, [r1, #5]	@ zero_extendqisi2
 147:SynaptiX_FDK/components/modules/rtc/sx_ex_rtc.c ****         t->day   < 1  || t->day   > 31 ||
 702              		.loc 1 147 40 discriminator 1 view .LVU172
 703 0044 002B     		cmp	r3, #0
 704 0046 00F0A980 		beq	.L52
 705              		.loc 1 148 23 view .LVU173
 706 004a 0C2B     		cmp	r3, #12
 707 004c 00F2A980 		bhi	.L53
 708              		.loc 1 148 44 discriminator 1 view .LVU174
 709 0050 8B79     		ldrb	r3, [r1, #6]	@ zero_extendqisi2
 710              		.loc 1 148 40 discriminator 1 view .LVU175
 711 0052 632B     		cmp	r3, #99
 712 0054 00F2A880 		bhi	.L54
 149:SynaptiX_FDK/components/modules/rtc/sx_ex_rtc.c ****         return RX8130CE_ERR_PARAM;
 150:SynaptiX_FDK/components/modules/rtc/sx_ex_rtc.c **** 
 151:SynaptiX_FDK/components/modules/rtc/sx_ex_rtc.c ****     /* Set STOP = 1 to freeze counters during write */
 152:SynaptiX_FDK/components/modules/rtc/sx_ex_rtc.c ****     uint8_t ctrl0 = 0;
 713              		.loc 1 152 5 is_stmt 1 view .LVU176
 714              		.loc 1 152 13 is_stmt 0 view .LVU177
 715 0058 0023     		movs	r3, #0
 716 005a 8DF80F30 		strb	r3, [sp, #15]
 153:SynaptiX_FDK/components/modules/rtc/sx_ex_rtc.c ****     if (_reg_read(dev, RX8130CE_REG_CTRL0, &ctrl0, 1) != 0)
 717              		.loc 1 153 5 is_stmt 1 view .LVU178
 718              		.loc 1 153 9 is_stmt 0 view .LVU179
 719 005e 0123     		movs	r3, #1
 720 0060 0DF10F02 		add	r2, sp, #15
 721 0064 1E21     		movs	r1, #30
 722              	.LVL53:
 723              		.loc 1 153 9 view .LVU180
 724 0066 FFF7FEFF 		bl	_reg_read
 725              	.LVL54:
 726              		.loc 1 153 8 discriminator 1 view .LVU181
 727 006a 0028     		cmp	r0, #0
 728 006c 40F09F80 		bne	.L55
 154:SynaptiX_FDK/components/modules/rtc/sx_ex_rtc.c ****         return RX8130CE_ERR_I2C;
 155:SynaptiX_FDK/components/modules/rtc/sx_ex_rtc.c ****     ctrl0 |= RX8130CE_CTRL0_STOP;
 729              		.loc 1 155 5 is_stmt 1 view .LVU182
 730              		.loc 1 155 11 is_stmt 0 view .LVU183
 731 0070 9DF80F20 		ldrb	r2, [sp, #15]	@ zero_extendqisi2
 732 0074 42F04002 		orr	r2, r2, #64
 733 0078 8DF80F20 		strb	r2, [sp, #15]
 156:SynaptiX_FDK/components/modules/rtc/sx_ex_rtc.c ****     if (_reg_write(dev, RX8130CE_REG_CTRL0, ctrl0) != 0)
 734              		.loc 1 156 5 is_stmt 1 view .LVU184
 735              		.loc 1 156 9 is_stmt 0 view .LVU185
 736 007c 1E21     		movs	r1, #30
 737 007e 2846     		mov	r0, r5
 738 0080 FFF7FEFF 		bl	_reg_write
 739              	.LVL55:
 740              		.loc 1 156 8 discriminator 1 view .LVU186
 741 0084 0028     		cmp	r0, #0
 742 0086 40F09580 		bne	.L56
 157:SynaptiX_FDK/components/modules/rtc/sx_ex_rtc.c ****         return RX8130CE_ERR_I2C;
 158:SynaptiX_FDK/components/modules/rtc/sx_ex_rtc.c **** 
 159:SynaptiX_FDK/components/modules/rtc/sx_ex_rtc.c ****     /* Write 7 consecutive registers starting at REG_SEC */
 160:SynaptiX_FDK/components/modules/rtc/sx_ex_rtc.c ****     uint8_t buf[7];
ARM GAS  C:\Users\DELL\AppData\Local\Temp\ccAOPYjL.s 			page 18


 743              		.loc 1 160 5 is_stmt 1 view .LVU187
 161:SynaptiX_FDK/components/modules/rtc/sx_ex_rtc.c ****     buf[0] = dec_to_bcd(t->sec);
 744              		.loc 1 161 5 view .LVU188
 745              		.loc 1 161 26 is_stmt 0 view .LVU189
 746 008a 2078     		ldrb	r0, [r4]	@ zero_extendqisi2
 747              	.LVL56:
 748              	.LBB27:
 749              	.LBI27:
  14:SynaptiX_FDK/components/modules/rtc/sx_ex_rtc.c **** {
 750              		.loc 1 14 23 is_stmt 1 view .LVU190
 751              	.LBB28:
  16:SynaptiX_FDK/components/modules/rtc/sx_ex_rtc.c **** }
 752              		.loc 1 16 5 view .LVU191
  16:SynaptiX_FDK/components/modules/rtc/sx_ex_rtc.c **** }
 753              		.loc 1 16 35 is_stmt 0 view .LVU192
 754 008c 4C4B     		ldr	r3, .L60
 755 008e A3FB0012 		umull	r1, r2, r3, r0
 756 0092 D208     		lsrs	r2, r2, #3
 757 0094 1101     		lsls	r1, r2, #4
 758 0096 C9B2     		uxtb	r1, r1
  16:SynaptiX_FDK/components/modules/rtc/sx_ex_rtc.c **** }
 759              		.loc 1 16 12 view .LVU193
 760 0098 02EB8202 		add	r2, r2, r2, lsl #2
 761 009c A0EB4200 		sub	r0, r0, r2, lsl #1
 762              	.LVL57:
  16:SynaptiX_FDK/components/modules/rtc/sx_ex_rtc.c **** }
 763              		.loc 1 16 12 view .LVU194
 764 00a0 41EA0002 		orr	r2, r1, r0
 765              	.LVL58:
  16:SynaptiX_FDK/components/modules/rtc/sx_ex_rtc.c **** }
 766              		.loc 1 16 12 view .LVU195
 767              	.LBE28:
 768              	.LBE27:
 769              		.loc 1 161 12 discriminator 1 view .LVU196
 770 00a4 8DF80820 		strb	r2, [sp, #8]
 162:SynaptiX_FDK/components/modules/rtc/sx_ex_rtc.c ****     buf[1] = dec_to_bcd(t->min);
 771              		.loc 1 162 5 is_stmt 1 view .LVU197
 772              		.loc 1 162 26 is_stmt 0 view .LVU198
 773 00a8 6078     		ldrb	r0, [r4, #1]	@ zero_extendqisi2
 774              	.LVL59:
 775              	.LBB29:
 776              	.LBI29:
  14:SynaptiX_FDK/components/modules/rtc/sx_ex_rtc.c **** {
 777              		.loc 1 14 23 is_stmt 1 view .LVU199
 778              	.LBB30:
  16:SynaptiX_FDK/components/modules/rtc/sx_ex_rtc.c **** }
 779              		.loc 1 16 5 view .LVU200
  16:SynaptiX_FDK/components/modules/rtc/sx_ex_rtc.c **** }
 780              		.loc 1 16 35 is_stmt 0 view .LVU201
 781 00aa A3FB0012 		umull	r1, r2, r3, r0
 782 00ae D208     		lsrs	r2, r2, #3
 783 00b0 1101     		lsls	r1, r2, #4
 784 00b2 C9B2     		uxtb	r1, r1
  16:SynaptiX_FDK/components/modules/rtc/sx_ex_rtc.c **** }
 785              		.loc 1 16 12 view .LVU202
 786 00b4 02EB8202 		add	r2, r2, r2, lsl #2
 787 00b8 A0EB4200 		sub	r0, r0, r2, lsl #1
ARM GAS  C:\Users\DELL\AppData\Local\Temp\ccAOPYjL.s 			page 19


 788              	.LVL60:
  16:SynaptiX_FDK/components/modules/rtc/sx_ex_rtc.c **** }
 789              		.loc 1 16 12 view .LVU203
 790 00bc 41EA0002 		orr	r2, r1, r0
 791              	.LVL61:
  16:SynaptiX_FDK/components/modules/rtc/sx_ex_rtc.c **** }
 792              		.loc 1 16 12 view .LVU204
 793              	.LBE30:
 794              	.LBE29:
 795              		.loc 1 162 12 discriminator 1 view .LVU205
 796 00c0 8DF80920 		strb	r2, [sp, #9]
 163:SynaptiX_FDK/components/modules/rtc/sx_ex_rtc.c ****     buf[2] = dec_to_bcd(t->hour);
 797              		.loc 1 163 5 is_stmt 1 view .LVU206
 798              		.loc 1 163 26 is_stmt 0 view .LVU207
 799 00c4 A078     		ldrb	r0, [r4, #2]	@ zero_extendqisi2
 800              	.LVL62:
 801              	.LBB31:
 802              	.LBI31:
  14:SynaptiX_FDK/components/modules/rtc/sx_ex_rtc.c **** {
 803              		.loc 1 14 23 is_stmt 1 view .LVU208
 804              	.LBB32:
  16:SynaptiX_FDK/components/modules/rtc/sx_ex_rtc.c **** }
 805              		.loc 1 16 5 view .LVU209
  16:SynaptiX_FDK/components/modules/rtc/sx_ex_rtc.c **** }
 806              		.loc 1 16 35 is_stmt 0 view .LVU210
 807 00c6 A3FB0012 		umull	r1, r2, r3, r0
 808 00ca D208     		lsrs	r2, r2, #3
 809 00cc 1101     		lsls	r1, r2, #4
 810 00ce C9B2     		uxtb	r1, r1
  16:SynaptiX_FDK/components/modules/rtc/sx_ex_rtc.c **** }
 811              		.loc 1 16 12 view .LVU211
 812 00d0 02EB8202 		add	r2, r2, r2, lsl #2
 813 00d4 A0EB4200 		sub	r0, r0, r2, lsl #1
 814              	.LVL63:
  16:SynaptiX_FDK/components/modules/rtc/sx_ex_rtc.c **** }
 815              		.loc 1 16 12 view .LVU212
 816 00d8 41EA0002 		orr	r2, r1, r0
 817              	.LVL64:
  16:SynaptiX_FDK/components/modules/rtc/sx_ex_rtc.c **** }
 818              		.loc 1 16 12 view .LVU213
 819              	.LBE32:
 820              	.LBE31:
 821              		.loc 1 163 12 discriminator 1 view .LVU214
 822 00dc 8DF80A20 		strb	r2, [sp, #10]
 164:SynaptiX_FDK/components/modules/rtc/sx_ex_rtc.c ****     buf[3] = t->week;                   /* already a bitmask, not BCD */
 823              		.loc 1 164 5 is_stmt 1 view .LVU215
 824              		.loc 1 164 15 is_stmt 0 view .LVU216
 825 00e0 E278     		ldrb	r2, [r4, #3]	@ zero_extendqisi2
 826              		.loc 1 164 12 view .LVU217
 827 00e2 8DF80B20 		strb	r2, [sp, #11]
 165:SynaptiX_FDK/components/modules/rtc/sx_ex_rtc.c ****     buf[4] = dec_to_bcd(t->day);
 828              		.loc 1 165 5 is_stmt 1 view .LVU218
 829              		.loc 1 165 26 is_stmt 0 view .LVU219
 830 00e6 2079     		ldrb	r0, [r4, #4]	@ zero_extendqisi2
 831              	.LVL65:
 832              	.LBB33:
 833              	.LBI33:
ARM GAS  C:\Users\DELL\AppData\Local\Temp\ccAOPYjL.s 			page 20


  14:SynaptiX_FDK/components/modules/rtc/sx_ex_rtc.c **** {
 834              		.loc 1 14 23 is_stmt 1 view .LVU220
 835              	.LBB34:
  16:SynaptiX_FDK/components/modules/rtc/sx_ex_rtc.c **** }
 836              		.loc 1 16 5 view .LVU221
  16:SynaptiX_FDK/components/modules/rtc/sx_ex_rtc.c **** }
 837              		.loc 1 16 35 is_stmt 0 view .LVU222
 838 00e8 A3FB0012 		umull	r1, r2, r3, r0
 839 00ec D208     		lsrs	r2, r2, #3
 840 00ee 1101     		lsls	r1, r2, #4
 841 00f0 C9B2     		uxtb	r1, r1
  16:SynaptiX_FDK/components/modules/rtc/sx_ex_rtc.c **** }
 842              		.loc 1 16 12 view .LVU223
 843 00f2 02EB8202 		add	r2, r2, r2, lsl #2
 844 00f6 A0EB4200 		sub	r0, r0, r2, lsl #1
 845              	.LVL66:
  16:SynaptiX_FDK/components/modules/rtc/sx_ex_rtc.c **** }
 846              		.loc 1 16 12 view .LVU224
 847 00fa 41EA0002 		orr	r2, r1, r0
 848              	.LVL67:
  16:SynaptiX_FDK/components/modules/rtc/sx_ex_rtc.c **** }
 849              		.loc 1 16 12 view .LVU225
 850              	.LBE34:
 851              	.LBE33:
 852              		.loc 1 165 12 discriminator 1 view .LVU226
 853 00fe 8DF80C20 		strb	r2, [sp, #12]
 166:SynaptiX_FDK/components/modules/rtc/sx_ex_rtc.c ****     buf[5] = dec_to_bcd(t->month);
 854              		.loc 1 166 5 is_stmt 1 view .LVU227
 855              		.loc 1 166 26 is_stmt 0 view .LVU228
 856 0102 6079     		ldrb	r0, [r4, #5]	@ zero_extendqisi2
 857              	.LVL68:
 858              	.LBB35:
 859              	.LBI35:
  14:SynaptiX_FDK/components/modules/rtc/sx_ex_rtc.c **** {
 860              		.loc 1 14 23 is_stmt 1 view .LVU229
 861              	.LBB36:
  16:SynaptiX_FDK/components/modules/rtc/sx_ex_rtc.c **** }
 862              		.loc 1 16 5 view .LVU230
  16:SynaptiX_FDK/components/modules/rtc/sx_ex_rtc.c **** }
 863              		.loc 1 16 35 is_stmt 0 view .LVU231
 864 0104 A3FB0012 		umull	r1, r2, r3, r0
 865 0108 D208     		lsrs	r2, r2, #3
 866 010a 1101     		lsls	r1, r2, #4
 867 010c C9B2     		uxtb	r1, r1
  16:SynaptiX_FDK/components/modules/rtc/sx_ex_rtc.c **** }
 868              		.loc 1 16 12 view .LVU232
 869 010e 02EB8202 		add	r2, r2, r2, lsl #2
 870 0112 A0EB4200 		sub	r0, r0, r2, lsl #1
 871              	.LVL69:
  16:SynaptiX_FDK/components/modules/rtc/sx_ex_rtc.c **** }
 872              		.loc 1 16 12 view .LVU233
 873 0116 41EA0002 		orr	r2, r1, r0
 874              	.LVL70:
  16:SynaptiX_FDK/components/modules/rtc/sx_ex_rtc.c **** }
 875              		.loc 1 16 12 view .LVU234
 876              	.LBE36:
 877              	.LBE35:
ARM GAS  C:\Users\DELL\AppData\Local\Temp\ccAOPYjL.s 			page 21


 878              		.loc 1 166 12 discriminator 1 view .LVU235
 879 011a 8DF80D20 		strb	r2, [sp, #13]
 167:SynaptiX_FDK/components/modules/rtc/sx_ex_rtc.c ****     buf[6] = dec_to_bcd(t->year);
 880              		.loc 1 167 5 is_stmt 1 view .LVU236
 881              		.loc 1 167 26 is_stmt 0 view .LVU237
 882 011e A179     		ldrb	r1, [r4, #6]	@ zero_extendqisi2
 883              	.LVL71:
 884              	.LBB37:
 885              	.LBI37:
  14:SynaptiX_FDK/components/modules/rtc/sx_ex_rtc.c **** {
 886              		.loc 1 14 23 is_stmt 1 view .LVU238
 887              	.LBB38:
  16:SynaptiX_FDK/components/modules/rtc/sx_ex_rtc.c **** }
 888              		.loc 1 16 5 view .LVU239
  16:SynaptiX_FDK/components/modules/rtc/sx_ex_rtc.c **** }
 889              		.loc 1 16 35 is_stmt 0 view .LVU240
 890 0120 A3FB0123 		umull	r2, r3, r3, r1
 891 0124 DB08     		lsrs	r3, r3, #3
 892 0126 1A01     		lsls	r2, r3, #4
 893 0128 D2B2     		uxtb	r2, r2
  16:SynaptiX_FDK/components/modules/rtc/sx_ex_rtc.c **** }
 894              		.loc 1 16 12 view .LVU241
 895 012a 03EB8303 		add	r3, r3, r3, lsl #2
 896 012e A1EB4301 		sub	r1, r1, r3, lsl #1
 897              	.LVL72:
  16:SynaptiX_FDK/components/modules/rtc/sx_ex_rtc.c **** }
 898              		.loc 1 16 12 view .LVU242
 899 0132 42EA0103 		orr	r3, r2, r1
 900              	.LVL73:
  16:SynaptiX_FDK/components/modules/rtc/sx_ex_rtc.c **** }
 901              		.loc 1 16 12 view .LVU243
 902              	.LBE38:
 903              	.LBE37:
 904              		.loc 1 167 12 discriminator 1 view .LVU244
 905 0136 8DF80E30 		strb	r3, [sp, #14]
 168:SynaptiX_FDK/components/modules/rtc/sx_ex_rtc.c **** 
 169:SynaptiX_FDK/components/modules/rtc/sx_ex_rtc.c ****     int ret = sx_i2c_mem_write(dev->i2c,
 906              		.loc 1 169 5 is_stmt 1 view .LVU245
 907              		.loc 1 169 15 is_stmt 0 view .LVU246
 908 013a 0723     		movs	r3, #7
 909 013c 0193     		str	r3, [sp, #4]
 910 013e 02AB     		add	r3, sp, #8
 911 0140 0093     		str	r3, [sp]
 912 0142 0123     		movs	r3, #1
 913 0144 1022     		movs	r2, #16
 914 0146 6421     		movs	r1, #100
 915 0148 2868     		ldr	r0, [r5]
 916 014a FFF7FEFF 		bl	sx_i2c_mem_write
 917              	.LVL74:
 918 014e 0446     		mov	r4, r0
 919              	.LVL75:
 170:SynaptiX_FDK/components/modules/rtc/sx_ex_rtc.c ****                                RX8130CE_ADDR,
 171:SynaptiX_FDK/components/modules/rtc/sx_ex_rtc.c ****                                RX8130CE_REG_SEC,
 172:SynaptiX_FDK/components/modules/rtc/sx_ex_rtc.c ****                                SX_I2C_MEMADD_SIZE_8BIT,
 173:SynaptiX_FDK/components/modules/rtc/sx_ex_rtc.c ****                                buf, 7);
 174:SynaptiX_FDK/components/modules/rtc/sx_ex_rtc.c **** 
 175:SynaptiX_FDK/components/modules/rtc/sx_ex_rtc.c ****     /* Clear STOP = 0 (restart clock) regardless of write result */
ARM GAS  C:\Users\DELL\AppData\Local\Temp\ccAOPYjL.s 			page 22


 176:SynaptiX_FDK/components/modules/rtc/sx_ex_rtc.c ****     ctrl0 &= ~RX8130CE_CTRL0_STOP;
 920              		.loc 1 176 5 is_stmt 1 view .LVU247
 921              		.loc 1 176 11 is_stmt 0 view .LVU248
 922 0150 9DF80F20 		ldrb	r2, [sp, #15]	@ zero_extendqisi2
 923 0154 02F0BF02 		and	r2, r2, #191
 924 0158 8DF80F20 		strb	r2, [sp, #15]
 177:SynaptiX_FDK/components/modules/rtc/sx_ex_rtc.c ****     (void)_reg_write(dev, RX8130CE_REG_CTRL0, ctrl0);
 925              		.loc 1 177 5 is_stmt 1 view .LVU249
 926              		.loc 1 177 11 is_stmt 0 view .LVU250
 927 015c 1E21     		movs	r1, #30
 928 015e 2846     		mov	r0, r5
 929              	.LVL76:
 930              		.loc 1 177 11 view .LVU251
 931 0160 FFF7FEFF 		bl	_reg_write
 932              	.LVL77:
 178:SynaptiX_FDK/components/modules/rtc/sx_ex_rtc.c **** 
 179:SynaptiX_FDK/components/modules/rtc/sx_ex_rtc.c ****     return (ret == 0) ? RX8130CE_OK : RX8130CE_ERR_I2C;
 933              		.loc 1 179 5 is_stmt 1 view .LVU252
 934              		.loc 1 179 37 is_stmt 0 view .LVU253
 935 0164 4CBB     		cbnz	r4, .L59
 936              	.LVL78:
 937              	.L42:
 180:SynaptiX_FDK/components/modules/rtc/sx_ex_rtc.c **** }
 938              		.loc 1 180 1 view .LVU254
 939 0166 2046     		mov	r0, r4
 940 0168 05B0     		add	sp, sp, #20
 941              	.LCFI25:
 942              		.cfi_remember_state
 943              		.cfi_def_cfa_offset 12
 944              		@ sp needed
 945 016a 30BD     		pop	{r4, r5, pc}
 946              	.LVL79:
 947              	.L44:
 948              	.LCFI26:
 949              		.cfi_restore_state
 142:SynaptiX_FDK/components/modules/rtc/sx_ex_rtc.c ****     if (!dev->initialized)         return RX8130CE_ERR_NOT_INIT;
 950              		.loc 1 142 43 discriminator 3 view .LVU255
 951 016c 6FF00204 		mvn	r4, #2
 952 0170 F9E7     		b	.L42
 953              	.L45:
 142:SynaptiX_FDK/components/modules/rtc/sx_ex_rtc.c ****     if (!dev->initialized)         return RX8130CE_ERR_NOT_INIT;
 954              		.loc 1 142 43 discriminator 3 view .LVU256
 955 0172 6FF00204 		mvn	r4, #2
 956 0176 F6E7     		b	.L42
 957              	.L46:
 143:SynaptiX_FDK/components/modules/rtc/sx_ex_rtc.c **** 
 958              		.loc 1 143 43 discriminator 1 view .LVU257
 959 0178 6FF00104 		mvn	r4, #1
 960 017c F3E7     		b	.L42
 961              	.L47:
 149:SynaptiX_FDK/components/modules/rtc/sx_ex_rtc.c **** 
 962              		.loc 1 149 16 view .LVU258
 963 017e 6FF00204 		mvn	r4, #2
 964 0182 F0E7     		b	.L42
 965              	.L48:
 149:SynaptiX_FDK/components/modules/rtc/sx_ex_rtc.c **** 
 966              		.loc 1 149 16 view .LVU259
ARM GAS  C:\Users\DELL\AppData\Local\Temp\ccAOPYjL.s 			page 23


 967 0184 6FF00204 		mvn	r4, #2
 968 0188 EDE7     		b	.L42
 969              	.L49:
 149:SynaptiX_FDK/components/modules/rtc/sx_ex_rtc.c **** 
 970              		.loc 1 149 16 view .LVU260
 971 018a 6FF00204 		mvn	r4, #2
 972 018e EAE7     		b	.L42
 973              	.L50:
 149:SynaptiX_FDK/components/modules/rtc/sx_ex_rtc.c **** 
 974              		.loc 1 149 16 view .LVU261
 975 0190 6FF00204 		mvn	r4, #2
 976 0194 E7E7     		b	.L42
 977              	.L51:
 149:SynaptiX_FDK/components/modules/rtc/sx_ex_rtc.c **** 
 978              		.loc 1 149 16 view .LVU262
 979 0196 6FF00204 		mvn	r4, #2
 980 019a E4E7     		b	.L42
 981              	.L52:
 149:SynaptiX_FDK/components/modules/rtc/sx_ex_rtc.c **** 
 982              		.loc 1 149 16 view .LVU263
 983 019c 6FF00204 		mvn	r4, #2
 984 01a0 E1E7     		b	.L42
 985              	.L53:
 149:SynaptiX_FDK/components/modules/rtc/sx_ex_rtc.c **** 
 986              		.loc 1 149 16 view .LVU264
 987 01a2 6FF00204 		mvn	r4, #2
 988 01a6 DEE7     		b	.L42
 989              	.L54:
 149:SynaptiX_FDK/components/modules/rtc/sx_ex_rtc.c **** 
 990              		.loc 1 149 16 view .LVU265
 991 01a8 6FF00204 		mvn	r4, #2
 992 01ac DBE7     		b	.L42
 993              	.LVL80:
 994              	.L55:
 154:SynaptiX_FDK/components/modules/rtc/sx_ex_rtc.c ****     ctrl0 |= RX8130CE_CTRL0_STOP;
 995              		.loc 1 154 16 view .LVU266
 996 01ae 4FF0FF34 		mov	r4, #-1
 997              	.LVL81:
 154:SynaptiX_FDK/components/modules/rtc/sx_ex_rtc.c ****     ctrl0 |= RX8130CE_CTRL0_STOP;
 998              		.loc 1 154 16 view .LVU267
 999 01b2 D8E7     		b	.L42
 1000              	.LVL82:
 1001              	.L56:
 157:SynaptiX_FDK/components/modules/rtc/sx_ex_rtc.c **** 
 1002              		.loc 1 157 16 view .LVU268
 1003 01b4 4FF0FF34 		mov	r4, #-1
 1004              	.LVL83:
 157:SynaptiX_FDK/components/modules/rtc/sx_ex_rtc.c **** 
 1005              		.loc 1 157 16 view .LVU269
 1006 01b8 D5E7     		b	.L42
 1007              	.LVL84:
 1008              	.L59:
 179:SynaptiX_FDK/components/modules/rtc/sx_ex_rtc.c **** }
 1009              		.loc 1 179 37 discriminator 2 view .LVU270
 1010 01ba 4FF0FF34 		mov	r4, #-1
 1011              	.LVL85:
 179:SynaptiX_FDK/components/modules/rtc/sx_ex_rtc.c **** }
ARM GAS  C:\Users\DELL\AppData\Local\Temp\ccAOPYjL.s 			page 24


 1012              		.loc 1 179 37 discriminator 2 view .LVU271
 1013 01be D2E7     		b	.L42
 1014              	.L61:
 1015              		.align	2
 1016              	.L60:
 1017 01c0 CDCCCCCC 		.word	-858993459
 1018              		.cfi_endproc
 1019              	.LFE13:
 1021              		.section	.text.rx8130ce_get_time,"ax",%progbits
 1022              		.align	1
 1023              		.global	rx8130ce_get_time
 1024              		.syntax unified
 1025              		.thumb
 1026              		.thumb_func
 1028              	rx8130ce_get_time:
 1029              	.LVL86:
 1030              	.LFB14:
 181:SynaptiX_FDK/components/modules/rtc/sx_ex_rtc.c **** 
 182:SynaptiX_FDK/components/modules/rtc/sx_ex_rtc.c **** /* ------------------------------------------------------------------ */
 183:SynaptiX_FDK/components/modules/rtc/sx_ex_rtc.c **** /*  Get time                                                           */
 184:SynaptiX_FDK/components/modules/rtc/sx_ex_rtc.c **** /* ------------------------------------------------------------------ */
 185:SynaptiX_FDK/components/modules/rtc/sx_ex_rtc.c **** 
 186:SynaptiX_FDK/components/modules/rtc/sx_ex_rtc.c **** int rx8130ce_get_time(rx8130ce_t *dev, rx8130ce_time_t *t)
 187:SynaptiX_FDK/components/modules/rtc/sx_ex_rtc.c **** {
 1031              		.loc 1 187 1 is_stmt 1 view -0
 1032              		.cfi_startproc
 1033              		@ args = 0, pretend = 0, frame = 8
 1034              		@ frame_needed = 0, uses_anonymous_args = 0
 188:SynaptiX_FDK/components/modules/rtc/sx_ex_rtc.c ****     if (!dev || !t)        return RX8130CE_ERR_PARAM;
 1035              		.loc 1 188 5 view .LVU273
 1036              		.loc 1 188 8 is_stmt 0 view .LVU274
 1037 0000 0028     		cmp	r0, #0
 1038 0002 60D0     		beq	.L64
 187:SynaptiX_FDK/components/modules/rtc/sx_ex_rtc.c ****     if (!dev || !t)        return RX8130CE_ERR_PARAM;
 1039              		.loc 1 187 1 view .LVU275
 1040 0004 10B5     		push	{r4, lr}
 1041              	.LCFI27:
 1042              		.cfi_def_cfa_offset 8
 1043              		.cfi_offset 4, -8
 1044              		.cfi_offset 14, -4
 1045 0006 84B0     		sub	sp, sp, #16
 1046              	.LCFI28:
 1047              		.cfi_def_cfa_offset 24
 1048 0008 0C46     		mov	r4, r1
 1049              		.loc 1 188 14 discriminator 2 view .LVU276
 1050 000a 0029     		cmp	r1, #0
 1051 000c 5ED0     		beq	.L65
 189:SynaptiX_FDK/components/modules/rtc/sx_ex_rtc.c ****     if (!dev->initialized) return RX8130CE_ERR_NOT_INIT;
 1052              		.loc 1 189 5 is_stmt 1 view .LVU277
 1053              		.loc 1 189 13 is_stmt 0 view .LVU278
 1054 000e 0379     		ldrb	r3, [r0, #4]	@ zero_extendqisi2
 1055              		.loc 1 189 8 view .LVU279
 1056 0010 002B     		cmp	r3, #0
 1057 0012 5ED0     		beq	.L66
 190:SynaptiX_FDK/components/modules/rtc/sx_ex_rtc.c **** 
 191:SynaptiX_FDK/components/modules/rtc/sx_ex_rtc.c ****     uint8_t buf[7];
 1058              		.loc 1 191 5 is_stmt 1 view .LVU280
ARM GAS  C:\Users\DELL\AppData\Local\Temp\ccAOPYjL.s 			page 25


 192:SynaptiX_FDK/components/modules/rtc/sx_ex_rtc.c ****     if (sx_i2c_mem_read(dev->i2c,
 1059              		.loc 1 192 5 view .LVU281
 1060              		.loc 1 192 9 is_stmt 0 view .LVU282
 1061 0014 0723     		movs	r3, #7
 1062 0016 0193     		str	r3, [sp, #4]
 1063 0018 02AB     		add	r3, sp, #8
 1064 001a 0093     		str	r3, [sp]
 1065 001c 0123     		movs	r3, #1
 1066 001e 1022     		movs	r2, #16
 1067 0020 6421     		movs	r1, #100
 1068              	.LVL87:
 1069              		.loc 1 192 9 view .LVU283
 1070 0022 0068     		ldr	r0, [r0]
 1071              	.LVL88:
 1072              		.loc 1 192 9 view .LVU284
 1073 0024 FFF7FEFF 		bl	sx_i2c_mem_read
 1074              	.LVL89:
 1075              		.loc 1 192 8 discriminator 1 view .LVU285
 1076 0028 0028     		cmp	r0, #0
 1077 002a 55D1     		bne	.L67
 193:SynaptiX_FDK/components/modules/rtc/sx_ex_rtc.c ****                         RX8130CE_ADDR,
 194:SynaptiX_FDK/components/modules/rtc/sx_ex_rtc.c ****                         RX8130CE_REG_SEC,
 195:SynaptiX_FDK/components/modules/rtc/sx_ex_rtc.c ****                         SX_I2C_MEMADD_SIZE_8BIT,
 196:SynaptiX_FDK/components/modules/rtc/sx_ex_rtc.c ****                         buf, 7) != 0)
 197:SynaptiX_FDK/components/modules/rtc/sx_ex_rtc.c ****         return RX8130CE_ERR_I2C;
 198:SynaptiX_FDK/components/modules/rtc/sx_ex_rtc.c **** 
 199:SynaptiX_FDK/components/modules/rtc/sx_ex_rtc.c ****     /* Mask unused bits before BCD conversion (datasheet table 12) */
 200:SynaptiX_FDK/components/modules/rtc/sx_ex_rtc.c ****     t->sec   = bcd_to_dec(buf[0] & 0x7F);
 1078              		.loc 1 200 5 is_stmt 1 view .LVU286
 1079              		.loc 1 200 30 is_stmt 0 view .LVU287
 1080 002c 9DF80820 		ldrb	r2, [sp, #8]	@ zero_extendqisi2
 1081              	.LVL90:
 1082              	.LBB39:
 1083              	.LBI39:
   9:SynaptiX_FDK/components/modules/rtc/sx_ex_rtc.c **** {
 1084              		.loc 1 9 23 is_stmt 1 view .LVU288
 1085              	.LBB40:
  11:SynaptiX_FDK/components/modules/rtc/sx_ex_rtc.c **** }
 1086              		.loc 1 11 5 view .LVU289
  11:SynaptiX_FDK/components/modules/rtc/sx_ex_rtc.c **** }
 1087              		.loc 1 11 34 is_stmt 0 view .LVU290
 1088 0030 C2F30213 		ubfx	r3, r2, #4, #3
 1089 0034 03EB8303 		add	r3, r3, r3, lsl #2
 1090 0038 5B00     		lsls	r3, r3, #1
 1091 003a DBB2     		uxtb	r3, r3
  11:SynaptiX_FDK/components/modules/rtc/sx_ex_rtc.c **** }
 1092              		.loc 1 11 48 view .LVU291
 1093 003c 02F00F02 		and	r2, r2, #15
 1094              	.LVL91:
  11:SynaptiX_FDK/components/modules/rtc/sx_ex_rtc.c **** }
 1095              		.loc 1 11 12 view .LVU292
 1096 0040 1344     		add	r3, r3, r2
 1097              	.LVL92:
  11:SynaptiX_FDK/components/modules/rtc/sx_ex_rtc.c **** }
 1098              		.loc 1 11 12 view .LVU293
 1099              	.LBE40:
 1100              	.LBE39:
ARM GAS  C:\Users\DELL\AppData\Local\Temp\ccAOPYjL.s 			page 26


 1101              		.loc 1 200 14 discriminator 1 view .LVU294
 1102 0042 2370     		strb	r3, [r4]
 201:SynaptiX_FDK/components/modules/rtc/sx_ex_rtc.c ****     t->min   = bcd_to_dec(buf[1] & 0x7F);
 1103              		.loc 1 201 5 is_stmt 1 view .LVU295
 1104              		.loc 1 201 30 is_stmt 0 view .LVU296
 1105 0044 9DF80920 		ldrb	r2, [sp, #9]	@ zero_extendqisi2
 1106              	.LVL93:
 1107              	.LBB41:
 1108              	.LBI41:
   9:SynaptiX_FDK/components/modules/rtc/sx_ex_rtc.c **** {
 1109              		.loc 1 9 23 is_stmt 1 view .LVU297
 1110              	.LBB42:
  11:SynaptiX_FDK/components/modules/rtc/sx_ex_rtc.c **** }
 1111              		.loc 1 11 5 view .LVU298
  11:SynaptiX_FDK/components/modules/rtc/sx_ex_rtc.c **** }
 1112              		.loc 1 11 34 is_stmt 0 view .LVU299
 1113 0048 C2F30213 		ubfx	r3, r2, #4, #3
 1114 004c 03EB8303 		add	r3, r3, r3, lsl #2
 1115 0050 5B00     		lsls	r3, r3, #1
 1116 0052 DBB2     		uxtb	r3, r3
  11:SynaptiX_FDK/components/modules/rtc/sx_ex_rtc.c **** }
 1117              		.loc 1 11 48 view .LVU300
 1118 0054 02F00F02 		and	r2, r2, #15
 1119              	.LVL94:
  11:SynaptiX_FDK/components/modules/rtc/sx_ex_rtc.c **** }
 1120              		.loc 1 11 12 view .LVU301
 1121 0058 1344     		add	r3, r3, r2
 1122              	.LVL95:
  11:SynaptiX_FDK/components/modules/rtc/sx_ex_rtc.c **** }
 1123              		.loc 1 11 12 view .LVU302
 1124              	.LBE42:
 1125              	.LBE41:
 1126              		.loc 1 201 14 discriminator 1 view .LVU303
 1127 005a 6370     		strb	r3, [r4, #1]
 202:SynaptiX_FDK/components/modules/rtc/sx_ex_rtc.c ****     t->hour  = bcd_to_dec(buf[2] & 0x3F);
 1128              		.loc 1 202 5 is_stmt 1 view .LVU304
 1129              		.loc 1 202 30 is_stmt 0 view .LVU305
 1130 005c 9DF80A20 		ldrb	r2, [sp, #10]	@ zero_extendqisi2
 1131              	.LVL96:
 1132              	.LBB43:
 1133              	.LBI43:
   9:SynaptiX_FDK/components/modules/rtc/sx_ex_rtc.c **** {
 1134              		.loc 1 9 23 is_stmt 1 view .LVU306
 1135              	.LBB44:
  11:SynaptiX_FDK/components/modules/rtc/sx_ex_rtc.c **** }
 1136              		.loc 1 11 5 view .LVU307
  11:SynaptiX_FDK/components/modules/rtc/sx_ex_rtc.c **** }
 1137              		.loc 1 11 34 is_stmt 0 view .LVU308
 1138 0060 C2F30113 		ubfx	r3, r2, #4, #2
 1139 0064 03EB8303 		add	r3, r3, r3, lsl #2
 1140 0068 5B00     		lsls	r3, r3, #1
 1141 006a DBB2     		uxtb	r3, r3
  11:SynaptiX_FDK/components/modules/rtc/sx_ex_rtc.c **** }
 1142              		.loc 1 11 48 view .LVU309
 1143 006c 02F00F02 		and	r2, r2, #15
 1144              	.LVL97:
  11:SynaptiX_FDK/components/modules/rtc/sx_ex_rtc.c **** }
ARM GAS  C:\Users\DELL\AppData\Local\Temp\ccAOPYjL.s 			page 27


 1145              		.loc 1 11 12 view .LVU310
 1146 0070 1344     		add	r3, r3, r2
 1147              	.LVL98:
  11:SynaptiX_FDK/components/modules/rtc/sx_ex_rtc.c **** }
 1148              		.loc 1 11 12 view .LVU311
 1149              	.LBE44:
 1150              	.LBE43:
 1151              		.loc 1 202 14 discriminator 1 view .LVU312
 1152 0072 A370     		strb	r3, [r4, #2]
 203:SynaptiX_FDK/components/modules/rtc/sx_ex_rtc.c ****     t->week  = buf[3] & 0x7F;           /* bitmask, not BCD          */
 1153              		.loc 1 203 5 is_stmt 1 view .LVU313
 1154              		.loc 1 203 19 is_stmt 0 view .LVU314
 1155 0074 9DF80B30 		ldrb	r3, [sp, #11]	@ zero_extendqisi2
 1156              		.loc 1 203 23 view .LVU315
 1157 0078 03F07F03 		and	r3, r3, #127
 1158              		.loc 1 203 14 view .LVU316
 1159 007c E370     		strb	r3, [r4, #3]
 204:SynaptiX_FDK/components/modules/rtc/sx_ex_rtc.c ****     t->day   = bcd_to_dec(buf[4] & 0x3F);
 1160              		.loc 1 204 5 is_stmt 1 view .LVU317
 1161              		.loc 1 204 30 is_stmt 0 view .LVU318
 1162 007e 9DF80C20 		ldrb	r2, [sp, #12]	@ zero_extendqisi2
 1163              	.LVL99:
 1164              	.LBB45:
 1165              	.LBI45:
   9:SynaptiX_FDK/components/modules/rtc/sx_ex_rtc.c **** {
 1166              		.loc 1 9 23 is_stmt 1 view .LVU319
 1167              	.LBB46:
  11:SynaptiX_FDK/components/modules/rtc/sx_ex_rtc.c **** }
 1168              		.loc 1 11 5 view .LVU320
  11:SynaptiX_FDK/components/modules/rtc/sx_ex_rtc.c **** }
 1169              		.loc 1 11 34 is_stmt 0 view .LVU321
 1170 0082 C2F30113 		ubfx	r3, r2, #4, #2
 1171 0086 03EB8303 		add	r3, r3, r3, lsl #2
 1172 008a 5B00     		lsls	r3, r3, #1
 1173 008c DBB2     		uxtb	r3, r3
  11:SynaptiX_FDK/components/modules/rtc/sx_ex_rtc.c **** }
 1174              		.loc 1 11 48 view .LVU322
 1175 008e 02F00F02 		and	r2, r2, #15
 1176              	.LVL100:
  11:SynaptiX_FDK/components/modules/rtc/sx_ex_rtc.c **** }
 1177              		.loc 1 11 12 view .LVU323
 1178 0092 1344     		add	r3, r3, r2
 1179              	.LVL101:
  11:SynaptiX_FDK/components/modules/rtc/sx_ex_rtc.c **** }
 1180              		.loc 1 11 12 view .LVU324
 1181              	.LBE46:
 1182              	.LBE45:
 1183              		.loc 1 204 14 discriminator 1 view .LVU325
 1184 0094 2371     		strb	r3, [r4, #4]
 205:SynaptiX_FDK/components/modules/rtc/sx_ex_rtc.c ****     t->month = bcd_to_dec(buf[5] & 0x1F);
 1185              		.loc 1 205 5 is_stmt 1 view .LVU326
 1186              		.loc 1 205 30 is_stmt 0 view .LVU327
 1187 0096 9DF80D20 		ldrb	r2, [sp, #13]	@ zero_extendqisi2
 1188              	.LVL102:
 1189              	.LBB47:
 1190              	.LBI47:
   9:SynaptiX_FDK/components/modules/rtc/sx_ex_rtc.c **** {
ARM GAS  C:\Users\DELL\AppData\Local\Temp\ccAOPYjL.s 			page 28


 1191              		.loc 1 9 23 is_stmt 1 view .LVU328
 1192              	.LBB48:
  11:SynaptiX_FDK/components/modules/rtc/sx_ex_rtc.c **** }
 1193              		.loc 1 11 5 view .LVU329
  11:SynaptiX_FDK/components/modules/rtc/sx_ex_rtc.c **** }
 1194              		.loc 1 11 34 is_stmt 0 view .LVU330
 1195 009a C2F30013 		ubfx	r3, r2, #4, #1
 1196 009e 03EB8303 		add	r3, r3, r3, lsl #2
 1197 00a2 5B00     		lsls	r3, r3, #1
 1198 00a4 DBB2     		uxtb	r3, r3
  11:SynaptiX_FDK/components/modules/rtc/sx_ex_rtc.c **** }
 1199              		.loc 1 11 48 view .LVU331
 1200 00a6 02F00F02 		and	r2, r2, #15
 1201              	.LVL103:
  11:SynaptiX_FDK/components/modules/rtc/sx_ex_rtc.c **** }
 1202              		.loc 1 11 12 view .LVU332
 1203 00aa 1344     		add	r3, r3, r2
 1204              	.LVL104:
  11:SynaptiX_FDK/components/modules/rtc/sx_ex_rtc.c **** }
 1205              		.loc 1 11 12 view .LVU333
 1206              	.LBE48:
 1207              	.LBE47:
 1208              		.loc 1 205 14 discriminator 1 view .LVU334
 1209 00ac 6371     		strb	r3, [r4, #5]
 206:SynaptiX_FDK/components/modules/rtc/sx_ex_rtc.c ****     t->year  = bcd_to_dec(buf[6]);
 1210              		.loc 1 206 5 is_stmt 1 view .LVU335
 1211              		.loc 1 206 16 is_stmt 0 view .LVU336
 1212 00ae 9DF80E30 		ldrb	r3, [sp, #14]	@ zero_extendqisi2
 1213              	.LVL105:
 1214              	.LBB49:
 1215              	.LBI49:
   9:SynaptiX_FDK/components/modules/rtc/sx_ex_rtc.c **** {
 1216              		.loc 1 9 23 is_stmt 1 view .LVU337
 1217              	.LBB50:
  11:SynaptiX_FDK/components/modules/rtc/sx_ex_rtc.c **** }
 1218              		.loc 1 11 5 view .LVU338
  11:SynaptiX_FDK/components/modules/rtc/sx_ex_rtc.c **** }
 1219              		.loc 1 11 34 is_stmt 0 view .LVU339
 1220 00b2 1A09     		lsrs	r2, r3, #4
 1221 00b4 02EB8202 		add	r2, r2, r2, lsl #2
  11:SynaptiX_FDK/components/modules/rtc/sx_ex_rtc.c **** }
 1222              		.loc 1 11 48 view .LVU340
 1223 00b8 03F00F03 		and	r3, r3, #15
 1224              	.LVL106:
  11:SynaptiX_FDK/components/modules/rtc/sx_ex_rtc.c **** }
 1225              		.loc 1 11 12 view .LVU341
 1226 00bc 03EB4203 		add	r3, r3, r2, lsl #1
 1227              	.LVL107:
  11:SynaptiX_FDK/components/modules/rtc/sx_ex_rtc.c **** }
 1228              		.loc 1 11 12 view .LVU342
 1229              	.LBE50:
 1230              	.LBE49:
 1231              		.loc 1 206 14 discriminator 1 view .LVU343
 1232 00c0 A371     		strb	r3, [r4, #6]
 207:SynaptiX_FDK/components/modules/rtc/sx_ex_rtc.c **** 
 208:SynaptiX_FDK/components/modules/rtc/sx_ex_rtc.c ****     return RX8130CE_OK;
 1233              		.loc 1 208 5 is_stmt 1 view .LVU344
ARM GAS  C:\Users\DELL\AppData\Local\Temp\ccAOPYjL.s 			page 29


 1234              	.L62:
 209:SynaptiX_FDK/components/modules/rtc/sx_ex_rtc.c **** }
 1235              		.loc 1 209 1 is_stmt 0 view .LVU345
 1236 00c2 04B0     		add	sp, sp, #16
 1237              	.LCFI29:
 1238              		.cfi_def_cfa_offset 8
 1239              		@ sp needed
 1240 00c4 10BD     		pop	{r4, pc}
 1241              	.LVL108:
 1242              	.L64:
 1243              	.LCFI30:
 1244              		.cfi_def_cfa_offset 0
 1245              		.cfi_restore 4
 1246              		.cfi_restore 14
 188:SynaptiX_FDK/components/modules/rtc/sx_ex_rtc.c ****     if (!dev->initialized) return RX8130CE_ERR_NOT_INIT;
 1247              		.loc 1 188 35 discriminator 3 view .LVU346
 1248 00c6 6FF00200 		mvn	r0, #2
 1249              	.LVL109:
 1250              		.loc 1 209 1 view .LVU347
 1251 00ca 7047     		bx	lr
 1252              	.LVL110:
 1253              	.L65:
 1254              	.LCFI31:
 1255              		.cfi_def_cfa_offset 24
 1256              		.cfi_offset 4, -8
 1257              		.cfi_offset 14, -4
 188:SynaptiX_FDK/components/modules/rtc/sx_ex_rtc.c ****     if (!dev->initialized) return RX8130CE_ERR_NOT_INIT;
 1258              		.loc 1 188 35 discriminator 3 view .LVU348
 1259 00cc 6FF00200 		mvn	r0, #2
 1260              	.LVL111:
 188:SynaptiX_FDK/components/modules/rtc/sx_ex_rtc.c ****     if (!dev->initialized) return RX8130CE_ERR_NOT_INIT;
 1261              		.loc 1 188 35 discriminator 3 view .LVU349
 1262 00d0 F7E7     		b	.L62
 1263              	.LVL112:
 1264              	.L66:
 189:SynaptiX_FDK/components/modules/rtc/sx_ex_rtc.c **** 
 1265              		.loc 1 189 35 discriminator 1 view .LVU350
 1266 00d2 6FF00100 		mvn	r0, #1
 1267              	.LVL113:
 189:SynaptiX_FDK/components/modules/rtc/sx_ex_rtc.c **** 
 1268              		.loc 1 189 35 discriminator 1 view .LVU351
 1269 00d6 F4E7     		b	.L62
 1270              	.LVL114:
 1271              	.L67:
 197:SynaptiX_FDK/components/modules/rtc/sx_ex_rtc.c **** 
 1272              		.loc 1 197 16 view .LVU352
 1273 00d8 4FF0FF30 		mov	r0, #-1
 1274 00dc F1E7     		b	.L62
 1275              		.cfi_endproc
 1276              	.LFE14:
 1278              		.section	.text.rx8130ce_is_time_valid,"ax",%progbits
 1279              		.align	1
 1280              		.global	rx8130ce_is_time_valid
 1281              		.syntax unified
 1282              		.thumb
 1283              		.thumb_func
 1285              	rx8130ce_is_time_valid:
ARM GAS  C:\Users\DELL\AppData\Local\Temp\ccAOPYjL.s 			page 30


 1286              	.LVL115:
 1287              	.LFB15:
 210:SynaptiX_FDK/components/modules/rtc/sx_ex_rtc.c **** 
 211:SynaptiX_FDK/components/modules/rtc/sx_ex_rtc.c **** /* ------------------------------------------------------------------ */
 212:SynaptiX_FDK/components/modules/rtc/sx_ex_rtc.c **** /*  VLF check                                                          */
 213:SynaptiX_FDK/components/modules/rtc/sx_ex_rtc.c **** /* ------------------------------------------------------------------ */
 214:SynaptiX_FDK/components/modules/rtc/sx_ex_rtc.c **** 
 215:SynaptiX_FDK/components/modules/rtc/sx_ex_rtc.c **** int rx8130ce_is_time_valid(rx8130ce_t *dev, bool *valid)
 216:SynaptiX_FDK/components/modules/rtc/sx_ex_rtc.c **** {
 1288              		.loc 1 216 1 is_stmt 1 view -0
 1289              		.cfi_startproc
 1290              		@ args = 0, pretend = 0, frame = 8
 1291              		@ frame_needed = 0, uses_anonymous_args = 0
 217:SynaptiX_FDK/components/modules/rtc/sx_ex_rtc.c ****     if (!dev || !valid)    return RX8130CE_ERR_PARAM;
 1292              		.loc 1 217 5 view .LVU354
 1293              		.loc 1 217 8 is_stmt 0 view .LVU355
 1294 0000 C0B1     		cbz	r0, .L74
 216:SynaptiX_FDK/components/modules/rtc/sx_ex_rtc.c ****     if (!dev || !valid)    return RX8130CE_ERR_PARAM;
 1295              		.loc 1 216 1 view .LVU356
 1296 0002 10B5     		push	{r4, lr}
 1297              	.LCFI32:
 1298              		.cfi_def_cfa_offset 8
 1299              		.cfi_offset 4, -8
 1300              		.cfi_offset 14, -4
 1301 0004 82B0     		sub	sp, sp, #8
 1302              	.LCFI33:
 1303              		.cfi_def_cfa_offset 16
 1304 0006 0C46     		mov	r4, r1
 1305              		.loc 1 217 14 discriminator 2 view .LVU357
 1306 0008 B9B1     		cbz	r1, .L75
 218:SynaptiX_FDK/components/modules/rtc/sx_ex_rtc.c ****     if (!dev->initialized) return RX8130CE_ERR_NOT_INIT;
 1307              		.loc 1 218 5 is_stmt 1 view .LVU358
 1308              		.loc 1 218 13 is_stmt 0 view .LVU359
 1309 000a 0379     		ldrb	r3, [r0, #4]	@ zero_extendqisi2
 1310              		.loc 1 218 8 view .LVU360
 1311 000c C3B1     		cbz	r3, .L76
 219:SynaptiX_FDK/components/modules/rtc/sx_ex_rtc.c **** 
 220:SynaptiX_FDK/components/modules/rtc/sx_ex_rtc.c ****     uint8_t flag = 0;
 1312              		.loc 1 220 5 is_stmt 1 view .LVU361
 1313              		.loc 1 220 13 is_stmt 0 view .LVU362
 1314 000e 0023     		movs	r3, #0
 1315 0010 8DF80730 		strb	r3, [sp, #7]
 221:SynaptiX_FDK/components/modules/rtc/sx_ex_rtc.c ****     if (_reg_read(dev, RX8130CE_REG_FLAG, &flag, 1) != 0)
 1316              		.loc 1 221 5 is_stmt 1 view .LVU363
 1317              		.loc 1 221 9 is_stmt 0 view .LVU364
 1318 0014 0123     		movs	r3, #1
 1319 0016 0DF10702 		add	r2, sp, #7
 1320 001a 1D21     		movs	r1, #29
 1321              	.LVL116:
 1322              		.loc 1 221 9 view .LVU365
 1323 001c FFF7FEFF 		bl	_reg_read
 1324              	.LVL117:
 1325              		.loc 1 221 8 discriminator 1 view .LVU366
 1326 0020 88B9     		cbnz	r0, .L77
 222:SynaptiX_FDK/components/modules/rtc/sx_ex_rtc.c ****         return RX8130CE_ERR_I2C;
 223:SynaptiX_FDK/components/modules/rtc/sx_ex_rtc.c **** 
 224:SynaptiX_FDK/components/modules/rtc/sx_ex_rtc.c ****     *valid = !(flag & RX8130CE_FLAG_VLF);
ARM GAS  C:\Users\DELL\AppData\Local\Temp\ccAOPYjL.s 			page 31


 1327              		.loc 1 224 5 is_stmt 1 view .LVU367
 1328              		.loc 1 224 21 is_stmt 0 view .LVU368
 1329 0022 9DF80730 		ldrb	r3, [sp, #7]	@ zero_extendqisi2
 1330              		.loc 1 224 5 view .LVU369
 1331 0026 C3F34003 		ubfx	r3, r3, #1, #1
 1332 002a 83F00103 		eor	r3, r3, #1
 1333              		.loc 1 224 12 view .LVU370
 1334 002e 2370     		strb	r3, [r4]
 225:SynaptiX_FDK/components/modules/rtc/sx_ex_rtc.c ****     return RX8130CE_OK;
 1335              		.loc 1 225 5 is_stmt 1 view .LVU371
 1336              	.L72:
 226:SynaptiX_FDK/components/modules/rtc/sx_ex_rtc.c **** }...
 1337              		.loc 1 226 1 is_stmt 0 view .LVU372
 1338 0030 02B0     		add	sp, sp, #8
 1339              	.LCFI34:
 1340              		.cfi_def_cfa_offset 8
 1341              		@ sp needed
 1342 0032 10BD     		pop	{r4, pc}
 1343              	.LVL118:
 1344              	.L74:
 1345              	.LCFI35:
 1346              		.cfi_def_cfa_offset 0
 1347              		.cfi_restore 4
 1348              		.cfi_restore 14
 217:SynaptiX_FDK/components/modules/rtc/sx_ex_rtc.c ****     if (!dev || !valid)    return RX8130CE_ERR_PARAM;
 1349              		.loc 1 217 35 discriminator 3 view .LVU373
 1350 0034 6FF00200 		mvn	r0, #2
 1351              	.LVL119:
 1352              		.loc 1 226 1 view .LVU374
 1353 0038 7047     		bx	lr
 1354              	.LVL120:
 1355              	.L75:
 1356              	.LCFI36:
 1357              		.cfi_def_cfa_offset 16
 1358              		.cfi_offset 4, -8
 1359              		.cfi_offset 14, -4
 217:SynaptiX_FDK/components/modules/rtc/sx_ex_rtc.c ****     if (!dev || !valid)    return RX8130CE_ERR_PARAM;
 1360              		.loc 1 217 35 discriminator 3 view .LVU375
 1361 003a 6FF00200 		mvn	r0, #2
 1362              	.LVL121:
 217:SynaptiX_FDK/components/modules/rtc/sx_ex_rtc.c ****     if (!dev || !valid)    return RX8130CE_ERR_PARAM;
 1363              		.loc 1 217 35 discriminator 3 view .LVU376
 1364 003e F7E7     		b	.L72
 1365              	.LVL122:
 1366              	.L76:
 218:SynaptiX_FDK/components/modules/rtc/sx_ex_rtc.c ****     if (!dev->initialized) return RX8130CE_ERR_NOT_INIT;
 1367              		.loc 1 218 35 discriminator 1 view .LVU377
 1368 0040 6FF00100 		mvn	r0, #1
 1369              	.LVL123:
 218:SynaptiX_FDK/components/modules/rtc/sx_ex_rtc.c ****     if (!dev->initialized) return RX8130CE_ERR_NOT_INIT;
 1370              		.loc 1 218 35 discriminator 1 view .LVU378
 1371 0044 F4E7     		b	.L72
 1372              	.LVL124:
 1373              	.L77:
 222:SynaptiX_FDK/components/modules/rtc/sx_ex_rtc.c ****         return RX8130CE_ERR_I2C;
 1374              		.loc 1 222 16 view .LVU379
 1375 0046 4FF0FF30 		mov	r0, #-1
ARM GAS  C:\Users\DELL\AppData\Local\Temp\ccAOPYjL.s 			page 32


 1376 004a F1E7     		b	.L72
 1377              		.cfi_endproc
 1378              	.LFE15:
 1380              		.text
 1381              	.Letext0:
 1382              		.file 3 "D:\\stm32cubeclt\\STM32CubeCLT_1.21.0\\GNU-tools-for-STM32\\bin\\../lib/gcc/arm-none-eabi
 1383              		.file 4 "D:\\stm32cubeclt\\STM32CubeCLT_1.21.0\\GNU-tools-for-STM32\\bin\\../lib/gcc/arm-none-eabi
 1384              		.file 5 "SynaptiX_FDK/components/modules/rtc/sx_ex_rtc.h"
 1385              		.file 6 "SynaptiX_FDK/utils/delay/sx_delay.h"
ARM GAS  C:\Users\DELL\AppData\Local\Temp\ccAOPYjL.s 			page 33

