ARM GAS  C:\Users\DELL\AppData\Local\Temp\ccbhI13S.s 			page 1


   1              		.cpu cortex-m33
   2              		.arch armv8-m.main
   3              		.fpu fpv5-sp-d16
   4              		.arch_extension dsp
   5              		.eabi_attribute 27, 1
   6              		.eabi_attribute 28, 1
   7              		.eabi_attribute 20, 1
   8              		.eabi_attribute 21, 1
   9              		.eabi_attribute 23, 3
  10              		.eabi_attribute 24, 1
  11              		.eabi_attribute 25, 1
  12              		.eabi_attribute 26, 1
  13              		.eabi_attribute 30, 1
  14              		.eabi_attribute 34, 1
  15              		.eabi_attribute 18, 4
  16              		.file	"sx_flash.c"
  17              		.text
  18              	.Ltext0:
  19              		.cfi_sections	.debug_frame
  20              		.file 1 "SynaptiX_FDK/components/peripherals/flash/sx_flash.c"
  21              		.section	.text._addr_to_bank_sector,"ax",%progbits
  22              		.align	1
  23              		.syntax unified
  24              		.thumb
  25              		.thumb_func
  27              	_addr_to_bank_sector:
  28              	.LVL0:
  29              	.LFB297:
   1:SynaptiX_FDK/components/peripherals/flash/sx_flash.c **** #include "sx_flash.h"
   2:SynaptiX_FDK/components/peripherals/flash/sx_flash.c **** #include "sx_config.h"
   3:SynaptiX_FDK/components/peripherals/flash/sx_flash.c **** #include <string.h>
   4:SynaptiX_FDK/components/peripherals/flash/sx_flash.c **** 
   5:SynaptiX_FDK/components/peripherals/flash/sx_flash.c **** #if (SX_PLATFORM == SX_PLATFORM_STM32H5)
   6:SynaptiX_FDK/components/peripherals/flash/sx_flash.c **** #include "stm32h5xx_hal.h"
   7:SynaptiX_FDK/components/peripherals/flash/sx_flash.c **** #elif (SX_PLATFORM == SX_PLATFORM_STM32F4)
   8:SynaptiX_FDK/components/peripherals/flash/sx_flash.c **** #include "stm32f4xx_hal.h"
   9:SynaptiX_FDK/components/peripherals/flash/sx_flash.c **** #elif (SX_PLATFORM == SX_PLATFORM_STM32F7)
  10:SynaptiX_FDK/components/peripherals/flash/sx_flash.c **** #include "stm32f7xx_hal.h"
  11:SynaptiX_FDK/components/peripherals/flash/sx_flash.c **** #elif (SX_PLATFORM == SX_PLATFORM_STM32F1)
  12:SynaptiX_FDK/components/peripherals/flash/sx_flash.c **** #include "stm32f1xx_hal.h"
  13:SynaptiX_FDK/components/peripherals/flash/sx_flash.c **** #elif (SX_PLATFORM == SX_PLATFORM_STM32H7)
  14:SynaptiX_FDK/components/peripherals/flash/sx_flash.c **** #include "stm32h7xx_hal.h"
  15:SynaptiX_FDK/components/peripherals/flash/sx_flash.c **** #else
  16:SynaptiX_FDK/components/peripherals/flash/sx_flash.c **** #error "Unsupported platform"
  17:SynaptiX_FDK/components/peripherals/flash/sx_flash.c **** #endif
  18:SynaptiX_FDK/components/peripherals/flash/sx_flash.c **** 
  19:SynaptiX_FDK/components/peripherals/flash/sx_flash.c **** #if (SX_PLATFORM == SX_PLATFORM_STM32H5)
  20:SynaptiX_FDK/components/peripherals/flash/sx_flash.c **** 
  21:SynaptiX_FDK/components/peripherals/flash/sx_flash.c **** #define FLASH_BANK1_BASE    0x08000000UL
  22:SynaptiX_FDK/components/peripherals/flash/sx_flash.c **** #define FLASH_BANK2_BASE    0x08100000UL
  23:SynaptiX_FDK/components/peripherals/flash/sx_flash.c **** #define FLASH_SECTOR_BYTES  0x2000UL        /* 8 KB */
  24:SynaptiX_FDK/components/peripherals/flash/sx_flash.c **** 
  25:SynaptiX_FDK/components/peripherals/flash/sx_flash.c **** static void _addr_to_bank_sector(uint32_t addr, uint32_t *bank, uint32_t *sector)
  26:SynaptiX_FDK/components/peripherals/flash/sx_flash.c **** {
  30              		.loc 1 26 1 view -0
  31              		.cfi_startproc
  32              		@ args = 0, pretend = 0, frame = 0
ARM GAS  C:\Users\DELL\AppData\Local\Temp\ccbhI13S.s 			page 2


  33              		@ frame_needed = 0, uses_anonymous_args = 0
  34              		@ link register save eliminated.
  27:SynaptiX_FDK/components/peripherals/flash/sx_flash.c ****     if (addr >= FLASH_BANK2_BASE) {
  35              		.loc 1 27 5 view .LVU1
  36              		.loc 1 27 8 is_stmt 0 view .LVU2
  37 0000 B0F1016F 		cmp	r0, #135266304
  38 0004 06D3     		bcc	.L2
  28:SynaptiX_FDK/components/peripherals/flash/sx_flash.c ****         *bank   = FLASH_BANK_2;
  39              		.loc 1 28 9 is_stmt 1 view .LVU3
  40              		.loc 1 28 17 is_stmt 0 view .LVU4
  41 0006 0223     		movs	r3, #2
  42 0008 0B60     		str	r3, [r1]
  29:SynaptiX_FDK/components/peripherals/flash/sx_flash.c ****         *sector = (addr - FLASH_BANK2_BASE) / FLASH_SECTOR_BYTES;
  43              		.loc 1 29 9 is_stmt 1 view .LVU5
  44              		.loc 1 29 25 is_stmt 0 view .LVU6
  45 000a A0F10160 		sub	r0, r0, #135266304
  46              	.LVL1:
  47              		.loc 1 29 45 view .LVU7
  48 000e 400B     		lsrs	r0, r0, #13
  49              	.LVL2:
  50              		.loc 1 29 17 view .LVU8
  51 0010 1060     		str	r0, [r2]
  52 0012 7047     		bx	lr
  53              	.LVL3:
  54              	.L2:
  30:SynaptiX_FDK/components/peripherals/flash/sx_flash.c ****     } else {
  31:SynaptiX_FDK/components/peripherals/flash/sx_flash.c ****         *bank   = FLASH_BANK_1;
  55              		.loc 1 31 9 is_stmt 1 view .LVU9
  56              		.loc 1 31 17 is_stmt 0 view .LVU10
  57 0014 0123     		movs	r3, #1
  58 0016 0B60     		str	r3, [r1]
  32:SynaptiX_FDK/components/peripherals/flash/sx_flash.c ****         *sector = (addr - FLASH_BANK1_BASE) / FLASH_SECTOR_BYTES;
  59              		.loc 1 32 9 is_stmt 1 view .LVU11
  60              		.loc 1 32 25 is_stmt 0 view .LVU12
  61 0018 00F17840 		add	r0, r0, #-134217728
  62              	.LVL4:
  63              		.loc 1 32 45 view .LVU13
  64 001c 400B     		lsrs	r0, r0, #13
  65              	.LVL5:
  66              		.loc 1 32 17 view .LVU14
  67 001e 1060     		str	r0, [r2]
  33:SynaptiX_FDK/components/peripherals/flash/sx_flash.c ****     }
  34:SynaptiX_FDK/components/peripherals/flash/sx_flash.c **** }
  68              		.loc 1 34 1 view .LVU15
  69 0020 7047     		bx	lr
  70              		.cfi_endproc
  71              	.LFE297:
  73              		.section	.text.sx_flash_read,"ax",%progbits
  74              		.align	1
  75              		.global	sx_flash_read
  76              		.syntax unified
  77              		.thumb
  78              		.thumb_func
  80              	sx_flash_read:
  81              	.LVL6:
  82              	.LFB298:
  35:SynaptiX_FDK/components/peripherals/flash/sx_flash.c **** 
ARM GAS  C:\Users\DELL\AppData\Local\Temp\ccbhI13S.s 			page 3


  36:SynaptiX_FDK/components/peripherals/flash/sx_flash.c **** #endif /* STM32H5 */
  37:SynaptiX_FDK/components/peripherals/flash/sx_flash.c **** 
  38:SynaptiX_FDK/components/peripherals/flash/sx_flash.c **** /* ── Public API ──────────────────────────
  39:SynaptiX_FDK/components/peripherals/flash/sx_flash.c **** 
  40:SynaptiX_FDK/components/peripherals/flash/sx_flash.c **** void sx_flash_read(uint32_t addr, uint8_t *buf, uint32_t len)
  41:SynaptiX_FDK/components/peripherals/flash/sx_flash.c **** {
  83              		.loc 1 41 1 is_stmt 1 view -0
  84              		.cfi_startproc
  85              		@ args = 0, pretend = 0, frame = 0
  86              		@ frame_needed = 0, uses_anonymous_args = 0
  87              		.loc 1 41 1 is_stmt 0 view .LVU17
  88 0000 08B5     		push	{r3, lr}
  89              	.LCFI0:
  90              		.cfi_def_cfa_offset 8
  91              		.cfi_offset 3, -8
  92              		.cfi_offset 14, -4
  93 0002 0B46     		mov	r3, r1
  42:SynaptiX_FDK/components/peripherals/flash/sx_flash.c ****     memcpy(buf, (const void *)addr, len);
  94              		.loc 1 42 5 is_stmt 1 view .LVU18
  95 0004 0146     		mov	r1, r0
  96              	.LVL7:
  97              		.loc 1 42 5 is_stmt 0 view .LVU19
  98 0006 1846     		mov	r0, r3
  99              	.LVL8:
 100              		.loc 1 42 5 view .LVU20
 101 0008 FFF7FEFF 		bl	memcpy
 102              	.LVL9:
  43:SynaptiX_FDK/components/peripherals/flash/sx_flash.c **** }
 103              		.loc 1 43 1 view .LVU21
 104 000c 08BD     		pop	{r3, pc}
 105              		.cfi_endproc
 106              	.LFE298:
 108              		.section	.text.sx_flash_write,"ax",%progbits
 109              		.align	1
 110              		.global	sx_flash_write
 111              		.syntax unified
 112              		.thumb
 113              		.thumb_func
 115              	sx_flash_write:
 116              	.LVL10:
 117              	.LFB299:
  44:SynaptiX_FDK/components/peripherals/flash/sx_flash.c **** 
  45:SynaptiX_FDK/components/peripherals/flash/sx_flash.c **** void sx_flash_write(uint32_t addr, const uint8_t *data, uint32_t len)
  46:SynaptiX_FDK/components/peripherals/flash/sx_flash.c **** {
 118              		.loc 1 46 1 is_stmt 1 view -0
 119              		.cfi_startproc
 120              		@ args = 0, pretend = 0, frame = 16
 121              		@ frame_needed = 0, uses_anonymous_args = 0
 122              		.loc 1 46 1 is_stmt 0 view .LVU23
 123 0000 F0B5     		push	{r4, r5, r6, r7, lr}
 124              	.LCFI1:
 125              		.cfi_def_cfa_offset 20
 126              		.cfi_offset 4, -20
 127              		.cfi_offset 5, -16
 128              		.cfi_offset 6, -12
 129              		.cfi_offset 7, -8
 130              		.cfi_offset 14, -4
ARM GAS  C:\Users\DELL\AppData\Local\Temp\ccbhI13S.s 			page 4


 131 0002 85B0     		sub	sp, sp, #20
 132              	.LCFI2:
 133              		.cfi_def_cfa_offset 40
 134 0004 0746     		mov	r7, r0
 135 0006 0E46     		mov	r6, r1
 136 0008 1546     		mov	r5, r2
  47:SynaptiX_FDK/components/peripherals/flash/sx_flash.c **** #if (SX_PLATFORM == SX_PLATFORM_STM32H5)
  48:SynaptiX_FDK/components/peripherals/flash/sx_flash.c ****     uint32_t buf[4];
 137              		.loc 1 48 5 is_stmt 1 view .LVU24
  49:SynaptiX_FDK/components/peripherals/flash/sx_flash.c ****     uint32_t written = 0;
 138              		.loc 1 49 5 view .LVU25
 139              	.LVL11:
  50:SynaptiX_FDK/components/peripherals/flash/sx_flash.c **** 
  51:SynaptiX_FDK/components/peripherals/flash/sx_flash.c ****     while (written < len) {
 140              		.loc 1 51 5 view .LVU26
  49:SynaptiX_FDK/components/peripherals/flash/sx_flash.c ****     uint32_t written = 0;
 141              		.loc 1 49 14 is_stmt 0 view .LVU27
 142 000a 0024     		movs	r4, #0
 143              		.loc 1 51 11 view .LVU28
 144 000c 0FE0     		b	.L7
 145              	.LVL12:
 146              	.L8:
 147              	.LBB2:
  52:SynaptiX_FDK/components/peripherals/flash/sx_flash.c ****         uint32_t chunk = len - written;
  53:SynaptiX_FDK/components/peripherals/flash/sx_flash.c ****         if (chunk >= 16) {
  54:SynaptiX_FDK/components/peripherals/flash/sx_flash.c ****             memcpy(buf, data + written, 16);
  55:SynaptiX_FDK/components/peripherals/flash/sx_flash.c ****         } else {
  56:SynaptiX_FDK/components/peripherals/flash/sx_flash.c ****             memset(buf, 0xFF, 16);          /* pad with 0xFF (erased state) */
 148              		.loc 1 56 13 is_stmt 1 view .LVU29
 149 000e 6846     		mov	r0, sp
 150 0010 4FF0FF33 		mov	r3, #-1
 151 0014 0093     		str	r3, [sp]
 152 0016 0193     		str	r3, [sp, #4]
 153 0018 0293     		str	r3, [sp, #8]
 154 001a 0393     		str	r3, [sp, #12]
  57:SynaptiX_FDK/components/peripherals/flash/sx_flash.c ****             memcpy(buf, data + written, chunk);
 155              		.loc 1 57 13 view .LVU30
 156 001c 3119     		adds	r1, r6, r4
 157 001e FFF7FEFF 		bl	memcpy
 158              	.LVL13:
 159              	.L9:
  58:SynaptiX_FDK/components/peripherals/flash/sx_flash.c ****         }
  59:SynaptiX_FDK/components/peripherals/flash/sx_flash.c ****         HAL_FLASH_Program(FLASH_TYPEPROGRAM_QUADWORD,
 160              		.loc 1 59 9 view .LVU31
 161 0022 6A46     		mov	r2, sp
 162 0024 E119     		adds	r1, r4, r7
 163 0026 0220     		movs	r0, #2
 164 0028 FFF7FEFF 		bl	HAL_FLASH_Program
 165              	.LVL14:
  60:SynaptiX_FDK/components/peripherals/flash/sx_flash.c ****                           addr + written,
  61:SynaptiX_FDK/components/peripherals/flash/sx_flash.c ****                           (uint32_t)buf);
  62:SynaptiX_FDK/components/peripherals/flash/sx_flash.c ****         written += 16;
 166              		.loc 1 62 9 view .LVU32
 167              		.loc 1 62 17 is_stmt 0 view .LVU33
 168 002c 1034     		adds	r4, r4, #16
 169              	.LVL15:
 170              	.L7:
ARM GAS  C:\Users\DELL\AppData\Local\Temp\ccbhI13S.s 			page 5


 171              		.loc 1 62 17 view .LVU34
 172              	.LBE2:
  51:SynaptiX_FDK/components/peripherals/flash/sx_flash.c ****         uint32_t chunk = len - written;
 173              		.loc 1 51 20 is_stmt 1 view .LVU35
 174 002e AC42     		cmp	r4, r5
 175 0030 0BD2     		bcs	.L12
 176              	.LBB3:
  52:SynaptiX_FDK/components/peripherals/flash/sx_flash.c ****         if (chunk >= 16) {
 177              		.loc 1 52 9 view .LVU36
  52:SynaptiX_FDK/components/peripherals/flash/sx_flash.c ****         if (chunk >= 16) {
 178              		.loc 1 52 18 is_stmt 0 view .LVU37
 179 0032 2A1B     		subs	r2, r5, r4
 180              	.LVL16:
  53:SynaptiX_FDK/components/peripherals/flash/sx_flash.c ****             memcpy(buf, data + written, 16);
 181              		.loc 1 53 9 is_stmt 1 view .LVU38
  53:SynaptiX_FDK/components/peripherals/flash/sx_flash.c ****             memcpy(buf, data + written, 16);
 182              		.loc 1 53 12 is_stmt 0 view .LVU39
 183 0034 0F2A     		cmp	r2, #15
 184 0036 EAD9     		bls	.L8
  54:SynaptiX_FDK/components/peripherals/flash/sx_flash.c ****         } else {
 185              		.loc 1 54 13 is_stmt 1 view .LVU40
  54:SynaptiX_FDK/components/peripherals/flash/sx_flash.c ****         } else {
 186              		.loc 1 54 30 is_stmt 0 view .LVU41
 187 0038 3319     		adds	r3, r6, r4
  54:SynaptiX_FDK/components/peripherals/flash/sx_flash.c ****         } else {
 188              		.loc 1 54 13 view .LVU42
 189 003a EC46     		mov	ip, sp
 190 003c 3059     		ldr	r0, [r6, r4]	@ unaligned
 191 003e 5968     		ldr	r1, [r3, #4]	@ unaligned
 192 0040 9A68     		ldr	r2, [r3, #8]	@ unaligned
 193              	.LVL17:
  54:SynaptiX_FDK/components/peripherals/flash/sx_flash.c ****         } else {
 194              		.loc 1 54 13 view .LVU43
 195 0042 DB68     		ldr	r3, [r3, #12]	@ unaligned
 196 0044 ACE80F00 		stmia	ip!, {r0, r1, r2, r3}
 197 0048 EBE7     		b	.L9
 198              	.LVL18:
 199              	.L12:
  54:SynaptiX_FDK/components/peripherals/flash/sx_flash.c ****         } else {
 200              		.loc 1 54 13 view .LVU44
 201              	.LBE3:
  63:SynaptiX_FDK/components/peripherals/flash/sx_flash.c ****     }
  64:SynaptiX_FDK/components/peripherals/flash/sx_flash.c **** 
  65:SynaptiX_FDK/components/peripherals/flash/sx_flash.c **** #elif (SX_PLATFORM == SX_PLATFORM_STM32F1)
  66:SynaptiX_FDK/components/peripherals/flash/sx_flash.c ****     for (uint32_t i = 0; i < len; i += 2) {
  67:SynaptiX_FDK/components/peripherals/flash/sx_flash.c ****         uint16_t data16 = 0xFFFF;
  68:SynaptiX_FDK/components/peripherals/flash/sx_flash.c ****         uint32_t chunk  = (len - i >= 2) ? 2 : 1;
  69:SynaptiX_FDK/components/peripherals/flash/sx_flash.c ****         memcpy(&data16, data + i, chunk);
  70:SynaptiX_FDK/components/peripherals/flash/sx_flash.c ****         HAL_FLASH_Program(FLASH_TYPEPROGRAM_HALFWORD, addr + i, data16);
  71:SynaptiX_FDK/components/peripherals/flash/sx_flash.c ****     }
  72:SynaptiX_FDK/components/peripherals/flash/sx_flash.c **** 
  73:SynaptiX_FDK/components/peripherals/flash/sx_flash.c **** #elif (SX_PLATFORM == SX_PLATFORM_STM32H7) || \
  74:SynaptiX_FDK/components/peripherals/flash/sx_flash.c ****       (SX_PLATFORM == SX_PLATFORM_STM32F7) || \
  75:SynaptiX_FDK/components/peripherals/flash/sx_flash.c ****       (SX_PLATFORM == SX_PLATFORM_STM32F4)
  76:SynaptiX_FDK/components/peripherals/flash/sx_flash.c ****     for (uint32_t i = 0; i < len; i += 4) {
  77:SynaptiX_FDK/components/peripherals/flash/sx_flash.c ****         uint32_t data32 = 0xFFFFFFFF;
  78:SynaptiX_FDK/components/peripherals/flash/sx_flash.c ****         uint32_t chunk  = (len - i >= 4) ? 4 : (len - i);
ARM GAS  C:\Users\DELL\AppData\Local\Temp\ccbhI13S.s 			page 6


  79:SynaptiX_FDK/components/peripherals/flash/sx_flash.c ****         memcpy(&data32, data + i, chunk);
  80:SynaptiX_FDK/components/peripherals/flash/sx_flash.c ****         HAL_FLASH_Program(FLASH_TYPEPROGRAM_WORD, addr + i, data32);
  81:SynaptiX_FDK/components/peripherals/flash/sx_flash.c ****     }
  82:SynaptiX_FDK/components/peripherals/flash/sx_flash.c **** #endif
  83:SynaptiX_FDK/components/peripherals/flash/sx_flash.c **** }
 202              		.loc 1 83 1 view .LVU45
 203 004a 05B0     		add	sp, sp, #20
 204              	.LCFI3:
 205              		.cfi_def_cfa_offset 20
 206              		@ sp needed
 207 004c F0BD     		pop	{r4, r5, r6, r7, pc}
 208              		.loc 1 83 1 view .LVU46
 209              		.cfi_endproc
 210              	.LFE299:
 212              		.section	.text.sx_flash_erase,"ax",%progbits
 213              		.align	1
 214              		.global	sx_flash_erase
 215              		.syntax unified
 216              		.thumb
 217              		.thumb_func
 219              	sx_flash_erase:
 220              	.LVL19:
 221              	.LFB300:
  84:SynaptiX_FDK/components/peripherals/flash/sx_flash.c **** 
  85:SynaptiX_FDK/components/peripherals/flash/sx_flash.c **** void sx_flash_erase(uint32_t addr, uint32_t len)
  86:SynaptiX_FDK/components/peripherals/flash/sx_flash.c **** {
 222              		.loc 1 86 1 is_stmt 1 view -0
 223              		.cfi_startproc
 224              		@ args = 0, pretend = 0, frame = 32
 225              		@ frame_needed = 0, uses_anonymous_args = 0
 226              		.loc 1 86 1 is_stmt 0 view .LVU48
 227 0000 30B5     		push	{r4, r5, lr}
 228              	.LCFI4:
 229              		.cfi_def_cfa_offset 12
 230              		.cfi_offset 4, -12
 231              		.cfi_offset 5, -8
 232              		.cfi_offset 14, -4
 233 0002 89B0     		sub	sp, sp, #36
 234              	.LCFI5:
 235              		.cfi_def_cfa_offset 48
 236 0004 0C46     		mov	r4, r1
  87:SynaptiX_FDK/components/peripherals/flash/sx_flash.c **** #if (SX_PLATFORM == SX_PLATFORM_STM32H5)
  88:SynaptiX_FDK/components/peripherals/flash/sx_flash.c ****     FLASH_EraseInitTypeDef erase = {0};
 237              		.loc 1 88 5 is_stmt 1 view .LVU49
 238              		.loc 1 88 28 is_stmt 0 view .LVU50
 239 0006 04AD     		add	r5, sp, #16
 240 0008 0023     		movs	r3, #0
 241 000a 0493     		str	r3, [sp, #16]
 242 000c 0593     		str	r3, [sp, #20]
 243 000e 0693     		str	r3, [sp, #24]
 244 0010 0793     		str	r3, [sp, #28]
  89:SynaptiX_FDK/components/peripherals/flash/sx_flash.c ****     uint32_t page_error          = 0;
 245              		.loc 1 89 5 is_stmt 1 view .LVU51
 246              		.loc 1 89 14 is_stmt 0 view .LVU52
 247 0012 0393     		str	r3, [sp, #12]
  90:SynaptiX_FDK/components/peripherals/flash/sx_flash.c **** 
  91:SynaptiX_FDK/components/peripherals/flash/sx_flash.c ****     uint32_t bank, sector;
ARM GAS  C:\Users\DELL\AppData\Local\Temp\ccbhI13S.s 			page 7


 248              		.loc 1 91 5 is_stmt 1 view .LVU53
  92:SynaptiX_FDK/components/peripherals/flash/sx_flash.c ****     _addr_to_bank_sector(addr, &bank, &sector);
 249              		.loc 1 92 5 view .LVU54
 250 0014 01AA     		add	r2, sp, #4
 251 0016 02A9     		add	r1, sp, #8
 252              	.LVL20:
 253              		.loc 1 92 5 is_stmt 0 view .LVU55
 254 0018 FFF7FEFF 		bl	_addr_to_bank_sector
 255              	.LVL21:
  93:SynaptiX_FDK/components/peripherals/flash/sx_flash.c **** 
  94:SynaptiX_FDK/components/peripherals/flash/sx_flash.c ****     uint32_t nb_sectors = (len + FLASH_SECTOR_BYTES - 1) / FLASH_SECTOR_BYTES;
 256              		.loc 1 94 5 is_stmt 1 view .LVU56
 257              		.loc 1 94 53 is_stmt 0 view .LVU57
 258 001c 04F5FF51 		add	r1, r4, #8160
 259 0020 1F31     		adds	r1, r1, #31
 260              		.loc 1 94 14 view .LVU58
 261 0022 490B     		lsrs	r1, r1, #13
 262              	.LVL22:
  95:SynaptiX_FDK/components/peripherals/flash/sx_flash.c **** 
  96:SynaptiX_FDK/components/peripherals/flash/sx_flash.c ****     erase.TypeErase = FLASH_TYPEERASE_SECTORS;
 263              		.loc 1 96 5 is_stmt 1 view .LVU59
 264              		.loc 1 96 21 is_stmt 0 view .LVU60
 265 0024 0423     		movs	r3, #4
 266 0026 0493     		str	r3, [sp, #16]
  97:SynaptiX_FDK/components/peripherals/flash/sx_flash.c ****     erase.Banks     = bank;
 267              		.loc 1 97 5 is_stmt 1 view .LVU61
 268              		.loc 1 97 21 is_stmt 0 view .LVU62
 269 0028 029B     		ldr	r3, [sp, #8]
 270 002a 0593     		str	r3, [sp, #20]
  98:SynaptiX_FDK/components/peripherals/flash/sx_flash.c ****     erase.Sector    = sector;
 271              		.loc 1 98 5 is_stmt 1 view .LVU63
 272              		.loc 1 98 21 is_stmt 0 view .LVU64
 273 002c 019B     		ldr	r3, [sp, #4]
 274 002e 0693     		str	r3, [sp, #24]
  99:SynaptiX_FDK/components/peripherals/flash/sx_flash.c ****     erase.NbSectors = nb_sectors;
 275              		.loc 1 99 5 is_stmt 1 view .LVU65
 276              		.loc 1 99 21 is_stmt 0 view .LVU66
 277 0030 0791     		str	r1, [sp, #28]
 100:SynaptiX_FDK/components/peripherals/flash/sx_flash.c **** 
 101:SynaptiX_FDK/components/peripherals/flash/sx_flash.c ****     HAL_FLASHEx_Erase(&erase, &page_error);
 278              		.loc 1 101 5 is_stmt 1 view .LVU67
 279 0032 03A9     		add	r1, sp, #12
 280              	.LVL23:
 281              		.loc 1 101 5 is_stmt 0 view .LVU68
 282 0034 2846     		mov	r0, r5
 283 0036 FFF7FEFF 		bl	HAL_FLASHEx_Erase
 284              	.LVL24:
 102:SynaptiX_FDK/components/peripherals/flash/sx_flash.c **** 
 103:SynaptiX_FDK/components/peripherals/flash/sx_flash.c **** #elif (SX_PLATFORM == SX_PLATFORM_STM32F1)
 104:SynaptiX_FDK/components/peripherals/flash/sx_flash.c ****     FLASH_EraseInitTypeDef erase = {0};
 105:SynaptiX_FDK/components/peripherals/flash/sx_flash.c ****     uint32_t page_error          = 0;
 106:SynaptiX_FDK/components/peripherals/flash/sx_flash.c **** 
 107:SynaptiX_FDK/components/peripherals/flash/sx_flash.c ****     erase.TypeErase  = FLASH_TYPEERASE_PAGES;
 108:SynaptiX_FDK/components/peripherals/flash/sx_flash.c ****     erase.PageAddress = addr;
 109:SynaptiX_FDK/components/peripherals/flash/sx_flash.c ****     erase.NbPages    = (len + FLASH_PAGE_SIZE - 1) / FLASH_PAGE_SIZE;
 110:SynaptiX_FDK/components/peripherals/flash/sx_flash.c **** 
 111:SynaptiX_FDK/components/peripherals/flash/sx_flash.c ****     HAL_FLASHEx_Erase(&erase, &page_error);
ARM GAS  C:\Users\DELL\AppData\Local\Temp\ccbhI13S.s 			page 8


 112:SynaptiX_FDK/components/peripherals/flash/sx_flash.c **** 
 113:SynaptiX_FDK/components/peripherals/flash/sx_flash.c **** #elif (SX_PLATFORM == SX_PLATFORM_STM32H7) || \
 114:SynaptiX_FDK/components/peripherals/flash/sx_flash.c ****       (SX_PLATFORM == SX_PLATFORM_STM32F7) || \
 115:SynaptiX_FDK/components/peripherals/flash/sx_flash.c ****       (SX_PLATFORM == SX_PLATFORM_STM32F4)
 116:SynaptiX_FDK/components/peripherals/flash/sx_flash.c ****     FLASH_EraseInitTypeDef erase = {0};
 117:SynaptiX_FDK/components/peripherals/flash/sx_flash.c ****     uint32_t page_error          = 0;
 118:SynaptiX_FDK/components/peripherals/flash/sx_flash.c **** 
 119:SynaptiX_FDK/components/peripherals/flash/sx_flash.c ****     erase.TypeErase = FLASH_TYPEERASE_SECTORS;
 120:SynaptiX_FDK/components/peripherals/flash/sx_flash.c ****     erase.Sector    = addr / FLASH_SECTOR_SIZE;
 121:SynaptiX_FDK/components/peripherals/flash/sx_flash.c ****     erase.NbSectors = (len + FLASH_SECTOR_SIZE - 1) / FLASH_SECTOR_SIZE;
 122:SynaptiX_FDK/components/peripherals/flash/sx_flash.c **** 
 123:SynaptiX_FDK/components/peripherals/flash/sx_flash.c ****     HAL_FLASHEx_Erase(&erase, &page_error);
 124:SynaptiX_FDK/components/peripherals/flash/sx_flash.c **** #endif
 125:SynaptiX_FDK/components/peripherals/flash/sx_flash.c **** }
 285              		.loc 1 125 1 view .LVU69
 286 003a 09B0     		add	sp, sp, #36
 287              	.LCFI6:
 288              		.cfi_def_cfa_offset 12
 289              		@ sp needed
 290 003c 30BD     		pop	{r4, r5, pc}
 291              		.loc 1 125 1 view .LVU70
 292              		.cfi_endproc
 293              	.LFE300:
 295              		.section	.text.sx_flash_unlock,"ax",%progbits
 296              		.align	1
 297              		.global	sx_flash_unlock
 298              		.syntax unified
 299              		.thumb
 300              		.thumb_func
 302              	sx_flash_unlock:
 303              	.LFB301:
 126:SynaptiX_FDK/components/peripherals/flash/sx_flash.c **** 
 127:SynaptiX_FDK/components/peripherals/flash/sx_flash.c **** void sx_flash_unlock(void)
 128:SynaptiX_FDK/components/peripherals/flash/sx_flash.c **** {
 304              		.loc 1 128 1 is_stmt 1 view -0
 305              		.cfi_startproc
 306              		@ args = 0, pretend = 0, frame = 0
 307              		@ frame_needed = 0, uses_anonymous_args = 0
 308 0000 08B5     		push	{r3, lr}
 309              	.LCFI7:
 310              		.cfi_def_cfa_offset 8
 311              		.cfi_offset 3, -8
 312              		.cfi_offset 14, -4
 129:SynaptiX_FDK/components/peripherals/flash/sx_flash.c ****     HAL_FLASH_Unlock();
 313              		.loc 1 129 5 view .LVU72
 314 0002 FFF7FEFF 		bl	HAL_FLASH_Unlock
 315              	.LVL25:
 130:SynaptiX_FDK/components/peripherals/flash/sx_flash.c **** }
 316              		.loc 1 130 1 is_stmt 0 view .LVU73
 317 0006 08BD     		pop	{r3, pc}
 318              		.cfi_endproc
 319              	.LFE301:
 321              		.section	.text.sx_flash_lock,"ax",%progbits
 322              		.align	1
 323              		.global	sx_flash_lock
 324              		.syntax unified
 325              		.thumb
ARM GAS  C:\Users\DELL\AppData\Local\Temp\ccbhI13S.s 			page 9


 326              		.thumb_func
 328              	sx_flash_lock:
 329              	.LFB302:
 131:SynaptiX_FDK/components/peripherals/flash/sx_flash.c **** 
 132:SynaptiX_FDK/components/peripherals/flash/sx_flash.c **** void sx_flash_lock(void)
 133:SynaptiX_FDK/components/peripherals/flash/sx_flash.c **** {
 330              		.loc 1 133 1 is_stmt 1 view -0
 331              		.cfi_startproc
 332              		@ args = 0, pretend = 0, frame = 0
 333              		@ frame_needed = 0, uses_anonymous_args = 0
 334 0000 08B5     		push	{r3, lr}
 335              	.LCFI8:
 336              		.cfi_def_cfa_offset 8
 337              		.cfi_offset 3, -8
 338              		.cfi_offset 14, -4
 134:SynaptiX_FDK/components/peripherals/flash/sx_flash.c ****     HAL_FLASH_Lock();
 339              		.loc 1 134 5 view .LVU75
 340 0002 FFF7FEFF 		bl	HAL_FLASH_Lock
 341              	.LVL26:
 135:SynaptiX_FDK/components/peripherals/flash/sx_flash.c **** }...
 342              		.loc 1 135 1 is_stmt 0 view .LVU76
 343 0006 08BD     		pop	{r3, pc}
 344              		.cfi_endproc
 345              	.LFE302:
 347              		.text
 348              	.Letext0:
 349              		.file 2 "D:\\stm32cubeclt\\STM32CubeCLT_1.21.0\\GNU-tools-for-STM32\\bin\\../lib/gcc/arm-none-eabi
 350              		.file 3 "D:\\stm32cubeclt\\STM32CubeCLT_1.21.0\\GNU-tools-for-STM32\\bin\\../lib/gcc/arm-none-eabi
 351              		.file 4 "Drivers/STM32H5xx_HAL_Driver/Inc/stm32h5xx_hal_def.h"
 352              		.file 5 "Drivers/STM32H5xx_HAL_Driver/Inc/stm32h5xx_hal_flash_ex.h"
 353              		.file 6 "Drivers/STM32H5xx_HAL_Driver/Inc/stm32h5xx_ll_lptim.h"
 354              		.file 7 "Drivers/STM32H5xx_HAL_Driver/Inc/stm32h5xx_hal_flash.h"
 355              		.file 8 "D:\\stm32cubeclt\\STM32CubeCLT_1.21.0\\GNU-tools-for-STM32\\bin\\../lib/gcc/arm-none-eabi
 356              		.file 9 "<built-in>"
ARM GAS  C:\Users\DELL\AppData\Local\Temp\ccbhI13S.s 			page 10

