ARM GAS  C:\Users\DELL\AppData\Local\Temp\ccg7Xuxi.s 			page 1


   1              		.cpu cortex-m33
   2              		.arch armv8-m.main
   3              		.fpu fpv5-sp-d16
   4              		.arch_extension dsp
   5              		.eabi_attribute 27, 1
   6              		.eabi_attribute 28, 1
   7              		.eabi_attribute 20, 1
   8              		.eabi_attribute 21, 1
   9              		.eabi_attribute 23, 3
  10              		.eabi_attribute 24, 1
  11              		.eabi_attribute 25, 1
  12              		.eabi_attribute 26, 1
  13              		.eabi_attribute 30, 1
  14              		.eabi_attribute 34, 1
  15              		.eabi_attribute 18, 4
  16              		.file	"sx_i2c.c"
  17              		.text
  18              	.Ltext0:
  19              		.cfi_sections	.debug_frame
  20              		.file 1 "SynaptiX_FDK/components/peripherals/i2c/sx_i2c.c"
  21              		.section	.text._sx_i2c_write,"ax",%progbits
  22              		.align	1
  23              		.syntax unified
  24              		.thumb
  25              		.thumb_func
  27              	_sx_i2c_write:
  28              	.LVL0:
  29              	.LFB304:
   1:SynaptiX_FDK/components/peripherals/i2c/sx_i2c.c **** #include "sx_i2c.h"
   2:SynaptiX_FDK/components/peripherals/i2c/sx_i2c.c **** #include "sx_config.h"
   3:SynaptiX_FDK/components/peripherals/i2c/sx_i2c.c **** 
   4:SynaptiX_FDK/components/peripherals/i2c/sx_i2c.c **** #if SX_PLATFORM == SX_PLATFORM_STM32H5
   5:SynaptiX_FDK/components/peripherals/i2c/sx_i2c.c ****     #include "stm32h5xx_hal.h"
   6:SynaptiX_FDK/components/peripherals/i2c/sx_i2c.c ****     #include "stm32h5xx_hal_i2c.h"
   7:SynaptiX_FDK/components/peripherals/i2c/sx_i2c.c **** #elif SX_PLATFORM == SX_PLATFORM_STM32H7
   8:SynaptiX_FDK/components/peripherals/i2c/sx_i2c.c ****     #include "stm32h7xx_hal.h"
   9:SynaptiX_FDK/components/peripherals/i2c/sx_i2c.c ****     #include "stm32h7xx_hal_i2c.h"
  10:SynaptiX_FDK/components/peripherals/i2c/sx_i2c.c **** #elif SX_PLATFORM == SX_PLATFORM_STM32F7
  11:SynaptiX_FDK/components/peripherals/i2c/sx_i2c.c ****     #include "stm32f7xx_hal.h"
  12:SynaptiX_FDK/components/peripherals/i2c/sx_i2c.c ****     #include "stm32f7xx_hal_i2c.h"
  13:SynaptiX_FDK/components/peripherals/i2c/sx_i2c.c **** #elif SX_PLATFORM == SX_PLATFORM_STM32F4
  14:SynaptiX_FDK/components/peripherals/i2c/sx_i2c.c ****     #include "stm32f4xx_hal.h"
  15:SynaptiX_FDK/components/peripherals/i2c/sx_i2c.c ****     #include "stm32f4xx_hal_i2c.h"
  16:SynaptiX_FDK/components/peripherals/i2c/sx_i2c.c **** #elif SX_PLATFORM == SX_PLATFORM_STM32F1
  17:SynaptiX_FDK/components/peripherals/i2c/sx_i2c.c ****     #include "stm32f1xx_hal.h"
  18:SynaptiX_FDK/components/peripherals/i2c/sx_i2c.c ****     #include "stm32f1xx_hal_i2c.h"
  19:SynaptiX_FDK/components/peripherals/i2c/sx_i2c.c **** #endif
  20:SynaptiX_FDK/components/peripherals/i2c/sx_i2c.c **** 
  21:SynaptiX_FDK/components/peripherals/i2c/sx_i2c.c **** #include "i2c.h"
  22:SynaptiX_FDK/components/peripherals/i2c/sx_i2c.c **** 
  23:SynaptiX_FDK/components/peripherals/i2c/sx_i2c.c **** #define SX_I2C_TIMEOUT_MS   100U
  24:SynaptiX_FDK/components/peripherals/i2c/sx_i2c.c **** 
  25:SynaptiX_FDK/components/peripherals/i2c/sx_i2c.c **** typedef HAL_StatusTypeDef (*i2c_transmit_fn_t)    (I2C_HandleTypeDef*, uint16_t, uint8_t*, uint16_t
  26:SynaptiX_FDK/components/peripherals/i2c/sx_i2c.c **** typedef HAL_StatusTypeDef (*i2c_receive_fn_t)     (I2C_HandleTypeDef*, uint16_t, uint8_t*, uint16_t
  27:SynaptiX_FDK/components/peripherals/i2c/sx_i2c.c **** typedef HAL_StatusTypeDef (*i2c_mem_write_fn_t)   (I2C_HandleTypeDef*, uint16_t, uint16_t, uint16_t
  28:SynaptiX_FDK/components/peripherals/i2c/sx_i2c.c **** typedef HAL_StatusTypeDef (*i2c_mem_read_fn_t)    (I2C_HandleTypeDef*, uint16_t, uint16_t, uint16_t
  29:SynaptiX_FDK/components/peripherals/i2c/sx_i2c.c **** typedef HAL_StatusTypeDef (*i2c_is_device_ready_fn_t)(I2C_HandleTypeDef*, uint16_t, uint32_t, uint3
ARM GAS  C:\Users\DELL\AppData\Local\Temp\ccg7Xuxi.s 			page 2


  30:SynaptiX_FDK/components/peripherals/i2c/sx_i2c.c **** 
  31:SynaptiX_FDK/components/peripherals/i2c/sx_i2c.c **** static i2c_transmit_fn_t        i2c_transmit        = HAL_I2C_Master_Transmit;
  32:SynaptiX_FDK/components/peripherals/i2c/sx_i2c.c **** static i2c_receive_fn_t         i2c_receive         = HAL_I2C_Master_Receive;
  33:SynaptiX_FDK/components/peripherals/i2c/sx_i2c.c **** static i2c_mem_write_fn_t       i2c_mem_write       = HAL_I2C_Mem_Write;
  34:SynaptiX_FDK/components/peripherals/i2c/sx_i2c.c **** static i2c_mem_read_fn_t        i2c_mem_read        = HAL_I2C_Mem_Read;
  35:SynaptiX_FDK/components/peripherals/i2c/sx_i2c.c **** static i2c_is_device_ready_fn_t i2c_is_device_ready = HAL_I2C_IsDeviceReady;
  36:SynaptiX_FDK/components/peripherals/i2c/sx_i2c.c **** 
  37:SynaptiX_FDK/components/peripherals/i2c/sx_i2c.c **** static int _sx_i2c_write(sx_i2c_t *i2c, uint16_t dev_addr, const uint8_t *data, uint32_t len){
  30              		.loc 1 37 94 view -0
  31              		.cfi_startproc
  32              		@ args = 0, pretend = 0, frame = 0
  33              		@ frame_needed = 0, uses_anonymous_args = 0
  34              		.loc 1 37 94 is_stmt 0 view .LVU1
  35 0000 10B5     		push	{r4, lr}
  36              	.LCFI0:
  37              		.cfi_def_cfa_offset 8
  38              		.cfi_offset 4, -8
  39              		.cfi_offset 14, -4
  40 0002 82B0     		sub	sp, sp, #8
  41              	.LCFI1:
  42              		.cfi_def_cfa_offset 16
  38:SynaptiX_FDK/components/peripherals/i2c/sx_i2c.c ****     return i2c_transmit((I2C_HandleTypeDef *)i2c->pDriver,
  43              		.loc 1 38 5 is_stmt 1 view .LVU2
  44              		.loc 1 38 49 is_stmt 0 view .LVU3
  45 0004 4068     		ldr	r0, [r0, #4]
  46              	.LVL1:
  47              		.loc 1 38 12 view .LVU4
  48 0006 6424     		movs	r4, #100
  49 0008 0094     		str	r4, [sp]
  50 000a 9BB2     		uxth	r3, r3
  51              	.LVL2:
  52              		.loc 1 38 12 view .LVU5
  53 000c FFF7FEFF 		bl	HAL_I2C_Master_Transmit
  54              	.LVL3:
  39:SynaptiX_FDK/components/peripherals/i2c/sx_i2c.c ****                         dev_addr, (uint8_t *)data, (uint16_t)len,
  40:SynaptiX_FDK/components/peripherals/i2c/sx_i2c.c ****                         SX_I2C_TIMEOUT_MS) == HAL_OK ? 0 : -1;
  55              		.loc 1 40 58 view .LVU6
  56 0010 08B9     		cbnz	r0, .L5
  57              	.L1:
  41:SynaptiX_FDK/components/peripherals/i2c/sx_i2c.c **** }
  58              		.loc 1 41 1 view .LVU7
  59 0012 02B0     		add	sp, sp, #8
  60              	.LCFI2:
  61              		.cfi_remember_state
  62              		.cfi_def_cfa_offset 8
  63              		@ sp needed
  64 0014 10BD     		pop	{r4, pc}
  65              	.L5:
  66              	.LCFI3:
  67              		.cfi_restore_state
  40:SynaptiX_FDK/components/peripherals/i2c/sx_i2c.c **** }
  68              		.loc 1 40 58 discriminator 2 view .LVU8
  69 0016 4FF0FF30 		mov	r0, #-1
  40:SynaptiX_FDK/components/peripherals/i2c/sx_i2c.c **** }
  70              		.loc 1 40 58 view .LVU9
  71 001a FAE7     		b	.L1
  72              		.cfi_endproc
ARM GAS  C:\Users\DELL\AppData\Local\Temp\ccg7Xuxi.s 			page 3


  73              	.LFE304:
  75              		.section	.text._sx_i2c_read,"ax",%progbits
  76              		.align	1
  77              		.syntax unified
  78              		.thumb
  79              		.thumb_func
  81              	_sx_i2c_read:
  82              	.LVL4:
  83              	.LFB305:
  42:SynaptiX_FDK/components/peripherals/i2c/sx_i2c.c **** 
  43:SynaptiX_FDK/components/peripherals/i2c/sx_i2c.c **** static int _sx_i2c_read(sx_i2c_t *i2c, uint16_t dev_addr, uint8_t *data, uint32_t len){
  84              		.loc 1 43 87 is_stmt 1 view -0
  85              		.cfi_startproc
  86              		@ args = 0, pretend = 0, frame = 0
  87              		@ frame_needed = 0, uses_anonymous_args = 0
  88              		.loc 1 43 87 is_stmt 0 view .LVU11
  89 0000 10B5     		push	{r4, lr}
  90              	.LCFI4:
  91              		.cfi_def_cfa_offset 8
  92              		.cfi_offset 4, -8
  93              		.cfi_offset 14, -4
  94 0002 82B0     		sub	sp, sp, #8
  95              	.LCFI5:
  96              		.cfi_def_cfa_offset 16
  44:SynaptiX_FDK/components/peripherals/i2c/sx_i2c.c ****     return i2c_receive((I2C_HandleTypeDef *)i2c->pDriver,
  97              		.loc 1 44 5 is_stmt 1 view .LVU12
  98              		.loc 1 44 48 is_stmt 0 view .LVU13
  99 0004 4068     		ldr	r0, [r0, #4]
 100              	.LVL5:
 101              		.loc 1 44 12 view .LVU14
 102 0006 6424     		movs	r4, #100
 103 0008 0094     		str	r4, [sp]
 104 000a 9BB2     		uxth	r3, r3
 105              	.LVL6:
 106              		.loc 1 44 12 view .LVU15
 107 000c FFF7FEFF 		bl	HAL_I2C_Master_Receive
 108              	.LVL7:
  45:SynaptiX_FDK/components/peripherals/i2c/sx_i2c.c ****                        dev_addr, data, (uint16_t)len,
  46:SynaptiX_FDK/components/peripherals/i2c/sx_i2c.c ****                        SX_I2C_TIMEOUT_MS) == HAL_OK ? 0 : -1;
 109              		.loc 1 46 57 view .LVU16
 110 0010 08B9     		cbnz	r0, .L10
 111              	.L6:
  47:SynaptiX_FDK/components/peripherals/i2c/sx_i2c.c **** }
 112              		.loc 1 47 1 view .LVU17
 113 0012 02B0     		add	sp, sp, #8
 114              	.LCFI6:
 115              		.cfi_remember_state
 116              		.cfi_def_cfa_offset 8
 117              		@ sp needed
 118 0014 10BD     		pop	{r4, pc}
 119              	.L10:
 120              	.LCFI7:
 121              		.cfi_restore_state
  46:SynaptiX_FDK/components/peripherals/i2c/sx_i2c.c **** }
 122              		.loc 1 46 57 discriminator 2 view .LVU18
 123 0016 4FF0FF30 		mov	r0, #-1
  46:SynaptiX_FDK/components/peripherals/i2c/sx_i2c.c **** }
ARM GAS  C:\Users\DELL\AppData\Local\Temp\ccg7Xuxi.s 			page 4


 124              		.loc 1 46 57 view .LVU19
 125 001a FAE7     		b	.L6
 126              		.cfi_endproc
 127              	.LFE305:
 129              		.section	.text._sx_i2c_mem_write,"ax",%progbits
 130              		.align	1
 131              		.syntax unified
 132              		.thumb
 133              		.thumb_func
 135              	_sx_i2c_mem_write:
 136              	.LVL8:
 137              	.LFB306:
  48:SynaptiX_FDK/components/peripherals/i2c/sx_i2c.c **** 
  49:SynaptiX_FDK/components/peripherals/i2c/sx_i2c.c **** static int _sx_i2c_mem_write(sx_i2c_t *i2c, uint16_t dev_addr, uint16_t mem_addr, uint16_t mem_addr
 138              		.loc 1 49 141 is_stmt 1 view -0
 139              		.cfi_startproc
 140              		@ args = 8, pretend = 0, frame = 0
 141              		@ frame_needed = 0, uses_anonymous_args = 0
 142              		.loc 1 49 141 is_stmt 0 view .LVU21
 143 0000 10B5     		push	{r4, lr}
 144              	.LCFI8:
 145              		.cfi_def_cfa_offset 8
 146              		.cfi_offset 4, -8
 147              		.cfi_offset 14, -4
 148 0002 84B0     		sub	sp, sp, #16
 149              	.LCFI9:
 150              		.cfi_def_cfa_offset 24
  50:SynaptiX_FDK/components/peripherals/i2c/sx_i2c.c ****     return i2c_mem_write((I2C_HandleTypeDef *)i2c->pDriver,
 151              		.loc 1 50 5 is_stmt 1 view .LVU22
 152              		.loc 1 50 50 is_stmt 0 view .LVU23
 153 0004 4068     		ldr	r0, [r0, #4]
 154              	.LVL9:
 155              		.loc 1 50 12 view .LVU24
 156 0006 6424     		movs	r4, #100
 157 0008 0294     		str	r4, [sp, #8]
 158 000a BDF81C40 		ldrh	r4, [sp, #28]
 159 000e 0194     		str	r4, [sp, #4]
 160 0010 069C     		ldr	r4, [sp, #24]
 161 0012 0094     		str	r4, [sp]
 162 0014 FFF7FEFF 		bl	HAL_I2C_Mem_Write
 163              	.LVL10:
  51:SynaptiX_FDK/components/peripherals/i2c/sx_i2c.c ****                          dev_addr, mem_addr, mem_addr_size,
  52:SynaptiX_FDK/components/peripherals/i2c/sx_i2c.c ****                          (uint8_t *)data, (uint16_t)len,
  53:SynaptiX_FDK/components/peripherals/i2c/sx_i2c.c ****                          SX_I2C_TIMEOUT_MS) == HAL_OK ? 0 : -1;
 164              		.loc 1 53 59 view .LVU25
 165 0018 08B9     		cbnz	r0, .L15
 166              	.L11:
  54:SynaptiX_FDK/components/peripherals/i2c/sx_i2c.c **** }
 167              		.loc 1 54 1 view .LVU26
 168 001a 04B0     		add	sp, sp, #16
 169              	.LCFI10:
 170              		.cfi_remember_state
 171              		.cfi_def_cfa_offset 8
 172              		@ sp needed
 173 001c 10BD     		pop	{r4, pc}
 174              	.LVL11:
 175              	.L15:
ARM GAS  C:\Users\DELL\AppData\Local\Temp\ccg7Xuxi.s 			page 5


 176              	.LCFI11:
 177              		.cfi_restore_state
  53:SynaptiX_FDK/components/peripherals/i2c/sx_i2c.c **** }
 178              		.loc 1 53 59 discriminator 2 view .LVU27
 179 001e 4FF0FF30 		mov	r0, #-1
  53:SynaptiX_FDK/components/peripherals/i2c/sx_i2c.c **** }
 180              		.loc 1 53 59 view .LVU28
 181 0022 FAE7     		b	.L11
 182              		.cfi_endproc
 183              	.LFE306:
 185              		.section	.text._sx_i2c_mem_read,"ax",%progbits
 186              		.align	1
 187              		.syntax unified
 188              		.thumb
 189              		.thumb_func
 191              	_sx_i2c_mem_read:
 192              	.LVL12:
 193              	.LFB307:
  55:SynaptiX_FDK/components/peripherals/i2c/sx_i2c.c **** 
  56:SynaptiX_FDK/components/peripherals/i2c/sx_i2c.c **** static int _sx_i2c_mem_read(sx_i2c_t *i2c, uint16_t dev_addr, uint16_t mem_addr, uint16_t mem_addr_
 194              		.loc 1 56 134 is_stmt 1 view -0
 195              		.cfi_startproc
 196              		@ args = 8, pretend = 0, frame = 0
 197              		@ frame_needed = 0, uses_anonymous_args = 0
 198              		.loc 1 56 134 is_stmt 0 view .LVU30
 199 0000 10B5     		push	{r4, lr}
 200              	.LCFI12:
 201              		.cfi_def_cfa_offset 8
 202              		.cfi_offset 4, -8
 203              		.cfi_offset 14, -4
 204 0002 84B0     		sub	sp, sp, #16
 205              	.LCFI13:
 206              		.cfi_def_cfa_offset 24
  57:SynaptiX_FDK/components/peripherals/i2c/sx_i2c.c ****     return i2c_mem_read((I2C_HandleTypeDef *)i2c->pDriver,
 207              		.loc 1 57 5 is_stmt 1 view .LVU31
 208              		.loc 1 57 49 is_stmt 0 view .LVU32
 209 0004 4068     		ldr	r0, [r0, #4]
 210              	.LVL13:
 211              		.loc 1 57 12 view .LVU33
 212 0006 6424     		movs	r4, #100
 213 0008 0294     		str	r4, [sp, #8]
 214 000a BDF81C40 		ldrh	r4, [sp, #28]
 215 000e 0194     		str	r4, [sp, #4]
 216 0010 069C     		ldr	r4, [sp, #24]
 217 0012 0094     		str	r4, [sp]
 218 0014 FFF7FEFF 		bl	HAL_I2C_Mem_Read
 219              	.LVL14:
  58:SynaptiX_FDK/components/peripherals/i2c/sx_i2c.c ****                         dev_addr, mem_addr, mem_addr_size,
  59:SynaptiX_FDK/components/peripherals/i2c/sx_i2c.c ****                         data, (uint16_t)len,
  60:SynaptiX_FDK/components/peripherals/i2c/sx_i2c.c ****                         SX_I2C_TIMEOUT_MS) == HAL_OK ? 0 : -1;
 220              		.loc 1 60 58 view .LVU34
 221 0018 08B9     		cbnz	r0, .L20
 222              	.L16:
  61:SynaptiX_FDK/components/peripherals/i2c/sx_i2c.c **** }
 223              		.loc 1 61 1 view .LVU35
 224 001a 04B0     		add	sp, sp, #16
 225              	.LCFI14:
ARM GAS  C:\Users\DELL\AppData\Local\Temp\ccg7Xuxi.s 			page 6


 226              		.cfi_remember_state
 227              		.cfi_def_cfa_offset 8
 228              		@ sp needed
 229 001c 10BD     		pop	{r4, pc}
 230              	.LVL15:
 231              	.L20:
 232              	.LCFI15:
 233              		.cfi_restore_state
  60:SynaptiX_FDK/components/peripherals/i2c/sx_i2c.c **** }
 234              		.loc 1 60 58 discriminator 2 view .LVU36
 235 001e 4FF0FF30 		mov	r0, #-1
  60:SynaptiX_FDK/components/peripherals/i2c/sx_i2c.c **** }
 236              		.loc 1 60 58 view .LVU37
 237 0022 FAE7     		b	.L16
 238              		.cfi_endproc
 239              	.LFE307:
 241              		.section	.text._sx_i2c_is_device_ready,"ax",%progbits
 242              		.align	1
 243              		.syntax unified
 244              		.thumb
 245              		.thumb_func
 247              	_sx_i2c_is_device_ready:
 248              	.LVL16:
 249              	.LFB308:
  62:SynaptiX_FDK/components/peripherals/i2c/sx_i2c.c **** 
  63:SynaptiX_FDK/components/peripherals/i2c/sx_i2c.c **** static int _sx_i2c_is_device_ready(sx_i2c_t *i2c, uint16_t dev_addr, uint8_t num_trial, uint32_t ti
 250              		.loc 1 63 106 is_stmt 1 view -0
 251              		.cfi_startproc
 252              		@ args = 0, pretend = 0, frame = 0
 253              		@ frame_needed = 0, uses_anonymous_args = 0
 254              		.loc 1 63 106 is_stmt 0 view .LVU39
 255 0000 08B5     		push	{r3, lr}
 256              	.LCFI16:
 257              		.cfi_def_cfa_offset 8
 258              		.cfi_offset 3, -8
 259              		.cfi_offset 14, -4
  64:SynaptiX_FDK/components/peripherals/i2c/sx_i2c.c ****     return i2c_is_device_ready((I2C_HandleTypeDef *)i2c->pDriver,
 260              		.loc 1 64 5 is_stmt 1 view .LVU40
 261              		.loc 1 64 12 is_stmt 0 view .LVU41
 262 0002 4068     		ldr	r0, [r0, #4]
 263              	.LVL17:
 264              		.loc 1 64 12 view .LVU42
 265 0004 FFF7FEFF 		bl	HAL_I2C_IsDeviceReady
 266              	.LVL18:
  65:SynaptiX_FDK/components/peripherals/i2c/sx_i2c.c ****                                 dev_addr, num_trial, timeout) == HAL_OK ? 0 : -1;
 267              		.loc 1 65 77 view .LVU43
 268 0008 00B9     		cbnz	r0, .L25
 269              	.L21:
  66:SynaptiX_FDK/components/peripherals/i2c/sx_i2c.c **** }
 270              		.loc 1 66 1 view .LVU44
 271 000a 08BD     		pop	{r3, pc}
 272              	.L25:
  65:SynaptiX_FDK/components/peripherals/i2c/sx_i2c.c ****                                 dev_addr, num_trial, timeout) == HAL_OK ? 0 : -1;
 273              		.loc 1 65 77 discriminator 2 view .LVU45
 274 000c 4FF0FF30 		mov	r0, #-1
  65:SynaptiX_FDK/components/peripherals/i2c/sx_i2c.c ****                                 dev_addr, num_trial, timeout) == HAL_OK ? 0 : -1;
 275              		.loc 1 65 77 view .LVU46
ARM GAS  C:\Users\DELL\AppData\Local\Temp\ccg7Xuxi.s 			page 7


 276 0010 FBE7     		b	.L21
 277              		.cfi_endproc
 278              	.LFE308:
 280              		.global	sx_i2c_ops
 281              		.section	.data.sx_i2c_ops,"aw"
 282              		.align	2
 285              	sx_i2c_ops:
 286 0000 00000000 		.word	_sx_i2c_write
 287 0004 00000000 		.word	_sx_i2c_read
 288 0008 00000000 		.word	_sx_i2c_mem_write
 289 000c 00000000 		.word	_sx_i2c_mem_read
 290 0010 00000000 		.word	_sx_i2c_is_device_ready
 291              		.text
 292              	.Letext0:
 293              		.file 2 "D:\\stm32cubeclt\\STM32CubeCLT_1.21.0\\GNU-tools-for-STM32\\bin\\../lib/gcc/arm-none-eabi
 294              		.file 3 "D:\\stm32cubeclt\\STM32CubeCLT_1.21.0\\GNU-tools-for-STM32\\bin\\../lib/gcc/arm-none-eabi
 295              		.file 4 "SynaptiX_FDK/components/peripherals/i2c/sx_i2c.h"
 296              		.file 5 "Drivers/CMSIS/Device/ST/STM32H5xx/Include/stm32h563xx.h"
 297              		.file 6 "Drivers/STM32H5xx_HAL_Driver/Inc/stm32h5xx_hal_def.h"
 298              		.file 7 "Drivers/STM32H5xx_HAL_Driver/Inc/stm32h5xx_hal_dma.h"
 299              		.file 8 "Drivers/STM32H5xx_HAL_Driver/Inc/stm32h5xx_hal_dma_ex.h"
 300              		.file 9 "Drivers/STM32H5xx_HAL_Driver/Inc/stm32h5xx_hal_i2c.h"
 301              		.file 10 "Drivers/STM32H5xx_HAL_Driver/Inc/stm32h5xx_ll_lptim.h"
ARM GAS  C:\Users\DELL\AppData\Local\Temp\ccg7Xuxi.s 			page 8

