ARM GAS  C:\Users\DELL\AppData\Local\Temp\ccesksot.s 			page 1


   1              		.cpu cortex-m33
   2              		.arch armv8-m.main
   3              		.fpu fpv5-sp-d16
   4              		.arch_extension dsp
   5              		.eabi_attribute 27, 1
   6              		.eabi_attribute 28, 1
   7              		.eabi_attribute 20, 1
   8              		.eabi_attribute 21, 1
   9              		.eabi_attribute 23, 3
  10              		.eabi_attribute 24, 1
  11              		.eabi_attribute 25, 1
  12              		.eabi_attribute 26, 1
  13              		.eabi_attribute 30, 1
  14              		.eabi_attribute 34, 1
  15              		.eabi_attribute 18, 4
  16              		.file	"sx_mem.c"
  17              		.text
  18              	.Ltext0:
  19              		.cfi_sections	.debug_frame
  20              		.file 1 "SynaptiX_FDK/utils/mem/sx_mem.c"
  21              		.section	.text.sx_mem_set_ops,"ax",%progbits
  22              		.align	1
  23              		.global	sx_mem_set_ops
  24              		.syntax unified
  25              		.thumb
  26              		.thumb_func
  28              	sx_mem_set_ops:
  29              	.LVL0:
  30              	.LFB0:
   1:SynaptiX_FDK/utils/mem/sx_mem.c **** #include "sx_mem.h"
   2:SynaptiX_FDK/utils/mem/sx_mem.c **** #include <stdlib.h>
   3:SynaptiX_FDK/utils/mem/sx_mem.c **** 
   4:SynaptiX_FDK/utils/mem/sx_mem.c **** sx_mem_ops_t g_current_mem_ops = {
   5:SynaptiX_FDK/utils/mem/sx_mem.c ****     .malloc = malloc,
   6:SynaptiX_FDK/utils/mem/sx_mem.c ****     .free = free,
   7:SynaptiX_FDK/utils/mem/sx_mem.c ****     .calloc = calloc
   8:SynaptiX_FDK/utils/mem/sx_mem.c **** };
   9:SynaptiX_FDK/utils/mem/sx_mem.c **** 
  10:SynaptiX_FDK/utils/mem/sx_mem.c **** void sx_mem_set_ops(sx_mem_ops_t *ops){
  31              		.loc 1 10 39 view -0
  32              		.cfi_startproc
  33              		@ args = 0, pretend = 0, frame = 0
  34              		@ frame_needed = 0, uses_anonymous_args = 0
  35              		@ link register save eliminated.
  11:SynaptiX_FDK/utils/mem/sx_mem.c ****     g_current_mem_ops.calloc = ops->calloc ? ops->calloc : calloc;
  36              		.loc 1 11 5 view .LVU1
  37              		.loc 1 11 35 is_stmt 0 view .LVU2
  38 0000 8368     		ldr	r3, [r0, #8]
  39              		.loc 1 11 58 view .LVU3
  40 0002 53B1     		cbz	r3, .L5
  41              	.L2:
  42              		.loc 1 11 30 discriminator 4 view .LVU4
  43 0004 084A     		ldr	r2, .L8
  44 0006 9360     		str	r3, [r2, #8]
  12:SynaptiX_FDK/utils/mem/sx_mem.c ****     g_current_mem_ops.free = ops->free ? ops->free : free;
  45              		.loc 1 12 5 is_stmt 1 view .LVU5
  46              		.loc 1 12 33 is_stmt 0 view .LVU6
ARM GAS  C:\Users\DELL\AppData\Local\Temp\ccesksot.s 			page 2


  47 0008 4368     		ldr	r3, [r0, #4]
  48              		.loc 1 12 52 view .LVU7
  49 000a 43B1     		cbz	r3, .L6
  50              	.L3:
  51              		.loc 1 12 28 discriminator 4 view .LVU8
  52 000c 064A     		ldr	r2, .L8
  53 000e 5360     		str	r3, [r2, #4]
  13:SynaptiX_FDK/utils/mem/sx_mem.c ****     g_current_mem_ops.malloc = ops->malloc ? ops->malloc : malloc;
  54              		.loc 1 13 5 is_stmt 1 view .LVU9
  55              		.loc 1 13 35 is_stmt 0 view .LVU10
  56 0010 0368     		ldr	r3, [r0]
  57              		.loc 1 13 58 view .LVU11
  58 0012 33B1     		cbz	r3, .L7
  59              	.L4:
  60              		.loc 1 13 30 discriminator 4 view .LVU12
  61 0014 044A     		ldr	r2, .L8
  62 0016 1360     		str	r3, [r2]
  14:SynaptiX_FDK/utils/mem/sx_mem.c **** }
  63              		.loc 1 14 1 view .LVU13
  64 0018 7047     		bx	lr
  65              	.L5:
  11:SynaptiX_FDK/utils/mem/sx_mem.c ****     g_current_mem_ops.free = ops->free ? ops->free : free;
  66              		.loc 1 11 58 discriminator 2 view .LVU14
  67 001a 044B     		ldr	r3, .L8+4
  68 001c F2E7     		b	.L2
  69              	.L6:
  12:SynaptiX_FDK/utils/mem/sx_mem.c ****     g_current_mem_ops.malloc = ops->malloc ? ops->malloc : malloc;
  70              		.loc 1 12 52 discriminator 2 view .LVU15
  71 001e 044B     		ldr	r3, .L8+8
  72 0020 F4E7     		b	.L3
  73              	.L7:
  13:SynaptiX_FDK/utils/mem/sx_mem.c **** }
  74              		.loc 1 13 58 discriminator 2 view .LVU16
  75 0022 044B     		ldr	r3, .L8+12
  76 0024 F6E7     		b	.L4
  77              	.L9:
  78 0026 00BF     		.align	2
  79              	.L8:
  80 0028 00000000 		.word	g_current_mem_ops
  81 002c 00000000 		.word	calloc
  82 0030 00000000 		.word	free
  83 0034 00000000 		.word	malloc
  84              		.cfi_endproc
  85              	.LFE0:
  87              		.section	.text.sx_malloc,"ax",%progbits
  88              		.align	1
  89              		.global	sx_malloc
  90              		.syntax unified
  91              		.thumb
  92              		.thumb_func
  94              	sx_malloc:
  95              	.LVL1:
  96              	.LFB1:
  15:SynaptiX_FDK/utils/mem/sx_mem.c **** void *sx_malloc(size_t size){
  97              		.loc 1 15 29 is_stmt 1 view -0
  98              		.cfi_startproc
  99              		@ args = 0, pretend = 0, frame = 0
ARM GAS  C:\Users\DELL\AppData\Local\Temp\ccesksot.s 			page 3


 100              		@ frame_needed = 0, uses_anonymous_args = 0
 101              		.loc 1 15 29 is_stmt 0 view .LVU18
 102 0000 08B5     		push	{r3, lr}
 103              	.LCFI0:
 104              		.cfi_def_cfa_offset 8
 105              		.cfi_offset 3, -8
 106              		.cfi_offset 14, -4
  16:SynaptiX_FDK/utils/mem/sx_mem.c ****     return g_current_mem_ops.malloc(size);
 107              		.loc 1 16 5 is_stmt 1 view .LVU19
 108              		.loc 1 16 29 is_stmt 0 view .LVU20
 109 0002 024B     		ldr	r3, .L12
 110 0004 1B68     		ldr	r3, [r3]
 111              		.loc 1 16 12 view .LVU21
 112 0006 9847     		blx	r3
 113              	.LVL2:
  17:SynaptiX_FDK/utils/mem/sx_mem.c **** }
 114              		.loc 1 17 1 view .LVU22
 115 0008 08BD     		pop	{r3, pc}
 116              	.L13:
 117 000a 00BF     		.align	2
 118              	.L12:
 119 000c 00000000 		.word	g_current_mem_ops
 120              		.cfi_endproc
 121              	.LFE1:
 123              		.section	.text.sx_free,"ax",%progbits
 124              		.align	1
 125              		.global	sx_free
 126              		.syntax unified
 127              		.thumb
 128              		.thumb_func
 130              	sx_free:
 131              	.LVL3:
 132              	.LFB2:
  18:SynaptiX_FDK/utils/mem/sx_mem.c **** void sx_free(void *ptr){
 133              		.loc 1 18 24 is_stmt 1 view -0
 134              		.cfi_startproc
 135              		@ args = 0, pretend = 0, frame = 0
 136              		@ frame_needed = 0, uses_anonymous_args = 0
 137              		.loc 1 18 24 is_stmt 0 view .LVU24
 138 0000 08B5     		push	{r3, lr}
 139              	.LCFI1:
 140              		.cfi_def_cfa_offset 8
 141              		.cfi_offset 3, -8
 142              		.cfi_offset 14, -4
  19:SynaptiX_FDK/utils/mem/sx_mem.c ****     g_current_mem_ops.free(ptr);
 143              		.loc 1 19 5 is_stmt 1 view .LVU25
 144              		.loc 1 19 22 is_stmt 0 view .LVU26
 145 0002 024B     		ldr	r3, .L16
 146 0004 5B68     		ldr	r3, [r3, #4]
 147              		.loc 1 19 5 view .LVU27
 148 0006 9847     		blx	r3
 149              	.LVL4:
  20:SynaptiX_FDK/utils/mem/sx_mem.c **** }
 150              		.loc 1 20 1 view .LVU28
 151 0008 08BD     		pop	{r3, pc}
 152              	.L17:
 153 000a 00BF     		.align	2
ARM GAS  C:\Users\DELL\AppData\Local\Temp\ccesksot.s 			page 4


 154              	.L16:
 155 000c 00000000 		.word	g_current_mem_ops
 156              		.cfi_endproc
 157              	.LFE2:
 159              		.section	.text.sx_calloc,"ax",%progbits
 160              		.align	1
 161              		.global	sx_calloc
 162              		.syntax unified
 163              		.thumb
 164              		.thumb_func
 166              	sx_calloc:
 167              	.LVL5:
 168              	.LFB3:
  21:SynaptiX_FDK/utils/mem/sx_mem.c **** void *sx_calloc(size_t num, size_t size){
 169              		.loc 1 21 41 is_stmt 1 view -0
 170              		.cfi_startproc
 171              		@ args = 0, pretend = 0, frame = 0
 172              		@ frame_needed = 0, uses_anonymous_args = 0
 173              		.loc 1 21 41 is_stmt 0 view .LVU30
 174 0000 08B5     		push	{r3, lr}
 175              	.LCFI2:
 176              		.cfi_def_cfa_offset 8
 177              		.cfi_offset 3, -8
 178              		.cfi_offset 14, -4
  22:SynaptiX_FDK/utils/mem/sx_mem.c ****     return g_current_mem_ops.calloc(num, size);
 179              		.loc 1 22 5 is_stmt 1 view .LVU31
 180              		.loc 1 22 29 is_stmt 0 view .LVU32
 181 0002 024B     		ldr	r3, .L20
 182 0004 9B68     		ldr	r3, [r3, #8]
 183              		.loc 1 22 12 view .LVU33
 184 0006 9847     		blx	r3
 185              	.LVL6:
  23:SynaptiX_FDK/utils/mem/sx_mem.c **** }...
 186              		.loc 1 23 1 view .LVU34
 187 0008 08BD     		pop	{r3, pc}
 188              	.L21:
 189 000a 00BF     		.align	2
 190              	.L20:
 191 000c 00000000 		.word	g_current_mem_ops
 192              		.cfi_endproc
 193              	.LFE3:
 195              		.global	g_current_mem_ops
 196              		.section	.data.g_current_mem_ops,"aw"
 197              		.align	2
 200              	g_current_mem_ops:
 201 0000 00000000 		.word	malloc
 202 0004 00000000 		.word	free
 203 0008 00000000 		.word	calloc
 204              		.text
 205              	.Letext0:
 206              		.file 2 "D:\\stm32cubeclt\\STM32CubeCLT_1.21.0\\GNU-tools-for-STM32\\bin\\../lib/gcc/arm-none-eabi
 207              		.file 3 "SynaptiX_FDK/utils/mem/sx_mem.h"
 208              		.file 4 "D:\\stm32cubeclt\\STM32CubeCLT_1.21.0\\GNU-tools-for-STM32\\bin\\../lib/gcc/arm-none-eabi
ARM GAS  C:\Users\DELL\AppData\Local\Temp\ccesksot.s 			page 5

