ARM GAS  C:\Users\DELL\AppData\Local\Temp\ccitbtwj.s 			page 1


   1              		.cpu cortex-m33
   2              		.arch armv8-m.main
   3              		.fpu fpv5-sp-d16
   4              		.arch_extension dsp
   5              		.eabi_attribute 27, 1
   6              		.eabi_attribute 28, 1
   7              		.eabi_attribute 20, 1
   8              		.eabi_attribute 21, 1
   9              		.eabi_attribute 23, 3
  10              		.eabi_attribute 24, 1
  11              		.eabi_attribute 25, 1
  12              		.eabi_attribute 26, 1
  13              		.eabi_attribute 30, 1
  14              		.eabi_attribute 34, 1
  15              		.eabi_attribute 18, 4
  16              		.file	"sx_mqtt.c"
  17              		.text
  18              	.Ltext0:
  19              		.cfi_sections	.debug_frame
  20              		.file 1 "SynaptiX_FDK/services/mqtt/sx_mqtt.c"
  21              		.section	.rodata.on_connlost.str1.4,"aMS",%progbits,1
  22              		.align	2
  23              	.LC0:
  24 0000 4D515454 		.ascii	"MQTT connection lost\000"
  24      20636F6E 
  24      6E656374 
  24      696F6E20 
  24      6C6F7374 
  25 0015 000000   		.align	2
  26              	.LC1:
  27 0018 53585F4D 		.ascii	"SX_MQTT\000"
  27      51545400 
  28              		.section	.text.on_connlost,"ax",%progbits
  29              		.align	1
  30              		.syntax unified
  31              		.thumb
  32              		.thumb_func
  34              	on_connlost:
  35              	.LVL0:
  36              	.LFB17:
   1:SynaptiX_FDK/services/mqtt/sx_mqtt.c **** #include "sx_mqtt.h"
   2:SynaptiX_FDK/services/mqtt/sx_mqtt.c **** #include "logger.h"
   3:SynaptiX_FDK/services/mqtt/sx_mqtt.c **** #include "string.h"
   4:SynaptiX_FDK/services/mqtt/sx_mqtt.c **** #include "stdio.h"
   5:SynaptiX_FDK/services/mqtt/sx_mqtt.c **** #include "stdlib.h"
   6:SynaptiX_FDK/services/mqtt/sx_mqtt.c **** 
   7:SynaptiX_FDK/services/mqtt/sx_mqtt.c **** #define SX_MQTT_RECONNECT_DELAY_BASE    1000U
   8:SynaptiX_FDK/services/mqtt/sx_mqtt.c **** #define SX_MQTT_RECONNECT_DELAY_MAX     5000U
   9:SynaptiX_FDK/services/mqtt/sx_mqtt.c **** #define SX_MQTT_MAX_RETRY_BEFORE_RESTART 3U
  10:SynaptiX_FDK/services/mqtt/sx_mqtt.c **** #define SX_MQTT_MAX_RESTARTS_BEFORE_HARD_RESET 3U  /* consecutive PWRKEY
  11:SynaptiX_FDK/services/mqtt/sx_mqtt.c ****     power-cycle recoveries (each already SX_MQTT_MAX_RETRY_BEFORE_RESTART
  12:SynaptiX_FDK/services/mqtt/sx_mqtt.c ****     connect failures in a row) that themselves failed to reach a connected
  13:SynaptiX_FDK/services/mqtt/sx_mqtt.c ****     state, before escalating to modem_ops_t.hard_reset() (physical RST pin).
  14:SynaptiX_FDK/services/mqtt/sx_mqtt.c ****     Matches A7677S_MAX_RETRY's spirit (3 consecutive failures at a given
  15:SynaptiX_FDK/services/mqtt/sx_mqtt.c ****     layer before escalating one level up) but is a service-layer constant of
  16:SynaptiX_FDK/services/mqtt/sx_mqtt.c ****     its own, since this layer must not include any driver header (a7677s.h)
  17:SynaptiX_FDK/services/mqtt/sx_mqtt.c ****     to get it — see modem_ops_t's design note on the service layer only
ARM GAS  C:\Users\DELL\AppData\Local\Temp\ccitbtwj.s 			page 2


  18:SynaptiX_FDK/services/mqtt/sx_mqtt.c ****     ever knowing modem_ops.h. */
  19:SynaptiX_FDK/services/mqtt/sx_mqtt.c **** 
  20:SynaptiX_FDK/services/mqtt/sx_mqtt.c **** static const char *TAG = "SX_MQTT";
  21:SynaptiX_FDK/services/mqtt/sx_mqtt.c **** 
  22:SynaptiX_FDK/services/mqtt/sx_mqtt.c **** /* modem_ops_t.mqtt_cb_t only carries (result, ctx) where ctx is the
  23:SynaptiX_FDK/services/mqtt/sx_mqtt.c ****  * driver's own context pointer (e.g. a7677s_t*), not a user_ctx we control
  24:SynaptiX_FDK/services/mqtt/sx_mqtt.c ****  * (see mqtt_op_done() in a7677s.c: cb(result, dce)). So, same as the old
  25:SynaptiX_FDK/services/mqtt/sx_mqtt.c ****  * sim76xx-based version, this service layer keeps a single static instance
  26:SynaptiX_FDK/services/mqtt/sx_mqtt.c ****  * pointer to recover "which sx_mqtt_t is this callback for". This mirrors
  27:SynaptiX_FDK/services/mqtt/sx_mqtt.c ****  * the pre-existing s_instance pattern; only one sx_mqtt_t is ever active at
  28:SynaptiX_FDK/services/mqtt/sx_mqtt.c ****  * a time in this project. */
  29:SynaptiX_FDK/services/mqtt/sx_mqtt.c **** static sx_mqtt_t *s_instance = NULL;
  30:SynaptiX_FDK/services/mqtt/sx_mqtt.c **** 
  31:SynaptiX_FDK/services/mqtt/sx_mqtt.c **** static void do_error(sx_mqtt_t *mqtt);
  32:SynaptiX_FDK/services/mqtt/sx_mqtt.c **** 
  33:SynaptiX_FDK/services/mqtt/sx_mqtt.c **** /* --- modem_ops_t.mqtt_cb_t callbacks (result, ctx) --- */
  34:SynaptiX_FDK/services/mqtt/sx_mqtt.c **** static void cb_connect_done(modem_ops_result_t result, void *ctx);
  35:SynaptiX_FDK/services/mqtt/sx_mqtt.c **** static void cb_disconnect_done(modem_ops_result_t result, void *ctx);
  36:SynaptiX_FDK/services/mqtt/sx_mqtt.c **** static void cb_publish_done(modem_ops_result_t result, void *ctx);
  37:SynaptiX_FDK/services/mqtt/sx_mqtt.c **** static void cb_subscribe_done(modem_ops_result_t result, void *ctx);
  38:SynaptiX_FDK/services/mqtt/sx_mqtt.c **** 
  39:SynaptiX_FDK/services/mqtt/sx_mqtt.c **** /* --- mqtt_incoming_cb_t / mqtt_connlost_cb_t (registered once via
  40:SynaptiX_FDK/services/mqtt/sx_mqtt.c ****  * mqtt_set_callbacks(), fired directly by the driver's own URC parsing —
  41:SynaptiX_FDK/services/mqtt/sx_mqtt.c ****  * see a7677s.c's urc line handler around +CMQTTRXEND/+CMQTTCONNLOST). --- */
  42:SynaptiX_FDK/services/mqtt/sx_mqtt.c **** static void on_incoming(const char *topic, uint16_t topic_len,
  43:SynaptiX_FDK/services/mqtt/sx_mqtt.c ****                         const char *payload, uint16_t payload_len, void *ctx);
  44:SynaptiX_FDK/services/mqtt/sx_mqtt.c **** static void on_connlost(void *ctx);
  45:SynaptiX_FDK/services/mqtt/sx_mqtt.c **** 
  46:SynaptiX_FDK/services/mqtt/sx_mqtt.c **** /*
  47:SynaptiX_FDK/services/mqtt/sx_mqtt.c ****  * Connect flow:
  48:SynaptiX_FDK/services/mqtt/sx_mqtt.c ****  *   sx_mqtt_connect() -> modem->ops->mqtt_connect(...) -> cb_connect_done()
  49:SynaptiX_FDK/services/mqtt/sx_mqtt.c ****  *
  50:SynaptiX_FDK/services/mqtt/sx_mqtt.c ****  * Everything that used to be a multi-step state machine here (CMQTTSTART,
  51:SynaptiX_FDK/services/mqtt/sx_mqtt.c ****  * cert upload, CSSLCFG, CMQTTACCQ, CMQTTCFG version, CMQTTCONNECT) now
  52:SynaptiX_FDK/services/mqtt/sx_mqtt.c ****  * happens inside the driver behind this single call. Swapping to a
  53:SynaptiX_FDK/services/mqtt/sx_mqtt.c ****  * different modem module later only means writing a new driver with the
  54:SynaptiX_FDK/services/mqtt/sx_mqtt.c ****  * same modem_ops_t contract — this file does not need to change.
  55:SynaptiX_FDK/services/mqtt/sx_mqtt.c ****  */
  56:SynaptiX_FDK/services/mqtt/sx_mqtt.c **** 
  57:SynaptiX_FDK/services/mqtt/sx_mqtt.c **** static void cb_connect_done(modem_ops_result_t result, void *ctx)
  58:SynaptiX_FDK/services/mqtt/sx_mqtt.c **** {
  59:SynaptiX_FDK/services/mqtt/sx_mqtt.c ****     (void)ctx;
  60:SynaptiX_FDK/services/mqtt/sx_mqtt.c ****     sx_mqtt_t *mqtt = s_instance;
  61:SynaptiX_FDK/services/mqtt/sx_mqtt.c ****     if (!mqtt) return;
  62:SynaptiX_FDK/services/mqtt/sx_mqtt.c **** 
  63:SynaptiX_FDK/services/mqtt/sx_mqtt.c ****     if (result != MODEM_OPS_OK) {
  64:SynaptiX_FDK/services/mqtt/sx_mqtt.c ****         log_error(TAG, "mqtt_connect failed (result=%d)", result);
  65:SynaptiX_FDK/services/mqtt/sx_mqtt.c ****         do_error(mqtt);
  66:SynaptiX_FDK/services/mqtt/sx_mqtt.c ****         return;
  67:SynaptiX_FDK/services/mqtt/sx_mqtt.c ****     }
  68:SynaptiX_FDK/services/mqtt/sx_mqtt.c **** 
  69:SynaptiX_FDK/services/mqtt/sx_mqtt.c ****     log_info(TAG, "MQTT connected");
  70:SynaptiX_FDK/services/mqtt/sx_mqtt.c ****     mqtt->state = SX_MQTT_STATE_CONNECTED;
  71:SynaptiX_FDK/services/mqtt/sx_mqtt.c ****     if (mqtt->on_connected) mqtt->on_connected(mqtt);
  72:SynaptiX_FDK/services/mqtt/sx_mqtt.c **** }
  73:SynaptiX_FDK/services/mqtt/sx_mqtt.c **** 
  74:SynaptiX_FDK/services/mqtt/sx_mqtt.c **** static void cb_disconnect_done(modem_ops_result_t result, void *ctx)
ARM GAS  C:\Users\DELL\AppData\Local\Temp\ccitbtwj.s 			page 3


  75:SynaptiX_FDK/services/mqtt/sx_mqtt.c **** {
  76:SynaptiX_FDK/services/mqtt/sx_mqtt.c ****     (void)ctx;
  77:SynaptiX_FDK/services/mqtt/sx_mqtt.c ****     sx_mqtt_t *mqtt = s_instance;
  78:SynaptiX_FDK/services/mqtt/sx_mqtt.c ****     if (!mqtt) return;
  79:SynaptiX_FDK/services/mqtt/sx_mqtt.c **** 
  80:SynaptiX_FDK/services/mqtt/sx_mqtt.c ****     if (result != MODEM_OPS_OK)
  81:SynaptiX_FDK/services/mqtt/sx_mqtt.c ****         log_warn(TAG, "mqtt_disconnect failed (result=%d) — forcing disconnect", result);
  82:SynaptiX_FDK/services/mqtt/sx_mqtt.c **** 
  83:SynaptiX_FDK/services/mqtt/sx_mqtt.c ****     log_info(TAG, "MQTT disconnected");
  84:SynaptiX_FDK/services/mqtt/sx_mqtt.c ****     mqtt->state = SX_MQTT_STATE_DISCONNECTED;
  85:SynaptiX_FDK/services/mqtt/sx_mqtt.c ****     if (mqtt->on_disconnected) mqtt->on_disconnected(mqtt);
  86:SynaptiX_FDK/services/mqtt/sx_mqtt.c **** }
  87:SynaptiX_FDK/services/mqtt/sx_mqtt.c **** 
  88:SynaptiX_FDK/services/mqtt/sx_mqtt.c **** static void cb_publish_done(modem_ops_result_t result, void *ctx)
  89:SynaptiX_FDK/services/mqtt/sx_mqtt.c **** {
  90:SynaptiX_FDK/services/mqtt/sx_mqtt.c ****     (void)ctx;
  91:SynaptiX_FDK/services/mqtt/sx_mqtt.c ****     sx_mqtt_t *mqtt = s_instance;
  92:SynaptiX_FDK/services/mqtt/sx_mqtt.c ****     if (!mqtt) return;
  93:SynaptiX_FDK/services/mqtt/sx_mqtt.c **** 
  94:SynaptiX_FDK/services/mqtt/sx_mqtt.c ****     int ok = (result == MODEM_OPS_OK);
  95:SynaptiX_FDK/services/mqtt/sx_mqtt.c ****     if (ok) log_debug(TAG, "Publish OK");
  96:SynaptiX_FDK/services/mqtt/sx_mqtt.c ****     else    log_error(TAG, "Publish failed (result=%d)", result);
  97:SynaptiX_FDK/services/mqtt/sx_mqtt.c **** 
  98:SynaptiX_FDK/services/mqtt/sx_mqtt.c ****     if (mqtt->on_publish) mqtt->on_publish(mqtt, ok);
  99:SynaptiX_FDK/services/mqtt/sx_mqtt.c **** }
 100:SynaptiX_FDK/services/mqtt/sx_mqtt.c **** 
 101:SynaptiX_FDK/services/mqtt/sx_mqtt.c **** static void cb_subscribe_done(modem_ops_result_t result, void *ctx)
 102:SynaptiX_FDK/services/mqtt/sx_mqtt.c **** {
 103:SynaptiX_FDK/services/mqtt/sx_mqtt.c ****     (void)ctx;
 104:SynaptiX_FDK/services/mqtt/sx_mqtt.c ****     if (result == MODEM_OPS_OK)
 105:SynaptiX_FDK/services/mqtt/sx_mqtt.c ****         log_debug(TAG, "Subscribe OK");
 106:SynaptiX_FDK/services/mqtt/sx_mqtt.c ****     else
 107:SynaptiX_FDK/services/mqtt/sx_mqtt.c ****         log_error(TAG, "Subscribe failed (result=%d)", result);
 108:SynaptiX_FDK/services/mqtt/sx_mqtt.c **** }
 109:SynaptiX_FDK/services/mqtt/sx_mqtt.c **** 
 110:SynaptiX_FDK/services/mqtt/sx_mqtt.c **** /*
 111:SynaptiX_FDK/services/mqtt/sx_mqtt.c ****  * Inbound message / connection-lost callbacks — registered once in
 112:SynaptiX_FDK/services/mqtt/sx_mqtt.c ****  * sx_mqtt_init() via modem->ops->mqtt_set_callbacks(). The driver has
 113:SynaptiX_FDK/services/mqtt/sx_mqtt.c ****  * already fully reassembled +CMQTTRXSTART/+CMQTTRXTOPIC/+CMQTTRXPAYLOAD/
 114:SynaptiX_FDK/services/mqtt/sx_mqtt.c ****  * +CMQTTRXEND (including multi-fragment topics/payloads) by the time this
 115:SynaptiX_FDK/services/mqtt/sx_mqtt.c ****  * fires — this layer does not parse any AT/URC text anymore.
 116:SynaptiX_FDK/services/mqtt/sx_mqtt.c ****  */
 117:SynaptiX_FDK/services/mqtt/sx_mqtt.c **** static void on_incoming(const char *topic, uint16_t topic_len,
 118:SynaptiX_FDK/services/mqtt/sx_mqtt.c ****                         const char *payload, uint16_t payload_len, void *ctx)
 119:SynaptiX_FDK/services/mqtt/sx_mqtt.c **** {
 120:SynaptiX_FDK/services/mqtt/sx_mqtt.c ****     (void)ctx; (void)topic_len; (void)payload_len;
 121:SynaptiX_FDK/services/mqtt/sx_mqtt.c ****     sx_mqtt_t *mqtt = s_instance;
 122:SynaptiX_FDK/services/mqtt/sx_mqtt.c ****     if (!mqtt) return;
 123:SynaptiX_FDK/services/mqtt/sx_mqtt.c **** 
 124:SynaptiX_FDK/services/mqtt/sx_mqtt.c ****     log_debug(TAG, "RX topic='%s' payload='%s'", topic, payload);
 125:SynaptiX_FDK/services/mqtt/sx_mqtt.c ****     if (mqtt->on_message) mqtt->on_message(mqtt, topic, payload);
 126:SynaptiX_FDK/services/mqtt/sx_mqtt.c **** }
 127:SynaptiX_FDK/services/mqtt/sx_mqtt.c **** 
 128:SynaptiX_FDK/services/mqtt/sx_mqtt.c **** static void on_connlost(void *ctx)
 129:SynaptiX_FDK/services/mqtt/sx_mqtt.c **** {
  37              		.loc 1 129 1 view -0
  38              		.cfi_startproc
ARM GAS  C:\Users\DELL\AppData\Local\Temp\ccitbtwj.s 			page 4


  39              		@ args = 0, pretend = 0, frame = 0
  40              		@ frame_needed = 0, uses_anonymous_args = 0
  41              		.loc 1 129 1 is_stmt 0 view .LVU1
  42 0000 10B5     		push	{r4, lr}
  43              	.LCFI0:
  44              		.cfi_def_cfa_offset 8
  45              		.cfi_offset 4, -8
  46              		.cfi_offset 14, -4
 130:SynaptiX_FDK/services/mqtt/sx_mqtt.c ****     (void)ctx;
  47              		.loc 1 130 5 is_stmt 1 view .LVU2
 131:SynaptiX_FDK/services/mqtt/sx_mqtt.c ****     sx_mqtt_t *mqtt = s_instance;
  48              		.loc 1 131 5 view .LVU3
  49              		.loc 1 131 16 is_stmt 0 view .LVU4
  50 0002 084B     		ldr	r3, .L4
  51 0004 1C68     		ldr	r4, [r3]
  52              	.LVL1:
 132:SynaptiX_FDK/services/mqtt/sx_mqtt.c ****     if (!mqtt) return;
  53              		.loc 1 132 5 is_stmt 1 view .LVU5
  54              		.loc 1 132 8 is_stmt 0 view .LVU6
  55 0006 5CB1     		cbz	r4, .L1
 133:SynaptiX_FDK/services/mqtt/sx_mqtt.c **** 
 134:SynaptiX_FDK/services/mqtt/sx_mqtt.c ****     log_warn(TAG, "MQTT connection lost");
  56              		.loc 1 134 5 is_stmt 1 view .LVU7
  57 0008 074A     		ldr	r2, .L4+4
  58 000a 0849     		ldr	r1, .L4+8
  59 000c 0220     		movs	r0, #2
  60              	.LVL2:
  61              		.loc 1 134 5 is_stmt 0 view .LVU8
  62 000e FFF7FEFF 		bl	log_func
  63              	.LVL3:
 135:SynaptiX_FDK/services/mqtt/sx_mqtt.c ****     mqtt->state = SX_MQTT_STATE_DISCONNECTED;
  64              		.loc 1 135 5 is_stmt 1 view .LVU9
  65              		.loc 1 135 17 is_stmt 0 view .LVU10
  66 0012 0023     		movs	r3, #0
  67 0014 84F82C30 		strb	r3, [r4, #44]
 136:SynaptiX_FDK/services/mqtt/sx_mqtt.c ****     if (mqtt->on_disconnected) mqtt->on_disconnected(mqtt);
  68              		.loc 1 136 5 is_stmt 1 view .LVU11
  69              		.loc 1 136 13 is_stmt 0 view .LVU12
  70 0018 236C     		ldr	r3, [r4, #64]
  71              		.loc 1 136 8 view .LVU13
  72 001a 0BB1     		cbz	r3, .L1
  73              		.loc 1 136 32 is_stmt 1 discriminator 1 view .LVU14
  74 001c 2046     		mov	r0, r4
  75 001e 9847     		blx	r3
  76              	.LVL4:
  77              	.L1:
 137:SynaptiX_FDK/services/mqtt/sx_mqtt.c **** }
  78              		.loc 1 137 1 is_stmt 0 view .LVU15
  79 0020 10BD     		pop	{r4, pc}
  80              	.LVL5:
  81              	.L5:
  82              		.loc 1 137 1 view .LVU16
  83 0022 00BF     		.align	2
  84              	.L4:
  85 0024 00000000 		.word	s_instance
  86 0028 00000000 		.word	.LC0
  87 002c 18000000 		.word	.LC1
ARM GAS  C:\Users\DELL\AppData\Local\Temp\ccitbtwj.s 			page 5


  88              		.cfi_endproc
  89              	.LFE17:
  91              		.section	.rodata.on_incoming.str1.4,"aMS",%progbits,1
  92              		.align	2
  93              	.LC2:
  94 0000 52582074 		.ascii	"RX topic='%s' payload='%s'\000"
  94      6F706963 
  94      3D272573 
  94      27207061 
  94      796C6F61 
  95              		.section	.text.on_incoming,"ax",%progbits
  96              		.align	1
  97              		.syntax unified
  98              		.thumb
  99              		.thumb_func
 101              	on_incoming:
 102              	.LVL6:
 103              	.LFB16:
 119:SynaptiX_FDK/services/mqtt/sx_mqtt.c ****     (void)ctx; (void)topic_len; (void)payload_len;
 104              		.loc 1 119 1 is_stmt 1 view -0
 105              		.cfi_startproc
 106              		@ args = 4, pretend = 0, frame = 0
 107              		@ frame_needed = 0, uses_anonymous_args = 0
 119:SynaptiX_FDK/services/mqtt/sx_mqtt.c ****     (void)ctx; (void)topic_len; (void)payload_len;
 108              		.loc 1 119 1 is_stmt 0 view .LVU18
 109 0000 70B5     		push	{r4, r5, r6, lr}
 110              	.LCFI1:
 111              		.cfi_def_cfa_offset 16
 112              		.cfi_offset 4, -16
 113              		.cfi_offset 5, -12
 114              		.cfi_offset 6, -8
 115              		.cfi_offset 14, -4
 116 0002 82B0     		sub	sp, sp, #8
 117              	.LCFI2:
 118              		.cfi_def_cfa_offset 24
 120:SynaptiX_FDK/services/mqtt/sx_mqtt.c ****     sx_mqtt_t *mqtt = s_instance;
 119              		.loc 1 120 5 is_stmt 1 view .LVU19
 120:SynaptiX_FDK/services/mqtt/sx_mqtt.c ****     sx_mqtt_t *mqtt = s_instance;
 120              		.loc 1 120 16 view .LVU20
 120:SynaptiX_FDK/services/mqtt/sx_mqtt.c ****     sx_mqtt_t *mqtt = s_instance;
 121              		.loc 1 120 33 view .LVU21
 121:SynaptiX_FDK/services/mqtt/sx_mqtt.c ****     if (!mqtt) return;
 122              		.loc 1 121 5 view .LVU22
 121:SynaptiX_FDK/services/mqtt/sx_mqtt.c ****     if (!mqtt) return;
 123              		.loc 1 121 16 is_stmt 0 view .LVU23
 124 0004 094B     		ldr	r3, .L9
 125              	.LVL7:
 121:SynaptiX_FDK/services/mqtt/sx_mqtt.c ****     if (!mqtt) return;
 126              		.loc 1 121 16 view .LVU24
 127 0006 1E68     		ldr	r6, [r3]
 128              	.LVL8:
 122:SynaptiX_FDK/services/mqtt/sx_mqtt.c **** 
 129              		.loc 1 122 5 is_stmt 1 view .LVU25
 122:SynaptiX_FDK/services/mqtt/sx_mqtt.c **** 
 130              		.loc 1 122 8 is_stmt 0 view .LVU26
 131 0008 76B1     		cbz	r6, .L6
 132 000a 0446     		mov	r4, r0
ARM GAS  C:\Users\DELL\AppData\Local\Temp\ccitbtwj.s 			page 6


 133 000c 1546     		mov	r5, r2
 124:SynaptiX_FDK/services/mqtt/sx_mqtt.c ****     if (mqtt->on_message) mqtt->on_message(mqtt, topic, payload);
 134              		.loc 1 124 5 is_stmt 1 view .LVU27
 135 000e 0092     		str	r2, [sp]
 136 0010 0346     		mov	r3, r0
 137 0012 074A     		ldr	r2, .L9+4
 138              	.LVL9:
 124:SynaptiX_FDK/services/mqtt/sx_mqtt.c ****     if (mqtt->on_message) mqtt->on_message(mqtt, topic, payload);
 139              		.loc 1 124 5 is_stmt 0 view .LVU28
 140 0014 0749     		ldr	r1, .L9+8
 141              	.LVL10:
 124:SynaptiX_FDK/services/mqtt/sx_mqtt.c ****     if (mqtt->on_message) mqtt->on_message(mqtt, topic, payload);
 142              		.loc 1 124 5 view .LVU29
 143 0016 0420     		movs	r0, #4
 144              	.LVL11:
 124:SynaptiX_FDK/services/mqtt/sx_mqtt.c ****     if (mqtt->on_message) mqtt->on_message(mqtt, topic, payload);
 145              		.loc 1 124 5 view .LVU30
 146 0018 FFF7FEFF 		bl	log_func
 147              	.LVL12:
 125:SynaptiX_FDK/services/mqtt/sx_mqtt.c **** }
 148              		.loc 1 125 5 is_stmt 1 view .LVU31
 125:SynaptiX_FDK/services/mqtt/sx_mqtt.c **** }
 149              		.loc 1 125 13 is_stmt 0 view .LVU32
 150 001c 736C     		ldr	r3, [r6, #68]
 125:SynaptiX_FDK/services/mqtt/sx_mqtt.c **** }
 151              		.loc 1 125 8 view .LVU33
 152 001e 1BB1     		cbz	r3, .L6
 125:SynaptiX_FDK/services/mqtt/sx_mqtt.c **** }
 153              		.loc 1 125 27 is_stmt 1 discriminator 1 view .LVU34
 154 0020 2A46     		mov	r2, r5
 155 0022 2146     		mov	r1, r4
 156 0024 3046     		mov	r0, r6
 157 0026 9847     		blx	r3
 158              	.LVL13:
 159              	.L6:
 126:SynaptiX_FDK/services/mqtt/sx_mqtt.c **** 
 160              		.loc 1 126 1 is_stmt 0 view .LVU35
 161 0028 02B0     		add	sp, sp, #8
 162              	.LCFI3:
 163              		.cfi_def_cfa_offset 16
 164              		@ sp needed
 165 002a 70BD     		pop	{r4, r5, r6, pc}
 166              	.LVL14:
 167              	.L10:
 126:SynaptiX_FDK/services/mqtt/sx_mqtt.c **** 
 168              		.loc 1 126 1 view .LVU36
 169              		.align	2
 170              	.L9:
 171 002c 00000000 		.word	s_instance
 172 0030 00000000 		.word	.LC2
 173 0034 18000000 		.word	.LC1
 174              		.cfi_endproc
 175              	.LFE16:
 177              		.section	.rodata.escalate_recovery.str1.4,"aMS",%progbits,1
 178              		.align	2
 179              	.LC3:
 180 0000 5057524B 		.ascii	"PWRKEY power-cycle recovery failed %u times in a ro"
ARM GAS  C:\Users\DELL\AppData\Local\Temp\ccitbtwj.s 			page 7


 180      45592070 
 180      6F776572 
 180      2D637963 
 180      6C652072 
 181 0033 7720E280 		.ascii	"w \342\200\224 escalating to hard_reset() (RST pin)"
 181      94206573 
 181      63616C61 
 181      74696E67 
 181      20746F20 
 182 005d 00       		.ascii	"\000"
 183 005e 0000     		.align	2
 184              	.LC4:
 185 0060 546F6F20 		.ascii	"Too many retries \342\200\224 restarting modem powe"
 185      6D616E79 
 185      20726574 
 185      72696573 
 185      20E28094 
 186 008a 722F696E 		.ascii	"r/init sequence (restart cycle %u/%u before hard_re"
 186      69742073 
 186      65717565 
 186      6E636520 
 186      28726573 
 187 00bd 73657420 		.ascii	"set escalation)\000"
 187      65736361 
 187      6C617469 
 187      6F6E2900 
 188              		.section	.text.escalate_recovery,"ax",%progbits
 189              		.align	1
 190              		.syntax unified
 191              		.thumb
 192              		.thumb_func
 194              	escalate_recovery:
 195              	.LVL15:
 196              	.LFB18:
 138:SynaptiX_FDK/services/mqtt/sx_mqtt.c **** 
 139:SynaptiX_FDK/services/mqtt/sx_mqtt.c **** /*
 140:SynaptiX_FDK/services/mqtt/sx_mqtt.c ****  * Internal helpers
 141:SynaptiX_FDK/services/mqtt/sx_mqtt.c ****  */
 142:SynaptiX_FDK/services/mqtt/sx_mqtt.c **** 
 143:SynaptiX_FDK/services/mqtt/sx_mqtt.c **** /* Shared escalation ladder: reconnect_count -> (PWRKEY power-cycle) ->
 144:SynaptiX_FDK/services/mqtt/sx_mqtt.c ****  * restart_cycle_count -> (hard_reset via RST pin). Used both by do_error()
 145:SynaptiX_FDK/services/mqtt/sx_mqtt.c ****  * (an actual connect/operation failure reported by the driver) and by
 146:SynaptiX_FDK/services/mqtt/sx_mqtt.c ****  * sx_mqtt_report_failure() (repeated publish failures reported by
 147:SynaptiX_FDK/services/mqtt/sx_mqtt.c ****  * the app layer, sx_user_mqtt.c) — see that function's doc-comment for why
 148:SynaptiX_FDK/services/mqtt/sx_mqtt.c ****  * publish failures must feed into this same counter instead of running an
 149:SynaptiX_FDK/services/mqtt/sx_mqtt.c ****  * independent recovery path of their own. */
 150:SynaptiX_FDK/services/mqtt/sx_mqtt.c **** static void escalate_recovery(sx_mqtt_t *mqtt)
 151:SynaptiX_FDK/services/mqtt/sx_mqtt.c **** {
 197              		.loc 1 151 1 is_stmt 1 view -0
 198              		.cfi_startproc
 199              		@ args = 0, pretend = 0, frame = 0
 200              		@ frame_needed = 0, uses_anonymous_args = 0
 152:SynaptiX_FDK/services/mqtt/sx_mqtt.c ****     mqtt->reconnect_count++;
 201              		.loc 1 152 5 view .LVU38
 202              		.loc 1 152 9 is_stmt 0 view .LVU39
 203 0000 90F83830 		ldrb	r3, [r0, #56]	@ zero_extendqisi2
 204              		.loc 1 152 26 view .LVU40
ARM GAS  C:\Users\DELL\AppData\Local\Temp\ccitbtwj.s 			page 8


 205 0004 0133     		adds	r3, r3, #1
 206 0006 DBB2     		uxtb	r3, r3
 207 0008 80F83830 		strb	r3, [r0, #56]
 153:SynaptiX_FDK/services/mqtt/sx_mqtt.c **** 
 154:SynaptiX_FDK/services/mqtt/sx_mqtt.c ****     if (mqtt->reconnect_count >= SX_MQTT_MAX_RETRY_BEFORE_RESTART) {
 208              		.loc 1 154 5 is_stmt 1 view .LVU41
 209              		.loc 1 154 8 is_stmt 0 view .LVU42
 210 000c 022B     		cmp	r3, #2
 211 000e 33D9     		bls	.L15
 151:SynaptiX_FDK/services/mqtt/sx_mqtt.c ****     mqtt->reconnect_count++;
 212              		.loc 1 151 1 view .LVU43
 213 0010 10B5     		push	{r4, lr}
 214              	.LCFI4:
 215              		.cfi_def_cfa_offset 8
 216              		.cfi_offset 4, -8
 217              		.cfi_offset 14, -4
 218 0012 82B0     		sub	sp, sp, #8
 219              	.LCFI5:
 220              		.cfi_def_cfa_offset 16
 221 0014 0446     		mov	r4, r0
 155:SynaptiX_FDK/services/mqtt/sx_mqtt.c ****         mqtt->reconnect_count = 0;
 222              		.loc 1 155 9 is_stmt 1 view .LVU44
 223              		.loc 1 155 31 is_stmt 0 view .LVU45
 224 0016 0023     		movs	r3, #0
 225 0018 80F83830 		strb	r3, [r0, #56]
 156:SynaptiX_FDK/services/mqtt/sx_mqtt.c ****         mqtt->restart_cycle_count++;
 226              		.loc 1 156 9 is_stmt 1 view .LVU46
 227              		.loc 1 156 13 is_stmt 0 view .LVU47
 228 001c 90F83930 		ldrb	r3, [r0, #57]	@ zero_extendqisi2
 229              		.loc 1 156 34 view .LVU48
 230 0020 0133     		adds	r3, r3, #1
 231 0022 DBB2     		uxtb	r3, r3
 232 0024 80F83930 		strb	r3, [r0, #57]
 157:SynaptiX_FDK/services/mqtt/sx_mqtt.c **** 
 158:SynaptiX_FDK/services/mqtt/sx_mqtt.c ****         if (mqtt->restart_cycle_count >= SX_MQTT_MAX_RESTARTS_BEFORE_HARD_RESET) {
 233              		.loc 1 158 9 is_stmt 1 view .LVU49
 234              		.loc 1 158 12 is_stmt 0 view .LVU50
 235 0028 022B     		cmp	r3, #2
 236 002a 0ED9     		bls	.L13
 159:SynaptiX_FDK/services/mqtt/sx_mqtt.c ****             log_error(TAG, "PWRKEY power-cycle recovery failed %u times in a row — "
 237              		.loc 1 159 13 is_stmt 1 view .LVU51
 238 002c 134A     		ldr	r2, .L18
 239 002e 1449     		ldr	r1, .L18+4
 240 0030 0120     		movs	r0, #1
 241              	.LVL16:
 242              		.loc 1 159 13 is_stmt 0 view .LVU52
 243 0032 FFF7FEFF 		bl	log_func
 244              	.LVL17:
 160:SynaptiX_FDK/services/mqtt/sx_mqtt.c ****                       "escalating to hard_reset() (RST pin)",
 161:SynaptiX_FDK/services/mqtt/sx_mqtt.c ****                       mqtt->restart_cycle_count);
 162:SynaptiX_FDK/services/mqtt/sx_mqtt.c ****             mqtt->restart_cycle_count = 0;
 245              		.loc 1 162 13 is_stmt 1 view .LVU53
 246              		.loc 1 162 39 is_stmt 0 view .LVU54
 247 0036 0023     		movs	r3, #0
 248 0038 84F83930 		strb	r3, [r4, #57]
 163:SynaptiX_FDK/services/mqtt/sx_mqtt.c ****             mqtt->modem->ops->hard_reset(mqtt->modem->ctx);
 249              		.loc 1 163 13 is_stmt 1 view .LVU55
ARM GAS  C:\Users\DELL\AppData\Local\Temp\ccitbtwj.s 			page 9


 250              		.loc 1 163 17 is_stmt 0 view .LVU56
 251 003c 2368     		ldr	r3, [r4]
 252              		.loc 1 163 24 view .LVU57
 253 003e 1A68     		ldr	r2, [r3]
 254              		.loc 1 163 29 view .LVU58
 255 0040 D268     		ldr	r2, [r2, #12]
 256              		.loc 1 163 13 view .LVU59
 257 0042 5868     		ldr	r0, [r3, #4]
 258 0044 9047     		blx	r2
 259              	.LVL18:
 260              	.L11:
 164:SynaptiX_FDK/services/mqtt/sx_mqtt.c ****         } else {
 165:SynaptiX_FDK/services/mqtt/sx_mqtt.c ****             log_warn(TAG, "Too many retries — restarting modem power/init sequence "
 166:SynaptiX_FDK/services/mqtt/sx_mqtt.c ****                      "(restart cycle %u/%u before hard_reset escalation)",
 167:SynaptiX_FDK/services/mqtt/sx_mqtt.c ****                      mqtt->restart_cycle_count, SX_MQTT_MAX_RESTARTS_BEFORE_HARD_RESET);
 168:SynaptiX_FDK/services/mqtt/sx_mqtt.c ****             /* Same recovery action as before (full power cycle + re-init), now
 169:SynaptiX_FDK/services/mqtt/sx_mqtt.c ****              * reached only through modem_ops_t so this file stays
 170:SynaptiX_FDK/services/mqtt/sx_mqtt.c ****              * driver-agnostic. */
 171:SynaptiX_FDK/services/mqtt/sx_mqtt.c ****             mqtt->modem->ops->power_off_start(mqtt->modem->ctx);
 172:SynaptiX_FDK/services/mqtt/sx_mqtt.c ****             mqtt->modem->ops->power_on_start(mqtt->modem->ctx);
 173:SynaptiX_FDK/services/mqtt/sx_mqtt.c ****             mqtt->modem->ops->start(mqtt->modem->ctx);
 174:SynaptiX_FDK/services/mqtt/sx_mqtt.c ****         }
 175:SynaptiX_FDK/services/mqtt/sx_mqtt.c ****     }
 176:SynaptiX_FDK/services/mqtt/sx_mqtt.c **** }
 261              		.loc 1 176 1 view .LVU60
 262 0046 02B0     		add	sp, sp, #8
 263              	.LCFI6:
 264              		.cfi_remember_state
 265              		.cfi_def_cfa_offset 8
 266              		@ sp needed
 267 0048 10BD     		pop	{r4, pc}
 268              	.LVL19:
 269              	.L13:
 270              	.LCFI7:
 271              		.cfi_restore_state
 165:SynaptiX_FDK/services/mqtt/sx_mqtt.c ****                      "(restart cycle %u/%u before hard_reset escalation)",
 272              		.loc 1 165 13 is_stmt 1 view .LVU61
 273 004a 0322     		movs	r2, #3
 274 004c 0092     		str	r2, [sp]
 275 004e 0D4A     		ldr	r2, .L18+8
 276 0050 0B49     		ldr	r1, .L18+4
 277 0052 0220     		movs	r0, #2
 278              	.LVL20:
 165:SynaptiX_FDK/services/mqtt/sx_mqtt.c ****                      "(restart cycle %u/%u before hard_reset escalation)",
 279              		.loc 1 165 13 is_stmt 0 view .LVU62
 280 0054 FFF7FEFF 		bl	log_func
 281              	.LVL21:
 171:SynaptiX_FDK/services/mqtt/sx_mqtt.c ****             mqtt->modem->ops->power_on_start(mqtt->modem->ctx);
 282              		.loc 1 171 13 is_stmt 1 view .LVU63
 171:SynaptiX_FDK/services/mqtt/sx_mqtt.c ****             mqtt->modem->ops->power_on_start(mqtt->modem->ctx);
 283              		.loc 1 171 17 is_stmt 0 view .LVU64
 284 0058 2368     		ldr	r3, [r4]
 171:SynaptiX_FDK/services/mqtt/sx_mqtt.c ****             mqtt->modem->ops->power_on_start(mqtt->modem->ctx);
 285              		.loc 1 171 24 view .LVU65
 286 005a 1A68     		ldr	r2, [r3]
 171:SynaptiX_FDK/services/mqtt/sx_mqtt.c ****             mqtt->modem->ops->power_on_start(mqtt->modem->ctx);
 287              		.loc 1 171 29 view .LVU66
ARM GAS  C:\Users\DELL\AppData\Local\Temp\ccitbtwj.s 			page 10


 288 005c 5268     		ldr	r2, [r2, #4]
 171:SynaptiX_FDK/services/mqtt/sx_mqtt.c ****             mqtt->modem->ops->power_on_start(mqtt->modem->ctx);
 289              		.loc 1 171 13 view .LVU67
 290 005e 5868     		ldr	r0, [r3, #4]
 291 0060 9047     		blx	r2
 292              	.LVL22:
 172:SynaptiX_FDK/services/mqtt/sx_mqtt.c ****             mqtt->modem->ops->start(mqtt->modem->ctx);
 293              		.loc 1 172 13 is_stmt 1 view .LVU68
 172:SynaptiX_FDK/services/mqtt/sx_mqtt.c ****             mqtt->modem->ops->start(mqtt->modem->ctx);
 294              		.loc 1 172 17 is_stmt 0 view .LVU69
 295 0062 2368     		ldr	r3, [r4]
 172:SynaptiX_FDK/services/mqtt/sx_mqtt.c ****             mqtt->modem->ops->start(mqtt->modem->ctx);
 296              		.loc 1 172 24 view .LVU70
 297 0064 1A68     		ldr	r2, [r3]
 172:SynaptiX_FDK/services/mqtt/sx_mqtt.c ****             mqtt->modem->ops->start(mqtt->modem->ctx);
 298              		.loc 1 172 29 view .LVU71
 299 0066 1268     		ldr	r2, [r2]
 172:SynaptiX_FDK/services/mqtt/sx_mqtt.c ****             mqtt->modem->ops->start(mqtt->modem->ctx);
 300              		.loc 1 172 13 view .LVU72
 301 0068 5868     		ldr	r0, [r3, #4]
 302 006a 9047     		blx	r2
 303              	.LVL23:
 173:SynaptiX_FDK/services/mqtt/sx_mqtt.c ****         }
 304              		.loc 1 173 13 is_stmt 1 view .LVU73
 173:SynaptiX_FDK/services/mqtt/sx_mqtt.c ****         }
 305              		.loc 1 173 17 is_stmt 0 view .LVU74
 306 006c 2368     		ldr	r3, [r4]
 173:SynaptiX_FDK/services/mqtt/sx_mqtt.c ****         }
 307              		.loc 1 173 24 view .LVU75
 308 006e 1A68     		ldr	r2, [r3]
 173:SynaptiX_FDK/services/mqtt/sx_mqtt.c ****         }
 309              		.loc 1 173 29 view .LVU76
 310 0070 5269     		ldr	r2, [r2, #20]
 173:SynaptiX_FDK/services/mqtt/sx_mqtt.c ****         }
 311              		.loc 1 173 13 view .LVU77
 312 0072 5868     		ldr	r0, [r3, #4]
 313 0074 9047     		blx	r2
 314              	.LVL24:
 315              		.loc 1 176 1 view .LVU78
 316 0076 E6E7     		b	.L11
 317              	.LVL25:
 318              	.L15:
 319              	.LCFI8:
 320              		.cfi_def_cfa_offset 0
 321              		.cfi_restore 4
 322              		.cfi_restore 14
 323              		.loc 1 176 1 view .LVU79
 324 0078 7047     		bx	lr
 325              	.L19:
 326 007a 00BF     		.align	2
 327              	.L18:
 328 007c 00000000 		.word	.LC3
 329 0080 18000000 		.word	.LC1
 330 0084 60000000 		.word	.LC4
 331              		.cfi_endproc
 332              	.LFE18:
 334              		.section	.rodata.do_error.str1.4,"aMS",%progbits,1
ARM GAS  C:\Users\DELL\AppData\Local\Temp\ccitbtwj.s 			page 11


 335              		.align	2
 336              	.LC5:
 337 0000 4572726F 		.ascii	"Error \342\200\224 reconnect after: %lu ms (retry #"
 337      7220E280 
 337      94207265 
 337      636F6E6E 
 337      65637420 
 338 002a 25642900 		.ascii	"%d)\000"
 339              		.section	.text.do_error,"ax",%progbits
 340              		.align	1
 341              		.syntax unified
 342              		.thumb
 343              		.thumb_func
 345              	do_error:
 346              	.LVL26:
 347              	.LFB19:
 177:SynaptiX_FDK/services/mqtt/sx_mqtt.c **** 
 178:SynaptiX_FDK/services/mqtt/sx_mqtt.c **** static void do_error(sx_mqtt_t *mqtt)
 179:SynaptiX_FDK/services/mqtt/sx_mqtt.c **** {
 348              		.loc 1 179 1 is_stmt 1 view -0
 349              		.cfi_startproc
 350              		@ args = 0, pretend = 0, frame = 0
 351              		@ frame_needed = 0, uses_anonymous_args = 0
 352              		.loc 1 179 1 is_stmt 0 view .LVU81
 353 0000 10B5     		push	{r4, lr}
 354              	.LCFI9:
 355              		.cfi_def_cfa_offset 8
 356              		.cfi_offset 4, -8
 357              		.cfi_offset 14, -4
 358 0002 82B0     		sub	sp, sp, #8
 359              	.LCFI10:
 360              		.cfi_def_cfa_offset 16
 361 0004 0446     		mov	r4, r0
 180:SynaptiX_FDK/services/mqtt/sx_mqtt.c ****     mqtt->state = SX_MQTT_STATE_ERROR;
 362              		.loc 1 180 5 is_stmt 1 view .LVU82
 363              		.loc 1 180 17 is_stmt 0 view .LVU83
 364 0006 0423     		movs	r3, #4
 365 0008 80F82C30 		strb	r3, [r0, #44]
 181:SynaptiX_FDK/services/mqtt/sx_mqtt.c ****     mqtt->reconnect_delay = SX_MQTT_RECONNECT_DELAY_BASE;
 366              		.loc 1 181 5 is_stmt 1 view .LVU84
 367              		.loc 1 181 27 is_stmt 0 view .LVU85
 368 000c 4FF47A73 		mov	r3, #1000
 369 0010 4363     		str	r3, [r0, #52]
 182:SynaptiX_FDK/services/mqtt/sx_mqtt.c ****     if (mqtt->reconnect_delay > SX_MQTT_RECONNECT_DELAY_MAX)
 370              		.loc 1 182 5 is_stmt 1 view .LVU86
 183:SynaptiX_FDK/services/mqtt/sx_mqtt.c ****         mqtt->reconnect_delay = SX_MQTT_RECONNECT_DELAY_MAX;
 184:SynaptiX_FDK/services/mqtt/sx_mqtt.c ****     mqtt->reconnect_elapsed = 0;
 371              		.loc 1 184 5 view .LVU87
 372              		.loc 1 184 29 is_stmt 0 view .LVU88
 373 0012 0023     		movs	r3, #0
 374 0014 0363     		str	r3, [r0, #48]
 185:SynaptiX_FDK/services/mqtt/sx_mqtt.c **** 
 186:SynaptiX_FDK/services/mqtt/sx_mqtt.c ****     escalate_recovery(mqtt);
 375              		.loc 1 186 5 is_stmt 1 view .LVU89
 376 0016 FFF7FEFF 		bl	escalate_recovery
 377              	.LVL27:
 187:SynaptiX_FDK/services/mqtt/sx_mqtt.c **** 
ARM GAS  C:\Users\DELL\AppData\Local\Temp\ccitbtwj.s 			page 12


 188:SynaptiX_FDK/services/mqtt/sx_mqtt.c ****     log_warn(TAG, "Error — reconnect after: %lu ms (retry #%d)",
 378              		.loc 1 188 5 view .LVU90
 379 001a 94F83830 		ldrb	r3, [r4, #56]	@ zero_extendqisi2
 380 001e 0093     		str	r3, [sp]
 381 0020 636B     		ldr	r3, [r4, #52]
 382 0022 054A     		ldr	r2, .L23
 383 0024 0549     		ldr	r1, .L23+4
 384 0026 0220     		movs	r0, #2
 385 0028 FFF7FEFF 		bl	log_func
 386              	.LVL28:
 189:SynaptiX_FDK/services/mqtt/sx_mqtt.c ****              (unsigned long)mqtt->reconnect_delay, mqtt->reconnect_count);
 190:SynaptiX_FDK/services/mqtt/sx_mqtt.c ****     if (mqtt->on_disconnected) mqtt->on_disconnected(mqtt);
 387              		.loc 1 190 5 view .LVU91
 388              		.loc 1 190 13 is_stmt 0 view .LVU92
 389 002c 236C     		ldr	r3, [r4, #64]
 390              		.loc 1 190 8 view .LVU93
 391 002e 0BB1     		cbz	r3, .L20
 392              		.loc 1 190 32 is_stmt 1 discriminator 1 view .LVU94
 393 0030 2046     		mov	r0, r4
 394 0032 9847     		blx	r3
 395              	.LVL29:
 396              	.L20:
 191:SynaptiX_FDK/services/mqtt/sx_mqtt.c **** }
 397              		.loc 1 191 1 is_stmt 0 view .LVU95
 398 0034 02B0     		add	sp, sp, #8
 399              	.LCFI11:
 400              		.cfi_def_cfa_offset 8
 401              		@ sp needed
 402 0036 10BD     		pop	{r4, pc}
 403              	.LVL30:
 404              	.L24:
 405              		.loc 1 191 1 view .LVU96
 406              		.align	2
 407              	.L23:
 408 0038 00000000 		.word	.LC5
 409 003c 18000000 		.word	.LC1
 410              		.cfi_endproc
 411              	.LFE19:
 413              		.section	.rodata.cb_connect_done.str1.4,"aMS",%progbits,1
 414              		.align	2
 415              	.LC6:
 416 0000 6D717474 		.ascii	"mqtt_connect failed (result=%d)\000"
 416      5F636F6E 
 416      6E656374 
 416      20666169 
 416      6C656420 
 417              		.align	2
 418              	.LC7:
 419 0020 4D515454 		.ascii	"MQTT connected\000"
 419      20636F6E 
 419      6E656374 
 419      656400
 420              		.section	.text.cb_connect_done,"ax",%progbits
 421              		.align	1
 422              		.syntax unified
 423              		.thumb
 424              		.thumb_func
ARM GAS  C:\Users\DELL\AppData\Local\Temp\ccitbtwj.s 			page 13


 426              	cb_connect_done:
 427              	.LVL31:
 428              	.LFB12:
  58:SynaptiX_FDK/services/mqtt/sx_mqtt.c ****     (void)ctx;
 429              		.loc 1 58 1 is_stmt 1 view -0
 430              		.cfi_startproc
 431              		@ args = 0, pretend = 0, frame = 0
 432              		@ frame_needed = 0, uses_anonymous_args = 0
  58:SynaptiX_FDK/services/mqtt/sx_mqtt.c ****     (void)ctx;
 433              		.loc 1 58 1 is_stmt 0 view .LVU98
 434 0000 10B5     		push	{r4, lr}
 435              	.LCFI12:
 436              		.cfi_def_cfa_offset 8
 437              		.cfi_offset 4, -8
 438              		.cfi_offset 14, -4
  59:SynaptiX_FDK/services/mqtt/sx_mqtt.c ****     sx_mqtt_t *mqtt = s_instance;
 439              		.loc 1 59 5 is_stmt 1 view .LVU99
  60:SynaptiX_FDK/services/mqtt/sx_mqtt.c ****     if (!mqtt) return;
 440              		.loc 1 60 5 view .LVU100
  60:SynaptiX_FDK/services/mqtt/sx_mqtt.c ****     if (!mqtt) return;
 441              		.loc 1 60 16 is_stmt 0 view .LVU101
 442 0002 0D4A     		ldr	r2, .L30
 443 0004 1468     		ldr	r4, [r2]
 444              	.LVL32:
  61:SynaptiX_FDK/services/mqtt/sx_mqtt.c **** 
 445              		.loc 1 61 5 is_stmt 1 view .LVU102
  61:SynaptiX_FDK/services/mqtt/sx_mqtt.c **** 
 446              		.loc 1 61 8 is_stmt 0 view .LVU103
 447 0006 64B1     		cbz	r4, .L25
  63:SynaptiX_FDK/services/mqtt/sx_mqtt.c ****         log_error(TAG, "mqtt_connect failed (result=%d)", result);
 448              		.loc 1 63 5 is_stmt 1 view .LVU104
  63:SynaptiX_FDK/services/mqtt/sx_mqtt.c ****         log_error(TAG, "mqtt_connect failed (result=%d)", result);
 449              		.loc 1 63 8 is_stmt 0 view .LVU105
 450 0008 60B9     		cbnz	r0, .L29
  69:SynaptiX_FDK/services/mqtt/sx_mqtt.c ****     mqtt->state = SX_MQTT_STATE_CONNECTED;
 451              		.loc 1 69 5 is_stmt 1 view .LVU106
 452 000a 0C4A     		ldr	r2, .L30+4
 453 000c 0C49     		ldr	r1, .L30+8
 454              	.LVL33:
  69:SynaptiX_FDK/services/mqtt/sx_mqtt.c ****     mqtt->state = SX_MQTT_STATE_CONNECTED;
 455              		.loc 1 69 5 is_stmt 0 view .LVU107
 456 000e 0320     		movs	r0, #3
 457              	.LVL34:
  69:SynaptiX_FDK/services/mqtt/sx_mqtt.c ****     mqtt->state = SX_MQTT_STATE_CONNECTED;
 458              		.loc 1 69 5 view .LVU108
 459 0010 FFF7FEFF 		bl	log_func
 460              	.LVL35:
  70:SynaptiX_FDK/services/mqtt/sx_mqtt.c ****     if (mqtt->on_connected) mqtt->on_connected(mqtt);
 461              		.loc 1 70 5 is_stmt 1 view .LVU109
  70:SynaptiX_FDK/services/mqtt/sx_mqtt.c ****     if (mqtt->on_connected) mqtt->on_connected(mqtt);
 462              		.loc 1 70 17 is_stmt 0 view .LVU110
 463 0014 0223     		movs	r3, #2
 464 0016 84F82C30 		strb	r3, [r4, #44]
  71:SynaptiX_FDK/services/mqtt/sx_mqtt.c **** }
 465              		.loc 1 71 5 is_stmt 1 view .LVU111
  71:SynaptiX_FDK/services/mqtt/sx_mqtt.c **** }
 466              		.loc 1 71 13 is_stmt 0 view .LVU112
ARM GAS  C:\Users\DELL\AppData\Local\Temp\ccitbtwj.s 			page 14


 467 001a E36B     		ldr	r3, [r4, #60]
  71:SynaptiX_FDK/services/mqtt/sx_mqtt.c **** }
 468              		.loc 1 71 8 view .LVU113
 469 001c 0BB1     		cbz	r3, .L25
  71:SynaptiX_FDK/services/mqtt/sx_mqtt.c **** }
 470              		.loc 1 71 29 is_stmt 1 discriminator 1 view .LVU114
 471 001e 2046     		mov	r0, r4
 472 0020 9847     		blx	r3
 473              	.LVL36:
 474              	.L25:
  72:SynaptiX_FDK/services/mqtt/sx_mqtt.c **** 
 475              		.loc 1 72 1 is_stmt 0 view .LVU115
 476 0022 10BD     		pop	{r4, pc}
 477              	.LVL37:
 478              	.L29:
  64:SynaptiX_FDK/services/mqtt/sx_mqtt.c ****         do_error(mqtt);
 479              		.loc 1 64 9 is_stmt 1 view .LVU116
 480 0024 0346     		mov	r3, r0
 481 0026 074A     		ldr	r2, .L30+12
 482 0028 0549     		ldr	r1, .L30+8
 483              	.LVL38:
  64:SynaptiX_FDK/services/mqtt/sx_mqtt.c ****         do_error(mqtt);
 484              		.loc 1 64 9 is_stmt 0 view .LVU117
 485 002a 0120     		movs	r0, #1
 486              	.LVL39:
  64:SynaptiX_FDK/services/mqtt/sx_mqtt.c ****         do_error(mqtt);
 487              		.loc 1 64 9 view .LVU118
 488 002c FFF7FEFF 		bl	log_func
 489              	.LVL40:
  65:SynaptiX_FDK/services/mqtt/sx_mqtt.c ****         return;
 490              		.loc 1 65 9 is_stmt 1 view .LVU119
 491 0030 2046     		mov	r0, r4
 492 0032 FFF7FEFF 		bl	do_error
 493              	.LVL41:
  66:SynaptiX_FDK/services/mqtt/sx_mqtt.c ****     }
 494              		.loc 1 66 9 view .LVU120
 495 0036 F4E7     		b	.L25
 496              	.L31:
 497              		.align	2
 498              	.L30:
 499 0038 00000000 		.word	s_instance
 500 003c 20000000 		.word	.LC7
 501 0040 18000000 		.word	.LC1
 502 0044 00000000 		.word	.LC6
 503              		.cfi_endproc
 504              	.LFE12:
 506              		.section	.rodata.cb_disconnect_done.str1.4,"aMS",%progbits,1
 507              		.align	2
 508              	.LC8:
 509 0000 6D717474 		.ascii	"mqtt_disconnect failed (result=%d) \342\200\224 for"
 509      5F646973 
 509      636F6E6E 
 509      65637420 
 509      6661696C 
 510 002a 63696E67 		.ascii	"cing disconnect\000"
 510      20646973 
 510      636F6E6E 
ARM GAS  C:\Users\DELL\AppData\Local\Temp\ccitbtwj.s 			page 15


 510      65637400 
 511 003a 0000     		.align	2
 512              	.LC9:
 513 003c 4D515454 		.ascii	"MQTT disconnected\000"
 513      20646973 
 513      636F6E6E 
 513      65637465 
 513      6400
 514              		.section	.text.cb_disconnect_done,"ax",%progbits
 515              		.align	1
 516              		.syntax unified
 517              		.thumb
 518              		.thumb_func
 520              	cb_disconnect_done:
 521              	.LVL42:
 522              	.LFB13:
  75:SynaptiX_FDK/services/mqtt/sx_mqtt.c ****     (void)ctx;
 523              		.loc 1 75 1 view -0
 524              		.cfi_startproc
 525              		@ args = 0, pretend = 0, frame = 0
 526              		@ frame_needed = 0, uses_anonymous_args = 0
  75:SynaptiX_FDK/services/mqtt/sx_mqtt.c ****     (void)ctx;
 527              		.loc 1 75 1 is_stmt 0 view .LVU122
 528 0000 10B5     		push	{r4, lr}
 529              	.LCFI13:
 530              		.cfi_def_cfa_offset 8
 531              		.cfi_offset 4, -8
 532              		.cfi_offset 14, -4
  76:SynaptiX_FDK/services/mqtt/sx_mqtt.c ****     sx_mqtt_t *mqtt = s_instance;
 533              		.loc 1 76 5 is_stmt 1 view .LVU123
  77:SynaptiX_FDK/services/mqtt/sx_mqtt.c ****     if (!mqtt) return;
 534              		.loc 1 77 5 view .LVU124
  77:SynaptiX_FDK/services/mqtt/sx_mqtt.c ****     if (!mqtt) return;
 535              		.loc 1 77 16 is_stmt 0 view .LVU125
 536 0002 0C4A     		ldr	r2, .L37
 537 0004 1468     		ldr	r4, [r2]
 538              	.LVL43:
  78:SynaptiX_FDK/services/mqtt/sx_mqtt.c **** 
 539              		.loc 1 78 5 is_stmt 1 view .LVU126
  78:SynaptiX_FDK/services/mqtt/sx_mqtt.c **** 
 540              		.loc 1 78 8 is_stmt 0 view .LVU127
 541 0006 64B1     		cbz	r4, .L32
  80:SynaptiX_FDK/services/mqtt/sx_mqtt.c ****         log_warn(TAG, "mqtt_disconnect failed (result=%d) — forcing disconnect", result);
 542              		.loc 1 80 5 is_stmt 1 view .LVU128
  80:SynaptiX_FDK/services/mqtt/sx_mqtt.c ****         log_warn(TAG, "mqtt_disconnect failed (result=%d) — forcing disconnect", result);
 543              		.loc 1 80 8 is_stmt 0 view .LVU129
 544 0008 60B9     		cbnz	r0, .L36
 545              	.LVL44:
 546              	.L34:
  83:SynaptiX_FDK/services/mqtt/sx_mqtt.c ****     mqtt->state = SX_MQTT_STATE_DISCONNECTED;
 547              		.loc 1 83 5 is_stmt 1 view .LVU130
 548 000a 0B4A     		ldr	r2, .L37+4
 549 000c 0B49     		ldr	r1, .L37+8
 550 000e 0320     		movs	r0, #3
 551 0010 FFF7FEFF 		bl	log_func
 552              	.LVL45:
  84:SynaptiX_FDK/services/mqtt/sx_mqtt.c ****     if (mqtt->on_disconnected) mqtt->on_disconnected(mqtt);
ARM GAS  C:\Users\DELL\AppData\Local\Temp\ccitbtwj.s 			page 16


 553              		.loc 1 84 5 view .LVU131
  84:SynaptiX_FDK/services/mqtt/sx_mqtt.c ****     if (mqtt->on_disconnected) mqtt->on_disconnected(mqtt);
 554              		.loc 1 84 17 is_stmt 0 view .LVU132
 555 0014 0023     		movs	r3, #0
 556 0016 84F82C30 		strb	r3, [r4, #44]
  85:SynaptiX_FDK/services/mqtt/sx_mqtt.c **** }
 557              		.loc 1 85 5 is_stmt 1 view .LVU133
  85:SynaptiX_FDK/services/mqtt/sx_mqtt.c **** }
 558              		.loc 1 85 13 is_stmt 0 view .LVU134
 559 001a 236C     		ldr	r3, [r4, #64]
  85:SynaptiX_FDK/services/mqtt/sx_mqtt.c **** }
 560              		.loc 1 85 8 view .LVU135
 561 001c 0BB1     		cbz	r3, .L32
  85:SynaptiX_FDK/services/mqtt/sx_mqtt.c **** }
 562              		.loc 1 85 32 is_stmt 1 discriminator 1 view .LVU136
 563 001e 2046     		mov	r0, r4
 564 0020 9847     		blx	r3
 565              	.LVL46:
 566              	.L32:
  86:SynaptiX_FDK/services/mqtt/sx_mqtt.c **** 
 567              		.loc 1 86 1 is_stmt 0 view .LVU137
 568 0022 10BD     		pop	{r4, pc}
 569              	.LVL47:
 570              	.L36:
  81:SynaptiX_FDK/services/mqtt/sx_mqtt.c **** 
 571              		.loc 1 81 9 is_stmt 1 view .LVU138
 572 0024 0346     		mov	r3, r0
 573 0026 064A     		ldr	r2, .L37+12
 574 0028 0449     		ldr	r1, .L37+8
 575              	.LVL48:
  81:SynaptiX_FDK/services/mqtt/sx_mqtt.c **** 
 576              		.loc 1 81 9 is_stmt 0 view .LVU139
 577 002a 0220     		movs	r0, #2
 578              	.LVL49:
  81:SynaptiX_FDK/services/mqtt/sx_mqtt.c **** 
 579              		.loc 1 81 9 view .LVU140
 580 002c FFF7FEFF 		bl	log_func
 581              	.LVL50:
 582 0030 EBE7     		b	.L34
 583              	.L38:
 584 0032 00BF     		.align	2
 585              	.L37:
 586 0034 00000000 		.word	s_instance
 587 0038 3C000000 		.word	.LC9
 588 003c 18000000 		.word	.LC1
 589 0040 00000000 		.word	.LC8
 590              		.cfi_endproc
 591              	.LFE13:
 593              		.section	.rodata.cb_publish_done.str1.4,"aMS",%progbits,1
 594              		.align	2
 595              	.LC10:
 596 0000 5075626C 		.ascii	"Publish OK\000"
 596      69736820 
 596      4F4B00
 597 000b 00       		.align	2
 598              	.LC11:
 599 000c 5075626C 		.ascii	"Publish failed (result=%d)\000"
ARM GAS  C:\Users\DELL\AppData\Local\Temp\ccitbtwj.s 			page 17


 599      69736820 
 599      6661696C 
 599      65642028 
 599      72657375 
 600              		.section	.text.cb_publish_done,"ax",%progbits
 601              		.align	1
 602              		.syntax unified
 603              		.thumb
 604              		.thumb_func
 606              	cb_publish_done:
 607              	.LVL51:
 608              	.LFB14:
  89:SynaptiX_FDK/services/mqtt/sx_mqtt.c ****     (void)ctx;
 609              		.loc 1 89 1 is_stmt 1 view -0
 610              		.cfi_startproc
 611              		@ args = 0, pretend = 0, frame = 0
 612              		@ frame_needed = 0, uses_anonymous_args = 0
  89:SynaptiX_FDK/services/mqtt/sx_mqtt.c ****     (void)ctx;
 613              		.loc 1 89 1 is_stmt 0 view .LVU142
 614 0000 38B5     		push	{r3, r4, r5, lr}
 615              	.LCFI14:
 616              		.cfi_def_cfa_offset 16
 617              		.cfi_offset 3, -16
 618              		.cfi_offset 4, -12
 619              		.cfi_offset 5, -8
 620              		.cfi_offset 14, -4
  90:SynaptiX_FDK/services/mqtt/sx_mqtt.c ****     sx_mqtt_t *mqtt = s_instance;
 621              		.loc 1 90 5 is_stmt 1 view .LVU143
  91:SynaptiX_FDK/services/mqtt/sx_mqtt.c ****     if (!mqtt) return;
 622              		.loc 1 91 5 view .LVU144
  91:SynaptiX_FDK/services/mqtt/sx_mqtt.c ****     if (!mqtt) return;
 623              		.loc 1 91 16 is_stmt 0 view .LVU145
 624 0002 0D4A     		ldr	r2, .L44
 625 0004 1468     		ldr	r4, [r2]
 626              	.LVL52:
  92:SynaptiX_FDK/services/mqtt/sx_mqtt.c **** 
 627              		.loc 1 92 5 is_stmt 1 view .LVU146
  92:SynaptiX_FDK/services/mqtt/sx_mqtt.c **** 
 628              		.loc 1 92 8 is_stmt 0 view .LVU147
 629 0006 74B1     		cbz	r4, .L39
  94:SynaptiX_FDK/services/mqtt/sx_mqtt.c ****     if (ok) log_debug(TAG, "Publish OK");
 630              		.loc 1 94 5 is_stmt 1 view .LVU148
  94:SynaptiX_FDK/services/mqtt/sx_mqtt.c ****     if (ok) log_debug(TAG, "Publish OK");
 631              		.loc 1 94 22 is_stmt 0 view .LVU149
 632 0008 0028     		cmp	r0, #0
 633 000a 0CBF     		ite	eq
 634 000c 0125     		moveq	r5, #1
 635 000e 0025     		movne	r5, #0
 636              	.LVL53:
  95:SynaptiX_FDK/services/mqtt/sx_mqtt.c ****     else    log_error(TAG, "Publish failed (result=%d)", result);
 637              		.loc 1 95 5 is_stmt 1 view .LVU150
  95:SynaptiX_FDK/services/mqtt/sx_mqtt.c ****     else    log_error(TAG, "Publish failed (result=%d)", result);
 638              		.loc 1 95 8 is_stmt 0 view .LVU151
 639 0010 0AD1     		bne	.L41
  95:SynaptiX_FDK/services/mqtt/sx_mqtt.c ****     else    log_error(TAG, "Publish failed (result=%d)", result);
 640              		.loc 1 95 13 is_stmt 1 discriminator 1 view .LVU152
 641 0012 0A4A     		ldr	r2, .L44+4
ARM GAS  C:\Users\DELL\AppData\Local\Temp\ccitbtwj.s 			page 18


 642 0014 0A49     		ldr	r1, .L44+8
 643              	.LVL54:
  95:SynaptiX_FDK/services/mqtt/sx_mqtt.c ****     else    log_error(TAG, "Publish failed (result=%d)", result);
 644              		.loc 1 95 13 is_stmt 0 discriminator 1 view .LVU153
 645 0016 0420     		movs	r0, #4
 646              	.LVL55:
  95:SynaptiX_FDK/services/mqtt/sx_mqtt.c ****     else    log_error(TAG, "Publish failed (result=%d)", result);
 647              		.loc 1 95 13 discriminator 1 view .LVU154
 648 0018 FFF7FEFF 		bl	log_func
 649              	.LVL56:
 650              	.L42:
  98:SynaptiX_FDK/services/mqtt/sx_mqtt.c **** }
 651              		.loc 1 98 5 is_stmt 1 view .LVU155
  98:SynaptiX_FDK/services/mqtt/sx_mqtt.c **** }
 652              		.loc 1 98 13 is_stmt 0 view .LVU156
 653 001c A36C     		ldr	r3, [r4, #72]
  98:SynaptiX_FDK/services/mqtt/sx_mqtt.c **** }
 654              		.loc 1 98 8 view .LVU157
 655 001e 13B1     		cbz	r3, .L39
  98:SynaptiX_FDK/services/mqtt/sx_mqtt.c **** }
 656              		.loc 1 98 27 is_stmt 1 discriminator 1 view .LVU158
 657 0020 2946     		mov	r1, r5
 658 0022 2046     		mov	r0, r4
 659 0024 9847     		blx	r3
 660              	.LVL57:
 661              	.L39:
  99:SynaptiX_FDK/services/mqtt/sx_mqtt.c **** 
 662              		.loc 1 99 1 is_stmt 0 view .LVU159
 663 0026 38BD     		pop	{r3, r4, r5, pc}
 664              	.LVL58:
 665              	.L41:
  96:SynaptiX_FDK/services/mqtt/sx_mqtt.c **** 
 666              		.loc 1 96 13 is_stmt 1 view .LVU160
 667 0028 0346     		mov	r3, r0
 668 002a 064A     		ldr	r2, .L44+12
 669 002c 0449     		ldr	r1, .L44+8
 670              	.LVL59:
  96:SynaptiX_FDK/services/mqtt/sx_mqtt.c **** 
 671              		.loc 1 96 13 is_stmt 0 view .LVU161
 672 002e 0120     		movs	r0, #1
 673              	.LVL60:
  96:SynaptiX_FDK/services/mqtt/sx_mqtt.c **** 
 674              		.loc 1 96 13 view .LVU162
 675 0030 FFF7FEFF 		bl	log_func
 676              	.LVL61:
 677 0034 F2E7     		b	.L42
 678              	.L45:
 679 0036 00BF     		.align	2
 680              	.L44:
 681 0038 00000000 		.word	s_instance
 682 003c 00000000 		.word	.LC10
 683 0040 18000000 		.word	.LC1
 684 0044 0C000000 		.word	.LC11
 685              		.cfi_endproc
 686              	.LFE14:
 688              		.section	.rodata.cb_subscribe_done.str1.4,"aMS",%progbits,1
 689              		.align	2
ARM GAS  C:\Users\DELL\AppData\Local\Temp\ccitbtwj.s 			page 19


 690              	.LC12:
 691 0000 53756273 		.ascii	"Subscribe OK\000"
 691      63726962 
 691      65204F4B 
 691      00
 692 000d 000000   		.align	2
 693              	.LC13:
 694 0010 53756273 		.ascii	"Subscribe failed (result=%d)\000"
 694      63726962 
 694      65206661 
 694      696C6564 
 694      20287265 
 695              		.section	.text.cb_subscribe_done,"ax",%progbits
 696              		.align	1
 697              		.syntax unified
 698              		.thumb
 699              		.thumb_func
 701              	cb_subscribe_done:
 702              	.LVL62:
 703              	.LFB15:
 102:SynaptiX_FDK/services/mqtt/sx_mqtt.c ****     (void)ctx;
 704              		.loc 1 102 1 is_stmt 1 view -0
 705              		.cfi_startproc
 706              		@ args = 0, pretend = 0, frame = 0
 707              		@ frame_needed = 0, uses_anonymous_args = 0
 102:SynaptiX_FDK/services/mqtt/sx_mqtt.c ****     (void)ctx;
 708              		.loc 1 102 1 is_stmt 0 view .LVU164
 709 0000 08B5     		push	{r3, lr}
 710              	.LCFI15:
 711              		.cfi_def_cfa_offset 8
 712              		.cfi_offset 3, -8
 713              		.cfi_offset 14, -4
 103:SynaptiX_FDK/services/mqtt/sx_mqtt.c ****     if (result == MODEM_OPS_OK)
 714              		.loc 1 103 5 is_stmt 1 view .LVU165
 104:SynaptiX_FDK/services/mqtt/sx_mqtt.c ****         log_debug(TAG, "Subscribe OK");
 715              		.loc 1 104 5 view .LVU166
 104:SynaptiX_FDK/services/mqtt/sx_mqtt.c ****         log_debug(TAG, "Subscribe OK");
 716              		.loc 1 104 8 is_stmt 0 view .LVU167
 717 0002 28B9     		cbnz	r0, .L47
 105:SynaptiX_FDK/services/mqtt/sx_mqtt.c ****     else
 718              		.loc 1 105 9 is_stmt 1 view .LVU168
 719 0004 064A     		ldr	r2, .L50
 720 0006 0749     		ldr	r1, .L50+4
 721              	.LVL63:
 105:SynaptiX_FDK/services/mqtt/sx_mqtt.c ****     else
 722              		.loc 1 105 9 is_stmt 0 view .LVU169
 723 0008 0420     		movs	r0, #4
 724              	.LVL64:
 105:SynaptiX_FDK/services/mqtt/sx_mqtt.c ****     else
 725              		.loc 1 105 9 view .LVU170
 726 000a FFF7FEFF 		bl	log_func
 727              	.LVL65:
 728              	.L46:
 108:SynaptiX_FDK/services/mqtt/sx_mqtt.c **** 
 729              		.loc 1 108 1 view .LVU171
 730 000e 08BD     		pop	{r3, pc}
 731              	.LVL66:
ARM GAS  C:\Users\DELL\AppData\Local\Temp\ccitbtwj.s 			page 20


 732              	.L47:
 108:SynaptiX_FDK/services/mqtt/sx_mqtt.c **** 
 733              		.loc 1 108 1 view .LVU172
 734 0010 0346     		mov	r3, r0
 107:SynaptiX_FDK/services/mqtt/sx_mqtt.c **** }
 735              		.loc 1 107 9 is_stmt 1 view .LVU173
 736 0012 054A     		ldr	r2, .L50+8
 737 0014 0349     		ldr	r1, .L50+4
 738              	.LVL67:
 107:SynaptiX_FDK/services/mqtt/sx_mqtt.c **** }
 739              		.loc 1 107 9 is_stmt 0 view .LVU174
 740 0016 0120     		movs	r0, #1
 741              	.LVL68:
 107:SynaptiX_FDK/services/mqtt/sx_mqtt.c **** }
 742              		.loc 1 107 9 view .LVU175
 743 0018 FFF7FEFF 		bl	log_func
 744              	.LVL69:
 108:SynaptiX_FDK/services/mqtt/sx_mqtt.c **** 
 745              		.loc 1 108 1 view .LVU176
 746 001c F7E7     		b	.L46
 747              	.L51:
 748 001e 00BF     		.align	2
 749              	.L50:
 750 0020 00000000 		.word	.LC12
 751 0024 18000000 		.word	.LC1
 752 0028 10000000 		.word	.LC13
 753              		.cfi_endproc
 754              	.LFE15:
 756              		.section	.rodata.sx_mqtt_init.str1.4,"aMS",%progbits,1
 757              		.align	2
 758              	.LC14:
 759 0000 696E6974 		.ascii	"init OK\000"
 759      204F4B00 
 760              		.section	.text.sx_mqtt_init,"ax",%progbits
 761              		.align	1
 762              		.global	sx_mqtt_init
 763              		.syntax unified
 764              		.thumb
 765              		.thumb_func
 767              	sx_mqtt_init:
 768              	.LVL70:
 769              	.LFB20:
 192:SynaptiX_FDK/services/mqtt/sx_mqtt.c **** 
 193:SynaptiX_FDK/services/mqtt/sx_mqtt.c **** /*
 194:SynaptiX_FDK/services/mqtt/sx_mqtt.c ****  * Public API
 195:SynaptiX_FDK/services/mqtt/sx_mqtt.c ****  */
 196:SynaptiX_FDK/services/mqtt/sx_mqtt.c **** 
 197:SynaptiX_FDK/services/mqtt/sx_mqtt.c **** void sx_mqtt_init(sx_mqtt_t *mqtt, modem_handle_t *modem)
 198:SynaptiX_FDK/services/mqtt/sx_mqtt.c **** {
 770              		.loc 1 198 1 is_stmt 1 view -0
 771              		.cfi_startproc
 772              		@ args = 0, pretend = 0, frame = 0
 773              		@ frame_needed = 0, uses_anonymous_args = 0
 774              		.loc 1 198 1 is_stmt 0 view .LVU178
 775 0000 70B5     		push	{r4, r5, r6, lr}
 776              	.LCFI16:
 777              		.cfi_def_cfa_offset 16
ARM GAS  C:\Users\DELL\AppData\Local\Temp\ccitbtwj.s 			page 21


 778              		.cfi_offset 4, -16
 779              		.cfi_offset 5, -12
 780              		.cfi_offset 6, -8
 781              		.cfi_offset 14, -4
 782 0002 0546     		mov	r5, r0
 783 0004 0C46     		mov	r4, r1
 199:SynaptiX_FDK/services/mqtt/sx_mqtt.c ****     memset(mqtt, 0, sizeof(sx_mqtt_t));
 784              		.loc 1 199 5 is_stmt 1 view .LVU179
 785 0006 4C22     		movs	r2, #76
 786 0008 0021     		movs	r1, #0
 787              	.LVL71:
 788              		.loc 1 199 5 is_stmt 0 view .LVU180
 789 000a FFF7FEFF 		bl	memset
 790              	.LVL72:
 200:SynaptiX_FDK/services/mqtt/sx_mqtt.c ****     mqtt->modem = modem;
 791              		.loc 1 200 5 is_stmt 1 view .LVU181
 792              		.loc 1 200 17 is_stmt 0 view .LVU182
 793 000e 2C60     		str	r4, [r5]
 201:SynaptiX_FDK/services/mqtt/sx_mqtt.c ****     mqtt->state = SX_MQTT_STATE_DISCONNECTED;
 794              		.loc 1 201 5 is_stmt 1 view .LVU183
 202:SynaptiX_FDK/services/mqtt/sx_mqtt.c ****     s_instance  = mqtt;
 795              		.loc 1 202 5 view .LVU184
 796              		.loc 1 202 17 is_stmt 0 view .LVU185
 797 0010 074B     		ldr	r3, .L54
 798 0012 1D60     		str	r5, [r3]
 203:SynaptiX_FDK/services/mqtt/sx_mqtt.c **** 
 204:SynaptiX_FDK/services/mqtt/sx_mqtt.c ****     /* Register once, up front — the driver fires these directly out of its
 205:SynaptiX_FDK/services/mqtt/sx_mqtt.c ****      * own URC parsing, independent of any AT command currently in flight. */
 206:SynaptiX_FDK/services/mqtt/sx_mqtt.c ****     modem->ops->mqtt_set_callbacks(modem->ctx, on_incoming, on_connlost, mqtt);
 799              		.loc 1 206 5 is_stmt 1 view .LVU186
 800              		.loc 1 206 10 is_stmt 0 view .LVU187
 801 0014 2368     		ldr	r3, [r4]
 802              		.loc 1 206 15 view .LVU188
 803 0016 DE6B     		ldr	r6, [r3, #60]
 804              		.loc 1 206 5 view .LVU189
 805 0018 2B46     		mov	r3, r5
 806 001a 064A     		ldr	r2, .L54+4
 807 001c 0649     		ldr	r1, .L54+8
 808 001e 6068     		ldr	r0, [r4, #4]
 809 0020 B047     		blx	r6
 810              	.LVL73:
 207:SynaptiX_FDK/services/mqtt/sx_mqtt.c **** 
 208:SynaptiX_FDK/services/mqtt/sx_mqtt.c ****     log_info(TAG, "init OK");
 811              		.loc 1 208 5 is_stmt 1 view .LVU190
 812 0022 064A     		ldr	r2, .L54+12
 813 0024 0649     		ldr	r1, .L54+16
 814 0026 0320     		movs	r0, #3
 815 0028 FFF7FEFF 		bl	log_func
 816              	.LVL74:
 209:SynaptiX_FDK/services/mqtt/sx_mqtt.c **** }
 817              		.loc 1 209 1 is_stmt 0 view .LVU191
 818 002c 70BD     		pop	{r4, r5, r6, pc}
 819              	.LVL75:
 820              	.L55:
 821              		.loc 1 209 1 view .LVU192
 822 002e 00BF     		.align	2
 823              	.L54:
ARM GAS  C:\Users\DELL\AppData\Local\Temp\ccitbtwj.s 			page 22


 824 0030 00000000 		.word	s_instance
 825 0034 00000000 		.word	on_connlost
 826 0038 00000000 		.word	on_incoming
 827 003c 00000000 		.word	.LC14
 828 0040 18000000 		.word	.LC1
 829              		.cfi_endproc
 830              	.LFE20:
 832              		.section	.rodata.sx_mqtt_report_failure.str1.4,"aMS",%progbits,1
 833              		.align	2
 834              	.LC15:
 835 0000 4661696C 		.ascii	"Failure reported \342\200\224 feeding into recovery"
 835      75726520 
 835      7265706F 
 835      72746564 
 835      20E28094 
 836 002a 206C6164 		.ascii	" ladder\000"
 836      64657200 
 837              		.section	.text.sx_mqtt_report_failure,"ax",%progbits
 838              		.align	1
 839              		.global	sx_mqtt_report_failure
 840              		.syntax unified
 841              		.thumb
 842              		.thumb_func
 844              	sx_mqtt_report_failure:
 845              	.LVL76:
 846              	.LFB21:
 210:SynaptiX_FDK/services/mqtt/sx_mqtt.c **** 
 211:SynaptiX_FDK/services/mqtt/sx_mqtt.c **** /* Lets other layers report a failure into this file's shared recovery
 212:SynaptiX_FDK/services/mqtt/sx_mqtt.c ****  * ladder (see escalate_recovery()) instead of running their own independent
 213:SynaptiX_FDK/services/mqtt/sx_mqtt.c ****  * power-cycle/start() decision. Two current callers:
 214:SynaptiX_FDK/services/mqtt/sx_mqtt.c ****  *   - sx_user_mqtt.c's _on_publish(), after MQTT_PUBLISH_MAX_RETRY
 215:SynaptiX_FDK/services/mqtt/sx_mqtt.c ****  *     consecutive publish failures.
 216:SynaptiX_FDK/services/mqtt/sx_mqtt.c ****  *   - sx_user_mqtt.c's _on_modem_error() (modem_ops_t.set_on_error callback),
 217:SynaptiX_FDK/services/mqtt/sx_mqtt.c ****  *     fired by the driver itself for: (a) the init-attach sequence never
 218:SynaptiX_FDK/services/mqtt/sx_mqtt.c ****  *     reaching ready in the first place (see a7677s.c's restart_init() gap
 219:SynaptiX_FDK/services/mqtt/sx_mqtt.c ****  *     fix), or (b) the periodic AT+CSQ heartbeat failing
 220:SynaptiX_FDK/services/mqtt/sx_mqtt.c ****  *     A7677S_MAX_RETRY times in a row while runtime-idle (see a7677s.c's
 221:SynaptiX_FDK/services/mqtt/sx_mqtt.c ****  *     csq_fail_count) — both are the driver's own signal that something is
 222:SynaptiX_FDK/services/mqtt/sx_mqtt.c ****  *     wrong, previously only logged and never coordinated with any recovery
 223:SynaptiX_FDK/services/mqtt/sx_mqtt.c ****  *     action.
 224:SynaptiX_FDK/services/mqtt/sx_mqtt.c ****  * Deliberately does NOT set mqtt->state or fire on_disconnected: none of
 225:SynaptiX_FDK/services/mqtt/sx_mqtt.c ****  * these failure reports by themselves prove the MQTT connection is down
 226:SynaptiX_FDK/services/mqtt/sx_mqtt.c ****  * (state is driven by the real connect/disconnect/connlost paths elsewhere
 227:SynaptiX_FDK/services/mqtt/sx_mqtt.c ****  * in this file) — this call only means "count this toward the shared
 228:SynaptiX_FDK/services/mqtt/sx_mqtt.c ****  * recovery ladder." */
 229:SynaptiX_FDK/services/mqtt/sx_mqtt.c **** void sx_mqtt_report_failure(sx_mqtt_t *mqtt)
 230:SynaptiX_FDK/services/mqtt/sx_mqtt.c **** {
 847              		.loc 1 230 1 is_stmt 1 view -0
 848              		.cfi_startproc
 849              		@ args = 0, pretend = 0, frame = 0
 850              		@ frame_needed = 0, uses_anonymous_args = 0
 851              		.loc 1 230 1 is_stmt 0 view .LVU194
 852 0000 10B5     		push	{r4, lr}
 853              	.LCFI17:
 854              		.cfi_def_cfa_offset 8
 855              		.cfi_offset 4, -8
 856              		.cfi_offset 14, -4
ARM GAS  C:\Users\DELL\AppData\Local\Temp\ccitbtwj.s 			page 23


 857 0002 0446     		mov	r4, r0
 231:SynaptiX_FDK/services/mqtt/sx_mqtt.c ****     log_warn(TAG, "Failure reported — feeding into recovery ladder");
 858              		.loc 1 231 5 is_stmt 1 view .LVU195
 859 0004 044A     		ldr	r2, .L58
 860 0006 0549     		ldr	r1, .L58+4
 861 0008 0220     		movs	r0, #2
 862              	.LVL77:
 863              		.loc 1 231 5 is_stmt 0 view .LVU196
 864 000a FFF7FEFF 		bl	log_func
 865              	.LVL78:
 232:SynaptiX_FDK/services/mqtt/sx_mqtt.c ****     escalate_recovery(mqtt);
 866              		.loc 1 232 5 is_stmt 1 view .LVU197
 867 000e 2046     		mov	r0, r4
 868 0010 FFF7FEFF 		bl	escalate_recovery
 869              	.LVL79:
 233:SynaptiX_FDK/services/mqtt/sx_mqtt.c **** }
 870              		.loc 1 233 1 is_stmt 0 view .LVU198
 871 0014 10BD     		pop	{r4, pc}
 872              	.LVL80:
 873              	.L59:
 874              		.loc 1 233 1 view .LVU199
 875 0016 00BF     		.align	2
 876              	.L58:
 877 0018 00000000 		.word	.LC15
 878 001c 18000000 		.word	.LC1
 879              		.cfi_endproc
 880              	.LFE21:
 882              		.section	.rodata.sx_mqtt_set_config.str1.4,"aMS",%progbits,1
 883              		.align	2
 884              	.LC16:
 885 0000 636F6E66 		.ascii	"config: broker=%s port=%u client_id=%s\000"
 885      69673A20 
 885      62726F6B 
 885      65723D25 
 885      7320706F 
 886              		.section	.text.sx_mqtt_set_config,"ax",%progbits
 887              		.align	1
 888              		.global	sx_mqtt_set_config
 889              		.syntax unified
 890              		.thumb
 891              		.thumb_func
 893              	sx_mqtt_set_config:
 894              	.LVL81:
 895              	.LFB22:
 234:SynaptiX_FDK/services/mqtt/sx_mqtt.c **** 
 235:SynaptiX_FDK/services/mqtt/sx_mqtt.c **** void sx_mqtt_set_config(sx_mqtt_t *mqtt, const sx_mqtt_config_t *config)
 236:SynaptiX_FDK/services/mqtt/sx_mqtt.c **** {
 896              		.loc 1 236 1 is_stmt 1 view -0
 897              		.cfi_startproc
 898              		@ args = 0, pretend = 0, frame = 0
 899              		@ frame_needed = 0, uses_anonymous_args = 0
 900              		.loc 1 236 1 is_stmt 0 view .LVU201
 901 0000 10B5     		push	{r4, lr}
 902              	.LCFI18:
 903              		.cfi_def_cfa_offset 8
 904              		.cfi_offset 4, -8
 905              		.cfi_offset 14, -4
ARM GAS  C:\Users\DELL\AppData\Local\Temp\ccitbtwj.s 			page 24


 906 0002 82B0     		sub	sp, sp, #8
 907              	.LCFI19:
 908              		.cfi_def_cfa_offset 16
 909 0004 0C46     		mov	r4, r1
 237:SynaptiX_FDK/services/mqtt/sx_mqtt.c ****     mqtt->config = *config;
 910              		.loc 1 237 5 is_stmt 1 view .LVU202
 911              		.loc 1 237 18 is_stmt 0 view .LVU203
 912 0006 00F1040C 		add	ip, r0, #4
 913 000a 8E46     		mov	lr, r1
 914 000c BEE80F00 		ldmia	lr!, {r0, r1, r2, r3}
 915              	.LVL82:
 916              		.loc 1 237 18 view .LVU204
 917 0010 ACE80F00 		stmia	ip!, {r0, r1, r2, r3}
 918              	.LVL83:
 919              		.loc 1 237 18 view .LVU205
 920 0014 BEE80F00 		ldmia	lr!, {r0, r1, r2, r3}
 921 0018 ACE80F00 		stmia	ip!, {r0, r1, r2, r3}
 922              	.LVL84:
 923              		.loc 1 237 18 view .LVU206
 924 001c 9EE80300 		ldm	lr, {r0, r1}
 925 0020 8CE80300 		stm	ip, {r0, r1}
 238:SynaptiX_FDK/services/mqtt/sx_mqtt.c ****     log_info(TAG, "config: broker=%s port=%u client_id=%s",
 926              		.loc 1 238 5 is_stmt 1 view .LVU207
 927 0024 A388     		ldrh	r3, [r4, #4]
 928 0026 A268     		ldr	r2, [r4, #8]
 929 0028 0192     		str	r2, [sp, #4]
 930 002a 0093     		str	r3, [sp]
 931 002c 2368     		ldr	r3, [r4]
 932 002e 034A     		ldr	r2, .L62
 933 0030 0349     		ldr	r1, .L62+4
 934 0032 0320     		movs	r0, #3
 935 0034 FFF7FEFF 		bl	log_func
 936              	.LVL85:
 239:SynaptiX_FDK/services/mqtt/sx_mqtt.c ****              config->broker, config->port, config->client_id);
 240:SynaptiX_FDK/services/mqtt/sx_mqtt.c **** }
 937              		.loc 1 240 1 is_stmt 0 view .LVU208
 938 0038 02B0     		add	sp, sp, #8
 939              	.LCFI20:
 940              		.cfi_def_cfa_offset 8
 941              		@ sp needed
 942 003a 10BD     		pop	{r4, pc}
 943              	.LVL86:
 944              	.L63:
 945              		.loc 1 240 1 view .LVU209
 946              		.align	2
 947              	.L62:
 948 003c 00000000 		.word	.LC16
 949 0040 18000000 		.word	.LC1
 950              		.cfi_endproc
 951              	.LFE22:
 953              		.section	.rodata.sx_mqtt_connect.str1.4,"aMS",%progbits,1
 954              		.align	2
 955              	.LC17:
 956 0000 636F6E6E 		.ascii	"connect: modem not ready\000"
 956      6563743A 
 956      206D6F64 
 956      656D206E 
ARM GAS  C:\Users\DELL\AppData\Local\Temp\ccitbtwj.s 			page 25


 956      6F742072 
 957 0019 000000   		.align	2
 958              	.LC18:
 959 001c 636F6E6E 		.ascii	"connect: already connected or in progress\000"
 959      6563743A 
 959      20616C72 
 959      65616479 
 959      20636F6E 
 960 0046 0000     		.align	2
 961              	.LC19:
 962 0048 53746172 		.ascii	"Starting connect flow\000"
 962      74696E67 
 962      20636F6E 
 962      6E656374 
 962      20666C6F 
 963              		.section	.text.sx_mqtt_connect,"ax",%progbits
 964              		.align	1
 965              		.global	sx_mqtt_connect
 966              		.syntax unified
 967              		.thumb
 968              		.thumb_func
 970              	sx_mqtt_connect:
 971              	.LVL87:
 972              	.LFB23:
 241:SynaptiX_FDK/services/mqtt/sx_mqtt.c **** 
 242:SynaptiX_FDK/services/mqtt/sx_mqtt.c **** int sx_mqtt_connect(sx_mqtt_t *mqtt)
 243:SynaptiX_FDK/services/mqtt/sx_mqtt.c **** {
 973              		.loc 1 243 1 is_stmt 1 view -0
 974              		.cfi_startproc
 975              		@ args = 0, pretend = 0, frame = 0
 976              		@ frame_needed = 0, uses_anonymous_args = 0
 977              		.loc 1 243 1 is_stmt 0 view .LVU211
 978 0000 30B5     		push	{r4, r5, lr}
 979              	.LCFI21:
 980              		.cfi_def_cfa_offset 12
 981              		.cfi_offset 4, -12
 982              		.cfi_offset 5, -8
 983              		.cfi_offset 14, -4
 984 0002 8BB0     		sub	sp, sp, #44
 985              	.LCFI22:
 986              		.cfi_def_cfa_offset 56
 987 0004 0446     		mov	r4, r0
 244:SynaptiX_FDK/services/mqtt/sx_mqtt.c ****     if (!modem_handle_is_ready(mqtt->modem)) {
 988              		.loc 1 244 5 is_stmt 1 view .LVU212
 989              		.loc 1 244 10 is_stmt 0 view .LVU213
 990 0006 0368     		ldr	r3, [r0]
 991              	.LVL88:
 992              	.LBB14:
 993              	.LBI14:
 994              		.file 2 "SynaptiX_FDK/components/modules/modem_ops/modem_ops.h"
   1:SynaptiX_FDK/components/modules/modem_ops/modem_ops.h **** #ifndef MODEM_OPS_H
   2:SynaptiX_FDK/components/modules/modem_ops/modem_ops.h **** #define MODEM_OPS_H
   3:SynaptiX_FDK/components/modules/modem_ops/modem_ops.h **** #ifdef __cplusplus
   4:SynaptiX_FDK/components/modules/modem_ops/modem_ops.h **** extern "C" {
   5:SynaptiX_FDK/components/modules/modem_ops/modem_ops.h **** #endif
   6:SynaptiX_FDK/components/modules/modem_ops/modem_ops.h **** 
   7:SynaptiX_FDK/components/modules/modem_ops/modem_ops.h **** #include <stdint.h>
ARM GAS  C:\Users\DELL\AppData\Local\Temp\ccitbtwj.s 			page 26


   8:SynaptiX_FDK/components/modules/modem_ops/modem_ops.h **** #include <stdbool.h>
   9:SynaptiX_FDK/components/modules/modem_ops/modem_ops.h **** 
  10:SynaptiX_FDK/components/modules/modem_ops/modem_ops.h **** /*
  11:SynaptiX_FDK/components/modules/modem_ops/modem_ops.h ****  * modem_ops.h
  12:SynaptiX_FDK/components/modules/modem_ops/modem_ops.h ****  *
  13:SynaptiX_FDK/components/modules/modem_ops/modem_ops.h ****  * Common interface (VTABLE) for every modem driver (sim76xx, a7677s, ...).
  14:SynaptiX_FDK/components/modules/modem_ops/modem_ops.h ****  * This is the only contract that the service layer (sx_mqtt.c,
  15:SynaptiX_FDK/components/modules/modem_ops/modem_ops.h ****  * sx_sleep_manager.c, sx_user_mqtt.c) is allowed to know about. The service
  16:SynaptiX_FDK/components/modules/modem_ops/modem_ops.h ****  * layer must NOT include sim76xx.h or a7677s.h directly — every operation
  17:SynaptiX_FDK/components/modules/modem_ops/modem_ops.h ****  * must go through modem_ops_t.
  18:SynaptiX_FDK/components/modules/modem_ops/modem_ops.h ****  *
  19:SynaptiX_FDK/components/modules/modem_ops/modem_ops.h ****  * Design notes:
  20:SynaptiX_FDK/components/modules/modem_ops/modem_ops.h ****  * - No PSM (AT+CPSMS) in this interface. Reason: A7677S has no DTR pin wired
  21:SynaptiX_FDK/components/modules/modem_ops/modem_ops.h ****  *   to the STM32, so it cannot be woken up early while PSM is waiting out
  22:SynaptiX_FDK/components/modules/modem_ops/modem_ops.h ****  *   the T3412 cycle. Use enter_low_power/exit_low_power (AT+CFUN=0/1)
  23:SynaptiX_FDK/components/modules/modem_ops/modem_ops.h ****  *   instead.
  24:SynaptiX_FDK/components/modules/modem_ops/modem_ops.h ****  * - No power-ready signal based on a STATUS pin (A7677S has no STATUS pin
  25:SynaptiX_FDK/components/modules/modem_ops/modem_ops.h ****  *   wired to the STM32 either). Modem readiness must be confirmed via AT/OK
  26:SynaptiX_FDK/components/modules/modem_ops/modem_ops.h ****  *   response, handled internally by the concrete driver (e.g. through a
  27:SynaptiX_FDK/components/modules/modem_ops/modem_ops.h ****  *   POWER_WAIT_BOOT state in its power state machine).
  28:SynaptiX_FDK/components/modules/modem_ops/modem_ops.h ****  * - Every function is non-blocking. No function is allowed to call a
  29:SynaptiX_FDK/components/modules/modem_ops/modem_ops.h ****  *   blocking delay (sx_delay_ms). State must be advanced through poll().
  30:SynaptiX_FDK/components/modules/modem_ops/modem_ops.h ****  */
  31:SynaptiX_FDK/components/modules/modem_ops/modem_ops.h **** 
  32:SynaptiX_FDK/components/modules/modem_ops/modem_ops.h **** /* Result codes at the business/service layer (different from
  33:SynaptiX_FDK/components/modules/modem_ops/modem_ops.h ****  * modem_response_st_t in modem.h, which is the raw AT-command layer result —
  34:SynaptiX_FDK/components/modules/modem_ops/modem_ops.h ****  * this one is already interpreted by the driver). */
  35:SynaptiX_FDK/components/modules/modem_ops/modem_ops.h **** typedef enum {
  36:SynaptiX_FDK/components/modules/modem_ops/modem_ops.h ****     MODEM_OPS_OK = 0,
  37:SynaptiX_FDK/components/modules/modem_ops/modem_ops.h ****     MODEM_OPS_ERROR,
  38:SynaptiX_FDK/components/modules/modem_ops/modem_ops.h ****     MODEM_OPS_TIMEOUT,
  39:SynaptiX_FDK/components/modules/modem_ops/modem_ops.h ****     MODEM_OPS_BUSY          /* modem is busy, request rejected, retry later */
  40:SynaptiX_FDK/components/modules/modem_ops/modem_ops.h **** } modem_ops_result_t;
  41:SynaptiX_FDK/components/modules/modem_ops/modem_ops.h **** 
  42:SynaptiX_FDK/components/modules/modem_ops/modem_ops.h **** /* Common callback for MQTT operations (connect/disconnect/publish/subscribe).
  43:SynaptiX_FDK/components/modules/modem_ops/modem_ops.h ****  * ctx: context pointer passed in by the caller when invoking the function
  44:SynaptiX_FDK/components/modules/modem_ops/modem_ops.h ****  *      (e.g. the MQTT client), passed back unchanged when the callback
  45:SynaptiX_FDK/components/modules/modem_ops/modem_ops.h ****  *      fires. */
  46:SynaptiX_FDK/components/modules/modem_ops/modem_ops.h **** typedef void (*mqtt_cb_t)(modem_ops_result_t result, void *ctx);
  47:SynaptiX_FDK/components/modules/modem_ops/modem_ops.h **** 
  48:SynaptiX_FDK/components/modules/modem_ops/modem_ops.h **** /* Callback fired when an inbound MQTT message is fully received (i.e. after
  49:SynaptiX_FDK/components/modules/modem_ops/modem_ops.h ****  * the driver has accumulated all +CMQTTRXTOPIC/+CMQTTRXPAYLOAD fragments up
  50:SynaptiX_FDK/components/modules/modem_ops/modem_ops.h ****  * to +CMQTTRXEND). topic/payload are NUL-terminated but not guaranteed to
  51:SynaptiX_FDK/components/modules/modem_ops/modem_ops.h ****  * stay valid after the callback returns — copy out anything needed.
  52:SynaptiX_FDK/components/modules/modem_ops/modem_ops.h ****  * ctx: the user_ctx pointer passed to mqtt_set_callbacks(). */
  53:SynaptiX_FDK/components/modules/modem_ops/modem_ops.h **** typedef void (*mqtt_incoming_cb_t)(const char *topic, uint16_t topic_len,
  54:SynaptiX_FDK/components/modules/modem_ops/modem_ops.h ****                                     const char *payload, uint16_t payload_len,
  55:SynaptiX_FDK/components/modules/modem_ops/modem_ops.h ****                                     void *ctx);
  56:SynaptiX_FDK/components/modules/modem_ops/modem_ops.h **** 
  57:SynaptiX_FDK/components/modules/modem_ops/modem_ops.h **** /* Callback fired when the MQTT session drops asynchronously (+CMQTTCONNLOST
  58:SynaptiX_FDK/components/modules/modem_ops/modem_ops.h ****  * URC, or a PDN deactivation that the driver knows MQTT cannot survive).
  59:SynaptiX_FDK/components/modules/modem_ops/modem_ops.h ****  * ctx: the user_ctx pointer passed to mqtt_set_callbacks(). */
  60:SynaptiX_FDK/components/modules/modem_ops/modem_ops.h **** typedef void (*mqtt_connlost_cb_t)(void *ctx);
  61:SynaptiX_FDK/components/modules/modem_ops/modem_ops.h **** 
  62:SynaptiX_FDK/components/modules/modem_ops/modem_ops.h **** /* Callback used for enter_low_power / exit_low_power, since these are also
  63:SynaptiX_FDK/components/modules/modem_ops/modem_ops.h ****  * asynchronous operations (waiting for the AT+CFUN=0/1 response via
  64:SynaptiX_FDK/components/modules/modem_ops/modem_ops.h ****  * poll()). */
ARM GAS  C:\Users\DELL\AppData\Local\Temp\ccitbtwj.s 			page 27


  65:SynaptiX_FDK/components/modules/modem_ops/modem_ops.h **** typedef void (*power_mode_cb_t)(modem_ops_result_t result, void *ctx);
  66:SynaptiX_FDK/components/modules/modem_ops/modem_ops.h **** 
  67:SynaptiX_FDK/components/modules/modem_ops/modem_ops.h **** /* Callback fired exactly once, the moment the driver's internal state
  68:SynaptiX_FDK/components/modules/modem_ops/modem_ops.h ****  * transitions into "ready" (rising edge — the driver must track its own
  69:SynaptiX_FDK/components/modules/modem_ops/modem_ops.h ****  * previous state and only fire on the 0->1 transition, never repeatedly
  70:SynaptiX_FDK/components/modules/modem_ops/modem_ops.h ****  * while already ready). Lets the caller react immediately (e.g. kick off
  71:SynaptiX_FDK/components/modules/modem_ops/modem_ops.h ****  * mqtt_connect()) instead of having to poll is_ready() every loop.
  72:SynaptiX_FDK/components/modules/modem_ops/modem_ops.h ****  * ctx: the user_ctx pointer passed to set_on_ready(). */
  73:SynaptiX_FDK/components/modules/modem_ops/modem_ops.h **** typedef void (*modem_ready_cb_t)(void *ctx);
  74:SynaptiX_FDK/components/modules/modem_ops/modem_ops.h **** 
  75:SynaptiX_FDK/components/modules/modem_ops/modem_ops.h **** /* Callback fired when the driver detects an unrecoverable error condition
  76:SynaptiX_FDK/components/modules/modem_ops/modem_ops.h ****  * outside of any in-flight operation (e.g. network deregistration, modem
  77:SynaptiX_FDK/components/modules/modem_ops/modem_ops.h ****  * stopped responding to AT during normal operation). Not related to a
  78:SynaptiX_FDK/components/modules/modem_ops/modem_ops.h ****  * specific mqtt_cb_t/power_mode_cb_t call already in flight — those still
  79:SynaptiX_FDK/components/modules/modem_ops/modem_ops.h ****  * report their own failure through their own callback.
  80:SynaptiX_FDK/components/modules/modem_ops/modem_ops.h ****  * ctx: the user_ctx pointer passed to set_on_error(). */
  81:SynaptiX_FDK/components/modules/modem_ops/modem_ops.h **** typedef void (*modem_error_cb_t)(void *ctx);
  82:SynaptiX_FDK/components/modules/modem_ops/modem_ops.h **** 
  83:SynaptiX_FDK/components/modules/modem_ops/modem_ops.h **** typedef struct {
  84:SynaptiX_FDK/components/modules/modem_ops/modem_ops.h ****     /* --- Power state machine (non-blocking, PWRKEY pulse + poll based) --- */
  85:SynaptiX_FDK/components/modules/modem_ops/modem_ops.h **** 
  86:SynaptiX_FDK/components/modules/modem_ops/modem_ops.h ****     /* Starts the power-on sequence: pulse PWRKEY, then confirm via AT/OK.
  87:SynaptiX_FDK/components/modules/modem_ops/modem_ops.h ****      * Does not block. Progress is advanced inside poll(). */
  88:SynaptiX_FDK/components/modules/modem_ops/modem_ops.h ****     void (*power_on_start)(void *ctx);
  89:SynaptiX_FDK/components/modules/modem_ops/modem_ops.h **** 
  90:SynaptiX_FDK/components/modules/modem_ops/modem_ops.h ****     /* Starts the power-off sequence (e.g. AT+CPOF or a long PWRKEY toggle,
  91:SynaptiX_FDK/components/modules/modem_ops/modem_ops.h ****      * depending on the concrete driver). Does not block. */
  92:SynaptiX_FDK/components/modules/modem_ops/modem_ops.h ****     void (*power_off_start)(void *ctx);
  93:SynaptiX_FDK/components/modules/modem_ops/modem_ops.h **** 
  94:SynaptiX_FDK/components/modules/modem_ops/modem_ops.h ****     /* true if the power state machine is mid-sequence (neither IDLE nor
  95:SynaptiX_FDK/components/modules/modem_ops/modem_ops.h ****      * READY). Callers use this to decide whether it is safe to send other
  96:SynaptiX_FDK/components/modules/modem_ops/modem_ops.h ****      * commands yet. */
  97:SynaptiX_FDK/components/modules/modem_ops/modem_ops.h ****     bool (*power_is_busy)(void *ctx);
  98:SynaptiX_FDK/components/modules/modem_ops/modem_ops.h **** 
  99:SynaptiX_FDK/components/modules/modem_ops/modem_ops.h ****     /* Last-resort hard reset via the module's physical RST pin (if wired on
 100:SynaptiX_FDK/components/modules/modem_ops/modem_ops.h ****      * this board revision), bypassing the graceful AT+CPOF/PWRKEY shutdown
 101:SynaptiX_FDK/components/modules/modem_ops/modem_ops.h ****      * sequence entirely. Non-blocking — pulses the pin for the manufacturer-
 102:SynaptiX_FDK/components/modules/modem_ops/modem_ops.h ****      * recommended duration, then the module re-boots on its own; progress
 103:SynaptiX_FDK/components/modules/modem_ops/modem_ops.h ****      * (including the post-reset AT/OK probe) is advanced inside poll(), same
 104:SynaptiX_FDK/components/modules/modem_ops/modem_ops.h ****      * as power_on_start(). Callers should treat this the same as a fresh
 105:SynaptiX_FDK/components/modules/modem_ops/modem_ops.h ****      * power_on_start() for sequencing purposes (e.g. wait for is_ready()/
 106:SynaptiX_FDK/components/modules/modem_ops/modem_ops.h ****      * set_on_ready() afterwards) — do not call start() immediately after
 107:SynaptiX_FDK/components/modules/modem_ops/modem_ops.h ****      * this returns.
 108:SynaptiX_FDK/components/modules/modem_ops/modem_ops.h ****      * Intended only as an escalation when the normal power_off_start()/
 109:SynaptiX_FDK/components/modules/modem_ops/modem_ops.h ****      * power_on_start() cycle has itself failed to recover the modem
 110:SynaptiX_FDK/components/modules/modem_ops/modem_ops.h ****      * repeatedly, or the modem has stopped responding to AT entirely — not
 111:SynaptiX_FDK/components/modules/modem_ops/modem_ops.h ****      * as a routine recovery path. A driver with no RST pin wired on a given
 112:SynaptiX_FDK/components/modules/modem_ops/modem_ops.h ****      * board revision may implement this as a no-op that simply falls back to
 113:SynaptiX_FDK/components/modules/modem_ops/modem_ops.h ****      * power_off_start()+power_on_start(); callers must not assume the RST
 114:SynaptiX_FDK/components/modules/modem_ops/modem_ops.h ****      * pin was actually pulsed. */
 115:SynaptiX_FDK/components/modules/modem_ops/modem_ops.h ****     void (*hard_reset)(void *ctx);
 116:SynaptiX_FDK/components/modules/modem_ops/modem_ops.h **** 
 117:SynaptiX_FDK/components/modules/modem_ops/modem_ops.h ****     /* Clears stale low-level UART/RX-buffer state (busy flag, receive
 118:SynaptiX_FDK/components/modules/modem_ops/modem_ops.h ****      * buffer index/contents) without touching power state, init state, or
 119:SynaptiX_FDK/components/modules/modem_ops/modem_ops.h ****      * any higher-level session/connection state. Needed specifically
 120:SynaptiX_FDK/components/modules/modem_ops/modem_ops.h ****      * because power-cycling (power_off_start()/power_on_start()/hard_reset())
 121:SynaptiX_FDK/components/modules/modem_ops/modem_ops.h ****      * does NOT by itself clear this state — only the driver's one-time
ARM GAS  C:\Users\DELL\AppData\Local\Temp\ccitbtwj.s 			page 28


 122:SynaptiX_FDK/components/modules/modem_ops/modem_ops.h ****      * boot-time init function does, which callers outside the driver cannot
 123:SynaptiX_FDK/components/modules/modem_ops/modem_ops.h ****      * invoke again mid-runtime. Intended for callers such as a sleep/wake
 124:SynaptiX_FDK/components/modules/modem_ops/modem_ops.h ****      * manager that power-cycle the modem across a sleep period and need to
 125:SynaptiX_FDK/components/modules/modem_ops/modem_ops.h ****      * guarantee no stale byte count or half-received command survives into
 126:SynaptiX_FDK/components/modules/modem_ops/modem_ops.h ****      * the post-wake AT sequence, before calling start() again. Safe to call
 127:SynaptiX_FDK/components/modules/modem_ops/modem_ops.h ****      * at any time; does not send any AT command and completes synchronously. */
 128:SynaptiX_FDK/components/modules/modem_ops/modem_ops.h ****     void (*comm_reset)(void *ctx);
 129:SynaptiX_FDK/components/modules/modem_ops/modem_ops.h **** 
 130:SynaptiX_FDK/components/modules/modem_ops/modem_ops.h ****     /* --- Modem initialization after power is up --- */
 131:SynaptiX_FDK/components/modules/modem_ops/modem_ops.h **** 
 132:SynaptiX_FDK/components/modules/modem_ops/modem_ops.h ****     /* Runs the AT init sequence (network attach, APN, etc). Returns 0 if the
 133:SynaptiX_FDK/components/modules/modem_ops/modem_ops.h ****      * sequence was started successfully (this does not mean it is already
 134:SynaptiX_FDK/components/modules/modem_ops/modem_ops.h ****      * ready), <0 if it could not be started (e.g. modem busy). Actual
 135:SynaptiX_FDK/components/modules/modem_ops/modem_ops.h ****      * progress must be tracked via is_ready(). */
 136:SynaptiX_FDK/components/modules/modem_ops/modem_ops.h ****     int (*start)(void *ctx);
 137:SynaptiX_FDK/components/modules/modem_ops/modem_ops.h **** 
 138:SynaptiX_FDK/components/modules/modem_ops/modem_ops.h ****     /* true once the modem has finished init and is ready for
 139:SynaptiX_FDK/components/modules/modem_ops/modem_ops.h ****      * network/MQTT use. */
 140:SynaptiX_FDK/components/modules/modem_ops/modem_ops.h ****     bool (*is_ready)(void *ctx);
 141:SynaptiX_FDK/components/modules/modem_ops/modem_ops.h **** 
 142:SynaptiX_FDK/components/modules/modem_ops/modem_ops.h ****     /* Registers a one-shot-per-transition callback fired when is_ready()
 143:SynaptiX_FDK/components/modules/modem_ops/modem_ops.h ****      * would flip from false to true. Not an async op of its own — just
 144:SynaptiX_FDK/components/modules/modem_ops/modem_ops.h ****      * stores the callback + user_ctx on the driver. Call once, any time
 145:SynaptiX_FDK/components/modules/modem_ops/modem_ops.h ****      * after modem_handle_t is set up (before or after start()). Passing
 146:SynaptiX_FDK/components/modules/modem_ops/modem_ops.h ****      * cb=NULL disables the notification (driver keeps polling internally
 147:SynaptiX_FDK/components/modules/modem_ops/modem_ops.h ****      * but does not fire anything). */
 148:SynaptiX_FDK/components/modules/modem_ops/modem_ops.h ****     void (*set_on_ready)(void *ctx, modem_ready_cb_t cb, void *user_ctx);
 149:SynaptiX_FDK/components/modules/modem_ops/modem_ops.h **** 
 150:SynaptiX_FDK/components/modules/modem_ops/modem_ops.h ****     /* Registers a callback fired when the driver detects it has dropped out
 151:SynaptiX_FDK/components/modules/modem_ops/modem_ops.h ****      * of the ready state due to an error condition (not a normal, expected
 152:SynaptiX_FDK/components/modules/modem_ops/modem_ops.h ****      * transition like entering low power). Passing cb=NULL disables it. */
 153:SynaptiX_FDK/components/modules/modem_ops/modem_ops.h ****     void (*set_on_error)(void *ctx, modem_error_cb_t cb, void *user_ctx);
 154:SynaptiX_FDK/components/modules/modem_ops/modem_ops.h **** 
 155:SynaptiX_FDK/components/modules/modem_ops/modem_ops.h ****     /* --- Low power mode (replaces PSM) --- */
 156:SynaptiX_FDK/components/modules/modem_ops/modem_ops.h **** 
 157:SynaptiX_FDK/components/modules/modem_ops/modem_ops.h ****     /* AT+CFUN=0 — reduces power draw, no reboot needed on resume.
 158:SynaptiX_FDK/components/modules/modem_ops/modem_ops.h ****      * Used for short sleep cycles. Non-blocking, result delivered via cb. */
 159:SynaptiX_FDK/components/modules/modem_ops/modem_ops.h ****     int (*enter_low_power)(void *ctx, power_mode_cb_t cb);
 160:SynaptiX_FDK/components/modules/modem_ops/modem_ops.h **** 
 161:SynaptiX_FDK/components/modules/modem_ops/modem_ops.h ****     /* AT+CFUN=1 — restores full functionality. Non-blocking. */
 162:SynaptiX_FDK/components/modules/modem_ops/modem_ops.h ****     int (*exit_low_power)(void *ctx, power_mode_cb_t cb);
 163:SynaptiX_FDK/components/modules/modem_ops/modem_ops.h **** 
 164:SynaptiX_FDK/components/modules/modem_ops/modem_ops.h ****     /* --- MQTT --- */
 165:SynaptiX_FDK/components/modules/modem_ops/modem_ops.h **** 
 166:SynaptiX_FDK/components/modules/modem_ops/modem_ops.h ****     /* All connection parameters are passed on every call so the caller
 167:SynaptiX_FDK/components/modules/modem_ops/modem_ops.h ****      * (sx_mqtt.c) can reconnect to a different broker or use a different
 168:SynaptiX_FDK/components/modules/modem_ops/modem_ops.h ****      * identity without knowing the concrete driver type.
 169:SynaptiX_FDK/components/modules/modem_ops/modem_ops.h ****      *
 170:SynaptiX_FDK/components/modules/modem_ops/modem_ops.h ****      * client_id: MQTT client identifier (AT+CMQTTACCQ). Must be unique per
 171:SynaptiX_FDK/components/modules/modem_ops/modem_ops.h ****      *   device/session. NULL is not allowed (MQTT spec requires a non-empty
 172:SynaptiX_FDK/components/modules/modem_ops/modem_ops.h ****      *   client ID for clean_session=0; most brokers also reject empty IDs).
 173:SynaptiX_FDK/components/modules/modem_ops/modem_ops.h ****      * use_ssl: 0 = plain TCP (broker URI built as "tcp://host:port"), the
 174:SynaptiX_FDK/components/modules/modem_ops/modem_ops.h ****      *   ca_cert/client_cert/client_key parameters below are ignored entirely
 175:SynaptiX_FDK/components/modules/modem_ops/modem_ops.h ****      *   in this case, regardless of what is passed in them.
 176:SynaptiX_FDK/components/modules/modem_ops/modem_ops.h ****      *   1 = TLS (broker URI built as "ssl://host:port"); the driver runs the
 177:SynaptiX_FDK/components/modules/modem_ops/modem_ops.h ****      *   AT+CSSLCFG/AT+CCERTDOWN sequence before AT+CMQTTCONNECT.
 178:SynaptiX_FDK/components/modules/modem_ops/modem_ops.h ****      * ca_cert/client_cert/client_key: only consulted when use_ssl is 1.
ARM GAS  C:\Users\DELL\AppData\Local\Temp\ccitbtwj.s 			page 29


 179:SynaptiX_FDK/components/modules/modem_ops/modem_ops.h ****      *   PEM text (NUL-terminated), or NULL/"" if not used:
 180:SynaptiX_FDK/components/modules/modem_ops/modem_ops.h ****      *     - ca_cert NULL/"" and client_cert/client_key NULL/"": TLS with the
 181:SynaptiX_FDK/components/modules/modem_ops/modem_ops.h ****      *       module's own trust handling / no certs uploaded (server-auth-off
 182:SynaptiX_FDK/components/modules/modem_ops/modem_ops.h ****      *       or module-default trust, driver-dependent).
 183:SynaptiX_FDK/components/modules/modem_ops/modem_ops.h ****      *     - ca_cert set, client_cert/client_key NULL/"": server-authentication
 184:SynaptiX_FDK/components/modules/modem_ops/modem_ops.h ****      *       TLS only (the common HTTPS-like case).
 185:SynaptiX_FDK/components/modules/modem_ops/modem_ops.h ****      *     - all three set: mutual TLS (client authenticates to the broker
 186:SynaptiX_FDK/components/modules/modem_ops/modem_ops.h ****      *       too, e.g. AWS IoT Core).
 187:SynaptiX_FDK/components/modules/modem_ops/modem_ops.h ****      *   There is no separate "mutual TLS" flag — whether mutual auth happens
 188:SynaptiX_FDK/components/modules/modem_ops/modem_ops.h ****      *   is entirely determined by whether client_cert/client_key are supplied.
 189:SynaptiX_FDK/components/modules/modem_ops/modem_ops.h ****      * username/password: may be NULL or "" if the broker does not require
 190:SynaptiX_FDK/components/modules/modem_ops/modem_ops.h ****      *   authentication (the driver will skip sending credentials). */
 191:SynaptiX_FDK/components/modules/modem_ops/modem_ops.h ****     int (*mqtt_connect)(void *ctx, const char *client_id,
 192:SynaptiX_FDK/components/modules/modem_ops/modem_ops.h ****                          const char *broker, uint16_t port,
 193:SynaptiX_FDK/components/modules/modem_ops/modem_ops.h ****                          uint8_t use_ssl,
 194:SynaptiX_FDK/components/modules/modem_ops/modem_ops.h ****                          const char *ca_cert,
 195:SynaptiX_FDK/components/modules/modem_ops/modem_ops.h ****                          const char *client_cert,
 196:SynaptiX_FDK/components/modules/modem_ops/modem_ops.h ****                          const char *client_key,
 197:SynaptiX_FDK/components/modules/modem_ops/modem_ops.h ****                          uint16_t keepalive,
 198:SynaptiX_FDK/components/modules/modem_ops/modem_ops.h ****                          uint8_t clean_session, const char *username,
 199:SynaptiX_FDK/components/modules/modem_ops/modem_ops.h ****                          const char *password, mqtt_cb_t cb);
 200:SynaptiX_FDK/components/modules/modem_ops/modem_ops.h ****     int (*mqtt_disconnect)(void *ctx, mqtt_cb_t cb);
 201:SynaptiX_FDK/components/modules/modem_ops/modem_ops.h ****     int (*mqtt_publish)(void *ctx, const char *topic, const char *msg,
 202:SynaptiX_FDK/components/modules/modem_ops/modem_ops.h ****                          uint8_t qos, uint8_t retain, mqtt_cb_t cb);
 203:SynaptiX_FDK/components/modules/modem_ops/modem_ops.h ****     int (*mqtt_subscribe)(void *ctx, const char *topic, uint8_t qos,
 204:SynaptiX_FDK/components/modules/modem_ops/modem_ops.h ****                            mqtt_cb_t cb);
 205:SynaptiX_FDK/components/modules/modem_ops/modem_ops.h **** 
 206:SynaptiX_FDK/components/modules/modem_ops/modem_ops.h ****     /* Registers the callbacks used to deliver inbound MQTT messages and
 207:SynaptiX_FDK/components/modules/modem_ops/modem_ops.h ****      * connection-lost notifications. Not an async op (no cb param of its
 208:SynaptiX_FDK/components/modules/modem_ops/modem_ops.h ****      * own) — just stores the two function pointers on the driver's context.
 209:SynaptiX_FDK/components/modules/modem_ops/modem_ops.h ****      * Call once after modem_handle_t is set up, before mqtt_connect(). */
 210:SynaptiX_FDK/components/modules/modem_ops/modem_ops.h ****     void (*mqtt_set_callbacks)(void *ctx, mqtt_incoming_cb_t incoming_cb,
 211:SynaptiX_FDK/components/modules/modem_ops/modem_ops.h ****                                 mqtt_connlost_cb_t connlost_cb,
 212:SynaptiX_FDK/components/modules/modem_ops/modem_ops.h ****                                 void *user_ctx);
 213:SynaptiX_FDK/components/modules/modem_ops/modem_ops.h **** 
 214:SynaptiX_FDK/components/modules/modem_ops/modem_ops.h ****     /* --- Device info (cached values, updated internally by the driver;
 215:SynaptiX_FDK/components/modules/modem_ops/modem_ops.h ****      * these never block or send an AT command synchronously) --- */
 216:SynaptiX_FDK/components/modules/modem_ops/modem_ops.h **** 
 217:SynaptiX_FDK/components/modules/modem_ops/modem_ops.h ****     /* Returns the device IMEI (AT+CGSN), NUL-terminated, or "" if not yet
 218:SynaptiX_FDK/components/modules/modem_ops/modem_ops.h ****      * read (e.g. still waiting on start() to finish). The string is read
 219:SynaptiX_FDK/components/modules/modem_ops/modem_ops.h ****      * once and cached — it does not change for the lifetime of the modem,
 220:SynaptiX_FDK/components/modules/modem_ops/modem_ops.h ****      * so no callback/refresh mechanism is needed. Pointer remains valid for
 221:SynaptiX_FDK/components/modules/modem_ops/modem_ops.h ****      * the lifetime of ctx. */
 222:SynaptiX_FDK/components/modules/modem_ops/modem_ops.h ****     const char *(*get_imei)(void *ctx);
 223:SynaptiX_FDK/components/modules/modem_ops/modem_ops.h **** 
 224:SynaptiX_FDK/components/modules/modem_ops/modem_ops.h ****     /* Returns the last-known signal quality from AT+CSQ, as the raw "rssi"
 225:SynaptiX_FDK/components/modules/modem_ops/modem_ops.h ****      * value (0-31, 99 = unknown), refreshed periodically by the driver's own
 226:SynaptiX_FDK/components/modules/modem_ops/modem_ops.h ****      * poll() — this call never blocks or sends AT itself, it only reads the
 227:SynaptiX_FDK/components/modules/modem_ops/modem_ops.h ****      * cached value. */
 228:SynaptiX_FDK/components/modules/modem_ops/modem_ops.h ****     int (*get_rssi)(void *ctx);
 229:SynaptiX_FDK/components/modules/modem_ops/modem_ops.h **** 
 230:SynaptiX_FDK/components/modules/modem_ops/modem_ops.h ****     /* Returns the current PDP context IP address, NUL-terminated, or "" if
 231:SynaptiX_FDK/components/modules/modem_ops/modem_ops.h ****      * not attached yet. Cached after a successful start(); refreshed again
 232:SynaptiX_FDK/components/modules/modem_ops/modem_ops.h ****      * if the driver detects the PDN was re-attached. Pointer remains valid
 233:SynaptiX_FDK/components/modules/modem_ops/modem_ops.h ****      * for the lifetime of ctx. */
 234:SynaptiX_FDK/components/modules/modem_ops/modem_ops.h ****     const char *(*get_ip)(void *ctx);
 235:SynaptiX_FDK/components/modules/modem_ops/modem_ops.h **** 
ARM GAS  C:\Users\DELL\AppData\Local\Temp\ccitbtwj.s 			page 30


 236:SynaptiX_FDK/components/modules/modem_ops/modem_ops.h ****     /* --- Mandatory poll, called continuously from the main loop --- */
 237:SynaptiX_FDK/components/modules/modem_ops/modem_ops.h **** 
 238:SynaptiX_FDK/components/modules/modem_ops/modem_ops.h ****     /* ts: current timestamp (ms). Each driver tracks its own elapsed time
 239:SynaptiX_FDK/components/modules/modem_ops/modem_ops.h ****      * internally via a waitElapsed field in its own struct (never a static
 240:SynaptiX_FDK/components/modules/modem_ops/modem_ops.h ****      * local variable). */
 241:SynaptiX_FDK/components/modules/modem_ops/modem_ops.h ****     void (*poll)(void *ctx, uint32_t ts);
 242:SynaptiX_FDK/components/modules/modem_ops/modem_ops.h **** } modem_ops_t;
 243:SynaptiX_FDK/components/modules/modem_ops/modem_ops.h **** 
 244:SynaptiX_FDK/components/modules/modem_ops/modem_ops.h **** /* Common handle: pairs ops (vtable) with ctx (pointer to the concrete
 245:SynaptiX_FDK/components/modules/modem_ops/modem_ops.h ****  * struct, e.g. sim76xx_t* or a7677s_t*). The service layer only ever holds
 246:SynaptiX_FDK/components/modules/modem_ops/modem_ops.h ****  * a modem_handle_t and does not need to know the real type of ctx. */
 247:SynaptiX_FDK/components/modules/modem_ops/modem_ops.h **** typedef struct {
 248:SynaptiX_FDK/components/modules/modem_ops/modem_ops.h ****     const modem_ops_t *ops;
 249:SynaptiX_FDK/components/modules/modem_ops/modem_ops.h ****     void *ctx;
 250:SynaptiX_FDK/components/modules/modem_ops/modem_ops.h **** } modem_handle_t;
 251:SynaptiX_FDK/components/modules/modem_ops/modem_ops.h **** 
 252:SynaptiX_FDK/components/modules/modem_ops/modem_ops.h **** /* Inline helpers so callers don't have to repeat
 253:SynaptiX_FDK/components/modules/modem_ops/modem_ops.h ****  * handle->ops->xxx(handle->ctx, ...) everywhere. Optional to use. */
 254:SynaptiX_FDK/components/modules/modem_ops/modem_ops.h **** static inline void modem_handle_poll(modem_handle_t *h, uint32_t ts) {
 255:SynaptiX_FDK/components/modules/modem_ops/modem_ops.h ****     h->ops->poll(h->ctx, ts);
 256:SynaptiX_FDK/components/modules/modem_ops/modem_ops.h **** }
 257:SynaptiX_FDK/components/modules/modem_ops/modem_ops.h **** 
 258:SynaptiX_FDK/components/modules/modem_ops/modem_ops.h **** static inline bool modem_handle_is_ready(modem_handle_t *h) {
 995              		.loc 2 258 20 is_stmt 1 view .LVU214
 996              	.LBB15:
 259:SynaptiX_FDK/components/modules/modem_ops/modem_ops.h ****     return h->ops->is_ready(h->ctx);
 997              		.loc 2 259 5 view .LVU215
 998              		.loc 2 259 13 is_stmt 0 view .LVU216
 999 0008 1A68     		ldr	r2, [r3]
 1000              		.loc 2 259 18 view .LVU217
 1001 000a 9269     		ldr	r2, [r2, #24]
 1002              		.loc 2 259 12 view .LVU218
 1003 000c 5868     		ldr	r0, [r3, #4]
 1004              	.LVL89:
 1005              		.loc 2 259 12 view .LVU219
 1006 000e 9047     		blx	r2
 1007              	.LVL90:
 1008              		.loc 2 259 12 view .LVU220
 1009              	.LBE15:
 1010              	.LBE14:
 1011              		.loc 1 244 8 discriminator 1 view .LVU221
 1012 0010 0028     		cmp	r0, #0
 1013 0012 28D0     		beq	.L69
 245:SynaptiX_FDK/services/mqtt/sx_mqtt.c ****         log_warn(TAG, "connect: modem not ready");
 246:SynaptiX_FDK/services/mqtt/sx_mqtt.c ****         return -1;
 247:SynaptiX_FDK/services/mqtt/sx_mqtt.c ****     }
 248:SynaptiX_FDK/services/mqtt/sx_mqtt.c ****     if (mqtt->state != SX_MQTT_STATE_DISCONNECTED &&
 1014              		.loc 1 248 5 is_stmt 1 view .LVU222
 1015              		.loc 1 248 13 is_stmt 0 view .LVU223
 1016 0014 94F82C30 		ldrb	r3, [r4, #44]	@ zero_extendqisi2
 1017              		.loc 1 248 8 view .LVU224
 1018 0018 0BB1     		cbz	r3, .L67
 1019              		.loc 1 248 51 discriminator 1 view .LVU225
 1020 001a 042B     		cmp	r3, #4
 1021 001c 2BD1     		bne	.L70
 1022              	.L67:
 249:SynaptiX_FDK/services/mqtt/sx_mqtt.c ****         mqtt->state != SX_MQTT_STATE_ERROR)
ARM GAS  C:\Users\DELL\AppData\Local\Temp\ccitbtwj.s 			page 31


 250:SynaptiX_FDK/services/mqtt/sx_mqtt.c ****     {
 251:SynaptiX_FDK/services/mqtt/sx_mqtt.c ****         log_warn(TAG, "connect: already connected or in progress");
 252:SynaptiX_FDK/services/mqtt/sx_mqtt.c ****         return -2;
 253:SynaptiX_FDK/services/mqtt/sx_mqtt.c ****     }
 254:SynaptiX_FDK/services/mqtt/sx_mqtt.c **** 
 255:SynaptiX_FDK/services/mqtt/sx_mqtt.c ****     log_info(TAG, "Starting connect flow");
 1023              		.loc 1 255 5 is_stmt 1 view .LVU226
 1024 001e 1A4A     		ldr	r2, .L71
 1025 0020 1A49     		ldr	r1, .L71+4
 1026 0022 0320     		movs	r0, #3
 1027 0024 FFF7FEFF 		bl	log_func
 1028              	.LVL91:
 256:SynaptiX_FDK/services/mqtt/sx_mqtt.c ****     mqtt->state = SX_MQTT_STATE_CONNECTING;
 1029              		.loc 1 256 5 view .LVU227
 1030              		.loc 1 256 17 is_stmt 0 view .LVU228
 1031 0028 0123     		movs	r3, #1
 1032 002a 84F82C30 		strb	r3, [r4, #44]
 257:SynaptiX_FDK/services/mqtt/sx_mqtt.c ****     return mqtt->modem->ops->mqtt_connect(
 1033              		.loc 1 257 5 is_stmt 1 view .LVU229
 1034              		.loc 1 257 16 is_stmt 0 view .LVU230
 1035 002e 2368     		ldr	r3, [r4]
 1036              		.loc 1 257 23 view .LVU231
 1037 0030 1A68     		ldr	r2, [r3]
 1038              		.loc 1 257 28 view .LVU232
 1039 0032 D56A     		ldr	r5, [r2, #44]
 258:SynaptiX_FDK/services/mqtt/sx_mqtt.c ****         mqtt->modem->ctx,
 259:SynaptiX_FDK/services/mqtt/sx_mqtt.c ****         mqtt->config.client_id,
 260:SynaptiX_FDK/services/mqtt/sx_mqtt.c ****         mqtt->config.broker, mqtt->config.port,
 261:SynaptiX_FDK/services/mqtt/sx_mqtt.c ****         mqtt->config.use_ssl,
 262:SynaptiX_FDK/services/mqtt/sx_mqtt.c ****         mqtt->config.ca_cert,
 1040              		.loc 1 262 21 view .LVU233
 1041 0034 226A     		ldr	r2, [r4, #32]
 263:SynaptiX_FDK/services/mqtt/sx_mqtt.c ****         mqtt->config.client_cert,
 1042              		.loc 1 263 21 view .LVU234
 1043 0036 616A     		ldr	r1, [r4, #36]
 257:SynaptiX_FDK/services/mqtt/sx_mqtt.c ****     return mqtt->modem->ops->mqtt_connect(
 1044              		.loc 1 257 12 view .LVU235
 1045 0038 5868     		ldr	r0, [r3, #4]
 1046 003a 154B     		ldr	r3, .L71+8
 1047 003c 0893     		str	r3, [sp, #32]
 1048 003e 6369     		ldr	r3, [r4, #20]
 1049 0040 0793     		str	r3, [sp, #28]
 1050 0042 2369     		ldr	r3, [r4, #16]
 1051 0044 0693     		str	r3, [sp, #24]
 1052 0046 A37E     		ldrb	r3, [r4, #26]	@ zero_extendqisi2
 1053 0048 0593     		str	r3, [sp, #20]
 1054 004a 238B     		ldrh	r3, [r4, #24]
 1055 004c 0493     		str	r3, [sp, #16]
 1056 004e A36A     		ldr	r3, [r4, #40]
 1057 0050 0393     		str	r3, [sp, #12]
 1058 0052 0291     		str	r1, [sp, #8]
 1059 0054 0192     		str	r2, [sp, #4]
 1060 0056 237F     		ldrb	r3, [r4, #28]	@ zero_extendqisi2
 1061 0058 0093     		str	r3, [sp]
 1062 005a 2389     		ldrh	r3, [r4, #8]
 1063 005c 6268     		ldr	r2, [r4, #4]
 1064 005e E168     		ldr	r1, [r4, #12]
ARM GAS  C:\Users\DELL\AppData\Local\Temp\ccitbtwj.s 			page 32


 1065 0060 A847     		blx	r5
 1066              	.LVL92:
 1067              	.L64:
 264:SynaptiX_FDK/services/mqtt/sx_mqtt.c ****         mqtt->config.client_key,
 265:SynaptiX_FDK/services/mqtt/sx_mqtt.c ****         mqtt->config.keepalive,
 266:SynaptiX_FDK/services/mqtt/sx_mqtt.c ****         mqtt->config.clean_session,
 267:SynaptiX_FDK/services/mqtt/sx_mqtt.c ****         mqtt->config.username, mqtt->config.password,
 268:SynaptiX_FDK/services/mqtt/sx_mqtt.c ****         cb_connect_done);
 269:SynaptiX_FDK/services/mqtt/sx_mqtt.c **** }
 1068              		.loc 1 269 1 view .LVU236
 1069 0062 0BB0     		add	sp, sp, #44
 1070              	.LCFI23:
 1071              		.cfi_remember_state
 1072              		.cfi_def_cfa_offset 12
 1073              		@ sp needed
 1074 0064 30BD     		pop	{r4, r5, pc}
 1075              	.LVL93:
 1076              	.L69:
 1077              	.LCFI24:
 1078              		.cfi_restore_state
 245:SynaptiX_FDK/services/mqtt/sx_mqtt.c ****         return -1;
 1079              		.loc 1 245 9 is_stmt 1 view .LVU237
 1080 0066 0B4A     		ldr	r2, .L71+12
 1081 0068 0849     		ldr	r1, .L71+4
 1082 006a 0220     		movs	r0, #2
 1083 006c FFF7FEFF 		bl	log_func
 1084              	.LVL94:
 246:SynaptiX_FDK/services/mqtt/sx_mqtt.c ****     }
 1085              		.loc 1 246 9 view .LVU238
 246:SynaptiX_FDK/services/mqtt/sx_mqtt.c ****     }
 1086              		.loc 1 246 16 is_stmt 0 view .LVU239
 1087 0070 4FF0FF30 		mov	r0, #-1
 1088 0074 F5E7     		b	.L64
 1089              	.L70:
 251:SynaptiX_FDK/services/mqtt/sx_mqtt.c ****         return -2;
 1090              		.loc 1 251 9 is_stmt 1 view .LVU240
 1091 0076 084A     		ldr	r2, .L71+16
 1092 0078 0449     		ldr	r1, .L71+4
 1093 007a 0220     		movs	r0, #2
 1094 007c FFF7FEFF 		bl	log_func
 1095              	.LVL95:
 252:SynaptiX_FDK/services/mqtt/sx_mqtt.c ****     }
 1096              		.loc 1 252 9 view .LVU241
 252:SynaptiX_FDK/services/mqtt/sx_mqtt.c ****     }
 1097              		.loc 1 252 16 is_stmt 0 view .LVU242
 1098 0080 6FF00100 		mvn	r0, #1
 1099 0084 EDE7     		b	.L64
 1100              	.L72:
 1101 0086 00BF     		.align	2
 1102              	.L71:
 1103 0088 48000000 		.word	.LC19
 1104 008c 18000000 		.word	.LC1
 1105 0090 00000000 		.word	cb_connect_done
 1106 0094 00000000 		.word	.LC17
 1107 0098 1C000000 		.word	.LC18
 1108              		.cfi_endproc
 1109              	.LFE23:
ARM GAS  C:\Users\DELL\AppData\Local\Temp\ccitbtwj.s 			page 33


 1111              		.section	.rodata.sx_mqtt_disconnect.str1.4,"aMS",%progbits,1
 1112              		.align	2
 1113              	.LC20:
 1114 0000 64697363 		.ascii	"disconnect: not connected\000"
 1114      6F6E6E65 
 1114      63743A20 
 1114      6E6F7420 
 1114      636F6E6E 
 1115              		.section	.text.sx_mqtt_disconnect,"ax",%progbits
 1116              		.align	1
 1117              		.global	sx_mqtt_disconnect
 1118              		.syntax unified
 1119              		.thumb
 1120              		.thumb_func
 1122              	sx_mqtt_disconnect:
 1123              	.LVL96:
 1124              	.LFB24:
 270:SynaptiX_FDK/services/mqtt/sx_mqtt.c **** 
 271:SynaptiX_FDK/services/mqtt/sx_mqtt.c **** int sx_mqtt_disconnect(sx_mqtt_t *mqtt)
 272:SynaptiX_FDK/services/mqtt/sx_mqtt.c **** {
 1125              		.loc 1 272 1 is_stmt 1 view -0
 1126              		.cfi_startproc
 1127              		@ args = 0, pretend = 0, frame = 0
 1128              		@ frame_needed = 0, uses_anonymous_args = 0
 1129              		.loc 1 272 1 is_stmt 0 view .LVU244
 1130 0000 08B5     		push	{r3, lr}
 1131              	.LCFI25:
 1132              		.cfi_def_cfa_offset 8
 1133              		.cfi_offset 3, -8
 1134              		.cfi_offset 14, -4
 273:SynaptiX_FDK/services/mqtt/sx_mqtt.c ****     if (!sx_mqtt_is_connected(mqtt)) {
 1135              		.loc 1 273 5 is_stmt 1 view .LVU245
 1136              	.LVL97:
 1137              	.LBB16:
 1138              	.LBI16:
 1139              		.file 3 "SynaptiX_FDK/services/mqtt/sx_mqtt.h"
   1:SynaptiX_FDK/services/mqtt/sx_mqtt.h **** #ifndef __SX_MQTT_H
   2:SynaptiX_FDK/services/mqtt/sx_mqtt.h **** #define __SX_MQTT_H
   3:SynaptiX_FDK/services/mqtt/sx_mqtt.h **** 
   4:SynaptiX_FDK/services/mqtt/sx_mqtt.h **** #ifdef __cplusplus
   5:SynaptiX_FDK/services/mqtt/sx_mqtt.h **** extern "C"{
   6:SynaptiX_FDK/services/mqtt/sx_mqtt.h **** #endif
   7:SynaptiX_FDK/services/mqtt/sx_mqtt.h **** 
   8:SynaptiX_FDK/services/mqtt/sx_mqtt.h **** #include <stdint.h>
   9:SynaptiX_FDK/services/mqtt/sx_mqtt.h **** #include "modem_ops.h"
  10:SynaptiX_FDK/services/mqtt/sx_mqtt.h **** 
  11:SynaptiX_FDK/services/mqtt/sx_mqtt.h **** #define SX_MQTT_TOPIC_MAX_LEN       128U
  12:SynaptiX_FDK/services/mqtt/sx_mqtt.h **** #define SX_MQTT_MESSAGE_MAX_LEN     512U
  13:SynaptiX_FDK/services/mqtt/sx_mqtt.h **** #define SX_MQTT_TIMEOUT_CONF        2000U
  14:SynaptiX_FDK/services/mqtt/sx_mqtt.h **** #define SX_MQTT_TIMEOUT_ACCQ        2000U
  15:SynaptiX_FDK/services/mqtt/sx_mqtt.h **** #define SX_MQTT_TIMEOUT_CONN        8000U
  16:SynaptiX_FDK/services/mqtt/sx_mqtt.h **** #define SX_MQTT_TIMEOUT_DISC        5000U
  17:SynaptiX_FDK/services/mqtt/sx_mqtt.h **** #define SX_MQTT_TIMEOUT_PUB         3000U
  18:SynaptiX_FDK/services/mqtt/sx_mqtt.h **** #define SX_MQTT_TIMEOUT_SUB         5000U
  19:SynaptiX_FDK/services/mqtt/sx_mqtt.h **** 
  20:SynaptiX_FDK/services/mqtt/sx_mqtt.h **** /* NOTE: driver-level states (CMQTTSTART, cert upload, CSSLCFG, ACCQ,
  21:SynaptiX_FDK/services/mqtt/sx_mqtt.h ****  * CMQTTCFG version, CMQTTCONNECT...) all now live inside the concrete modem
ARM GAS  C:\Users\DELL\AppData\Local\Temp\ccitbtwj.s 			page 34


  22:SynaptiX_FDK/services/mqtt/sx_mqtt.h ****  * driver's own state machine (e.g. a7677s_mqtt_state_t in a7677s.c), reached
  23:SynaptiX_FDK/services/mqtt/sx_mqtt.h ****  * through a single modem_ops_t.mqtt_connect() call. This service layer only
  24:SynaptiX_FDK/services/mqtt/sx_mqtt.h ****  * needs to track its own coarse-grained state, not the driver's internals —
  25:SynaptiX_FDK/services/mqtt/sx_mqtt.h ****  * that is the whole point of going through modem_ops_t rather than calling
  26:SynaptiX_FDK/services/mqtt/sx_mqtt.h ****  * driver-specific functions directly. Swapping to a different modem module
  27:SynaptiX_FDK/services/mqtt/sx_mqtt.h ****  * later only means writing a new driver; this file does not change. */
  28:SynaptiX_FDK/services/mqtt/sx_mqtt.h **** typedef enum{
  29:SynaptiX_FDK/services/mqtt/sx_mqtt.h ****     SX_MQTT_STATE_DISCONNECTED = 0,
  30:SynaptiX_FDK/services/mqtt/sx_mqtt.h ****     SX_MQTT_STATE_CONNECTING,    /* mqtt_connect() issued, waiting for cb */
  31:SynaptiX_FDK/services/mqtt/sx_mqtt.h ****     SX_MQTT_STATE_CONNECTED,
  32:SynaptiX_FDK/services/mqtt/sx_mqtt.h ****     SX_MQTT_STATE_DISCONNECTING, /* mqtt_disconnect() issued, waiting for cb */
  33:SynaptiX_FDK/services/mqtt/sx_mqtt.h ****     SX_MQTT_STATE_ERROR,
  34:SynaptiX_FDK/services/mqtt/sx_mqtt.h **** } sx_mqtt_state_t;
  35:SynaptiX_FDK/services/mqtt/sx_mqtt.h **** 
  36:SynaptiX_FDK/services/mqtt/sx_mqtt.h **** typedef struct sx_mqtt sx_mqtt_t;
  37:SynaptiX_FDK/services/mqtt/sx_mqtt.h **** 
  38:SynaptiX_FDK/services/mqtt/sx_mqtt.h **** typedef void (*sx_mqtt_on_connected_cb_t) (sx_mqtt_t *mqtt);
  39:SynaptiX_FDK/services/mqtt/sx_mqtt.h **** 
  40:SynaptiX_FDK/services/mqtt/sx_mqtt.h **** typedef void (*sx_mqtt_on_disconnected_cb_t) (sx_mqtt_t *mqtt);
  41:SynaptiX_FDK/services/mqtt/sx_mqtt.h **** 
  42:SynaptiX_FDK/services/mqtt/sx_mqtt.h **** typedef void (*sx_mqtt_on_message_cb_t) (sx_mqtt_t *mqtt, const char *topic, const char *message);
  43:SynaptiX_FDK/services/mqtt/sx_mqtt.h **** 
  44:SynaptiX_FDK/services/mqtt/sx_mqtt.h **** typedef void (*sx_mqtt_on_publish_cb_t) (sx_mqtt_t *mqtt, int success);
  45:SynaptiX_FDK/services/mqtt/sx_mqtt.h **** 
  46:SynaptiX_FDK/services/mqtt/sx_mqtt.h **** typedef struct{
  47:SynaptiX_FDK/services/mqtt/sx_mqtt.h ****     const char *broker;
  48:SynaptiX_FDK/services/mqtt/sx_mqtt.h ****     uint16_t port;
  49:SynaptiX_FDK/services/mqtt/sx_mqtt.h ****     const char *client_id;
  50:SynaptiX_FDK/services/mqtt/sx_mqtt.h ****     const char *username;
  51:SynaptiX_FDK/services/mqtt/sx_mqtt.h ****     const char *password;
  52:SynaptiX_FDK/services/mqtt/sx_mqtt.h ****     uint16_t keepalive;
  53:SynaptiX_FDK/services/mqtt/sx_mqtt.h ****     uint8_t clean_session;
  54:SynaptiX_FDK/services/mqtt/sx_mqtt.h ****     uint8_t qos;
  55:SynaptiX_FDK/services/mqtt/sx_mqtt.h ****     uint8_t use_ssl;        //0 : tcp, 1: ssl
  56:SynaptiX_FDK/services/mqtt/sx_mqtt.h ****     uint8_t ssl_auth_mode; // 0 : no verify, 1 : sever cert, 2 = mutual
  57:SynaptiX_FDK/services/mqtt/sx_mqtt.h ****     char *ca_cert;        
  58:SynaptiX_FDK/services/mqtt/sx_mqtt.h ****     char *client_cert;    
  59:SynaptiX_FDK/services/mqtt/sx_mqtt.h ****     char *client_key;
  60:SynaptiX_FDK/services/mqtt/sx_mqtt.h **** }sx_mqtt_config_t;
  61:SynaptiX_FDK/services/mqtt/sx_mqtt.h **** 
  62:SynaptiX_FDK/services/mqtt/sx_mqtt.h **** typedef enum{
  63:SynaptiX_FDK/services/mqtt/sx_mqtt.h ****     CONF_CLIENTID = 0,
  64:SynaptiX_FDK/services/mqtt/sx_mqtt.h ****     CONF_URL,
  65:SynaptiX_FDK/services/mqtt/sx_mqtt.h ****     CONF_KEEPTIME,
  66:SynaptiX_FDK/services/mqtt/sx_mqtt.h ****     CONF_CLEANSS,
  67:SynaptiX_FDK/services/mqtt/sx_mqtt.h ****     CONF_USERNAME,
  68:SynaptiX_FDK/services/mqtt/sx_mqtt.h ****     CONF_PASSWORD,
  69:SynaptiX_FDK/services/mqtt/sx_mqtt.h ****     CONF_DONE,
  70:SynaptiX_FDK/services/mqtt/sx_mqtt.h **** } sx_mqtt_conf_step_t;
  71:SynaptiX_FDK/services/mqtt/sx_mqtt.h **** 
  72:SynaptiX_FDK/services/mqtt/sx_mqtt.h **** struct sx_mqtt{
  73:SynaptiX_FDK/services/mqtt/sx_mqtt.h ****     /* Handle into the concrete modem driver (e.g. &board.a7677s paired with
  74:SynaptiX_FDK/services/mqtt/sx_mqtt.h ****      * &a7677s_ops). This service layer never touches the driver except
  75:SynaptiX_FDK/services/mqtt/sx_mqtt.h ****      * through modem->ops->xxx(modem->ctx, ...) — see modem_ops.h. */
  76:SynaptiX_FDK/services/mqtt/sx_mqtt.h ****     modem_handle_t *modem;
  77:SynaptiX_FDK/services/mqtt/sx_mqtt.h ****     sx_mqtt_config_t config;
  78:SynaptiX_FDK/services/mqtt/sx_mqtt.h ****     sx_mqtt_state_t state;
ARM GAS  C:\Users\DELL\AppData\Local\Temp\ccitbtwj.s 			page 35


  79:SynaptiX_FDK/services/mqtt/sx_mqtt.h **** 
  80:SynaptiX_FDK/services/mqtt/sx_mqtt.h ****     uint32_t reconnect_elapsed;
  81:SynaptiX_FDK/services/mqtt/sx_mqtt.h ****     uint32_t reconnect_delay;
  82:SynaptiX_FDK/services/mqtt/sx_mqtt.h ****     uint8_t  reconnect_count;
  83:SynaptiX_FDK/services/mqtt/sx_mqtt.h **** 
  84:SynaptiX_FDK/services/mqtt/sx_mqtt.h ****     /* Counts how many times the PWRKEY power-cycle recovery in do_error()
  85:SynaptiX_FDK/services/mqtt/sx_mqtt.h ****      * has itself been triggered without a successful connect happening in
  86:SynaptiX_FDK/services/mqtt/sx_mqtt.h ****      * between (i.e. reconnect_count reaching SX_MQTT_MAX_RETRY_BEFORE_RESTART
  87:SynaptiX_FDK/services/mqtt/sx_mqtt.h ****      * repeatedly). Only cleared on an actual CONNECTED transition (see
  88:SynaptiX_FDK/services/mqtt/sx_mqtt.h ****      * sx_mqtt_poll()) — unlike reconnect_count, which resets every time a
  89:SynaptiX_FDK/services/mqtt/sx_mqtt.h ****      * restart is triggered. Once this reaches
  90:SynaptiX_FDK/services/mqtt/sx_mqtt.h ****      * SX_MQTT_MAX_RESTARTS_BEFORE_HARD_RESET, do_error() escalates to
  91:SynaptiX_FDK/services/mqtt/sx_mqtt.h ****      * modem_ops_t.hard_reset() (physical RST pin) instead of another PWRKEY
  92:SynaptiX_FDK/services/mqtt/sx_mqtt.h ****      * cycle. */
  93:SynaptiX_FDK/services/mqtt/sx_mqtt.h ****     uint8_t  restart_cycle_count;
  94:SynaptiX_FDK/services/mqtt/sx_mqtt.h **** 
  95:SynaptiX_FDK/services/mqtt/sx_mqtt.h ****     /*  Callback    */
  96:SynaptiX_FDK/services/mqtt/sx_mqtt.h ****     sx_mqtt_on_connected_cb_t on_connected;
  97:SynaptiX_FDK/services/mqtt/sx_mqtt.h ****     sx_mqtt_on_disconnected_cb_t on_disconnected;
  98:SynaptiX_FDK/services/mqtt/sx_mqtt.h ****     sx_mqtt_on_message_cb_t on_message;
  99:SynaptiX_FDK/services/mqtt/sx_mqtt.h ****     sx_mqtt_on_publish_cb_t on_publish;
 100:SynaptiX_FDK/services/mqtt/sx_mqtt.h **** };
 101:SynaptiX_FDK/services/mqtt/sx_mqtt.h **** 
 102:SynaptiX_FDK/services/mqtt/sx_mqtt.h **** /*  Status helper   */
 103:SynaptiX_FDK/services/mqtt/sx_mqtt.h **** static inline sx_mqtt_state_t sx_mqtt_get_state(sx_mqtt_t *mqtt){
 104:SynaptiX_FDK/services/mqtt/sx_mqtt.h ****     return mqtt->state;
 105:SynaptiX_FDK/services/mqtt/sx_mqtt.h **** }
 106:SynaptiX_FDK/services/mqtt/sx_mqtt.h **** 
 107:SynaptiX_FDK/services/mqtt/sx_mqtt.h **** static inline uint8_t sx_mqtt_is_connected(sx_mqtt_t *mqtt){
 1140              		.loc 3 107 23 view .LVU246
 1141              	.LBB17:
 108:SynaptiX_FDK/services/mqtt/sx_mqtt.h ****     return (mqtt->state == SX_MQTT_STATE_CONNECTED);
 1142              		.loc 3 108 5 view .LVU247
 1143              		.loc 3 108 17 is_stmt 0 view .LVU248
 1144 0002 90F82C30 		ldrb	r3, [r0, #44]	@ zero_extendqisi2
 1145              	.LVL98:
 1146              		.loc 3 108 17 view .LVU249
 1147              	.LBE17:
 1148              	.LBE16:
 1149              		.loc 1 273 8 discriminator 1 view .LVU250
 1150 0006 022B     		cmp	r3, #2
 1151 0008 09D1     		bne	.L77
 274:SynaptiX_FDK/services/mqtt/sx_mqtt.c ****         log_warn(TAG, "disconnect: not connected");
 275:SynaptiX_FDK/services/mqtt/sx_mqtt.c ****         return -1;
 276:SynaptiX_FDK/services/mqtt/sx_mqtt.c ****     }
 277:SynaptiX_FDK/services/mqtt/sx_mqtt.c ****     mqtt->state = SX_MQTT_STATE_DISCONNECTING;
 1152              		.loc 1 277 5 is_stmt 1 view .LVU251
 1153              		.loc 1 277 17 is_stmt 0 view .LVU252
 1154 000a 0323     		movs	r3, #3
 1155 000c 80F82C30 		strb	r3, [r0, #44]
 278:SynaptiX_FDK/services/mqtt/sx_mqtt.c ****     return mqtt->modem->ops->mqtt_disconnect(mqtt->modem->ctx, cb_disconnect_done);
 1156              		.loc 1 278 5 is_stmt 1 view .LVU253
 1157              		.loc 1 278 16 is_stmt 0 view .LVU254
 1158 0010 0368     		ldr	r3, [r0]
 1159              		.loc 1 278 23 view .LVU255
 1160 0012 1A68     		ldr	r2, [r3]
 1161              		.loc 1 278 28 view .LVU256
ARM GAS  C:\Users\DELL\AppData\Local\Temp\ccitbtwj.s 			page 36


 1162 0014 126B     		ldr	r2, [r2, #48]
 1163              		.loc 1 278 12 view .LVU257
 1164 0016 0649     		ldr	r1, .L78
 1165 0018 5868     		ldr	r0, [r3, #4]
 1166              	.LVL99:
 1167              		.loc 1 278 12 view .LVU258
 1168 001a 9047     		blx	r2
 1169              	.LVL100:
 1170              	.L73:
 279:SynaptiX_FDK/services/mqtt/sx_mqtt.c **** }
 1171              		.loc 1 279 1 view .LVU259
 1172 001c 08BD     		pop	{r3, pc}
 1173              	.LVL101:
 1174              	.L77:
 274:SynaptiX_FDK/services/mqtt/sx_mqtt.c ****         log_warn(TAG, "disconnect: not connected");
 1175              		.loc 1 274 9 is_stmt 1 view .LVU260
 1176 001e 054A     		ldr	r2, .L78+4
 1177 0020 0549     		ldr	r1, .L78+8
 1178 0022 0220     		movs	r0, #2
 1179              	.LVL102:
 274:SynaptiX_FDK/services/mqtt/sx_mqtt.c ****         log_warn(TAG, "disconnect: not connected");
 1180              		.loc 1 274 9 is_stmt 0 view .LVU261
 1181 0024 FFF7FEFF 		bl	log_func
 1182              	.LVL103:
 275:SynaptiX_FDK/services/mqtt/sx_mqtt.c ****     }
 1183              		.loc 1 275 9 is_stmt 1 view .LVU262
 275:SynaptiX_FDK/services/mqtt/sx_mqtt.c ****     }
 1184              		.loc 1 275 16 is_stmt 0 view .LVU263
 1185 0028 4FF0FF30 		mov	r0, #-1
 1186 002c F6E7     		b	.L73
 1187              	.L79:
 1188 002e 00BF     		.align	2
 1189              	.L78:
 1190 0030 00000000 		.word	cb_disconnect_done
 1191 0034 00000000 		.word	.LC20
 1192 0038 18000000 		.word	.LC1
 1193              		.cfi_endproc
 1194              	.LFE24:
 1196              		.section	.rodata.sx_mqtt_publish.str1.4,"aMS",%progbits,1
 1197              		.align	2
 1198              	.LC21:
 1199 0000 7075626C 		.ascii	"publish: not connected\000"
 1199      6973683A 
 1199      206E6F74 
 1199      20636F6E 
 1199      6E656374 
 1200              		.section	.text.sx_mqtt_publish,"ax",%progbits
 1201              		.align	1
 1202              		.global	sx_mqtt_publish
 1203              		.syntax unified
 1204              		.thumb
 1205              		.thumb_func
 1207              	sx_mqtt_publish:
 1208              	.LVL104:
 1209              	.LFB25:
 280:SynaptiX_FDK/services/mqtt/sx_mqtt.c **** 
 281:SynaptiX_FDK/services/mqtt/sx_mqtt.c **** int sx_mqtt_publish(sx_mqtt_t *mqtt, const char *topic, const char *message,
ARM GAS  C:\Users\DELL\AppData\Local\Temp\ccitbtwj.s 			page 37


 282:SynaptiX_FDK/services/mqtt/sx_mqtt.c ****                      uint8_t qos, uint8_t retain)
 283:SynaptiX_FDK/services/mqtt/sx_mqtt.c **** {
 1210              		.loc 1 283 1 is_stmt 1 view -0
 1211              		.cfi_startproc
 1212              		@ args = 4, pretend = 0, frame = 0
 1213              		@ frame_needed = 0, uses_anonymous_args = 0
 1214              		.loc 1 283 1 is_stmt 0 view .LVU265
 1215 0000 30B5     		push	{r4, r5, lr}
 1216              	.LCFI26:
 1217              		.cfi_def_cfa_offset 12
 1218              		.cfi_offset 4, -12
 1219              		.cfi_offset 5, -8
 1220              		.cfi_offset 14, -4
 1221 0002 83B0     		sub	sp, sp, #12
 1222              	.LCFI27:
 1223              		.cfi_def_cfa_offset 24
 284:SynaptiX_FDK/services/mqtt/sx_mqtt.c ****     if (!sx_mqtt_is_connected(mqtt)) {
 1224              		.loc 1 284 5 is_stmt 1 view .LVU266
 1225              	.LVL105:
 1226              	.LBB18:
 1227              	.LBI18:
 107:SynaptiX_FDK/services/mqtt/sx_mqtt.h ****     return (mqtt->state == SX_MQTT_STATE_CONNECTED);
 1228              		.loc 3 107 23 view .LVU267
 1229              	.LBB19:
 1230              		.loc 3 108 5 view .LVU268
 1231              		.loc 3 108 17 is_stmt 0 view .LVU269
 1232 0004 90F82CC0 		ldrb	ip, [r0, #44]	@ zero_extendqisi2
 1233              	.LVL106:
 1234              		.loc 3 108 17 view .LVU270
 1235              	.LBE19:
 1236              	.LBE18:
 1237              		.loc 1 284 8 discriminator 1 view .LVU271
 1238 0008 BCF1020F 		cmp	ip, #2
 1239 000c 0DD1     		bne	.L86
 285:SynaptiX_FDK/services/mqtt/sx_mqtt.c ****         log_warn(TAG, "publish: not connected");
 286:SynaptiX_FDK/services/mqtt/sx_mqtt.c ****         return -1;
 287:SynaptiX_FDK/services/mqtt/sx_mqtt.c ****     }
 288:SynaptiX_FDK/services/mqtt/sx_mqtt.c ****     if (!topic || !message) return -1;
 1240              		.loc 1 288 5 is_stmt 1 view .LVU272
 1241              		.loc 1 288 8 is_stmt 0 view .LVU273
 1242 000e A1B1     		cbz	r1, .L83
 1243              		.loc 1 288 16 discriminator 2 view .LVU274
 1244 0010 B2B1     		cbz	r2, .L84
 289:SynaptiX_FDK/services/mqtt/sx_mqtt.c ****     return mqtt->modem->ops->mqtt_publish(mqtt->modem->ctx, topic, message,
 1245              		.loc 1 289 5 is_stmt 1 view .LVU275
 1246              		.loc 1 289 16 is_stmt 0 view .LVU276
 1247 0012 0068     		ldr	r0, [r0]
 1248              	.LVL107:
 1249              		.loc 1 289 23 view .LVU277
 1250 0014 0468     		ldr	r4, [r0]
 1251              		.loc 1 289 28 view .LVU278
 1252 0016 646B     		ldr	r4, [r4, #52]
 1253              		.loc 1 289 12 view .LVU279
 1254 0018 4068     		ldr	r0, [r0, #4]
 1255 001a 0B4D     		ldr	r5, .L87
 1256 001c 0195     		str	r5, [sp, #4]
 1257 001e 9DF81850 		ldrb	r5, [sp, #24]	@ zero_extendqisi2
ARM GAS  C:\Users\DELL\AppData\Local\Temp\ccitbtwj.s 			page 38


 1258 0022 0095     		str	r5, [sp]
 1259 0024 A047     		blx	r4
 1260              	.LVL108:
 1261              	.L80:
 290:SynaptiX_FDK/services/mqtt/sx_mqtt.c ****                                            qos, retain, cb_publish_done);
 291:SynaptiX_FDK/services/mqtt/sx_mqtt.c **** }
 1262              		.loc 1 291 1 view .LVU280
 1263 0026 03B0     		add	sp, sp, #12
 1264              	.LCFI28:
 1265              		.cfi_remember_state
 1266              		.cfi_def_cfa_offset 12
 1267              		@ sp needed
 1268 0028 30BD     		pop	{r4, r5, pc}
 1269              	.LVL109:
 1270              	.L86:
 1271              	.LCFI29:
 1272              		.cfi_restore_state
 285:SynaptiX_FDK/services/mqtt/sx_mqtt.c ****         return -1;
 1273              		.loc 1 285 9 is_stmt 1 view .LVU281
 1274 002a 084A     		ldr	r2, .L87+4
 1275              	.LVL110:
 285:SynaptiX_FDK/services/mqtt/sx_mqtt.c ****         return -1;
 1276              		.loc 1 285 9 is_stmt 0 view .LVU282
 1277 002c 0849     		ldr	r1, .L87+8
 1278              	.LVL111:
 285:SynaptiX_FDK/services/mqtt/sx_mqtt.c ****         return -1;
 1279              		.loc 1 285 9 view .LVU283
 1280 002e 0220     		movs	r0, #2
 1281              	.LVL112:
 285:SynaptiX_FDK/services/mqtt/sx_mqtt.c ****         return -1;
 1282              		.loc 1 285 9 view .LVU284
 1283 0030 FFF7FEFF 		bl	log_func
 1284              	.LVL113:
 286:SynaptiX_FDK/services/mqtt/sx_mqtt.c ****     }
 1285              		.loc 1 286 9 is_stmt 1 view .LVU285
 286:SynaptiX_FDK/services/mqtt/sx_mqtt.c ****     }
 1286              		.loc 1 286 16 is_stmt 0 view .LVU286
 1287 0034 4FF0FF30 		mov	r0, #-1
 1288 0038 F5E7     		b	.L80
 1289              	.LVL114:
 1290              	.L83:
 288:SynaptiX_FDK/services/mqtt/sx_mqtt.c ****     return mqtt->modem->ops->mqtt_publish(mqtt->modem->ctx, topic, message,
 1291              		.loc 1 288 36 discriminator 3 view .LVU287
 1292 003a 4FF0FF30 		mov	r0, #-1
 1293              	.LVL115:
 288:SynaptiX_FDK/services/mqtt/sx_mqtt.c ****     return mqtt->modem->ops->mqtt_publish(mqtt->modem->ctx, topic, message,
 1294              		.loc 1 288 36 discriminator 3 view .LVU288
 1295 003e F2E7     		b	.L80
 1296              	.LVL116:
 1297              	.L84:
 288:SynaptiX_FDK/services/mqtt/sx_mqtt.c ****     return mqtt->modem->ops->mqtt_publish(mqtt->modem->ctx, topic, message,
 1298              		.loc 1 288 36 discriminator 3 view .LVU289
 1299 0040 4FF0FF30 		mov	r0, #-1
 1300              	.LVL117:
 288:SynaptiX_FDK/services/mqtt/sx_mqtt.c ****     return mqtt->modem->ops->mqtt_publish(mqtt->modem->ctx, topic, message,
 1301              		.loc 1 288 36 discriminator 3 view .LVU290
 1302 0044 EFE7     		b	.L80
ARM GAS  C:\Users\DELL\AppData\Local\Temp\ccitbtwj.s 			page 39


 1303              	.L88:
 1304 0046 00BF     		.align	2
 1305              	.L87:
 1306 0048 00000000 		.word	cb_publish_done
 1307 004c 00000000 		.word	.LC21
 1308 0050 18000000 		.word	.LC1
 1309              		.cfi_endproc
 1310              	.LFE25:
 1312              		.section	.rodata.sx_mqtt_subscribe.str1.4,"aMS",%progbits,1
 1313              		.align	2
 1314              	.LC22:
 1315 0000 73756273 		.ascii	"subscribe: not connected\000"
 1315      63726962 
 1315      653A206E 
 1315      6F742063 
 1315      6F6E6E65 
 1316              		.section	.text.sx_mqtt_subscribe,"ax",%progbits
 1317              		.align	1
 1318              		.global	sx_mqtt_subscribe
 1319              		.syntax unified
 1320              		.thumb
 1321              		.thumb_func
 1323              	sx_mqtt_subscribe:
 1324              	.LVL118:
 1325              	.LFB26:
 292:SynaptiX_FDK/services/mqtt/sx_mqtt.c **** 
 293:SynaptiX_FDK/services/mqtt/sx_mqtt.c **** int sx_mqtt_subscribe(sx_mqtt_t *mqtt, const char *topic, uint8_t qos)
 294:SynaptiX_FDK/services/mqtt/sx_mqtt.c **** {
 1326              		.loc 1 294 1 is_stmt 1 view -0
 1327              		.cfi_startproc
 1328              		@ args = 0, pretend = 0, frame = 0
 1329              		@ frame_needed = 0, uses_anonymous_args = 0
 1330              		.loc 1 294 1 is_stmt 0 view .LVU292
 1331 0000 10B5     		push	{r4, lr}
 1332              	.LCFI30:
 1333              		.cfi_def_cfa_offset 8
 1334              		.cfi_offset 4, -8
 1335              		.cfi_offset 14, -4
 295:SynaptiX_FDK/services/mqtt/sx_mqtt.c ****     if (!sx_mqtt_is_connected(mqtt)) {
 1336              		.loc 1 295 5 is_stmt 1 view .LVU293
 1337              	.LVL119:
 1338              	.LBB20:
 1339              	.LBI20:
 107:SynaptiX_FDK/services/mqtt/sx_mqtt.h ****     return (mqtt->state == SX_MQTT_STATE_CONNECTED);
 1340              		.loc 3 107 23 view .LVU294
 1341              	.LBB21:
 1342              		.loc 3 108 5 view .LVU295
 1343              		.loc 3 108 17 is_stmt 0 view .LVU296
 1344 0002 90F82C30 		ldrb	r3, [r0, #44]	@ zero_extendqisi2
 1345              	.LVL120:
 1346              		.loc 3 108 17 view .LVU297
 1347              	.LBE21:
 1348              	.LBE20:
 1349              		.loc 1 295 8 discriminator 1 view .LVU298
 1350 0006 022B     		cmp	r3, #2
 1351 0008 07D1     		bne	.L94
 296:SynaptiX_FDK/services/mqtt/sx_mqtt.c ****         log_warn(TAG, "subscribe: not connected");
ARM GAS  C:\Users\DELL\AppData\Local\Temp\ccitbtwj.s 			page 40


 297:SynaptiX_FDK/services/mqtt/sx_mqtt.c ****         return -1;
 298:SynaptiX_FDK/services/mqtt/sx_mqtt.c ****     }
 299:SynaptiX_FDK/services/mqtt/sx_mqtt.c ****     if (!topic) return -1;
 1352              		.loc 1 299 5 is_stmt 1 view .LVU299
 1353              		.loc 1 299 8 is_stmt 0 view .LVU300
 1354 000a 71B1     		cbz	r1, .L92
 300:SynaptiX_FDK/services/mqtt/sx_mqtt.c ****     return mqtt->modem->ops->mqtt_subscribe(mqtt->modem->ctx, topic, qos,
 1355              		.loc 1 300 5 is_stmt 1 view .LVU301
 1356              		.loc 1 300 16 is_stmt 0 view .LVU302
 1357 000c 0068     		ldr	r0, [r0]
 1358              	.LVL121:
 1359              		.loc 1 300 23 view .LVU303
 1360 000e 0368     		ldr	r3, [r0]
 1361              		.loc 1 300 28 view .LVU304
 1362 0010 9C6B     		ldr	r4, [r3, #56]
 1363              		.loc 1 300 12 view .LVU305
 1364 0012 074B     		ldr	r3, .L95
 1365 0014 4068     		ldr	r0, [r0, #4]
 1366 0016 A047     		blx	r4
 1367              	.LVL122:
 1368              	.L89:
 301:SynaptiX_FDK/services/mqtt/sx_mqtt.c ****                                              cb_subscribe_done);
 302:SynaptiX_FDK/services/mqtt/sx_mqtt.c **** }
 1369              		.loc 1 302 1 view .LVU306
 1370 0018 10BD     		pop	{r4, pc}
 1371              	.LVL123:
 1372              	.L94:
 296:SynaptiX_FDK/services/mqtt/sx_mqtt.c ****         return -1;
 1373              		.loc 1 296 9 is_stmt 1 view .LVU307
 1374 001a 064A     		ldr	r2, .L95+4
 1375              	.LVL124:
 296:SynaptiX_FDK/services/mqtt/sx_mqtt.c ****         return -1;
 1376              		.loc 1 296 9 is_stmt 0 view .LVU308
 1377 001c 0649     		ldr	r1, .L95+8
 1378              	.LVL125:
 296:SynaptiX_FDK/services/mqtt/sx_mqtt.c ****         return -1;
 1379              		.loc 1 296 9 view .LVU309
 1380 001e 0220     		movs	r0, #2
 1381              	.LVL126:
 296:SynaptiX_FDK/services/mqtt/sx_mqtt.c ****         return -1;
 1382              		.loc 1 296 9 view .LVU310
 1383 0020 FFF7FEFF 		bl	log_func
 1384              	.LVL127:
 297:SynaptiX_FDK/services/mqtt/sx_mqtt.c ****     }
 1385              		.loc 1 297 9 is_stmt 1 view .LVU311
 297:SynaptiX_FDK/services/mqtt/sx_mqtt.c ****     }
 1386              		.loc 1 297 16 is_stmt 0 view .LVU312
 1387 0024 4FF0FF30 		mov	r0, #-1
 1388 0028 F6E7     		b	.L89
 1389              	.LVL128:
 1390              	.L92:
 299:SynaptiX_FDK/services/mqtt/sx_mqtt.c ****     return mqtt->modem->ops->mqtt_subscribe(mqtt->modem->ctx, topic, qos,
 1391              		.loc 1 299 24 discriminator 1 view .LVU313
 1392 002a 4FF0FF30 		mov	r0, #-1
 1393              	.LVL129:
 299:SynaptiX_FDK/services/mqtt/sx_mqtt.c ****     return mqtt->modem->ops->mqtt_subscribe(mqtt->modem->ctx, topic, qos,
 1394              		.loc 1 299 24 discriminator 1 view .LVU314
ARM GAS  C:\Users\DELL\AppData\Local\Temp\ccitbtwj.s 			page 41


 1395 002e F3E7     		b	.L89
 1396              	.L96:
 1397              		.align	2
 1398              	.L95:
 1399 0030 00000000 		.word	cb_subscribe_done
 1400 0034 00000000 		.word	.LC22
 1401 0038 18000000 		.word	.LC1
 1402              		.cfi_endproc
 1403              	.LFE26:
 1405              		.section	.rodata.sx_mqtt_poll.str1.4,"aMS",%progbits,1
 1406              		.align	2
 1407              	.LC23:
 1408 0000 5265636F 		.ascii	"Reconnecting... (retry #%d)\000"
 1408      6E6E6563 
 1408      74696E67 
 1408      2E2E2E20 
 1408      28726574 
 1409              		.section	.text.sx_mqtt_poll,"ax",%progbits
 1410              		.align	1
 1411              		.global	sx_mqtt_poll
 1412              		.syntax unified
 1413              		.thumb
 1414              		.thumb_func
 1416              	sx_mqtt_poll:
 1417              	.LVL130:
 1418              	.LFB27:
 303:SynaptiX_FDK/services/mqtt/sx_mqtt.c **** 
 304:SynaptiX_FDK/services/mqtt/sx_mqtt.c **** void sx_mqtt_poll(sx_mqtt_t *mqtt, uint32_t ts)
 305:SynaptiX_FDK/services/mqtt/sx_mqtt.c **** {
 1419              		.loc 1 305 1 is_stmt 1 view -0
 1420              		.cfi_startproc
 1421              		@ args = 0, pretend = 0, frame = 0
 1422              		@ frame_needed = 0, uses_anonymous_args = 0
 1423              		.loc 1 305 1 is_stmt 0 view .LVU316
 1424 0000 38B5     		push	{r3, r4, r5, lr}
 1425              	.LCFI31:
 1426              		.cfi_def_cfa_offset 16
 1427              		.cfi_offset 3, -16
 1428              		.cfi_offset 4, -12
 1429              		.cfi_offset 5, -8
 1430              		.cfi_offset 14, -4
 1431 0002 0446     		mov	r4, r0
 1432 0004 0D46     		mov	r5, r1
 306:SynaptiX_FDK/services/mqtt/sx_mqtt.c ****     modem_handle_poll(mqtt->modem, ts);
 1433              		.loc 1 306 5 is_stmt 1 view .LVU317
 1434 0006 0368     		ldr	r3, [r0]
 1435              	.LVL131:
 1436              	.LBB22:
 1437              	.LBI22:
 254:SynaptiX_FDK/components/modules/modem_ops/modem_ops.h ****     h->ops->poll(h->ctx, ts);
 1438              		.loc 2 254 20 view .LVU318
 1439              	.LBB23:
 255:SynaptiX_FDK/components/modules/modem_ops/modem_ops.h **** }
 1440              		.loc 2 255 5 view .LVU319
 255:SynaptiX_FDK/components/modules/modem_ops/modem_ops.h **** }
 1441              		.loc 2 255 6 is_stmt 0 view .LVU320
 1442 0008 1A68     		ldr	r2, [r3]
ARM GAS  C:\Users\DELL\AppData\Local\Temp\ccitbtwj.s 			page 42


 255:SynaptiX_FDK/components/modules/modem_ops/modem_ops.h **** }
 1443              		.loc 2 255 11 view .LVU321
 1444 000a D26C     		ldr	r2, [r2, #76]
 255:SynaptiX_FDK/components/modules/modem_ops/modem_ops.h **** }
 1445              		.loc 2 255 5 view .LVU322
 1446 000c 5868     		ldr	r0, [r3, #4]
 1447              	.LVL132:
 255:SynaptiX_FDK/components/modules/modem_ops/modem_ops.h **** }
 1448              		.loc 2 255 5 view .LVU323
 1449 000e 9047     		blx	r2
 1450              	.LVL133:
 255:SynaptiX_FDK/components/modules/modem_ops/modem_ops.h **** }
 1451              		.loc 2 255 5 view .LVU324
 1452              	.LBE23:
 1453              	.LBE22:
 307:SynaptiX_FDK/services/mqtt/sx_mqtt.c **** 
 308:SynaptiX_FDK/services/mqtt/sx_mqtt.c ****     if ((mqtt->state == SX_MQTT_STATE_ERROR || mqtt->state == SX_MQTT_STATE_DISCONNECTED) &&
 1454              		.loc 1 308 5 is_stmt 1 view .LVU325
 1455              		.loc 1 308 14 is_stmt 0 view .LVU326
 1456 0010 94F82C30 		ldrb	r3, [r4, #44]	@ zero_extendqisi2
 1457              		.loc 1 308 8 view .LVU327
 1458 0014 042B     		cmp	r3, #4
 1459 0016 00D0     		beq	.L98
 1460              		.loc 1 308 45 discriminator 2 view .LVU328
 1461 0018 73B9     		cbnz	r3, .L99
 1462              	.L98:
 309:SynaptiX_FDK/services/mqtt/sx_mqtt.c ****         modem_handle_is_ready(mqtt->modem) && mqtt->reconnect_count > 0)
 1463              		.loc 1 309 9 view .LVU329
 1464 001a 2368     		ldr	r3, [r4]
 1465              	.LVL134:
 1466              	.LBB24:
 1467              	.LBI24:
 258:SynaptiX_FDK/components/modules/modem_ops/modem_ops.h ****     return h->ops->is_ready(h->ctx);
 1468              		.loc 2 258 20 is_stmt 1 view .LVU330
 1469              	.LBB25:
 1470              		.loc 2 259 5 view .LVU331
 1471              		.loc 2 259 13 is_stmt 0 view .LVU332
 1472 001c 1A68     		ldr	r2, [r3]
 1473              		.loc 2 259 18 view .LVU333
 1474 001e 9269     		ldr	r2, [r2, #24]
 1475              		.loc 2 259 12 view .LVU334
 1476 0020 5868     		ldr	r0, [r3, #4]
 1477 0022 9047     		blx	r2
 1478              	.LVL135:
 1479              		.loc 2 259 12 view .LVU335
 1480              	.LBE25:
 1481              	.LBE24:
 308:SynaptiX_FDK/services/mqtt/sx_mqtt.c ****         modem_handle_is_ready(mqtt->modem) && mqtt->reconnect_count > 0)
 1482              		.loc 1 308 91 discriminator 3 view .LVU336
 1483 0024 40B1     		cbz	r0, .L99
 1484              		.loc 1 309 51 view .LVU337
 1485 0026 94F83830 		ldrb	r3, [r4, #56]	@ zero_extendqisi2
 1486              		.loc 1 309 44 view .LVU338
 1487 002a 2BB1     		cbz	r3, .L99
 310:SynaptiX_FDK/services/mqtt/sx_mqtt.c ****     {
 311:SynaptiX_FDK/services/mqtt/sx_mqtt.c ****         mqtt->reconnect_elapsed += ts;
 1488              		.loc 1 311 9 is_stmt 1 view .LVU339
ARM GAS  C:\Users\DELL\AppData\Local\Temp\ccitbtwj.s 			page 43


 1489              		.loc 1 311 13 is_stmt 0 view .LVU340
 1490 002c 226B     		ldr	r2, [r4, #48]
 1491              		.loc 1 311 33 view .LVU341
 1492 002e 2A44     		add	r2, r2, r5
 1493 0030 2263     		str	r2, [r4, #48]
 312:SynaptiX_FDK/services/mqtt/sx_mqtt.c ****         if (mqtt->reconnect_elapsed >= mqtt->reconnect_delay) {
 1494              		.loc 1 312 9 is_stmt 1 view .LVU342
 1495              		.loc 1 312 44 is_stmt 0 view .LVU343
 1496 0032 616B     		ldr	r1, [r4, #52]
 1497              		.loc 1 312 12 view .LVU344
 1498 0034 8A42     		cmp	r2, r1
 1499 0036 04D2     		bcs	.L102
 1500              	.L99:
 313:SynaptiX_FDK/services/mqtt/sx_mqtt.c ****             mqtt->reconnect_elapsed = 0;
 314:SynaptiX_FDK/services/mqtt/sx_mqtt.c ****             /* Do NOT increment reconnect_count here — it is already
 315:SynaptiX_FDK/services/mqtt/sx_mqtt.c ****              * incremented exactly once per real failure inside
 316:SynaptiX_FDK/services/mqtt/sx_mqtt.c ****              * escalate_recovery() (called from do_error() /
 317:SynaptiX_FDK/services/mqtt/sx_mqtt.c ****              * sx_mqtt_report_failure()). Incrementing it again here double-
 318:SynaptiX_FDK/services/mqtt/sx_mqtt.c ****              * counts every failure cycle, causing
 319:SynaptiX_FDK/services/mqtt/sx_mqtt.c ****              * SX_MQTT_MAX_RETRY_BEFORE_RESTART and, worse,
 320:SynaptiX_FDK/services/mqtt/sx_mqtt.c ****              * SX_MQTT_MAX_RESTARTS_BEFORE_HARD_RESET (physical RST pin) to
 321:SynaptiX_FDK/services/mqtt/sx_mqtt.c ****              * be reached at roughly half the intended number of real
 322:SynaptiX_FDK/services/mqtt/sx_mqtt.c ****              * failures. */
 323:SynaptiX_FDK/services/mqtt/sx_mqtt.c ****             log_info(TAG, "Reconnecting... (retry #%d)", mqtt->reconnect_count);
 324:SynaptiX_FDK/services/mqtt/sx_mqtt.c ****             sx_mqtt_connect(mqtt);
 325:SynaptiX_FDK/services/mqtt/sx_mqtt.c ****         }
 326:SynaptiX_FDK/services/mqtt/sx_mqtt.c ****     }
 327:SynaptiX_FDK/services/mqtt/sx_mqtt.c **** 
 328:SynaptiX_FDK/services/mqtt/sx_mqtt.c ****     if (mqtt->state == SX_MQTT_STATE_CONNECTED) {
 1501              		.loc 1 328 5 is_stmt 1 view .LVU345
 1502              		.loc 1 328 13 is_stmt 0 view .LVU346
 1503 0038 94F82C30 		ldrb	r3, [r4, #44]	@ zero_extendqisi2
 1504              		.loc 1 328 8 view .LVU347
 1505 003c 022B     		cmp	r3, #2
 1506 003e 0BD0     		beq	.L103
 1507              	.L97:
 329:SynaptiX_FDK/services/mqtt/sx_mqtt.c ****         mqtt->reconnect_count = 0;
 330:SynaptiX_FDK/services/mqtt/sx_mqtt.c ****         mqtt->reconnect_delay = SX_MQTT_RECONNECT_DELAY_BASE;
 331:SynaptiX_FDK/services/mqtt/sx_mqtt.c ****         mqtt->restart_cycle_count = 0;
 332:SynaptiX_FDK/services/mqtt/sx_mqtt.c ****     }
 333:SynaptiX_FDK/services/mqtt/sx_mqtt.c **** }...
 1508              		.loc 1 333 1 view .LVU348
 1509 0040 38BD     		pop	{r3, r4, r5, pc}
 1510              	.LVL136:
 1511              	.L102:
 313:SynaptiX_FDK/services/mqtt/sx_mqtt.c ****             mqtt->reconnect_elapsed = 0;
 1512              		.loc 1 313 13 is_stmt 1 view .LVU349
 313:SynaptiX_FDK/services/mqtt/sx_mqtt.c ****             mqtt->reconnect_elapsed = 0;
 1513              		.loc 1 313 37 is_stmt 0 view .LVU350
 1514 0042 0022     		movs	r2, #0
 1515 0044 2263     		str	r2, [r4, #48]
 323:SynaptiX_FDK/services/mqtt/sx_mqtt.c ****             log_info(TAG, "Reconnecting... (retry #%d)", mqtt->reconnect_count);
 1516              		.loc 1 323 13 is_stmt 1 view .LVU351
 1517 0046 094A     		ldr	r2, .L104
 1518 0048 0949     		ldr	r1, .L104+4
 1519 004a 0320     		movs	r0, #3
 1520 004c FFF7FEFF 		bl	log_func
ARM GAS  C:\Users\DELL\AppData\Local\Temp\ccitbtwj.s 			page 44


 1521              	.LVL137:
 324:SynaptiX_FDK/services/mqtt/sx_mqtt.c ****             sx_mqtt_connect(mqtt);
 1522              		.loc 1 324 13 view .LVU352
 1523 0050 2046     		mov	r0, r4
 1524 0052 FFF7FEFF 		bl	sx_mqtt_connect
 1525              	.LVL138:
 1526 0056 EFE7     		b	.L99
 1527              	.L103:
 329:SynaptiX_FDK/services/mqtt/sx_mqtt.c ****         mqtt->reconnect_count = 0;
 1528              		.loc 1 329 9 view .LVU353
 329:SynaptiX_FDK/services/mqtt/sx_mqtt.c ****         mqtt->reconnect_count = 0;
 1529              		.loc 1 329 31 is_stmt 0 view .LVU354
 1530 0058 0023     		movs	r3, #0
 1531 005a 84F83830 		strb	r3, [r4, #56]
 330:SynaptiX_FDK/services/mqtt/sx_mqtt.c ****         mqtt->reconnect_delay = SX_MQTT_RECONNECT_DELAY_BASE;
 1532              		.loc 1 330 9 is_stmt 1 view .LVU355
 330:SynaptiX_FDK/services/mqtt/sx_mqtt.c ****         mqtt->reconnect_delay = SX_MQTT_RECONNECT_DELAY_BASE;
 1533              		.loc 1 330 31 is_stmt 0 view .LVU356
 1534 005e 4FF47A72 		mov	r2, #1000
 1535 0062 6263     		str	r2, [r4, #52]
 331:SynaptiX_FDK/services/mqtt/sx_mqtt.c ****         mqtt->restart_cycle_count = 0;
 1536              		.loc 1 331 9 is_stmt 1 view .LVU357
 331:SynaptiX_FDK/services/mqtt/sx_mqtt.c ****         mqtt->restart_cycle_count = 0;
 1537              		.loc 1 331 35 is_stmt 0 view .LVU358
 1538 0064 84F83930 		strb	r3, [r4, #57]
 1539              		.loc 1 333 1 view .LVU359
 1540 0068 EAE7     		b	.L97
 1541              	.L105:
 1542 006a 00BF     		.align	2
 1543              	.L104:
 1544 006c 00000000 		.word	.LC23
 1545 0070 18000000 		.word	.LC1
 1546              		.cfi_endproc
 1547              	.LFE27:
 1549              		.section	.bss.s_instance,"aw",%nobits
 1550              		.align	2
 1553              	s_instance:
 1554 0000 00000000 		.space	4
 1555              		.text
 1556              	.Letext0:
 1557              		.file 4 "D:\\stm32cubeclt\\STM32CubeCLT_1.21.0\\GNU-tools-for-STM32\\bin\\../lib/gcc/arm-none-eabi
 1558              		.file 5 "D:\\stm32cubeclt\\STM32CubeCLT_1.21.0\\GNU-tools-for-STM32\\bin\\../lib/gcc/arm-none-eabi
 1559              		.file 6 "SynaptiX_FDK/services/logger/logger.h"
 1560              		.file 7 "D:\\stm32cubeclt\\STM32CubeCLT_1.21.0\\GNU-tools-for-STM32\\bin\\../lib/gcc/arm-none-eabi
 1561              		.file 8 "<built-in>"
ARM GAS  C:\Users\DELL\AppData\Local\Temp\ccitbtwj.s 			page 45

