ARM GAS  C:\Users\DELL\AppData\Local\Temp\cc2EPZqA.s 			page 1


   1              		.cpu cortex-m33
   2              		.arch armv8-m.main
   3              		.fpu fpv5-sp-d16
   4              		.arch_extension dsp
   5              		.eabi_attribute 27, 1
   6              		.eabi_attribute 28, 1
   7              		.eabi_attribute 20, 1
   8              		.eabi_attribute 21, 1
   9              		.eabi_attribute 23, 3
  10              		.eabi_attribute 24, 1
  11              		.eabi_attribute 25, 1
  12              		.eabi_attribute 26, 1
  13              		.eabi_attribute 30, 1
  14              		.eabi_attribute 34, 1
  15              		.eabi_attribute 18, 4
  16              		.file	"sx_sleep_manager.c"
  17              		.text
  18              	.Ltext0:
  19              		.cfi_sections	.debug_frame
  20              		.file 1 "SynaptiX_FDK/services/sleepmanager/sx_sleep_manager.c"
  21              		.section	.text.sx_sleep_enter_stop,"ax",%progbits
  22              		.align	1
  23              		.syntax unified
  24              		.thumb
  25              		.thumb_func
  27              	sx_sleep_enter_stop:
  28              	.LVL0:
  29              	.LFB298:
  30              		.file 2 "SynaptiX_FDK/components/peripherals/sleep/sx_sleep.h"
   1:SynaptiX_FDK/components/peripherals/sleep/sx_sleep.h **** #ifndef SX_SLEEP_H
   2:SynaptiX_FDK/components/peripherals/sleep/sx_sleep.h **** #define SX_SLEEP_H
   3:SynaptiX_FDK/components/peripherals/sleep/sx_sleep.h **** 
   4:SynaptiX_FDK/components/peripherals/sleep/sx_sleep.h **** #ifdef __cplusplus
   5:SynaptiX_FDK/components/peripherals/sleep/sx_sleep.h **** extern "C" {
   6:SynaptiX_FDK/components/peripherals/sleep/sx_sleep.h **** #endif
   7:SynaptiX_FDK/components/peripherals/sleep/sx_sleep.h ****  
   8:SynaptiX_FDK/components/peripherals/sleep/sx_sleep.h **** #include <stdint.h>
   9:SynaptiX_FDK/components/peripherals/sleep/sx_sleep.h **** 
  10:SynaptiX_FDK/components/peripherals/sleep/sx_sleep.h **** typedef enum {
  11:SynaptiX_FDK/components/peripherals/sleep/sx_sleep.h ****     WAKE_REASON_UNKNOWN = 0,
  12:SynaptiX_FDK/components/peripherals/sleep/sx_sleep.h ****     WAKE_REASON_RTC,
  13:SynaptiX_FDK/components/peripherals/sleep/sx_sleep.h ****     WAKE_REASON_EXTI,
  14:SynaptiX_FDK/components/peripherals/sleep/sx_sleep.h **** } wake_reason_t;
  15:SynaptiX_FDK/components/peripherals/sleep/sx_sleep.h **** 
  16:SynaptiX_FDK/components/peripherals/sleep/sx_sleep.h **** typedef struct sx_sleep sx_sleep_t;
  17:SynaptiX_FDK/components/peripherals/sleep/sx_sleep.h **** 
  18:SynaptiX_FDK/components/peripherals/sleep/sx_sleep.h **** typedef struct sx_sleep_ops {
  19:SynaptiX_FDK/components/peripherals/sleep/sx_sleep.h ****     void (*enter_stop)  (sx_sleep_t *mgr);
  20:SynaptiX_FDK/components/peripherals/sleep/sx_sleep.h ****     void (*set_rtc_wake)(sx_sleep_t *mgr, uint32_t period_sec);
  21:SynaptiX_FDK/components/peripherals/sleep/sx_sleep.h ****     void (*cancel_rtc)  (sx_sleep_t *mgr);
  22:SynaptiX_FDK/components/peripherals/sleep/sx_sleep.h **** } sx_sleep_ops_t;
  23:SynaptiX_FDK/components/peripherals/sleep/sx_sleep.h **** 
  24:SynaptiX_FDK/components/peripherals/sleep/sx_sleep.h **** struct sx_sleep {
  25:SynaptiX_FDK/components/peripherals/sleep/sx_sleep.h ****     sx_sleep_ops_t *ops;
  26:SynaptiX_FDK/components/peripherals/sleep/sx_sleep.h ****     void                   *pDriver;
  27:SynaptiX_FDK/components/peripherals/sleep/sx_sleep.h ****     wake_reason_t           wake_reason;
  28:SynaptiX_FDK/components/peripherals/sleep/sx_sleep.h **** };
ARM GAS  C:\Users\DELL\AppData\Local\Temp\cc2EPZqA.s 			page 2


  29:SynaptiX_FDK/components/peripherals/sleep/sx_sleep.h **** 
  30:SynaptiX_FDK/components/peripherals/sleep/sx_sleep.h **** static inline void sx_sleep_init(sx_sleep_t *mgr,
  31:SynaptiX_FDK/components/peripherals/sleep/sx_sleep.h ****                                           sx_sleep_ops_t *ops,
  32:SynaptiX_FDK/components/peripherals/sleep/sx_sleep.h ****                                           void *pDriver)
  33:SynaptiX_FDK/components/peripherals/sleep/sx_sleep.h **** {
  34:SynaptiX_FDK/components/peripherals/sleep/sx_sleep.h ****     mgr->ops         = ops;
  35:SynaptiX_FDK/components/peripherals/sleep/sx_sleep.h ****     mgr->pDriver     = pDriver;
  36:SynaptiX_FDK/components/peripherals/sleep/sx_sleep.h ****     mgr->wake_reason = WAKE_REASON_UNKNOWN;
  37:SynaptiX_FDK/components/peripherals/sleep/sx_sleep.h **** }
  38:SynaptiX_FDK/components/peripherals/sleep/sx_sleep.h **** 
  39:SynaptiX_FDK/components/peripherals/sleep/sx_sleep.h **** static inline void sx_sleep_enter_stop(sx_sleep_t *mgr)
  40:SynaptiX_FDK/components/peripherals/sleep/sx_sleep.h **** {
  31              		.loc 2 40 1 view -0
  32              		.cfi_startproc
  33              		@ args = 0, pretend = 0, frame = 0
  34              		@ frame_needed = 0, uses_anonymous_args = 0
  35              		.loc 2 40 1 is_stmt 0 view .LVU1
  36 0000 08B5     		push	{r3, lr}
  37              	.LCFI0:
  38              		.cfi_def_cfa_offset 8
  39              		.cfi_offset 3, -8
  40              		.cfi_offset 14, -4
  41:SynaptiX_FDK/components/peripherals/sleep/sx_sleep.h ****     if (mgr->ops && mgr->ops->enter_stop)
  41              		.loc 2 41 5 is_stmt 1 view .LVU2
  42              		.loc 2 41 12 is_stmt 0 view .LVU3
  43 0002 0368     		ldr	r3, [r0]
  44              		.loc 2 41 8 view .LVU4
  45 0004 13B1     		cbz	r3, .L1
  46              		.loc 2 41 29 discriminator 1 view .LVU5
  47 0006 1B68     		ldr	r3, [r3]
  48              		.loc 2 41 18 discriminator 1 view .LVU6
  49 0008 03B1     		cbz	r3, .L1
  42:SynaptiX_FDK/components/peripherals/sleep/sx_sleep.h ****         mgr->ops->enter_stop(mgr);
  50              		.loc 2 42 9 is_stmt 1 view .LVU7
  51 000a 9847     		blx	r3
  52              	.LVL1:
  53              	.L1:
  43:SynaptiX_FDK/components/peripherals/sleep/sx_sleep.h **** }
  54              		.loc 2 43 1 is_stmt 0 view .LVU8
  55 000c 08BD     		pop	{r3, pc}
  56              		.cfi_endproc
  57              	.LFE298:
  59              		.section	.text.sx_sleep_set_rtc_wake,"ax",%progbits
  60              		.align	1
  61              		.syntax unified
  62              		.thumb
  63              		.thumb_func
  65              	sx_sleep_set_rtc_wake:
  66              	.LVL2:
  67              	.LFB299:
  44:SynaptiX_FDK/components/peripherals/sleep/sx_sleep.h **** 
  45:SynaptiX_FDK/components/peripherals/sleep/sx_sleep.h **** static inline void sx_sleep_set_rtc_wake(sx_sleep_t *mgr,
  46:SynaptiX_FDK/components/peripherals/sleep/sx_sleep.h ****                                                    uint32_t period_sec)
  47:SynaptiX_FDK/components/peripherals/sleep/sx_sleep.h **** {
  68              		.loc 2 47 1 is_stmt 1 view -0
  69              		.cfi_startproc
  70              		@ args = 0, pretend = 0, frame = 0
ARM GAS  C:\Users\DELL\AppData\Local\Temp\cc2EPZqA.s 			page 3


  71              		@ frame_needed = 0, uses_anonymous_args = 0
  72              		.loc 2 47 1 is_stmt 0 view .LVU10
  73 0000 08B5     		push	{r3, lr}
  74              	.LCFI1:
  75              		.cfi_def_cfa_offset 8
  76              		.cfi_offset 3, -8
  77              		.cfi_offset 14, -4
  48:SynaptiX_FDK/components/peripherals/sleep/sx_sleep.h ****     if (mgr->ops && mgr->ops->set_rtc_wake)
  78              		.loc 2 48 5 is_stmt 1 view .LVU11
  79              		.loc 2 48 12 is_stmt 0 view .LVU12
  80 0002 0368     		ldr	r3, [r0]
  81              		.loc 2 48 8 view .LVU13
  82 0004 13B1     		cbz	r3, .L4
  83              		.loc 2 48 29 discriminator 1 view .LVU14
  84 0006 5B68     		ldr	r3, [r3, #4]
  85              		.loc 2 48 18 discriminator 1 view .LVU15
  86 0008 03B1     		cbz	r3, .L4
  49:SynaptiX_FDK/components/peripherals/sleep/sx_sleep.h ****         mgr->ops->set_rtc_wake(mgr, period_sec);
  87              		.loc 2 49 9 is_stmt 1 view .LVU16
  88 000a 9847     		blx	r3
  89              	.LVL3:
  90              	.L4:
  50:SynaptiX_FDK/components/peripherals/sleep/sx_sleep.h **** }
  91              		.loc 2 50 1 is_stmt 0 view .LVU17
  92 000c 08BD     		pop	{r3, pc}
  93              		.cfi_endproc
  94              	.LFE299:
  96              		.section	.text.sx_sleep_cancel_rtc,"ax",%progbits
  97              		.align	1
  98              		.syntax unified
  99              		.thumb
 100              		.thumb_func
 102              	sx_sleep_cancel_rtc:
 103              	.LVL4:
 104              	.LFB300:
  51:SynaptiX_FDK/components/peripherals/sleep/sx_sleep.h **** 
  52:SynaptiX_FDK/components/peripherals/sleep/sx_sleep.h **** static inline void sx_sleep_cancel_rtc(sx_sleep_t *mgr)
  53:SynaptiX_FDK/components/peripherals/sleep/sx_sleep.h **** {
 105              		.loc 2 53 1 is_stmt 1 view -0
 106              		.cfi_startproc
 107              		@ args = 0, pretend = 0, frame = 0
 108              		@ frame_needed = 0, uses_anonymous_args = 0
 109              		.loc 2 53 1 is_stmt 0 view .LVU19
 110 0000 08B5     		push	{r3, lr}
 111              	.LCFI2:
 112              		.cfi_def_cfa_offset 8
 113              		.cfi_offset 3, -8
 114              		.cfi_offset 14, -4
  54:SynaptiX_FDK/components/peripherals/sleep/sx_sleep.h ****     if (mgr->ops && mgr->ops->cancel_rtc)
 115              		.loc 2 54 5 is_stmt 1 view .LVU20
 116              		.loc 2 54 12 is_stmt 0 view .LVU21
 117 0002 0368     		ldr	r3, [r0]
 118              		.loc 2 54 8 view .LVU22
 119 0004 13B1     		cbz	r3, .L7
 120              		.loc 2 54 29 discriminator 1 view .LVU23
 121 0006 9B68     		ldr	r3, [r3, #8]
 122              		.loc 2 54 18 discriminator 1 view .LVU24
ARM GAS  C:\Users\DELL\AppData\Local\Temp\cc2EPZqA.s 			page 4


 123 0008 03B1     		cbz	r3, .L7
  55:SynaptiX_FDK/components/peripherals/sleep/sx_sleep.h ****         mgr->ops->cancel_rtc(mgr);
 124              		.loc 2 55 9 is_stmt 1 view .LVU25
 125 000a 9847     		blx	r3
 126              	.LVL5:
 127              	.L7:
  56:SynaptiX_FDK/components/peripherals/sleep/sx_sleep.h **** }
 128              		.loc 2 56 1 is_stmt 0 view .LVU26
 129 000c 08BD     		pop	{r3, pc}
 130              		.cfi_endproc
 131              	.LFE300:
 133              		.section	.rodata.sx_sleep_manager_init.str1.4,"aMS",%progbits,1
 134              		.align	2
 135              	.LC0:
 136 0000 696E6974 		.ascii	"init OK \342\200\224 waiting for config values\000"
 136      204F4B20 
 136      E2809420 
 136      77616974 
 136      696E6720 
 137 0026 0000     		.align	2
 138              	.LC1:
 139 0028 53585F53 		.ascii	"SX_SLEEP_MGR\000"
 139      4C454550 
 139      5F4D4752 
 139      00
 140              		.section	.text.sx_sleep_manager_init,"ax",%progbits
 141              		.align	1
 142              		.global	sx_sleep_manager_init
 143              		.syntax unified
 144              		.thumb
 145              		.thumb_func
 147              	sx_sleep_manager_init:
 148              	.LVL6:
 149              	.LFB341:
   1:SynaptiX_FDK/services/sleepmanager/sx_sleep_manager.c **** #include "sx_sleep_manager.h"
   2:SynaptiX_FDK/services/sleepmanager/sx_sleep_manager.c **** #include "sx_user_mqtt.h"
   3:SynaptiX_FDK/services/sleepmanager/sx_sleep_manager.c **** #include "sx_board.h"
   4:SynaptiX_FDK/services/sleepmanager/sx_sleep_manager.c **** #include "app_config.h"
   5:SynaptiX_FDK/services/sleepmanager/sx_sleep_manager.c **** #include "logger.h"
   6:SynaptiX_FDK/services/sleepmanager/sx_sleep_manager.c **** 
   7:SynaptiX_FDK/services/sleepmanager/sx_sleep_manager.c **** static const char *TAG = "SX_SLEEP_MGR";
   8:SynaptiX_FDK/services/sleepmanager/sx_sleep_manager.c **** 
   9:SynaptiX_FDK/services/sleepmanager/sx_sleep_manager.c **** void sx_sleep_manager_init(sx_sleep_manager_t *mgr,
  10:SynaptiX_FDK/services/sleepmanager/sx_sleep_manager.c ****                            sx_sleep_t         *sleep,
  11:SynaptiX_FDK/services/sleepmanager/sx_sleep_manager.c ****                            modem_handle_t     *modem,
  12:SynaptiX_FDK/services/sleepmanager/sx_sleep_manager.c ****                            sx_gps_t           *gps)
  13:SynaptiX_FDK/services/sleepmanager/sx_sleep_manager.c **** {
 150              		.loc 1 13 1 is_stmt 1 view -0
 151              		.cfi_startproc
 152              		@ args = 0, pretend = 0, frame = 0
 153              		@ frame_needed = 0, uses_anonymous_args = 0
 154              		.loc 1 13 1 is_stmt 0 view .LVU28
 155 0000 08B5     		push	{r3, lr}
 156              	.LCFI3:
 157              		.cfi_def_cfa_offset 8
 158              		.cfi_offset 3, -8
 159              		.cfi_offset 14, -4
ARM GAS  C:\Users\DELL\AppData\Local\Temp\cc2EPZqA.s 			page 5


  14:SynaptiX_FDK/services/sleepmanager/sx_sleep_manager.c ****     mgr->sleep              = sleep;
 160              		.loc 1 14 5 is_stmt 1 view .LVU29
 161              		.loc 1 14 29 is_stmt 0 view .LVU30
 162 0002 0160     		str	r1, [r0]
  15:SynaptiX_FDK/services/sleepmanager/sx_sleep_manager.c ****     mgr->module.modem       = modem;
 163              		.loc 1 15 5 is_stmt 1 view .LVU31
 164              		.loc 1 15 29 is_stmt 0 view .LVU32
 165 0004 4260     		str	r2, [r0, #4]
  16:SynaptiX_FDK/services/sleepmanager/sx_sleep_manager.c ****     mgr->module.gps         = gps;
 166              		.loc 1 16 5 is_stmt 1 view .LVU33
 167              		.loc 1 16 29 is_stmt 0 view .LVU34
 168 0006 8360     		str	r3, [r0, #8]
  17:SynaptiX_FDK/services/sleepmanager/sx_sleep_manager.c ****     mgr->wake_step          = SX_WAKE_STEP_IDLE;
 169              		.loc 1 17 5 is_stmt 1 view .LVU35
 170              		.loc 1 17 29 is_stmt 0 view .LVU36
 171 0008 0023     		movs	r3, #0
 172              	.LVL7:
 173              		.loc 1 17 29 view .LVU37
 174 000a 0377     		strb	r3, [r0, #28]
  18:SynaptiX_FDK/services/sleepmanager/sx_sleep_manager.c ****     mgr->published          = 0;
 175              		.loc 1 18 5 is_stmt 1 view .LVU38
 176              		.loc 1 18 29 is_stmt 0 view .LVU39
 177 000c 4377     		strb	r3, [r0, #29]
  19:SynaptiX_FDK/services/sleepmanager/sx_sleep_manager.c ****     mgr->elapsed.wake_elapsed_ms = 0;
 178              		.loc 1 19 5 is_stmt 1 view .LVU40
 179              		.loc 1 19 34 is_stmt 0 view .LVU41
 180 000e 0361     		str	r3, [r0, #16]
  20:SynaptiX_FDK/services/sleepmanager/sx_sleep_manager.c ****     mgr->elapsed.gps_elapsed_ms  = 0;
 181              		.loc 1 20 5 is_stmt 1 view .LVU42
 182              		.loc 1 20 34 is_stmt 0 view .LVU43
 183 0010 4361     		str	r3, [r0, #20]
  21:SynaptiX_FDK/services/sleepmanager/sx_sleep_manager.c ****     mgr->elapsed.sim_elapsed_ms  = 0;
 184              		.loc 1 21 5 is_stmt 1 view .LVU44
 185              		.loc 1 21 34 is_stmt 0 view .LVU45
 186 0012 8361     		str	r3, [r0, #24]
  22:SynaptiX_FDK/services/sleepmanager/sx_sleep_manager.c ****     mgr->sleep_ms        = 0;   
 187              		.loc 1 22 5 is_stmt 1 view .LVU46
 188              		.loc 1 22 26 is_stmt 0 view .LVU47
 189 0014 0362     		str	r3, [r0, #32]
  23:SynaptiX_FDK/services/sleepmanager/sx_sleep_manager.c ****     mgr->wake_timeout_ms = 0;
 190              		.loc 1 23 5 is_stmt 1 view .LVU48
 191              		.loc 1 23 26 is_stmt 0 view .LVU49
 192 0016 4362     		str	r3, [r0, #36]
  24:SynaptiX_FDK/services/sleepmanager/sx_sleep_manager.c ****     mgr->sim_start_sent  = 0;
 193              		.loc 1 24 5 is_stmt 1 view .LVU50
 194              		.loc 1 24 26 is_stmt 0 view .LVU51
 195 0018 80F82830 		strb	r3, [r0, #40]
  25:SynaptiX_FDK/services/sleepmanager/sx_sleep_manager.c **** 
  26:SynaptiX_FDK/services/sleepmanager/sx_sleep_manager.c ****     log_info(TAG, "init OK — waiting for config values");
 196              		.loc 1 26 5 is_stmt 1 view .LVU52
 197 001c 024A     		ldr	r2, .L12
 198              	.LVL8:
 199              		.loc 1 26 5 is_stmt 0 view .LVU53
 200 001e 0349     		ldr	r1, .L12+4
 201              	.LVL9:
 202              		.loc 1 26 5 view .LVU54
 203 0020 0320     		movs	r0, #3
ARM GAS  C:\Users\DELL\AppData\Local\Temp\cc2EPZqA.s 			page 6


 204              	.LVL10:
 205              		.loc 1 26 5 view .LVU55
 206 0022 FFF7FEFF 		bl	log_func
 207              	.LVL11:
  27:SynaptiX_FDK/services/sleepmanager/sx_sleep_manager.c **** }
 208              		.loc 1 27 1 view .LVU56
 209 0026 08BD     		pop	{r3, pc}
 210              	.L13:
 211              		.align	2
 212              	.L12:
 213 0028 00000000 		.word	.LC0
 214 002c 28000000 		.word	.LC1
 215              		.cfi_endproc
 216              	.LFE341:
 218              		.section	.rodata.sx_sleep_manager_enter.str1.4,"aMS",%progbits,1
 219              		.align	2
 220              	.LC2:
 221 0000 456E7465 		.ascii	"Entering sleep for %lu ms (%lu sec)\000"
 221      72696E67 
 221      20736C65 
 221      65702066 
 221      6F722025 
 222              		.align	2
 223              	.LC3:
 224 0024 53657474 		.ascii	"Setting RTC wakeup = %lu sec\000"
 224      696E6720 
 224      52544320 
 224      77616B65 
 224      7570203D 
 225 0041 000000   		.align	2
 226              	.LC4:
 227 0044 3E3E3E20 		.ascii	">>> Entering STOP mode NOW\000"
 227      456E7465 
 227      72696E67 
 227      2053544F 
 227      50206D6F 
 228 005f 00       		.align	2
 229              	.LC5:
 230 0060 3C3C3C20 		.ascii	"<<< Woke from STOP mode\000"
 230      576F6B65 
 230      2066726F 
 230      6D205354 
 230      4F50206D 
 231              		.section	.text.sx_sleep_manager_enter,"ax",%progbits
 232              		.align	1
 233              		.global	sx_sleep_manager_enter
 234              		.syntax unified
 235              		.thumb
 236              		.thumb_func
 238              	sx_sleep_manager_enter:
 239              	.LVL12:
 240              	.LFB342:
  28:SynaptiX_FDK/services/sleepmanager/sx_sleep_manager.c **** 
  29:SynaptiX_FDK/services/sleepmanager/sx_sleep_manager.c **** void sx_sleep_manager_enter(sx_sleep_manager_t *mgr)
  30:SynaptiX_FDK/services/sleepmanager/sx_sleep_manager.c **** {
 241              		.loc 1 30 1 is_stmt 1 view -0
 242              		.cfi_startproc
ARM GAS  C:\Users\DELL\AppData\Local\Temp\cc2EPZqA.s 			page 7


 243              		@ args = 0, pretend = 0, frame = 0
 244              		@ frame_needed = 0, uses_anonymous_args = 0
 245              		.loc 1 30 1 is_stmt 0 view .LVU58
 246 0000 70B5     		push	{r4, r5, r6, lr}
 247              	.LCFI4:
 248              		.cfi_def_cfa_offset 16
 249              		.cfi_offset 4, -16
 250              		.cfi_offset 5, -12
 251              		.cfi_offset 6, -8
 252              		.cfi_offset 14, -4
 253 0002 82B0     		sub	sp, sp, #8
 254              	.LCFI5:
 255              		.cfi_def_cfa_offset 24
 256 0004 0446     		mov	r4, r0
  31:SynaptiX_FDK/services/sleepmanager/sx_sleep_manager.c ****     uint32_t sleep_ms  = (mgr->sleep_ms > 0) ? mgr->sleep_ms : SX_TIME_IN_SLEEP;
 257              		.loc 1 31 5 is_stmt 1 view .LVU59
 258              		.loc 1 31 30 is_stmt 0 view .LVU60
 259 0006 036A     		ldr	r3, [r0, #32]
 260              		.loc 1 31 62 view .LVU61
 261 0008 43B1     		cbz	r3, .L16
 262              	.LVL13:
  32:SynaptiX_FDK/services/sleepmanager/sx_sleep_manager.c ****     uint32_t sleep_sec = sleep_ms / 1000U;
 263              		.loc 1 32 5 is_stmt 1 view .LVU62
 264              		.loc 1 32 14 is_stmt 0 view .LVU63
 265 000a 234D     		ldr	r5, .L19
 266 000c A5FB0325 		umull	r2, r5, r5, r3
 267 0010 AD09     		lsrs	r5, r5, #6
 268              	.LVL14:
  33:SynaptiX_FDK/services/sleepmanager/sx_sleep_manager.c ****     if (sleep_sec == 0) sleep_sec = 1;
 269              		.loc 1 33 5 is_stmt 1 view .LVU64
 270              		.loc 1 33 8 is_stmt 0 view .LVU65
 271 0012 B3F57A7F 		cmp	r3, #1000
 272 0016 04D2     		bcs	.L15
 273              		.loc 1 33 35 discriminator 1 view .LVU66
 274 0018 0125     		movs	r5, #1
 275              	.LVL15:
 276              		.loc 1 33 35 discriminator 1 view .LVU67
 277 001a 02E0     		b	.L15
 278              	.LVL16:
 279              	.L16:
  31:SynaptiX_FDK/services/sleepmanager/sx_sleep_manager.c ****     uint32_t sleep_ms  = (mgr->sleep_ms > 0) ? mgr->sleep_ms : SX_TIME_IN_SLEEP;
 280              		.loc 1 31 62 discriminator 2 view .LVU68
 281 001c 4EF66023 		movw	r3, #60000
  32:SynaptiX_FDK/services/sleepmanager/sx_sleep_manager.c ****     uint32_t sleep_sec = sleep_ms / 1000U;
 282              		.loc 1 32 14 view .LVU69
 283 0020 3C25     		movs	r5, #60
 284              	.L15:
 285              	.LVL17:
  34:SynaptiX_FDK/services/sleepmanager/sx_sleep_manager.c **** 
  35:SynaptiX_FDK/services/sleepmanager/sx_sleep_manager.c ****     log_info(TAG, "Entering sleep for %lu ms (%lu sec)", sleep_ms, sleep_sec);
 286              		.loc 1 35 5 is_stmt 1 view .LVU70
 287 0022 1E4E     		ldr	r6, .L19+4
 288 0024 0095     		str	r5, [sp]
 289 0026 1E4A     		ldr	r2, .L19+8
 290 0028 3146     		mov	r1, r6
 291 002a 0320     		movs	r0, #3
 292              	.LVL18:
ARM GAS  C:\Users\DELL\AppData\Local\Temp\cc2EPZqA.s 			page 8


 293              		.loc 1 35 5 is_stmt 0 view .LVU71
 294 002c FFF7FEFF 		bl	log_func
 295              	.LVL19:
  36:SynaptiX_FDK/services/sleepmanager/sx_sleep_manager.c **** 
  37:SynaptiX_FDK/services/sleepmanager/sx_sleep_manager.c ****     gps_power_off(mgr->module.gps);
 296              		.loc 1 37 5 is_stmt 1 view .LVU72
 297 0030 A068     		ldr	r0, [r4, #8]
 298 0032 FFF7FEFF 		bl	gps_power_off
 299              	.LVL20:
  38:SynaptiX_FDK/services/sleepmanager/sx_sleep_manager.c ****     sx_delay_ms(100);
 300              		.loc 1 38 5 view .LVU73
 301 0036 6420     		movs	r0, #100
 302 0038 FFF7FEFF 		bl	sx_delay_ms
 303              	.LVL21:
  39:SynaptiX_FDK/services/sleepmanager/sx_sleep_manager.c ****     mgr->module.gps->latitude   = 0.0f;
 304              		.loc 1 39 5 view .LVU74
 305              		.loc 1 39 16 is_stmt 0 view .LVU75
 306 003c A268     		ldr	r2, [r4, #8]
 307              		.loc 1 39 33 view .LVU76
 308 003e 0023     		movs	r3, #0
 309 0040 1366     		str	r3, [r2, #96]	@ float
  40:SynaptiX_FDK/services/sleepmanager/sx_sleep_manager.c ****     mgr->module.gps->longtitude = 0.0f;
 310              		.loc 1 40 5 is_stmt 1 view .LVU77
 311              		.loc 1 40 16 is_stmt 0 view .LVU78
 312 0042 A268     		ldr	r2, [r4, #8]
 313              		.loc 1 40 33 view .LVU79
 314 0044 5366     		str	r3, [r2, #100]	@ float
  41:SynaptiX_FDK/services/sleepmanager/sx_sleep_manager.c ****     mgr->module.modem->ops->power_off_start(mgr->module.modem->ctx);
 315              		.loc 1 41 5 is_stmt 1 view .LVU80
 316              		.loc 1 41 16 is_stmt 0 view .LVU81
 317 0046 6368     		ldr	r3, [r4, #4]
 318              		.loc 1 41 22 view .LVU82
 319 0048 1A68     		ldr	r2, [r3]
 320              		.loc 1 41 27 view .LVU83
 321 004a 5268     		ldr	r2, [r2, #4]
 322              		.loc 1 41 5 view .LVU84
 323 004c 5868     		ldr	r0, [r3, #4]
 324 004e 9047     		blx	r2
 325              	.LVL22:
  42:SynaptiX_FDK/services/sleepmanager/sx_sleep_manager.c ****     sx_delay_ms(500);
 326              		.loc 1 42 5 is_stmt 1 view .LVU85
 327 0050 4FF4FA70 		mov	r0, #500
 328 0054 FFF7FEFF 		bl	sx_delay_ms
 329              	.LVL23:
  43:SynaptiX_FDK/services/sleepmanager/sx_sleep_manager.c **** 
  44:SynaptiX_FDK/services/sleepmanager/sx_sleep_manager.c ****     log_info(TAG, "Setting RTC wakeup = %lu sec", sleep_sec);  
 330              		.loc 1 44 5 view .LVU86
 331 0058 2B46     		mov	r3, r5
 332 005a 124A     		ldr	r2, .L19+12
 333 005c 3146     		mov	r1, r6
 334 005e 0320     		movs	r0, #3
 335 0060 FFF7FEFF 		bl	log_func
 336              	.LVL24:
  45:SynaptiX_FDK/services/sleepmanager/sx_sleep_manager.c ****     sx_sleep_set_rtc_wake(mgr->sleep, sleep_sec);
 337              		.loc 1 45 5 view .LVU87
 338 0064 2946     		mov	r1, r5
 339 0066 2068     		ldr	r0, [r4]
ARM GAS  C:\Users\DELL\AppData\Local\Temp\cc2EPZqA.s 			page 9


 340 0068 FFF7FEFF 		bl	sx_sleep_set_rtc_wake
 341              	.LVL25:
  46:SynaptiX_FDK/services/sleepmanager/sx_sleep_manager.c ****     
  47:SynaptiX_FDK/services/sleepmanager/sx_sleep_manager.c ****     log_info(TAG, ">>> Entering STOP mode NOW");                
 342              		.loc 1 47 5 view .LVU88
 343 006c 0E4A     		ldr	r2, .L19+16
 344 006e 3146     		mov	r1, r6
 345 0070 0320     		movs	r0, #3
 346 0072 FFF7FEFF 		bl	log_func
 347              	.LVL26:
  48:SynaptiX_FDK/services/sleepmanager/sx_sleep_manager.c ****     sx_delay_ms(10);  
 348              		.loc 1 48 5 view .LVU89
 349 0076 0A20     		movs	r0, #10
 350 0078 FFF7FEFF 		bl	sx_delay_ms
 351              	.LVL27:
  49:SynaptiX_FDK/services/sleepmanager/sx_sleep_manager.c ****     
  50:SynaptiX_FDK/services/sleepmanager/sx_sleep_manager.c ****     sx_sleep_enter_stop(mgr->sleep);
 352              		.loc 1 50 5 view .LVU90
 353 007c 2068     		ldr	r0, [r4]
 354 007e FFF7FEFF 		bl	sx_sleep_enter_stop
 355              	.LVL28:
  51:SynaptiX_FDK/services/sleepmanager/sx_sleep_manager.c ****     
  52:SynaptiX_FDK/services/sleepmanager/sx_sleep_manager.c ****     log_info(TAG, "<<< Woke from STOP mode");                  
 356              		.loc 1 52 5 view .LVU91
 357 0082 0A4A     		ldr	r2, .L19+20
 358 0084 3146     		mov	r1, r6
 359 0086 0320     		movs	r0, #3
 360 0088 FFF7FEFF 		bl	log_func
 361              	.LVL29:
  53:SynaptiX_FDK/services/sleepmanager/sx_sleep_manager.c ****     sx_sleep_cancel_rtc(mgr->sleep);
 362              		.loc 1 53 5 view .LVU92
 363 008c 2068     		ldr	r0, [r4]
 364 008e FFF7FEFF 		bl	sx_sleep_cancel_rtc
 365              	.LVL30:
  54:SynaptiX_FDK/services/sleepmanager/sx_sleep_manager.c **** }
 366              		.loc 1 54 1 is_stmt 0 view .LVU93
 367 0092 02B0     		add	sp, sp, #8
 368              	.LCFI6:
 369              		.cfi_def_cfa_offset 16
 370              		@ sp needed
 371 0094 70BD     		pop	{r4, r5, r6, pc}
 372              	.LVL31:
 373              	.L20:
 374              		.loc 1 54 1 view .LVU94
 375 0096 00BF     		.align	2
 376              	.L19:
 377 0098 D34D6210 		.word	274877907
 378 009c 28000000 		.word	.LC1
 379 00a0 00000000 		.word	.LC2
 380 00a4 24000000 		.word	.LC3
 381 00a8 44000000 		.word	.LC4
 382 00ac 60000000 		.word	.LC5
 383              		.cfi_endproc
 384              	.LFE342:
 386              		.section	.rodata.sx_sleep_manager_wake_process.str1.4,"aMS",%progbits,1
 387              		.align	2
 388              	.LC6:
ARM GAS  C:\Users\DELL\AppData\Local\Temp\cc2EPZqA.s 			page 10


 389 0000 506F7765 		.ascii	"Power on GPS first\000"
 389      72206F6E 
 389      20475053 
 389      20666972 
 389      737400
 390 0013 00       		.align	2
 391              	.LC7:
 392 0014 47505320 		.ascii	"GPS fix OK after %lu ms \342\200\224 now starting S"
 392      66697820 
 392      4F4B2061 
 392      66746572 
 392      20256C75 
 393 003e 494D00   		.ascii	"IM\000"
 394 0041 000000   		.align	2
 395              	.LC8:
 396 0044 47505320 		.ascii	"GPS timeout \342\200\224 proceed without fix, start"
 396      74696D65 
 396      6F757420 
 396      E2809420 
 396      70726F63 
 397 006e 696E6720 		.ascii	"ing SIM\000"
 397      53494D00 
 398 0076 0000     		.align	2
 399              	.LC9:
 400 0078 52657375 		.ascii	"Resume UART + Power on SIM\000"
 400      6D652055 
 400      41525420 
 400      2B20506F 
 400      77657220 
 401 0093 00       		.align	2
 402              	.LC10:
 403 0094 53494D20 		.ascii	"SIM ready after wake\000"
 403      72656164 
 403      79206166 
 403      74657220 
 403      77616B65 
 404 00a9 000000   		.align	2
 405              	.LC11:
 406 00ac 53494D20 		.ascii	"SIM timeout \342\200\224 hard reset (RST pin)\000"
 406      74696D65 
 406      6F757420 
 406      E2809420 
 406      68617264 
 407              		.section	.text.sx_sleep_manager_wake_process,"ax",%progbits
 408              		.align	1
 409              		.global	sx_sleep_manager_wake_process
 410              		.syntax unified
 411              		.thumb
 412              		.thumb_func
 414              	sx_sleep_manager_wake_process:
 415              	.LVL32:
 416              	.LFB343:
  55:SynaptiX_FDK/services/sleepmanager/sx_sleep_manager.c **** 
  56:SynaptiX_FDK/services/sleepmanager/sx_sleep_manager.c **** void sx_sleep_manager_wake_process(sx_sleep_manager_t *mgr, uint32_t delta_ms)
  57:SynaptiX_FDK/services/sleepmanager/sx_sleep_manager.c **** {
 417              		.loc 1 57 1 is_stmt 1 view -0
 418              		.cfi_startproc
ARM GAS  C:\Users\DELL\AppData\Local\Temp\cc2EPZqA.s 			page 11


 419              		@ args = 0, pretend = 0, frame = 0
 420              		@ frame_needed = 0, uses_anonymous_args = 0
 421              		.loc 1 57 1 is_stmt 0 view .LVU96
 422 0000 10B5     		push	{r4, lr}
 423              	.LCFI7:
 424              		.cfi_def_cfa_offset 8
 425              		.cfi_offset 4, -8
 426              		.cfi_offset 14, -4
 427 0002 0446     		mov	r4, r0
  58:SynaptiX_FDK/services/sleepmanager/sx_sleep_manager.c ****     switch (mgr->wake_step)
 428              		.loc 1 58 5 is_stmt 1 view .LVU97
 429              		.loc 1 58 16 is_stmt 0 view .LVU98
 430 0004 037F     		ldrb	r3, [r0, #28]	@ zero_extendqisi2
 431              		.loc 1 58 5 view .LVU99
 432 0006 042B     		cmp	r3, #4
 433 0008 06D8     		bhi	.L21
 434 000a DFE803F0 		tbb	[pc, r3]
 435              	.L24:
 436 000e 03       		.byte	(.L28-.L24)/2
 437 000f 06       		.byte	(.L27-.L24)/2
 438 0010 15       		.byte	(.L26-.L24)/2
 439 0011 3A       		.byte	(.L25-.L24)/2
 440 0012 52       		.byte	(.L23-.L24)/2
 441 0013 00       		.p2align 1
 442              	.L28:
  59:SynaptiX_FDK/services/sleepmanager/sx_sleep_manager.c ****     {
  60:SynaptiX_FDK/services/sleepmanager/sx_sleep_manager.c ****     case SX_WAKE_STEP_IDLE:
  61:SynaptiX_FDK/services/sleepmanager/sx_sleep_manager.c ****         mgr->wake_step = SX_WAKE_STEP_GPS_ON_FIRST;
 443              		.loc 1 61 9 is_stmt 1 view .LVU100
 444              		.loc 1 61 24 is_stmt 0 view .LVU101
 445 0014 0123     		movs	r3, #1
 446 0016 0377     		strb	r3, [r0, #28]
  62:SynaptiX_FDK/services/sleepmanager/sx_sleep_manager.c ****         break;
 447              		.loc 1 62 9 is_stmt 1 view .LVU102
 448              	.LVL33:
 449              	.L21:
  63:SynaptiX_FDK/services/sleepmanager/sx_sleep_manager.c **** 
  64:SynaptiX_FDK/services/sleepmanager/sx_sleep_manager.c ****     case SX_WAKE_STEP_GPS_ON_FIRST:
  65:SynaptiX_FDK/services/sleepmanager/sx_sleep_manager.c ****         board_gps_uart_resume_it();
  66:SynaptiX_FDK/services/sleepmanager/sx_sleep_manager.c ****         log_info(TAG, "Power on GPS first");
  67:SynaptiX_FDK/services/sleepmanager/sx_sleep_manager.c ****         gps_power_on(mgr->module.gps);
  68:SynaptiX_FDK/services/sleepmanager/sx_sleep_manager.c ****         //board_gps_uart_resume_it();
  69:SynaptiX_FDK/services/sleepmanager/sx_sleep_manager.c ****         mgr->elapsed.gps_elapsed_ms = 0;
  70:SynaptiX_FDK/services/sleepmanager/sx_sleep_manager.c ****         mgr->wake_step = SX_WAKE_STEP_GPS_WAIT;
  71:SynaptiX_FDK/services/sleepmanager/sx_sleep_manager.c ****         break;
  72:SynaptiX_FDK/services/sleepmanager/sx_sleep_manager.c **** 
  73:SynaptiX_FDK/services/sleepmanager/sx_sleep_manager.c ****     case SX_WAKE_STEP_GPS_WAIT:
  74:SynaptiX_FDK/services/sleepmanager/sx_sleep_manager.c ****         mgr->elapsed.gps_elapsed_ms += delta_ms;
  75:SynaptiX_FDK/services/sleepmanager/sx_sleep_manager.c **** 
  76:SynaptiX_FDK/services/sleepmanager/sx_sleep_manager.c ****         if (mgr->module.gps->latitude  != 0.0f &&
  77:SynaptiX_FDK/services/sleepmanager/sx_sleep_manager.c ****             mgr->module.gps->longtitude != 0.0f)
  78:SynaptiX_FDK/services/sleepmanager/sx_sleep_manager.c ****         {
  79:SynaptiX_FDK/services/sleepmanager/sx_sleep_manager.c ****             log_info(TAG, "GPS fix OK after %lu ms — now starting SIM",
  80:SynaptiX_FDK/services/sleepmanager/sx_sleep_manager.c ****                      mgr->elapsed.gps_elapsed_ms);
  81:SynaptiX_FDK/services/sleepmanager/sx_sleep_manager.c ****             mgr->wake_step = SX_WAKE_STEP_UART_RESUME;
  82:SynaptiX_FDK/services/sleepmanager/sx_sleep_manager.c ****         }
  83:SynaptiX_FDK/services/sleepmanager/sx_sleep_manager.c ****         else if (mgr->elapsed.gps_elapsed_ms >= GPS_TIMEOUT_MS)
ARM GAS  C:\Users\DELL\AppData\Local\Temp\cc2EPZqA.s 			page 12


  84:SynaptiX_FDK/services/sleepmanager/sx_sleep_manager.c ****         {
  85:SynaptiX_FDK/services/sleepmanager/sx_sleep_manager.c ****             log_warn(TAG, "GPS timeout — proceed without fix, starting SIM");
  86:SynaptiX_FDK/services/sleepmanager/sx_sleep_manager.c ****             mgr->wake_step = SX_WAKE_STEP_UART_RESUME;
  87:SynaptiX_FDK/services/sleepmanager/sx_sleep_manager.c ****         }
  88:SynaptiX_FDK/services/sleepmanager/sx_sleep_manager.c ****         break;
  89:SynaptiX_FDK/services/sleepmanager/sx_sleep_manager.c **** 
  90:SynaptiX_FDK/services/sleepmanager/sx_sleep_manager.c ****     case SX_WAKE_STEP_UART_RESUME:
  91:SynaptiX_FDK/services/sleepmanager/sx_sleep_manager.c ****         log_info(TAG, "Resume UART + Power on SIM");
  92:SynaptiX_FDK/services/sleepmanager/sx_sleep_manager.c **** 
  93:SynaptiX_FDK/services/sleepmanager/sx_sleep_manager.c ****         sx_board_uart_resume_it();
  94:SynaptiX_FDK/services/sleepmanager/sx_sleep_manager.c **** 
  95:SynaptiX_FDK/services/sleepmanager/sx_sleep_manager.c ****         mgr->module.modem->ops->comm_reset(mgr->module.modem->ctx);
  96:SynaptiX_FDK/services/sleepmanager/sx_sleep_manager.c ****         mgr->module.modem->ops->power_on_start(mgr->module.modem->ctx);
  97:SynaptiX_FDK/services/sleepmanager/sx_sleep_manager.c **** 
  98:SynaptiX_FDK/services/sleepmanager/sx_sleep_manager.c ****         mgr->elapsed.sim_elapsed_ms = 0;
  99:SynaptiX_FDK/services/sleepmanager/sx_sleep_manager.c ****         mgr->sim_start_sent         = 0;
 100:SynaptiX_FDK/services/sleepmanager/sx_sleep_manager.c ****         mgr->wake_step = SX_WAKE_STEP_SIM_WAKE;
 101:SynaptiX_FDK/services/sleepmanager/sx_sleep_manager.c ****         break;
 102:SynaptiX_FDK/services/sleepmanager/sx_sleep_manager.c **** 
 103:SynaptiX_FDK/services/sleepmanager/sx_sleep_manager.c ****     case SX_WAKE_STEP_SIM_WAKE:
 104:SynaptiX_FDK/services/sleepmanager/sx_sleep_manager.c ****         mgr->elapsed.sim_elapsed_ms += delta_ms;
 105:SynaptiX_FDK/services/sleepmanager/sx_sleep_manager.c **** 
 106:SynaptiX_FDK/services/sleepmanager/sx_sleep_manager.c ****         /* power_on_start() (called on entry to this step) is asynchronous —
 107:SynaptiX_FDK/services/sleepmanager/sx_sleep_manager.c ****          * its PWRKEY pulse + boot-probe sequence completes later, tracked
 108:SynaptiX_FDK/services/sleepmanager/sx_sleep_manager.c ****          * via power_is_busy(). start() must not be called until that
 109:SynaptiX_FDK/services/sleepmanager/sx_sleep_manager.c ****          * finishes (power_state == READY), same requirement as
 110:SynaptiX_FDK/services/sleepmanager/sx_sleep_manager.c ****          * sx_board_init()'s power-on sequencing. Send it exactly once, as
 111:SynaptiX_FDK/services/sleepmanager/sx_sleep_manager.c ****          * soon as power is no longer busy. */
 112:SynaptiX_FDK/services/sleepmanager/sx_sleep_manager.c ****         if (!mgr->sim_start_sent &&
 113:SynaptiX_FDK/services/sleepmanager/sx_sleep_manager.c ****             !mgr->module.modem->ops->power_is_busy(mgr->module.modem->ctx)) {
 114:SynaptiX_FDK/services/sleepmanager/sx_sleep_manager.c ****             mgr->module.modem->ops->start(mgr->module.modem->ctx);
 115:SynaptiX_FDK/services/sleepmanager/sx_sleep_manager.c ****             mgr->sim_start_sent = 1;
 116:SynaptiX_FDK/services/sleepmanager/sx_sleep_manager.c ****         }
 117:SynaptiX_FDK/services/sleepmanager/sx_sleep_manager.c **** 
 118:SynaptiX_FDK/services/sleepmanager/sx_sleep_manager.c ****         if (mgr->module.modem->ops->is_ready(mgr->module.modem->ctx)) {
 119:SynaptiX_FDK/services/sleepmanager/sx_sleep_manager.c ****             log_info(TAG, "SIM ready after wake");
 120:SynaptiX_FDK/services/sleepmanager/sx_sleep_manager.c ****             mgr->wake_step = SX_WAKE_STEP_DONE;
 121:SynaptiX_FDK/services/sleepmanager/sx_sleep_manager.c ****         } else if (mgr->elapsed.sim_elapsed_ms >= 90000U) {
 122:SynaptiX_FDK/services/sleepmanager/sx_sleep_manager.c ****             log_warn(TAG, "SIM timeout — hard reset (RST pin)");
 123:SynaptiX_FDK/services/sleepmanager/sx_sleep_manager.c ****             mgr->elapsed.sim_elapsed_ms = 0;
 124:SynaptiX_FDK/services/sleepmanager/sx_sleep_manager.c ****             mgr->sim_start_sent         = 0;
 125:SynaptiX_FDK/services/sleepmanager/sx_sleep_manager.c ****             mgr->module.modem->ops->hard_reset(mgr->module.modem->ctx);
 126:SynaptiX_FDK/services/sleepmanager/sx_sleep_manager.c ****             /* hard_reset() re-enters the same async power sequence as
 127:SynaptiX_FDK/services/sleepmanager/sx_sleep_manager.c ****              * power_on_start() (see a7677s.c's A7677S_PWR_RST_PULSE ->
 128:SynaptiX_FDK/services/sleepmanager/sx_sleep_manager.c ****              * A7677S_PWR_WAIT_BOOT handoff) — the power_is_busy() check
 129:SynaptiX_FDK/services/sleepmanager/sx_sleep_manager.c ****              * above will naturally wait for it and re-send start() once,
 130:SynaptiX_FDK/services/sleepmanager/sx_sleep_manager.c ****              * same as after the initial power_on_start(). */
 131:SynaptiX_FDK/services/sleepmanager/sx_sleep_manager.c ****         }
 132:SynaptiX_FDK/services/sleepmanager/sx_sleep_manager.c ****         break;
 133:SynaptiX_FDK/services/sleepmanager/sx_sleep_manager.c **** 
 134:SynaptiX_FDK/services/sleepmanager/sx_sleep_manager.c ****     case SX_WAKE_STEP_DONE:
 135:SynaptiX_FDK/services/sleepmanager/sx_sleep_manager.c ****         break;
 136:SynaptiX_FDK/services/sleepmanager/sx_sleep_manager.c **** 
 137:SynaptiX_FDK/services/sleepmanager/sx_sleep_manager.c ****     default:
 138:SynaptiX_FDK/services/sleepmanager/sx_sleep_manager.c ****         break;
 139:SynaptiX_FDK/services/sleepmanager/sx_sleep_manager.c ****     }
 140:SynaptiX_FDK/services/sleepmanager/sx_sleep_manager.c **** }
ARM GAS  C:\Users\DELL\AppData\Local\Temp\cc2EPZqA.s 			page 13


 450              		.loc 1 140 1 is_stmt 0 view .LVU103
 451 0018 10BD     		pop	{r4, pc}
 452              	.LVL34:
 453              	.L27:
  65:SynaptiX_FDK/services/sleepmanager/sx_sleep_manager.c ****         log_info(TAG, "Power on GPS first");
 454              		.loc 1 65 9 is_stmt 1 view .LVU104
 455 001a FFF7FEFF 		bl	board_gps_uart_resume_it
 456              	.LVL35:
  66:SynaptiX_FDK/services/sleepmanager/sx_sleep_manager.c ****         gps_power_on(mgr->module.gps);
 457              		.loc 1 66 9 view .LVU105
 458 001e 3F4A     		ldr	r2, .L36
 459 0020 3F49     		ldr	r1, .L36+4
 460 0022 0320     		movs	r0, #3
 461 0024 FFF7FEFF 		bl	log_func
 462              	.LVL36:
  67:SynaptiX_FDK/services/sleepmanager/sx_sleep_manager.c ****         //board_gps_uart_resume_it();
 463              		.loc 1 67 9 view .LVU106
 464 0028 A068     		ldr	r0, [r4, #8]
 465 002a FFF7FEFF 		bl	gps_power_on
 466              	.LVL37:
  69:SynaptiX_FDK/services/sleepmanager/sx_sleep_manager.c ****         mgr->wake_step = SX_WAKE_STEP_GPS_WAIT;
 467              		.loc 1 69 9 view .LVU107
  69:SynaptiX_FDK/services/sleepmanager/sx_sleep_manager.c ****         mgr->wake_step = SX_WAKE_STEP_GPS_WAIT;
 468              		.loc 1 69 37 is_stmt 0 view .LVU108
 469 002e 0023     		movs	r3, #0
 470 0030 6361     		str	r3, [r4, #20]
  70:SynaptiX_FDK/services/sleepmanager/sx_sleep_manager.c ****         break;
 471              		.loc 1 70 9 is_stmt 1 view .LVU109
  70:SynaptiX_FDK/services/sleepmanager/sx_sleep_manager.c ****         break;
 472              		.loc 1 70 24 is_stmt 0 view .LVU110
 473 0032 0223     		movs	r3, #2
 474 0034 2377     		strb	r3, [r4, #28]
  71:SynaptiX_FDK/services/sleepmanager/sx_sleep_manager.c **** 
 475              		.loc 1 71 9 is_stmt 1 view .LVU111
 476 0036 EFE7     		b	.L21
 477              	.LVL38:
 478              	.L26:
  74:SynaptiX_FDK/services/sleepmanager/sx_sleep_manager.c **** 
 479              		.loc 1 74 9 view .LVU112
  74:SynaptiX_FDK/services/sleepmanager/sx_sleep_manager.c **** 
 480              		.loc 1 74 21 is_stmt 0 view .LVU113
 481 0038 4369     		ldr	r3, [r0, #20]
  74:SynaptiX_FDK/services/sleepmanager/sx_sleep_manager.c **** 
 482              		.loc 1 74 37 view .LVU114
 483 003a 0B44     		add	r3, r3, r1
 484 003c 4361     		str	r3, [r0, #20]
  76:SynaptiX_FDK/services/sleepmanager/sx_sleep_manager.c ****             mgr->module.gps->longtitude != 0.0f)
 485              		.loc 1 76 9 is_stmt 1 view .LVU115
  76:SynaptiX_FDK/services/sleepmanager/sx_sleep_manager.c ****             mgr->module.gps->longtitude != 0.0f)
 486              		.loc 1 76 24 is_stmt 0 view .LVU116
 487 003e 8268     		ldr	r2, [r0, #8]
  76:SynaptiX_FDK/services/sleepmanager/sx_sleep_manager.c ****             mgr->module.gps->longtitude != 0.0f)
 488              		.loc 1 76 28 view .LVU117
 489 0040 D2ED187A 		vldr.32	s15, [r2, #96]
  76:SynaptiX_FDK/services/sleepmanager/sx_sleep_manager.c ****             mgr->module.gps->longtitude != 0.0f)
 490              		.loc 1 76 12 view .LVU118
 491 0044 F5EE407A 		vcmp.f32	s15, #0
ARM GAS  C:\Users\DELL\AppData\Local\Temp\cc2EPZqA.s 			page 14


 492 0048 F1EE10FA 		vmrs	APSR_nzcv, FPSCR
 493 004c 06D0     		beq	.L29
  77:SynaptiX_FDK/services/sleepmanager/sx_sleep_manager.c ****         {
 494              		.loc 1 77 28 view .LVU119
 495 004e D2ED197A 		vldr.32	s15, [r2, #100]
  76:SynaptiX_FDK/services/sleepmanager/sx_sleep_manager.c ****             mgr->module.gps->longtitude != 0.0f)
 496              		.loc 1 76 48 discriminator 1 view .LVU120
 497 0052 F5EE407A 		vcmp.f32	s15, #0
 498 0056 F1EE10FA 		vmrs	APSR_nzcv, FPSCR
 499 005a 0AD1     		bne	.L34
 500              	.L29:
  83:SynaptiX_FDK/services/sleepmanager/sx_sleep_manager.c ****         {
 501              		.loc 1 83 14 is_stmt 1 view .LVU121
  83:SynaptiX_FDK/services/sleepmanager/sx_sleep_manager.c ****         {
 502              		.loc 1 83 17 is_stmt 0 view .LVU122
 503 005c 314A     		ldr	r2, .L36+8
 504 005e 9342     		cmp	r3, r2
 505 0060 DAD9     		bls	.L21
  85:SynaptiX_FDK/services/sleepmanager/sx_sleep_manager.c ****             mgr->wake_step = SX_WAKE_STEP_UART_RESUME;
 506              		.loc 1 85 13 is_stmt 1 view .LVU123
 507 0062 314A     		ldr	r2, .L36+12
 508 0064 2E49     		ldr	r1, .L36+4
 509              	.LVL39:
  85:SynaptiX_FDK/services/sleepmanager/sx_sleep_manager.c ****             mgr->wake_step = SX_WAKE_STEP_UART_RESUME;
 510              		.loc 1 85 13 is_stmt 0 view .LVU124
 511 0066 0220     		movs	r0, #2
 512              	.LVL40:
  85:SynaptiX_FDK/services/sleepmanager/sx_sleep_manager.c ****             mgr->wake_step = SX_WAKE_STEP_UART_RESUME;
 513              		.loc 1 85 13 view .LVU125
 514 0068 FFF7FEFF 		bl	log_func
 515              	.LVL41:
  86:SynaptiX_FDK/services/sleepmanager/sx_sleep_manager.c ****         }
 516              		.loc 1 86 13 is_stmt 1 view .LVU126
  86:SynaptiX_FDK/services/sleepmanager/sx_sleep_manager.c ****         }
 517              		.loc 1 86 28 is_stmt 0 view .LVU127
 518 006c 0323     		movs	r3, #3
 519 006e 2377     		strb	r3, [r4, #28]
 520 0070 D2E7     		b	.L21
 521              	.LVL42:
 522              	.L34:
  79:SynaptiX_FDK/services/sleepmanager/sx_sleep_manager.c ****                      mgr->elapsed.gps_elapsed_ms);
 523              		.loc 1 79 13 is_stmt 1 view .LVU128
 524 0072 2E4A     		ldr	r2, .L36+16
 525 0074 2A49     		ldr	r1, .L36+4
 526              	.LVL43:
  79:SynaptiX_FDK/services/sleepmanager/sx_sleep_manager.c ****                      mgr->elapsed.gps_elapsed_ms);
 527              		.loc 1 79 13 is_stmt 0 view .LVU129
 528 0076 0320     		movs	r0, #3
 529              	.LVL44:
  79:SynaptiX_FDK/services/sleepmanager/sx_sleep_manager.c ****                      mgr->elapsed.gps_elapsed_ms);
 530              		.loc 1 79 13 view .LVU130
 531 0078 FFF7FEFF 		bl	log_func
 532              	.LVL45:
  81:SynaptiX_FDK/services/sleepmanager/sx_sleep_manager.c ****         }
 533              		.loc 1 81 13 is_stmt 1 view .LVU131
  81:SynaptiX_FDK/services/sleepmanager/sx_sleep_manager.c ****         }
 534              		.loc 1 81 28 is_stmt 0 view .LVU132
ARM GAS  C:\Users\DELL\AppData\Local\Temp\cc2EPZqA.s 			page 15


 535 007c 0323     		movs	r3, #3
 536 007e 2377     		strb	r3, [r4, #28]
 537 0080 CAE7     		b	.L21
 538              	.LVL46:
 539              	.L25:
  91:SynaptiX_FDK/services/sleepmanager/sx_sleep_manager.c **** 
 540              		.loc 1 91 9 is_stmt 1 view .LVU133
 541 0082 2B4A     		ldr	r2, .L36+20
 542 0084 2649     		ldr	r1, .L36+4
 543              	.LVL47:
  91:SynaptiX_FDK/services/sleepmanager/sx_sleep_manager.c **** 
 544              		.loc 1 91 9 is_stmt 0 view .LVU134
 545 0086 0320     		movs	r0, #3
 546              	.LVL48:
  91:SynaptiX_FDK/services/sleepmanager/sx_sleep_manager.c **** 
 547              		.loc 1 91 9 view .LVU135
 548 0088 FFF7FEFF 		bl	log_func
 549              	.LVL49:
  93:SynaptiX_FDK/services/sleepmanager/sx_sleep_manager.c **** 
 550              		.loc 1 93 9 is_stmt 1 view .LVU136
 551 008c FFF7FEFF 		bl	sx_board_uart_resume_it
 552              	.LVL50:
  95:SynaptiX_FDK/services/sleepmanager/sx_sleep_manager.c ****         mgr->module.modem->ops->power_on_start(mgr->module.modem->ctx);
 553              		.loc 1 95 9 view .LVU137
  95:SynaptiX_FDK/services/sleepmanager/sx_sleep_manager.c ****         mgr->module.modem->ops->power_on_start(mgr->module.modem->ctx);
 554              		.loc 1 95 20 is_stmt 0 view .LVU138
 555 0090 6368     		ldr	r3, [r4, #4]
  95:SynaptiX_FDK/services/sleepmanager/sx_sleep_manager.c ****         mgr->module.modem->ops->power_on_start(mgr->module.modem->ctx);
 556              		.loc 1 95 26 view .LVU139
 557 0092 1A68     		ldr	r2, [r3]
  95:SynaptiX_FDK/services/sleepmanager/sx_sleep_manager.c ****         mgr->module.modem->ops->power_on_start(mgr->module.modem->ctx);
 558              		.loc 1 95 31 view .LVU140
 559 0094 1269     		ldr	r2, [r2, #16]
  95:SynaptiX_FDK/services/sleepmanager/sx_sleep_manager.c ****         mgr->module.modem->ops->power_on_start(mgr->module.modem->ctx);
 560              		.loc 1 95 9 view .LVU141
 561 0096 5868     		ldr	r0, [r3, #4]
 562 0098 9047     		blx	r2
 563              	.LVL51:
  96:SynaptiX_FDK/services/sleepmanager/sx_sleep_manager.c **** 
 564              		.loc 1 96 9 is_stmt 1 view .LVU142
  96:SynaptiX_FDK/services/sleepmanager/sx_sleep_manager.c **** 
 565              		.loc 1 96 20 is_stmt 0 view .LVU143
 566 009a 6368     		ldr	r3, [r4, #4]
  96:SynaptiX_FDK/services/sleepmanager/sx_sleep_manager.c **** 
 567              		.loc 1 96 26 view .LVU144
 568 009c 1A68     		ldr	r2, [r3]
  96:SynaptiX_FDK/services/sleepmanager/sx_sleep_manager.c **** 
 569              		.loc 1 96 31 view .LVU145
 570 009e 1268     		ldr	r2, [r2]
  96:SynaptiX_FDK/services/sleepmanager/sx_sleep_manager.c **** 
 571              		.loc 1 96 9 view .LVU146
 572 00a0 5868     		ldr	r0, [r3, #4]
 573 00a2 9047     		blx	r2
 574              	.LVL52:
  98:SynaptiX_FDK/services/sleepmanager/sx_sleep_manager.c ****         mgr->sim_start_sent         = 0;
 575              		.loc 1 98 9 is_stmt 1 view .LVU147
  98:SynaptiX_FDK/services/sleepmanager/sx_sleep_manager.c ****         mgr->sim_start_sent         = 0;
ARM GAS  C:\Users\DELL\AppData\Local\Temp\cc2EPZqA.s 			page 16


 576              		.loc 1 98 37 is_stmt 0 view .LVU148
 577 00a4 0023     		movs	r3, #0
 578 00a6 A361     		str	r3, [r4, #24]
  99:SynaptiX_FDK/services/sleepmanager/sx_sleep_manager.c ****         mgr->wake_step = SX_WAKE_STEP_SIM_WAKE;
 579              		.loc 1 99 9 is_stmt 1 view .LVU149
  99:SynaptiX_FDK/services/sleepmanager/sx_sleep_manager.c ****         mgr->wake_step = SX_WAKE_STEP_SIM_WAKE;
 580              		.loc 1 99 37 is_stmt 0 view .LVU150
 581 00a8 84F82830 		strb	r3, [r4, #40]
 100:SynaptiX_FDK/services/sleepmanager/sx_sleep_manager.c ****         break;
 582              		.loc 1 100 9 is_stmt 1 view .LVU151
 100:SynaptiX_FDK/services/sleepmanager/sx_sleep_manager.c ****         break;
 583              		.loc 1 100 24 is_stmt 0 view .LVU152
 584 00ac 0423     		movs	r3, #4
 585 00ae 2377     		strb	r3, [r4, #28]
 101:SynaptiX_FDK/services/sleepmanager/sx_sleep_manager.c **** 
 586              		.loc 1 101 9 is_stmt 1 view .LVU153
 587 00b0 B2E7     		b	.L21
 588              	.LVL53:
 589              	.L23:
 104:SynaptiX_FDK/services/sleepmanager/sx_sleep_manager.c **** 
 590              		.loc 1 104 9 view .LVU154
 104:SynaptiX_FDK/services/sleepmanager/sx_sleep_manager.c **** 
 591              		.loc 1 104 21 is_stmt 0 view .LVU155
 592 00b2 8369     		ldr	r3, [r0, #24]
 104:SynaptiX_FDK/services/sleepmanager/sx_sleep_manager.c **** 
 593              		.loc 1 104 37 view .LVU156
 594 00b4 0B44     		add	r3, r3, r1
 595 00b6 8361     		str	r3, [r0, #24]
 112:SynaptiX_FDK/services/sleepmanager/sx_sleep_manager.c ****             !mgr->module.modem->ops->power_is_busy(mgr->module.modem->ctx)) {
 596              		.loc 1 112 9 is_stmt 1 view .LVU157
 112:SynaptiX_FDK/services/sleepmanager/sx_sleep_manager.c ****             !mgr->module.modem->ops->power_is_busy(mgr->module.modem->ctx)) {
 597              		.loc 1 112 17 is_stmt 0 view .LVU158
 598 00b8 90F82830 		ldrb	r3, [r0, #40]	@ zero_extendqisi2
 112:SynaptiX_FDK/services/sleepmanager/sx_sleep_manager.c ****             !mgr->module.modem->ops->power_is_busy(mgr->module.modem->ctx)) {
 599              		.loc 1 112 12 view .LVU159
 600 00bc 6BB9     		cbnz	r3, .L30
 113:SynaptiX_FDK/services/sleepmanager/sx_sleep_manager.c ****             mgr->module.modem->ops->start(mgr->module.modem->ctx);
 601              		.loc 1 113 25 view .LVU160
 602 00be 4368     		ldr	r3, [r0, #4]
 113:SynaptiX_FDK/services/sleepmanager/sx_sleep_manager.c ****             mgr->module.modem->ops->start(mgr->module.modem->ctx);
 603              		.loc 1 113 31 view .LVU161
 604 00c0 1A68     		ldr	r2, [r3]
 113:SynaptiX_FDK/services/sleepmanager/sx_sleep_manager.c ****             mgr->module.modem->ops->start(mgr->module.modem->ctx);
 605              		.loc 1 113 36 view .LVU162
 606 00c2 9268     		ldr	r2, [r2, #8]
 113:SynaptiX_FDK/services/sleepmanager/sx_sleep_manager.c ****             mgr->module.modem->ops->start(mgr->module.modem->ctx);
 607              		.loc 1 113 14 view .LVU163
 608 00c4 5868     		ldr	r0, [r3, #4]
 609              	.LVL54:
 113:SynaptiX_FDK/services/sleepmanager/sx_sleep_manager.c ****             mgr->module.modem->ops->start(mgr->module.modem->ctx);
 610              		.loc 1 113 14 view .LVU164
 611 00c6 9047     		blx	r2
 612              	.LVL55:
 112:SynaptiX_FDK/services/sleepmanager/sx_sleep_manager.c ****             !mgr->module.modem->ops->power_is_busy(mgr->module.modem->ctx)) {
 613              		.loc 1 112 34 discriminator 1 view .LVU165
 614 00c8 38B9     		cbnz	r0, .L30
 114:SynaptiX_FDK/services/sleepmanager/sx_sleep_manager.c ****             mgr->sim_start_sent = 1;
ARM GAS  C:\Users\DELL\AppData\Local\Temp\cc2EPZqA.s 			page 17


 615              		.loc 1 114 13 is_stmt 1 view .LVU166
 114:SynaptiX_FDK/services/sleepmanager/sx_sleep_manager.c ****             mgr->sim_start_sent = 1;
 616              		.loc 1 114 24 is_stmt 0 view .LVU167
 617 00ca 6368     		ldr	r3, [r4, #4]
 114:SynaptiX_FDK/services/sleepmanager/sx_sleep_manager.c ****             mgr->sim_start_sent = 1;
 618              		.loc 1 114 30 view .LVU168
 619 00cc 1A68     		ldr	r2, [r3]
 114:SynaptiX_FDK/services/sleepmanager/sx_sleep_manager.c ****             mgr->sim_start_sent = 1;
 620              		.loc 1 114 35 view .LVU169
 621 00ce 5269     		ldr	r2, [r2, #20]
 114:SynaptiX_FDK/services/sleepmanager/sx_sleep_manager.c ****             mgr->sim_start_sent = 1;
 622              		.loc 1 114 13 view .LVU170
 623 00d0 5868     		ldr	r0, [r3, #4]
 624 00d2 9047     		blx	r2
 625              	.LVL56:
 115:SynaptiX_FDK/services/sleepmanager/sx_sleep_manager.c ****         }
 626              		.loc 1 115 13 is_stmt 1 view .LVU171
 115:SynaptiX_FDK/services/sleepmanager/sx_sleep_manager.c ****         }
 627              		.loc 1 115 33 is_stmt 0 view .LVU172
 628 00d4 0123     		movs	r3, #1
 629 00d6 84F82830 		strb	r3, [r4, #40]
 630              	.L30:
 118:SynaptiX_FDK/services/sleepmanager/sx_sleep_manager.c ****             log_info(TAG, "SIM ready after wake");
 631              		.loc 1 118 9 is_stmt 1 view .LVU173
 118:SynaptiX_FDK/services/sleepmanager/sx_sleep_manager.c ****             log_info(TAG, "SIM ready after wake");
 632              		.loc 1 118 24 is_stmt 0 view .LVU174
 633 00da 6368     		ldr	r3, [r4, #4]
 118:SynaptiX_FDK/services/sleepmanager/sx_sleep_manager.c ****             log_info(TAG, "SIM ready after wake");
 634              		.loc 1 118 30 view .LVU175
 635 00dc 1A68     		ldr	r2, [r3]
 118:SynaptiX_FDK/services/sleepmanager/sx_sleep_manager.c ****             log_info(TAG, "SIM ready after wake");
 636              		.loc 1 118 35 view .LVU176
 637 00de 9269     		ldr	r2, [r2, #24]
 118:SynaptiX_FDK/services/sleepmanager/sx_sleep_manager.c ****             log_info(TAG, "SIM ready after wake");
 638              		.loc 1 118 13 view .LVU177
 639 00e0 5868     		ldr	r0, [r3, #4]
 640 00e2 9047     		blx	r2
 641              	.LVL57:
 118:SynaptiX_FDK/services/sleepmanager/sx_sleep_manager.c ****             log_info(TAG, "SIM ready after wake");
 642              		.loc 1 118 12 discriminator 1 view .LVU178
 643 00e4 90B9     		cbnz	r0, .L35
 121:SynaptiX_FDK/services/sleepmanager/sx_sleep_manager.c ****             log_warn(TAG, "SIM timeout — hard reset (RST pin)");
 644              		.loc 1 121 16 is_stmt 1 view .LVU179
 121:SynaptiX_FDK/services/sleepmanager/sx_sleep_manager.c ****             log_warn(TAG, "SIM timeout — hard reset (RST pin)");
 645              		.loc 1 121 32 is_stmt 0 view .LVU180
 646 00e6 A269     		ldr	r2, [r4, #24]
 121:SynaptiX_FDK/services/sleepmanager/sx_sleep_manager.c ****             log_warn(TAG, "SIM timeout — hard reset (RST pin)");
 647              		.loc 1 121 19 view .LVU181
 648 00e8 124B     		ldr	r3, .L36+24
 649 00ea 9A42     		cmp	r2, r3
 650 00ec 94D9     		bls	.L21
 122:SynaptiX_FDK/services/sleepmanager/sx_sleep_manager.c ****             mgr->elapsed.sim_elapsed_ms = 0;
 651              		.loc 1 122 13 is_stmt 1 view .LVU182
 652 00ee 124A     		ldr	r2, .L36+28
 653 00f0 0B49     		ldr	r1, .L36+4
 654 00f2 0220     		movs	r0, #2
 655 00f4 FFF7FEFF 		bl	log_func
ARM GAS  C:\Users\DELL\AppData\Local\Temp\cc2EPZqA.s 			page 18


 656              	.LVL58:
 123:SynaptiX_FDK/services/sleepmanager/sx_sleep_manager.c ****             mgr->sim_start_sent         = 0;
 657              		.loc 1 123 13 view .LVU183
 123:SynaptiX_FDK/services/sleepmanager/sx_sleep_manager.c ****             mgr->sim_start_sent         = 0;
 658              		.loc 1 123 41 is_stmt 0 view .LVU184
 659 00f8 0023     		movs	r3, #0
 660 00fa A361     		str	r3, [r4, #24]
 124:SynaptiX_FDK/services/sleepmanager/sx_sleep_manager.c ****             mgr->module.modem->ops->hard_reset(mgr->module.modem->ctx);
 661              		.loc 1 124 13 is_stmt 1 view .LVU185
 124:SynaptiX_FDK/services/sleepmanager/sx_sleep_manager.c ****             mgr->module.modem->ops->hard_reset(mgr->module.modem->ctx);
 662              		.loc 1 124 41 is_stmt 0 view .LVU186
 663 00fc 84F82830 		strb	r3, [r4, #40]
 125:SynaptiX_FDK/services/sleepmanager/sx_sleep_manager.c ****             /* hard_reset() re-enters the same async power sequence as
 664              		.loc 1 125 13 is_stmt 1 view .LVU187
 125:SynaptiX_FDK/services/sleepmanager/sx_sleep_manager.c ****             /* hard_reset() re-enters the same async power sequence as
 665              		.loc 1 125 24 is_stmt 0 view .LVU188
 666 0100 6368     		ldr	r3, [r4, #4]
 125:SynaptiX_FDK/services/sleepmanager/sx_sleep_manager.c ****             /* hard_reset() re-enters the same async power sequence as
 667              		.loc 1 125 30 view .LVU189
 668 0102 1A68     		ldr	r2, [r3]
 125:SynaptiX_FDK/services/sleepmanager/sx_sleep_manager.c ****             /* hard_reset() re-enters the same async power sequence as
 669              		.loc 1 125 35 view .LVU190
 670 0104 D268     		ldr	r2, [r2, #12]
 125:SynaptiX_FDK/services/sleepmanager/sx_sleep_manager.c ****             /* hard_reset() re-enters the same async power sequence as
 671              		.loc 1 125 13 view .LVU191
 672 0106 5868     		ldr	r0, [r3, #4]
 673 0108 9047     		blx	r2
 674              	.LVL59:
 675              		.loc 1 140 1 view .LVU192
 676 010a 85E7     		b	.L21
 677              	.L35:
 119:SynaptiX_FDK/services/sleepmanager/sx_sleep_manager.c ****             mgr->wake_step = SX_WAKE_STEP_DONE;
 678              		.loc 1 119 13 is_stmt 1 view .LVU193
 679 010c 0B4A     		ldr	r2, .L36+32
 680 010e 0449     		ldr	r1, .L36+4
 681 0110 0320     		movs	r0, #3
 682 0112 FFF7FEFF 		bl	log_func
 683              	.LVL60:
 120:SynaptiX_FDK/services/sleepmanager/sx_sleep_manager.c ****         } else if (mgr->elapsed.sim_elapsed_ms >= 90000U) {
 684              		.loc 1 120 13 view .LVU194
 120:SynaptiX_FDK/services/sleepmanager/sx_sleep_manager.c ****         } else if (mgr->elapsed.sim_elapsed_ms >= 90000U) {
 685              		.loc 1 120 28 is_stmt 0 view .LVU195
 686 0116 0523     		movs	r3, #5
 687 0118 2377     		strb	r3, [r4, #28]
 688 011a 7DE7     		b	.L21
 689              	.L37:
 690              		.align	2
 691              	.L36:
 692 011c 00000000 		.word	.LC6
 693 0120 28000000 		.word	.LC1
 694 0124 CFFB0100 		.word	129999
 695 0128 44000000 		.word	.LC8
 696 012c 14000000 		.word	.LC7
 697 0130 78000000 		.word	.LC9
 698 0134 8F5F0100 		.word	89999
 699 0138 AC000000 		.word	.LC11
 700 013c 94000000 		.word	.LC10
ARM GAS  C:\Users\DELL\AppData\Local\Temp\cc2EPZqA.s 			page 19


 701              		.cfi_endproc
 702              	.LFE343:
 704              		.section	.text.sx_sleep_manager_is_wake_done,"ax",%progbits
 705              		.align	1
 706              		.global	sx_sleep_manager_is_wake_done
 707              		.syntax unified
 708              		.thumb
 709              		.thumb_func
 711              	sx_sleep_manager_is_wake_done:
 712              	.LVL61:
 713              	.LFB344:
 141:SynaptiX_FDK/services/sleepmanager/sx_sleep_manager.c **** 
 142:SynaptiX_FDK/services/sleepmanager/sx_sleep_manager.c **** uint8_t sx_sleep_manager_is_wake_done(sx_sleep_manager_t *mgr)
 143:SynaptiX_FDK/services/sleepmanager/sx_sleep_manager.c **** {
 714              		.loc 1 143 1 is_stmt 1 view -0
 715              		.cfi_startproc
 716              		@ args = 0, pretend = 0, frame = 0
 717              		@ frame_needed = 0, uses_anonymous_args = 0
 718              		@ link register save eliminated.
 144:SynaptiX_FDK/services/sleepmanager/sx_sleep_manager.c ****     return (mgr->wake_step == SX_WAKE_STEP_DONE);
 719              		.loc 1 144 5 view .LVU197
 720              		.loc 1 144 16 is_stmt 0 view .LVU198
 721 0000 007F     		ldrb	r0, [r0, #28]	@ zero_extendqisi2
 722              	.LVL62:
 145:SynaptiX_FDK/services/sleepmanager/sx_sleep_manager.c **** }
 723              		.loc 1 145 1 view .LVU199
 724 0002 0528     		cmp	r0, #5
 725 0004 14BF     		ite	ne
 726 0006 0020     		movne	r0, #0
 727 0008 0120     		moveq	r0, #1
 728 000a 7047     		bx	lr
 729              		.cfi_endproc
 730              	.LFE344:
 732              		.section	.text.sx_sleep_manager_wake_tick,"ax",%progbits
 733              		.align	1
 734              		.global	sx_sleep_manager_wake_tick
 735              		.syntax unified
 736              		.thumb
 737              		.thumb_func
 739              	sx_sleep_manager_wake_tick:
 740              	.LVL63:
 741              	.LFB345:
 146:SynaptiX_FDK/services/sleepmanager/sx_sleep_manager.c **** 
 147:SynaptiX_FDK/services/sleepmanager/sx_sleep_manager.c **** uint8_t sx_sleep_manager_wake_tick(sx_sleep_manager_t *mgr, uint32_t delta_ms)
 148:SynaptiX_FDK/services/sleepmanager/sx_sleep_manager.c **** {
 742              		.loc 1 148 1 is_stmt 1 view -0
 743              		.cfi_startproc
 744              		@ args = 0, pretend = 0, frame = 0
 745              		@ frame_needed = 0, uses_anonymous_args = 0
 746              		@ link register save eliminated.
 149:SynaptiX_FDK/services/sleepmanager/sx_sleep_manager.c ****     uint32_t timeout_ms = (mgr->wake_timeout_ms > 0)
 747              		.loc 1 149 5 view .LVU201
 748              		.loc 1 149 31 is_stmt 0 view .LVU202
 749 0000 426A     		ldr	r2, [r0, #36]
 150:SynaptiX_FDK/services/sleepmanager/sx_sleep_manager.c ****                           ? mgr->wake_timeout_ms
 151:SynaptiX_FDK/services/sleepmanager/sx_sleep_manager.c ****                           : SX_TIME_IN_WAKE;
 750              		.loc 1 151 27 view .LVU203
ARM GAS  C:\Users\DELL\AppData\Local\Temp\cc2EPZqA.s 			page 20


 751 0002 02B9     		cbnz	r2, .L40
 752              		.loc 1 151 27 discriminator 2 view .LVU204
 753 0004 044A     		ldr	r2, .L43
 754              	.L40:
 755              	.LVL64:
 152:SynaptiX_FDK/services/sleepmanager/sx_sleep_manager.c **** 
 153:SynaptiX_FDK/services/sleepmanager/sx_sleep_manager.c ****     mgr->elapsed.wake_elapsed_ms += delta_ms;
 756              		.loc 1 153 5 is_stmt 1 view .LVU205
 757              		.loc 1 153 17 is_stmt 0 view .LVU206
 758 0006 0369     		ldr	r3, [r0, #16]
 759              		.loc 1 153 34 view .LVU207
 760 0008 1944     		add	r1, r1, r3
 761              	.LVL65:
 762              		.loc 1 153 34 view .LVU208
 763 000a 0161     		str	r1, [r0, #16]
 154:SynaptiX_FDK/services/sleepmanager/sx_sleep_manager.c ****     
 155:SynaptiX_FDK/services/sleepmanager/sx_sleep_manager.c ****     if (mgr->elapsed.wake_elapsed_ms >= timeout_ms) {  
 764              		.loc 1 155 5 is_stmt 1 view .LVU209
 765              		.loc 1 155 8 is_stmt 0 view .LVU210
 766 000c 9142     		cmp	r1, r2
 767 000e 01D2     		bcs	.L42
 156:SynaptiX_FDK/services/sleepmanager/sx_sleep_manager.c ****         return 1;
 157:SynaptiX_FDK/services/sleepmanager/sx_sleep_manager.c ****     }
 158:SynaptiX_FDK/services/sleepmanager/sx_sleep_manager.c ****     return 0;
 768              		.loc 1 158 12 view .LVU211
 769 0010 0020     		movs	r0, #0
 770              	.LVL66:
 771              		.loc 1 158 12 view .LVU212
 772 0012 7047     		bx	lr
 773              	.LVL67:
 774              	.L42:
 156:SynaptiX_FDK/services/sleepmanager/sx_sleep_manager.c ****         return 1;
 775              		.loc 1 156 16 view .LVU213
 776 0014 0120     		movs	r0, #1
 777              	.LVL68:
 159:SynaptiX_FDK/services/sleepmanager/sx_sleep_manager.c **** }
 778              		.loc 1 159 1 view .LVU214
 779 0016 7047     		bx	lr
 780              	.L44:
 781              		.align	2
 782              	.L43:
 783 0018 00710200 		.word	160000
 784              		.cfi_endproc
 785              	.LFE345:
 787              		.section	.text.sx_sleep_manager_reset_wake,"ax",%progbits
 788              		.align	1
 789              		.global	sx_sleep_manager_reset_wake
 790              		.syntax unified
 791              		.thumb
 792              		.thumb_func
 794              	sx_sleep_manager_reset_wake:
 795              	.LVL69:
 796              	.LFB346:
 160:SynaptiX_FDK/services/sleepmanager/sx_sleep_manager.c **** 
 161:SynaptiX_FDK/services/sleepmanager/sx_sleep_manager.c **** void sx_sleep_manager_reset_wake(sx_sleep_manager_t *mgr)
 162:SynaptiX_FDK/services/sleepmanager/sx_sleep_manager.c **** {
 797              		.loc 1 162 1 is_stmt 1 view -0
ARM GAS  C:\Users\DELL\AppData\Local\Temp\cc2EPZqA.s 			page 21


 798              		.cfi_startproc
 799              		@ args = 0, pretend = 0, frame = 0
 800              		@ frame_needed = 0, uses_anonymous_args = 0
 801              		@ link register save eliminated.
 163:SynaptiX_FDK/services/sleepmanager/sx_sleep_manager.c ****     mgr->wake_step                   = SX_WAKE_STEP_IDLE;
 802              		.loc 1 163 5 view .LVU216
 803              		.loc 1 163 38 is_stmt 0 view .LVU217
 804 0000 0023     		movs	r3, #0
 805 0002 0377     		strb	r3, [r0, #28]
 164:SynaptiX_FDK/services/sleepmanager/sx_sleep_manager.c ****     mgr->published                   = 0;
 806              		.loc 1 164 5 is_stmt 1 view .LVU218
 807              		.loc 1 164 38 is_stmt 0 view .LVU219
 808 0004 4377     		strb	r3, [r0, #29]
 165:SynaptiX_FDK/services/sleepmanager/sx_sleep_manager.c ****     mgr->elapsed.wake_elapsed_ms     = 0;
 809              		.loc 1 165 5 is_stmt 1 view .LVU220
 810              		.loc 1 165 38 is_stmt 0 view .LVU221
 811 0006 0361     		str	r3, [r0, #16]
 166:SynaptiX_FDK/services/sleepmanager/sx_sleep_manager.c ****     mgr->elapsed.gps_elapsed_ms      = 0;
 812              		.loc 1 166 5 is_stmt 1 view .LVU222
 813              		.loc 1 166 38 is_stmt 0 view .LVU223
 814 0008 4361     		str	r3, [r0, #20]
 167:SynaptiX_FDK/services/sleepmanager/sx_sleep_manager.c ****     mgr->elapsed.sim_elapsed_ms      = 0;
 815              		.loc 1 167 5 is_stmt 1 view .LVU224
 816              		.loc 1 167 38 is_stmt 0 view .LVU225
 817 000a 8361     		str	r3, [r0, #24]
 168:SynaptiX_FDK/services/sleepmanager/sx_sleep_manager.c ****     mgr->sim_start_sent              = 0;
 818              		.loc 1 168 5 is_stmt 1 view .LVU226
 819              		.loc 1 168 38 is_stmt 0 view .LVU227
 820 000c 80F82830 		strb	r3, [r0, #40]
 169:SynaptiX_FDK/services/sleepmanager/sx_sleep_manager.c **** }...
 821              		.loc 1 169 1 view .LVU228
 822 0010 7047     		bx	lr
 823              		.cfi_endproc
 824              	.LFE346:
 826              		.text
 827              	.Letext0:
 828              		.file 3 "D:\\stm32cubeclt\\STM32CubeCLT_1.21.0\\GNU-tools-for-STM32\\bin\\../lib/gcc/arm-none-eabi
 829              		.file 4 "D:\\stm32cubeclt\\STM32CubeCLT_1.21.0\\GNU-tools-for-STM32\\bin\\../lib/gcc/arm-none-eabi
 830              		.file 5 "D:\\stm32cubeclt\\STM32CubeCLT_1.21.0\\GNU-tools-for-STM32\\bin\\../lib/gcc/arm-none-eabi
 831              		.file 6 "Drivers/STM32H5xx_HAL_Driver/Inc/stm32h5xx_ll_lptim.h"
 832              		.file 7 "SynaptiX_FDK/components/modules/modem_ops/modem_ops.h"
 833              		.file 8 "SynaptiX_FDK/utils/cqueue/cqueue.h"
 834              		.file 9 "SynaptiX_FDK/components/peripherals/uart/sx_uart.h"
 835              		.file 10 "SynaptiX_FDK/components/peripherals/gpio/sx_gpio.h"
 836              		.file 11 "D:\\stm32cubeclt\\STM32CubeCLT_1.21.0\\GNU-tools-for-STM32\\bin\\../lib/gcc/arm-none-eab
 837              		.file 12 "SynaptiX_FDK/components/modules/gps/minmea.h"
 838              		.file 13 "SynaptiX_FDK/components/modules/gps/gps.h"
 839              		.file 14 "SynaptiX_FDK/components/peripherals/spi/sx_spi.h"
 840              		.file 15 "SynaptiX_FDK/components/modules/external_flash/sx_W25Q128.h"
 841              		.file 16 "SynaptiX_FDK/services/sleepmanager/sx_sleep_manager.h"
 842              		.file 17 "SynaptiX_FDK/services/logger/logger.h"
 843              		.file 18 "SynaptiX_FDK/board/sx_board.h"
 844              		.file 19 "SynaptiX_FDK/utils/delay/sx_delay.h"
ARM GAS  C:\Users\DELL\AppData\Local\Temp\cc2EPZqA.s 			page 22

