ARM GAS  C:\Users\DELL\AppData\Local\Temp\cclsnC7x.s 			page 1


   1              		.cpu cortex-m33
   2              		.arch armv8-m.main
   3              		.fpu fpv5-sp-d16
   4              		.arch_extension dsp
   5              		.eabi_attribute 27, 1
   6              		.eabi_attribute 28, 1
   7              		.eabi_attribute 20, 1
   8              		.eabi_attribute 21, 1
   9              		.eabi_attribute 23, 3
  10              		.eabi_attribute 24, 1
  11              		.eabi_attribute 25, 1
  12              		.eabi_attribute 26, 1
  13              		.eabi_attribute 30, 1
  14              		.eabi_attribute 34, 1
  15              		.eabi_attribute 18, 4
  16              		.file	"sx_user_mqtt.c"
  17              		.text
  18              	.Ltext0:
  19              		.cfi_sections	.debug_frame
  20              		.file 1 "SynaptiX_FDK/app/user/sx_mqtt/sx_user_mqtt.c"
  21              		.section	.rodata._on_message.str1.4,"aMS",%progbits,1
  22              		.align	2
  23              	.LC0:
  24 0000 4D534720 		.ascii	"MSG [%s] = %s\000"
  24      5B25735D 
  24      203D2025 
  24      7300
  25 000e 0000     		.align	2
  26              	.LC1:
  27 0010 55534552 		.ascii	"USER_MQTT\000"
  27      5F4D5154 
  27      5400
  28              		.section	.text._on_message,"ax",%progbits
  29              		.align	1
  30              		.syntax unified
  31              		.thumb
  32              		.thumb_func
  34              	_on_message:
  35              	.LVL0:
  36              	.LFB345:
   1:SynaptiX_FDK/app/user/sx_mqtt/sx_user_mqtt.c **** #include "sx_board.h"
   2:SynaptiX_FDK/app/user/sx_mqtt/sx_user_mqtt.c **** #include "sx_user_mqtt.h"
   3:SynaptiX_FDK/app/user/sx_mqtt/sx_user_mqtt.c **** #include "sx_gpio.h"
   4:SynaptiX_FDK/app/user/sx_mqtt/sx_user_mqtt.c **** #include "sx_uart.h"
   5:SynaptiX_FDK/app/user/sx_mqtt/sx_user_mqtt.c **** #include "sx_mqtt.h"
   6:SynaptiX_FDK/app/user/sx_mqtt/sx_user_mqtt.c **** #include "usart.h"
   7:SynaptiX_FDK/app/user/sx_mqtt/sx_user_mqtt.c **** #include "logger.h"
   8:SynaptiX_FDK/app/user/sx_mqtt/sx_user_mqtt.c **** #include "string.h"
   9:SynaptiX_FDK/app/user/sx_mqtt/sx_user_mqtt.c **** #include "cqueue.h"
  10:SynaptiX_FDK/app/user/sx_mqtt/sx_user_mqtt.c **** 
  11:SynaptiX_FDK/app/user/sx_mqtt/sx_user_mqtt.c **** /* NOTE: this file only ever touches the modem through board.modem
  12:SynaptiX_FDK/app/user/sx_mqtt/sx_user_mqtt.c ****  * (a modem_handle_t — see modem_ops.h), never a concrete driver type. This
  13:SynaptiX_FDK/app/user/sx_mqtt/sx_user_mqtt.c ****  * is what makes swapping to a different modem module later a one-file
  14:SynaptiX_FDK/app/user/sx_mqtt/sx_user_mqtt.c ****  * change (rewrite the driver + its modem_ops_t, nothing here). board.modem
  15:SynaptiX_FDK/app/user/sx_mqtt/sx_user_mqtt.c ****  * is expected to be added by the sx_board.c/.h refactor (next piece after
  16:SynaptiX_FDK/app/user/sx_mqtt/sx_user_mqtt.c ****  * this file) as modem_handle_t modem = { .ops = &a7677s_ops,
  17:SynaptiX_FDK/app/user/sx_mqtt/sx_user_mqtt.c ****  * .ctx = &board.a7677s }; this file does not know or care which concrete
ARM GAS  C:\Users\DELL\AppData\Local\Temp\cclsnC7x.s 			page 2


  18:SynaptiX_FDK/app/user/sx_mqtt/sx_user_mqtt.c ****  * driver backs it. */
  19:SynaptiX_FDK/app/user/sx_mqtt/sx_user_mqtt.c **** 
  20:SynaptiX_FDK/app/user/sx_mqtt/sx_user_mqtt.c **** static const char *TAG = "USER_MQTT";
  21:SynaptiX_FDK/app/user/sx_mqtt/sx_user_mqtt.c **** 
  22:SynaptiX_FDK/app/user/sx_mqtt/sx_user_mqtt.c **** #define MQTT_QUEUE_SIZE 16
  23:SynaptiX_FDK/app/user/sx_mqtt/sx_user_mqtt.c **** #define MQTT_PUBLISH_MAX_RETRY 3
  24:SynaptiX_FDK/app/user/sx_mqtt/sx_user_mqtt.c **** 
  25:SynaptiX_FDK/app/user/sx_mqtt/sx_user_mqtt.c **** volatile sx_mqtt_t s_mqtt;
  26:SynaptiX_FDK/app/user/sx_mqtt/sx_user_mqtt.c **** 
  27:SynaptiX_FDK/app/user/sx_mqtt/sx_user_mqtt.c **** typedef struct {
  28:SynaptiX_FDK/app/user/sx_mqtt/sx_user_mqtt.c ****     char topic[128];
  29:SynaptiX_FDK/app/user/sx_mqtt/sx_user_mqtt.c ****     char message[256];
  30:SynaptiX_FDK/app/user/sx_mqtt/sx_user_mqtt.c **** } mqtt_queue_item_t;
  31:SynaptiX_FDK/app/user/sx_mqtt/sx_user_mqtt.c **** 
  32:SynaptiX_FDK/app/user/sx_mqtt/sx_user_mqtt.c **** static mqtt_queue_item_t s_queue_buf[MQTT_QUEUE_SIZE];
  33:SynaptiX_FDK/app/user/sx_mqtt/sx_user_mqtt.c **** static CQueue_t s_queue;
  34:SynaptiX_FDK/app/user/sx_mqtt/sx_user_mqtt.c **** 
  35:SynaptiX_FDK/app/user/sx_mqtt/sx_user_mqtt.c **** static mqtt_queue_item_t s_current_item;
  36:SynaptiX_FDK/app/user/sx_mqtt/sx_user_mqtt.c **** static uint8_t s_publish_retry = 0;
  37:SynaptiX_FDK/app/user/sx_mqtt/sx_user_mqtt.c **** 
  38:SynaptiX_FDK/app/user/sx_mqtt/sx_user_mqtt.c **** static sx_user_mqtt_on_connected_cb_t    s_on_connected    = NULL;
  39:SynaptiX_FDK/app/user/sx_mqtt/sx_user_mqtt.c **** static sx_user_mqtt_on_disconnected_cb_t s_on_disconnected = NULL;
  40:SynaptiX_FDK/app/user/sx_mqtt/sx_user_mqtt.c **** static sx_user_mqtt_on_message_cb_t      s_on_message      = NULL;
  41:SynaptiX_FDK/app/user/sx_mqtt/sx_user_mqtt.c **** static sx_user_mqtt_on_publish_cb_t      s_on_publish      = NULL;
  42:SynaptiX_FDK/app/user/sx_mqtt/sx_user_mqtt.c **** static char s_client_id_buf[32];
  43:SynaptiX_FDK/app/user/sx_mqtt/sx_user_mqtt.c **** 
  44:SynaptiX_FDK/app/user/sx_mqtt/sx_user_mqtt.c **** // Poll timing
  45:SynaptiX_FDK/app/user/sx_mqtt/sx_user_mqtt.c **** static uint32_t s_last_tick = 0;
  46:SynaptiX_FDK/app/user/sx_mqtt/sx_user_mqtt.c **** static uint8_t s_initialized = 0;
  47:SynaptiX_FDK/app/user/sx_mqtt/sx_user_mqtt.c **** static uint8_t s_publishing = 0;
  48:SynaptiX_FDK/app/user/sx_mqtt/sx_user_mqtt.c **** 
  49:SynaptiX_FDK/app/user/sx_mqtt/sx_user_mqtt.c **** static void dispatch_next(void){
  50:SynaptiX_FDK/app/user/sx_mqtt/sx_user_mqtt.c ****     if (!cqueue_is_empty(&s_queue) && sx_mqtt_is_connected(&s_mqtt)) {
  51:SynaptiX_FDK/app/user/sx_mqtt/sx_user_mqtt.c ****         if (cqueue_receive(&s_queue, &s_current_item)) {
  52:SynaptiX_FDK/app/user/sx_mqtt/sx_user_mqtt.c ****             s_publishing = 1;
  53:SynaptiX_FDK/app/user/sx_mqtt/sx_user_mqtt.c ****             sx_mqtt_publish(&s_mqtt, s_current_item.topic, s_current_item.message, 1, 0);
  54:SynaptiX_FDK/app/user/sx_mqtt/sx_user_mqtt.c ****         }
  55:SynaptiX_FDK/app/user/sx_mqtt/sx_user_mqtt.c ****     }
  56:SynaptiX_FDK/app/user/sx_mqtt/sx_user_mqtt.c **** }
  57:SynaptiX_FDK/app/user/sx_mqtt/sx_user_mqtt.c **** 
  58:SynaptiX_FDK/app/user/sx_mqtt/sx_user_mqtt.c **** static void _on_connected(sx_mqtt_t *mqtt){
  59:SynaptiX_FDK/app/user/sx_mqtt/sx_user_mqtt.c ****     (void)mqtt;
  60:SynaptiX_FDK/app/user/sx_mqtt/sx_user_mqtt.c ****     log_info(TAG, "MQTT connected");
  61:SynaptiX_FDK/app/user/sx_mqtt/sx_user_mqtt.c ****     if (s_on_connected) s_on_connected();
  62:SynaptiX_FDK/app/user/sx_mqtt/sx_user_mqtt.c **** }
  63:SynaptiX_FDK/app/user/sx_mqtt/sx_user_mqtt.c **** 
  64:SynaptiX_FDK/app/user/sx_mqtt/sx_user_mqtt.c **** static void _on_disconnected(sx_mqtt_t *mqtt){
  65:SynaptiX_FDK/app/user/sx_mqtt/sx_user_mqtt.c ****     (void)mqtt;
  66:SynaptiX_FDK/app/user/sx_mqtt/sx_user_mqtt.c ****     log_warn(TAG, "MQTT disconnected");
  67:SynaptiX_FDK/app/user/sx_mqtt/sx_user_mqtt.c ****     if (s_on_disconnected) s_on_disconnected();
  68:SynaptiX_FDK/app/user/sx_mqtt/sx_user_mqtt.c **** }
  69:SynaptiX_FDK/app/user/sx_mqtt/sx_user_mqtt.c **** 
  70:SynaptiX_FDK/app/user/sx_mqtt/sx_user_mqtt.c **** static void _on_message(sx_mqtt_t *mqtt, const char *topic, const char *message){
  37              		.loc 1 70 81 view -0
  38              		.cfi_startproc
  39              		@ args = 0, pretend = 0, frame = 0
  40              		@ frame_needed = 0, uses_anonymous_args = 0
ARM GAS  C:\Users\DELL\AppData\Local\Temp\cclsnC7x.s 			page 3


  41              		.loc 1 70 81 is_stmt 0 view .LVU1
  42 0000 30B5     		push	{r4, r5, lr}
  43              	.LCFI0:
  44              		.cfi_def_cfa_offset 12
  45              		.cfi_offset 4, -12
  46              		.cfi_offset 5, -8
  47              		.cfi_offset 14, -4
  48 0002 83B0     		sub	sp, sp, #12
  49              	.LCFI1:
  50              		.cfi_def_cfa_offset 24
  51 0004 0C46     		mov	r4, r1
  52 0006 1546     		mov	r5, r2
  71:SynaptiX_FDK/app/user/sx_mqtt/sx_user_mqtt.c ****     (void)mqtt;
  53              		.loc 1 71 5 is_stmt 1 view .LVU2
  72:SynaptiX_FDK/app/user/sx_mqtt/sx_user_mqtt.c ****     log_info(TAG, "MSG [%s] = %s", topic, message);
  54              		.loc 1 72 5 view .LVU3
  55 0008 0092     		str	r2, [sp]
  56 000a 0B46     		mov	r3, r1
  57 000c 064A     		ldr	r2, .L4
  58              	.LVL1:
  59              		.loc 1 72 5 is_stmt 0 view .LVU4
  60 000e 0749     		ldr	r1, .L4+4
  61              	.LVL2:
  62              		.loc 1 72 5 view .LVU5
  63 0010 0320     		movs	r0, #3
  64              	.LVL3:
  65              		.loc 1 72 5 view .LVU6
  66 0012 FFF7FEFF 		bl	log_func
  67              	.LVL4:
  73:SynaptiX_FDK/app/user/sx_mqtt/sx_user_mqtt.c ****     if (s_on_message) s_on_message(topic, message);
  68              		.loc 1 73 5 is_stmt 1 view .LVU7
  69              		.loc 1 73 9 is_stmt 0 view .LVU8
  70 0016 064B     		ldr	r3, .L4+8
  71 0018 1B68     		ldr	r3, [r3]
  72              		.loc 1 73 8 view .LVU9
  73 001a 13B1     		cbz	r3, .L1
  74              		.loc 1 73 23 is_stmt 1 discriminator 1 view .LVU10
  75 001c 2946     		mov	r1, r5
  76 001e 2046     		mov	r0, r4
  77 0020 9847     		blx	r3
  78              	.LVL5:
  79              	.L1:
  74:SynaptiX_FDK/app/user/sx_mqtt/sx_user_mqtt.c **** }
  80              		.loc 1 74 1 is_stmt 0 view .LVU11
  81 0022 03B0     		add	sp, sp, #12
  82              	.LCFI2:
  83              		.cfi_def_cfa_offset 12
  84              		@ sp needed
  85 0024 30BD     		pop	{r4, r5, pc}
  86              	.LVL6:
  87              	.L5:
  88              		.loc 1 74 1 view .LVU12
  89 0026 00BF     		.align	2
  90              	.L4:
  91 0028 00000000 		.word	.LC0
  92 002c 10000000 		.word	.LC1
  93 0030 00000000 		.word	s_on_message
ARM GAS  C:\Users\DELL\AppData\Local\Temp\cclsnC7x.s 			page 4


  94              		.cfi_endproc
  95              	.LFE345:
  97              		.section	.rodata._on_disconnected.str1.4,"aMS",%progbits,1
  98              		.align	2
  99              	.LC2:
 100 0000 4D515454 		.ascii	"MQTT disconnected\000"
 100      20646973 
 100      636F6E6E 
 100      65637465 
 100      6400
 101              		.section	.text._on_disconnected,"ax",%progbits
 102              		.align	1
 103              		.syntax unified
 104              		.thumb
 105              		.thumb_func
 107              	_on_disconnected:
 108              	.LVL7:
 109              	.LFB344:
  64:SynaptiX_FDK/app/user/sx_mqtt/sx_user_mqtt.c ****     (void)mqtt;
 110              		.loc 1 64 46 is_stmt 1 view -0
 111              		.cfi_startproc
 112              		@ args = 0, pretend = 0, frame = 0
 113              		@ frame_needed = 0, uses_anonymous_args = 0
  64:SynaptiX_FDK/app/user/sx_mqtt/sx_user_mqtt.c ****     (void)mqtt;
 114              		.loc 1 64 46 is_stmt 0 view .LVU14
 115 0000 08B5     		push	{r3, lr}
 116              	.LCFI3:
 117              		.cfi_def_cfa_offset 8
 118              		.cfi_offset 3, -8
 119              		.cfi_offset 14, -4
  65:SynaptiX_FDK/app/user/sx_mqtt/sx_user_mqtt.c ****     log_warn(TAG, "MQTT disconnected");
 120              		.loc 1 65 5 is_stmt 1 view .LVU15
  66:SynaptiX_FDK/app/user/sx_mqtt/sx_user_mqtt.c ****     if (s_on_disconnected) s_on_disconnected();
 121              		.loc 1 66 5 view .LVU16
 122 0002 054A     		ldr	r2, .L9
 123 0004 0549     		ldr	r1, .L9+4
 124 0006 0220     		movs	r0, #2
 125              	.LVL8:
  66:SynaptiX_FDK/app/user/sx_mqtt/sx_user_mqtt.c ****     if (s_on_disconnected) s_on_disconnected();
 126              		.loc 1 66 5 is_stmt 0 view .LVU17
 127 0008 FFF7FEFF 		bl	log_func
 128              	.LVL9:
  67:SynaptiX_FDK/app/user/sx_mqtt/sx_user_mqtt.c **** }
 129              		.loc 1 67 5 is_stmt 1 view .LVU18
  67:SynaptiX_FDK/app/user/sx_mqtt/sx_user_mqtt.c **** }
 130              		.loc 1 67 9 is_stmt 0 view .LVU19
 131 000c 044B     		ldr	r3, .L9+8
 132 000e 1B68     		ldr	r3, [r3]
  67:SynaptiX_FDK/app/user/sx_mqtt/sx_user_mqtt.c **** }
 133              		.loc 1 67 8 view .LVU20
 134 0010 03B1     		cbz	r3, .L6
  67:SynaptiX_FDK/app/user/sx_mqtt/sx_user_mqtt.c **** }
 135              		.loc 1 67 28 is_stmt 1 discriminator 1 view .LVU21
 136 0012 9847     		blx	r3
 137              	.LVL10:
 138              	.L6:
  68:SynaptiX_FDK/app/user/sx_mqtt/sx_user_mqtt.c **** 
ARM GAS  C:\Users\DELL\AppData\Local\Temp\cclsnC7x.s 			page 5


 139              		.loc 1 68 1 is_stmt 0 view .LVU22
 140 0014 08BD     		pop	{r3, pc}
 141              	.L10:
 142 0016 00BF     		.align	2
 143              	.L9:
 144 0018 00000000 		.word	.LC2
 145 001c 10000000 		.word	.LC1
 146 0020 00000000 		.word	s_on_disconnected
 147              		.cfi_endproc
 148              	.LFE344:
 150              		.section	.rodata._on_connected.str1.4,"aMS",%progbits,1
 151              		.align	2
 152              	.LC3:
 153 0000 4D515454 		.ascii	"MQTT connected\000"
 153      20636F6E 
 153      6E656374 
 153      656400
 154              		.section	.text._on_connected,"ax",%progbits
 155              		.align	1
 156              		.syntax unified
 157              		.thumb
 158              		.thumb_func
 160              	_on_connected:
 161              	.LVL11:
 162              	.LFB343:
  58:SynaptiX_FDK/app/user/sx_mqtt/sx_user_mqtt.c ****     (void)mqtt;
 163              		.loc 1 58 43 is_stmt 1 view -0
 164              		.cfi_startproc
 165              		@ args = 0, pretend = 0, frame = 0
 166              		@ frame_needed = 0, uses_anonymous_args = 0
  58:SynaptiX_FDK/app/user/sx_mqtt/sx_user_mqtt.c ****     (void)mqtt;
 167              		.loc 1 58 43 is_stmt 0 view .LVU24
 168 0000 08B5     		push	{r3, lr}
 169              	.LCFI4:
 170              		.cfi_def_cfa_offset 8
 171              		.cfi_offset 3, -8
 172              		.cfi_offset 14, -4
  59:SynaptiX_FDK/app/user/sx_mqtt/sx_user_mqtt.c ****     log_info(TAG, "MQTT connected");
 173              		.loc 1 59 5 is_stmt 1 view .LVU25
  60:SynaptiX_FDK/app/user/sx_mqtt/sx_user_mqtt.c ****     if (s_on_connected) s_on_connected();
 174              		.loc 1 60 5 view .LVU26
 175 0002 054A     		ldr	r2, .L14
 176 0004 0549     		ldr	r1, .L14+4
 177 0006 0320     		movs	r0, #3
 178              	.LVL12:
  60:SynaptiX_FDK/app/user/sx_mqtt/sx_user_mqtt.c ****     if (s_on_connected) s_on_connected();
 179              		.loc 1 60 5 is_stmt 0 view .LVU27
 180 0008 FFF7FEFF 		bl	log_func
 181              	.LVL13:
  61:SynaptiX_FDK/app/user/sx_mqtt/sx_user_mqtt.c **** }
 182              		.loc 1 61 5 is_stmt 1 view .LVU28
  61:SynaptiX_FDK/app/user/sx_mqtt/sx_user_mqtt.c **** }
 183              		.loc 1 61 9 is_stmt 0 view .LVU29
 184 000c 044B     		ldr	r3, .L14+8
 185 000e 1B68     		ldr	r3, [r3]
  61:SynaptiX_FDK/app/user/sx_mqtt/sx_user_mqtt.c **** }
 186              		.loc 1 61 8 view .LVU30
ARM GAS  C:\Users\DELL\AppData\Local\Temp\cclsnC7x.s 			page 6


 187 0010 03B1     		cbz	r3, .L11
  61:SynaptiX_FDK/app/user/sx_mqtt/sx_user_mqtt.c **** }
 188              		.loc 1 61 25 is_stmt 1 discriminator 1 view .LVU31
 189 0012 9847     		blx	r3
 190              	.LVL14:
 191              	.L11:
  62:SynaptiX_FDK/app/user/sx_mqtt/sx_user_mqtt.c **** 
 192              		.loc 1 62 1 is_stmt 0 view .LVU32
 193 0014 08BD     		pop	{r3, pc}
 194              	.L15:
 195 0016 00BF     		.align	2
 196              	.L14:
 197 0018 00000000 		.word	.LC3
 198 001c 10000000 		.word	.LC1
 199 0020 00000000 		.word	s_on_connected
 200              		.cfi_endproc
 201              	.LFE343:
 203              		.section	.rodata._validate_cfg.str1.4,"aMS",%progbits,1
 204              		.align	2
 205              	.LC4:
 206 0000 4D697373 		.ascii	"Missing broker\000"
 206      696E6720 
 206      62726F6B 
 206      657200
 207 000f 00       		.align	2
 208              	.LC5:
 209 0010 4D697373 		.ascii	"Missing port\000"
 209      696E6720 
 209      706F7274 
 209      00
 210 001d 000000   		.align	2
 211              	.LC6:
 212 0020 4D697373 		.ascii	"Missing client_id\000"
 212      696E6720 
 212      636C6965 
 212      6E745F69 
 212      6400
 213              		.section	.text._validate_cfg,"ax",%progbits
 214              		.align	1
 215              		.syntax unified
 216              		.thumb
 217              		.thumb_func
 219              	_validate_cfg:
 220              	.LVL15:
 221              	.LFB349:
  75:SynaptiX_FDK/app/user/sx_mqtt/sx_user_mqtt.c **** 
  76:SynaptiX_FDK/app/user/sx_mqtt/sx_user_mqtt.c **** static void _on_publish(sx_mqtt_t *mqtt, int success)
  77:SynaptiX_FDK/app/user/sx_mqtt/sx_user_mqtt.c **** {
  78:SynaptiX_FDK/app/user/sx_mqtt/sx_user_mqtt.c ****     (void)mqtt;
  79:SynaptiX_FDK/app/user/sx_mqtt/sx_user_mqtt.c ****     s_publishing = 0;
  80:SynaptiX_FDK/app/user/sx_mqtt/sx_user_mqtt.c **** 
  81:SynaptiX_FDK/app/user/sx_mqtt/sx_user_mqtt.c ****     log_debug(TAG, "Publish %s", success ? "OK" : "FAIL");
  82:SynaptiX_FDK/app/user/sx_mqtt/sx_user_mqtt.c **** 
  83:SynaptiX_FDK/app/user/sx_mqtt/sx_user_mqtt.c ****     if (!success) {
  84:SynaptiX_FDK/app/user/sx_mqtt/sx_user_mqtt.c ****         /* NOTE: s_publish_retry is intentionally NOT reset here — it must
  85:SynaptiX_FDK/app/user/sx_mqtt/sx_user_mqtt.c ****          * accumulate across consecutive failures for MQTT_PUBLISH_MAX_RETRY
  86:SynaptiX_FDK/app/user/sx_mqtt/sx_user_mqtt.c ****          * to ever be reached. It is only cleared on a successful publish
ARM GAS  C:\Users\DELL\AppData\Local\Temp\cclsnC7x.s 			page 7


  87:SynaptiX_FDK/app/user/sx_mqtt/sx_user_mqtt.c ****          * (see the success branch below) or by the max-retry recovery path
  88:SynaptiX_FDK/app/user/sx_mqtt/sx_user_mqtt.c ****          * itself. Previously this was reset to 0 unconditionally at the top
  89:SynaptiX_FDK/app/user/sx_mqtt/sx_user_mqtt.c ****          * of this function before the increment below, which meant the
  90:SynaptiX_FDK/app/user/sx_mqtt/sx_user_mqtt.c ****          * counter always went 0->1 on every failure and the max-retry
  91:SynaptiX_FDK/app/user/sx_mqtt/sx_user_mqtt.c ****          * threshold was effectively unreachable through normal operation. */
  92:SynaptiX_FDK/app/user/sx_mqtt/sx_user_mqtt.c ****         s_publish_retry++;
  93:SynaptiX_FDK/app/user/sx_mqtt/sx_user_mqtt.c ****         log_warn(TAG, "Publish fail %d/%d", s_publish_retry, MQTT_PUBLISH_MAX_RETRY);
  94:SynaptiX_FDK/app/user/sx_mqtt/sx_user_mqtt.c ****         if (s_publish_retry >= MQTT_PUBLISH_MAX_RETRY) {
  95:SynaptiX_FDK/app/user/sx_mqtt/sx_user_mqtt.c ****             log_error(TAG, "Max retry — reporting to sx_mqtt.c's recovery ladder");
  96:SynaptiX_FDK/app/user/sx_mqtt/sx_user_mqtt.c ****             s_publish_retry = 0;
  97:SynaptiX_FDK/app/user/sx_mqtt/sx_user_mqtt.c ****             cqueue_init_static(&s_queue, s_queue_buf, MQTT_QUEUE_SIZE,
  98:SynaptiX_FDK/app/user/sx_mqtt/sx_user_mqtt.c ****                                sizeof(mqtt_queue_item_t));
  99:SynaptiX_FDK/app/user/sx_mqtt/sx_user_mqtt.c ****             if (s_on_publish) s_on_publish(0);
 100:SynaptiX_FDK/app/user/sx_mqtt/sx_user_mqtt.c ****             /* Let sx_mqtt.c decide the actual recovery action (it may
 101:SynaptiX_FDK/app/user/sx_mqtt/sx_user_mqtt.c ****              * already be mid-PWRKEY-cycle from an unrelated connect
 102:SynaptiX_FDK/app/user/sx_mqtt/sx_user_mqtt.c ****              * failure) — this file no longer calls board.modem.ops->start()
 103:SynaptiX_FDK/app/user/sx_mqtt/sx_user_mqtt.c ****              * directly, see sx_mqtt_report_failure()'s doc-comment. */
 104:SynaptiX_FDK/app/user/sx_mqtt/sx_user_mqtt.c ****             sx_mqtt_report_failure(&s_mqtt);
 105:SynaptiX_FDK/app/user/sx_mqtt/sx_user_mqtt.c ****             return;
 106:SynaptiX_FDK/app/user/sx_mqtt/sx_user_mqtt.c ****         }
 107:SynaptiX_FDK/app/user/sx_mqtt/sx_user_mqtt.c ****         s_publishing = 1;
 108:SynaptiX_FDK/app/user/sx_mqtt/sx_user_mqtt.c ****         sx_mqtt_publish(&s_mqtt, s_current_item.topic,
 109:SynaptiX_FDK/app/user/sx_mqtt/sx_user_mqtt.c ****                         s_current_item.message, 1, 0);
 110:SynaptiX_FDK/app/user/sx_mqtt/sx_user_mqtt.c ****         return;
 111:SynaptiX_FDK/app/user/sx_mqtt/sx_user_mqtt.c ****     }
 112:SynaptiX_FDK/app/user/sx_mqtt/sx_user_mqtt.c **** 
 113:SynaptiX_FDK/app/user/sx_mqtt/sx_user_mqtt.c ****     s_publish_retry = 0;
 114:SynaptiX_FDK/app/user/sx_mqtt/sx_user_mqtt.c ****     dispatch_next();
 115:SynaptiX_FDK/app/user/sx_mqtt/sx_user_mqtt.c ****     if (s_on_publish) s_on_publish(1);
 116:SynaptiX_FDK/app/user/sx_mqtt/sx_user_mqtt.c **** }
 117:SynaptiX_FDK/app/user/sx_mqtt/sx_user_mqtt.c **** 
 118:SynaptiX_FDK/app/user/sx_mqtt/sx_user_mqtt.c **** /*
 119:SynaptiX_FDK/app/user/sx_mqtt/sx_user_mqtt.c ****  * modem_ready_cb_t / modem_error_cb_t (modem_ops.h) — registered once via
 120:SynaptiX_FDK/app/user/sx_mqtt/sx_user_mqtt.c ****  * board.modem.ops->set_on_ready/set_on_error in _common_init(). These fire
 121:SynaptiX_FDK/app/user/sx_mqtt/sx_user_mqtt.c ****  * exactly once per is_ready() transition (see a7677s_poll()'s edge
 122:SynaptiX_FDK/app/user/sx_mqtt/sx_user_mqtt.c ****  * detection), so there is no risk of firing sx_mqtt_connect() repeatedly
 123:SynaptiX_FDK/app/user/sx_mqtt/sx_user_mqtt.c ****  * while already connecting/connected.
 124:SynaptiX_FDK/app/user/sx_mqtt/sx_user_mqtt.c ****  *
 125:SynaptiX_FDK/app/user/sx_mqtt/sx_user_mqtt.c ****  * ctx here is always &board.modem (the user_ctx passed to set_on_ready/
 126:SynaptiX_FDK/app/user/sx_mqtt/sx_user_mqtt.c ****  * set_on_error below) — not the driver's own ctx — precisely so this file
 127:SynaptiX_FDK/app/user/sx_mqtt/sx_user_mqtt.c ****  * never needs to know the concrete driver type to read it back.
 128:SynaptiX_FDK/app/user/sx_mqtt/sx_user_mqtt.c ****  */
 129:SynaptiX_FDK/app/user/sx_mqtt/sx_user_mqtt.c **** static void _on_modem_ready(void *ctx)
 130:SynaptiX_FDK/app/user/sx_mqtt/sx_user_mqtt.c **** {
 131:SynaptiX_FDK/app/user/sx_mqtt/sx_user_mqtt.c ****     modem_handle_t *modem = (modem_handle_t *)ctx;
 132:SynaptiX_FDK/app/user/sx_mqtt/sx_user_mqtt.c **** 
 133:SynaptiX_FDK/app/user/sx_mqtt/sx_user_mqtt.c ****     const char *imei = modem->ops->get_imei(modem->ctx);
 134:SynaptiX_FDK/app/user/sx_mqtt/sx_user_mqtt.c ****     size_t imei_len = strlen(imei);
 135:SynaptiX_FDK/app/user/sx_mqtt/sx_user_mqtt.c ****     const char *imei_suffix = imei_len >= 8 ? imei + imei_len - 8 : imei;
 136:SynaptiX_FDK/app/user/sx_mqtt/sx_user_mqtt.c ****     snprintf(s_client_id_buf, sizeof(s_client_id_buf), "stm32h5_%s", imei_suffix);
 137:SynaptiX_FDK/app/user/sx_mqtt/sx_user_mqtt.c **** 
 138:SynaptiX_FDK/app/user/sx_mqtt/sx_user_mqtt.c ****     s_mqtt.config.client_id = s_client_id_buf;
 139:SynaptiX_FDK/app/user/sx_mqtt/sx_user_mqtt.c **** 
 140:SynaptiX_FDK/app/user/sx_mqtt/sx_user_mqtt.c ****     log_info(TAG, "Modem ready — IP=%s RSSI=%d client_id=%s",
 141:SynaptiX_FDK/app/user/sx_mqtt/sx_user_mqtt.c ****              modem->ops->get_ip(modem->ctx), modem->ops->get_rssi(modem->ctx),
 142:SynaptiX_FDK/app/user/sx_mqtt/sx_user_mqtt.c ****              s_client_id_buf);
 143:SynaptiX_FDK/app/user/sx_mqtt/sx_user_mqtt.c ****     sx_mqtt_connect(&s_mqtt);
ARM GAS  C:\Users\DELL\AppData\Local\Temp\cclsnC7x.s 			page 8


 144:SynaptiX_FDK/app/user/sx_mqtt/sx_user_mqtt.c **** }
 145:SynaptiX_FDK/app/user/sx_mqtt/sx_user_mqtt.c **** 
 146:SynaptiX_FDK/app/user/sx_mqtt/sx_user_mqtt.c **** static void _on_modem_error(void *ctx)
 147:SynaptiX_FDK/app/user/sx_mqtt/sx_user_mqtt.c **** {
 148:SynaptiX_FDK/app/user/sx_mqtt/sx_user_mqtt.c ****     (void)ctx;
 149:SynaptiX_FDK/app/user/sx_mqtt/sx_user_mqtt.c ****     log_error(TAG, "Modem error — feeding into recovery ladder");
 150:SynaptiX_FDK/app/user/sx_mqtt/sx_user_mqtt.c ****     sx_mqtt_report_failure(&s_mqtt);
 151:SynaptiX_FDK/app/user/sx_mqtt/sx_user_mqtt.c ****     if (s_on_disconnected) s_on_disconnected();
 152:SynaptiX_FDK/app/user/sx_mqtt/sx_user_mqtt.c **** }
 153:SynaptiX_FDK/app/user/sx_mqtt/sx_user_mqtt.c **** 
 154:SynaptiX_FDK/app/user/sx_mqtt/sx_user_mqtt.c **** static int _validate_cfg(const sx_user_mqtt_cfg_t *cfg)
 155:SynaptiX_FDK/app/user/sx_mqtt/sx_user_mqtt.c **** {
 222              		.loc 1 155 1 is_stmt 1 view -0
 223              		.cfi_startproc
 224              		@ args = 0, pretend = 0, frame = 0
 225              		@ frame_needed = 0, uses_anonymous_args = 0
 226              		.loc 1 155 1 is_stmt 0 view .LVU34
 227 0000 08B5     		push	{r3, lr}
 228              	.LCFI5:
 229              		.cfi_def_cfa_offset 8
 230              		.cfi_offset 3, -8
 231              		.cfi_offset 14, -4
 156:SynaptiX_FDK/app/user/sx_mqtt/sx_user_mqtt.c ****     // if (!cfg->apn)       { log_error(TAG, "Missing APN");      return -1; }
 157:SynaptiX_FDK/app/user/sx_mqtt/sx_user_mqtt.c ****     if (!cfg->broker)    { log_error(TAG, "Missing broker");    return -1; }
 232              		.loc 1 157 5 is_stmt 1 view .LVU35
 233              		.loc 1 157 13 is_stmt 0 view .LVU36
 234 0002 C36B     		ldr	r3, [r0, #60]
 235              		.loc 1 157 8 view .LVU37
 236 0004 33B1     		cbz	r3, .L22
 158:SynaptiX_FDK/app/user/sx_mqtt/sx_user_mqtt.c ****     if (!cfg->port)      { log_error(TAG, "Missing port");      return -1; }
 237              		.loc 1 158 5 is_stmt 1 view .LVU38
 238              		.loc 1 158 13 is_stmt 0 view .LVU39
 239 0006 B0F84030 		ldrh	r3, [r0, #64]
 240              		.loc 1 158 8 view .LVU40
 241 000a 5BB1     		cbz	r3, .L23
 159:SynaptiX_FDK/app/user/sx_mqtt/sx_user_mqtt.c ****     if (!cfg->client_id) { log_error(TAG, "Missing client_id"); return -1; }
 242              		.loc 1 159 5 is_stmt 1 view .LVU41
 243              		.loc 1 159 13 is_stmt 0 view .LVU42
 244 000c 436C     		ldr	r3, [r0, #68]
 245              		.loc 1 159 8 view .LVU43
 246 000e 8BB1     		cbz	r3, .L24
 160:SynaptiX_FDK/app/user/sx_mqtt/sx_user_mqtt.c ****     return 0;
 247              		.loc 1 160 12 view .LVU44
 248 0010 0020     		movs	r0, #0
 249              	.LVL16:
 250              	.L16:
 161:SynaptiX_FDK/app/user/sx_mqtt/sx_user_mqtt.c **** }
 251              		.loc 1 161 1 view .LVU45
 252 0012 08BD     		pop	{r3, pc}
 253              	.LVL17:
 254              	.L22:
 157:SynaptiX_FDK/app/user/sx_mqtt/sx_user_mqtt.c ****     if (!cfg->port)      { log_error(TAG, "Missing port");      return -1; }
 255              		.loc 1 157 28 is_stmt 1 discriminator 1 view .LVU46
 256 0014 0B4A     		ldr	r2, .L25
 257 0016 0C49     		ldr	r1, .L25+4
 258 0018 0120     		movs	r0, #1
 259              	.LVL18:
ARM GAS  C:\Users\DELL\AppData\Local\Temp\cclsnC7x.s 			page 9


 157:SynaptiX_FDK/app/user/sx_mqtt/sx_user_mqtt.c ****     if (!cfg->port)      { log_error(TAG, "Missing port");      return -1; }
 260              		.loc 1 157 28 is_stmt 0 discriminator 1 view .LVU47
 261 001a FFF7FEFF 		bl	log_func
 262              	.LVL19:
 157:SynaptiX_FDK/app/user/sx_mqtt/sx_user_mqtt.c ****     if (!cfg->port)      { log_error(TAG, "Missing port");      return -1; }
 263              		.loc 1 157 65 is_stmt 1 discriminator 1 view .LVU48
 157:SynaptiX_FDK/app/user/sx_mqtt/sx_user_mqtt.c ****     if (!cfg->port)      { log_error(TAG, "Missing port");      return -1; }
 264              		.loc 1 157 72 is_stmt 0 discriminator 1 view .LVU49
 265 001e 4FF0FF30 		mov	r0, #-1
 157:SynaptiX_FDK/app/user/sx_mqtt/sx_user_mqtt.c ****     if (!cfg->port)      { log_error(TAG, "Missing port");      return -1; }
 266              		.loc 1 157 72 view .LVU50
 267 0022 F6E7     		b	.L16
 268              	.LVL20:
 269              	.L23:
 158:SynaptiX_FDK/app/user/sx_mqtt/sx_user_mqtt.c ****     if (!cfg->client_id) { log_error(TAG, "Missing client_id"); return -1; }
 270              		.loc 1 158 28 is_stmt 1 discriminator 1 view .LVU51
 271 0024 094A     		ldr	r2, .L25+8
 272 0026 0849     		ldr	r1, .L25+4
 273 0028 0120     		movs	r0, #1
 274              	.LVL21:
 158:SynaptiX_FDK/app/user/sx_mqtt/sx_user_mqtt.c ****     if (!cfg->client_id) { log_error(TAG, "Missing client_id"); return -1; }
 275              		.loc 1 158 28 is_stmt 0 discriminator 1 view .LVU52
 276 002a FFF7FEFF 		bl	log_func
 277              	.LVL22:
 158:SynaptiX_FDK/app/user/sx_mqtt/sx_user_mqtt.c ****     if (!cfg->client_id) { log_error(TAG, "Missing client_id"); return -1; }
 278              		.loc 1 158 65 is_stmt 1 discriminator 1 view .LVU53
 158:SynaptiX_FDK/app/user/sx_mqtt/sx_user_mqtt.c ****     if (!cfg->client_id) { log_error(TAG, "Missing client_id"); return -1; }
 279              		.loc 1 158 72 is_stmt 0 discriminator 1 view .LVU54
 280 002e 4FF0FF30 		mov	r0, #-1
 158:SynaptiX_FDK/app/user/sx_mqtt/sx_user_mqtt.c ****     if (!cfg->client_id) { log_error(TAG, "Missing client_id"); return -1; }
 281              		.loc 1 158 72 view .LVU55
 282 0032 EEE7     		b	.L16
 283              	.LVL23:
 284              	.L24:
 159:SynaptiX_FDK/app/user/sx_mqtt/sx_user_mqtt.c ****     return 0;
 285              		.loc 1 159 28 is_stmt 1 discriminator 1 view .LVU56
 286 0034 064A     		ldr	r2, .L25+12
 287 0036 0449     		ldr	r1, .L25+4
 288 0038 0120     		movs	r0, #1
 289              	.LVL24:
 159:SynaptiX_FDK/app/user/sx_mqtt/sx_user_mqtt.c ****     return 0;
 290              		.loc 1 159 28 is_stmt 0 discriminator 1 view .LVU57
 291 003a FFF7FEFF 		bl	log_func
 292              	.LVL25:
 159:SynaptiX_FDK/app/user/sx_mqtt/sx_user_mqtt.c ****     return 0;
 293              		.loc 1 159 65 is_stmt 1 discriminator 1 view .LVU58
 159:SynaptiX_FDK/app/user/sx_mqtt/sx_user_mqtt.c ****     return 0;
 294              		.loc 1 159 72 is_stmt 0 discriminator 1 view .LVU59
 295 003e 4FF0FF30 		mov	r0, #-1
 159:SynaptiX_FDK/app/user/sx_mqtt/sx_user_mqtt.c ****     return 0;
 296              		.loc 1 159 72 view .LVU60
 297 0042 E6E7     		b	.L16
 298              	.L26:
 299              		.align	2
 300              	.L25:
 301 0044 00000000 		.word	.LC4
 302 0048 10000000 		.word	.LC1
ARM GAS  C:\Users\DELL\AppData\Local\Temp\cclsnC7x.s 			page 10


 303 004c 10000000 		.word	.LC5
 304 0050 20000000 		.word	.LC6
 305              		.cfi_endproc
 306              	.LFE349:
 308              		.section	.rodata._common_init.str1.4,"aMS",%progbits,1
 309              		.align	2
 310              	.LC7:
 311 0000 496E6974 		.ascii	"Init done \342\200\224 broker=%s:%u ssl=%d\000"
 311      20646F6E 
 311      6520E280 
 311      94206272 
 311      6F6B6572 
 312              		.section	.text._common_init,"ax",%progbits
 313              		.align	1
 314              		.syntax unified
 315              		.thumb
 316              		.thumb_func
 318              	_common_init:
 319              	.LVL26:
 320              	.LFB350:
 162:SynaptiX_FDK/app/user/sx_mqtt/sx_user_mqtt.c **** 
 163:SynaptiX_FDK/app/user/sx_mqtt/sx_user_mqtt.c **** static int _common_init(const sx_user_mqtt_cfg_t *cfg, sx_mqtt_config_t *mqtt_cfg){
 321              		.loc 1 163 83 is_stmt 1 view -0
 322              		.cfi_startproc
 323              		@ args = 0, pretend = 0, frame = 0
 324              		@ frame_needed = 0, uses_anonymous_args = 0
 325              		.loc 1 163 83 is_stmt 0 view .LVU62
 326 0000 2DE9F043 		push	{r4, r5, r6, r7, r8, r9, lr}
 327              	.LCFI6:
 328              		.cfi_def_cfa_offset 28
 329              		.cfi_offset 4, -28
 330              		.cfi_offset 5, -24
 331              		.cfi_offset 6, -20
 332              		.cfi_offset 7, -16
 333              		.cfi_offset 8, -12
 334              		.cfi_offset 9, -8
 335              		.cfi_offset 14, -4
 336 0004 83B0     		sub	sp, sp, #12
 337              	.LCFI7:
 338              		.cfi_def_cfa_offset 40
 339 0006 0446     		mov	r4, r0
 340 0008 0D46     		mov	r5, r1
 164:SynaptiX_FDK/app/user/sx_mqtt/sx_user_mqtt.c ****     if (_validate_cfg(cfg) != 0) return -1;
 341              		.loc 1 164 5 is_stmt 1 view .LVU63
 342              		.loc 1 164 9 is_stmt 0 view .LVU64
 343 000a FFF7FEFF 		bl	_validate_cfg
 344              	.LVL27:
 345              		.loc 1 164 8 discriminator 1 view .LVU65
 346 000e 0028     		cmp	r0, #0
 347 0010 6CD1     		bne	.L30
 348 0012 8146     		mov	r9, r0
 165:SynaptiX_FDK/app/user/sx_mqtt/sx_user_mqtt.c ****     /* save user callbacks */
 166:SynaptiX_FDK/app/user/sx_mqtt/sx_user_mqtt.c ****     cqueue_init_static(&s_queue, s_queue_buf, MQTT_QUEUE_SIZE, sizeof(mqtt_queue_item_t));
 349              		.loc 1 166 5 is_stmt 1 view .LVU66
 350 0014 4FF4C073 		mov	r3, #384
 351 0018 1022     		movs	r2, #16
 352 001a 3649     		ldr	r1, .L32
ARM GAS  C:\Users\DELL\AppData\Local\Temp\cclsnC7x.s 			page 11


 353 001c 3648     		ldr	r0, .L32+4
 354 001e FFF7FEFF 		bl	cqueue_init_static
 355              	.LVL28:
 167:SynaptiX_FDK/app/user/sx_mqtt/sx_user_mqtt.c ****     s_on_connected    = cfg->on_connected;
 356              		.loc 1 167 5 view .LVU67
 357              		.loc 1 167 28 is_stmt 0 view .LVU68
 358 0022 A26D     		ldr	r2, [r4, #88]
 359              		.loc 1 167 23 view .LVU69
 360 0024 354B     		ldr	r3, .L32+8
 361 0026 1A60     		str	r2, [r3]
 168:SynaptiX_FDK/app/user/sx_mqtt/sx_user_mqtt.c ****     s_on_disconnected = cfg->on_disconnected;
 362              		.loc 1 168 5 is_stmt 1 view .LVU70
 363              		.loc 1 168 28 is_stmt 0 view .LVU71
 364 0028 E26D     		ldr	r2, [r4, #92]
 365              		.loc 1 168 23 view .LVU72
 366 002a 354B     		ldr	r3, .L32+12
 367 002c 1A60     		str	r2, [r3]
 169:SynaptiX_FDK/app/user/sx_mqtt/sx_user_mqtt.c ****     s_on_message      = cfg->on_message;
 368              		.loc 1 169 5 is_stmt 1 view .LVU73
 369              		.loc 1 169 28 is_stmt 0 view .LVU74
 370 002e 226E     		ldr	r2, [r4, #96]
 371              		.loc 1 169 23 view .LVU75
 372 0030 344B     		ldr	r3, .L32+16
 373 0032 1A60     		str	r2, [r3]
 170:SynaptiX_FDK/app/user/sx_mqtt/sx_user_mqtt.c ****     s_on_publish      = cfg->on_publish;
 374              		.loc 1 170 5 is_stmt 1 view .LVU76
 375              		.loc 1 170 28 is_stmt 0 view .LVU77
 376 0034 626E     		ldr	r2, [r4, #100]
 377              		.loc 1 170 23 view .LVU78
 378 0036 344B     		ldr	r3, .L32+20
 379 0038 1A60     		str	r2, [r3]
 171:SynaptiX_FDK/app/user/sx_mqtt/sx_user_mqtt.c **** 
 172:SynaptiX_FDK/app/user/sx_mqtt/sx_user_mqtt.c ****     /* APN is static per-device config, set once before start() — mirrors
 173:SynaptiX_FDK/app/user/sx_mqtt/sx_user_mqtt.c ****      * the previous sim76xx_set_full_apn() call. This file deliberately does
 174:SynaptiX_FDK/app/user/sx_mqtt/sx_user_mqtt.c ****      * NOT call the equivalent a7677s_set_full_apn() itself, since that is
 175:SynaptiX_FDK/app/user/sx_mqtt/sx_user_mqtt.c ****      * not part of modem_ops_t (APN is driver-specific setup done once at
 176:SynaptiX_FDK/app/user/sx_mqtt/sx_user_mqtt.c ****      * board init, not a per-call runtime parameter) and calling it here
 177:SynaptiX_FDK/app/user/sx_mqtt/sx_user_mqtt.c ****      * would require knowing the concrete a7677s_t type. That call belongs
 178:SynaptiX_FDK/app/user/sx_mqtt/sx_user_mqtt.c ****      * in sx_board.c, alongside where board.a7677s itself is declared — see
 179:SynaptiX_FDK/app/user/sx_mqtt/sx_user_mqtt.c ****      * the handoff note left for the sx_board.c/.h refactor. */
 180:SynaptiX_FDK/app/user/sx_mqtt/sx_user_mqtt.c ****     mqtt_cfg->broker        = cfg->broker;
 380              		.loc 1 180 5 is_stmt 1 view .LVU79
 381              		.loc 1 180 34 is_stmt 0 view .LVU80
 382 003a E36B     		ldr	r3, [r4, #60]
 383              		.loc 1 180 29 view .LVU81
 384 003c 2B60     		str	r3, [r5]
 181:SynaptiX_FDK/app/user/sx_mqtt/sx_user_mqtt.c ****     mqtt_cfg->port          = cfg->port;
 385              		.loc 1 181 5 is_stmt 1 view .LVU82
 386              		.loc 1 181 34 is_stmt 0 view .LVU83
 387 003e B4F84030 		ldrh	r3, [r4, #64]
 388              		.loc 1 181 29 view .LVU84
 389 0042 AB80     		strh	r3, [r5, #4]	@ movhi
 182:SynaptiX_FDK/app/user/sx_mqtt/sx_user_mqtt.c ****     mqtt_cfg->client_id     = cfg->client_id;
 390              		.loc 1 182 5 is_stmt 1 view .LVU85
 391              		.loc 1 182 34 is_stmt 0 view .LVU86
 392 0044 636C     		ldr	r3, [r4, #68]
 393              		.loc 1 182 29 view .LVU87
ARM GAS  C:\Users\DELL\AppData\Local\Temp\cclsnC7x.s 			page 12


 394 0046 AB60     		str	r3, [r5, #8]
 183:SynaptiX_FDK/app/user/sx_mqtt/sx_user_mqtt.c ****     mqtt_cfg->username      = cfg->username;
 395              		.loc 1 183 5 is_stmt 1 view .LVU88
 396              		.loc 1 183 34 is_stmt 0 view .LVU89
 397 0048 A36C     		ldr	r3, [r4, #72]
 398              		.loc 1 183 29 view .LVU90
 399 004a EB60     		str	r3, [r5, #12]
 184:SynaptiX_FDK/app/user/sx_mqtt/sx_user_mqtt.c ****     mqtt_cfg->password      = cfg->password;
 400              		.loc 1 184 5 is_stmt 1 view .LVU91
 401              		.loc 1 184 34 is_stmt 0 view .LVU92
 402 004c E36C     		ldr	r3, [r4, #76]
 403              		.loc 1 184 29 view .LVU93
 404 004e 2B61     		str	r3, [r5, #16]
 185:SynaptiX_FDK/app/user/sx_mqtt/sx_user_mqtt.c ****     mqtt_cfg->keepalive     = cfg->keepalive ? cfg->keepalive : 60;
 405              		.loc 1 185 5 is_stmt 1 view .LVU94
 406              		.loc 1 185 34 is_stmt 0 view .LVU95
 407 0050 B4F85030 		ldrh	r3, [r4, #80]
 408              		.loc 1 185 29 view .LVU96
 409 0054 03B9     		cbnz	r3, .L29
 410              		.loc 1 185 29 discriminator 2 view .LVU97
 411 0056 3C23     		movs	r3, #60
 412              	.L29:
 413              		.loc 1 185 29 discriminator 4 view .LVU98
 414 0058 AB82     		strh	r3, [r5, #20]	@ movhi
 186:SynaptiX_FDK/app/user/sx_mqtt/sx_user_mqtt.c ****     mqtt_cfg->clean_session = cfg->clean_session;
 415              		.loc 1 186 5 is_stmt 1 view .LVU99
 416              		.loc 1 186 34 is_stmt 0 view .LVU100
 417 005a 94F85230 		ldrb	r3, [r4, #82]	@ zero_extendqisi2
 418              		.loc 1 186 29 view .LVU101
 419 005e AB75     		strb	r3, [r5, #22]
 187:SynaptiX_FDK/app/user/sx_mqtt/sx_user_mqtt.c **** 
 188:SynaptiX_FDK/app/user/sx_mqtt/sx_user_mqtt.c ****     board.modem.ops->set_on_ready(board.modem.ctx, _on_modem_ready, &board.modem);
 420              		.loc 1 188 5 is_stmt 1 view .LVU102
 421              		.loc 1 188 16 is_stmt 0 view .LVU103
 422 0060 2A4F     		ldr	r7, .L32+24
 423 0062 D7F8DC3B 		ldr	r3, [r7, #3036]
 424              		.loc 1 188 20 view .LVU104
 425 0066 DB69     		ldr	r3, [r3, #28]
 426              		.loc 1 188 5 view .LVU105
 427 0068 07F6DC36 		addw	r6, r7, #3036
 428 006c 3246     		mov	r2, r6
 429 006e 2849     		ldr	r1, .L32+28
 430 0070 D7F8E00B 		ldr	r0, [r7, #3040]
 431 0074 9847     		blx	r3
 432              	.LVL29:
 189:SynaptiX_FDK/app/user/sx_mqtt/sx_user_mqtt.c ****     board.modem.ops->set_on_error(board.modem.ctx, _on_modem_error, &board.modem);
 433              		.loc 1 189 5 is_stmt 1 view .LVU106
 434              		.loc 1 189 16 is_stmt 0 view .LVU107
 435 0076 D7F8DC3B 		ldr	r3, [r7, #3036]
 436              		.loc 1 189 20 view .LVU108
 437 007a 1B6A     		ldr	r3, [r3, #32]
 438              		.loc 1 189 5 view .LVU109
 439 007c 3246     		mov	r2, r6
 440 007e 2549     		ldr	r1, .L32+32
 441 0080 D7F8E00B 		ldr	r0, [r7, #3040]
 442 0084 9847     		blx	r3
 443              	.LVL30:
ARM GAS  C:\Users\DELL\AppData\Local\Temp\cclsnC7x.s 			page 13


 190:SynaptiX_FDK/app/user/sx_mqtt/sx_user_mqtt.c **** 
 191:SynaptiX_FDK/app/user/sx_mqtt/sx_user_mqtt.c ****     sx_mqtt_init(&s_mqtt, &board.modem);
 444              		.loc 1 191 5 is_stmt 1 view .LVU110
 445 0086 DFF8B080 		ldr	r8, .L32+68
 446 008a 3146     		mov	r1, r6
 447 008c 4046     		mov	r0, r8
 448 008e FFF7FEFF 		bl	sx_mqtt_init
 449              	.LVL31:
 192:SynaptiX_FDK/app/user/sx_mqtt/sx_user_mqtt.c ****     sx_mqtt_set_config(&s_mqtt, mqtt_cfg);
 450              		.loc 1 192 5 view .LVU111
 451 0092 2946     		mov	r1, r5
 452 0094 4046     		mov	r0, r8
 453 0096 FFF7FEFF 		bl	sx_mqtt_set_config
 454              	.LVL32:
 193:SynaptiX_FDK/app/user/sx_mqtt/sx_user_mqtt.c ****     sx_mqtt_set_on_connected   (&s_mqtt, _on_connected);
 455              		.loc 1 193 5 view .LVU112
 456              	.LBB26:
 457              	.LBI26:
 458              		.file 2 "SynaptiX_FDK/services/mqtt/sx_mqtt.h"
   1:SynaptiX_FDK/services/mqtt/sx_mqtt.h **** #ifndef __SX_MQTT_H
   2:SynaptiX_FDK/services/mqtt/sx_mqtt.h **** #define __SX_MQTT_H
   3:SynaptiX_FDK/services/mqtt/sx_mqtt.h **** 
   4:SynaptiX_FDK/services/mqtt/sx_mqtt.h **** #ifdef __cplusplus
   5:SynaptiX_FDK/services/mqtt/sx_mqtt.h **** extern "C"{
   6:SynaptiX_FDK/services/mqtt/sx_mqtt.h **** #endif
   7:SynaptiX_FDK/services/mqtt/sx_mqtt.h **** 
   8:SynaptiX_FDK/services/mqtt/sx_mqtt.h **** #include <stdint.h>
   9:SynaptiX_FDK/services/mqtt/sx_mqtt.h **** #include "modem_ops.h"
  10:SynaptiX_FDK/services/mqtt/sx_mqtt.h **** 
  11:SynaptiX_FDK/services/mqtt/sx_mqtt.h **** #define SX_MQTT_TOPIC_MAX_LEN       128U
  12:SynaptiX_FDK/services/mqtt/sx_mqtt.h **** #define SX_MQTT_MESSAGE_MAX_LEN     512U
  13:SynaptiX_FDK/services/mqtt/sx_mqtt.h **** #define SX_MQTT_TIMEOUT_CONF        2000U
  14:SynaptiX_FDK/services/mqtt/sx_mqtt.h **** #define SX_MQTT_TIMEOUT_ACCQ        2000U
  15:SynaptiX_FDK/services/mqtt/sx_mqtt.h **** #define SX_MQTT_TIMEOUT_CONN        8000U
  16:SynaptiX_FDK/services/mqtt/sx_mqtt.h **** #define SX_MQTT_TIMEOUT_DISC        5000U
  17:SynaptiX_FDK/services/mqtt/sx_mqtt.h **** #define SX_MQTT_TIMEOUT_PUB         3000U
  18:SynaptiX_FDK/services/mqtt/sx_mqtt.h **** #define SX_MQTT_TIMEOUT_SUB         5000U
  19:SynaptiX_FDK/services/mqtt/sx_mqtt.h **** 
  20:SynaptiX_FDK/services/mqtt/sx_mqtt.h **** /* NOTE: driver-level states (CMQTTSTART, cert upload, CSSLCFG, ACCQ,
  21:SynaptiX_FDK/services/mqtt/sx_mqtt.h ****  * CMQTTCFG version, CMQTTCONNECT...) all now live inside the concrete modem
  22:SynaptiX_FDK/services/mqtt/sx_mqtt.h ****  * driver's own state machine (e.g. a7677s_mqtt_state_t in a7677s.c), reached
  23:SynaptiX_FDK/services/mqtt/sx_mqtt.h ****  * through a single modem_ops_t.mqtt_connect() call. This service layer only
  24:SynaptiX_FDK/services/mqtt/sx_mqtt.h ****  * needs to track its own coarse-grained state, not the driver's internals —
  25:SynaptiX_FDK/services/mqtt/sx_mqtt.h ****  * that is the whole point of going through modem_ops_t rather than calling
  26:SynaptiX_FDK/services/mqtt/sx_mqtt.h ****  * driver-specific functions directly. Swapping to a different modem module
  27:SynaptiX_FDK/services/mqtt/sx_mqtt.h ****  * later only means writing a new driver; this file does not change. */
  28:SynaptiX_FDK/services/mqtt/sx_mqtt.h **** typedef enum{
  29:SynaptiX_FDK/services/mqtt/sx_mqtt.h ****     SX_MQTT_STATE_DISCONNECTED = 0,
  30:SynaptiX_FDK/services/mqtt/sx_mqtt.h ****     SX_MQTT_STATE_CONNECTING,    /* mqtt_connect() issued, waiting for cb */
  31:SynaptiX_FDK/services/mqtt/sx_mqtt.h ****     SX_MQTT_STATE_CONNECTED,
  32:SynaptiX_FDK/services/mqtt/sx_mqtt.h ****     SX_MQTT_STATE_DISCONNECTING, /* mqtt_disconnect() issued, waiting for cb */
  33:SynaptiX_FDK/services/mqtt/sx_mqtt.h ****     SX_MQTT_STATE_ERROR,
  34:SynaptiX_FDK/services/mqtt/sx_mqtt.h **** } sx_mqtt_state_t;
  35:SynaptiX_FDK/services/mqtt/sx_mqtt.h **** 
  36:SynaptiX_FDK/services/mqtt/sx_mqtt.h **** typedef struct sx_mqtt sx_mqtt_t;
  37:SynaptiX_FDK/services/mqtt/sx_mqtt.h **** 
  38:SynaptiX_FDK/services/mqtt/sx_mqtt.h **** typedef void (*sx_mqtt_on_connected_cb_t) (sx_mqtt_t *mqtt);
ARM GAS  C:\Users\DELL\AppData\Local\Temp\cclsnC7x.s 			page 14


  39:SynaptiX_FDK/services/mqtt/sx_mqtt.h **** 
  40:SynaptiX_FDK/services/mqtt/sx_mqtt.h **** typedef void (*sx_mqtt_on_disconnected_cb_t) (sx_mqtt_t *mqtt);
  41:SynaptiX_FDK/services/mqtt/sx_mqtt.h **** 
  42:SynaptiX_FDK/services/mqtt/sx_mqtt.h **** typedef void (*sx_mqtt_on_message_cb_t) (sx_mqtt_t *mqtt, const char *topic, const char *message);
  43:SynaptiX_FDK/services/mqtt/sx_mqtt.h **** 
  44:SynaptiX_FDK/services/mqtt/sx_mqtt.h **** typedef void (*sx_mqtt_on_publish_cb_t) (sx_mqtt_t *mqtt, int success);
  45:SynaptiX_FDK/services/mqtt/sx_mqtt.h **** 
  46:SynaptiX_FDK/services/mqtt/sx_mqtt.h **** typedef struct{
  47:SynaptiX_FDK/services/mqtt/sx_mqtt.h ****     const char *broker;
  48:SynaptiX_FDK/services/mqtt/sx_mqtt.h ****     uint16_t port;
  49:SynaptiX_FDK/services/mqtt/sx_mqtt.h ****     const char *client_id;
  50:SynaptiX_FDK/services/mqtt/sx_mqtt.h ****     const char *username;
  51:SynaptiX_FDK/services/mqtt/sx_mqtt.h ****     const char *password;
  52:SynaptiX_FDK/services/mqtt/sx_mqtt.h ****     uint16_t keepalive;
  53:SynaptiX_FDK/services/mqtt/sx_mqtt.h ****     uint8_t clean_session;
  54:SynaptiX_FDK/services/mqtt/sx_mqtt.h ****     uint8_t qos;
  55:SynaptiX_FDK/services/mqtt/sx_mqtt.h ****     uint8_t use_ssl;        //0 : tcp, 1: ssl
  56:SynaptiX_FDK/services/mqtt/sx_mqtt.h ****     uint8_t ssl_auth_mode; // 0 : no verify, 1 : sever cert, 2 = mutual
  57:SynaptiX_FDK/services/mqtt/sx_mqtt.h ****     char *ca_cert;        
  58:SynaptiX_FDK/services/mqtt/sx_mqtt.h ****     char *client_cert;    
  59:SynaptiX_FDK/services/mqtt/sx_mqtt.h ****     char *client_key;
  60:SynaptiX_FDK/services/mqtt/sx_mqtt.h **** }sx_mqtt_config_t;
  61:SynaptiX_FDK/services/mqtt/sx_mqtt.h **** 
  62:SynaptiX_FDK/services/mqtt/sx_mqtt.h **** typedef enum{
  63:SynaptiX_FDK/services/mqtt/sx_mqtt.h ****     CONF_CLIENTID = 0,
  64:SynaptiX_FDK/services/mqtt/sx_mqtt.h ****     CONF_URL,
  65:SynaptiX_FDK/services/mqtt/sx_mqtt.h ****     CONF_KEEPTIME,
  66:SynaptiX_FDK/services/mqtt/sx_mqtt.h ****     CONF_CLEANSS,
  67:SynaptiX_FDK/services/mqtt/sx_mqtt.h ****     CONF_USERNAME,
  68:SynaptiX_FDK/services/mqtt/sx_mqtt.h ****     CONF_PASSWORD,
  69:SynaptiX_FDK/services/mqtt/sx_mqtt.h ****     CONF_DONE,
  70:SynaptiX_FDK/services/mqtt/sx_mqtt.h **** } sx_mqtt_conf_step_t;
  71:SynaptiX_FDK/services/mqtt/sx_mqtt.h **** 
  72:SynaptiX_FDK/services/mqtt/sx_mqtt.h **** struct sx_mqtt{
  73:SynaptiX_FDK/services/mqtt/sx_mqtt.h ****     /* Handle into the concrete modem driver (e.g. &board.a7677s paired with
  74:SynaptiX_FDK/services/mqtt/sx_mqtt.h ****      * &a7677s_ops). This service layer never touches the driver except
  75:SynaptiX_FDK/services/mqtt/sx_mqtt.h ****      * through modem->ops->xxx(modem->ctx, ...) — see modem_ops.h. */
  76:SynaptiX_FDK/services/mqtt/sx_mqtt.h ****     modem_handle_t *modem;
  77:SynaptiX_FDK/services/mqtt/sx_mqtt.h ****     sx_mqtt_config_t config;
  78:SynaptiX_FDK/services/mqtt/sx_mqtt.h ****     sx_mqtt_state_t state;
  79:SynaptiX_FDK/services/mqtt/sx_mqtt.h **** 
  80:SynaptiX_FDK/services/mqtt/sx_mqtt.h ****     uint32_t reconnect_elapsed;
  81:SynaptiX_FDK/services/mqtt/sx_mqtt.h ****     uint32_t reconnect_delay;
  82:SynaptiX_FDK/services/mqtt/sx_mqtt.h ****     uint8_t  reconnect_count;
  83:SynaptiX_FDK/services/mqtt/sx_mqtt.h **** 
  84:SynaptiX_FDK/services/mqtt/sx_mqtt.h ****     /* Counts how many times the PWRKEY power-cycle recovery in do_error()
  85:SynaptiX_FDK/services/mqtt/sx_mqtt.h ****      * has itself been triggered without a successful connect happening in
  86:SynaptiX_FDK/services/mqtt/sx_mqtt.h ****      * between (i.e. reconnect_count reaching SX_MQTT_MAX_RETRY_BEFORE_RESTART
  87:SynaptiX_FDK/services/mqtt/sx_mqtt.h ****      * repeatedly). Only cleared on an actual CONNECTED transition (see
  88:SynaptiX_FDK/services/mqtt/sx_mqtt.h ****      * sx_mqtt_poll()) — unlike reconnect_count, which resets every time a
  89:SynaptiX_FDK/services/mqtt/sx_mqtt.h ****      * restart is triggered. Once this reaches
  90:SynaptiX_FDK/services/mqtt/sx_mqtt.h ****      * SX_MQTT_MAX_RESTARTS_BEFORE_HARD_RESET, do_error() escalates to
  91:SynaptiX_FDK/services/mqtt/sx_mqtt.h ****      * modem_ops_t.hard_reset() (physical RST pin) instead of another PWRKEY
  92:SynaptiX_FDK/services/mqtt/sx_mqtt.h ****      * cycle. */
  93:SynaptiX_FDK/services/mqtt/sx_mqtt.h ****     uint8_t  restart_cycle_count;
  94:SynaptiX_FDK/services/mqtt/sx_mqtt.h **** 
  95:SynaptiX_FDK/services/mqtt/sx_mqtt.h ****     /*  Callback    */
ARM GAS  C:\Users\DELL\AppData\Local\Temp\cclsnC7x.s 			page 15


  96:SynaptiX_FDK/services/mqtt/sx_mqtt.h ****     sx_mqtt_on_connected_cb_t on_connected;
  97:SynaptiX_FDK/services/mqtt/sx_mqtt.h ****     sx_mqtt_on_disconnected_cb_t on_disconnected;
  98:SynaptiX_FDK/services/mqtt/sx_mqtt.h ****     sx_mqtt_on_message_cb_t on_message;
  99:SynaptiX_FDK/services/mqtt/sx_mqtt.h ****     sx_mqtt_on_publish_cb_t on_publish;
 100:SynaptiX_FDK/services/mqtt/sx_mqtt.h **** };
 101:SynaptiX_FDK/services/mqtt/sx_mqtt.h **** 
 102:SynaptiX_FDK/services/mqtt/sx_mqtt.h **** /*  Status helper   */
 103:SynaptiX_FDK/services/mqtt/sx_mqtt.h **** static inline sx_mqtt_state_t sx_mqtt_get_state(sx_mqtt_t *mqtt){
 104:SynaptiX_FDK/services/mqtt/sx_mqtt.h ****     return mqtt->state;
 105:SynaptiX_FDK/services/mqtt/sx_mqtt.h **** }
 106:SynaptiX_FDK/services/mqtt/sx_mqtt.h **** 
 107:SynaptiX_FDK/services/mqtt/sx_mqtt.h **** static inline uint8_t sx_mqtt_is_connected(sx_mqtt_t *mqtt){
 108:SynaptiX_FDK/services/mqtt/sx_mqtt.h ****     return (mqtt->state == SX_MQTT_STATE_CONNECTED);
 109:SynaptiX_FDK/services/mqtt/sx_mqtt.h **** }
 110:SynaptiX_FDK/services/mqtt/sx_mqtt.h **** 
 111:SynaptiX_FDK/services/mqtt/sx_mqtt.h **** /*  Callback    */
 112:SynaptiX_FDK/services/mqtt/sx_mqtt.h **** static inline void sx_mqtt_set_on_connected(sx_mqtt_t *mqtt, sx_mqtt_on_connected_cb_t cb){
 459              		.loc 2 112 20 view .LVU113
 460              	.LBB27:
 113:SynaptiX_FDK/services/mqtt/sx_mqtt.h ****     mqtt->on_connected = cb;
 461              		.loc 2 113 5 view .LVU114
 462              		.loc 2 113 24 is_stmt 0 view .LVU115
 463 009a 1F4B     		ldr	r3, .L32+36
 464 009c C8F83C30 		str	r3, [r8, #60]
 465              	.LVL33:
 466              		.loc 2 113 24 view .LVU116
 467              	.LBE27:
 468              	.LBE26:
 194:SynaptiX_FDK/app/user/sx_mqtt/sx_user_mqtt.c ****     sx_mqtt_set_on_disconnected(&s_mqtt, _on_disconnected);
 469              		.loc 1 194 5 is_stmt 1 view .LVU117
 470              	.LBB28:
 471              	.LBI28:
 114:SynaptiX_FDK/services/mqtt/sx_mqtt.h **** }
 115:SynaptiX_FDK/services/mqtt/sx_mqtt.h **** 
 116:SynaptiX_FDK/services/mqtt/sx_mqtt.h **** static inline void sx_mqtt_set_on_disconnected(sx_mqtt_t *mqtt, sx_mqtt_on_disconnected_cb_t cb){
 472              		.loc 2 116 20 view .LVU118
 473              	.LBB29:
 117:SynaptiX_FDK/services/mqtt/sx_mqtt.h ****     mqtt->on_disconnected = cb;
 474              		.loc 2 117 5 view .LVU119
 475              		.loc 2 117 27 is_stmt 0 view .LVU120
 476 00a0 1E4B     		ldr	r3, .L32+40
 477 00a2 C8F84030 		str	r3, [r8, #64]
 478              	.LVL34:
 479              		.loc 2 117 27 view .LVU121
 480              	.LBE29:
 481              	.LBE28:
 195:SynaptiX_FDK/app/user/sx_mqtt/sx_user_mqtt.c ****     sx_mqtt_set_on_message     (&s_mqtt, _on_message);
 482              		.loc 1 195 5 is_stmt 1 view .LVU122
 483              	.LBB30:
 484              	.LBI30:
 118:SynaptiX_FDK/services/mqtt/sx_mqtt.h **** }
 119:SynaptiX_FDK/services/mqtt/sx_mqtt.h **** 
 120:SynaptiX_FDK/services/mqtt/sx_mqtt.h **** static inline void sx_mqtt_set_on_publish(sx_mqtt_t *mqtt, sx_mqtt_on_publish_cb_t cb){
 121:SynaptiX_FDK/services/mqtt/sx_mqtt.h ****     mqtt->on_publish = cb;
 122:SynaptiX_FDK/services/mqtt/sx_mqtt.h **** }
 123:SynaptiX_FDK/services/mqtt/sx_mqtt.h **** 
 124:SynaptiX_FDK/services/mqtt/sx_mqtt.h **** static inline void sx_mqtt_set_on_message(sx_mqtt_t *mqtt, sx_mqtt_on_message_cb_t cb){
ARM GAS  C:\Users\DELL\AppData\Local\Temp\cclsnC7x.s 			page 16


 485              		.loc 2 124 20 view .LVU123
 486              	.LBB31:
 125:SynaptiX_FDK/services/mqtt/sx_mqtt.h ****     mqtt->on_message = cb;
 487              		.loc 2 125 5 view .LVU124
 488              		.loc 2 125 22 is_stmt 0 view .LVU125
 489 00a6 1E4B     		ldr	r3, .L32+44
 490 00a8 C8F84430 		str	r3, [r8, #68]
 491              	.LVL35:
 492              		.loc 2 125 22 view .LVU126
 493              	.LBE31:
 494              	.LBE30:
 196:SynaptiX_FDK/app/user/sx_mqtt/sx_user_mqtt.c ****     sx_mqtt_set_on_publish     (&s_mqtt, _on_publish);
 495              		.loc 1 196 5 is_stmt 1 view .LVU127
 496              	.LBB32:
 497              	.LBI32:
 120:SynaptiX_FDK/services/mqtt/sx_mqtt.h ****     mqtt->on_publish = cb;
 498              		.loc 2 120 20 view .LVU128
 499              	.LBB33:
 121:SynaptiX_FDK/services/mqtt/sx_mqtt.h **** }
 500              		.loc 2 121 5 view .LVU129
 121:SynaptiX_FDK/services/mqtt/sx_mqtt.h **** }
 501              		.loc 2 121 22 is_stmt 0 view .LVU130
 502 00ac 1D4B     		ldr	r3, .L32+48
 503 00ae C8F84830 		str	r3, [r8, #72]
 504              	.LVL36:
 121:SynaptiX_FDK/services/mqtt/sx_mqtt.h **** }
 505              		.loc 2 121 22 view .LVU131
 506              	.LBE33:
 507              	.LBE32:
 197:SynaptiX_FDK/app/user/sx_mqtt/sx_user_mqtt.c **** 
 198:SynaptiX_FDK/app/user/sx_mqtt/sx_user_mqtt.c ****     s_last_tick = sx_gettick();
 508              		.loc 1 198 5 is_stmt 1 view .LVU132
 509              		.loc 1 198 19 is_stmt 0 view .LVU133
 510 00b2 FFF7FEFF 		bl	sx_gettick
 511              	.LVL37:
 512              		.loc 1 198 17 discriminator 1 view .LVU134
 513 00b6 1C4B     		ldr	r3, .L32+52
 514 00b8 1860     		str	r0, [r3]
 199:SynaptiX_FDK/app/user/sx_mqtt/sx_user_mqtt.c ****     board.modem.ops->start(board.modem.ctx);
 515              		.loc 1 199 5 is_stmt 1 view .LVU135
 516              		.loc 1 199 16 is_stmt 0 view .LVU136
 517 00ba D7F8DC3B 		ldr	r3, [r7, #3036]
 518              		.loc 1 199 20 view .LVU137
 519 00be 5B69     		ldr	r3, [r3, #20]
 520              		.loc 1 199 5 view .LVU138
 521 00c0 D7F8E00B 		ldr	r0, [r7, #3040]
 522 00c4 9847     		blx	r3
 523              	.LVL38:
 200:SynaptiX_FDK/app/user/sx_mqtt/sx_user_mqtt.c ****     log_info(TAG, "Init done — broker=%s:%u ssl=%d", cfg->broker, cfg->port, cfg->use_ssl);
 524              		.loc 1 200 5 is_stmt 1 view .LVU139
 525 00c6 B4F84030 		ldrh	r3, [r4, #64]
 526 00ca 94F85320 		ldrb	r2, [r4, #83]	@ zero_extendqisi2
 527 00ce 0192     		str	r2, [sp, #4]
 528 00d0 0093     		str	r3, [sp]
 529 00d2 E36B     		ldr	r3, [r4, #60]
 530 00d4 154A     		ldr	r2, .L32+56
 531 00d6 1649     		ldr	r1, .L32+60
ARM GAS  C:\Users\DELL\AppData\Local\Temp\cclsnC7x.s 			page 17


 532 00d8 0320     		movs	r0, #3
 533 00da FFF7FEFF 		bl	log_func
 534              	.LVL39:
 201:SynaptiX_FDK/app/user/sx_mqtt/sx_user_mqtt.c **** 
 202:SynaptiX_FDK/app/user/sx_mqtt/sx_user_mqtt.c ****     s_initialized = 1;
 535              		.loc 1 202 5 view .LVU140
 536              		.loc 1 202 19 is_stmt 0 view .LVU141
 537 00de 154B     		ldr	r3, .L32+64
 538 00e0 0122     		movs	r2, #1
 539 00e2 1A70     		strb	r2, [r3]
 203:SynaptiX_FDK/app/user/sx_mqtt/sx_user_mqtt.c ****     return 0;
 540              		.loc 1 203 5 is_stmt 1 view .LVU142
 541              	.L27:
 204:SynaptiX_FDK/app/user/sx_mqtt/sx_user_mqtt.c **** }
 542              		.loc 1 204 1 is_stmt 0 view .LVU143
 543 00e4 4846     		mov	r0, r9
 544 00e6 03B0     		add	sp, sp, #12
 545              	.LCFI8:
 546              		.cfi_remember_state
 547              		.cfi_def_cfa_offset 28
 548              		@ sp needed
 549 00e8 BDE8F083 		pop	{r4, r5, r6, r7, r8, r9, pc}
 550              	.LVL40:
 551              	.L30:
 552              	.LCFI9:
 553              		.cfi_restore_state
 164:SynaptiX_FDK/app/user/sx_mqtt/sx_user_mqtt.c ****     /* save user callbacks */
 554              		.loc 1 164 41 discriminator 1 view .LVU144
 555 00ec 4FF0FF39 		mov	r9, #-1
 556 00f0 F8E7     		b	.L27
 557              	.L33:
 558 00f2 00BF     		.align	2
 559              	.L32:
 560 00f4 00000000 		.word	s_queue_buf
 561 00f8 00000000 		.word	s_queue
 562 00fc 00000000 		.word	s_on_connected
 563 0100 00000000 		.word	s_on_disconnected
 564 0104 00000000 		.word	s_on_message
 565 0108 00000000 		.word	s_on_publish
 566 010c 00D00000 		.word	board+53248
 567 0110 00000000 		.word	_on_modem_ready
 568 0114 00000000 		.word	_on_modem_error
 569 0118 00000000 		.word	_on_connected
 570 011c 00000000 		.word	_on_disconnected
 571 0120 00000000 		.word	_on_message
 572 0124 00000000 		.word	_on_publish
 573 0128 00000000 		.word	s_last_tick
 574 012c 00000000 		.word	.LC7
 575 0130 10000000 		.word	.LC1
 576 0134 00000000 		.word	s_initialized
 577 0138 00000000 		.word	s_mqtt
 578              		.cfi_endproc
 579              	.LFE350:
 581              		.section	.rodata._on_modem_error.str1.4,"aMS",%progbits,1
 582              		.align	2
 583              	.LC8:
 584 0000 4D6F6465 		.ascii	"Modem error \342\200\224 feeding into recovery ladd"
ARM GAS  C:\Users\DELL\AppData\Local\Temp\cclsnC7x.s 			page 18


 584      6D206572 
 584      726F7220 
 584      E2809420 
 584      66656564 
 585 002a 657200   		.ascii	"er\000"
 586              		.section	.text._on_modem_error,"ax",%progbits
 587              		.align	1
 588              		.syntax unified
 589              		.thumb
 590              		.thumb_func
 592              	_on_modem_error:
 593              	.LVL41:
 594              	.LFB348:
 147:SynaptiX_FDK/app/user/sx_mqtt/sx_user_mqtt.c ****     (void)ctx;
 595              		.loc 1 147 1 is_stmt 1 view -0
 596              		.cfi_startproc
 597              		@ args = 0, pretend = 0, frame = 0
 598              		@ frame_needed = 0, uses_anonymous_args = 0
 147:SynaptiX_FDK/app/user/sx_mqtt/sx_user_mqtt.c ****     (void)ctx;
 599              		.loc 1 147 1 is_stmt 0 view .LVU146
 600 0000 08B5     		push	{r3, lr}
 601              	.LCFI10:
 602              		.cfi_def_cfa_offset 8
 603              		.cfi_offset 3, -8
 604              		.cfi_offset 14, -4
 148:SynaptiX_FDK/app/user/sx_mqtt/sx_user_mqtt.c ****     log_error(TAG, "Modem error — feeding into recovery ladder");
 605              		.loc 1 148 5 is_stmt 1 view .LVU147
 149:SynaptiX_FDK/app/user/sx_mqtt/sx_user_mqtt.c ****     sx_mqtt_report_failure(&s_mqtt);
 606              		.loc 1 149 5 view .LVU148
 607 0002 064A     		ldr	r2, .L37
 608 0004 0649     		ldr	r1, .L37+4
 609 0006 0120     		movs	r0, #1
 610              	.LVL42:
 149:SynaptiX_FDK/app/user/sx_mqtt/sx_user_mqtt.c ****     sx_mqtt_report_failure(&s_mqtt);
 611              		.loc 1 149 5 is_stmt 0 view .LVU149
 612 0008 FFF7FEFF 		bl	log_func
 613              	.LVL43:
 150:SynaptiX_FDK/app/user/sx_mqtt/sx_user_mqtt.c ****     if (s_on_disconnected) s_on_disconnected();
 614              		.loc 1 150 5 is_stmt 1 view .LVU150
 615 000c 0548     		ldr	r0, .L37+8
 616 000e FFF7FEFF 		bl	sx_mqtt_report_failure
 617              	.LVL44:
 151:SynaptiX_FDK/app/user/sx_mqtt/sx_user_mqtt.c **** }
 618              		.loc 1 151 5 view .LVU151
 151:SynaptiX_FDK/app/user/sx_mqtt/sx_user_mqtt.c **** }
 619              		.loc 1 151 9 is_stmt 0 view .LVU152
 620 0012 054B     		ldr	r3, .L37+12
 621 0014 1B68     		ldr	r3, [r3]
 151:SynaptiX_FDK/app/user/sx_mqtt/sx_user_mqtt.c **** }
 622              		.loc 1 151 8 view .LVU153
 623 0016 03B1     		cbz	r3, .L34
 151:SynaptiX_FDK/app/user/sx_mqtt/sx_user_mqtt.c **** }
 624              		.loc 1 151 28 is_stmt 1 discriminator 1 view .LVU154
 625 0018 9847     		blx	r3
 626              	.LVL45:
 627              	.L34:
 152:SynaptiX_FDK/app/user/sx_mqtt/sx_user_mqtt.c **** 
ARM GAS  C:\Users\DELL\AppData\Local\Temp\cclsnC7x.s 			page 19


 628              		.loc 1 152 1 is_stmt 0 view .LVU155
 629 001a 08BD     		pop	{r3, pc}
 630              	.L38:
 631              		.align	2
 632              	.L37:
 633 001c 00000000 		.word	.LC8
 634 0020 10000000 		.word	.LC1
 635 0024 00000000 		.word	s_mqtt
 636 0028 00000000 		.word	s_on_disconnected
 637              		.cfi_endproc
 638              	.LFE348:
 640              		.section	.text.dispatch_next,"ax",%progbits
 641              		.align	1
 642              		.syntax unified
 643              		.thumb
 644              		.thumb_func
 646              	dispatch_next:
 647              	.LFB342:
  49:SynaptiX_FDK/app/user/sx_mqtt/sx_user_mqtt.c ****     if (!cqueue_is_empty(&s_queue) && sx_mqtt_is_connected(&s_mqtt)) {
 648              		.loc 1 49 32 is_stmt 1 view -0
 649              		.cfi_startproc
 650              		@ args = 0, pretend = 0, frame = 0
 651              		@ frame_needed = 0, uses_anonymous_args = 0
 652 0000 00B5     		push	{lr}
 653              	.LCFI11:
 654              		.cfi_def_cfa_offset 4
 655              		.cfi_offset 14, -4
 656 0002 83B0     		sub	sp, sp, #12
 657              	.LCFI12:
 658              		.cfi_def_cfa_offset 16
  50:SynaptiX_FDK/app/user/sx_mqtt/sx_user_mqtt.c ****         if (cqueue_receive(&s_queue, &s_current_item)) {
 659              		.loc 1 50 5 view .LVU157
  50:SynaptiX_FDK/app/user/sx_mqtt/sx_user_mqtt.c ****         if (cqueue_receive(&s_queue, &s_current_item)) {
 660              		.loc 1 50 10 is_stmt 0 view .LVU158
 661 0004 0E48     		ldr	r0, .L43
 662 0006 FFF7FEFF 		bl	cqueue_is_empty
 663              	.LVL46:
  50:SynaptiX_FDK/app/user/sx_mqtt/sx_user_mqtt.c ****         if (cqueue_receive(&s_queue, &s_current_item)) {
 664              		.loc 1 50 8 discriminator 1 view .LVU159
 665 000a 20B9     		cbnz	r0, .L39
 666              	.LVL47:
 667              	.LBB34:
 668              	.LBI34:
 107:SynaptiX_FDK/services/mqtt/sx_mqtt.h ****     return (mqtt->state == SX_MQTT_STATE_CONNECTED);
 669              		.loc 2 107 23 is_stmt 1 view .LVU160
 670              	.LBB35:
 108:SynaptiX_FDK/services/mqtt/sx_mqtt.h **** }
 671              		.loc 2 108 5 view .LVU161
 108:SynaptiX_FDK/services/mqtt/sx_mqtt.h **** }
 672              		.loc 2 108 17 is_stmt 0 view .LVU162
 673 000c 0D4B     		ldr	r3, .L43+4
 674 000e 93F82C30 		ldrb	r3, [r3, #44]	@ zero_extendqisi2
 675              	.LVL48:
 108:SynaptiX_FDK/services/mqtt/sx_mqtt.h **** }
 676              		.loc 2 108 17 view .LVU163
 677              	.LBE35:
 678              	.LBE34:
ARM GAS  C:\Users\DELL\AppData\Local\Temp\cclsnC7x.s 			page 20


  50:SynaptiX_FDK/app/user/sx_mqtt/sx_user_mqtt.c ****         if (cqueue_receive(&s_queue, &s_current_item)) {
 679              		.loc 1 50 36 discriminator 1 view .LVU164
 680 0012 022B     		cmp	r3, #2
 681 0014 01D0     		beq	.L42
 682              	.L39:
  56:SynaptiX_FDK/app/user/sx_mqtt/sx_user_mqtt.c **** 
 683              		.loc 1 56 1 view .LVU165
 684 0016 03B0     		add	sp, sp, #12
 685              	.LCFI13:
 686              		.cfi_remember_state
 687              		.cfi_def_cfa_offset 4
 688              		@ sp needed
 689 0018 00BD     		pop	{pc}
 690              	.L42:
 691              	.LCFI14:
 692              		.cfi_restore_state
  51:SynaptiX_FDK/app/user/sx_mqtt/sx_user_mqtt.c ****             s_publishing = 1;
 693              		.loc 1 51 9 is_stmt 1 view .LVU166
  51:SynaptiX_FDK/app/user/sx_mqtt/sx_user_mqtt.c ****             s_publishing = 1;
 694              		.loc 1 51 13 is_stmt 0 view .LVU167
 695 001a 0B49     		ldr	r1, .L43+8
 696 001c 0848     		ldr	r0, .L43
 697 001e FFF7FEFF 		bl	cqueue_receive
 698              	.LVL49:
  51:SynaptiX_FDK/app/user/sx_mqtt/sx_user_mqtt.c ****             s_publishing = 1;
 699              		.loc 1 51 12 discriminator 1 view .LVU168
 700 0022 0028     		cmp	r0, #0
 701 0024 F7D0     		beq	.L39
  52:SynaptiX_FDK/app/user/sx_mqtt/sx_user_mqtt.c ****             sx_mqtt_publish(&s_mqtt, s_current_item.topic, s_current_item.message, 1, 0);
 702              		.loc 1 52 13 is_stmt 1 view .LVU169
  52:SynaptiX_FDK/app/user/sx_mqtt/sx_user_mqtt.c ****             sx_mqtt_publish(&s_mqtt, s_current_item.topic, s_current_item.message, 1, 0);
 703              		.loc 1 52 26 is_stmt 0 view .LVU170
 704 0026 0123     		movs	r3, #1
 705 0028 084A     		ldr	r2, .L43+12
 706 002a 1370     		strb	r3, [r2]
  53:SynaptiX_FDK/app/user/sx_mqtt/sx_user_mqtt.c ****         }
 707              		.loc 1 53 13 is_stmt 1 view .LVU171
 708 002c 084A     		ldr	r2, .L43+16
 709 002e 0021     		movs	r1, #0
 710 0030 0091     		str	r1, [sp]
 711 0032 A2F18001 		sub	r1, r2, #128
 712 0036 0348     		ldr	r0, .L43+4
 713 0038 FFF7FEFF 		bl	sx_mqtt_publish
 714              	.LVL50:
  56:SynaptiX_FDK/app/user/sx_mqtt/sx_user_mqtt.c **** 
 715              		.loc 1 56 1 is_stmt 0 view .LVU172
 716 003c EBE7     		b	.L39
 717              	.L44:
 718 003e 00BF     		.align	2
 719              	.L43:
 720 0040 00000000 		.word	s_queue
 721 0044 00000000 		.word	s_mqtt
 722 0048 00000000 		.word	s_current_item
 723 004c 00000000 		.word	s_publishing
 724 0050 80000000 		.word	s_current_item+128
 725              		.cfi_endproc
 726              	.LFE342:
ARM GAS  C:\Users\DELL\AppData\Local\Temp\cclsnC7x.s 			page 21


 728              		.section	.rodata._on_publish.str1.4,"aMS",%progbits,1
 729              		.align	2
 730              	.LC9:
 731 0000 4F4B00   		.ascii	"OK\000"
 732 0003 00       		.align	2
 733              	.LC10:
 734 0004 4641494C 		.ascii	"FAIL\000"
 734      00
 735 0009 000000   		.align	2
 736              	.LC11:
 737 000c 5075626C 		.ascii	"Publish %s\000"
 737      69736820 
 737      257300
 738 0017 00       		.align	2
 739              	.LC12:
 740 0018 5075626C 		.ascii	"Publish fail %d/%d\000"
 740      69736820 
 740      6661696C 
 740      2025642F 
 740      256400
 741 002b 00       		.align	2
 742              	.LC13:
 743 002c 4D617820 		.ascii	"Max retry \342\200\224 reporting to sx_mqtt.c's rec"
 743      72657472 
 743      7920E280 
 743      94207265 
 743      706F7274 
 744 0056 6F766572 		.ascii	"overy ladder\000"
 744      79206C61 
 744      64646572 
 744      00
 745              		.section	.text._on_publish,"ax",%progbits
 746              		.align	1
 747              		.syntax unified
 748              		.thumb
 749              		.thumb_func
 751              	_on_publish:
 752              	.LVL51:
 753              	.LFB346:
  77:SynaptiX_FDK/app/user/sx_mqtt/sx_user_mqtt.c ****     (void)mqtt;
 754              		.loc 1 77 1 is_stmt 1 view -0
 755              		.cfi_startproc
 756              		@ args = 0, pretend = 0, frame = 0
 757              		@ frame_needed = 0, uses_anonymous_args = 0
  77:SynaptiX_FDK/app/user/sx_mqtt/sx_user_mqtt.c ****     (void)mqtt;
 758              		.loc 1 77 1 is_stmt 0 view .LVU174
 759 0000 10B5     		push	{r4, lr}
 760              	.LCFI15:
 761              		.cfi_def_cfa_offset 8
 762              		.cfi_offset 4, -8
 763              		.cfi_offset 14, -4
 764 0002 82B0     		sub	sp, sp, #8
 765              	.LCFI16:
 766              		.cfi_def_cfa_offset 16
  78:SynaptiX_FDK/app/user/sx_mqtt/sx_user_mqtt.c ****     s_publishing = 0;
 767              		.loc 1 78 5 is_stmt 1 view .LVU175
  79:SynaptiX_FDK/app/user/sx_mqtt/sx_user_mqtt.c **** 
ARM GAS  C:\Users\DELL\AppData\Local\Temp\cclsnC7x.s 			page 22


 768              		.loc 1 79 5 view .LVU176
  79:SynaptiX_FDK/app/user/sx_mqtt/sx_user_mqtt.c **** 
 769              		.loc 1 79 18 is_stmt 0 view .LVU177
 770 0004 264B     		ldr	r3, .L53
 771 0006 0022     		movs	r2, #0
 772 0008 1A70     		strb	r2, [r3]
  81:SynaptiX_FDK/app/user/sx_mqtt/sx_user_mqtt.c **** 
 773              		.loc 1 81 5 is_stmt 1 view .LVU178
 774 000a 0C46     		mov	r4, r1
 775 000c 0029     		cmp	r1, #0
 776 000e 2DD0     		beq	.L51
  81:SynaptiX_FDK/app/user/sx_mqtt/sx_user_mqtt.c **** 
 777              		.loc 1 81 5 is_stmt 0 discriminator 1 view .LVU179
 778 0010 244B     		ldr	r3, .L53+4
 779              	.L46:
  81:SynaptiX_FDK/app/user/sx_mqtt/sx_user_mqtt.c **** 
 780              		.loc 1 81 5 discriminator 4 view .LVU180
 781 0012 254A     		ldr	r2, .L53+8
 782 0014 2549     		ldr	r1, .L53+12
 783              	.LVL52:
  81:SynaptiX_FDK/app/user/sx_mqtt/sx_user_mqtt.c **** 
 784              		.loc 1 81 5 discriminator 4 view .LVU181
 785 0016 0420     		movs	r0, #4
 786              	.LVL53:
  81:SynaptiX_FDK/app/user/sx_mqtt/sx_user_mqtt.c **** 
 787              		.loc 1 81 5 discriminator 4 view .LVU182
 788 0018 FFF7FEFF 		bl	log_func
 789              	.LVL54:
  83:SynaptiX_FDK/app/user/sx_mqtt/sx_user_mqtt.c ****         /* NOTE: s_publish_retry is intentionally NOT reset here — it must
 790              		.loc 1 83 5 is_stmt 1 view .LVU183
  83:SynaptiX_FDK/app/user/sx_mqtt/sx_user_mqtt.c ****         /* NOTE: s_publish_retry is intentionally NOT reset here — it must
 791              		.loc 1 83 8 is_stmt 0 view .LVU184
 792 001c 002C     		cmp	r4, #0
 793 001e 33D1     		bne	.L47
  92:SynaptiX_FDK/app/user/sx_mqtt/sx_user_mqtt.c ****         log_warn(TAG, "Publish fail %d/%d", s_publish_retry, MQTT_PUBLISH_MAX_RETRY);
 794              		.loc 1 92 9 is_stmt 1 view .LVU185
  92:SynaptiX_FDK/app/user/sx_mqtt/sx_user_mqtt.c ****         log_warn(TAG, "Publish fail %d/%d", s_publish_retry, MQTT_PUBLISH_MAX_RETRY);
 795              		.loc 1 92 24 is_stmt 0 view .LVU186
 796 0020 234C     		ldr	r4, .L53+16
 797              	.LVL55:
  92:SynaptiX_FDK/app/user/sx_mqtt/sx_user_mqtt.c ****         log_warn(TAG, "Publish fail %d/%d", s_publish_retry, MQTT_PUBLISH_MAX_RETRY);
 798              		.loc 1 92 24 view .LVU187
 799 0022 2378     		ldrb	r3, [r4]	@ zero_extendqisi2
 800 0024 0133     		adds	r3, r3, #1
 801 0026 DBB2     		uxtb	r3, r3
 802 0028 2370     		strb	r3, [r4]
  93:SynaptiX_FDK/app/user/sx_mqtt/sx_user_mqtt.c ****         if (s_publish_retry >= MQTT_PUBLISH_MAX_RETRY) {
 803              		.loc 1 93 9 is_stmt 1 view .LVU188
 804 002a 0322     		movs	r2, #3
 805 002c 0092     		str	r2, [sp]
 806 002e 214A     		ldr	r2, .L53+20
 807 0030 1E49     		ldr	r1, .L53+12
 808 0032 0220     		movs	r0, #2
 809 0034 FFF7FEFF 		bl	log_func
 810              	.LVL56:
  94:SynaptiX_FDK/app/user/sx_mqtt/sx_user_mqtt.c ****             log_error(TAG, "Max retry — reporting to sx_mqtt.c's recovery ladder");
 811              		.loc 1 94 9 view .LVU189
ARM GAS  C:\Users\DELL\AppData\Local\Temp\cclsnC7x.s 			page 23


  94:SynaptiX_FDK/app/user/sx_mqtt/sx_user_mqtt.c ****             log_error(TAG, "Max retry — reporting to sx_mqtt.c's recovery ladder");
 812              		.loc 1 94 29 is_stmt 0 view .LVU190
 813 0038 2378     		ldrb	r3, [r4]	@ zero_extendqisi2
  94:SynaptiX_FDK/app/user/sx_mqtt/sx_user_mqtt.c ****             log_error(TAG, "Max retry — reporting to sx_mqtt.c's recovery ladder");
 814              		.loc 1 94 12 view .LVU191
 815 003a 022B     		cmp	r3, #2
 816 003c 18D9     		bls	.L48
  95:SynaptiX_FDK/app/user/sx_mqtt/sx_user_mqtt.c ****             s_publish_retry = 0;
 817              		.loc 1 95 13 is_stmt 1 view .LVU192
 818 003e 1E4A     		ldr	r2, .L53+24
 819 0040 1A49     		ldr	r1, .L53+12
 820 0042 0120     		movs	r0, #1
 821 0044 FFF7FEFF 		bl	log_func
 822              	.LVL57:
  96:SynaptiX_FDK/app/user/sx_mqtt/sx_user_mqtt.c ****             cqueue_init_static(&s_queue, s_queue_buf, MQTT_QUEUE_SIZE,
 823              		.loc 1 96 13 view .LVU193
  96:SynaptiX_FDK/app/user/sx_mqtt/sx_user_mqtt.c ****             cqueue_init_static(&s_queue, s_queue_buf, MQTT_QUEUE_SIZE,
 824              		.loc 1 96 29 is_stmt 0 view .LVU194
 825 0048 0022     		movs	r2, #0
 826 004a 2270     		strb	r2, [r4]
  97:SynaptiX_FDK/app/user/sx_mqtt/sx_user_mqtt.c ****                                sizeof(mqtt_queue_item_t));
 827              		.loc 1 97 13 is_stmt 1 view .LVU195
 828 004c 4FF4C073 		mov	r3, #384
 829 0050 1022     		movs	r2, #16
 830 0052 1A49     		ldr	r1, .L53+28
 831 0054 1A48     		ldr	r0, .L53+32
 832 0056 FFF7FEFF 		bl	cqueue_init_static
 833              	.LVL58:
  99:SynaptiX_FDK/app/user/sx_mqtt/sx_user_mqtt.c ****             /* Let sx_mqtt.c decide the actual recovery action (it may
 834              		.loc 1 99 13 view .LVU196
  99:SynaptiX_FDK/app/user/sx_mqtt/sx_user_mqtt.c ****             /* Let sx_mqtt.c decide the actual recovery action (it may
 835              		.loc 1 99 17 is_stmt 0 view .LVU197
 836 005a 1A4B     		ldr	r3, .L53+36
 837 005c 1B68     		ldr	r3, [r3]
  99:SynaptiX_FDK/app/user/sx_mqtt/sx_user_mqtt.c ****             /* Let sx_mqtt.c decide the actual recovery action (it may
 838              		.loc 1 99 16 view .LVU198
 839 005e 0BB1     		cbz	r3, .L49
  99:SynaptiX_FDK/app/user/sx_mqtt/sx_user_mqtt.c ****             /* Let sx_mqtt.c decide the actual recovery action (it may
 840              		.loc 1 99 31 is_stmt 1 discriminator 1 view .LVU199
 841 0060 0020     		movs	r0, #0
 842 0062 9847     		blx	r3
 843              	.LVL59:
 844              	.L49:
 104:SynaptiX_FDK/app/user/sx_mqtt/sx_user_mqtt.c ****             return;
 845              		.loc 1 104 13 view .LVU200
 846 0064 1848     		ldr	r0, .L53+40
 847 0066 FFF7FEFF 		bl	sx_mqtt_report_failure
 848              	.LVL60:
 105:SynaptiX_FDK/app/user/sx_mqtt/sx_user_mqtt.c ****         }
 849              		.loc 1 105 13 view .LVU201
 850 006a 17E0     		b	.L45
 851              	.LVL61:
 852              	.L51:
  81:SynaptiX_FDK/app/user/sx_mqtt/sx_user_mqtt.c **** 
 853              		.loc 1 81 5 is_stmt 0 discriminator 2 view .LVU202
 854 006c 174B     		ldr	r3, .L53+44
 855 006e D0E7     		b	.L46
ARM GAS  C:\Users\DELL\AppData\Local\Temp\cclsnC7x.s 			page 24


 856              	.LVL62:
 857              	.L48:
 107:SynaptiX_FDK/app/user/sx_mqtt/sx_user_mqtt.c ****         sx_mqtt_publish(&s_mqtt, s_current_item.topic,
 858              		.loc 1 107 9 is_stmt 1 view .LVU203
 107:SynaptiX_FDK/app/user/sx_mqtt/sx_user_mqtt.c ****         sx_mqtt_publish(&s_mqtt, s_current_item.topic,
 859              		.loc 1 107 22 is_stmt 0 view .LVU204
 860 0070 0123     		movs	r3, #1
 861 0072 0B4A     		ldr	r2, .L53
 862 0074 1370     		strb	r3, [r2]
 108:SynaptiX_FDK/app/user/sx_mqtt/sx_user_mqtt.c ****                         s_current_item.message, 1, 0);
 863              		.loc 1 108 9 is_stmt 1 view .LVU205
 864 0076 164A     		ldr	r2, .L53+48
 865 0078 0021     		movs	r1, #0
 866 007a 0091     		str	r1, [sp]
 867 007c A2F18001 		sub	r1, r2, #128
 868 0080 1148     		ldr	r0, .L53+40
 869 0082 FFF7FEFF 		bl	sx_mqtt_publish
 870              	.LVL63:
 110:SynaptiX_FDK/app/user/sx_mqtt/sx_user_mqtt.c ****     }
 871              		.loc 1 110 9 view .LVU206
 872 0086 09E0     		b	.L45
 873              	.LVL64:
 874              	.L47:
 113:SynaptiX_FDK/app/user/sx_mqtt/sx_user_mqtt.c ****     dispatch_next();
 875              		.loc 1 113 5 view .LVU207
 113:SynaptiX_FDK/app/user/sx_mqtt/sx_user_mqtt.c ****     dispatch_next();
 876              		.loc 1 113 21 is_stmt 0 view .LVU208
 877 0088 094B     		ldr	r3, .L53+16
 878 008a 0022     		movs	r2, #0
 879 008c 1A70     		strb	r2, [r3]
 114:SynaptiX_FDK/app/user/sx_mqtt/sx_user_mqtt.c ****     if (s_on_publish) s_on_publish(1);
 880              		.loc 1 114 5 is_stmt 1 view .LVU209
 881 008e FFF7FEFF 		bl	dispatch_next
 882              	.LVL65:
 115:SynaptiX_FDK/app/user/sx_mqtt/sx_user_mqtt.c **** }
 883              		.loc 1 115 5 view .LVU210
 115:SynaptiX_FDK/app/user/sx_mqtt/sx_user_mqtt.c **** }
 884              		.loc 1 115 9 is_stmt 0 view .LVU211
 885 0092 0C4B     		ldr	r3, .L53+36
 886 0094 1B68     		ldr	r3, [r3]
 115:SynaptiX_FDK/app/user/sx_mqtt/sx_user_mqtt.c **** }
 887              		.loc 1 115 8 view .LVU212
 888 0096 0BB1     		cbz	r3, .L45
 115:SynaptiX_FDK/app/user/sx_mqtt/sx_user_mqtt.c **** }
 889              		.loc 1 115 23 is_stmt 1 discriminator 1 view .LVU213
 890 0098 0120     		movs	r0, #1
 891 009a 9847     		blx	r3
 892              	.LVL66:
 893              	.L45:
 116:SynaptiX_FDK/app/user/sx_mqtt/sx_user_mqtt.c **** 
 894              		.loc 1 116 1 is_stmt 0 view .LVU214
 895 009c 02B0     		add	sp, sp, #8
 896              	.LCFI17:
 897              		.cfi_def_cfa_offset 8
 898              		@ sp needed
 899 009e 10BD     		pop	{r4, pc}
 900              	.L54:
ARM GAS  C:\Users\DELL\AppData\Local\Temp\cclsnC7x.s 			page 25


 901              		.align	2
 902              	.L53:
 903 00a0 00000000 		.word	s_publishing
 904 00a4 00000000 		.word	.LC9
 905 00a8 0C000000 		.word	.LC11
 906 00ac 10000000 		.word	.LC1
 907 00b0 00000000 		.word	s_publish_retry
 908 00b4 18000000 		.word	.LC12
 909 00b8 2C000000 		.word	.LC13
 910 00bc 00000000 		.word	s_queue_buf
 911 00c0 00000000 		.word	s_queue
 912 00c4 00000000 		.word	s_on_publish
 913 00c8 00000000 		.word	s_mqtt
 914 00cc 04000000 		.word	.LC10
 915 00d0 80000000 		.word	s_current_item+128
 916              		.cfi_endproc
 917              	.LFE346:
 919              		.section	.rodata._on_modem_ready.str1.4,"aMS",%progbits,1
 920              		.align	2
 921              	.LC14:
 922 0000 73746D33 		.ascii	"stm32h5_%s\000"
 922      3268355F 
 922      257300
 923 000b 00       		.align	2
 924              	.LC15:
 925 000c 4D6F6465 		.ascii	"Modem ready \342\200\224 IP=%s RSSI=%d client_id=%s"
 925      6D207265 
 925      61647920 
 925      E2809420 
 925      49503D25 
 926 0036 00       		.ascii	"\000"
 927              		.section	.text._on_modem_ready,"ax",%progbits
 928              		.align	1
 929              		.syntax unified
 930              		.thumb
 931              		.thumb_func
 933              	_on_modem_ready:
 934              	.LVL67:
 935              	.LFB347:
 130:SynaptiX_FDK/app/user/sx_mqtt/sx_user_mqtt.c ****     modem_handle_t *modem = (modem_handle_t *)ctx;
 936              		.loc 1 130 1 is_stmt 1 view -0
 937              		.cfi_startproc
 938              		@ args = 0, pretend = 0, frame = 0
 939              		@ frame_needed = 0, uses_anonymous_args = 0
 130:SynaptiX_FDK/app/user/sx_mqtt/sx_user_mqtt.c ****     modem_handle_t *modem = (modem_handle_t *)ctx;
 940              		.loc 1 130 1 is_stmt 0 view .LVU216
 941 0000 F0B5     		push	{r4, r5, r6, r7, lr}
 942              	.LCFI18:
 943              		.cfi_def_cfa_offset 20
 944              		.cfi_offset 4, -20
 945              		.cfi_offset 5, -16
 946              		.cfi_offset 6, -12
 947              		.cfi_offset 7, -8
 948              		.cfi_offset 14, -4
 949 0002 83B0     		sub	sp, sp, #12
 950              	.LCFI19:
 951              		.cfi_def_cfa_offset 32
ARM GAS  C:\Users\DELL\AppData\Local\Temp\cclsnC7x.s 			page 26


 952 0004 0446     		mov	r4, r0
 131:SynaptiX_FDK/app/user/sx_mqtt/sx_user_mqtt.c **** 
 953              		.loc 1 131 5 is_stmt 1 view .LVU217
 954              	.LVL68:
 133:SynaptiX_FDK/app/user/sx_mqtt/sx_user_mqtt.c ****     size_t imei_len = strlen(imei);
 955              		.loc 1 133 5 view .LVU218
 133:SynaptiX_FDK/app/user/sx_mqtt/sx_user_mqtt.c ****     size_t imei_len = strlen(imei);
 956              		.loc 1 133 29 is_stmt 0 view .LVU219
 957 0006 0368     		ldr	r3, [r0]
 133:SynaptiX_FDK/app/user/sx_mqtt/sx_user_mqtt.c ****     size_t imei_len = strlen(imei);
 958              		.loc 1 133 34 view .LVU220
 959 0008 1B6C     		ldr	r3, [r3, #64]
 133:SynaptiX_FDK/app/user/sx_mqtt/sx_user_mqtt.c ****     size_t imei_len = strlen(imei);
 960              		.loc 1 133 24 view .LVU221
 961 000a 4068     		ldr	r0, [r0, #4]
 962              	.LVL69:
 133:SynaptiX_FDK/app/user/sx_mqtt/sx_user_mqtt.c ****     size_t imei_len = strlen(imei);
 963              		.loc 1 133 24 view .LVU222
 964 000c 9847     		blx	r3
 965              	.LVL70:
 966 000e 0546     		mov	r5, r0
 967              	.LVL71:
 134:SynaptiX_FDK/app/user/sx_mqtt/sx_user_mqtt.c ****     const char *imei_suffix = imei_len >= 8 ? imei + imei_len - 8 : imei;
 968              		.loc 1 134 5 is_stmt 1 view .LVU223
 134:SynaptiX_FDK/app/user/sx_mqtt/sx_user_mqtt.c ****     const char *imei_suffix = imei_len >= 8 ? imei + imei_len - 8 : imei;
 969              		.loc 1 134 23 is_stmt 0 view .LVU224
 970 0010 FFF7FEFF 		bl	strlen
 971              	.LVL72:
 135:SynaptiX_FDK/app/user/sx_mqtt/sx_user_mqtt.c ****     snprintf(s_client_id_buf, sizeof(s_client_id_buf), "stm32h5_%s", imei_suffix);
 972              		.loc 1 135 5 is_stmt 1 view .LVU225
 135:SynaptiX_FDK/app/user/sx_mqtt/sx_user_mqtt.c ****     snprintf(s_client_id_buf, sizeof(s_client_id_buf), "stm32h5_%s", imei_suffix);
 973              		.loc 1 135 67 is_stmt 0 view .LVU226
 974 0014 0728     		cmp	r0, #7
 975 0016 02D9     		bls	.L56
 135:SynaptiX_FDK/app/user/sx_mqtt/sx_user_mqtt.c ****     snprintf(s_client_id_buf, sizeof(s_client_id_buf), "stm32h5_%s", imei_suffix);
 976              		.loc 1 135 63 discriminator 1 view .LVU227
 977 0018 A0F10802 		sub	r2, r0, #8
 135:SynaptiX_FDK/app/user/sx_mqtt/sx_user_mqtt.c ****     snprintf(s_client_id_buf, sizeof(s_client_id_buf), "stm32h5_%s", imei_suffix);
 978              		.loc 1 135 67 discriminator 1 view .LVU228
 979 001c 1544     		add	r5, r5, r2
 980              	.LVL73:
 981              	.L56:
 136:SynaptiX_FDK/app/user/sx_mqtt/sx_user_mqtt.c **** 
 982              		.loc 1 136 5 is_stmt 1 view .LVU229
 983 001e 0F4E     		ldr	r6, .L58
 984 0020 2B46     		mov	r3, r5
 985 0022 0F4A     		ldr	r2, .L58+4
 986 0024 2021     		movs	r1, #32
 987 0026 3046     		mov	r0, r6
 988              	.LVL74:
 136:SynaptiX_FDK/app/user/sx_mqtt/sx_user_mqtt.c **** 
 989              		.loc 1 136 5 is_stmt 0 view .LVU230
 990 0028 FFF7FEFF 		bl	snprintf
 991              	.LVL75:
 138:SynaptiX_FDK/app/user/sx_mqtt/sx_user_mqtt.c **** 
 992              		.loc 1 138 5 is_stmt 1 view .LVU231
 138:SynaptiX_FDK/app/user/sx_mqtt/sx_user_mqtt.c **** 
ARM GAS  C:\Users\DELL\AppData\Local\Temp\cclsnC7x.s 			page 27


 993              		.loc 1 138 29 is_stmt 0 view .LVU232
 994 002c 0D4F     		ldr	r7, .L58+8
 995 002e FE60     		str	r6, [r7, #12]
 140:SynaptiX_FDK/app/user/sx_mqtt/sx_user_mqtt.c ****              modem->ops->get_ip(modem->ctx), modem->ops->get_rssi(modem->ctx),
 996              		.loc 1 140 5 is_stmt 1 view .LVU233
 997 0030 2368     		ldr	r3, [r4]
 998 0032 9B6C     		ldr	r3, [r3, #72]
 999 0034 6068     		ldr	r0, [r4, #4]
 1000 0036 9847     		blx	r3
 1001              	.LVL76:
 1002 0038 0546     		mov	r5, r0
 1003              	.LVL77:
 140:SynaptiX_FDK/app/user/sx_mqtt/sx_user_mqtt.c ****              modem->ops->get_ip(modem->ctx), modem->ops->get_rssi(modem->ctx),
 1004              		.loc 1 140 5 is_stmt 0 discriminator 1 view .LVU234
 1005 003a 2368     		ldr	r3, [r4]
 1006 003c 5B6C     		ldr	r3, [r3, #68]
 1007 003e 6068     		ldr	r0, [r4, #4]
 1008 0040 9847     		blx	r3
 1009              	.LVL78:
 140:SynaptiX_FDK/app/user/sx_mqtt/sx_user_mqtt.c ****              modem->ops->get_ip(modem->ctx), modem->ops->get_rssi(modem->ctx),
 1010              		.loc 1 140 5 discriminator 2 view .LVU235
 1011 0042 0196     		str	r6, [sp, #4]
 1012 0044 0090     		str	r0, [sp]
 1013 0046 2B46     		mov	r3, r5
 1014 0048 074A     		ldr	r2, .L58+12
 1015 004a 0849     		ldr	r1, .L58+16
 1016 004c 0320     		movs	r0, #3
 1017 004e FFF7FEFF 		bl	log_func
 1018              	.LVL79:
 143:SynaptiX_FDK/app/user/sx_mqtt/sx_user_mqtt.c **** }
 1019              		.loc 1 143 5 is_stmt 1 view .LVU236
 1020 0052 3846     		mov	r0, r7
 1021 0054 FFF7FEFF 		bl	sx_mqtt_connect
 1022              	.LVL80:
 144:SynaptiX_FDK/app/user/sx_mqtt/sx_user_mqtt.c **** 
 1023              		.loc 1 144 1 is_stmt 0 view .LVU237
 1024 0058 03B0     		add	sp, sp, #12
 1025              	.LCFI20:
 1026              		.cfi_def_cfa_offset 20
 1027              		@ sp needed
 1028 005a F0BD     		pop	{r4, r5, r6, r7, pc}
 1029              	.LVL81:
 1030              	.L59:
 144:SynaptiX_FDK/app/user/sx_mqtt/sx_user_mqtt.c **** 
 1031              		.loc 1 144 1 view .LVU238
 1032              		.align	2
 1033              	.L58:
 1034 005c 00000000 		.word	s_client_id_buf
 1035 0060 00000000 		.word	.LC14
 1036 0064 00000000 		.word	s_mqtt
 1037 0068 0C000000 		.word	.LC15
 1038 006c 10000000 		.word	.LC1
 1039              		.cfi_endproc
 1040              	.LFE347:
 1042              		.section	.text.sx_user_mqtt_is_connected,"ax",%progbits
 1043              		.align	1
 1044              		.global	sx_user_mqtt_is_connected
ARM GAS  C:\Users\DELL\AppData\Local\Temp\cclsnC7x.s 			page 28


 1045              		.syntax unified
 1046              		.thumb
 1047              		.thumb_func
 1049              	sx_user_mqtt_is_connected:
 1050              	.LFB351:
 205:SynaptiX_FDK/app/user/sx_mqtt/sx_user_mqtt.c **** 
 206:SynaptiX_FDK/app/user/sx_mqtt/sx_user_mqtt.c **** uint8_t sx_user_mqtt_is_connected(void) {
 1051              		.loc 1 206 41 is_stmt 1 view -0
 1052              		.cfi_startproc
 1053              		@ args = 0, pretend = 0, frame = 0
 1054              		@ frame_needed = 0, uses_anonymous_args = 0
 1055              		@ link register save eliminated.
 207:SynaptiX_FDK/app/user/sx_mqtt/sx_user_mqtt.c ****     return sx_mqtt_is_connected(&s_mqtt);
 1056              		.loc 1 207 5 view .LVU240
 1057              	.LVL82:
 1058              	.LBB36:
 1059              	.LBI36:
 107:SynaptiX_FDK/services/mqtt/sx_mqtt.h ****     return (mqtt->state == SX_MQTT_STATE_CONNECTED);
 1060              		.loc 2 107 23 view .LVU241
 1061              	.LBB37:
 108:SynaptiX_FDK/services/mqtt/sx_mqtt.h **** }
 1062              		.loc 2 108 5 view .LVU242
 108:SynaptiX_FDK/services/mqtt/sx_mqtt.h **** }
 1063              		.loc 2 108 17 is_stmt 0 view .LVU243
 1064 0000 034B     		ldr	r3, .L61
 1065 0002 93F82C00 		ldrb	r0, [r3, #44]	@ zero_extendqisi2
 1066              	.LVL83:
 108:SynaptiX_FDK/services/mqtt/sx_mqtt.h **** }
 1067              		.loc 2 108 17 view .LVU244
 1068              	.LBE37:
 1069              	.LBE36:
 208:SynaptiX_FDK/app/user/sx_mqtt/sx_user_mqtt.c **** }
 1070              		.loc 1 208 1 view .LVU245
 1071 0006 0228     		cmp	r0, #2
 1072 0008 14BF     		ite	ne
 1073 000a 0020     		movne	r0, #0
 1074 000c 0120     		moveq	r0, #1
 1075 000e 7047     		bx	lr
 1076              	.L62:
 1077              		.align	2
 1078              	.L61:
 1079 0010 00000000 		.word	s_mqtt
 1080              		.cfi_endproc
 1081              	.LFE351:
 1083              		.section	.text.sx_user_mqtt_get_ip,"ax",%progbits
 1084              		.align	1
 1085              		.global	sx_user_mqtt_get_ip
 1086              		.syntax unified
 1087              		.thumb
 1088              		.thumb_func
 1090              	sx_user_mqtt_get_ip:
 1091              	.LFB352:
 209:SynaptiX_FDK/app/user/sx_mqtt/sx_user_mqtt.c **** 
 210:SynaptiX_FDK/app/user/sx_mqtt/sx_user_mqtt.c **** const char *sx_user_mqtt_get_ip(void) {
 1092              		.loc 1 210 39 is_stmt 1 view -0
 1093              		.cfi_startproc
 1094              		@ args = 0, pretend = 0, frame = 0
ARM GAS  C:\Users\DELL\AppData\Local\Temp\cclsnC7x.s 			page 29


 1095              		@ frame_needed = 0, uses_anonymous_args = 0
 1096 0000 08B5     		push	{r3, lr}
 1097              	.LCFI21:
 1098              		.cfi_def_cfa_offset 8
 1099              		.cfi_offset 3, -8
 1100              		.cfi_offset 14, -4
 211:SynaptiX_FDK/app/user/sx_mqtt/sx_user_mqtt.c ****     return board.modem.ops->get_ip(board.modem.ctx);
 1101              		.loc 1 211 5 view .LVU247
 1102              		.loc 1 211 23 is_stmt 0 view .LVU248
 1103 0002 044B     		ldr	r3, .L65
 1104 0004 D3F8DC2B 		ldr	r2, [r3, #3036]
 1105              		.loc 1 211 27 view .LVU249
 1106 0008 926C     		ldr	r2, [r2, #72]
 1107              		.loc 1 211 12 view .LVU250
 1108 000a D3F8E00B 		ldr	r0, [r3, #3040]
 1109 000e 9047     		blx	r2
 1110              	.LVL84:
 212:SynaptiX_FDK/app/user/sx_mqtt/sx_user_mqtt.c **** }
 1111              		.loc 1 212 1 view .LVU251
 1112 0010 08BD     		pop	{r3, pc}
 1113              	.L66:
 1114 0012 00BF     		.align	2
 1115              	.L65:
 1116 0014 00D00000 		.word	board+53248
 1117              		.cfi_endproc
 1118              	.LFE352:
 1120              		.section	.text.sx_user_mqtt_get_imei,"ax",%progbits
 1121              		.align	1
 1122              		.global	sx_user_mqtt_get_imei
 1123              		.syntax unified
 1124              		.thumb
 1125              		.thumb_func
 1127              	sx_user_mqtt_get_imei:
 1128              	.LFB353:
 213:SynaptiX_FDK/app/user/sx_mqtt/sx_user_mqtt.c **** 
 214:SynaptiX_FDK/app/user/sx_mqtt/sx_user_mqtt.c **** const char *sx_user_mqtt_get_imei(void) {
 1129              		.loc 1 214 41 is_stmt 1 view -0
 1130              		.cfi_startproc
 1131              		@ args = 0, pretend = 0, frame = 0
 1132              		@ frame_needed = 0, uses_anonymous_args = 0
 1133 0000 08B5     		push	{r3, lr}
 1134              	.LCFI22:
 1135              		.cfi_def_cfa_offset 8
 1136              		.cfi_offset 3, -8
 1137              		.cfi_offset 14, -4
 215:SynaptiX_FDK/app/user/sx_mqtt/sx_user_mqtt.c ****     return board.modem.ops->get_imei(board.modem.ctx);
 1138              		.loc 1 215 5 view .LVU253
 1139              		.loc 1 215 23 is_stmt 0 view .LVU254
 1140 0002 044B     		ldr	r3, .L69
 1141 0004 D3F8DC2B 		ldr	r2, [r3, #3036]
 1142              		.loc 1 215 27 view .LVU255
 1143 0008 126C     		ldr	r2, [r2, #64]
 1144              		.loc 1 215 12 view .LVU256
 1145 000a D3F8E00B 		ldr	r0, [r3, #3040]
 1146 000e 9047     		blx	r2
 1147              	.LVL85:
 216:SynaptiX_FDK/app/user/sx_mqtt/sx_user_mqtt.c **** }
ARM GAS  C:\Users\DELL\AppData\Local\Temp\cclsnC7x.s 			page 30


 1148              		.loc 1 216 1 view .LVU257
 1149 0010 08BD     		pop	{r3, pc}
 1150              	.L70:
 1151 0012 00BF     		.align	2
 1152              	.L69:
 1153 0014 00D00000 		.word	board+53248
 1154              		.cfi_endproc
 1155              	.LFE353:
 1157              		.section	.text.sx_user_mqtt_get_rssi,"ax",%progbits
 1158              		.align	1
 1159              		.global	sx_user_mqtt_get_rssi
 1160              		.syntax unified
 1161              		.thumb
 1162              		.thumb_func
 1164              	sx_user_mqtt_get_rssi:
 1165              	.LFB354:
 217:SynaptiX_FDK/app/user/sx_mqtt/sx_user_mqtt.c **** 
 218:SynaptiX_FDK/app/user/sx_mqtt/sx_user_mqtt.c **** int sx_user_mqtt_get_rssi(void) {
 1166              		.loc 1 218 33 is_stmt 1 view -0
 1167              		.cfi_startproc
 1168              		@ args = 0, pretend = 0, frame = 0
 1169              		@ frame_needed = 0, uses_anonymous_args = 0
 1170 0000 08B5     		push	{r3, lr}
 1171              	.LCFI23:
 1172              		.cfi_def_cfa_offset 8
 1173              		.cfi_offset 3, -8
 1174              		.cfi_offset 14, -4
 219:SynaptiX_FDK/app/user/sx_mqtt/sx_user_mqtt.c ****     return board.modem.ops->get_rssi(board.modem.ctx);
 1175              		.loc 1 219 5 view .LVU259
 1176              		.loc 1 219 23 is_stmt 0 view .LVU260
 1177 0002 044B     		ldr	r3, .L73
 1178 0004 D3F8DC2B 		ldr	r2, [r3, #3036]
 1179              		.loc 1 219 27 view .LVU261
 1180 0008 526C     		ldr	r2, [r2, #68]
 1181              		.loc 1 219 12 view .LVU262
 1182 000a D3F8E00B 		ldr	r0, [r3, #3040]
 1183 000e 9047     		blx	r2
 1184              	.LVL86:
 220:SynaptiX_FDK/app/user/sx_mqtt/sx_user_mqtt.c **** }
 1185              		.loc 1 220 1 view .LVU263
 1186 0010 08BD     		pop	{r3, pc}
 1187              	.L74:
 1188 0012 00BF     		.align	2
 1189              	.L73:
 1190 0014 00D00000 		.word	board+53248
 1191              		.cfi_endproc
 1192              	.LFE354:
 1194              		.section	.text.sx_user_mqtt_nontls_init,"ax",%progbits
 1195              		.align	1
 1196              		.global	sx_user_mqtt_nontls_init
 1197              		.syntax unified
 1198              		.thumb
 1199              		.thumb_func
 1201              	sx_user_mqtt_nontls_init:
 1202              	.LVL87:
 1203              	.LFB355:
 221:SynaptiX_FDK/app/user/sx_mqtt/sx_user_mqtt.c **** 
ARM GAS  C:\Users\DELL\AppData\Local\Temp\cclsnC7x.s 			page 31


 222:SynaptiX_FDK/app/user/sx_mqtt/sx_user_mqtt.c **** int sx_user_mqtt_nontls_init(const sx_user_mqtt_cfg_t *cfg){
 1204              		.loc 1 222 60 is_stmt 1 view -0
 1205              		.cfi_startproc
 1206              		@ args = 0, pretend = 0, frame = 0
 1207              		@ frame_needed = 0, uses_anonymous_args = 0
 1208              		.loc 1 222 60 is_stmt 0 view .LVU265
 1209 0000 38B5     		push	{r3, r4, r5, lr}
 1210              	.LCFI24:
 1211              		.cfi_def_cfa_offset 16
 1212              		.cfi_offset 3, -16
 1213              		.cfi_offset 4, -12
 1214              		.cfi_offset 5, -8
 1215              		.cfi_offset 14, -4
 1216 0002 0446     		mov	r4, r0
 223:SynaptiX_FDK/app/user/sx_mqtt/sx_user_mqtt.c ****     static sx_mqtt_config_t mqtt_cfg;
 1217              		.loc 1 223 5 is_stmt 1 view .LVU266
 224:SynaptiX_FDK/app/user/sx_mqtt/sx_user_mqtt.c ****     memset(&mqtt_cfg, 0, sizeof(mqtt_cfg));
 1218              		.loc 1 224 5 view .LVU267
 1219 0004 054D     		ldr	r5, .L77
 1220 0006 2822     		movs	r2, #40
 1221 0008 0021     		movs	r1, #0
 1222 000a 2846     		mov	r0, r5
 1223              	.LVL88:
 1224              		.loc 1 224 5 is_stmt 0 view .LVU268
 1225 000c FFF7FEFF 		bl	memset
 1226              	.LVL89:
 225:SynaptiX_FDK/app/user/sx_mqtt/sx_user_mqtt.c ****     mqtt_cfg.use_ssl = 0;
 1227              		.loc 1 225 5 is_stmt 1 view .LVU269
 226:SynaptiX_FDK/app/user/sx_mqtt/sx_user_mqtt.c ****     return _common_init(cfg, &mqtt_cfg);
 1228              		.loc 1 226 5 view .LVU270
 1229              		.loc 1 226 12 is_stmt 0 view .LVU271
 1230 0010 2946     		mov	r1, r5
 1231 0012 2046     		mov	r0, r4
 1232 0014 FFF7FEFF 		bl	_common_init
 1233              	.LVL90:
 227:SynaptiX_FDK/app/user/sx_mqtt/sx_user_mqtt.c **** }
 1234              		.loc 1 227 1 view .LVU272
 1235 0018 38BD     		pop	{r3, r4, r5, pc}
 1236              	.LVL91:
 1237              	.L78:
 1238              		.loc 1 227 1 view .LVU273
 1239 001a 00BF     		.align	2
 1240              	.L77:
 1241 001c 00000000 		.word	mqtt_cfg.1
 1242              		.cfi_endproc
 1243              	.LFE355:
 1245              		.section	.text.sx_user_mqtt_tls_init,"ax",%progbits
 1246              		.align	1
 1247              		.global	sx_user_mqtt_tls_init
 1248              		.syntax unified
 1249              		.thumb
 1250              		.thumb_func
 1252              	sx_user_mqtt_tls_init:
 1253              	.LVL92:
 1254              	.LFB356:
 228:SynaptiX_FDK/app/user/sx_mqtt/sx_user_mqtt.c **** 
 229:SynaptiX_FDK/app/user/sx_mqtt/sx_user_mqtt.c **** int sx_user_mqtt_tls_init(const sx_user_mqtt_cfg_t *cfg, char *ca_cert, char *client_cert, char *cl
ARM GAS  C:\Users\DELL\AppData\Local\Temp\cclsnC7x.s 			page 32


 1255              		.loc 1 229 109 is_stmt 1 view -0
 1256              		.cfi_startproc
 1257              		@ args = 0, pretend = 0, frame = 0
 1258              		@ frame_needed = 0, uses_anonymous_args = 0
 1259              		.loc 1 229 109 is_stmt 0 view .LVU275
 1260 0000 2DE9F041 		push	{r4, r5, r6, r7, r8, lr}
 1261              	.LCFI25:
 1262              		.cfi_def_cfa_offset 24
 1263              		.cfi_offset 4, -24
 1264              		.cfi_offset 5, -20
 1265              		.cfi_offset 6, -16
 1266              		.cfi_offset 7, -12
 1267              		.cfi_offset 8, -8
 1268              		.cfi_offset 14, -4
 1269 0004 8046     		mov	r8, r0
 1270 0006 0F46     		mov	r7, r1
 1271 0008 1446     		mov	r4, r2
 1272 000a 1D46     		mov	r5, r3
 230:SynaptiX_FDK/app/user/sx_mqtt/sx_user_mqtt.c ****     static sx_mqtt_config_t mqtt_cfg;
 1273              		.loc 1 230 5 is_stmt 1 view .LVU276
 231:SynaptiX_FDK/app/user/sx_mqtt/sx_user_mqtt.c ****     memset(&mqtt_cfg, 0, sizeof(mqtt_cfg));
 1274              		.loc 1 231 5 view .LVU277
 1275 000c 0D4E     		ldr	r6, .L83
 1276 000e 2822     		movs	r2, #40
 1277              	.LVL93:
 1278              		.loc 1 231 5 is_stmt 0 view .LVU278
 1279 0010 0021     		movs	r1, #0
 1280              	.LVL94:
 1281              		.loc 1 231 5 view .LVU279
 1282 0012 3046     		mov	r0, r6
 1283              	.LVL95:
 1284              		.loc 1 231 5 view .LVU280
 1285 0014 FFF7FEFF 		bl	memset
 1286              	.LVL96:
 232:SynaptiX_FDK/app/user/sx_mqtt/sx_user_mqtt.c ****     mqtt_cfg.use_ssl = 1;
 1287              		.loc 1 232 5 is_stmt 1 view .LVU281
 1288              		.loc 1 232 22 is_stmt 0 view .LVU282
 1289 0018 0123     		movs	r3, #1
 1290 001a 3376     		strb	r3, [r6, #24]
 233:SynaptiX_FDK/app/user/sx_mqtt/sx_user_mqtt.c **** 
 234:SynaptiX_FDK/app/user/sx_mqtt/sx_user_mqtt.c ****     if (client_cert && client_key)
 1291              		.loc 1 234 5 is_stmt 1 view .LVU283
 1292              		.loc 1 234 8 is_stmt 0 view .LVU284
 1293 001c 5CB1     		cbz	r4, .L80
 1294              		.loc 1 234 21 discriminator 1 view .LVU285
 1295 001e 55B1     		cbz	r5, .L80
 235:SynaptiX_FDK/app/user/sx_mqtt/sx_user_mqtt.c ****         mqtt_cfg.ssl_auth_mode = 2;
 1296              		.loc 1 235 9 is_stmt 1 view .LVU286
 1297              		.loc 1 235 32 is_stmt 0 view .LVU287
 1298 0020 0222     		movs	r2, #2
 1299 0022 7276     		strb	r2, [r6, #25]
 1300              	.L81:
 236:SynaptiX_FDK/app/user/sx_mqtt/sx_user_mqtt.c ****     else if (ca_cert)
 237:SynaptiX_FDK/app/user/sx_mqtt/sx_user_mqtt.c ****         mqtt_cfg.ssl_auth_mode = 1;
 238:SynaptiX_FDK/app/user/sx_mqtt/sx_user_mqtt.c ****     else
 239:SynaptiX_FDK/app/user/sx_mqtt/sx_user_mqtt.c ****         mqtt_cfg.ssl_auth_mode = 0;
 240:SynaptiX_FDK/app/user/sx_mqtt/sx_user_mqtt.c **** 
ARM GAS  C:\Users\DELL\AppData\Local\Temp\cclsnC7x.s 			page 33


 241:SynaptiX_FDK/app/user/sx_mqtt/sx_user_mqtt.c ****     mqtt_cfg.ca_cert     = ca_cert;
 1301              		.loc 1 241 5 is_stmt 1 view .LVU288
 1302              		.loc 1 241 26 is_stmt 0 view .LVU289
 1303 0024 0749     		ldr	r1, .L83
 1304 0026 CF61     		str	r7, [r1, #28]
 242:SynaptiX_FDK/app/user/sx_mqtt/sx_user_mqtt.c ****     mqtt_cfg.client_cert = client_cert;
 1305              		.loc 1 242 5 is_stmt 1 view .LVU290
 1306              		.loc 1 242 26 is_stmt 0 view .LVU291
 1307 0028 0C62     		str	r4, [r1, #32]
 243:SynaptiX_FDK/app/user/sx_mqtt/sx_user_mqtt.c ****     mqtt_cfg.client_key  = client_key;
 1308              		.loc 1 243 5 is_stmt 1 view .LVU292
 1309              		.loc 1 243 26 is_stmt 0 view .LVU293
 1310 002a 4D62     		str	r5, [r1, #36]
 244:SynaptiX_FDK/app/user/sx_mqtt/sx_user_mqtt.c **** 
 245:SynaptiX_FDK/app/user/sx_mqtt/sx_user_mqtt.c ****     return _common_init(cfg, &mqtt_cfg);
 1311              		.loc 1 245 5 is_stmt 1 view .LVU294
 1312              		.loc 1 245 12 is_stmt 0 view .LVU295
 1313 002c 4046     		mov	r0, r8
 1314 002e FFF7FEFF 		bl	_common_init
 1315              	.LVL97:
 246:SynaptiX_FDK/app/user/sx_mqtt/sx_user_mqtt.c **** }
 1316              		.loc 1 246 1 view .LVU296
 1317 0032 BDE8F081 		pop	{r4, r5, r6, r7, r8, pc}
 1318              	.LVL98:
 1319              	.L80:
 236:SynaptiX_FDK/app/user/sx_mqtt/sx_user_mqtt.c ****         mqtt_cfg.ssl_auth_mode = 1;
 1320              		.loc 1 236 10 is_stmt 1 view .LVU297
 236:SynaptiX_FDK/app/user/sx_mqtt/sx_user_mqtt.c ****         mqtt_cfg.ssl_auth_mode = 1;
 1321              		.loc 1 236 13 is_stmt 0 view .LVU298
 1322 0036 002F     		cmp	r7, #0
 1323 0038 F4D0     		beq	.L81
 237:SynaptiX_FDK/app/user/sx_mqtt/sx_user_mqtt.c ****     else
 1324              		.loc 1 237 9 is_stmt 1 view .LVU299
 237:SynaptiX_FDK/app/user/sx_mqtt/sx_user_mqtt.c ****     else
 1325              		.loc 1 237 32 is_stmt 0 view .LVU300
 1326 003a 024B     		ldr	r3, .L83
 1327 003c 0122     		movs	r2, #1
 1328 003e 5A76     		strb	r2, [r3, #25]
 1329 0040 F0E7     		b	.L81
 1330              	.L84:
 1331 0042 00BF     		.align	2
 1332              	.L83:
 1333 0044 00000000 		.word	mqtt_cfg.0
 1334              		.cfi_endproc
 1335              	.LFE356:
 1337              		.section	.text.sx_user_mqtt_force_disconnect,"ax",%progbits
 1338              		.align	1
 1339              		.global	sx_user_mqtt_force_disconnect
 1340              		.syntax unified
 1341              		.thumb
 1342              		.thumb_func
 1344              	sx_user_mqtt_force_disconnect:
 1345              	.LFB357:
 247:SynaptiX_FDK/app/user/sx_mqtt/sx_user_mqtt.c **** 
 248:SynaptiX_FDK/app/user/sx_mqtt/sx_user_mqtt.c **** void sx_user_mqtt_force_disconnect(void) {
 1346              		.loc 1 248 42 is_stmt 1 view -0
 1347              		.cfi_startproc
ARM GAS  C:\Users\DELL\AppData\Local\Temp\cclsnC7x.s 			page 34


 1348              		@ args = 0, pretend = 0, frame = 0
 1349              		@ frame_needed = 0, uses_anonymous_args = 0
 1350              		@ link register save eliminated.
 249:SynaptiX_FDK/app/user/sx_mqtt/sx_user_mqtt.c ****     sx_mqtt_force_disconnect(&s_mqtt);
 1351              		.loc 1 249 5 view .LVU302
 1352              	.LVL99:
 1353              	.LBB38:
 1354              	.LBI38:
 126:SynaptiX_FDK/services/mqtt/sx_mqtt.h **** }
 127:SynaptiX_FDK/services/mqtt/sx_mqtt.h **** 
 128:SynaptiX_FDK/services/mqtt/sx_mqtt.h **** static inline void sx_mqtt_force_disconnect(sx_mqtt_t *mqtt) {
 1355              		.loc 2 128 20 view .LVU303
 1356              	.LBB39:
 129:SynaptiX_FDK/services/mqtt/sx_mqtt.h ****     mqtt->state           = SX_MQTT_STATE_DISCONNECTED;
 1357              		.loc 2 129 5 view .LVU304
 1358              		.loc 2 129 27 is_stmt 0 view .LVU305
 1359 0000 034B     		ldr	r3, .L86
 1360 0002 0022     		movs	r2, #0
 1361 0004 83F82C20 		strb	r2, [r3, #44]
 130:SynaptiX_FDK/services/mqtt/sx_mqtt.h ****     mqtt->reconnect_count = 0;
 1362              		.loc 2 130 5 is_stmt 1 view .LVU306
 1363              		.loc 2 130 27 is_stmt 0 view .LVU307
 1364 0008 83F83820 		strb	r2, [r3, #56]
 131:SynaptiX_FDK/services/mqtt/sx_mqtt.h ****     mqtt->reconnect_elapsed = 0;
 1365              		.loc 2 131 5 is_stmt 1 view .LVU308
 1366              		.loc 2 131 29 is_stmt 0 view .LVU309
 1367 000c 1A63     		str	r2, [r3, #48]
 1368              	.LVL100:
 1369              		.loc 2 131 29 view .LVU310
 1370              	.LBE39:
 1371              	.LBE38:
 250:SynaptiX_FDK/app/user/sx_mqtt/sx_user_mqtt.c **** }
 1372              		.loc 1 250 1 view .LVU311
 1373 000e 7047     		bx	lr
 1374              	.L87:
 1375              		.align	2
 1376              	.L86:
 1377 0010 00000000 		.word	s_mqtt
 1378              		.cfi_endproc
 1379              	.LFE357:
 1381              		.section	.rodata.sx_user_mqtt_publish.str1.4,"aMS",%progbits,1
 1382              		.align	2
 1383              	.LC16:
 1384 0000 7075626C 		.ascii	"publish: not connected\000"
 1384      6973683A 
 1384      206E6F74 
 1384      20636F6E 
 1384      6E656374 
 1385 0017 00       		.align	2
 1386              	.LC17:
 1387 0018 7075626C 		.ascii	"publish queue full, drop: %s\000"
 1387      69736820 
 1387      71756575 
 1387      65206675 
 1387      6C6C2C20 
 1388              		.section	.text.sx_user_mqtt_publish,"ax",%progbits
 1389              		.align	1
ARM GAS  C:\Users\DELL\AppData\Local\Temp\cclsnC7x.s 			page 35


 1390              		.global	sx_user_mqtt_publish
 1391              		.syntax unified
 1392              		.thumb
 1393              		.thumb_func
 1395              	sx_user_mqtt_publish:
 1396              	.LVL101:
 1397              	.LFB358:
 251:SynaptiX_FDK/app/user/sx_mqtt/sx_user_mqtt.c **** 
 252:SynaptiX_FDK/app/user/sx_mqtt/sx_user_mqtt.c **** void sx_user_mqtt_publish(const char *topic, const char *message){
 1398              		.loc 1 252 66 is_stmt 1 view -0
 1399              		.cfi_startproc
 1400              		@ args = 0, pretend = 0, frame = 384
 1401              		@ frame_needed = 0, uses_anonymous_args = 0
 1402              		.loc 1 252 66 is_stmt 0 view .LVU313
 1403 0000 70B5     		push	{r4, r5, r6, lr}
 1404              	.LCFI26:
 1405              		.cfi_def_cfa_offset 16
 1406              		.cfi_offset 4, -16
 1407              		.cfi_offset 5, -12
 1408              		.cfi_offset 6, -8
 1409              		.cfi_offset 14, -4
 1410 0002 E2B0     		sub	sp, sp, #392
 1411              	.LCFI27:
 1412              		.cfi_def_cfa_offset 408
 253:SynaptiX_FDK/app/user/sx_mqtt/sx_user_mqtt.c ****     if (!sx_mqtt_is_connected(&s_mqtt)) { log_warn(TAG, "publish: not connected"); return; }
 1413              		.loc 1 253 5 is_stmt 1 view .LVU314
 1414              	.LVL102:
 1415              	.LBB40:
 1416              	.LBI40:
 107:SynaptiX_FDK/services/mqtt/sx_mqtt.h ****     return (mqtt->state == SX_MQTT_STATE_CONNECTED);
 1417              		.loc 2 107 23 view .LVU315
 1418              	.LBB41:
 108:SynaptiX_FDK/services/mqtt/sx_mqtt.h **** }
 1419              		.loc 2 108 5 view .LVU316
 108:SynaptiX_FDK/services/mqtt/sx_mqtt.h **** }
 1420              		.loc 2 108 17 is_stmt 0 view .LVU317
 1421 0004 1F4B     		ldr	r3, .L96
 1422 0006 93F82C30 		ldrb	r3, [r3, #44]	@ zero_extendqisi2
 1423              	.LVL103:
 108:SynaptiX_FDK/services/mqtt/sx_mqtt.h **** }
 1424              		.loc 2 108 17 view .LVU318
 1425              	.LBE41:
 1426              	.LBE40:
 1427              		.loc 1 253 8 discriminator 1 view .LVU319
 1428 000a 022B     		cmp	r3, #2
 1429 000c 06D0     		beq	.L89
 1430              		.loc 1 253 43 is_stmt 1 discriminator 1 view .LVU320
 1431 000e 1E4A     		ldr	r2, .L96+4
 1432 0010 1E49     		ldr	r1, .L96+8
 1433              	.LVL104:
 1434              		.loc 1 253 43 is_stmt 0 discriminator 1 view .LVU321
 1435 0012 0220     		movs	r0, #2
 1436              	.LVL105:
 1437              		.loc 1 253 43 discriminator 1 view .LVU322
 1438 0014 FFF7FEFF 		bl	log_func
 1439              	.LVL106:
 1440              		.loc 1 253 84 is_stmt 1 discriminator 1 view .LVU323
ARM GAS  C:\Users\DELL\AppData\Local\Temp\cclsnC7x.s 			page 36


 1441              	.L88:
 254:SynaptiX_FDK/app/user/sx_mqtt/sx_user_mqtt.c **** 
 255:SynaptiX_FDK/app/user/sx_mqtt/sx_user_mqtt.c ****     mqtt_queue_item_t item;
 256:SynaptiX_FDK/app/user/sx_mqtt/sx_user_mqtt.c ****     strncpy(item.topic,   topic,   sizeof(item.topic)   - 1);
 257:SynaptiX_FDK/app/user/sx_mqtt/sx_user_mqtt.c ****     strncpy(item.message, message, sizeof(item.message) - 1);
 258:SynaptiX_FDK/app/user/sx_mqtt/sx_user_mqtt.c ****     item.topic  [sizeof(item.topic)   - 1] = '\0';
 259:SynaptiX_FDK/app/user/sx_mqtt/sx_user_mqtt.c ****     item.message[sizeof(item.message) - 1] = '\0';
 260:SynaptiX_FDK/app/user/sx_mqtt/sx_user_mqtt.c **** 
 261:SynaptiX_FDK/app/user/sx_mqtt/sx_user_mqtt.c ****     if (!cqueue_send(&s_queue, &item)) {
 262:SynaptiX_FDK/app/user/sx_mqtt/sx_user_mqtt.c ****         log_warn(TAG, "publish queue full, drop: %s", topic);
 263:SynaptiX_FDK/app/user/sx_mqtt/sx_user_mqtt.c ****         return;
 264:SynaptiX_FDK/app/user/sx_mqtt/sx_user_mqtt.c ****     }
 265:SynaptiX_FDK/app/user/sx_mqtt/sx_user_mqtt.c **** 
 266:SynaptiX_FDK/app/user/sx_mqtt/sx_user_mqtt.c ****     if (!s_publishing) {
 267:SynaptiX_FDK/app/user/sx_mqtt/sx_user_mqtt.c ****         if (cqueue_receive(&s_queue, &s_current_item)) {
 268:SynaptiX_FDK/app/user/sx_mqtt/sx_user_mqtt.c ****             s_publishing = 1;
 269:SynaptiX_FDK/app/user/sx_mqtt/sx_user_mqtt.c ****             sx_mqtt_publish(&s_mqtt, s_current_item.topic, s_current_item.message, 1, 0);
 270:SynaptiX_FDK/app/user/sx_mqtt/sx_user_mqtt.c ****         }
 271:SynaptiX_FDK/app/user/sx_mqtt/sx_user_mqtt.c ****     }
 272:SynaptiX_FDK/app/user/sx_mqtt/sx_user_mqtt.c **** }
 1442              		.loc 1 272 1 is_stmt 0 view .LVU324
 1443 0018 62B0     		add	sp, sp, #392
 1444              	.LCFI28:
 1445              		.cfi_remember_state
 1446              		.cfi_def_cfa_offset 16
 1447              		@ sp needed
 1448 001a 70BD     		pop	{r4, r5, r6, pc}
 1449              	.LVL107:
 1450              	.L89:
 1451              	.LCFI29:
 1452              		.cfi_restore_state
 1453              		.loc 1 272 1 view .LVU325
 1454 001c 0446     		mov	r4, r0
 1455 001e 0D46     		mov	r5, r1
 255:SynaptiX_FDK/app/user/sx_mqtt/sx_user_mqtt.c ****     strncpy(item.topic,   topic,   sizeof(item.topic)   - 1);
 1456              		.loc 1 255 5 is_stmt 1 view .LVU326
 256:SynaptiX_FDK/app/user/sx_mqtt/sx_user_mqtt.c ****     strncpy(item.message, message, sizeof(item.message) - 1);
 1457              		.loc 1 256 5 view .LVU327
 1458 0020 02AE     		add	r6, sp, #8
 1459 0022 7F22     		movs	r2, #127
 1460 0024 0146     		mov	r1, r0
 1461              	.LVL108:
 256:SynaptiX_FDK/app/user/sx_mqtt/sx_user_mqtt.c ****     strncpy(item.message, message, sizeof(item.message) - 1);
 1462              		.loc 1 256 5 is_stmt 0 view .LVU328
 1463 0026 3046     		mov	r0, r6
 1464              	.LVL109:
 256:SynaptiX_FDK/app/user/sx_mqtt/sx_user_mqtt.c ****     strncpy(item.message, message, sizeof(item.message) - 1);
 1465              		.loc 1 256 5 view .LVU329
 1466 0028 FFF7FEFF 		bl	strncpy
 1467              	.LVL110:
 257:SynaptiX_FDK/app/user/sx_mqtt/sx_user_mqtt.c ****     item.topic  [sizeof(item.topic)   - 1] = '\0';
 1468              		.loc 1 257 5 is_stmt 1 view .LVU330
 1469 002c FF22     		movs	r2, #255
 1470 002e 2946     		mov	r1, r5
 1471 0030 22A8     		add	r0, sp, #136
 1472 0032 FFF7FEFF 		bl	strncpy
 1473              	.LVL111:
ARM GAS  C:\Users\DELL\AppData\Local\Temp\cclsnC7x.s 			page 37


 258:SynaptiX_FDK/app/user/sx_mqtt/sx_user_mqtt.c ****     item.message[sizeof(item.message) - 1] = '\0';
 1474              		.loc 1 258 5 view .LVU331
 258:SynaptiX_FDK/app/user/sx_mqtt/sx_user_mqtt.c ****     item.message[sizeof(item.message) - 1] = '\0';
 1475              		.loc 1 258 44 is_stmt 0 view .LVU332
 1476 0036 0023     		movs	r3, #0
 1477 0038 8DF88730 		strb	r3, [sp, #135]
 259:SynaptiX_FDK/app/user/sx_mqtt/sx_user_mqtt.c **** 
 1478              		.loc 1 259 5 is_stmt 1 view .LVU333
 259:SynaptiX_FDK/app/user/sx_mqtt/sx_user_mqtt.c **** 
 1479              		.loc 1 259 44 is_stmt 0 view .LVU334
 1480 003c 8DF88731 		strb	r3, [sp, #391]
 261:SynaptiX_FDK/app/user/sx_mqtt/sx_user_mqtt.c ****         log_warn(TAG, "publish queue full, drop: %s", topic);
 1481              		.loc 1 261 5 is_stmt 1 view .LVU335
 261:SynaptiX_FDK/app/user/sx_mqtt/sx_user_mqtt.c ****         log_warn(TAG, "publish queue full, drop: %s", topic);
 1482              		.loc 1 261 10 is_stmt 0 view .LVU336
 1483 0040 3146     		mov	r1, r6
 1484 0042 1348     		ldr	r0, .L96+12
 1485 0044 FFF7FEFF 		bl	cqueue_send
 1486              	.LVL112:
 261:SynaptiX_FDK/app/user/sx_mqtt/sx_user_mqtt.c ****         log_warn(TAG, "publish queue full, drop: %s", topic);
 1487              		.loc 1 261 8 discriminator 1 view .LVU337
 1488 0048 A8B1     		cbz	r0, .L95
 266:SynaptiX_FDK/app/user/sx_mqtt/sx_user_mqtt.c ****         if (cqueue_receive(&s_queue, &s_current_item)) {
 1489              		.loc 1 266 5 is_stmt 1 view .LVU338
 266:SynaptiX_FDK/app/user/sx_mqtt/sx_user_mqtt.c ****         if (cqueue_receive(&s_queue, &s_current_item)) {
 1490              		.loc 1 266 9 is_stmt 0 view .LVU339
 1491 004a 124B     		ldr	r3, .L96+16
 1492 004c 1B78     		ldrb	r3, [r3]	@ zero_extendqisi2
 266:SynaptiX_FDK/app/user/sx_mqtt/sx_user_mqtt.c ****         if (cqueue_receive(&s_queue, &s_current_item)) {
 1493              		.loc 1 266 8 view .LVU340
 1494 004e 002B     		cmp	r3, #0
 1495 0050 E2D1     		bne	.L88
 267:SynaptiX_FDK/app/user/sx_mqtt/sx_user_mqtt.c ****             s_publishing = 1;
 1496              		.loc 1 267 9 is_stmt 1 view .LVU341
 267:SynaptiX_FDK/app/user/sx_mqtt/sx_user_mqtt.c ****             s_publishing = 1;
 1497              		.loc 1 267 13 is_stmt 0 view .LVU342
 1498 0052 1149     		ldr	r1, .L96+20
 1499 0054 0E48     		ldr	r0, .L96+12
 1500 0056 FFF7FEFF 		bl	cqueue_receive
 1501              	.LVL113:
 267:SynaptiX_FDK/app/user/sx_mqtt/sx_user_mqtt.c ****             s_publishing = 1;
 1502              		.loc 1 267 12 discriminator 1 view .LVU343
 1503 005a 0028     		cmp	r0, #0
 1504 005c DCD0     		beq	.L88
 268:SynaptiX_FDK/app/user/sx_mqtt/sx_user_mqtt.c ****             sx_mqtt_publish(&s_mqtt, s_current_item.topic, s_current_item.message, 1, 0);
 1505              		.loc 1 268 13 is_stmt 1 view .LVU344
 268:SynaptiX_FDK/app/user/sx_mqtt/sx_user_mqtt.c ****             sx_mqtt_publish(&s_mqtt, s_current_item.topic, s_current_item.message, 1, 0);
 1506              		.loc 1 268 26 is_stmt 0 view .LVU345
 1507 005e 0123     		movs	r3, #1
 1508 0060 0C4A     		ldr	r2, .L96+16
 1509 0062 1370     		strb	r3, [r2]
 269:SynaptiX_FDK/app/user/sx_mqtt/sx_user_mqtt.c ****         }
 1510              		.loc 1 269 13 is_stmt 1 view .LVU346
 1511 0064 0D4A     		ldr	r2, .L96+24
 1512 0066 0021     		movs	r1, #0
 1513 0068 0091     		str	r1, [sp]
 1514 006a A2F18001 		sub	r1, r2, #128
ARM GAS  C:\Users\DELL\AppData\Local\Temp\cclsnC7x.s 			page 38


 1515 006e 0548     		ldr	r0, .L96
 1516 0070 FFF7FEFF 		bl	sx_mqtt_publish
 1517              	.LVL114:
 1518 0074 D0E7     		b	.L88
 1519              	.L95:
 262:SynaptiX_FDK/app/user/sx_mqtt/sx_user_mqtt.c ****         return;
 1520              		.loc 1 262 9 view .LVU347
 1521 0076 2346     		mov	r3, r4
 1522 0078 094A     		ldr	r2, .L96+28
 1523 007a 0449     		ldr	r1, .L96+8
 1524 007c 0220     		movs	r0, #2
 1525 007e FFF7FEFF 		bl	log_func
 1526              	.LVL115:
 263:SynaptiX_FDK/app/user/sx_mqtt/sx_user_mqtt.c ****     }
 1527              		.loc 1 263 9 view .LVU348
 1528 0082 C9E7     		b	.L88
 1529              	.L97:
 1530              		.align	2
 1531              	.L96:
 1532 0084 00000000 		.word	s_mqtt
 1533 0088 00000000 		.word	.LC16
 1534 008c 10000000 		.word	.LC1
 1535 0090 00000000 		.word	s_queue
 1536 0094 00000000 		.word	s_publishing
 1537 0098 00000000 		.word	s_current_item
 1538 009c 80000000 		.word	s_current_item+128
 1539 00a0 18000000 		.word	.LC17
 1540              		.cfi_endproc
 1541              	.LFE358:
 1543              		.section	.rodata.sx_user_mqtt_subscribe.str1.4,"aMS",%progbits,1
 1544              		.align	2
 1545              	.LC18:
 1546 0000 73756273 		.ascii	"subscribe: not connected\000"
 1546      63726962 
 1546      653A206E 
 1546      6F742063 
 1546      6F6E6E65 
 1547 0019 000000   		.align	2
 1548              	.LC19:
 1549 001c 73756273 		.ascii	"subscribe: NULL topic\000"
 1549      63726962 
 1549      653A204E 
 1549      554C4C20 
 1549      746F7069 
 1550              		.section	.text.sx_user_mqtt_subscribe,"ax",%progbits
 1551              		.align	1
 1552              		.global	sx_user_mqtt_subscribe
 1553              		.syntax unified
 1554              		.thumb
 1555              		.thumb_func
 1557              	sx_user_mqtt_subscribe:
 1558              	.LVL116:
 1559              	.LFB359:
 273:SynaptiX_FDK/app/user/sx_mqtt/sx_user_mqtt.c **** 
 274:SynaptiX_FDK/app/user/sx_mqtt/sx_user_mqtt.c **** void sx_user_mqtt_subscribe(const char *topic){
 1560              		.loc 1 274 47 view -0
 1561              		.cfi_startproc
ARM GAS  C:\Users\DELL\AppData\Local\Temp\cclsnC7x.s 			page 39


 1562              		@ args = 0, pretend = 0, frame = 0
 1563              		@ frame_needed = 0, uses_anonymous_args = 0
 1564              		.loc 1 274 47 is_stmt 0 view .LVU350
 1565 0000 08B5     		push	{r3, lr}
 1566              	.LCFI30:
 1567              		.cfi_def_cfa_offset 8
 1568              		.cfi_offset 3, -8
 1569              		.cfi_offset 14, -4
 275:SynaptiX_FDK/app/user/sx_mqtt/sx_user_mqtt.c ****     if (!sx_mqtt_is_connected(&s_mqtt)) { log_warn(TAG, "subscribe: not connected"); return; }
 1570              		.loc 1 275 5 is_stmt 1 view .LVU351
 1571              	.LVL117:
 1572              	.LBB42:
 1573              	.LBI42:
 107:SynaptiX_FDK/services/mqtt/sx_mqtt.h ****     return (mqtt->state == SX_MQTT_STATE_CONNECTED);
 1574              		.loc 2 107 23 view .LVU352
 1575              	.LBB43:
 108:SynaptiX_FDK/services/mqtt/sx_mqtt.h **** }
 1576              		.loc 2 108 5 view .LVU353
 108:SynaptiX_FDK/services/mqtt/sx_mqtt.h **** }
 1577              		.loc 2 108 17 is_stmt 0 view .LVU354
 1578 0002 0C4B     		ldr	r3, .L105
 1579 0004 93F82C30 		ldrb	r3, [r3, #44]	@ zero_extendqisi2
 1580              	.LVL118:
 108:SynaptiX_FDK/services/mqtt/sx_mqtt.h **** }
 1581              		.loc 2 108 17 view .LVU355
 1582              	.LBE43:
 1583              	.LBE42:
 1584              		.loc 1 275 8 discriminator 1 view .LVU356
 1585 0008 022B     		cmp	r3, #2
 1586 000a 06D1     		bne	.L103
 1587 000c 0146     		mov	r1, r0
 276:SynaptiX_FDK/app/user/sx_mqtt/sx_user_mqtt.c ****     if (!topic) { log_warn(TAG, "subscribe: NULL topic"); return; }
 1588              		.loc 1 276 5 is_stmt 1 view .LVU357
 1589              		.loc 1 276 8 is_stmt 0 view .LVU358
 1590 000e 50B1     		cbz	r0, .L104
 277:SynaptiX_FDK/app/user/sx_mqtt/sx_user_mqtt.c ****     sx_mqtt_subscribe(&s_mqtt, topic, 1);
 1591              		.loc 1 277 5 is_stmt 1 view .LVU359
 1592 0010 0122     		movs	r2, #1
 1593 0012 0848     		ldr	r0, .L105
 1594              	.LVL119:
 1595              		.loc 1 277 5 is_stmt 0 view .LVU360
 1596 0014 FFF7FEFF 		bl	sx_mqtt_subscribe
 1597              	.LVL120:
 1598              	.L98:
 278:SynaptiX_FDK/app/user/sx_mqtt/sx_user_mqtt.c **** }
 1599              		.loc 1 278 1 view .LVU361
 1600 0018 08BD     		pop	{r3, pc}
 1601              	.LVL121:
 1602              	.L103:
 275:SynaptiX_FDK/app/user/sx_mqtt/sx_user_mqtt.c ****     if (!topic) { log_warn(TAG, "subscribe: NULL topic"); return; }
 1603              		.loc 1 275 43 is_stmt 1 discriminator 1 view .LVU362
 1604 001a 074A     		ldr	r2, .L105+4
 1605 001c 0749     		ldr	r1, .L105+8
 1606 001e 0220     		movs	r0, #2
 1607              	.LVL122:
 275:SynaptiX_FDK/app/user/sx_mqtt/sx_user_mqtt.c ****     if (!topic) { log_warn(TAG, "subscribe: NULL topic"); return; }
 1608              		.loc 1 275 43 is_stmt 0 discriminator 1 view .LVU363
ARM GAS  C:\Users\DELL\AppData\Local\Temp\cclsnC7x.s 			page 40


 1609 0020 FFF7FEFF 		bl	log_func
 1610              	.LVL123:
 275:SynaptiX_FDK/app/user/sx_mqtt/sx_user_mqtt.c ****     if (!topic) { log_warn(TAG, "subscribe: NULL topic"); return; }
 1611              		.loc 1 275 86 is_stmt 1 discriminator 1 view .LVU364
 275:SynaptiX_FDK/app/user/sx_mqtt/sx_user_mqtt.c ****     if (!topic) { log_warn(TAG, "subscribe: NULL topic"); return; }
 1612              		.loc 1 275 86 is_stmt 0 view .LVU365
 1613 0024 F8E7     		b	.L98
 1614              	.LVL124:
 1615              	.L104:
 276:SynaptiX_FDK/app/user/sx_mqtt/sx_user_mqtt.c ****     sx_mqtt_subscribe(&s_mqtt, topic, 1);
 1616              		.loc 1 276 19 is_stmt 1 discriminator 1 view .LVU366
 1617 0026 064A     		ldr	r2, .L105+12
 1618 0028 0449     		ldr	r1, .L105+8
 1619 002a 0220     		movs	r0, #2
 1620              	.LVL125:
 276:SynaptiX_FDK/app/user/sx_mqtt/sx_user_mqtt.c ****     sx_mqtt_subscribe(&s_mqtt, topic, 1);
 1621              		.loc 1 276 19 is_stmt 0 discriminator 1 view .LVU367
 1622 002c FFF7FEFF 		bl	log_func
 1623              	.LVL126:
 276:SynaptiX_FDK/app/user/sx_mqtt/sx_user_mqtt.c ****     sx_mqtt_subscribe(&s_mqtt, topic, 1);
 1624              		.loc 1 276 59 is_stmt 1 discriminator 1 view .LVU368
 276:SynaptiX_FDK/app/user/sx_mqtt/sx_user_mqtt.c ****     sx_mqtt_subscribe(&s_mqtt, topic, 1);
 1625              		.loc 1 276 59 is_stmt 0 view .LVU369
 1626 0030 F2E7     		b	.L98
 1627              	.L106:
 1628 0032 00BF     		.align	2
 1629              	.L105:
 1630 0034 00000000 		.word	s_mqtt
 1631 0038 00000000 		.word	.LC18
 1632 003c 10000000 		.word	.LC1
 1633 0040 1C000000 		.word	.LC19
 1634              		.cfi_endproc
 1635              	.LFE359:
 1637              		.section	.text.sx_user_mqtt_stop,"ax",%progbits
 1638              		.align	1
 1639              		.global	sx_user_mqtt_stop
 1640              		.syntax unified
 1641              		.thumb
 1642              		.thumb_func
 1644              	sx_user_mqtt_stop:
 1645              	.LFB360:
 279:SynaptiX_FDK/app/user/sx_mqtt/sx_user_mqtt.c **** 
 280:SynaptiX_FDK/app/user/sx_mqtt/sx_user_mqtt.c **** void sx_user_mqtt_stop(void){
 1646              		.loc 1 280 29 is_stmt 1 view -0
 1647              		.cfi_startproc
 1648              		@ args = 0, pretend = 0, frame = 0
 1649              		@ frame_needed = 0, uses_anonymous_args = 0
 1650 0000 08B5     		push	{r3, lr}
 1651              	.LCFI31:
 1652              		.cfi_def_cfa_offset 8
 1653              		.cfi_offset 3, -8
 1654              		.cfi_offset 14, -4
 281:SynaptiX_FDK/app/user/sx_mqtt/sx_user_mqtt.c ****     if (sx_mqtt_is_connected(&s_mqtt))
 1655              		.loc 1 281 5 view .LVU371
 1656              	.LVL127:
 1657              	.LBB44:
 1658              	.LBI44:
ARM GAS  C:\Users\DELL\AppData\Local\Temp\cclsnC7x.s 			page 41


 107:SynaptiX_FDK/services/mqtt/sx_mqtt.h ****     return (mqtt->state == SX_MQTT_STATE_CONNECTED);
 1659              		.loc 2 107 23 view .LVU372
 1660              	.LBB45:
 108:SynaptiX_FDK/services/mqtt/sx_mqtt.h **** }
 1661              		.loc 2 108 5 view .LVU373
 108:SynaptiX_FDK/services/mqtt/sx_mqtt.h **** }
 1662              		.loc 2 108 17 is_stmt 0 view .LVU374
 1663 0002 054B     		ldr	r3, .L111
 1664 0004 93F82C30 		ldrb	r3, [r3, #44]	@ zero_extendqisi2
 1665              	.LVL128:
 108:SynaptiX_FDK/services/mqtt/sx_mqtt.h **** }
 1666              		.loc 2 108 17 view .LVU375
 1667              	.LBE45:
 1668              	.LBE44:
 1669              		.loc 1 281 8 discriminator 1 view .LVU376
 1670 0008 022B     		cmp	r3, #2
 1671 000a 00D0     		beq	.L110
 1672              	.L107:
 282:SynaptiX_FDK/app/user/sx_mqtt/sx_user_mqtt.c ****         sx_mqtt_disconnect(&s_mqtt);
 283:SynaptiX_FDK/app/user/sx_mqtt/sx_user_mqtt.c **** }
 1673              		.loc 1 283 1 view .LVU377
 1674 000c 08BD     		pop	{r3, pc}
 1675              	.L110:
 282:SynaptiX_FDK/app/user/sx_mqtt/sx_user_mqtt.c ****         sx_mqtt_disconnect(&s_mqtt);
 1676              		.loc 1 282 9 is_stmt 1 view .LVU378
 1677 000e 0248     		ldr	r0, .L111
 1678 0010 FFF7FEFF 		bl	sx_mqtt_disconnect
 1679              	.LVL129:
 1680              		.loc 1 283 1 is_stmt 0 view .LVU379
 1681 0014 FAE7     		b	.L107
 1682              	.L112:
 1683 0016 00BF     		.align	2
 1684              	.L111:
 1685 0018 00000000 		.word	s_mqtt
 1686              		.cfi_endproc
 1687              	.LFE360:
 1689              		.section	.text.sx_user_mqtt_poll,"ax",%progbits
 1690              		.align	1
 1691              		.global	sx_user_mqtt_poll
 1692              		.syntax unified
 1693              		.thumb
 1694              		.thumb_func
 1696              	sx_user_mqtt_poll:
 1697              	.LVL130:
 1698              	.LFB361:
 284:SynaptiX_FDK/app/user/sx_mqtt/sx_user_mqtt.c **** 
 285:SynaptiX_FDK/app/user/sx_mqtt/sx_user_mqtt.c **** void sx_user_mqtt_poll(uint32_t time_stamp){
 1699              		.loc 1 285 44 is_stmt 1 view -0
 1700              		.cfi_startproc
 1701              		@ args = 0, pretend = 0, frame = 0
 1702              		@ frame_needed = 0, uses_anonymous_args = 0
 1703              		.loc 1 285 44 is_stmt 0 view .LVU381
 1704 0000 08B5     		push	{r3, lr}
 1705              	.LCFI32:
 1706              		.cfi_def_cfa_offset 8
 1707              		.cfi_offset 3, -8
 1708              		.cfi_offset 14, -4
ARM GAS  C:\Users\DELL\AppData\Local\Temp\cclsnC7x.s 			page 42


 1709 0002 0146     		mov	r1, r0
 286:SynaptiX_FDK/app/user/sx_mqtt/sx_user_mqtt.c ****     sx_mqtt_poll(&s_mqtt, time_stamp);
 1710              		.loc 1 286 5 is_stmt 1 view .LVU382
 1711 0004 0148     		ldr	r0, .L115
 1712              	.LVL131:
 1713              		.loc 1 286 5 is_stmt 0 view .LVU383
 1714 0006 FFF7FEFF 		bl	sx_mqtt_poll
 1715              	.LVL132:
 287:SynaptiX_FDK/app/user/sx_mqtt/sx_user_mqtt.c **** }
 1716              		.loc 1 287 1 view .LVU384
 1717 000a 08BD     		pop	{r3, pc}
 1718              	.L116:
 1719              		.align	2
 1720              	.L115:
 1721 000c 00000000 		.word	s_mqtt
 1722              		.cfi_endproc
 1723              	.LFE361:
 1725              		.section	.text.sx_user_mqtt_is_initialized,"ax",%progbits
 1726              		.align	1
 1727              		.global	sx_user_mqtt_is_initialized
 1728              		.syntax unified
 1729              		.thumb
 1730              		.thumb_func
 1732              	sx_user_mqtt_is_initialized:
 1733              	.LFB362:
 288:SynaptiX_FDK/app/user/sx_mqtt/sx_user_mqtt.c **** 
 289:SynaptiX_FDK/app/user/sx_mqtt/sx_user_mqtt.c **** uint8_t sx_user_mqtt_is_initialized(void) { return s_initialized; }
 1734              		.loc 1 289 43 is_stmt 1 view -0
 1735              		.cfi_startproc
 1736              		@ args = 0, pretend = 0, frame = 0
 1737              		@ frame_needed = 0, uses_anonymous_args = 0
 1738              		@ link register save eliminated.
 1739              		.loc 1 289 45 view .LVU386
 1740              		.loc 1 289 67 is_stmt 0 view .LVU387
 1741 0000 014B     		ldr	r3, .L118
 1742 0002 1878     		ldrb	r0, [r3]	@ zero_extendqisi2
 1743 0004 7047     		bx	lr
 1744              	.L119:
 1745 0006 00BF     		.align	2
 1746              	.L118:
 1747 0008 00000000 		.word	s_initialized
 1748              		.cfi_endproc
 1749              	.LFE362:
 1751              		.section	.rodata.sx_user_mqtt_stop_service.str1.4,"aMS",%progbits,1
 1752              		.align	2
 1753              	.LC20:
 1754 0000 4D515454 		.ascii	"MQTT service stopped, wait=%lu\000"
 1754      20736572 
 1754      76696365 
 1754      2073746F 
 1754      70706564 
 1755              		.section	.text.sx_user_mqtt_stop_service,"ax",%progbits
 1756              		.align	1
 1757              		.global	sx_user_mqtt_stop_service
 1758              		.syntax unified
 1759              		.thumb
 1760              		.thumb_func
ARM GAS  C:\Users\DELL\AppData\Local\Temp\cclsnC7x.s 			page 43


 1762              	sx_user_mqtt_stop_service:
 1763              	.LFB363:
 290:SynaptiX_FDK/app/user/sx_mqtt/sx_user_mqtt.c **** 
 291:SynaptiX_FDK/app/user/sx_mqtt/sx_user_mqtt.c **** /*
 292:SynaptiX_FDK/app/user/sx_mqtt/sx_user_mqtt.c ****  * Stop the MQTT service and wait for it to actually disconnect.
 293:SynaptiX_FDK/app/user/sx_mqtt/sx_user_mqtt.c ****  *
 294:SynaptiX_FDK/app/user/sx_mqtt/sx_user_mqtt.c ****  * NOTE: this remains a blocking busy-wait loop, unlike the rest of this
 295:SynaptiX_FDK/app/user/sx_mqtt/sx_user_mqtt.c ****  * architecture which is non-blocking/poll-based — kept as-is, not something
 296:SynaptiX_FDK/app/user/sx_mqtt/sx_user_mqtt.c ****  * this refactor changes on its own initiative. sx_mqtt_disconnect() already
 297:SynaptiX_FDK/app/user/sx_mqtt/sx_user_mqtt.c ****  * goes through modem_ops_t.mqtt_disconnect() -> the driver's own
 298:SynaptiX_FDK/app/user/sx_mqtt/sx_user_mqtt.c ****  * CMQTTDISC/CMQTTREL/CMQTTSTOP sequence (see a7677s_mqtt_state_t's DISC/
 299:SynaptiX_FDK/app/user/sx_mqtt/sx_user_mqtt.c ****  * REL/STOP states) and reports completion asynchronously via sx_mqtt_t's
 300:SynaptiX_FDK/app/user/sx_mqtt/sx_user_mqtt.c ****  * state flipping to SX_MQTT_STATE_DISCONNECTED. There is no separate
 301:SynaptiX_FDK/app/user/sx_mqtt/sx_user_mqtt.c ****  * "mqtt_stop" operation in modem_ops_t (confirmed with the user:
 302:SynaptiX_FDK/app/user/sx_mqtt/sx_user_mqtt.c ****  * sx_mqtt_disconnect() alone replaces the old two-call
 303:SynaptiX_FDK/app/user/sx_mqtt/sx_user_mqtt.c ****  * sim76xx_mqtt_disconnect()+sim76xx_mqtt_stop() sequence). This function
 304:SynaptiX_FDK/app/user/sx_mqtt/sx_user_mqtt.c ****  * polls sx_mqtt_t.state directly instead of relying on a raw AT command
 305:SynaptiX_FDK/app/user/sx_mqtt/sx_user_mqtt.c ****  * callback — cb_mqtt_stop_done/cb_mqtt_disc_done and the modem_t-typed
 306:SynaptiX_FDK/app/user/sx_mqtt/sx_user_mqtt.c ****  * callback signature they used are gone, since modem_ops_t's mqtt_cb_t is
 307:SynaptiX_FDK/app/user/sx_mqtt/sx_user_mqtt.c ****  * the only callback shape available now.
 308:SynaptiX_FDK/app/user/sx_mqtt/sx_user_mqtt.c ****  */
 309:SynaptiX_FDK/app/user/sx_mqtt/sx_user_mqtt.c **** void sx_user_mqtt_stop_service(void) {
 1764              		.loc 1 309 38 is_stmt 1 view -0
 1765              		.cfi_startproc
 1766              		@ args = 0, pretend = 0, frame = 0
 1767              		@ frame_needed = 0, uses_anonymous_args = 0
 1768 0000 10B5     		push	{r4, lr}
 1769              	.LCFI33:
 1770              		.cfi_def_cfa_offset 8
 1771              		.cfi_offset 4, -8
 1772              		.cfi_offset 14, -4
 310:SynaptiX_FDK/app/user/sx_mqtt/sx_user_mqtt.c ****     if (sx_mqtt_is_connected(&s_mqtt)) {
 1773              		.loc 1 310 5 view .LVU389
 1774              	.LVL133:
 1775              	.LBB46:
 1776              	.LBI46:
 107:SynaptiX_FDK/services/mqtt/sx_mqtt.h ****     return (mqtt->state == SX_MQTT_STATE_CONNECTED);
 1777              		.loc 2 107 23 view .LVU390
 1778              	.LBB47:
 108:SynaptiX_FDK/services/mqtt/sx_mqtt.h **** }
 1779              		.loc 2 108 5 view .LVU391
 108:SynaptiX_FDK/services/mqtt/sx_mqtt.h **** }
 1780              		.loc 2 108 17 is_stmt 0 view .LVU392
 1781 0002 144B     		ldr	r3, .L127
 1782 0004 93F82C30 		ldrb	r3, [r3, #44]	@ zero_extendqisi2
 1783              	.LVL134:
 108:SynaptiX_FDK/services/mqtt/sx_mqtt.h **** }
 1784              		.loc 2 108 17 view .LVU393
 1785              	.LBE47:
 1786              	.LBE46:
 1787              		.loc 1 310 8 discriminator 1 view .LVU394
 1788 0008 022B     		cmp	r3, #2
 1789 000a 11D0     		beq	.L126
 1790              	.L121:
 309:SynaptiX_FDK/app/user/sx_mqtt/sx_user_mqtt.c ****     if (sx_mqtt_is_connected(&s_mqtt)) {
 1791              		.loc 1 309 38 view .LVU395
 1792 000c 0024     		movs	r4, #0
ARM GAS  C:\Users\DELL\AppData\Local\Temp\cclsnC7x.s 			page 44


 1793              	.L122:
 1794              	.LVL135:
 311:SynaptiX_FDK/app/user/sx_mqtt/sx_user_mqtt.c ****         sx_mqtt_disconnect(&s_mqtt);
 312:SynaptiX_FDK/app/user/sx_mqtt/sx_user_mqtt.c ****     }
 313:SynaptiX_FDK/app/user/sx_mqtt/sx_user_mqtt.c **** 
 314:SynaptiX_FDK/app/user/sx_mqtt/sx_user_mqtt.c ****     uint32_t wait = 0;
 315:SynaptiX_FDK/app/user/sx_mqtt/sx_user_mqtt.c ****     while (s_mqtt.state != SX_MQTT_STATE_DISCONNECTED && wait < 10000) {
 1795              		.loc 1 315 55 is_stmt 1 view .LVU396
 1796              		.loc 1 315 18 is_stmt 0 view .LVU397
 1797 000e 114B     		ldr	r3, .L127
 1798 0010 93F82C30 		ldrb	r3, [r3, #44]	@ zero_extendqisi2
 1799              		.loc 1 315 55 view .LVU398
 1800 0014 83B1     		cbz	r3, .L123
 1801              		.loc 1 315 55 discriminator 1 view .LVU399
 1802 0016 42F20F73 		movw	r3, #9999
 1803 001a 9C42     		cmp	r4, r3
 1804 001c 0CD8     		bhi	.L123
 316:SynaptiX_FDK/app/user/sx_mqtt/sx_user_mqtt.c ****         sx_mqtt_poll(&s_mqtt, 10);
 1805              		.loc 1 316 9 is_stmt 1 view .LVU400
 1806 001e 0A21     		movs	r1, #10
 1807 0020 0C48     		ldr	r0, .L127
 1808 0022 FFF7FEFF 		bl	sx_mqtt_poll
 1809              	.LVL136:
 317:SynaptiX_FDK/app/user/sx_mqtt/sx_user_mqtt.c ****         sx_delay_ms(10);
 1810              		.loc 1 317 9 view .LVU401
 1811 0026 0A20     		movs	r0, #10
 1812 0028 FFF7FEFF 		bl	sx_delay_ms
 1813              	.LVL137:
 318:SynaptiX_FDK/app/user/sx_mqtt/sx_user_mqtt.c ****         wait += 10;
 1814              		.loc 1 318 9 view .LVU402
 1815              		.loc 1 318 14 is_stmt 0 view .LVU403
 1816 002c 0A34     		adds	r4, r4, #10
 1817              	.LVL138:
 1818              		.loc 1 318 14 view .LVU404
 1819 002e EEE7     		b	.L122
 1820              	.LVL139:
 1821              	.L126:
 311:SynaptiX_FDK/app/user/sx_mqtt/sx_user_mqtt.c ****     }
 1822              		.loc 1 311 9 is_stmt 1 view .LVU405
 1823 0030 0848     		ldr	r0, .L127
 1824 0032 FFF7FEFF 		bl	sx_mqtt_disconnect
 1825              	.LVL140:
 1826 0036 E9E7     		b	.L121
 1827              	.LVL141:
 1828              	.L123:
 319:SynaptiX_FDK/app/user/sx_mqtt/sx_user_mqtt.c ****     }
 320:SynaptiX_FDK/app/user/sx_mqtt/sx_user_mqtt.c **** 
 321:SynaptiX_FDK/app/user/sx_mqtt/sx_user_mqtt.c ****     sx_mqtt_force_disconnect(&s_mqtt);
 1829              		.loc 1 321 5 view .LVU406
 1830              	.LBB48:
 1831              	.LBI48:
 128:SynaptiX_FDK/services/mqtt/sx_mqtt.h ****     mqtt->state           = SX_MQTT_STATE_DISCONNECTED;
 1832              		.loc 2 128 20 view .LVU407
 1833              	.LBB49:
 129:SynaptiX_FDK/services/mqtt/sx_mqtt.h ****     mqtt->reconnect_count = 0;
 1834              		.loc 2 129 5 view .LVU408
 129:SynaptiX_FDK/services/mqtt/sx_mqtt.h ****     mqtt->reconnect_count = 0;
ARM GAS  C:\Users\DELL\AppData\Local\Temp\cclsnC7x.s 			page 45


 1835              		.loc 2 129 27 is_stmt 0 view .LVU409
 1836 0038 064B     		ldr	r3, .L127
 1837 003a 0022     		movs	r2, #0
 1838 003c 83F82C20 		strb	r2, [r3, #44]
 130:SynaptiX_FDK/services/mqtt/sx_mqtt.h ****     mqtt->reconnect_elapsed = 0;
 1839              		.loc 2 130 5 is_stmt 1 view .LVU410
 130:SynaptiX_FDK/services/mqtt/sx_mqtt.h ****     mqtt->reconnect_elapsed = 0;
 1840              		.loc 2 130 27 is_stmt 0 view .LVU411
 1841 0040 83F83820 		strb	r2, [r3, #56]
 1842              		.loc 2 131 5 is_stmt 1 view .LVU412
 1843              		.loc 2 131 29 is_stmt 0 view .LVU413
 1844 0044 1A63     		str	r2, [r3, #48]
 1845              	.LVL142:
 1846              		.loc 2 131 29 view .LVU414
 1847              	.LBE49:
 1848              	.LBE48:
 322:SynaptiX_FDK/app/user/sx_mqtt/sx_user_mqtt.c **** 
 323:SynaptiX_FDK/app/user/sx_mqtt/sx_user_mqtt.c ****     log_info(TAG, "MQTT service stopped, wait=%lu", (unsigned long)wait);
 1849              		.loc 1 323 5 is_stmt 1 view .LVU415
 1850 0046 2346     		mov	r3, r4
 1851 0048 034A     		ldr	r2, .L127+4
 1852 004a 0449     		ldr	r1, .L127+8
 1853 004c 0320     		movs	r0, #3
 1854 004e FFF7FEFF 		bl	log_func
 1855              	.LVL143:
 324:SynaptiX_FDK/app/user/sx_mqtt/sx_user_mqtt.c **** }
 1856              		.loc 1 324 1 is_stmt 0 view .LVU416
 1857 0052 10BD     		pop	{r4, pc}
 1858              	.LVL144:
 1859              	.L128:
 1860              		.loc 1 324 1 view .LVU417
 1861              		.align	2
 1862              	.L127:
 1863 0054 00000000 		.word	s_mqtt
 1864 0058 00000000 		.word	.LC20
 1865 005c 10000000 		.word	.LC1
 1866              		.cfi_endproc
 1867              	.LFE363:
 1869              		.section	.text.sx_user_mqtt_is_publishing,"ax",%progbits
 1870              		.align	1
 1871              		.global	sx_user_mqtt_is_publishing
 1872              		.syntax unified
 1873              		.thumb
 1874              		.thumb_func
 1876              	sx_user_mqtt_is_publishing:
 1877              	.LFB364:
 325:SynaptiX_FDK/app/user/sx_mqtt/sx_user_mqtt.c **** 
 326:SynaptiX_FDK/app/user/sx_mqtt/sx_user_mqtt.c **** uint8_t sx_user_mqtt_is_publishing(void) {
 1878              		.loc 1 326 42 is_stmt 1 view -0
 1879              		.cfi_startproc
 1880              		@ args = 0, pretend = 0, frame = 0
 1881              		@ frame_needed = 0, uses_anonymous_args = 0
 1882              		@ link register save eliminated.
 327:SynaptiX_FDK/app/user/sx_mqtt/sx_user_mqtt.c ****     return s_publishing;
 1883              		.loc 1 327 5 view .LVU419
 328:SynaptiX_FDK/app/user/sx_mqtt/sx_user_mqtt.c **** }
 1884              		.loc 1 328 1 is_stmt 0 view .LVU420
ARM GAS  C:\Users\DELL\AppData\Local\Temp\cclsnC7x.s 			page 46


 1885 0000 014B     		ldr	r3, .L130
 1886 0002 1878     		ldrb	r0, [r3]	@ zero_extendqisi2
 1887 0004 7047     		bx	lr
 1888              	.L131:
 1889 0006 00BF     		.align	2
 1890              	.L130:
 1891 0008 00000000 		.word	s_publishing
 1892              		.cfi_endproc
 1893              	.LFE364:
 1895              		.section	.text.sx_user_mqtt_queue_empty,"ax",%progbits
 1896              		.align	1
 1897              		.global	sx_user_mqtt_queue_empty
 1898              		.syntax unified
 1899              		.thumb
 1900              		.thumb_func
 1902              	sx_user_mqtt_queue_empty:
 1903              	.LFB365:
 329:SynaptiX_FDK/app/user/sx_mqtt/sx_user_mqtt.c **** 
 330:SynaptiX_FDK/app/user/sx_mqtt/sx_user_mqtt.c **** uint8_t sx_user_mqtt_queue_empty(void) {
 1904              		.loc 1 330 40 is_stmt 1 view -0
 1905              		.cfi_startproc
 1906              		@ args = 0, pretend = 0, frame = 0
 1907              		@ frame_needed = 0, uses_anonymous_args = 0
 1908 0000 08B5     		push	{r3, lr}
 1909              	.LCFI34:
 1910              		.cfi_def_cfa_offset 8
 1911              		.cfi_offset 3, -8
 1912              		.cfi_offset 14, -4
 331:SynaptiX_FDK/app/user/sx_mqtt/sx_user_mqtt.c ****     return cqueue_is_empty(&s_queue);
 1913              		.loc 1 331 5 view .LVU422
 1914              		.loc 1 331 12 is_stmt 0 view .LVU423
 1915 0002 0248     		ldr	r0, .L134
 1916 0004 FFF7FEFF 		bl	cqueue_is_empty
 1917              	.LVL145:
 332:SynaptiX_FDK/app/user/sx_mqtt/sx_user_mqtt.c **** }
 1918              		.loc 1 332 1 view .LVU424
 1919 0008 08BD     		pop	{r3, pc}
 1920              	.L135:
 1921 000a 00BF     		.align	2
 1922              	.L134:
 1923 000c 00000000 		.word	s_queue
 1924              		.cfi_endproc
 1925              	.LFE365:
 1927              		.section	.rodata.sx_user_mqtt_queue_flush.str1.4,"aMS",%progbits,1
 1928              		.align	2
 1929              	.LC21:
 1930 0000 51756575 		.ascii	"Queue flushed\000"
 1930      6520666C 
 1930      75736865 
 1930      6400
 1931              		.section	.text.sx_user_mqtt_queue_flush,"ax",%progbits
 1932              		.align	1
 1933              		.global	sx_user_mqtt_queue_flush
 1934              		.syntax unified
 1935              		.thumb
 1936              		.thumb_func
 1938              	sx_user_mqtt_queue_flush:
ARM GAS  C:\Users\DELL\AppData\Local\Temp\cclsnC7x.s 			page 47


 1939              	.LFB366:
 333:SynaptiX_FDK/app/user/sx_mqtt/sx_user_mqtt.c **** 
 334:SynaptiX_FDK/app/user/sx_mqtt/sx_user_mqtt.c **** void sx_user_mqtt_queue_flush(void) {
 1940              		.loc 1 334 37 is_stmt 1 view -0
 1941              		.cfi_startproc
 1942              		@ args = 0, pretend = 0, frame = 0
 1943              		@ frame_needed = 0, uses_anonymous_args = 0
 1944 0000 08B5     		push	{r3, lr}
 1945              	.LCFI35:
 1946              		.cfi_def_cfa_offset 8
 1947              		.cfi_offset 3, -8
 1948              		.cfi_offset 14, -4
 335:SynaptiX_FDK/app/user/sx_mqtt/sx_user_mqtt.c ****     cqueue_init_static(&s_queue, s_queue_buf, MQTT_QUEUE_SIZE, sizeof(mqtt_queue_item_t));
 1949              		.loc 1 335 5 view .LVU426
 1950 0002 4FF4C073 		mov	r3, #384
 1951 0006 1022     		movs	r2, #16
 1952 0008 0749     		ldr	r1, .L138
 1953 000a 0848     		ldr	r0, .L138+4
 1954 000c FFF7FEFF 		bl	cqueue_init_static
 1955              	.LVL146:
 336:SynaptiX_FDK/app/user/sx_mqtt/sx_user_mqtt.c ****     s_publishing   = 0;
 1956              		.loc 1 336 5 view .LVU427
 1957              		.loc 1 336 20 is_stmt 0 view .LVU428
 1958 0010 0023     		movs	r3, #0
 1959 0012 074A     		ldr	r2, .L138+8
 1960 0014 1370     		strb	r3, [r2]
 337:SynaptiX_FDK/app/user/sx_mqtt/sx_user_mqtt.c ****     s_publish_retry = 0;
 1961              		.loc 1 337 5 is_stmt 1 view .LVU429
 1962              		.loc 1 337 21 is_stmt 0 view .LVU430
 1963 0016 074A     		ldr	r2, .L138+12
 1964 0018 1370     		strb	r3, [r2]
 338:SynaptiX_FDK/app/user/sx_mqtt/sx_user_mqtt.c ****     log_info(TAG, "Queue flushed");
 1965              		.loc 1 338 5 is_stmt 1 view .LVU431
 1966 001a 074A     		ldr	r2, .L138+16
 1967 001c 0749     		ldr	r1, .L138+20
 1968 001e 0320     		movs	r0, #3
 1969 0020 FFF7FEFF 		bl	log_func
 1970              	.LVL147:
 339:SynaptiX_FDK/app/user/sx_mqtt/sx_user_mqtt.c **** }...
 1971              		.loc 1 339 1 is_stmt 0 view .LVU432
 1972 0024 08BD     		pop	{r3, pc}
 1973              	.L139:
 1974 0026 00BF     		.align	2
 1975              	.L138:
 1976 0028 00000000 		.word	s_queue_buf
 1977 002c 00000000 		.word	s_queue
 1978 0030 00000000 		.word	s_publishing
 1979 0034 00000000 		.word	s_publish_retry
 1980 0038 00000000 		.word	.LC21
 1981 003c 10000000 		.word	.LC1
 1982              		.cfi_endproc
 1983              	.LFE366:
 1985              		.section	.bss.mqtt_cfg.0,"aw",%nobits
 1986              		.align	2
 1989              	mqtt_cfg.0:
 1990 0000 00000000 		.space	40
 1990      00000000 
ARM GAS  C:\Users\DELL\AppData\Local\Temp\cclsnC7x.s 			page 48


 1990      00000000 
 1990      00000000 
 1990      00000000 
 1991              		.section	.bss.mqtt_cfg.1,"aw",%nobits
 1992              		.align	2
 1995              	mqtt_cfg.1:
 1996 0000 00000000 		.space	40
 1996      00000000 
 1996      00000000 
 1996      00000000 
 1996      00000000 
 1997              		.section	.bss.s_publishing,"aw",%nobits
 2000              	s_publishing:
 2001 0000 00       		.space	1
 2002              		.section	.bss.s_initialized,"aw",%nobits
 2005              	s_initialized:
 2006 0000 00       		.space	1
 2007              		.section	.bss.s_last_tick,"aw",%nobits
 2008              		.align	2
 2011              	s_last_tick:
 2012 0000 00000000 		.space	4
 2013              		.section	.bss.s_client_id_buf,"aw",%nobits
 2014              		.align	2
 2017              	s_client_id_buf:
 2018 0000 00000000 		.space	32
 2018      00000000 
 2018      00000000 
 2018      00000000 
 2018      00000000 
 2019              		.section	.bss.s_on_publish,"aw",%nobits
 2020              		.align	2
 2023              	s_on_publish:
 2024 0000 00000000 		.space	4
 2025              		.section	.bss.s_on_message,"aw",%nobits
 2026              		.align	2
 2029              	s_on_message:
 2030 0000 00000000 		.space	4
 2031              		.section	.bss.s_on_disconnected,"aw",%nobits
 2032              		.align	2
 2035              	s_on_disconnected:
 2036 0000 00000000 		.space	4
 2037              		.section	.bss.s_on_connected,"aw",%nobits
 2038              		.align	2
 2041              	s_on_connected:
 2042 0000 00000000 		.space	4
 2043              		.section	.bss.s_publish_retry,"aw",%nobits
 2046              	s_publish_retry:
 2047 0000 00       		.space	1
 2048              		.section	.bss.s_current_item,"aw",%nobits
 2049              		.align	2
 2052              	s_current_item:
 2053 0000 00000000 		.space	384
 2053      00000000 
 2053      00000000 
 2053      00000000 
 2053      00000000 
 2054              		.section	.bss.s_queue,"aw",%nobits
ARM GAS  C:\Users\DELL\AppData\Local\Temp\cclsnC7x.s 			page 49


 2055              		.align	2
 2058              	s_queue:
 2059 0000 00000000 		.space	24
 2059      00000000 
 2059      00000000 
 2059      00000000 
 2059      00000000 
 2060              		.section	.bss.s_queue_buf,"aw",%nobits
 2061              		.align	2
 2064              	s_queue_buf:
 2065 0000 00000000 		.space	6144
 2065      00000000 
 2065      00000000 
 2065      00000000 
 2065      00000000 
 2066              		.global	s_mqtt
 2067              		.section	.bss.s_mqtt,"aw",%nobits
 2068              		.align	2
 2071              	s_mqtt:
 2072 0000 00000000 		.space	76
 2072      00000000 
 2072      00000000 
 2072      00000000 
 2072      00000000 
 2073              		.text
 2074              	.Letext0:
 2075              		.file 3 "D:\\stm32cubeclt\\STM32CubeCLT_1.21.0\\GNU-tools-for-STM32\\bin\\../lib/gcc/arm-none-eabi
 2076              		.file 4 "D:\\stm32cubeclt\\STM32CubeCLT_1.21.0\\GNU-tools-for-STM32\\bin\\../lib/gcc/arm-none-eabi
 2077              		.file 5 "D:\\stm32cubeclt\\STM32CubeCLT_1.21.0\\GNU-tools-for-STM32\\bin\\../lib/gcc/arm-none-eabi
 2078              		.file 6 "Drivers/CMSIS/Device/ST/STM32H5xx/Include/stm32h563xx.h"
 2079              		.file 7 "Drivers/STM32H5xx_HAL_Driver/Inc/stm32h5xx_hal_def.h"
 2080              		.file 8 "Drivers/STM32H5xx_HAL_Driver/Inc/stm32h5xx_hal_dma.h"
 2081              		.file 9 "Drivers/STM32H5xx_HAL_Driver/Inc/stm32h5xx_hal_dma_ex.h"
 2082              		.file 10 "Drivers/STM32H5xx_HAL_Driver/Inc/stm32h5xx_ll_lptim.h"
 2083              		.file 11 "Drivers/STM32H5xx_HAL_Driver/Inc/stm32h5xx_hal_spi.h"
 2084              		.file 12 "SynaptiX_FDK/components/peripherals/gpio/sx_gpio.h"
 2085              		.file 13 "SynaptiX_FDK/components/peripherals/spi/sx_spi.h"
 2086              		.file 14 "SynaptiX_FDK/utils/cqueue/cqueue.h"
 2087              		.file 15 "SynaptiX_FDK/components/peripherals/uart/sx_uart.h"
 2088              		.file 16 "D:\\stm32cubeclt\\STM32CubeCLT_1.21.0\\GNU-tools-for-STM32\\bin\\../lib/gcc/arm-none-eab
 2089              		.file 17 "SynaptiX_FDK/components/modules/gps/minmea.h"
 2090              		.file 18 "SynaptiX_FDK/components/modules/gps/gps.h"
 2091              		.file 19 "SynaptiX_FDK/components/modules/modem/modem.h"
 2092              		.file 20 "SynaptiX_FDK/components/modules/modem_ops/modem_ops.h"
 2093              		.file 21 "SynaptiX_FDK/components/modules/a76xx/a7677s.h"
 2094              		.file 22 "SynaptiX_FDK/components/modules/external_flash/sx_W25Q128.h"
 2095              		.file 23 "SynaptiX_FDK/app/user/sx_ex_storage/sx_ex_storage.h"
 2096              		.file 24 "SynaptiX_FDK/components/peripherals/usb_cdc_tiny/sx_usb_tiny_cdc.h"
 2097              		.file 25 "SynaptiX_FDK/components/peripherals/i2c/sx_i2c.h"
 2098              		.file 26 "SynaptiX_FDK/components/modules/rtc/sx_ex_rtc.h"
 2099              		.file 27 "SynaptiX_FDK/components/modules/imu/bno055.h"
 2100              		.file 28 "SynaptiX_FDK/components/modules/sht3x/sht3x.h"
 2101              		.file 29 "SynaptiX_FDK/components/modules/ads1115/ads1115.h"
 2102              		.file 30 "SynaptiX_FDK/board/sx_board.h"
 2103              		.file 31 "SynaptiX_FDK/app/user/sx_mqtt/sx_user_mqtt.h"
 2104              		.file 32 "SynaptiX_FDK/services/logger/logger.h"
 2105              		.file 33 "SynaptiX_FDK/utils/delay/sx_delay.h"
ARM GAS  C:\Users\DELL\AppData\Local\Temp\cclsnC7x.s 			page 50


 2106              		.file 34 "D:\\stm32cubeclt\\STM32CubeCLT_1.21.0\\GNU-tools-for-STM32\\bin\\../lib/gcc/arm-none-eab
 2107              		.file 35 "D:\\stm32cubeclt\\STM32CubeCLT_1.21.0\\GNU-tools-for-STM32\\bin\\../lib/gcc/arm-none-eab
 2108              		.file 36 "<built-in>"
ARM GAS  C:\Users\DELL\AppData\Local\Temp\cclsnC7x.s 			page 51


DEFINED SYMBOLS
                            *ABS*:00000000 sx_user_mqtt.c
C:\Users\DELL\AppData\Local\Temp\cclsnC7x.s:22     .rodata._on_message.str1.4:00000000 $d
C:\Users\DELL\AppData\Local\Temp\cclsnC7x.s:29     .text._on_message:00000000 $t
C:\Users\DELL\AppData\Local\Temp\cclsnC7x.s:34     .text._on_message:00000000 _on_message
C:\Users\DELL\AppData\Local\Temp\cclsnC7x.s:91     .text._on_message:00000028 $d
C:\Users\DELL\AppData\Local\Temp\cclsnC7x.s:2029   .bss.s_on_message:00000000 s_on_message
C:\Users\DELL\AppData\Local\Temp\cclsnC7x.s:98     .rodata._on_disconnected.str1.4:00000000 $d
C:\Users\DELL\AppData\Local\Temp\cclsnC7x.s:102    .text._on_disconnected:00000000 $t
C:\Users\DELL\AppData\Local\Temp\cclsnC7x.s:107    .text._on_disconnected:00000000 _on_disconnected
C:\Users\DELL\AppData\Local\Temp\cclsnC7x.s:144    .text._on_disconnected:00000018 $d
C:\Users\DELL\AppData\Local\Temp\cclsnC7x.s:2035   .bss.s_on_disconnected:00000000 s_on_disconnected
C:\Users\DELL\AppData\Local\Temp\cclsnC7x.s:151    .rodata._on_connected.str1.4:00000000 $d
C:\Users\DELL\AppData\Local\Temp\cclsnC7x.s:155    .text._on_connected:00000000 $t
C:\Users\DELL\AppData\Local\Temp\cclsnC7x.s:160    .text._on_connected:00000000 _on_connected
C:\Users\DELL\AppData\Local\Temp\cclsnC7x.s:197    .text._on_connected:00000018 $d
C:\Users\DELL\AppData\Local\Temp\cclsnC7x.s:2041   .bss.s_on_connected:00000000 s_on_connected
C:\Users\DELL\AppData\Local\Temp\cclsnC7x.s:204    .rodata._validate_cfg.str1.4:00000000 $d
C:\Users\DELL\AppData\Local\Temp\cclsnC7x.s:214    .text._validate_cfg:00000000 $t
C:\Users\DELL\AppData\Local\Temp\cclsnC7x.s:219    .text._validate_cfg:00000000 _validate_cfg
C:\Users\DELL\AppData\Local\Temp\cclsnC7x.s:301    .text._validate_cfg:00000044 $d
C:\Users\DELL\AppData\Local\Temp\cclsnC7x.s:309    .rodata._common_init.str1.4:00000000 $d
C:\Users\DELL\AppData\Local\Temp\cclsnC7x.s:313    .text._common_init:00000000 $t
C:\Users\DELL\AppData\Local\Temp\cclsnC7x.s:318    .text._common_init:00000000 _common_init
C:\Users\DELL\AppData\Local\Temp\cclsnC7x.s:560    .text._common_init:000000f4 $d
C:\Users\DELL\AppData\Local\Temp\cclsnC7x.s:2064   .bss.s_queue_buf:00000000 s_queue_buf
C:\Users\DELL\AppData\Local\Temp\cclsnC7x.s:2058   .bss.s_queue:00000000 s_queue
C:\Users\DELL\AppData\Local\Temp\cclsnC7x.s:2023   .bss.s_on_publish:00000000 s_on_publish
C:\Users\DELL\AppData\Local\Temp\cclsnC7x.s:933    .text._on_modem_ready:00000000 _on_modem_ready
C:\Users\DELL\AppData\Local\Temp\cclsnC7x.s:592    .text._on_modem_error:00000000 _on_modem_error
C:\Users\DELL\AppData\Local\Temp\cclsnC7x.s:751    .text._on_publish:00000000 _on_publish
C:\Users\DELL\AppData\Local\Temp\cclsnC7x.s:2011   .bss.s_last_tick:00000000 s_last_tick
C:\Users\DELL\AppData\Local\Temp\cclsnC7x.s:2005   .bss.s_initialized:00000000 s_initialized
C:\Users\DELL\AppData\Local\Temp\cclsnC7x.s:2071   .bss.s_mqtt:00000000 s_mqtt
C:\Users\DELL\AppData\Local\Temp\cclsnC7x.s:582    .rodata._on_modem_error.str1.4:00000000 $d
C:\Users\DELL\AppData\Local\Temp\cclsnC7x.s:587    .text._on_modem_error:00000000 $t
C:\Users\DELL\AppData\Local\Temp\cclsnC7x.s:633    .text._on_modem_error:0000001c $d
C:\Users\DELL\AppData\Local\Temp\cclsnC7x.s:641    .text.dispatch_next:00000000 $t
C:\Users\DELL\AppData\Local\Temp\cclsnC7x.s:646    .text.dispatch_next:00000000 dispatch_next
C:\Users\DELL\AppData\Local\Temp\cclsnC7x.s:720    .text.dispatch_next:00000040 $d
C:\Users\DELL\AppData\Local\Temp\cclsnC7x.s:2052   .bss.s_current_item:00000000 s_current_item
C:\Users\DELL\AppData\Local\Temp\cclsnC7x.s:2000   .bss.s_publishing:00000000 s_publishing
C:\Users\DELL\AppData\Local\Temp\cclsnC7x.s:729    .rodata._on_publish.str1.4:00000000 $d
C:\Users\DELL\AppData\Local\Temp\cclsnC7x.s:746    .text._on_publish:00000000 $t
C:\Users\DELL\AppData\Local\Temp\cclsnC7x.s:903    .text._on_publish:000000a0 $d
C:\Users\DELL\AppData\Local\Temp\cclsnC7x.s:2046   .bss.s_publish_retry:00000000 s_publish_retry
C:\Users\DELL\AppData\Local\Temp\cclsnC7x.s:920    .rodata._on_modem_ready.str1.4:00000000 $d
C:\Users\DELL\AppData\Local\Temp\cclsnC7x.s:928    .text._on_modem_ready:00000000 $t
C:\Users\DELL\AppData\Local\Temp\cclsnC7x.s:1034   .text._on_modem_ready:0000005c $d
C:\Users\DELL\AppData\Local\Temp\cclsnC7x.s:2017   .bss.s_client_id_buf:00000000 s_client_id_buf
C:\Users\DELL\AppData\Local\Temp\cclsnC7x.s:1043   .text.sx_user_mqtt_is_connected:00000000 $t
C:\Users\DELL\AppData\Local\Temp\cclsnC7x.s:1049   .text.sx_user_mqtt_is_connected:00000000 sx_user_mqtt_is_connected
C:\Users\DELL\AppData\Local\Temp\cclsnC7x.s:1079   .text.sx_user_mqtt_is_connected:00000010 $d
C:\Users\DELL\AppData\Local\Temp\cclsnC7x.s:1084   .text.sx_user_mqtt_get_ip:00000000 $t
C:\Users\DELL\AppData\Local\Temp\cclsnC7x.s:1090   .text.sx_user_mqtt_get_ip:00000000 sx_user_mqtt_get_ip
C:\Users\DELL\AppData\Local\Temp\cclsnC7x.s:1116   .text.sx_user_mqtt_get_ip:00000014 $d
C:\Users\DELL\AppData\Local\Temp\cclsnC7x.s:1121   .text.sx_user_mqtt_get_imei:00000000 $t
ARM GAS  C:\Users\DELL\AppData\Local\Temp\cclsnC7x.s 			page 52


C:\Users\DELL\AppData\Local\Temp\cclsnC7x.s:1127   .text.sx_user_mqtt_get_imei:00000000 sx_user_mqtt_get_imei
C:\Users\DELL\AppData\Local\Temp\cclsnC7x.s:1153   .text.sx_user_mqtt_get_imei:00000014 $d
C:\Users\DELL\AppData\Local\Temp\cclsnC7x.s:1158   .text.sx_user_mqtt_get_rssi:00000000 $t
C:\Users\DELL\AppData\Local\Temp\cclsnC7x.s:1164   .text.sx_user_mqtt_get_rssi:00000000 sx_user_mqtt_get_rssi
C:\Users\DELL\AppData\Local\Temp\cclsnC7x.s:1190   .text.sx_user_mqtt_get_rssi:00000014 $d
C:\Users\DELL\AppData\Local\Temp\cclsnC7x.s:1195   .text.sx_user_mqtt_nontls_init:00000000 $t
C:\Users\DELL\AppData\Local\Temp\cclsnC7x.s:1201   .text.sx_user_mqtt_nontls_init:00000000 sx_user_mqtt_nontls_init
C:\Users\DELL\AppData\Local\Temp\cclsnC7x.s:1241   .text.sx_user_mqtt_nontls_init:0000001c $d
C:\Users\DELL\AppData\Local\Temp\cclsnC7x.s:1995   .bss.mqtt_cfg.1:00000000 mqtt_cfg.1
C:\Users\DELL\AppData\Local\Temp\cclsnC7x.s:1246   .text.sx_user_mqtt_tls_init:00000000 $t
C:\Users\DELL\AppData\Local\Temp\cclsnC7x.s:1252   .text.sx_user_mqtt_tls_init:00000000 sx_user_mqtt_tls_init
C:\Users\DELL\AppData\Local\Temp\cclsnC7x.s:1333   .text.sx_user_mqtt_tls_init:00000044 $d
C:\Users\DELL\AppData\Local\Temp\cclsnC7x.s:1989   .bss.mqtt_cfg.0:00000000 mqtt_cfg.0
C:\Users\DELL\AppData\Local\Temp\cclsnC7x.s:1338   .text.sx_user_mqtt_force_disconnect:00000000 $t
C:\Users\DELL\AppData\Local\Temp\cclsnC7x.s:1344   .text.sx_user_mqtt_force_disconnect:00000000 sx_user_mqtt_force_disconnect
C:\Users\DELL\AppData\Local\Temp\cclsnC7x.s:1377   .text.sx_user_mqtt_force_disconnect:00000010 $d
C:\Users\DELL\AppData\Local\Temp\cclsnC7x.s:1382   .rodata.sx_user_mqtt_publish.str1.4:00000000 $d
C:\Users\DELL\AppData\Local\Temp\cclsnC7x.s:1389   .text.sx_user_mqtt_publish:00000000 $t
C:\Users\DELL\AppData\Local\Temp\cclsnC7x.s:1395   .text.sx_user_mqtt_publish:00000000 sx_user_mqtt_publish
C:\Users\DELL\AppData\Local\Temp\cclsnC7x.s:1532   .text.sx_user_mqtt_publish:00000084 $d
C:\Users\DELL\AppData\Local\Temp\cclsnC7x.s:1544   .rodata.sx_user_mqtt_subscribe.str1.4:00000000 $d
C:\Users\DELL\AppData\Local\Temp\cclsnC7x.s:1551   .text.sx_user_mqtt_subscribe:00000000 $t
C:\Users\DELL\AppData\Local\Temp\cclsnC7x.s:1557   .text.sx_user_mqtt_subscribe:00000000 sx_user_mqtt_subscribe
C:\Users\DELL\AppData\Local\Temp\cclsnC7x.s:1630   .text.sx_user_mqtt_subscribe:00000034 $d
C:\Users\DELL\AppData\Local\Temp\cclsnC7x.s:1638   .text.sx_user_mqtt_stop:00000000 $t
C:\Users\DELL\AppData\Local\Temp\cclsnC7x.s:1644   .text.sx_user_mqtt_stop:00000000 sx_user_mqtt_stop
C:\Users\DELL\AppData\Local\Temp\cclsnC7x.s:1685   .text.sx_user_mqtt_stop:00000018 $d
C:\Users\DELL\AppData\Local\Temp\cclsnC7x.s:1690   .text.sx_user_mqtt_poll:00000000 $t
C:\Users\DELL\AppData\Local\Temp\cclsnC7x.s:1696   .text.sx_user_mqtt_poll:00000000 sx_user_mqtt_poll
C:\Users\DELL\AppData\Local\Temp\cclsnC7x.s:1721   .text.sx_user_mqtt_poll:0000000c $d
C:\Users\DELL\AppData\Local\Temp\cclsnC7x.s:1726   .text.sx_user_mqtt_is_initialized:00000000 $t
C:\Users\DELL\AppData\Local\Temp\cclsnC7x.s:1732   .text.sx_user_mqtt_is_initialized:00000000 sx_user_mqtt_is_initialized
C:\Users\DELL\AppData\Local\Temp\cclsnC7x.s:1747   .text.sx_user_mqtt_is_initialized:00000008 $d
C:\Users\DELL\AppData\Local\Temp\cclsnC7x.s:1752   .rodata.sx_user_mqtt_stop_service.str1.4:00000000 $d
C:\Users\DELL\AppData\Local\Temp\cclsnC7x.s:1756   .text.sx_user_mqtt_stop_service:00000000 $t
C:\Users\DELL\AppData\Local\Temp\cclsnC7x.s:1762   .text.sx_user_mqtt_stop_service:00000000 sx_user_mqtt_stop_service
C:\Users\DELL\AppData\Local\Temp\cclsnC7x.s:1863   .text.sx_user_mqtt_stop_service:00000054 $d
C:\Users\DELL\AppData\Local\Temp\cclsnC7x.s:1870   .text.sx_user_mqtt_is_publishing:00000000 $t
C:\Users\DELL\AppData\Local\Temp\cclsnC7x.s:1876   .text.sx_user_mqtt_is_publishing:00000000 sx_user_mqtt_is_publishing
C:\Users\DELL\AppData\Local\Temp\cclsnC7x.s:1891   .text.sx_user_mqtt_is_publishing:00000008 $d
C:\Users\DELL\AppData\Local\Temp\cclsnC7x.s:1896   .text.sx_user_mqtt_queue_empty:00000000 $t
C:\Users\DELL\AppData\Local\Temp\cclsnC7x.s:1902   .text.sx_user_mqtt_queue_empty:00000000 sx_user_mqtt_queue_empty
C:\Users\DELL\AppData\Local\Temp\cclsnC7x.s:1923   .text.sx_user_mqtt_queue_empty:0000000c $d
C:\Users\DELL\AppData\Local\Temp\cclsnC7x.s:1928   .rodata.sx_user_mqtt_queue_flush.str1.4:00000000 $d
C:\Users\DELL\AppData\Local\Temp\cclsnC7x.s:1932   .text.sx_user_mqtt_queue_flush:00000000 $t
C:\Users\DELL\AppData\Local\Temp\cclsnC7x.s:1938   .text.sx_user_mqtt_queue_flush:00000000 sx_user_mqtt_queue_flush
C:\Users\DELL\AppData\Local\Temp\cclsnC7x.s:1976   .text.sx_user_mqtt_queue_flush:00000028 $d
C:\Users\DELL\AppData\Local\Temp\cclsnC7x.s:1986   .bss.mqtt_cfg.0:00000000 $d
C:\Users\DELL\AppData\Local\Temp\cclsnC7x.s:1992   .bss.mqtt_cfg.1:00000000 $d
C:\Users\DELL\AppData\Local\Temp\cclsnC7x.s:2001   .bss.s_publishing:00000000 $d
C:\Users\DELL\AppData\Local\Temp\cclsnC7x.s:2006   .bss.s_initialized:00000000 $d
C:\Users\DELL\AppData\Local\Temp\cclsnC7x.s:2008   .bss.s_last_tick:00000000 $d
C:\Users\DELL\AppData\Local\Temp\cclsnC7x.s:2014   .bss.s_client_id_buf:00000000 $d
C:\Users\DELL\AppData\Local\Temp\cclsnC7x.s:2020   .bss.s_on_publish:00000000 $d
C:\Users\DELL\AppData\Local\Temp\cclsnC7x.s:2026   .bss.s_on_message:00000000 $d
C:\Users\DELL\AppData\Local\Temp\cclsnC7x.s:2032   .bss.s_on_disconnected:00000000 $d
C:\Users\DELL\AppData\Local\Temp\cclsnC7x.s:2038   .bss.s_on_connected:00000000 $d
ARM GAS  C:\Users\DELL\AppData\Local\Temp\cclsnC7x.s 			page 53


C:\Users\DELL\AppData\Local\Temp\cclsnC7x.s:2047   .bss.s_publish_retry:00000000 $d
C:\Users\DELL\AppData\Local\Temp\cclsnC7x.s:2049   .bss.s_current_item:00000000 $d
C:\Users\DELL\AppData\Local\Temp\cclsnC7x.s:2055   .bss.s_queue:00000000 $d
C:\Users\DELL\AppData\Local\Temp\cclsnC7x.s:2061   .bss.s_queue_buf:00000000 $d
C:\Users\DELL\AppData\Local\Temp\cclsnC7x.s:2068   .bss.s_mqtt:00000000 $d

UNDEFINED SYMBOLS
log_func
cqueue_init_static
sx_mqtt_init
sx_mqtt_set_config
sx_gettick
board
sx_mqtt_report_failure
cqueue_is_empty
cqueue_receive
sx_mqtt_publish
strlen
snprintf
sx_mqtt_connect
memset
strncpy
cqueue_send
sx_mqtt_subscribe
sx_mqtt_disconnect
sx_mqtt_poll
sx_delay_ms
