ARM GAS  C:\Users\DELL\AppData\Local\Temp\ccIewVrc.s 			page 1


   1              		.cpu cortex-m33
   2              		.arch armv8-m.main
   3              		.fpu fpv5-sp-d16
   4              		.arch_extension dsp
   5              		.eabi_attribute 27, 1
   6              		.eabi_attribute 28, 1
   7              		.eabi_attribute 20, 1
   8              		.eabi_attribute 21, 1
   9              		.eabi_attribute 23, 3
  10              		.eabi_attribute 24, 1
  11              		.eabi_attribute 25, 1
  12              		.eabi_attribute 26, 1
  13              		.eabi_attribute 30, 1
  14              		.eabi_attribute 34, 1
  15              		.eabi_attribute 18, 4
  16              		.file	"sx_user_cdc.c"
  17              		.text
  18              	.Ltext0:
  19              		.cfi_sections	.debug_frame
  20              		.file 1 "SynaptiX_FDK/app/user/sx_cdc/sx_user_cdc.c"
  21              		.section	.text.sx_user_cdc_init,"ax",%progbits
  22              		.align	1
  23              		.global	sx_user_cdc_init
  24              		.syntax unified
  25              		.thumb
  26              		.thumb_func
  28              	sx_user_cdc_init:
  29              	.LVL0:
  30              	.LFB7:
   1:SynaptiX_FDK/app/user/sx_cdc/sx_user_cdc.c **** #include "sx_user_cdc.h"
   2:SynaptiX_FDK/app/user/sx_cdc/sx_user_cdc.c **** #include <stddef.h>
   3:SynaptiX_FDK/app/user/sx_cdc/sx_user_cdc.c **** #include <stdarg.h>
   4:SynaptiX_FDK/app/user/sx_cdc/sx_user_cdc.c **** #include <stdio.h>
   5:SynaptiX_FDK/app/user/sx_cdc/sx_user_cdc.c **** #include <string.h>
   6:SynaptiX_FDK/app/user/sx_cdc/sx_user_cdc.c **** 
   7:SynaptiX_FDK/app/user/sx_cdc/sx_user_cdc.c **** void sx_user_cdc_init(sx_user_cdc_t *h, sx_usb_tiny_t *usb)
   8:SynaptiX_FDK/app/user/sx_cdc/sx_user_cdc.c **** {
  31              		.loc 1 8 1 view -0
  32              		.cfi_startproc
  33              		@ args = 0, pretend = 0, frame = 0
  34              		@ frame_needed = 0, uses_anonymous_args = 0
  35              		@ link register save eliminated.
   9:SynaptiX_FDK/app/user/sx_cdc/sx_user_cdc.c ****     h->usb = usb;
  36              		.loc 1 9 5 view .LVU1
  37              		.loc 1 9 12 is_stmt 0 view .LVU2
  38 0000 0160     		str	r1, [r0]
  10:SynaptiX_FDK/app/user/sx_cdc/sx_user_cdc.c **** }
  39              		.loc 1 10 1 view .LVU3
  40 0002 7047     		bx	lr
  41              		.cfi_endproc
  42              	.LFE7:
  44              		.section	.text.sx_user_cdc_process,"ax",%progbits
  45              		.align	1
  46              		.global	sx_user_cdc_process
  47              		.syntax unified
  48              		.thumb
  49              		.thumb_func
ARM GAS  C:\Users\DELL\AppData\Local\Temp\ccIewVrc.s 			page 2


  51              	sx_user_cdc_process:
  52              	.LVL1:
  53              	.LFB8:
  11:SynaptiX_FDK/app/user/sx_cdc/sx_user_cdc.c **** 
  12:SynaptiX_FDK/app/user/sx_cdc/sx_user_cdc.c **** void sx_user_cdc_process(sx_user_cdc_t *h)
  13:SynaptiX_FDK/app/user/sx_cdc/sx_user_cdc.c **** {
  54              		.loc 1 13 1 is_stmt 1 view -0
  55              		.cfi_startproc
  56              		@ args = 0, pretend = 0, frame = 0
  57              		@ frame_needed = 0, uses_anonymous_args = 0
  58              		.loc 1 13 1 is_stmt 0 view .LVU5
  59 0000 08B5     		push	{r3, lr}
  60              	.LCFI0:
  61              		.cfi_def_cfa_offset 8
  62              		.cfi_offset 3, -8
  63              		.cfi_offset 14, -4
  14:SynaptiX_FDK/app/user/sx_cdc/sx_user_cdc.c ****     sx_usb_tiny_process(h->usb);
  64              		.loc 1 14 5 is_stmt 1 view .LVU6
  65 0002 0068     		ldr	r0, [r0]
  66              	.LVL2:
  67              		.loc 1 14 5 is_stmt 0 view .LVU7
  68 0004 FFF7FEFF 		bl	sx_usb_tiny_process
  69              	.LVL3:
  15:SynaptiX_FDK/app/user/sx_cdc/sx_user_cdc.c **** }
  70              		.loc 1 15 1 view .LVU8
  71 0008 08BD     		pop	{r3, pc}
  72              		.cfi_endproc
  73              	.LFE8:
  75              		.section	.text.sx_user_cdc_connected,"ax",%progbits
  76              		.align	1
  77              		.global	sx_user_cdc_connected
  78              		.syntax unified
  79              		.thumb
  80              		.thumb_func
  82              	sx_user_cdc_connected:
  83              	.LVL4:
  84              	.LFB9:
  16:SynaptiX_FDK/app/user/sx_cdc/sx_user_cdc.c **** 
  17:SynaptiX_FDK/app/user/sx_cdc/sx_user_cdc.c **** bool sx_user_cdc_connected(sx_user_cdc_t *h)
  18:SynaptiX_FDK/app/user/sx_cdc/sx_user_cdc.c **** {
  85              		.loc 1 18 1 is_stmt 1 view -0
  86              		.cfi_startproc
  87              		@ args = 0, pretend = 0, frame = 0
  88              		@ frame_needed = 0, uses_anonymous_args = 0
  89              		.loc 1 18 1 is_stmt 0 view .LVU10
  90 0000 08B5     		push	{r3, lr}
  91              	.LCFI1:
  92              		.cfi_def_cfa_offset 8
  93              		.cfi_offset 3, -8
  94              		.cfi_offset 14, -4
  19:SynaptiX_FDK/app/user/sx_cdc/sx_user_cdc.c ****     return sx_usb_tiny_connected(h->usb);
  95              		.loc 1 19 5 is_stmt 1 view .LVU11
  96              		.loc 1 19 12 is_stmt 0 view .LVU12
  97 0002 0068     		ldr	r0, [r0]
  98              	.LVL5:
  99              		.loc 1 19 12 view .LVU13
 100 0004 FFF7FEFF 		bl	sx_usb_tiny_connected
ARM GAS  C:\Users\DELL\AppData\Local\Temp\ccIewVrc.s 			page 3


 101              	.LVL6:
  20:SynaptiX_FDK/app/user/sx_cdc/sx_user_cdc.c **** }
 102              		.loc 1 20 1 view .LVU14
 103 0008 08BD     		pop	{r3, pc}
 104              		.cfi_endproc
 105              	.LFE9:
 107              		.section	.text.sx_user_cdc_available,"ax",%progbits
 108              		.align	1
 109              		.global	sx_user_cdc_available
 110              		.syntax unified
 111              		.thumb
 112              		.thumb_func
 114              	sx_user_cdc_available:
 115              	.LVL7:
 116              	.LFB10:
  21:SynaptiX_FDK/app/user/sx_cdc/sx_user_cdc.c **** 
  22:SynaptiX_FDK/app/user/sx_cdc/sx_user_cdc.c **** int sx_user_cdc_available(sx_user_cdc_t *h)
  23:SynaptiX_FDK/app/user/sx_cdc/sx_user_cdc.c **** {
 117              		.loc 1 23 1 is_stmt 1 view -0
 118              		.cfi_startproc
 119              		@ args = 0, pretend = 0, frame = 0
 120              		@ frame_needed = 0, uses_anonymous_args = 0
 121              		.loc 1 23 1 is_stmt 0 view .LVU16
 122 0000 08B5     		push	{r3, lr}
 123              	.LCFI2:
 124              		.cfi_def_cfa_offset 8
 125              		.cfi_offset 3, -8
 126              		.cfi_offset 14, -4
  24:SynaptiX_FDK/app/user/sx_cdc/sx_user_cdc.c ****     return sx_usb_tiny_available(h->usb);
 127              		.loc 1 24 5 is_stmt 1 view .LVU17
 128              		.loc 1 24 12 is_stmt 0 view .LVU18
 129 0002 0068     		ldr	r0, [r0]
 130              	.LVL8:
 131              		.loc 1 24 12 view .LVU19
 132 0004 FFF7FEFF 		bl	sx_usb_tiny_available
 133              	.LVL9:
  25:SynaptiX_FDK/app/user/sx_cdc/sx_user_cdc.c **** }
 134              		.loc 1 25 1 view .LVU20
 135 0008 08BD     		pop	{r3, pc}
 136              		.cfi_endproc
 137              	.LFE10:
 139              		.section	.text.sx_user_cdc_read,"ax",%progbits
 140              		.align	1
 141              		.global	sx_user_cdc_read
 142              		.syntax unified
 143              		.thumb
 144              		.thumb_func
 146              	sx_user_cdc_read:
 147              	.LVL10:
 148              	.LFB11:
  26:SynaptiX_FDK/app/user/sx_cdc/sx_user_cdc.c **** 
  27:SynaptiX_FDK/app/user/sx_cdc/sx_user_cdc.c **** int sx_user_cdc_read(sx_user_cdc_t *h, uint8_t *buf, uint32_t len, uint32_t timeout_ms)
  28:SynaptiX_FDK/app/user/sx_cdc/sx_user_cdc.c **** {
 149              		.loc 1 28 1 is_stmt 1 view -0
 150              		.cfi_startproc
 151              		@ args = 0, pretend = 0, frame = 0
 152              		@ frame_needed = 0, uses_anonymous_args = 0
ARM GAS  C:\Users\DELL\AppData\Local\Temp\ccIewVrc.s 			page 4


 153              		.loc 1 28 1 is_stmt 0 view .LVU22
 154 0000 08B5     		push	{r3, lr}
 155              	.LCFI3:
 156              		.cfi_def_cfa_offset 8
 157              		.cfi_offset 3, -8
 158              		.cfi_offset 14, -4
  29:SynaptiX_FDK/app/user/sx_cdc/sx_user_cdc.c ****     return sx_usb_tiny_read(h->usb, buf, len, timeout_ms);
 159              		.loc 1 29 5 is_stmt 1 view .LVU23
 160              		.loc 1 29 12 is_stmt 0 view .LVU24
 161 0002 0068     		ldr	r0, [r0]
 162              	.LVL11:
 163              		.loc 1 29 12 view .LVU25
 164 0004 FFF7FEFF 		bl	sx_usb_tiny_read
 165              	.LVL12:
  30:SynaptiX_FDK/app/user/sx_cdc/sx_user_cdc.c **** }
 166              		.loc 1 30 1 view .LVU26
 167 0008 08BD     		pop	{r3, pc}
 168              		.cfi_endproc
 169              	.LFE11:
 171              		.section	.text.sx_user_cdc_write,"ax",%progbits
 172              		.align	1
 173              		.global	sx_user_cdc_write
 174              		.syntax unified
 175              		.thumb
 176              		.thumb_func
 178              	sx_user_cdc_write:
 179              	.LVL13:
 180              	.LFB12:
  31:SynaptiX_FDK/app/user/sx_cdc/sx_user_cdc.c **** 
  32:SynaptiX_FDK/app/user/sx_cdc/sx_user_cdc.c **** void sx_user_cdc_write(sx_user_cdc_t *h, const uint8_t *buf, uint32_t len)
  33:SynaptiX_FDK/app/user/sx_cdc/sx_user_cdc.c **** {
 181              		.loc 1 33 1 is_stmt 1 view -0
 182              		.cfi_startproc
 183              		@ args = 0, pretend = 0, frame = 0
 184              		@ frame_needed = 0, uses_anonymous_args = 0
 185              		.loc 1 33 1 is_stmt 0 view .LVU28
 186 0000 08B5     		push	{r3, lr}
 187              	.LCFI4:
 188              		.cfi_def_cfa_offset 8
 189              		.cfi_offset 3, -8
 190              		.cfi_offset 14, -4
  34:SynaptiX_FDK/app/user/sx_cdc/sx_user_cdc.c ****     sx_usb_tiny_write(h->usb, buf, len);
 191              		.loc 1 34 5 is_stmt 1 view .LVU29
 192 0002 0068     		ldr	r0, [r0]
 193              	.LVL14:
 194              		.loc 1 34 5 is_stmt 0 view .LVU30
 195 0004 FFF7FEFF 		bl	sx_usb_tiny_write
 196              	.LVL15:
  35:SynaptiX_FDK/app/user/sx_cdc/sx_user_cdc.c **** }
 197              		.loc 1 35 1 view .LVU31
 198 0008 08BD     		pop	{r3, pc}
 199              		.cfi_endproc
 200              	.LFE12:
 202              		.section	.text.sx_user_cdc_printf,"ax",%progbits
 203              		.align	1
 204              		.global	sx_user_cdc_printf
 205              		.syntax unified
ARM GAS  C:\Users\DELL\AppData\Local\Temp\ccIewVrc.s 			page 5


 206              		.thumb
 207              		.thumb_func
 209              	sx_user_cdc_printf:
 210              	.LVL16:
 211              	.LFB13:
  36:SynaptiX_FDK/app/user/sx_cdc/sx_user_cdc.c **** 
  37:SynaptiX_FDK/app/user/sx_cdc/sx_user_cdc.c **** void sx_user_cdc_printf(sx_user_cdc_t *h, const char *fmt, ...)
  38:SynaptiX_FDK/app/user/sx_cdc/sx_user_cdc.c **** {
 212              		.loc 1 38 1 is_stmt 1 view -0
 213              		.cfi_startproc
 214              		@ args = 4, pretend = 12, frame = 264
 215              		@ frame_needed = 0, uses_anonymous_args = 1
 216              		.loc 1 38 1 is_stmt 0 view .LVU33
 217 0000 0EB4     		push	{r1, r2, r3}
 218              	.LCFI5:
 219              		.cfi_def_cfa_offset 12
 220              		.cfi_offset 1, -12
 221              		.cfi_offset 2, -8
 222              		.cfi_offset 3, -4
 223 0002 30B5     		push	{r4, r5, lr}
 224              	.LCFI6:
 225              		.cfi_def_cfa_offset 24
 226              		.cfi_offset 4, -24
 227              		.cfi_offset 5, -20
 228              		.cfi_offset 14, -16
 229 0004 C2B0     		sub	sp, sp, #264
 230              	.LCFI7:
 231              		.cfi_def_cfa_offset 288
 232 0006 0446     		mov	r4, r0
 233 0008 45AB     		add	r3, sp, #276
 234 000a 53F8042B 		ldr	r2, [r3], #4
  39:SynaptiX_FDK/app/user/sx_cdc/sx_user_cdc.c ****     char buf[256];
 235              		.loc 1 39 5 is_stmt 1 view .LVU34
  40:SynaptiX_FDK/app/user/sx_cdc/sx_user_cdc.c ****     va_list ap;
 236              		.loc 1 40 5 view .LVU35
  41:SynaptiX_FDK/app/user/sx_cdc/sx_user_cdc.c ****     va_start(ap, fmt);
 237              		.loc 1 41 5 view .LVU36
 238 000e 0193     		str	r3, [sp, #4]
  42:SynaptiX_FDK/app/user/sx_cdc/sx_user_cdc.c ****     vsnprintf(buf, sizeof(buf), fmt, ap);
 239              		.loc 1 42 5 view .LVU37
 240 0010 02AD     		add	r5, sp, #8
 241 0012 4FF48071 		mov	r1, #256
 242 0016 2846     		mov	r0, r5
 243              	.LVL17:
 244              		.loc 1 42 5 is_stmt 0 view .LVU38
 245 0018 FFF7FEFF 		bl	vsnprintf
 246              	.LVL18:
  43:SynaptiX_FDK/app/user/sx_cdc/sx_user_cdc.c ****     va_end(ap);
 247              		.loc 1 43 5 is_stmt 1 view .LVU39
  44:SynaptiX_FDK/app/user/sx_cdc/sx_user_cdc.c ****     sx_user_cdc_write(h, (uint8_t *)buf, strlen(buf));
 248              		.loc 1 44 5 view .LVU40
 249              		.loc 1 44 42 is_stmt 0 view .LVU41
 250 001c 2846     		mov	r0, r5
 251 001e FFF7FEFF 		bl	strlen
 252              	.LVL19:
 253 0022 0246     		mov	r2, r0
 254              		.loc 1 44 5 discriminator 1 view .LVU42
ARM GAS  C:\Users\DELL\AppData\Local\Temp\ccIewVrc.s 			page 6


 255 0024 2946     		mov	r1, r5
 256 0026 2046     		mov	r0, r4
 257 0028 FFF7FEFF 		bl	sx_user_cdc_write
 258              	.LVL20:
  45:SynaptiX_FDK/app/user/sx_cdc/sx_user_cdc.c **** }...
 259              		.loc 1 45 1 view .LVU43
 260 002c 42B0     		add	sp, sp, #264
 261              	.LCFI8:
 262              		.cfi_def_cfa_offset 24
 263              		@ sp needed
 264 002e BDE83040 		pop	{r4, r5, lr}
 265              	.LCFI9:
 266              		.cfi_restore 14
 267              		.cfi_restore 5
 268              		.cfi_restore 4
 269              		.cfi_def_cfa_offset 12
 270              	.LVL21:
 271              		.loc 1 45 1 view .LVU44
 272 0032 03B0     		add	sp, sp, #12
 273              	.LCFI10:
 274              		.cfi_restore 3
 275              		.cfi_restore 2
 276              		.cfi_restore 1
 277              		.cfi_def_cfa_offset 0
 278 0034 7047     		bx	lr
 279              		.cfi_endproc
 280              	.LFE13:
 282              		.text
 283              	.Letext0:
 284              		.file 2 "D:\\stm32cubeclt\\STM32CubeCLT_1.21.0\\GNU-tools-for-STM32\\bin\\../lib/gcc/arm-none-eabi
 285              		.file 3 "D:\\stm32cubeclt\\STM32CubeCLT_1.21.0\\GNU-tools-for-STM32\\bin\\../lib/gcc/arm-none-eabi
 286              		.file 4 "D:\\stm32cubeclt\\STM32CubeCLT_1.21.0\\GNU-tools-for-STM32\\bin\\../lib/gcc/arm-none-eabi
 287              		.file 5 "D:\\stm32cubeclt\\STM32CubeCLT_1.21.0\\GNU-tools-for-STM32\\bin\\../lib/gcc/arm-none-eabi
 288              		.file 6 "D:\\stm32cubeclt\\STM32CubeCLT_1.21.0\\GNU-tools-for-STM32\\bin\\../lib/gcc/arm-none-eabi
 289              		.file 7 "SynaptiX_FDK/utils/cqueue/cqueue.h"
 290              		.file 8 "SynaptiX_FDK/components/peripherals/usb_cdc_tiny/sx_usb_tiny_cdc.h"
 291              		.file 9 "SynaptiX_FDK/app/user/sx_cdc/sx_user_cdc.h"
 292              		.file 10 "D:\\stm32cubeclt\\STM32CubeCLT_1.21.0\\GNU-tools-for-STM32\\bin\\../lib/gcc/arm-none-eab
 293              		.file 11 "<built-in>"
ARM GAS  C:\Users\DELL\AppData\Local\Temp\ccIewVrc.s 			page 7

