ARM GAS  C:\Users\DELL\AppData\Local\Temp\ccPVFf9r.s 			page 1


   1              		.cpu cortex-m33
   2              		.arch armv8-m.main
   3              		.fpu fpv5-sp-d16
   4              		.arch_extension dsp
   5              		.eabi_attribute 27, 1
   6              		.eabi_attribute 28, 1
   7              		.eabi_attribute 20, 1
   8              		.eabi_attribute 21, 1
   9              		.eabi_attribute 23, 3
  10              		.eabi_attribute 24, 1
  11              		.eabi_attribute 25, 1
  12              		.eabi_attribute 26, 1
  13              		.eabi_attribute 30, 1
  14              		.eabi_attribute 34, 1
  15              		.eabi_attribute 18, 4
  16              		.file	"sx_usb_tiny_cdc.c"
  17              		.text
  18              	.Ltext0:
  19              		.cfi_sections	.debug_frame
  20              		.file 1 "SynaptiX_FDK/components/peripherals/usb_cdc_tiny/sx_usb_tiny_cdc.c"
  21              		.section	.rodata.usb_rx_task.str1.4,"aMS",%progbits,1
  22              		.align	2
  23              	.LC1:
  24 0000 636F6E6E 		.ascii	"connected=%d available=%d\000"
  24      65637465 
  24      643D2564 
  24      20617661 
  24      696C6162 
  25 001a 0000     		.align	2
  26              	.LC2:
  27 001c 53585F55 		.ascii	"SX_USB_TINY\000"
  27      53425F54 
  27      494E5900 
  28              		.align	2
  29              	.LC3:
  30 0028 52582071 		.ascii	"RX queue full, byte dropped\000"
  30      75657565 
  30      2066756C 
  30      6C2C2062 
  30      79746520 
  31              		.section	.text.usb_rx_task,"ax",%progbits
  32              		.align	1
  33              		.syntax unified
  34              		.thumb
  35              		.thumb_func
  37              	usb_rx_task:
  38              	.LVL0:
  39              	.LFB432:
   1:SynaptiX_FDK/components/peripherals/usb_cdc_tiny/sx_usb_tiny_cdc.c **** #include "sx_usb_tiny_cdc.h"
   2:SynaptiX_FDK/components/peripherals/usb_cdc_tiny/sx_usb_tiny_cdc.c **** #include "sx_mem.h"
   3:SynaptiX_FDK/components/peripherals/usb_cdc_tiny/sx_usb_tiny_cdc.c **** #include "sx_config.h"
   4:SynaptiX_FDK/components/peripherals/usb_cdc_tiny/sx_usb_tiny_cdc.c **** #include "logger.h"
   5:SynaptiX_FDK/components/peripherals/usb_cdc_tiny/sx_usb_tiny_cdc.c **** #include <string.h>
   6:SynaptiX_FDK/components/peripherals/usb_cdc_tiny/sx_usb_tiny_cdc.c **** #include <stdarg.h>
   7:SynaptiX_FDK/components/peripherals/usb_cdc_tiny/sx_usb_tiny_cdc.c **** #include <stdio.h>
   8:SynaptiX_FDK/components/peripherals/usb_cdc_tiny/sx_usb_tiny_cdc.c **** #include "sx_delay.h"
   9:SynaptiX_FDK/components/peripherals/usb_cdc_tiny/sx_usb_tiny_cdc.c **** static const char *TAG = "SX_USB_TINY";
ARM GAS  C:\Users\DELL\AppData\Local\Temp\ccPVFf9r.s 			page 2


  10:SynaptiX_FDK/components/peripherals/usb_cdc_tiny/sx_usb_tiny_cdc.c **** 
  11:SynaptiX_FDK/components/peripherals/usb_cdc_tiny/sx_usb_tiny_cdc.c **** #if (SX_PLATFORM == SX_PLATFORM_STM32H5) 
  12:SynaptiX_FDK/components/peripherals/usb_cdc_tiny/sx_usb_tiny_cdc.c ****     #include "stm32h5xx_hal.h"
  13:SynaptiX_FDK/components/peripherals/usb_cdc_tiny/sx_usb_tiny_cdc.c ****     #include "tusb.h"
  14:SynaptiX_FDK/components/peripherals/usb_cdc_tiny/sx_usb_tiny_cdc.c ****     #include "usb.h"
  15:SynaptiX_FDK/components/peripherals/usb_cdc_tiny/sx_usb_tiny_cdc.c **** #elif (SX_PLATFORM == SX_PLATFORM_STM32H7)
  16:SynaptiX_FDK/components/peripherals/usb_cdc_tiny/sx_usb_tiny_cdc.c ****     #include "stm32h7xx_hal_uart.h"
  17:SynaptiX_FDK/components/peripherals/usb_cdc_tiny/sx_usb_tiny_cdc.c **** #endif
  18:SynaptiX_FDK/components/peripherals/usb_cdc_tiny/sx_usb_tiny_cdc.c **** 
  19:SynaptiX_FDK/components/peripherals/usb_cdc_tiny/sx_usb_tiny_cdc.c **** void sx_usb_tiny_init(sx_usb_tiny_t *_usb, sx_usb_tiny_config_t *_config)
  20:SynaptiX_FDK/components/peripherals/usb_cdc_tiny/sx_usb_tiny_cdc.c **** {
  21:SynaptiX_FDK/components/peripherals/usb_cdc_tiny/sx_usb_tiny_cdc.c ****     _usb->config    = _config;
  22:SynaptiX_FDK/components/peripherals/usb_cdc_tiny/sx_usb_tiny_cdc.c ****     _usb->connected = false;
  23:SynaptiX_FDK/components/peripherals/usb_cdc_tiny/sx_usb_tiny_cdc.c **** 
  24:SynaptiX_FDK/components/peripherals/usb_cdc_tiny/sx_usb_tiny_cdc.c ****     _usb->rxBuffer = sx_malloc(_config->rx_buf_size);
  25:SynaptiX_FDK/components/peripherals/usb_cdc_tiny/sx_usb_tiny_cdc.c ****     cqueue_init_static(&_usb->rxQueue, _usb->rxBuffer,
  26:SynaptiX_FDK/components/peripherals/usb_cdc_tiny/sx_usb_tiny_cdc.c ****                         _config->rx_buf_size, 1);
  27:SynaptiX_FDK/components/peripherals/usb_cdc_tiny/sx_usb_tiny_cdc.c **** 
  28:SynaptiX_FDK/components/peripherals/usb_cdc_tiny/sx_usb_tiny_cdc.c ****     _usb->txBuffer = sx_malloc(_config->tx_buf_size);
  29:SynaptiX_FDK/components/peripherals/usb_cdc_tiny/sx_usb_tiny_cdc.c ****     cqueue_init_static(&_usb->txQueue, _usb->txBuffer,
  30:SynaptiX_FDK/components/peripherals/usb_cdc_tiny/sx_usb_tiny_cdc.c ****                         _config->tx_buf_size, 1);
  31:SynaptiX_FDK/components/peripherals/usb_cdc_tiny/sx_usb_tiny_cdc.c **** 
  32:SynaptiX_FDK/components/peripherals/usb_cdc_tiny/sx_usb_tiny_cdc.c ****     #if (SX_USE_OS == 1)
  33:SynaptiX_FDK/components/peripherals/usb_cdc_tiny/sx_usb_tiny_cdc.c ****     sx_os_mutex_new(&_usb->rxMutex);
  34:SynaptiX_FDK/components/peripherals/usb_cdc_tiny/sx_usb_tiny_cdc.c ****     #endif
  35:SynaptiX_FDK/components/peripherals/usb_cdc_tiny/sx_usb_tiny_cdc.c **** 
  36:SynaptiX_FDK/components/peripherals/usb_cdc_tiny/sx_usb_tiny_cdc.c **** #if SX_PLATFORM == SX_PLATFORM_STM32H5 || SX_PLATFORM == SX_PLATFORM_STM32H7
  37:SynaptiX_FDK/components/peripherals/usb_cdc_tiny/sx_usb_tiny_cdc.c ****     //dcd_fs_msp_init(0);
  38:SynaptiX_FDK/components/peripherals/usb_cdc_tiny/sx_usb_tiny_cdc.c **** 
  39:SynaptiX_FDK/components/peripherals/usb_cdc_tiny/sx_usb_tiny_cdc.c ****     tusb_rhport_init_t dev_init = {
  40:SynaptiX_FDK/components/peripherals/usb_cdc_tiny/sx_usb_tiny_cdc.c ****         .role  = TUSB_ROLE_DEVICE,
  41:SynaptiX_FDK/components/peripherals/usb_cdc_tiny/sx_usb_tiny_cdc.c ****         .speed = TUSB_SPEED_AUTO,
  42:SynaptiX_FDK/components/peripherals/usb_cdc_tiny/sx_usb_tiny_cdc.c ****     };
  43:SynaptiX_FDK/components/peripherals/usb_cdc_tiny/sx_usb_tiny_cdc.c ****     tusb_init(BOARD_TUD_RHPORT, &dev_init);
  44:SynaptiX_FDK/components/peripherals/usb_cdc_tiny/sx_usb_tiny_cdc.c **** #endif
  45:SynaptiX_FDK/components/peripherals/usb_cdc_tiny/sx_usb_tiny_cdc.c **** 
  46:SynaptiX_FDK/components/peripherals/usb_cdc_tiny/sx_usb_tiny_cdc.c ****     log_info(TAG, "CDC initialized, rx_buf=%lu tx_buf=%lu",
  47:SynaptiX_FDK/components/peripherals/usb_cdc_tiny/sx_usb_tiny_cdc.c ****              _config->rx_buf_size, _config->tx_buf_size);
  48:SynaptiX_FDK/components/peripherals/usb_cdc_tiny/sx_usb_tiny_cdc.c **** }
  49:SynaptiX_FDK/components/peripherals/usb_cdc_tiny/sx_usb_tiny_cdc.c **** 
  50:SynaptiX_FDK/components/peripherals/usb_cdc_tiny/sx_usb_tiny_cdc.c **** /*RX_TASK*/
  51:SynaptiX_FDK/components/peripherals/usb_cdc_tiny/sx_usb_tiny_cdc.c **** static void usb_rx_task(sx_usb_tiny_t *_usb)
  52:SynaptiX_FDK/components/peripherals/usb_cdc_tiny/sx_usb_tiny_cdc.c **** {
  40              		.loc 1 52 1 view -0
  41              		.cfi_startproc
  42              		@ args = 0, pretend = 0, frame = 64
  43              		@ frame_needed = 0, uses_anonymous_args = 0
  44              		.loc 1 52 1 is_stmt 0 view .LVU1
  45 0000 70B5     		push	{r4, r5, r6, lr}
  46              	.LCFI0:
  47              		.cfi_def_cfa_offset 16
  48              		.cfi_offset 4, -16
  49              		.cfi_offset 5, -12
  50              		.cfi_offset 6, -8
  51              		.cfi_offset 14, -4
  52 0002 92B0     		sub	sp, sp, #72
  53              	.LCFI1:
ARM GAS  C:\Users\DELL\AppData\Local\Temp\ccPVFf9r.s 			page 3


  54              		.cfi_def_cfa_offset 88
  55 0004 0546     		mov	r5, r0
  53:SynaptiX_FDK/components/peripherals/usb_cdc_tiny/sx_usb_tiny_cdc.c **** #if SX_PLATFORM == SX_PLATFORM_STM32H5 || SX_PLATFORM == SX_PLATFORM_STM32H7
  54:SynaptiX_FDK/components/peripherals/usb_cdc_tiny/sx_usb_tiny_cdc.c ****     if(!tud_cdc_connected()) return;
  56              		.loc 1 54 5 is_stmt 1 view .LVU2
  57              	.LBB26:
  58              	.LBI26:
  59              		.file 2 "SynaptiX_FDK/lib/tinyusb/src/class/cdc/cdc_device.h"
   1:SynaptiX_FDK/lib/tinyusb/src/class/cdc/cdc_device.h **** /*
   2:SynaptiX_FDK/lib/tinyusb/src/class/cdc/cdc_device.h ****  * The MIT License (MIT)
   3:SynaptiX_FDK/lib/tinyusb/src/class/cdc/cdc_device.h ****  *
   4:SynaptiX_FDK/lib/tinyusb/src/class/cdc/cdc_device.h ****  * Copyright (c) 2019 Ha Thach (tinyusb.org)
   5:SynaptiX_FDK/lib/tinyusb/src/class/cdc/cdc_device.h ****  *
   6:SynaptiX_FDK/lib/tinyusb/src/class/cdc/cdc_device.h ****  * Permission is hereby granted, free of charge, to any person obtaining a copy
   7:SynaptiX_FDK/lib/tinyusb/src/class/cdc/cdc_device.h ****  * of this software and associated documentation files (the "Software"), to deal
   8:SynaptiX_FDK/lib/tinyusb/src/class/cdc/cdc_device.h ****  * in the Software without restriction, including without limitation the rights
   9:SynaptiX_FDK/lib/tinyusb/src/class/cdc/cdc_device.h ****  * to use, copy, modify, merge, publish, distribute, sublicense, and/or sell
  10:SynaptiX_FDK/lib/tinyusb/src/class/cdc/cdc_device.h ****  * copies of the Software, and to permit persons to whom the Software is
  11:SynaptiX_FDK/lib/tinyusb/src/class/cdc/cdc_device.h ****  * furnished to do so, subject to the following conditions:
  12:SynaptiX_FDK/lib/tinyusb/src/class/cdc/cdc_device.h ****  *
  13:SynaptiX_FDK/lib/tinyusb/src/class/cdc/cdc_device.h ****  * The above copyright notice and this permission notice shall be included in
  14:SynaptiX_FDK/lib/tinyusb/src/class/cdc/cdc_device.h ****  * all copies or substantial portions of the Software.
  15:SynaptiX_FDK/lib/tinyusb/src/class/cdc/cdc_device.h ****  *
  16:SynaptiX_FDK/lib/tinyusb/src/class/cdc/cdc_device.h ****  * THE SOFTWARE IS PROVIDED "AS IS", WITHOUT WARRANTY OF ANY KIND, EXPRESS OR
  17:SynaptiX_FDK/lib/tinyusb/src/class/cdc/cdc_device.h ****  * IMPLIED, INCLUDING BUT NOT LIMITED TO THE WARRANTIES OF MERCHANTABILITY,
  18:SynaptiX_FDK/lib/tinyusb/src/class/cdc/cdc_device.h ****  * FITNESS FOR A PARTICULAR PURPOSE AND NONINFRINGEMENT. IN NO EVENT SHALL THE
  19:SynaptiX_FDK/lib/tinyusb/src/class/cdc/cdc_device.h ****  * AUTHORS OR COPYRIGHT HOLDERS BE LIABLE FOR ANY CLAIM, DAMAGES OR OTHER
  20:SynaptiX_FDK/lib/tinyusb/src/class/cdc/cdc_device.h ****  * LIABILITY, WHETHER IN AN ACTION OF CONTRACT, TORT OR OTHERWISE, ARISING FROM,
  21:SynaptiX_FDK/lib/tinyusb/src/class/cdc/cdc_device.h ****  * OUT OF OR IN CONNECTION WITH THE SOFTWARE OR THE USE OR OTHER DEALINGS IN
  22:SynaptiX_FDK/lib/tinyusb/src/class/cdc/cdc_device.h ****  * THE SOFTWARE.
  23:SynaptiX_FDK/lib/tinyusb/src/class/cdc/cdc_device.h ****  *
  24:SynaptiX_FDK/lib/tinyusb/src/class/cdc/cdc_device.h ****  * This file is part of the TinyUSB stack.
  25:SynaptiX_FDK/lib/tinyusb/src/class/cdc/cdc_device.h ****  */
  26:SynaptiX_FDK/lib/tinyusb/src/class/cdc/cdc_device.h **** 
  27:SynaptiX_FDK/lib/tinyusb/src/class/cdc/cdc_device.h **** #ifndef TUSB_CDC_DEVICE_H_
  28:SynaptiX_FDK/lib/tinyusb/src/class/cdc/cdc_device.h **** #define TUSB_CDC_DEVICE_H_
  29:SynaptiX_FDK/lib/tinyusb/src/class/cdc/cdc_device.h **** 
  30:SynaptiX_FDK/lib/tinyusb/src/class/cdc/cdc_device.h **** #include "cdc.h"
  31:SynaptiX_FDK/lib/tinyusb/src/class/cdc/cdc_device.h **** 
  32:SynaptiX_FDK/lib/tinyusb/src/class/cdc/cdc_device.h **** #ifdef __cplusplus
  33:SynaptiX_FDK/lib/tinyusb/src/class/cdc/cdc_device.h ****  extern "C" {
  34:SynaptiX_FDK/lib/tinyusb/src/class/cdc/cdc_device.h **** #endif
  35:SynaptiX_FDK/lib/tinyusb/src/class/cdc/cdc_device.h **** 
  36:SynaptiX_FDK/lib/tinyusb/src/class/cdc/cdc_device.h **** //--------------------------------------------------------------------+
  37:SynaptiX_FDK/lib/tinyusb/src/class/cdc/cdc_device.h **** // Class Driver Configuration
  38:SynaptiX_FDK/lib/tinyusb/src/class/cdc/cdc_device.h **** //--------------------------------------------------------------------+
  39:SynaptiX_FDK/lib/tinyusb/src/class/cdc/cdc_device.h **** #ifndef CFG_TUD_CDC_NOTIFY
  40:SynaptiX_FDK/lib/tinyusb/src/class/cdc/cdc_device.h ****   #define CFG_TUD_CDC_NOTIFY    0
  41:SynaptiX_FDK/lib/tinyusb/src/class/cdc/cdc_device.h **** #endif
  42:SynaptiX_FDK/lib/tinyusb/src/class/cdc/cdc_device.h **** 
  43:SynaptiX_FDK/lib/tinyusb/src/class/cdc/cdc_device.h **** #ifndef CFG_TUD_CDC_TX_BUFSIZE
  44:SynaptiX_FDK/lib/tinyusb/src/class/cdc/cdc_device.h ****   #define CFG_TUD_CDC_TX_BUFSIZE TUD_EPSIZE_BULK_MAX
  45:SynaptiX_FDK/lib/tinyusb/src/class/cdc/cdc_device.h **** #endif
  46:SynaptiX_FDK/lib/tinyusb/src/class/cdc/cdc_device.h **** 
  47:SynaptiX_FDK/lib/tinyusb/src/class/cdc/cdc_device.h **** #ifndef CFG_TUD_CDC_RX_BUFSIZE
  48:SynaptiX_FDK/lib/tinyusb/src/class/cdc/cdc_device.h ****   #define CFG_TUD_CDC_RX_BUFSIZE TUD_EPSIZE_BULK_MAX
  49:SynaptiX_FDK/lib/tinyusb/src/class/cdc/cdc_device.h **** #endif
ARM GAS  C:\Users\DELL\AppData\Local\Temp\ccPVFf9r.s 			page 4


  50:SynaptiX_FDK/lib/tinyusb/src/class/cdc/cdc_device.h **** 
  51:SynaptiX_FDK/lib/tinyusb/src/class/cdc/cdc_device.h **** // EP_BUFSIZE is separated to RX_EPSIZE and TX_EPSIZE
  52:SynaptiX_FDK/lib/tinyusb/src/class/cdc/cdc_device.h **** #ifndef CFG_TUD_CDC_RX_EPSIZE
  53:SynaptiX_FDK/lib/tinyusb/src/class/cdc/cdc_device.h ****   #ifdef CFG_TUD_CDC_EP_BUFSIZE
  54:SynaptiX_FDK/lib/tinyusb/src/class/cdc/cdc_device.h ****     #define CFG_TUD_CDC_RX_EPSIZE CFG_TUD_CDC_EP_BUFSIZE
  55:SynaptiX_FDK/lib/tinyusb/src/class/cdc/cdc_device.h ****   #else
  56:SynaptiX_FDK/lib/tinyusb/src/class/cdc/cdc_device.h ****     #define CFG_TUD_CDC_RX_EPSIZE TUD_EPSIZE_BULK_MAX
  57:SynaptiX_FDK/lib/tinyusb/src/class/cdc/cdc_device.h ****   #endif
  58:SynaptiX_FDK/lib/tinyusb/src/class/cdc/cdc_device.h **** #endif
  59:SynaptiX_FDK/lib/tinyusb/src/class/cdc/cdc_device.h **** 
  60:SynaptiX_FDK/lib/tinyusb/src/class/cdc/cdc_device.h **** #ifndef CFG_TUD_CDC_TX_EPSIZE
  61:SynaptiX_FDK/lib/tinyusb/src/class/cdc/cdc_device.h ****   #ifdef CFG_TUD_CDC_EP_BUFSIZE
  62:SynaptiX_FDK/lib/tinyusb/src/class/cdc/cdc_device.h ****     #define CFG_TUD_CDC_TX_EPSIZE  CFG_TUD_CDC_EP_BUFSIZE
  63:SynaptiX_FDK/lib/tinyusb/src/class/cdc/cdc_device.h ****   #else
  64:SynaptiX_FDK/lib/tinyusb/src/class/cdc/cdc_device.h ****     #define CFG_TUD_CDC_TX_EPSIZE TUD_EPSIZE_BULK_MAX
  65:SynaptiX_FDK/lib/tinyusb/src/class/cdc/cdc_device.h ****   #endif
  66:SynaptiX_FDK/lib/tinyusb/src/class/cdc/cdc_device.h **** #endif
  67:SynaptiX_FDK/lib/tinyusb/src/class/cdc/cdc_device.h **** 
  68:SynaptiX_FDK/lib/tinyusb/src/class/cdc/cdc_device.h **** // Enable multi-packet RX transfer with ZLP termination for better throughput. Requires host suppor
  69:SynaptiX_FDK/lib/tinyusb/src/class/cdc/cdc_device.h **** #ifndef CFG_TUD_CDC_RX_NEED_ZLP
  70:SynaptiX_FDK/lib/tinyusb/src/class/cdc/cdc_device.h ****   #define CFG_TUD_CDC_RX_NEED_ZLP 0
  71:SynaptiX_FDK/lib/tinyusb/src/class/cdc/cdc_device.h **** #endif
  72:SynaptiX_FDK/lib/tinyusb/src/class/cdc/cdc_device.h **** 
  73:SynaptiX_FDK/lib/tinyusb/src/class/cdc/cdc_device.h **** // Keep rx fifo data even with bus reset or disconnect
  74:SynaptiX_FDK/lib/tinyusb/src/class/cdc/cdc_device.h **** #ifndef CFG_TUD_CDC_RX_PERSISTENT
  75:SynaptiX_FDK/lib/tinyusb/src/class/cdc/cdc_device.h ****   #define CFG_TUD_CDC_RX_PERSISTENT 0
  76:SynaptiX_FDK/lib/tinyusb/src/class/cdc/cdc_device.h **** #endif
  77:SynaptiX_FDK/lib/tinyusb/src/class/cdc/cdc_device.h **** 
  78:SynaptiX_FDK/lib/tinyusb/src/class/cdc/cdc_device.h **** // Keep tx fifo data even with bus reset or disconnect
  79:SynaptiX_FDK/lib/tinyusb/src/class/cdc/cdc_device.h **** #ifndef CFG_TUD_CDC_TX_PERSISTENT
  80:SynaptiX_FDK/lib/tinyusb/src/class/cdc/cdc_device.h ****   #define CFG_TUD_CDC_TX_PERSISTENT 0
  81:SynaptiX_FDK/lib/tinyusb/src/class/cdc/cdc_device.h **** #endif
  82:SynaptiX_FDK/lib/tinyusb/src/class/cdc/cdc_device.h **** 
  83:SynaptiX_FDK/lib/tinyusb/src/class/cdc/cdc_device.h **** // If not connected, tx fifo can be overwritten
  84:SynaptiX_FDK/lib/tinyusb/src/class/cdc/cdc_device.h **** #ifndef CFG_TUD_CDC_TX_OVERWRITABLE_IF_NOT_CONNECTED
  85:SynaptiX_FDK/lib/tinyusb/src/class/cdc/cdc_device.h ****   #define CFG_TUD_CDC_TX_OVERWRITABLE_IF_NOT_CONNECTED 1
  86:SynaptiX_FDK/lib/tinyusb/src/class/cdc/cdc_device.h **** #endif
  87:SynaptiX_FDK/lib/tinyusb/src/class/cdc/cdc_device.h **** 
  88:SynaptiX_FDK/lib/tinyusb/src/class/cdc/cdc_device.h **** // Backward compatible: tud_cdc_configure_t and tud_cdc_configure() are no longer used.
  89:SynaptiX_FDK/lib/tinyusb/src/class/cdc/cdc_device.h **** // Configuration is now done via compile-time macros above.
  90:SynaptiX_FDK/lib/tinyusb/src/class/cdc/cdc_device.h **** typedef struct {
  91:SynaptiX_FDK/lib/tinyusb/src/class/cdc/cdc_device.h ****   bool rx_persistent;
  92:SynaptiX_FDK/lib/tinyusb/src/class/cdc/cdc_device.h ****   bool tx_persistent;
  93:SynaptiX_FDK/lib/tinyusb/src/class/cdc/cdc_device.h ****   bool tx_overwritabe_if_not_connected;
  94:SynaptiX_FDK/lib/tinyusb/src/class/cdc/cdc_device.h **** } tud_cdc_configure_t;
  95:SynaptiX_FDK/lib/tinyusb/src/class/cdc/cdc_device.h **** 
  96:SynaptiX_FDK/lib/tinyusb/src/class/cdc/cdc_device.h **** #define tud_cdc_configure(_cfg)          ((void)(_cfg))
  97:SynaptiX_FDK/lib/tinyusb/src/class/cdc/cdc_device.h **** #define tud_cdc_configure_fifo_t         tud_cdc_configure_t
  98:SynaptiX_FDK/lib/tinyusb/src/class/cdc/cdc_device.h **** #define tud_cdc_configure_fifo(_cfg)     ((void)(_cfg))
  99:SynaptiX_FDK/lib/tinyusb/src/class/cdc/cdc_device.h **** 
 100:SynaptiX_FDK/lib/tinyusb/src/class/cdc/cdc_device.h **** //--------------------------------------------------------------------+
 101:SynaptiX_FDK/lib/tinyusb/src/class/cdc/cdc_device.h **** // Application API (Multiple Ports) i.e. CFG_TUD_CDC > 1
 102:SynaptiX_FDK/lib/tinyusb/src/class/cdc/cdc_device.h **** //--------------------------------------------------------------------+
 103:SynaptiX_FDK/lib/tinyusb/src/class/cdc/cdc_device.h **** 
 104:SynaptiX_FDK/lib/tinyusb/src/class/cdc/cdc_device.h **** // Check if the interface is ready
 105:SynaptiX_FDK/lib/tinyusb/src/class/cdc/cdc_device.h **** bool tud_cdc_n_ready(uint8_t itf);
 106:SynaptiX_FDK/lib/tinyusb/src/class/cdc/cdc_device.h **** 
ARM GAS  C:\Users\DELL\AppData\Local\Temp\ccPVFf9r.s 			page 5


 107:SynaptiX_FDK/lib/tinyusb/src/class/cdc/cdc_device.h **** // Check if the terminal is connected to this port
 108:SynaptiX_FDK/lib/tinyusb/src/class/cdc/cdc_device.h **** bool tud_cdc_n_connected(uint8_t itf);
 109:SynaptiX_FDK/lib/tinyusb/src/class/cdc/cdc_device.h **** 
 110:SynaptiX_FDK/lib/tinyusb/src/class/cdc/cdc_device.h **** // Get the current line state. Bit 0:  DTR (Data Terminal Ready), Bit 1: RTS (Request to Send)
 111:SynaptiX_FDK/lib/tinyusb/src/class/cdc/cdc_device.h **** uint8_t tud_cdc_n_get_line_state(uint8_t itf);
 112:SynaptiX_FDK/lib/tinyusb/src/class/cdc/cdc_device.h **** 
 113:SynaptiX_FDK/lib/tinyusb/src/class/cdc/cdc_device.h **** // Get current line encoding: bit rate, stop bits parity etc ..
 114:SynaptiX_FDK/lib/tinyusb/src/class/cdc/cdc_device.h **** void tud_cdc_n_get_line_coding(uint8_t itf, cdc_line_coding_t* coding);
 115:SynaptiX_FDK/lib/tinyusb/src/class/cdc/cdc_device.h **** 
 116:SynaptiX_FDK/lib/tinyusb/src/class/cdc/cdc_device.h **** // Set special character that will trigger tud_cdc_rx_wanted_cb() callback on receiving
 117:SynaptiX_FDK/lib/tinyusb/src/class/cdc/cdc_device.h **** void tud_cdc_n_set_wanted_char(uint8_t itf, char wanted);
 118:SynaptiX_FDK/lib/tinyusb/src/class/cdc/cdc_device.h **** 
 119:SynaptiX_FDK/lib/tinyusb/src/class/cdc/cdc_device.h **** // Get the number of bytes available for reading
 120:SynaptiX_FDK/lib/tinyusb/src/class/cdc/cdc_device.h **** uint32_t tud_cdc_n_available(uint8_t itf);
 121:SynaptiX_FDK/lib/tinyusb/src/class/cdc/cdc_device.h **** 
 122:SynaptiX_FDK/lib/tinyusb/src/class/cdc/cdc_device.h **** // Read received bytes
 123:SynaptiX_FDK/lib/tinyusb/src/class/cdc/cdc_device.h **** uint32_t tud_cdc_n_read(uint8_t itf, void* buffer, uint32_t bufsize);
 124:SynaptiX_FDK/lib/tinyusb/src/class/cdc/cdc_device.h **** 
 125:SynaptiX_FDK/lib/tinyusb/src/class/cdc/cdc_device.h **** // Read a byte, return -1 if there is none
 126:SynaptiX_FDK/lib/tinyusb/src/class/cdc/cdc_device.h **** TU_ATTR_ALWAYS_INLINE static inline int32_t tud_cdc_n_read_char(uint8_t itf) {
 127:SynaptiX_FDK/lib/tinyusb/src/class/cdc/cdc_device.h ****   uint8_t ch;
 128:SynaptiX_FDK/lib/tinyusb/src/class/cdc/cdc_device.h ****   return tud_cdc_n_read(itf, &ch, 1) ? (int32_t) ch : -1;
 129:SynaptiX_FDK/lib/tinyusb/src/class/cdc/cdc_device.h **** }
 130:SynaptiX_FDK/lib/tinyusb/src/class/cdc/cdc_device.h **** 
 131:SynaptiX_FDK/lib/tinyusb/src/class/cdc/cdc_device.h **** // Clear the received FIFO
 132:SynaptiX_FDK/lib/tinyusb/src/class/cdc/cdc_device.h **** void tud_cdc_n_read_flush(uint8_t itf);
 133:SynaptiX_FDK/lib/tinyusb/src/class/cdc/cdc_device.h **** 
 134:SynaptiX_FDK/lib/tinyusb/src/class/cdc/cdc_device.h **** // Get a byte from FIFO without removing it
 135:SynaptiX_FDK/lib/tinyusb/src/class/cdc/cdc_device.h **** bool tud_cdc_n_peek(uint8_t itf, uint8_t* ui8);
 136:SynaptiX_FDK/lib/tinyusb/src/class/cdc/cdc_device.h **** 
 137:SynaptiX_FDK/lib/tinyusb/src/class/cdc/cdc_device.h **** // Write bytes to TX FIFO, data may remain in the FIFO for a while
 138:SynaptiX_FDK/lib/tinyusb/src/class/cdc/cdc_device.h **** uint32_t tud_cdc_n_write(uint8_t itf, void const* buffer, uint32_t bufsize);
 139:SynaptiX_FDK/lib/tinyusb/src/class/cdc/cdc_device.h **** 
 140:SynaptiX_FDK/lib/tinyusb/src/class/cdc/cdc_device.h **** // Write a byte
 141:SynaptiX_FDK/lib/tinyusb/src/class/cdc/cdc_device.h **** TU_ATTR_ALWAYS_INLINE static inline uint32_t tud_cdc_n_write_char(uint8_t itf, char ch) {
 142:SynaptiX_FDK/lib/tinyusb/src/class/cdc/cdc_device.h ****   return tud_cdc_n_write(itf, &ch, 1);
 143:SynaptiX_FDK/lib/tinyusb/src/class/cdc/cdc_device.h **** }
 144:SynaptiX_FDK/lib/tinyusb/src/class/cdc/cdc_device.h **** 
 145:SynaptiX_FDK/lib/tinyusb/src/class/cdc/cdc_device.h **** // Write a null-terminated string
 146:SynaptiX_FDK/lib/tinyusb/src/class/cdc/cdc_device.h **** TU_ATTR_ALWAYS_INLINE static inline uint32_t tud_cdc_n_write_str(uint8_t itf, char const* str) {
 147:SynaptiX_FDK/lib/tinyusb/src/class/cdc/cdc_device.h ****   return tud_cdc_n_write(itf, str, strlen(str));
 148:SynaptiX_FDK/lib/tinyusb/src/class/cdc/cdc_device.h **** }
 149:SynaptiX_FDK/lib/tinyusb/src/class/cdc/cdc_device.h **** 
 150:SynaptiX_FDK/lib/tinyusb/src/class/cdc/cdc_device.h **** // Force sending data if possible, return number of forced bytes
 151:SynaptiX_FDK/lib/tinyusb/src/class/cdc/cdc_device.h **** uint32_t tud_cdc_n_write_flush(uint8_t itf);
 152:SynaptiX_FDK/lib/tinyusb/src/class/cdc/cdc_device.h **** 
 153:SynaptiX_FDK/lib/tinyusb/src/class/cdc/cdc_device.h **** // Return the number of bytes (characters) available for writing to TX FIFO buffer in a single n_wr
 154:SynaptiX_FDK/lib/tinyusb/src/class/cdc/cdc_device.h **** uint32_t tud_cdc_n_write_available(uint8_t itf);
 155:SynaptiX_FDK/lib/tinyusb/src/class/cdc/cdc_device.h **** 
 156:SynaptiX_FDK/lib/tinyusb/src/class/cdc/cdc_device.h **** // Clear the TX FIFO
 157:SynaptiX_FDK/lib/tinyusb/src/class/cdc/cdc_device.h **** bool tud_cdc_n_write_clear(uint8_t itf);
 158:SynaptiX_FDK/lib/tinyusb/src/class/cdc/cdc_device.h **** 
 159:SynaptiX_FDK/lib/tinyusb/src/class/cdc/cdc_device.h **** #if CFG_TUD_CDC_NOTIFY
 160:SynaptiX_FDK/lib/tinyusb/src/class/cdc/cdc_device.h **** bool tud_cdc_n_notify_msg(uint8_t itf, cdc_notify_msg_t *msg);
 161:SynaptiX_FDK/lib/tinyusb/src/class/cdc/cdc_device.h **** 
 162:SynaptiX_FDK/lib/tinyusb/src/class/cdc/cdc_device.h **** // Send UART status notification: DCD, DSR etc ..
 163:SynaptiX_FDK/lib/tinyusb/src/class/cdc/cdc_device.h **** TU_ATTR_ALWAYS_INLINE static inline bool tud_cdc_n_notify_uart_state(uint8_t                       
ARM GAS  C:\Users\DELL\AppData\Local\Temp\ccPVFf9r.s 			page 6


 164:SynaptiX_FDK/lib/tinyusb/src/class/cdc/cdc_device.h ****                                                                      const cdc_notify_uart_state_t 
 165:SynaptiX_FDK/lib/tinyusb/src/class/cdc/cdc_device.h ****   cdc_notify_msg_t notify_msg;
 166:SynaptiX_FDK/lib/tinyusb/src/class/cdc/cdc_device.h ****   notify_msg.request.bmRequestType = CDC_REQ_TYPE_NOTIF;
 167:SynaptiX_FDK/lib/tinyusb/src/class/cdc/cdc_device.h ****   notify_msg.request.bRequest      = CDC_NOTIF_SERIAL_STATE;
 168:SynaptiX_FDK/lib/tinyusb/src/class/cdc/cdc_device.h ****   notify_msg.request.wValue        = 0;
 169:SynaptiX_FDK/lib/tinyusb/src/class/cdc/cdc_device.h ****   notify_msg.request.wIndex        = 0; // filled later
 170:SynaptiX_FDK/lib/tinyusb/src/class/cdc/cdc_device.h ****   notify_msg.request.wLength       = sizeof(cdc_notify_uart_state_t);
 171:SynaptiX_FDK/lib/tinyusb/src/class/cdc/cdc_device.h ****   notify_msg.serial_state          = *state;
 172:SynaptiX_FDK/lib/tinyusb/src/class/cdc/cdc_device.h ****   return tud_cdc_n_notify_msg(itf, &notify_msg);
 173:SynaptiX_FDK/lib/tinyusb/src/class/cdc/cdc_device.h **** }
 174:SynaptiX_FDK/lib/tinyusb/src/class/cdc/cdc_device.h **** 
 175:SynaptiX_FDK/lib/tinyusb/src/class/cdc/cdc_device.h **** // Send connection speed change notification
 176:SynaptiX_FDK/lib/tinyusb/src/class/cdc/cdc_device.h **** TU_ATTR_ALWAYS_INLINE static inline bool
 177:SynaptiX_FDK/lib/tinyusb/src/class/cdc/cdc_device.h **** tud_cdc_n_notify_conn_speed_change(uint8_t itf, const cdc_notify_conn_speed_change_t *conn_speed_ch
 178:SynaptiX_FDK/lib/tinyusb/src/class/cdc/cdc_device.h ****   cdc_notify_msg_t notify_msg;
 179:SynaptiX_FDK/lib/tinyusb/src/class/cdc/cdc_device.h ****   notify_msg.request.bmRequestType = CDC_REQ_TYPE_NOTIF;
 180:SynaptiX_FDK/lib/tinyusb/src/class/cdc/cdc_device.h ****   notify_msg.request.bRequest      = CDC_NOTIF_CONNECTION_SPEED_CHANGE;
 181:SynaptiX_FDK/lib/tinyusb/src/class/cdc/cdc_device.h ****   notify_msg.request.wValue        = 0;
 182:SynaptiX_FDK/lib/tinyusb/src/class/cdc/cdc_device.h ****   notify_msg.request.wIndex        = 0; // filled later
 183:SynaptiX_FDK/lib/tinyusb/src/class/cdc/cdc_device.h ****   notify_msg.request.wLength       = sizeof(cdc_notify_conn_speed_change_t);
 184:SynaptiX_FDK/lib/tinyusb/src/class/cdc/cdc_device.h ****   notify_msg.conn_speed_change     = *conn_speed_change;
 185:SynaptiX_FDK/lib/tinyusb/src/class/cdc/cdc_device.h ****   return tud_cdc_n_notify_msg(itf, &notify_msg);
 186:SynaptiX_FDK/lib/tinyusb/src/class/cdc/cdc_device.h **** }
 187:SynaptiX_FDK/lib/tinyusb/src/class/cdc/cdc_device.h **** 
 188:SynaptiX_FDK/lib/tinyusb/src/class/cdc/cdc_device.h **** TU_ATTR_ALWAYS_INLINE static inline bool tud_cdc_notify_msg(cdc_notify_msg_t *msg) {
 189:SynaptiX_FDK/lib/tinyusb/src/class/cdc/cdc_device.h ****   return tud_cdc_n_notify_msg(0, msg);
 190:SynaptiX_FDK/lib/tinyusb/src/class/cdc/cdc_device.h **** }
 191:SynaptiX_FDK/lib/tinyusb/src/class/cdc/cdc_device.h **** 
 192:SynaptiX_FDK/lib/tinyusb/src/class/cdc/cdc_device.h **** TU_ATTR_ALWAYS_INLINE static inline bool tud_cdc_notify_uart_state(const cdc_notify_uart_state_t* s
 193:SynaptiX_FDK/lib/tinyusb/src/class/cdc/cdc_device.h ****  return tud_cdc_n_notify_uart_state(0, state);
 194:SynaptiX_FDK/lib/tinyusb/src/class/cdc/cdc_device.h **** }
 195:SynaptiX_FDK/lib/tinyusb/src/class/cdc/cdc_device.h **** 
 196:SynaptiX_FDK/lib/tinyusb/src/class/cdc/cdc_device.h **** TU_ATTR_ALWAYS_INLINE static inline bool tud_cdc_notify_conn_speed_change(const cdc_notify_conn_spe
 197:SynaptiX_FDK/lib/tinyusb/src/class/cdc/cdc_device.h ****   return tud_cdc_n_notify_conn_speed_change(0, conn_speed_change);
 198:SynaptiX_FDK/lib/tinyusb/src/class/cdc/cdc_device.h **** }
 199:SynaptiX_FDK/lib/tinyusb/src/class/cdc/cdc_device.h **** #endif
 200:SynaptiX_FDK/lib/tinyusb/src/class/cdc/cdc_device.h **** 
 201:SynaptiX_FDK/lib/tinyusb/src/class/cdc/cdc_device.h **** //--------------------------------------------------------------------+
 202:SynaptiX_FDK/lib/tinyusb/src/class/cdc/cdc_device.h **** // Application API (Single Port)
 203:SynaptiX_FDK/lib/tinyusb/src/class/cdc/cdc_device.h **** //--------------------------------------------------------------------+
 204:SynaptiX_FDK/lib/tinyusb/src/class/cdc/cdc_device.h **** 
 205:SynaptiX_FDK/lib/tinyusb/src/class/cdc/cdc_device.h **** TU_ATTR_ALWAYS_INLINE static inline bool tud_cdc_ready(void) {
 206:SynaptiX_FDK/lib/tinyusb/src/class/cdc/cdc_device.h ****   return tud_cdc_n_ready(0);
 207:SynaptiX_FDK/lib/tinyusb/src/class/cdc/cdc_device.h **** }
 208:SynaptiX_FDK/lib/tinyusb/src/class/cdc/cdc_device.h **** 
 209:SynaptiX_FDK/lib/tinyusb/src/class/cdc/cdc_device.h **** TU_ATTR_ALWAYS_INLINE static inline bool tud_cdc_connected(void) {
  60              		.loc 2 209 42 view .LVU3
  61              	.LBB27:
 210:SynaptiX_FDK/lib/tinyusb/src/class/cdc/cdc_device.h ****   return tud_cdc_n_connected(0);
  62              		.loc 2 210 3 view .LVU4
  63              		.loc 2 210 10 is_stmt 0 view .LVU5
  64 0006 0020     		movs	r0, #0
  65              	.LVL1:
  66              		.loc 2 210 10 view .LVU6
  67 0008 FFF7FEFF 		bl	tud_cdc_n_connected
  68              	.LVL2:
  69              	.LBE27:
ARM GAS  C:\Users\DELL\AppData\Local\Temp\ccPVFf9r.s 			page 7


  70              	.LBE26:
  71              		.loc 1 54 7 discriminator 1 view .LVU7
  72 000c 08B9     		cbnz	r0, .L9
  73              	.L1:
  55:SynaptiX_FDK/components/peripherals/usb_cdc_tiny/sx_usb_tiny_cdc.c ****     if(!tud_cdc_available()) return;
  56:SynaptiX_FDK/components/peripherals/usb_cdc_tiny/sx_usb_tiny_cdc.c **** 
  57:SynaptiX_FDK/components/peripherals/usb_cdc_tiny/sx_usb_tiny_cdc.c ****     uint8_t buf[64];
  58:SynaptiX_FDK/components/peripherals/usb_cdc_tiny/sx_usb_tiny_cdc.c ****     log_debug(TAG, "connected=%d available=%d", tud_cdc_connected(), tud_cdc_available());
  59:SynaptiX_FDK/components/peripherals/usb_cdc_tiny/sx_usb_tiny_cdc.c ****     uint32_t count = tud_cdc_read(buf, sizeof(buf));
  60:SynaptiX_FDK/components/peripherals/usb_cdc_tiny/sx_usb_tiny_cdc.c **** 
  61:SynaptiX_FDK/components/peripherals/usb_cdc_tiny/sx_usb_tiny_cdc.c ****     for(uint32_t i=0; i<count; i++){
  62:SynaptiX_FDK/components/peripherals/usb_cdc_tiny/sx_usb_tiny_cdc.c ****         if (cqueue_send(&_usb->rxQueue, &buf[i]) == false) {
  63:SynaptiX_FDK/components/peripherals/usb_cdc_tiny/sx_usb_tiny_cdc.c ****             log_warn(TAG, "RX queue full, byte dropped");
  64:SynaptiX_FDK/components/peripherals/usb_cdc_tiny/sx_usb_tiny_cdc.c ****             break;
  65:SynaptiX_FDK/components/peripherals/usb_cdc_tiny/sx_usb_tiny_cdc.c ****         }
  66:SynaptiX_FDK/components/peripherals/usb_cdc_tiny/sx_usb_tiny_cdc.c ****     }
  67:SynaptiX_FDK/components/peripherals/usb_cdc_tiny/sx_usb_tiny_cdc.c **** #endif
  68:SynaptiX_FDK/components/peripherals/usb_cdc_tiny/sx_usb_tiny_cdc.c **** }
  74              		.loc 1 68 1 view .LVU8
  75 000e 12B0     		add	sp, sp, #72
  76              	.LCFI2:
  77              		.cfi_remember_state
  78              		.cfi_def_cfa_offset 16
  79              		@ sp needed
  80 0010 70BD     		pop	{r4, r5, r6, pc}
  81              	.LVL3:
  82              	.L9:
  83              	.LCFI3:
  84              		.cfi_restore_state
  55:SynaptiX_FDK/components/peripherals/usb_cdc_tiny/sx_usb_tiny_cdc.c ****     if(!tud_cdc_available()) return;
  85              		.loc 1 55 5 is_stmt 1 view .LVU9
  86              	.LBB28:
  87              	.LBI28:
 211:SynaptiX_FDK/lib/tinyusb/src/class/cdc/cdc_device.h **** }
 212:SynaptiX_FDK/lib/tinyusb/src/class/cdc/cdc_device.h **** 
 213:SynaptiX_FDK/lib/tinyusb/src/class/cdc/cdc_device.h **** TU_ATTR_ALWAYS_INLINE static inline uint8_t tud_cdc_get_line_state(void) {
 214:SynaptiX_FDK/lib/tinyusb/src/class/cdc/cdc_device.h ****   return tud_cdc_n_get_line_state(0);
 215:SynaptiX_FDK/lib/tinyusb/src/class/cdc/cdc_device.h **** }
 216:SynaptiX_FDK/lib/tinyusb/src/class/cdc/cdc_device.h **** 
 217:SynaptiX_FDK/lib/tinyusb/src/class/cdc/cdc_device.h **** TU_ATTR_ALWAYS_INLINE static inline void tud_cdc_get_line_coding(cdc_line_coding_t* coding) {
 218:SynaptiX_FDK/lib/tinyusb/src/class/cdc/cdc_device.h ****   tud_cdc_n_get_line_coding(0, coding);
 219:SynaptiX_FDK/lib/tinyusb/src/class/cdc/cdc_device.h **** }
 220:SynaptiX_FDK/lib/tinyusb/src/class/cdc/cdc_device.h **** 
 221:SynaptiX_FDK/lib/tinyusb/src/class/cdc/cdc_device.h **** TU_ATTR_ALWAYS_INLINE static inline void tud_cdc_set_wanted_char(char wanted) {
 222:SynaptiX_FDK/lib/tinyusb/src/class/cdc/cdc_device.h ****   tud_cdc_n_set_wanted_char(0, wanted);
 223:SynaptiX_FDK/lib/tinyusb/src/class/cdc/cdc_device.h **** }
 224:SynaptiX_FDK/lib/tinyusb/src/class/cdc/cdc_device.h **** 
 225:SynaptiX_FDK/lib/tinyusb/src/class/cdc/cdc_device.h **** TU_ATTR_ALWAYS_INLINE static inline uint32_t tud_cdc_available(void) {
  88              		.loc 2 225 46 view .LVU10
  89              	.LBB29:
 226:SynaptiX_FDK/lib/tinyusb/src/class/cdc/cdc_device.h ****   return tud_cdc_n_available(0);
  90              		.loc 2 226 3 view .LVU11
  91              		.loc 2 226 10 is_stmt 0 view .LVU12
  92 0012 0020     		movs	r0, #0
  93 0014 FFF7FEFF 		bl	tud_cdc_n_available
  94              	.LVL4:
  95              	.LBE29:
ARM GAS  C:\Users\DELL\AppData\Local\Temp\ccPVFf9r.s 			page 8


  96              	.LBE28:
  55:SynaptiX_FDK/components/peripherals/usb_cdc_tiny/sx_usb_tiny_cdc.c ****     if(!tud_cdc_available()) return;
  97              		.loc 1 55 7 discriminator 1 view .LVU13
  98 0018 0028     		cmp	r0, #0
  99 001a F8D0     		beq	.L1
  57:SynaptiX_FDK/components/peripherals/usb_cdc_tiny/sx_usb_tiny_cdc.c ****     log_debug(TAG, "connected=%d available=%d", tud_cdc_connected(), tud_cdc_available());
 100              		.loc 1 57 5 is_stmt 1 view .LVU14
  58:SynaptiX_FDK/components/peripherals/usb_cdc_tiny/sx_usb_tiny_cdc.c ****     uint32_t count = tud_cdc_read(buf, sizeof(buf));
 101              		.loc 1 58 5 view .LVU15
 102              	.LBB30:
 103              	.LBI30:
 209:SynaptiX_FDK/lib/tinyusb/src/class/cdc/cdc_device.h ****   return tud_cdc_n_connected(0);
 104              		.loc 2 209 42 view .LVU16
 105              	.LBB31:
 210:SynaptiX_FDK/lib/tinyusb/src/class/cdc/cdc_device.h **** }
 106              		.loc 2 210 3 view .LVU17
 210:SynaptiX_FDK/lib/tinyusb/src/class/cdc/cdc_device.h **** }
 107              		.loc 2 210 10 is_stmt 0 view .LVU18
 108 001c 0020     		movs	r0, #0
 109 001e FFF7FEFF 		bl	tud_cdc_n_connected
 110              	.LVL5:
 111 0022 0446     		mov	r4, r0
 112              	.LBE31:
 113              	.LBE30:
 114              	.LBB32:
 115              	.LBI32:
 225:SynaptiX_FDK/lib/tinyusb/src/class/cdc/cdc_device.h ****   return tud_cdc_n_available(0);
 116              		.loc 2 225 46 is_stmt 1 view .LVU19
 117              	.LBB33:
 118              		.loc 2 226 3 view .LVU20
 119              		.loc 2 226 10 is_stmt 0 view .LVU21
 120 0024 0020     		movs	r0, #0
 121 0026 FFF7FEFF 		bl	tud_cdc_n_available
 122              	.LVL6:
 123              	.LBE33:
 124              	.LBE32:
  58:SynaptiX_FDK/components/peripherals/usb_cdc_tiny/sx_usb_tiny_cdc.c ****     uint32_t count = tud_cdc_read(buf, sizeof(buf));
 125              		.loc 1 58 5 discriminator 2 view .LVU22
 126 002a 0090     		str	r0, [sp]
 127 002c 2346     		mov	r3, r4
 128 002e 0E4A     		ldr	r2, .L11
 129 0030 0E49     		ldr	r1, .L11+4
 130 0032 0420     		movs	r0, #4
 131 0034 FFF7FEFF 		bl	log_func
 132              	.LVL7:
  59:SynaptiX_FDK/components/peripherals/usb_cdc_tiny/sx_usb_tiny_cdc.c **** 
 133              		.loc 1 59 5 is_stmt 1 view .LVU23
 134              	.LBB34:
 135              	.LBI34:
 227:SynaptiX_FDK/lib/tinyusb/src/class/cdc/cdc_device.h **** }
 228:SynaptiX_FDK/lib/tinyusb/src/class/cdc/cdc_device.h **** 
 229:SynaptiX_FDK/lib/tinyusb/src/class/cdc/cdc_device.h **** TU_ATTR_ALWAYS_INLINE static inline int32_t tud_cdc_read_char(void) {
 230:SynaptiX_FDK/lib/tinyusb/src/class/cdc/cdc_device.h ****   return tud_cdc_n_read_char(0);
 231:SynaptiX_FDK/lib/tinyusb/src/class/cdc/cdc_device.h **** }
 232:SynaptiX_FDK/lib/tinyusb/src/class/cdc/cdc_device.h **** 
 233:SynaptiX_FDK/lib/tinyusb/src/class/cdc/cdc_device.h **** TU_ATTR_ALWAYS_INLINE static inline uint32_t tud_cdc_read(void* buffer, uint32_t bufsize) {
 136              		.loc 2 233 46 view .LVU24
ARM GAS  C:\Users\DELL\AppData\Local\Temp\ccPVFf9r.s 			page 9


 137              	.LBB35:
 234:SynaptiX_FDK/lib/tinyusb/src/class/cdc/cdc_device.h ****   return tud_cdc_n_read(0, buffer, bufsize);
 138              		.loc 2 234 3 view .LVU25
 139              		.loc 2 234 10 is_stmt 0 view .LVU26
 140 0038 4022     		movs	r2, #64
 141 003a 02A9     		add	r1, sp, #8
 142              	.LVL8:
 143              		.loc 2 234 10 view .LVU27
 144 003c 0020     		movs	r0, #0
 145 003e FFF7FEFF 		bl	tud_cdc_n_read
 146              	.LVL9:
 147              		.loc 2 234 10 view .LVU28
 148 0042 0646     		mov	r6, r0
 149              	.LVL10:
 150              		.loc 2 234 10 view .LVU29
 151              	.LBE35:
 152              	.LBE34:
  61:SynaptiX_FDK/components/peripherals/usb_cdc_tiny/sx_usb_tiny_cdc.c ****         if (cqueue_send(&_usb->rxQueue, &buf[i]) == false) {
 153              		.loc 1 61 5 is_stmt 1 view .LVU30
 154              	.LBB36:
  61:SynaptiX_FDK/components/peripherals/usb_cdc_tiny/sx_usb_tiny_cdc.c ****         if (cqueue_send(&_usb->rxQueue, &buf[i]) == false) {
 155              		.loc 1 61 9 view .LVU31
  61:SynaptiX_FDK/components/peripherals/usb_cdc_tiny/sx_usb_tiny_cdc.c ****         if (cqueue_send(&_usb->rxQueue, &buf[i]) == false) {
 156              		.loc 1 61 18 is_stmt 0 view .LVU32
 157 0044 0024     		movs	r4, #0
 158              	.LVL11:
 159              	.L3:
  61:SynaptiX_FDK/components/peripherals/usb_cdc_tiny/sx_usb_tiny_cdc.c ****         if (cqueue_send(&_usb->rxQueue, &buf[i]) == false) {
 160              		.loc 1 61 24 is_stmt 1 discriminator 1 view .LVU33
 161 0046 B442     		cmp	r4, r6
 162 0048 E1D2     		bcs	.L1
  62:SynaptiX_FDK/components/peripherals/usb_cdc_tiny/sx_usb_tiny_cdc.c ****             log_warn(TAG, "RX queue full, byte dropped");
 163              		.loc 1 62 9 view .LVU34
  62:SynaptiX_FDK/components/peripherals/usb_cdc_tiny/sx_usb_tiny_cdc.c ****             log_warn(TAG, "RX queue full, byte dropped");
 164              		.loc 1 62 13 is_stmt 0 view .LVU35
 165 004a 02A9     		add	r1, sp, #8
 166 004c 2144     		add	r1, r1, r4
 167 004e 05F10800 		add	r0, r5, #8
 168 0052 FFF7FEFF 		bl	cqueue_send
 169              	.LVL12:
  62:SynaptiX_FDK/components/peripherals/usb_cdc_tiny/sx_usb_tiny_cdc.c ****             log_warn(TAG, "RX queue full, byte dropped");
 170              		.loc 1 62 12 discriminator 1 view .LVU36
 171 0056 08B1     		cbz	r0, .L10
  61:SynaptiX_FDK/components/peripherals/usb_cdc_tiny/sx_usb_tiny_cdc.c ****         if (cqueue_send(&_usb->rxQueue, &buf[i]) == false) {
 172              		.loc 1 61 33 is_stmt 1 discriminator 2 view .LVU37
 173 0058 0134     		adds	r4, r4, #1
 174              	.LVL13:
  61:SynaptiX_FDK/components/peripherals/usb_cdc_tiny/sx_usb_tiny_cdc.c ****         if (cqueue_send(&_usb->rxQueue, &buf[i]) == false) {
 175              		.loc 1 61 33 is_stmt 0 discriminator 2 view .LVU38
 176 005a F4E7     		b	.L3
 177              	.LVL14:
 178              	.L10:
  63:SynaptiX_FDK/components/peripherals/usb_cdc_tiny/sx_usb_tiny_cdc.c ****             break;
 179              		.loc 1 63 13 is_stmt 1 view .LVU39
 180 005c 044A     		ldr	r2, .L11+8
 181 005e 0349     		ldr	r1, .L11+4
 182 0060 0220     		movs	r0, #2
ARM GAS  C:\Users\DELL\AppData\Local\Temp\ccPVFf9r.s 			page 10


 183 0062 FFF7FEFF 		bl	log_func
 184              	.LVL15:
  64:SynaptiX_FDK/components/peripherals/usb_cdc_tiny/sx_usb_tiny_cdc.c ****         }
 185              		.loc 1 64 13 view .LVU40
 186 0066 D2E7     		b	.L1
 187              	.L12:
 188              		.align	2
 189              	.L11:
 190 0068 00000000 		.word	.LC1
 191 006c 1C000000 		.word	.LC2
 192 0070 28000000 		.word	.LC3
 193              	.LBE36:
 194              		.cfi_endproc
 195              	.LFE432:
 197              		.section	.rodata.sx_usb_tiny_init.str1.4,"aMS",%progbits,1
 198              		.align	2
 199              	.LC4:
 200 0000 43444320 		.ascii	"CDC initialized, rx_buf=%lu tx_buf=%lu\000"
 200      696E6974 
 200      69616C69 
 200      7A65642C 
 200      2072785F 
 201              		.section	.text.sx_usb_tiny_init,"ax",%progbits
 202              		.align	1
 203              		.global	sx_usb_tiny_init
 204              		.syntax unified
 205              		.thumb
 206              		.thumb_func
 208              	sx_usb_tiny_init:
 209              	.LVL16:
 210              	.LFB431:
  20:SynaptiX_FDK/components/peripherals/usb_cdc_tiny/sx_usb_tiny_cdc.c ****     _usb->config    = _config;
 211              		.loc 1 20 1 view -0
 212              		.cfi_startproc
 213              		@ args = 0, pretend = 0, frame = 8
 214              		@ frame_needed = 0, uses_anonymous_args = 0
  20:SynaptiX_FDK/components/peripherals/usb_cdc_tiny/sx_usb_tiny_cdc.c ****     _usb->config    = _config;
 215              		.loc 1 20 1 is_stmt 0 view .LVU42
 216 0000 70B5     		push	{r4, r5, r6, lr}
 217              	.LCFI4:
 218              		.cfi_def_cfa_offset 16
 219              		.cfi_offset 4, -16
 220              		.cfi_offset 5, -12
 221              		.cfi_offset 6, -8
 222              		.cfi_offset 14, -4
 223 0002 84B0     		sub	sp, sp, #16
 224              	.LCFI5:
 225              		.cfi_def_cfa_offset 32
 226 0004 0546     		mov	r5, r0
 227 0006 0C46     		mov	r4, r1
  21:SynaptiX_FDK/components/peripherals/usb_cdc_tiny/sx_usb_tiny_cdc.c ****     _usb->connected = false;
 228              		.loc 1 21 5 is_stmt 1 view .LVU43
  21:SynaptiX_FDK/components/peripherals/usb_cdc_tiny/sx_usb_tiny_cdc.c ****     _usb->connected = false;
 229              		.loc 1 21 21 is_stmt 0 view .LVU44
 230 0008 0160     		str	r1, [r0]
  22:SynaptiX_FDK/components/peripherals/usb_cdc_tiny/sx_usb_tiny_cdc.c **** 
 231              		.loc 1 22 5 is_stmt 1 view .LVU45
ARM GAS  C:\Users\DELL\AppData\Local\Temp\ccPVFf9r.s 			page 11


  22:SynaptiX_FDK/components/peripherals/usb_cdc_tiny/sx_usb_tiny_cdc.c **** 
 232              		.loc 1 22 21 is_stmt 0 view .LVU46
 233 000a 0026     		movs	r6, #0
 234 000c 80F83C60 		strb	r6, [r0, #60]
  24:SynaptiX_FDK/components/peripherals/usb_cdc_tiny/sx_usb_tiny_cdc.c ****     cqueue_init_static(&_usb->rxQueue, _usb->rxBuffer,
 235              		.loc 1 24 5 is_stmt 1 view .LVU47
  24:SynaptiX_FDK/components/peripherals/usb_cdc_tiny/sx_usb_tiny_cdc.c ****     cqueue_init_static(&_usb->rxQueue, _usb->rxBuffer,
 236              		.loc 1 24 22 is_stmt 0 view .LVU48
 237 0010 0868     		ldr	r0, [r1]
 238              	.LVL17:
  24:SynaptiX_FDK/components/peripherals/usb_cdc_tiny/sx_usb_tiny_cdc.c ****     cqueue_init_static(&_usb->rxQueue, _usb->rxBuffer,
 239              		.loc 1 24 22 view .LVU49
 240 0012 FFF7FEFF 		bl	sx_malloc
 241              	.LVL18:
  24:SynaptiX_FDK/components/peripherals/usb_cdc_tiny/sx_usb_tiny_cdc.c ****     cqueue_init_static(&_usb->rxQueue, _usb->rxBuffer,
 242              		.loc 1 24 22 view .LVU50
 243 0016 0146     		mov	r1, r0
  24:SynaptiX_FDK/components/peripherals/usb_cdc_tiny/sx_usb_tiny_cdc.c ****     cqueue_init_static(&_usb->rxQueue, _usb->rxBuffer,
 244              		.loc 1 24 20 discriminator 1 view .LVU51
 245 0018 6860     		str	r0, [r5, #4]
  25:SynaptiX_FDK/components/peripherals/usb_cdc_tiny/sx_usb_tiny_cdc.c ****                         _config->rx_buf_size, 1);
 246              		.loc 1 25 5 is_stmt 1 view .LVU52
 247 001a 0123     		movs	r3, #1
 248 001c 2268     		ldr	r2, [r4]
 249 001e 05F10800 		add	r0, r5, #8
 250 0022 FFF7FEFF 		bl	cqueue_init_static
 251              	.LVL19:
  28:SynaptiX_FDK/components/peripherals/usb_cdc_tiny/sx_usb_tiny_cdc.c ****     cqueue_init_static(&_usb->txQueue, _usb->txBuffer,
 252              		.loc 1 28 5 view .LVU53
  28:SynaptiX_FDK/components/peripherals/usb_cdc_tiny/sx_usb_tiny_cdc.c ****     cqueue_init_static(&_usb->txQueue, _usb->txBuffer,
 253              		.loc 1 28 22 is_stmt 0 view .LVU54
 254 0026 6068     		ldr	r0, [r4, #4]
 255 0028 FFF7FEFF 		bl	sx_malloc
 256              	.LVL20:
 257 002c 0146     		mov	r1, r0
  28:SynaptiX_FDK/components/peripherals/usb_cdc_tiny/sx_usb_tiny_cdc.c ****     cqueue_init_static(&_usb->txQueue, _usb->txBuffer,
 258              		.loc 1 28 20 discriminator 1 view .LVU55
 259 002e 2862     		str	r0, [r5, #32]
  29:SynaptiX_FDK/components/peripherals/usb_cdc_tiny/sx_usb_tiny_cdc.c ****                         _config->tx_buf_size, 1);
 260              		.loc 1 29 5 is_stmt 1 view .LVU56
 261 0030 0123     		movs	r3, #1
 262 0032 6268     		ldr	r2, [r4, #4]
 263 0034 05F12400 		add	r0, r5, #36
 264 0038 FFF7FEFF 		bl	cqueue_init_static
 265              	.LVL21:
  39:SynaptiX_FDK/components/peripherals/usb_cdc_tiny/sx_usb_tiny_cdc.c ****         .role  = TUSB_ROLE_DEVICE,
 266              		.loc 1 39 5 view .LVU57
  39:SynaptiX_FDK/components/peripherals/usb_cdc_tiny/sx_usb_tiny_cdc.c ****         .role  = TUSB_ROLE_DEVICE,
 267              		.loc 1 39 24 is_stmt 0 view .LVU58
 268 003c 084B     		ldr	r3, .L15
 269 003e 1B88     		ldrh	r3, [r3]
 270 0040 ADF80C30 		strh	r3, [sp, #12]	@ movhi
  43:SynaptiX_FDK/components/peripherals/usb_cdc_tiny/sx_usb_tiny_cdc.c **** #endif
 271              		.loc 1 43 5 is_stmt 1 view .LVU59
 272 0044 03A9     		add	r1, sp, #12
 273 0046 3046     		mov	r0, r6
 274 0048 FFF7FEFF 		bl	tusb_rhport_init
ARM GAS  C:\Users\DELL\AppData\Local\Temp\ccPVFf9r.s 			page 12


 275              	.LVL22:
  46:SynaptiX_FDK/components/peripherals/usb_cdc_tiny/sx_usb_tiny_cdc.c ****              _config->rx_buf_size, _config->tx_buf_size);
 276              		.loc 1 46 5 view .LVU60
 277 004c 6368     		ldr	r3, [r4, #4]
 278 004e 0093     		str	r3, [sp]
 279 0050 2368     		ldr	r3, [r4]
 280 0052 044A     		ldr	r2, .L15+4
 281 0054 0449     		ldr	r1, .L15+8
 282 0056 0320     		movs	r0, #3
 283 0058 FFF7FEFF 		bl	log_func
 284              	.LVL23:
  48:SynaptiX_FDK/components/peripherals/usb_cdc_tiny/sx_usb_tiny_cdc.c **** 
 285              		.loc 1 48 1 is_stmt 0 view .LVU61
 286 005c 04B0     		add	sp, sp, #16
 287              	.LCFI6:
 288              		.cfi_def_cfa_offset 16
 289              		@ sp needed
 290 005e 70BD     		pop	{r4, r5, r6, pc}
 291              	.LVL24:
 292              	.L16:
  48:SynaptiX_FDK/components/peripherals/usb_cdc_tiny/sx_usb_tiny_cdc.c **** 
 293              		.loc 1 48 1 view .LVU62
 294              		.align	2
 295              	.L15:
 296 0060 00000000 		.word	.LANCHOR0
 297 0064 00000000 		.word	.LC4
 298 0068 1C000000 		.word	.LC2
 299              		.cfi_endproc
 300              	.LFE431:
 302              		.section	.text.sx_usb_tiny_read,"ax",%progbits
 303              		.align	1
 304              		.global	sx_usb_tiny_read
 305              		.syntax unified
 306              		.thumb
 307              		.thumb_func
 309              	sx_usb_tiny_read:
 310              	.LVL25:
 311              	.LFB435:
  69:SynaptiX_FDK/components/peripherals/usb_cdc_tiny/sx_usb_tiny_cdc.c **** 
  70:SynaptiX_FDK/components/peripherals/usb_cdc_tiny/sx_usb_tiny_cdc.c **** void sx_usb_tiny_process(sx_usb_tiny_t *_usb){
  71:SynaptiX_FDK/components/peripherals/usb_cdc_tiny/sx_usb_tiny_cdc.c **** #if SX_PLATFORM == SX_PLATFORM_STM32H5 || SX_PLATFORM == SX_PLATFORM_STM32H7
  72:SynaptiX_FDK/components/peripherals/usb_cdc_tiny/sx_usb_tiny_cdc.c ****     tud_task();
  73:SynaptiX_FDK/components/peripherals/usb_cdc_tiny/sx_usb_tiny_cdc.c ****     _usb->connected = sx_usb_tiny_connected(_usb);
  74:SynaptiX_FDK/components/peripherals/usb_cdc_tiny/sx_usb_tiny_cdc.c ****     usb_rx_task(_usb);
  75:SynaptiX_FDK/components/peripherals/usb_cdc_tiny/sx_usb_tiny_cdc.c **** #endif
  76:SynaptiX_FDK/components/peripherals/usb_cdc_tiny/sx_usb_tiny_cdc.c **** }
  77:SynaptiX_FDK/components/peripherals/usb_cdc_tiny/sx_usb_tiny_cdc.c **** 
  78:SynaptiX_FDK/components/peripherals/usb_cdc_tiny/sx_usb_tiny_cdc.c **** void sx_usb_tiny_write(sx_usb_tiny_t *_usb, const uint8_t *_data, uint32_t _len){
  79:SynaptiX_FDK/components/peripherals/usb_cdc_tiny/sx_usb_tiny_cdc.c ****     if(!sx_usb_tiny_connected(_usb)) 
  80:SynaptiX_FDK/components/peripherals/usb_cdc_tiny/sx_usb_tiny_cdc.c ****         return;
  81:SynaptiX_FDK/components/peripherals/usb_cdc_tiny/sx_usb_tiny_cdc.c ****     log_debug(TAG, "USB write: %lu bytes", _len);
  82:SynaptiX_FDK/components/peripherals/usb_cdc_tiny/sx_usb_tiny_cdc.c **** 
  83:SynaptiX_FDK/components/peripherals/usb_cdc_tiny/sx_usb_tiny_cdc.c **** #if SX_PLATFORM == SX_PLATFORM_STM32H5 || SX_PLATFORM == SX_PLATFORM_STM32H7
  84:SynaptiX_FDK/components/peripherals/usb_cdc_tiny/sx_usb_tiny_cdc.c ****     uint32_t sent = 0;
  85:SynaptiX_FDK/components/peripherals/usb_cdc_tiny/sx_usb_tiny_cdc.c ****     while(sent < _len){
  86:SynaptiX_FDK/components/peripherals/usb_cdc_tiny/sx_usb_tiny_cdc.c ****         uint32_t written = tud_cdc_write(_data + sent, _len - sent);
  87:SynaptiX_FDK/components/peripherals/usb_cdc_tiny/sx_usb_tiny_cdc.c ****         sent += written;
ARM GAS  C:\Users\DELL\AppData\Local\Temp\ccPVFf9r.s 			page 13


  88:SynaptiX_FDK/components/peripherals/usb_cdc_tiny/sx_usb_tiny_cdc.c ****         tud_cdc_write_flush();
  89:SynaptiX_FDK/components/peripherals/usb_cdc_tiny/sx_usb_tiny_cdc.c ****         if(written == 0)
  90:SynaptiX_FDK/components/peripherals/usb_cdc_tiny/sx_usb_tiny_cdc.c ****             tud_task();
  91:SynaptiX_FDK/components/peripherals/usb_cdc_tiny/sx_usb_tiny_cdc.c ****     }
  92:SynaptiX_FDK/components/peripherals/usb_cdc_tiny/sx_usb_tiny_cdc.c **** #endif
  93:SynaptiX_FDK/components/peripherals/usb_cdc_tiny/sx_usb_tiny_cdc.c **** }
  94:SynaptiX_FDK/components/peripherals/usb_cdc_tiny/sx_usb_tiny_cdc.c **** 
  95:SynaptiX_FDK/components/peripherals/usb_cdc_tiny/sx_usb_tiny_cdc.c **** int sx_usb_tiny_read(sx_usb_tiny_t *_usb, uint8_t *_data,
  96:SynaptiX_FDK/components/peripherals/usb_cdc_tiny/sx_usb_tiny_cdc.c ****                      uint32_t _len, uint32_t _timeoutMS)
  97:SynaptiX_FDK/components/peripherals/usb_cdc_tiny/sx_usb_tiny_cdc.c **** {
 312              		.loc 1 97 1 is_stmt 1 view -0
 313              		.cfi_startproc
 314              		@ args = 0, pretend = 0, frame = 0
 315              		@ frame_needed = 0, uses_anonymous_args = 0
 316              		.loc 1 97 1 is_stmt 0 view .LVU64
 317 0000 2DE9F843 		push	{r3, r4, r5, r6, r7, r8, r9, lr}
 318              	.LCFI7:
 319              		.cfi_def_cfa_offset 32
 320              		.cfi_offset 3, -32
 321              		.cfi_offset 4, -28
 322              		.cfi_offset 5, -24
 323              		.cfi_offset 6, -20
 324              		.cfi_offset 7, -16
 325              		.cfi_offset 8, -12
 326              		.cfi_offset 9, -8
 327              		.cfi_offset 14, -4
 328 0004 8146     		mov	r9, r0
 329 0006 8846     		mov	r8, r1
 330 0008 1646     		mov	r6, r2
 331 000a 1F46     		mov	r7, r3
  98:SynaptiX_FDK/components/peripherals/usb_cdc_tiny/sx_usb_tiny_cdc.c ****     uint32_t len  = 0;
 332              		.loc 1 98 5 is_stmt 1 view .LVU65
 333              	.LVL26:
  99:SynaptiX_FDK/components/peripherals/usb_cdc_tiny/sx_usb_tiny_cdc.c ****     uint32_t time = 0;
 334              		.loc 1 99 5 view .LVU66
 100:SynaptiX_FDK/components/peripherals/usb_cdc_tiny/sx_usb_tiny_cdc.c ****     while(len < _len && time < _timeoutMS){
 335              		.loc 1 100 5 view .LVU67
  99:SynaptiX_FDK/components/peripherals/usb_cdc_tiny/sx_usb_tiny_cdc.c ****     uint32_t time = 0;
 336              		.loc 1 99 14 is_stmt 0 view .LVU68
 337 000c 0025     		movs	r5, #0
  98:SynaptiX_FDK/components/peripherals/usb_cdc_tiny/sx_usb_tiny_cdc.c ****     uint32_t len  = 0;
 338              		.loc 1 98 14 view .LVU69
 339 000e 2C46     		mov	r4, r5
 340              		.loc 1 100 10 view .LVU70
 341 0010 05E0     		b	.L18
 342              	.LVL27:
 343              	.L19:
 101:SynaptiX_FDK/components/peripherals/usb_cdc_tiny/sx_usb_tiny_cdc.c ****         if(cqueue_receive(&_usb->rxQueue, _data + len)){
 102:SynaptiX_FDK/components/peripherals/usb_cdc_tiny/sx_usb_tiny_cdc.c ****             len++;
 103:SynaptiX_FDK/components/peripherals/usb_cdc_tiny/sx_usb_tiny_cdc.c ****         } else {
 104:SynaptiX_FDK/components/peripherals/usb_cdc_tiny/sx_usb_tiny_cdc.c ****             tud_task();
 344              		.loc 1 104 13 is_stmt 1 view .LVU71
 345              	.LBB37:
 346              	.LBI37:
 347              		.file 3 "SynaptiX_FDK/lib/tinyusb/src/device/usbd.h"
   1:SynaptiX_FDK/lib/tinyusb/src/device/usbd.h **** /*
   2:SynaptiX_FDK/lib/tinyusb/src/device/usbd.h ****  * The MIT License (MIT)
ARM GAS  C:\Users\DELL\AppData\Local\Temp\ccPVFf9r.s 			page 14


   3:SynaptiX_FDK/lib/tinyusb/src/device/usbd.h ****  *
   4:SynaptiX_FDK/lib/tinyusb/src/device/usbd.h ****  * Copyright (c) 2019 Ha Thach (tinyusb.org)
   5:SynaptiX_FDK/lib/tinyusb/src/device/usbd.h ****  *
   6:SynaptiX_FDK/lib/tinyusb/src/device/usbd.h ****  * Permission is hereby granted, free of charge, to any person obtaining a copy
   7:SynaptiX_FDK/lib/tinyusb/src/device/usbd.h ****  * of this software and associated documentation files (the "Software"), to deal
   8:SynaptiX_FDK/lib/tinyusb/src/device/usbd.h ****  * in the Software without restriction, including without limitation the rights
   9:SynaptiX_FDK/lib/tinyusb/src/device/usbd.h ****  * to use, copy, modify, merge, publish, distribute, sublicense, and/or sell
  10:SynaptiX_FDK/lib/tinyusb/src/device/usbd.h ****  * copies of the Software, and to permit persons to whom the Software is
  11:SynaptiX_FDK/lib/tinyusb/src/device/usbd.h ****  * furnished to do so, subject to the following conditions:
  12:SynaptiX_FDK/lib/tinyusb/src/device/usbd.h ****  *
  13:SynaptiX_FDK/lib/tinyusb/src/device/usbd.h ****  * The above copyright notice and this permission notice shall be included in
  14:SynaptiX_FDK/lib/tinyusb/src/device/usbd.h ****  * all copies or substantial portions of the Software.
  15:SynaptiX_FDK/lib/tinyusb/src/device/usbd.h ****  *
  16:SynaptiX_FDK/lib/tinyusb/src/device/usbd.h ****  * THE SOFTWARE IS PROVIDED "AS IS", WITHOUT WARRANTY OF ANY KIND, EXPRESS OR
  17:SynaptiX_FDK/lib/tinyusb/src/device/usbd.h ****  * IMPLIED, INCLUDING BUT NOT LIMITED TO THE WARRANTIES OF MERCHANTABILITY,
  18:SynaptiX_FDK/lib/tinyusb/src/device/usbd.h ****  * FITNESS FOR A PARTICULAR PURPOSE AND NONINFRINGEMENT. IN NO EVENT SHALL THE
  19:SynaptiX_FDK/lib/tinyusb/src/device/usbd.h ****  * AUTHORS OR COPYRIGHT HOLDERS BE LIABLE FOR ANY CLAIM, DAMAGES OR OTHER
  20:SynaptiX_FDK/lib/tinyusb/src/device/usbd.h ****  * LIABILITY, WHETHER IN AN ACTION OF CONTRACT, TORT OR OTHERWISE, ARISING FROM,
  21:SynaptiX_FDK/lib/tinyusb/src/device/usbd.h ****  * OUT OF OR IN CONNECTION WITH THE SOFTWARE OR THE USE OR OTHER DEALINGS IN
  22:SynaptiX_FDK/lib/tinyusb/src/device/usbd.h ****  * THE SOFTWARE.
  23:SynaptiX_FDK/lib/tinyusb/src/device/usbd.h ****  *
  24:SynaptiX_FDK/lib/tinyusb/src/device/usbd.h ****  * This file is part of the TinyUSB stack.
  25:SynaptiX_FDK/lib/tinyusb/src/device/usbd.h ****  */
  26:SynaptiX_FDK/lib/tinyusb/src/device/usbd.h **** 
  27:SynaptiX_FDK/lib/tinyusb/src/device/usbd.h **** #ifndef TUSB_USBD_H_
  28:SynaptiX_FDK/lib/tinyusb/src/device/usbd.h **** #define TUSB_USBD_H_
  29:SynaptiX_FDK/lib/tinyusb/src/device/usbd.h **** 
  30:SynaptiX_FDK/lib/tinyusb/src/device/usbd.h **** #include "common/tusb_common.h"
  31:SynaptiX_FDK/lib/tinyusb/src/device/usbd.h **** 
  32:SynaptiX_FDK/lib/tinyusb/src/device/usbd.h **** #ifdef __cplusplus
  33:SynaptiX_FDK/lib/tinyusb/src/device/usbd.h **** extern "C" {
  34:SynaptiX_FDK/lib/tinyusb/src/device/usbd.h **** #endif
  35:SynaptiX_FDK/lib/tinyusb/src/device/usbd.h **** 
  36:SynaptiX_FDK/lib/tinyusb/src/device/usbd.h **** // ConfigID for tud_configure()
  37:SynaptiX_FDK/lib/tinyusb/src/device/usbd.h **** enum {
  38:SynaptiX_FDK/lib/tinyusb/src/device/usbd.h ****   TUD_CFGID_INVALID = 0,
  39:SynaptiX_FDK/lib/tinyusb/src/device/usbd.h ****   TUD_CFGID_DWC2 = 100,
  40:SynaptiX_FDK/lib/tinyusb/src/device/usbd.h **** };
  41:SynaptiX_FDK/lib/tinyusb/src/device/usbd.h **** 
  42:SynaptiX_FDK/lib/tinyusb/src/device/usbd.h **** typedef struct {
  43:SynaptiX_FDK/lib/tinyusb/src/device/usbd.h ****   uint16_t bm_double_buffered; // bitmap of IN endpoints to be double buffered, only effective for 
  44:SynaptiX_FDK/lib/tinyusb/src/device/usbd.h ****   bool vbus_sensing; // Vbus pin is used for device connection detection, mandatory for tud_umount_
  45:SynaptiX_FDK/lib/tinyusb/src/device/usbd.h **** } tud_configure_dwc2_t;
  46:SynaptiX_FDK/lib/tinyusb/src/device/usbd.h **** 
  47:SynaptiX_FDK/lib/tinyusb/src/device/usbd.h ****   #ifndef CFG_TUD_CONFIGURE_DWC2_DEFAULT
  48:SynaptiX_FDK/lib/tinyusb/src/device/usbd.h ****     #define CFG_TUD_CONFIGURE_DWC2_DEFAULT {.bm_double_buffered = 0, .vbus_sensing = CFG_TUD_VBUS_D
  49:SynaptiX_FDK/lib/tinyusb/src/device/usbd.h ****   #endif
  50:SynaptiX_FDK/lib/tinyusb/src/device/usbd.h **** 
  51:SynaptiX_FDK/lib/tinyusb/src/device/usbd.h **** typedef union {
  52:SynaptiX_FDK/lib/tinyusb/src/device/usbd.h ****   tud_configure_dwc2_t dwc2;
  53:SynaptiX_FDK/lib/tinyusb/src/device/usbd.h **** } tud_configure_param_t;
  54:SynaptiX_FDK/lib/tinyusb/src/device/usbd.h **** 
  55:SynaptiX_FDK/lib/tinyusb/src/device/usbd.h **** //--------------------------------------------------------------------+
  56:SynaptiX_FDK/lib/tinyusb/src/device/usbd.h **** // Application API
  57:SynaptiX_FDK/lib/tinyusb/src/device/usbd.h **** //--------------------------------------------------------------------+
  58:SynaptiX_FDK/lib/tinyusb/src/device/usbd.h **** 
  59:SynaptiX_FDK/lib/tinyusb/src/device/usbd.h **** // Configure device stack behavior with dynamic or port-specific parameters.
ARM GAS  C:\Users\DELL\AppData\Local\Temp\ccPVFf9r.s 			page 15


  60:SynaptiX_FDK/lib/tinyusb/src/device/usbd.h **** // Should be called before initialization of the device stack
  61:SynaptiX_FDK/lib/tinyusb/src/device/usbd.h **** // - cfg_id   : configure ID from TUD_CFGID_* enum values
  62:SynaptiX_FDK/lib/tinyusb/src/device/usbd.h **** // - cfg_param: configure data, structure depends on the ID
  63:SynaptiX_FDK/lib/tinyusb/src/device/usbd.h **** bool tud_configure(uint8_t rhport, uint32_t cfg_id, const void* cfg_param);
  64:SynaptiX_FDK/lib/tinyusb/src/device/usbd.h **** 
  65:SynaptiX_FDK/lib/tinyusb/src/device/usbd.h **** // New API to replace tud_init() to init device stack on specific roothub port
  66:SynaptiX_FDK/lib/tinyusb/src/device/usbd.h **** // Must be called in the same task/context as tud_task() if RTOS is used
  67:SynaptiX_FDK/lib/tinyusb/src/device/usbd.h **** bool tud_rhport_init(uint8_t rhport, const tusb_rhport_init_t* rh_init);
  68:SynaptiX_FDK/lib/tinyusb/src/device/usbd.h **** 
  69:SynaptiX_FDK/lib/tinyusb/src/device/usbd.h **** // Init device stack on roothub port
  70:SynaptiX_FDK/lib/tinyusb/src/device/usbd.h **** #if TUSB_VERSION_NUMBER > 2000  // 0.20.0
  71:SynaptiX_FDK/lib/tinyusb/src/device/usbd.h **** TU_ATTR_DEPRECATED("Please use tusb_init(rhport, rh_init) instead")
  72:SynaptiX_FDK/lib/tinyusb/src/device/usbd.h **** #endif
  73:SynaptiX_FDK/lib/tinyusb/src/device/usbd.h **** TU_ATTR_ALWAYS_INLINE static inline bool tud_init (uint8_t rhport) {
  74:SynaptiX_FDK/lib/tinyusb/src/device/usbd.h ****   const tusb_rhport_init_t rh_init = {
  75:SynaptiX_FDK/lib/tinyusb/src/device/usbd.h ****     .role = TUSB_ROLE_DEVICE,
  76:SynaptiX_FDK/lib/tinyusb/src/device/usbd.h ****     .speed = TUD_OPT_HIGH_SPEED ? TUSB_SPEED_HIGH : TUSB_SPEED_FULL
  77:SynaptiX_FDK/lib/tinyusb/src/device/usbd.h ****   };
  78:SynaptiX_FDK/lib/tinyusb/src/device/usbd.h ****   return tud_rhport_init(rhport, &rh_init);
  79:SynaptiX_FDK/lib/tinyusb/src/device/usbd.h **** }
  80:SynaptiX_FDK/lib/tinyusb/src/device/usbd.h **** 
  81:SynaptiX_FDK/lib/tinyusb/src/device/usbd.h **** // Deinit device stack on roothub port
  82:SynaptiX_FDK/lib/tinyusb/src/device/usbd.h **** // Must be called in the same task/context as tud_task() if RTOS is used
  83:SynaptiX_FDK/lib/tinyusb/src/device/usbd.h **** bool tud_deinit(uint8_t rhport);
  84:SynaptiX_FDK/lib/tinyusb/src/device/usbd.h **** 
  85:SynaptiX_FDK/lib/tinyusb/src/device/usbd.h **** // Check if device stack is already initialized
  86:SynaptiX_FDK/lib/tinyusb/src/device/usbd.h **** bool tud_inited(void);
  87:SynaptiX_FDK/lib/tinyusb/src/device/usbd.h **** 
  88:SynaptiX_FDK/lib/tinyusb/src/device/usbd.h **** // Task function should be called in main/rtos loop, extended version of tud_task()
  89:SynaptiX_FDK/lib/tinyusb/src/device/usbd.h **** // - timeout_ms: millisecond to wait, zero = no wait, 0xFFFFFFFF = wait forever
  90:SynaptiX_FDK/lib/tinyusb/src/device/usbd.h **** // - in_isr: if function is called in ISR
  91:SynaptiX_FDK/lib/tinyusb/src/device/usbd.h **** void tud_task_ext(uint32_t timeout_ms, bool in_isr);
  92:SynaptiX_FDK/lib/tinyusb/src/device/usbd.h **** 
  93:SynaptiX_FDK/lib/tinyusb/src/device/usbd.h **** // Task function should be called in main/rtos loop
  94:SynaptiX_FDK/lib/tinyusb/src/device/usbd.h **** TU_ATTR_ALWAYS_INLINE static inline
  95:SynaptiX_FDK/lib/tinyusb/src/device/usbd.h **** void tud_task (void) {
 348              		.loc 3 95 6 view .LVU72
 349              	.LBB38:
  96:SynaptiX_FDK/lib/tinyusb/src/device/usbd.h ****   tud_task_ext(UINT32_MAX, false);
 350              		.loc 3 96 3 view .LVU73
 351 0012 0021     		movs	r1, #0
 352 0014 4FF0FF30 		mov	r0, #-1
 353 0018 FFF7FEFF 		bl	tud_task_ext
 354              	.LVL28:
 355              	.LBE38:
 356              	.LBE37:
 105:SynaptiX_FDK/components/peripherals/usb_cdc_tiny/sx_usb_tiny_cdc.c ****             //sx_delay_ms(1);
 106:SynaptiX_FDK/components/peripherals/usb_cdc_tiny/sx_usb_tiny_cdc.c ****             time++;
 357              		.loc 1 106 13 view .LVU74
 358              		.loc 1 106 17 is_stmt 0 view .LVU75
 359 001c 0135     		adds	r5, r5, #1
 360              	.LVL29:
 361              	.L18:
 100:SynaptiX_FDK/components/peripherals/usb_cdc_tiny/sx_usb_tiny_cdc.c ****         if(cqueue_receive(&_usb->rxQueue, _data + len)){
 362              		.loc 1 100 22 is_stmt 1 view .LVU76
 363 001e B442     		cmp	r4, r6
 364 0020 0BD2     		bcs	.L21
ARM GAS  C:\Users\DELL\AppData\Local\Temp\ccPVFf9r.s 			page 16


 100:SynaptiX_FDK/components/peripherals/usb_cdc_tiny/sx_usb_tiny_cdc.c ****         if(cqueue_receive(&_usb->rxQueue, _data + len)){
 365              		.loc 1 100 22 is_stmt 0 discriminator 1 view .LVU77
 366 0022 BD42     		cmp	r5, r7
 367 0024 09D2     		bcs	.L21
 101:SynaptiX_FDK/components/peripherals/usb_cdc_tiny/sx_usb_tiny_cdc.c ****             len++;
 368              		.loc 1 101 9 is_stmt 1 view .LVU78
 101:SynaptiX_FDK/components/peripherals/usb_cdc_tiny/sx_usb_tiny_cdc.c ****             len++;
 369              		.loc 1 101 12 is_stmt 0 view .LVU79
 370 0026 08EB0401 		add	r1, r8, r4
 371 002a 09F10800 		add	r0, r9, #8
 372 002e FFF7FEFF 		bl	cqueue_receive
 373              	.LVL30:
 101:SynaptiX_FDK/components/peripherals/usb_cdc_tiny/sx_usb_tiny_cdc.c ****             len++;
 374              		.loc 1 101 11 discriminator 1 view .LVU80
 375 0032 0028     		cmp	r0, #0
 376 0034 EDD0     		beq	.L19
 102:SynaptiX_FDK/components/peripherals/usb_cdc_tiny/sx_usb_tiny_cdc.c ****         } else {
 377              		.loc 1 102 13 is_stmt 1 view .LVU81
 102:SynaptiX_FDK/components/peripherals/usb_cdc_tiny/sx_usb_tiny_cdc.c ****         } else {
 378              		.loc 1 102 16 is_stmt 0 view .LVU82
 379 0036 0134     		adds	r4, r4, #1
 380              	.LVL31:
 102:SynaptiX_FDK/components/peripherals/usb_cdc_tiny/sx_usb_tiny_cdc.c ****         } else {
 381              		.loc 1 102 16 view .LVU83
 382 0038 F1E7     		b	.L18
 383              	.L21:
 107:SynaptiX_FDK/components/peripherals/usb_cdc_tiny/sx_usb_tiny_cdc.c ****         }
 108:SynaptiX_FDK/components/peripherals/usb_cdc_tiny/sx_usb_tiny_cdc.c ****     }
 109:SynaptiX_FDK/components/peripherals/usb_cdc_tiny/sx_usb_tiny_cdc.c ****     return (int)len;
 384              		.loc 1 109 5 is_stmt 1 view .LVU84
 110:SynaptiX_FDK/components/peripherals/usb_cdc_tiny/sx_usb_tiny_cdc.c **** }
 385              		.loc 1 110 1 is_stmt 0 view .LVU85
 386 003a 2046     		mov	r0, r4
 387 003c BDE8F883 		pop	{r3, r4, r5, r6, r7, r8, r9, pc}
 388              		.loc 1 110 1 view .LVU86
 389              		.cfi_endproc
 390              	.LFE435:
 392              		.section	.text.sx_usb_tiny_connected,"ax",%progbits
 393              		.align	1
 394              		.global	sx_usb_tiny_connected
 395              		.syntax unified
 396              		.thumb
 397              		.thumb_func
 399              	sx_usb_tiny_connected:
 400              	.LVL32:
 401              	.LFB436:
 111:SynaptiX_FDK/components/peripherals/usb_cdc_tiny/sx_usb_tiny_cdc.c **** 
 112:SynaptiX_FDK/components/peripherals/usb_cdc_tiny/sx_usb_tiny_cdc.c **** bool sx_usb_tiny_connected(sx_usb_tiny_t *_usb){
 402              		.loc 1 112 48 is_stmt 1 view -0
 403              		.cfi_startproc
 404              		@ args = 0, pretend = 0, frame = 0
 405              		@ frame_needed = 0, uses_anonymous_args = 0
 406              		.loc 1 112 48 is_stmt 0 view .LVU88
 407 0000 08B5     		push	{r3, lr}
 408              	.LCFI8:
 409              		.cfi_def_cfa_offset 8
 410              		.cfi_offset 3, -8
ARM GAS  C:\Users\DELL\AppData\Local\Temp\ccPVFf9r.s 			page 17


 411              		.cfi_offset 14, -4
 113:SynaptiX_FDK/components/peripherals/usb_cdc_tiny/sx_usb_tiny_cdc.c ****     return tud_cdc_connected();
 412              		.loc 1 113 5 is_stmt 1 view .LVU89
 413              	.LBB39:
 414              	.LBI39:
 209:SynaptiX_FDK/lib/tinyusb/src/class/cdc/cdc_device.h ****   return tud_cdc_n_connected(0);
 415              		.loc 2 209 42 view .LVU90
 416              	.LBB40:
 210:SynaptiX_FDK/lib/tinyusb/src/class/cdc/cdc_device.h **** }
 417              		.loc 2 210 3 view .LVU91
 210:SynaptiX_FDK/lib/tinyusb/src/class/cdc/cdc_device.h **** }
 418              		.loc 2 210 10 is_stmt 0 view .LVU92
 419 0002 0020     		movs	r0, #0
 420              	.LVL33:
 210:SynaptiX_FDK/lib/tinyusb/src/class/cdc/cdc_device.h **** }
 421              		.loc 2 210 10 view .LVU93
 422 0004 FFF7FEFF 		bl	tud_cdc_n_connected
 423              	.LVL34:
 424              	.LBE40:
 425              	.LBE39:
 114:SynaptiX_FDK/components/peripherals/usb_cdc_tiny/sx_usb_tiny_cdc.c **** }
 426              		.loc 1 114 1 view .LVU94
 427 0008 08BD     		pop	{r3, pc}
 428              		.cfi_endproc
 429              	.LFE436:
 431              		.section	.text.sx_usb_tiny_process,"ax",%progbits
 432              		.align	1
 433              		.global	sx_usb_tiny_process
 434              		.syntax unified
 435              		.thumb
 436              		.thumb_func
 438              	sx_usb_tiny_process:
 439              	.LVL35:
 440              	.LFB433:
  70:SynaptiX_FDK/components/peripherals/usb_cdc_tiny/sx_usb_tiny_cdc.c **** #if SX_PLATFORM == SX_PLATFORM_STM32H5 || SX_PLATFORM == SX_PLATFORM_STM32H7
 441              		.loc 1 70 46 is_stmt 1 view -0
 442              		.cfi_startproc
 443              		@ args = 0, pretend = 0, frame = 0
 444              		@ frame_needed = 0, uses_anonymous_args = 0
  70:SynaptiX_FDK/components/peripherals/usb_cdc_tiny/sx_usb_tiny_cdc.c **** #if SX_PLATFORM == SX_PLATFORM_STM32H5 || SX_PLATFORM == SX_PLATFORM_STM32H7
 445              		.loc 1 70 46 is_stmt 0 view .LVU96
 446 0000 10B5     		push	{r4, lr}
 447              	.LCFI9:
 448              		.cfi_def_cfa_offset 8
 449              		.cfi_offset 4, -8
 450              		.cfi_offset 14, -4
 451 0002 0446     		mov	r4, r0
  72:SynaptiX_FDK/components/peripherals/usb_cdc_tiny/sx_usb_tiny_cdc.c ****     _usb->connected = sx_usb_tiny_connected(_usb);
 452              		.loc 1 72 5 is_stmt 1 view .LVU97
 453              	.LBB41:
 454              	.LBI41:
  95:SynaptiX_FDK/lib/tinyusb/src/device/usbd.h ****   tud_task_ext(UINT32_MAX, false);
 455              		.loc 3 95 6 view .LVU98
 456              	.LBB42:
 457              		.loc 3 96 3 view .LVU99
 458 0004 0021     		movs	r1, #0
 459 0006 4FF0FF30 		mov	r0, #-1
ARM GAS  C:\Users\DELL\AppData\Local\Temp\ccPVFf9r.s 			page 18


 460              	.LVL36:
 461              		.loc 3 96 3 is_stmt 0 view .LVU100
 462 000a FFF7FEFF 		bl	tud_task_ext
 463              	.LVL37:
 464              	.LBE42:
 465              	.LBE41:
  73:SynaptiX_FDK/components/peripherals/usb_cdc_tiny/sx_usb_tiny_cdc.c ****     usb_rx_task(_usb);
 466              		.loc 1 73 5 is_stmt 1 view .LVU101
  73:SynaptiX_FDK/components/peripherals/usb_cdc_tiny/sx_usb_tiny_cdc.c ****     usb_rx_task(_usb);
 467              		.loc 1 73 23 is_stmt 0 view .LVU102
 468 000e 2046     		mov	r0, r4
 469 0010 FFF7FEFF 		bl	sx_usb_tiny_connected
 470              	.LVL38:
  73:SynaptiX_FDK/components/peripherals/usb_cdc_tiny/sx_usb_tiny_cdc.c ****     usb_rx_task(_usb);
 471              		.loc 1 73 21 discriminator 1 view .LVU103
 472 0014 84F83C00 		strb	r0, [r4, #60]
  74:SynaptiX_FDK/components/peripherals/usb_cdc_tiny/sx_usb_tiny_cdc.c **** #endif
 473              		.loc 1 74 5 is_stmt 1 view .LVU104
 474 0018 2046     		mov	r0, r4
 475 001a FFF7FEFF 		bl	usb_rx_task
 476              	.LVL39:
  76:SynaptiX_FDK/components/peripherals/usb_cdc_tiny/sx_usb_tiny_cdc.c **** 
 477              		.loc 1 76 1 is_stmt 0 view .LVU105
 478 001e 10BD     		pop	{r4, pc}
  76:SynaptiX_FDK/components/peripherals/usb_cdc_tiny/sx_usb_tiny_cdc.c **** 
 479              		.loc 1 76 1 view .LVU106
 480              		.cfi_endproc
 481              	.LFE433:
 483              		.section	.rodata.sx_usb_tiny_write.str1.4,"aMS",%progbits,1
 484              		.align	2
 485              	.LC5:
 486 0000 55534220 		.ascii	"USB write: %lu bytes\000"
 486      77726974 
 486      653A2025 
 486      6C752062 
 486      79746573 
 487              		.section	.text.sx_usb_tiny_write,"ax",%progbits
 488              		.align	1
 489              		.global	sx_usb_tiny_write
 490              		.syntax unified
 491              		.thumb
 492              		.thumb_func
 494              	sx_usb_tiny_write:
 495              	.LVL40:
 496              	.LFB434:
  78:SynaptiX_FDK/components/peripherals/usb_cdc_tiny/sx_usb_tiny_cdc.c ****     if(!sx_usb_tiny_connected(_usb)) 
 497              		.loc 1 78 81 is_stmt 1 view -0
 498              		.cfi_startproc
 499              		@ args = 0, pretend = 0, frame = 0
 500              		@ frame_needed = 0, uses_anonymous_args = 0
  78:SynaptiX_FDK/components/peripherals/usb_cdc_tiny/sx_usb_tiny_cdc.c ****     if(!sx_usb_tiny_connected(_usb)) 
 501              		.loc 1 78 81 is_stmt 0 view .LVU108
 502 0000 F8B5     		push	{r3, r4, r5, r6, r7, lr}
 503              	.LCFI10:
 504              		.cfi_def_cfa_offset 24
 505              		.cfi_offset 3, -24
 506              		.cfi_offset 4, -20
ARM GAS  C:\Users\DELL\AppData\Local\Temp\ccPVFf9r.s 			page 19


 507              		.cfi_offset 5, -16
 508              		.cfi_offset 6, -12
 509              		.cfi_offset 7, -8
 510              		.cfi_offset 14, -4
 511 0002 0F46     		mov	r7, r1
 512 0004 1646     		mov	r6, r2
  79:SynaptiX_FDK/components/peripherals/usb_cdc_tiny/sx_usb_tiny_cdc.c ****         return;
 513              		.loc 1 79 5 is_stmt 1 view .LVU109
  79:SynaptiX_FDK/components/peripherals/usb_cdc_tiny/sx_usb_tiny_cdc.c ****         return;
 514              		.loc 1 79 9 is_stmt 0 view .LVU110
 515 0006 FFF7FEFF 		bl	sx_usb_tiny_connected
 516              	.LVL41:
  79:SynaptiX_FDK/components/peripherals/usb_cdc_tiny/sx_usb_tiny_cdc.c ****         return;
 517              		.loc 1 79 7 discriminator 1 view .LVU111
 518 000a 00B9     		cbnz	r0, .L34
 519              	.L28:
  93:SynaptiX_FDK/components/peripherals/usb_cdc_tiny/sx_usb_tiny_cdc.c **** 
 520              		.loc 1 93 1 view .LVU112
 521 000c F8BD     		pop	{r3, r4, r5, r6, r7, pc}
 522              	.LVL42:
 523              	.L34:
  81:SynaptiX_FDK/components/peripherals/usb_cdc_tiny/sx_usb_tiny_cdc.c **** 
 524              		.loc 1 81 5 is_stmt 1 view .LVU113
 525 000e 3346     		mov	r3, r6
 526 0010 0D4A     		ldr	r2, .L36
 527 0012 0E49     		ldr	r1, .L36+4
 528 0014 0420     		movs	r0, #4
 529 0016 FFF7FEFF 		bl	log_func
 530              	.LVL43:
  84:SynaptiX_FDK/components/peripherals/usb_cdc_tiny/sx_usb_tiny_cdc.c ****     while(sent < _len){
 531              		.loc 1 84 5 view .LVU114
  85:SynaptiX_FDK/components/peripherals/usb_cdc_tiny/sx_usb_tiny_cdc.c ****         uint32_t written = tud_cdc_write(_data + sent, _len - sent);
 532              		.loc 1 85 5 view .LVU115
  84:SynaptiX_FDK/components/peripherals/usb_cdc_tiny/sx_usb_tiny_cdc.c ****     while(sent < _len){
 533              		.loc 1 84 14 is_stmt 0 view .LVU116
 534 001a 0024     		movs	r4, #0
  85:SynaptiX_FDK/components/peripherals/usb_cdc_tiny/sx_usb_tiny_cdc.c ****         uint32_t written = tud_cdc_write(_data + sent, _len - sent);
 535              		.loc 1 85 10 view .LVU117
 536 001c 04E0     		b	.L30
 537              	.LVL44:
 538              	.L35:
 539              	.LBB43:
  90:SynaptiX_FDK/components/peripherals/usb_cdc_tiny/sx_usb_tiny_cdc.c ****     }
 540              		.loc 1 90 13 is_stmt 1 view .LVU118
 541              	.LBB44:
 542              	.LBI44:
  95:SynaptiX_FDK/lib/tinyusb/src/device/usbd.h ****   tud_task_ext(UINT32_MAX, false);
 543              		.loc 3 95 6 view .LVU119
 544              	.LBB45:
 545              		.loc 3 96 3 view .LVU120
 546 001e 0021     		movs	r1, #0
 547 0020 4FF0FF30 		mov	r0, #-1
 548 0024 FFF7FEFF 		bl	tud_task_ext
 549              	.LVL45:
 550              	.L30:
 551              		.loc 3 96 3 is_stmt 0 view .LVU121
 552              	.LBE45:
ARM GAS  C:\Users\DELL\AppData\Local\Temp\ccPVFf9r.s 			page 20


 553              	.LBE44:
 554              	.LBE43:
  85:SynaptiX_FDK/components/peripherals/usb_cdc_tiny/sx_usb_tiny_cdc.c ****         uint32_t written = tud_cdc_write(_data + sent, _len - sent);
 555              		.loc 1 85 16 is_stmt 1 view .LVU122
 556 0028 B442     		cmp	r4, r6
 557 002a EFD2     		bcs	.L28
 558              	.LBB50:
  86:SynaptiX_FDK/components/peripherals/usb_cdc_tiny/sx_usb_tiny_cdc.c ****         sent += written;
 559              		.loc 1 86 9 view .LVU123
 560              	.LVL46:
 561              	.LBB46:
 562              	.LBI46:
 235:SynaptiX_FDK/lib/tinyusb/src/class/cdc/cdc_device.h **** }
 236:SynaptiX_FDK/lib/tinyusb/src/class/cdc/cdc_device.h **** 
 237:SynaptiX_FDK/lib/tinyusb/src/class/cdc/cdc_device.h **** TU_ATTR_ALWAYS_INLINE static inline void tud_cdc_read_flush(void) {
 238:SynaptiX_FDK/lib/tinyusb/src/class/cdc/cdc_device.h ****   tud_cdc_n_read_flush(0);
 239:SynaptiX_FDK/lib/tinyusb/src/class/cdc/cdc_device.h **** }
 240:SynaptiX_FDK/lib/tinyusb/src/class/cdc/cdc_device.h **** 
 241:SynaptiX_FDK/lib/tinyusb/src/class/cdc/cdc_device.h **** TU_ATTR_ALWAYS_INLINE static inline bool tud_cdc_peek(uint8_t* ui8) {
 242:SynaptiX_FDK/lib/tinyusb/src/class/cdc/cdc_device.h ****   return tud_cdc_n_peek(0, ui8);
 243:SynaptiX_FDK/lib/tinyusb/src/class/cdc/cdc_device.h **** }
 244:SynaptiX_FDK/lib/tinyusb/src/class/cdc/cdc_device.h **** 
 245:SynaptiX_FDK/lib/tinyusb/src/class/cdc/cdc_device.h **** TU_ATTR_ALWAYS_INLINE static inline uint32_t tud_cdc_write_char(char ch) {
 246:SynaptiX_FDK/lib/tinyusb/src/class/cdc/cdc_device.h ****   return tud_cdc_n_write_char(0, ch);
 247:SynaptiX_FDK/lib/tinyusb/src/class/cdc/cdc_device.h **** }
 248:SynaptiX_FDK/lib/tinyusb/src/class/cdc/cdc_device.h **** 
 249:SynaptiX_FDK/lib/tinyusb/src/class/cdc/cdc_device.h **** TU_ATTR_ALWAYS_INLINE static inline uint32_t tud_cdc_write(void const* buffer, uint32_t bufsize) {
 563              		.loc 2 249 46 view .LVU124
 564              	.LBB47:
 250:SynaptiX_FDK/lib/tinyusb/src/class/cdc/cdc_device.h ****   return tud_cdc_n_write(0, buffer, bufsize);
 565              		.loc 2 250 3 view .LVU125
 566              		.loc 2 250 10 is_stmt 0 view .LVU126
 567 002c 321B     		subs	r2, r6, r4
 568              	.LVL47:
 569              		.loc 2 250 10 view .LVU127
 570 002e 3919     		adds	r1, r7, r4
 571              	.LVL48:
 572              		.loc 2 250 10 view .LVU128
 573 0030 0020     		movs	r0, #0
 574 0032 FFF7FEFF 		bl	tud_cdc_n_write
 575              	.LVL49:
 576              		.loc 2 250 10 view .LVU129
 577 0036 0546     		mov	r5, r0
 578              	.LVL50:
 579              		.loc 2 250 10 view .LVU130
 580              	.LBE47:
 581              	.LBE46:
  87:SynaptiX_FDK/components/peripherals/usb_cdc_tiny/sx_usb_tiny_cdc.c ****         tud_cdc_write_flush();
 582              		.loc 1 87 9 is_stmt 1 view .LVU131
  87:SynaptiX_FDK/components/peripherals/usb_cdc_tiny/sx_usb_tiny_cdc.c ****         tud_cdc_write_flush();
 583              		.loc 1 87 14 is_stmt 0 view .LVU132
 584 0038 0444     		add	r4, r4, r0
 585              	.LVL51:
  88:SynaptiX_FDK/components/peripherals/usb_cdc_tiny/sx_usb_tiny_cdc.c ****         if(written == 0)
 586              		.loc 1 88 9 is_stmt 1 view .LVU133
 587              	.LBB48:
 588              	.LBI48:
ARM GAS  C:\Users\DELL\AppData\Local\Temp\ccPVFf9r.s 			page 21


 251:SynaptiX_FDK/lib/tinyusb/src/class/cdc/cdc_device.h **** }
 252:SynaptiX_FDK/lib/tinyusb/src/class/cdc/cdc_device.h **** 
 253:SynaptiX_FDK/lib/tinyusb/src/class/cdc/cdc_device.h **** TU_ATTR_ALWAYS_INLINE static inline uint32_t tud_cdc_write_str(char const* str) {
 254:SynaptiX_FDK/lib/tinyusb/src/class/cdc/cdc_device.h ****   return tud_cdc_n_write_str(0, str);
 255:SynaptiX_FDK/lib/tinyusb/src/class/cdc/cdc_device.h **** }
 256:SynaptiX_FDK/lib/tinyusb/src/class/cdc/cdc_device.h **** 
 257:SynaptiX_FDK/lib/tinyusb/src/class/cdc/cdc_device.h **** TU_ATTR_ALWAYS_INLINE static inline uint32_t tud_cdc_write_flush(void) {
 589              		.loc 2 257 46 view .LVU134
 590              	.LBB49:
 258:SynaptiX_FDK/lib/tinyusb/src/class/cdc/cdc_device.h ****   return tud_cdc_n_write_flush(0);
 591              		.loc 2 258 3 view .LVU135
 592              		.loc 2 258 10 is_stmt 0 view .LVU136
 593 003a 0020     		movs	r0, #0
 594              	.LVL52:
 595              		.loc 2 258 10 view .LVU137
 596 003c FFF7FEFF 		bl	tud_cdc_n_write_flush
 597              	.LVL53:
 598              	.LBE49:
 599              	.LBE48:
  89:SynaptiX_FDK/components/peripherals/usb_cdc_tiny/sx_usb_tiny_cdc.c ****             tud_task();
 600              		.loc 1 89 9 is_stmt 1 view .LVU138
  89:SynaptiX_FDK/components/peripherals/usb_cdc_tiny/sx_usb_tiny_cdc.c ****             tud_task();
 601              		.loc 1 89 11 is_stmt 0 view .LVU139
 602 0040 002D     		cmp	r5, #0
 603 0042 F1D1     		bne	.L30
 604 0044 EBE7     		b	.L35
 605              	.L37:
 606 0046 00BF     		.align	2
 607              	.L36:
 608 0048 00000000 		.word	.LC5
 609 004c 1C000000 		.word	.LC2
 610              	.LBE50:
 611              		.cfi_endproc
 612              	.LFE434:
 614              		.section	.text.sx_usb_tiny_available,"ax",%progbits
 615              		.align	1
 616              		.global	sx_usb_tiny_available
 617              		.syntax unified
 618              		.thumb
 619              		.thumb_func
 621              	sx_usb_tiny_available:
 622              	.LVL54:
 623              	.LFB437:
 115:SynaptiX_FDK/components/peripherals/usb_cdc_tiny/sx_usb_tiny_cdc.c **** 
 116:SynaptiX_FDK/components/peripherals/usb_cdc_tiny/sx_usb_tiny_cdc.c **** int sx_usb_tiny_available(sx_usb_tiny_t *_usb){
 624              		.loc 1 116 47 is_stmt 1 view -0
 625              		.cfi_startproc
 626              		@ args = 0, pretend = 0, frame = 0
 627              		@ frame_needed = 0, uses_anonymous_args = 0
 628              		@ link register save eliminated.
 117:SynaptiX_FDK/components/peripherals/usb_cdc_tiny/sx_usb_tiny_cdc.c ****     //log_debug(TAG, "USB available: %d bytes", _usb->rxQueue.count);
 118:SynaptiX_FDK/components/peripherals/usb_cdc_tiny/sx_usb_tiny_cdc.c ****     return _usb->rxQueue.count;
 629              		.loc 1 118 5 view .LVU141
 119:SynaptiX_FDK/components/peripherals/usb_cdc_tiny/sx_usb_tiny_cdc.c ****     //return tud_cdc_available();
 120:SynaptiX_FDK/components/peripherals/usb_cdc_tiny/sx_usb_tiny_cdc.c **** }
 630              		.loc 1 120 1 is_stmt 0 view .LVU142
 631 0000 C069     		ldr	r0, [r0, #28]
ARM GAS  C:\Users\DELL\AppData\Local\Temp\ccPVFf9r.s 			page 22


 632              	.LVL55:
 633              		.loc 1 120 1 view .LVU143
 634 0002 7047     		bx	lr
 635              		.cfi_endproc
 636              	.LFE437:
 638              		.section	.text.sx_usb_tiny_printf,"ax",%progbits
 639              		.align	1
 640              		.global	sx_usb_tiny_printf
 641              		.syntax unified
 642              		.thumb
 643              		.thumb_func
 645              	sx_usb_tiny_printf:
 646              	.LVL56:
 647              	.LFB438:
 121:SynaptiX_FDK/components/peripherals/usb_cdc_tiny/sx_usb_tiny_cdc.c **** 
 122:SynaptiX_FDK/components/peripherals/usb_cdc_tiny/sx_usb_tiny_cdc.c **** void sx_usb_tiny_printf(sx_usb_tiny_t *_usb, const char *fmt, ...){
 648              		.loc 1 122 67 is_stmt 1 view -0
 649              		.cfi_startproc
 650              		@ args = 4, pretend = 12, frame = 264
 651              		@ frame_needed = 0, uses_anonymous_args = 1
 652              		.loc 1 122 67 is_stmt 0 view .LVU145
 653 0000 0EB4     		push	{r1, r2, r3}
 654              	.LCFI11:
 655              		.cfi_def_cfa_offset 12
 656              		.cfi_offset 1, -12
 657              		.cfi_offset 2, -8
 658              		.cfi_offset 3, -4
 659 0002 30B5     		push	{r4, r5, lr}
 660              	.LCFI12:
 661              		.cfi_def_cfa_offset 24
 662              		.cfi_offset 4, -24
 663              		.cfi_offset 5, -20
 664              		.cfi_offset 14, -16
 665 0004 C2B0     		sub	sp, sp, #264
 666              	.LCFI13:
 667              		.cfi_def_cfa_offset 288
 668 0006 0446     		mov	r4, r0
 669 0008 45AB     		add	r3, sp, #276
 670 000a 53F8042B 		ldr	r2, [r3], #4
 123:SynaptiX_FDK/components/peripherals/usb_cdc_tiny/sx_usb_tiny_cdc.c ****     char buf[256];
 671              		.loc 1 123 5 is_stmt 1 view .LVU146
 124:SynaptiX_FDK/components/peripherals/usb_cdc_tiny/sx_usb_tiny_cdc.c ****     va_list ap;
 672              		.loc 1 124 5 view .LVU147
 125:SynaptiX_FDK/components/peripherals/usb_cdc_tiny/sx_usb_tiny_cdc.c ****     va_start(ap, fmt);
 673              		.loc 1 125 5 view .LVU148
 674 000e 0193     		str	r3, [sp, #4]
 126:SynaptiX_FDK/components/peripherals/usb_cdc_tiny/sx_usb_tiny_cdc.c ****     vsnprintf(buf, sizeof(buf), fmt, ap);
 675              		.loc 1 126 5 view .LVU149
 676 0010 02AD     		add	r5, sp, #8
 677 0012 4FF48071 		mov	r1, #256
 678 0016 2846     		mov	r0, r5
 679              	.LVL57:
 680              		.loc 1 126 5 is_stmt 0 view .LVU150
 681 0018 FFF7FEFF 		bl	vsnprintf
 682              	.LVL58:
 127:SynaptiX_FDK/components/peripherals/usb_cdc_tiny/sx_usb_tiny_cdc.c ****     va_end(ap);
 683              		.loc 1 127 5 is_stmt 1 view .LVU151
ARM GAS  C:\Users\DELL\AppData\Local\Temp\ccPVFf9r.s 			page 23


 128:SynaptiX_FDK/components/peripherals/usb_cdc_tiny/sx_usb_tiny_cdc.c ****     sx_usb_tiny_write(_usb, (uint8_t *)buf, strlen(buf));
 684              		.loc 1 128 5 view .LVU152
 685              		.loc 1 128 45 is_stmt 0 view .LVU153
 686 001c 2846     		mov	r0, r5
 687 001e FFF7FEFF 		bl	strlen
 688              	.LVL59:
 689 0022 0246     		mov	r2, r0
 690              		.loc 1 128 5 discriminator 1 view .LVU154
 691 0024 2946     		mov	r1, r5
 692 0026 2046     		mov	r0, r4
 693 0028 FFF7FEFF 		bl	sx_usb_tiny_write
 694              	.LVL60:
 129:SynaptiX_FDK/components/peripherals/usb_cdc_tiny/sx_usb_tiny_cdc.c **** }
 695              		.loc 1 129 1 view .LVU155
 696 002c 42B0     		add	sp, sp, #264
 697              	.LCFI14:
 698              		.cfi_def_cfa_offset 24
 699              		@ sp needed
 700 002e BDE83040 		pop	{r4, r5, lr}
 701              	.LCFI15:
 702              		.cfi_restore 14
 703              		.cfi_restore 5
 704              		.cfi_restore 4
 705              		.cfi_def_cfa_offset 12
 706              	.LVL61:
 707              		.loc 1 129 1 view .LVU156
 708 0032 03B0     		add	sp, sp, #12
 709              	.LCFI16:
 710              		.cfi_restore 3
 711              		.cfi_restore 2
 712              		.cfi_restore 1
 713              		.cfi_def_cfa_offset 0
 714 0034 7047     		bx	lr
 715              		.cfi_endproc
 716              	.LFE438:
 718              		.section	.rodata
 719              		.align	2
 720              		.set	.LANCHOR0,. + 0
 721              	.LC0:
 722 0000 01       		.byte	1
 723 0001 AA       		.byte	-86
 724              		.text
 725              	.Letext0:
 726              		.file 4 "D:\\stm32cubeclt\\STM32CubeCLT_1.21.0\\GNU-tools-for-STM32\\bin\\../lib/gcc/arm-none-eabi
 727              		.file 5 "D:\\stm32cubeclt\\STM32CubeCLT_1.21.0\\GNU-tools-for-STM32\\bin\\../lib/gcc/arm-none-eabi
 728              		.file 6 "D:\\stm32cubeclt\\STM32CubeCLT_1.21.0\\GNU-tools-for-STM32\\bin\\../lib/gcc/arm-none-eabi
 729              		.file 7 "D:\\stm32cubeclt\\STM32CubeCLT_1.21.0\\GNU-tools-for-STM32\\bin\\../lib/gcc/arm-none-eabi
 730              		.file 8 "D:\\stm32cubeclt\\STM32CubeCLT_1.21.0\\GNU-tools-for-STM32\\bin\\../lib/gcc/arm-none-eabi
 731              		.file 9 "SynaptiX_FDK/utils/cqueue/cqueue.h"
 732              		.file 10 "SynaptiX_FDK/lib/tinyusb/src/common/tusb_types.h"
 733              		.file 11 "SynaptiX_FDK/components/peripherals/usb_cdc_tiny/sx_usb_tiny_cdc.h"
 734              		.file 12 "SynaptiX_FDK/services/logger/logger.h"
 735              		.file 13 "Drivers/STM32H5xx_HAL_Driver/Inc/stm32h5xx_ll_lptim.h"
 736              		.file 14 "D:\\stm32cubeclt\\STM32CubeCLT_1.21.0\\GNU-tools-for-STM32\\bin\\../lib/gcc/arm-none-eab
 737              		.file 15 "SynaptiX_FDK/lib/tinyusb/src/tusb.h"
 738              		.file 16 "SynaptiX_FDK/utils/mem/sx_mem.h"
 739              		.file 17 "<built-in>"
ARM GAS  C:\Users\DELL\AppData\Local\Temp\ccPVFf9r.s 			page 24


ARM GAS  C:\Users\DELL\AppData\Local\Temp\ccPVFf9r.s 			page 25

