ARM GAS  C:\Users\DELL\AppData\Local\Temp\cck5XDKB.s 			page 1


   1              		.cpu cortex-m33
   2              		.arch armv8-m.main
   3              		.fpu fpv5-sp-d16
   4              		.arch_extension dsp
   5              		.eabi_attribute 27, 1
   6              		.eabi_attribute 28, 1
   7              		.eabi_attribute 20, 1
   8              		.eabi_attribute 21, 1
   9              		.eabi_attribute 23, 3
  10              		.eabi_attribute 24, 1
  11              		.eabi_attribute 25, 1
  12              		.eabi_attribute 26, 1
  13              		.eabi_attribute 30, 1
  14              		.eabi_attribute 34, 1
  15              		.eabi_attribute 18, 4
  16              		.file	"sx_W25Q128.c"
  17              		.text
  18              	.Ltext0:
  19              		.cfi_sections	.debug_frame
  20              		.file 1 "SynaptiX_FDK/components/modules/external_flash/sx_W25Q128.c"
  21              		.section	.text.sx_spi_write,"ax",%progbits
  22              		.align	1
  23              		.syntax unified
  24              		.thumb
  25              		.thumb_func
  27              	sx_spi_write:
  28              	.LVL0:
  29              	.LFB10:
  30              		.file 2 "SynaptiX_FDK/components/peripherals/spi/sx_spi.h"
   1:SynaptiX_FDK/components/peripherals/spi/sx_spi.h **** #ifndef SX_SPI_H
   2:SynaptiX_FDK/components/peripherals/spi/sx_spi.h **** #define SX_SPI_H
   3:SynaptiX_FDK/components/peripherals/spi/sx_spi.h **** #ifdef __cplusplus
   4:SynaptiX_FDK/components/peripherals/spi/sx_spi.h **** extern "C" {
   5:SynaptiX_FDK/components/peripherals/spi/sx_spi.h **** #endif
   6:SynaptiX_FDK/components/peripherals/spi/sx_spi.h **** 
   7:SynaptiX_FDK/components/peripherals/spi/sx_spi.h **** #include <stdint.h>
   8:SynaptiX_FDK/components/peripherals/spi/sx_spi.h **** #include "sx_gpio.h"
   9:SynaptiX_FDK/components/peripherals/spi/sx_spi.h **** 
  10:SynaptiX_FDK/components/peripherals/spi/sx_spi.h **** typedef struct sx_spi sx_spi_t;
  11:SynaptiX_FDK/components/peripherals/spi/sx_spi.h **** 
  12:SynaptiX_FDK/components/peripherals/spi/sx_spi.h **** typedef struct sx_spi_ops{
  13:SynaptiX_FDK/components/peripherals/spi/sx_spi.h ****     int (*write)(sx_spi_t *spi, const uint8_t *data, uint32_t len);
  14:SynaptiX_FDK/components/peripherals/spi/sx_spi.h ****     int (*read)(sx_spi_t *spi, uint8_t *data, uint32_t len);
  15:SynaptiX_FDK/components/peripherals/spi/sx_spi.h ****     int (*write_read)(sx_spi_t *spi, const uint8_t *tx_buf, uint8_t *rx_buf, uint32_t len);
  16:SynaptiX_FDK/components/peripherals/spi/sx_spi.h **** } sx_spi_ops_t;
  17:SynaptiX_FDK/components/peripherals/spi/sx_spi.h **** 
  18:SynaptiX_FDK/components/peripherals/spi/sx_spi.h **** struct sx_spi
  19:SynaptiX_FDK/components/peripherals/spi/sx_spi.h **** {
  20:SynaptiX_FDK/components/peripherals/spi/sx_spi.h ****     /* data */
  21:SynaptiX_FDK/components/peripherals/spi/sx_spi.h ****     sx_spi_ops_t *ops;
  22:SynaptiX_FDK/components/peripherals/spi/sx_spi.h ****     void *pDriver;
  23:SynaptiX_FDK/components/peripherals/spi/sx_spi.h ****     sx_gpio_t *cs;
  24:SynaptiX_FDK/components/peripherals/spi/sx_spi.h **** };
  25:SynaptiX_FDK/components/peripherals/spi/sx_spi.h **** 
  26:SynaptiX_FDK/components/peripherals/spi/sx_spi.h **** static inline void sx_spi_init(sx_spi_t *spi, sx_spi_ops_t *ops, void *pDriver, sx_gpio_t *cs){
  27:SynaptiX_FDK/components/peripherals/spi/sx_spi.h ****     spi->ops = ops;
  28:SynaptiX_FDK/components/peripherals/spi/sx_spi.h ****     spi->pDriver = pDriver;
ARM GAS  C:\Users\DELL\AppData\Local\Temp\cck5XDKB.s 			page 2


  29:SynaptiX_FDK/components/peripherals/spi/sx_spi.h ****     spi->cs = cs;
  30:SynaptiX_FDK/components/peripherals/spi/sx_spi.h **** }
  31:SynaptiX_FDK/components/peripherals/spi/sx_spi.h **** 
  32:SynaptiX_FDK/components/peripherals/spi/sx_spi.h **** static inline int sx_spi_write(sx_spi_t *spi, const uint8_t *data, uint32_t len){
  31              		.loc 2 32 81 view -0
  32              		.cfi_startproc
  33              		@ args = 0, pretend = 0, frame = 0
  34              		@ frame_needed = 0, uses_anonymous_args = 0
  35              		.loc 2 32 81 is_stmt 0 view .LVU1
  36 0000 08B5     		push	{r3, lr}
  37              	.LCFI0:
  38              		.cfi_def_cfa_offset 8
  39              		.cfi_offset 3, -8
  40              		.cfi_offset 14, -4
  33:SynaptiX_FDK/components/peripherals/spi/sx_spi.h ****     if(spi->ops && spi->ops->write){
  41              		.loc 2 33 5 is_stmt 1 view .LVU2
  42              		.loc 2 33 11 is_stmt 0 view .LVU3
  43 0002 0368     		ldr	r3, [r0]
  44              		.loc 2 33 7 view .LVU4
  45 0004 1BB1     		cbz	r3, .L3
  46              		.loc 2 33 28 discriminator 1 view .LVU5
  47 0006 1B68     		ldr	r3, [r3]
  48              		.loc 2 33 17 discriminator 1 view .LVU6
  49 0008 23B1     		cbz	r3, .L4
  34:SynaptiX_FDK/components/peripherals/spi/sx_spi.h ****         return spi->ops->write(spi, data, len);
  50              		.loc 2 34 9 is_stmt 1 view .LVU7
  51              		.loc 2 34 16 is_stmt 0 view .LVU8
  52 000a 9847     		blx	r3
  53              	.LVL1:
  54              	.L1:
  35:SynaptiX_FDK/components/peripherals/spi/sx_spi.h ****     }
  36:SynaptiX_FDK/components/peripherals/spi/sx_spi.h ****     return -1;
  37:SynaptiX_FDK/components/peripherals/spi/sx_spi.h **** }
  55              		.loc 2 37 1 view .LVU9
  56 000c 08BD     		pop	{r3, pc}
  57              	.LVL2:
  58              	.L3:
  36:SynaptiX_FDK/components/peripherals/spi/sx_spi.h **** }
  59              		.loc 2 36 12 view .LVU10
  60 000e 4FF0FF30 		mov	r0, #-1
  61              	.LVL3:
  36:SynaptiX_FDK/components/peripherals/spi/sx_spi.h **** }
  62              		.loc 2 36 12 view .LVU11
  63 0012 FBE7     		b	.L1
  64              	.LVL4:
  65              	.L4:
  36:SynaptiX_FDK/components/peripherals/spi/sx_spi.h **** }
  66              		.loc 2 36 12 view .LVU12
  67 0014 4FF0FF30 		mov	r0, #-1
  68              	.LVL5:
  36:SynaptiX_FDK/components/peripherals/spi/sx_spi.h **** }
  69              		.loc 2 36 12 view .LVU13
  70 0018 F8E7     		b	.L1
  71              		.cfi_endproc
  72              	.LFE10:
  74              		.section	.text.sx_spi_write_read,"ax",%progbits
  75              		.align	1
ARM GAS  C:\Users\DELL\AppData\Local\Temp\cck5XDKB.s 			page 3


  76              		.syntax unified
  77              		.thumb
  78              		.thumb_func
  80              	sx_spi_write_read:
  81              	.LVL6:
  82              	.LFB12:
  38:SynaptiX_FDK/components/peripherals/spi/sx_spi.h **** 
  39:SynaptiX_FDK/components/peripherals/spi/sx_spi.h **** static inline int sx_spi_read(sx_spi_t *spi, uint8_t *data, uint32_t len){
  40:SynaptiX_FDK/components/peripherals/spi/sx_spi.h ****     if(spi->ops && spi->ops->read){
  41:SynaptiX_FDK/components/peripherals/spi/sx_spi.h ****         return spi->ops->read(spi, data, len);
  42:SynaptiX_FDK/components/peripherals/spi/sx_spi.h ****     }
  43:SynaptiX_FDK/components/peripherals/spi/sx_spi.h ****     return -1;
  44:SynaptiX_FDK/components/peripherals/spi/sx_spi.h **** }
  45:SynaptiX_FDK/components/peripherals/spi/sx_spi.h **** 
  46:SynaptiX_FDK/components/peripherals/spi/sx_spi.h **** static inline int sx_spi_write_read(sx_spi_t *spi, const uint8_t *tx_buf, uint8_t *rx_buf, uint32_t
  83              		.loc 2 46 105 is_stmt 1 view -0
  84              		.cfi_startproc
  85              		@ args = 0, pretend = 0, frame = 0
  86              		@ frame_needed = 0, uses_anonymous_args = 0
  87              		.loc 2 46 105 is_stmt 0 view .LVU15
  88 0000 10B5     		push	{r4, lr}
  89              	.LCFI1:
  90              		.cfi_def_cfa_offset 8
  91              		.cfi_offset 4, -8
  92              		.cfi_offset 14, -4
  47:SynaptiX_FDK/components/peripherals/spi/sx_spi.h ****     if(spi->ops && spi->ops->write_read){
  93              		.loc 2 47 5 is_stmt 1 view .LVU16
  94              		.loc 2 47 11 is_stmt 0 view .LVU17
  95 0002 0468     		ldr	r4, [r0]
  96              		.loc 2 47 7 view .LVU18
  97 0004 1CB1     		cbz	r4, .L8
  98              		.loc 2 47 28 discriminator 1 view .LVU19
  99 0006 A468     		ldr	r4, [r4, #8]
 100              		.loc 2 47 17 discriminator 1 view .LVU20
 101 0008 24B1     		cbz	r4, .L9
  48:SynaptiX_FDK/components/peripherals/spi/sx_spi.h ****         return spi->ops->write_read(spi, tx_buf, rx_buf, len);
 102              		.loc 2 48 9 is_stmt 1 view .LVU21
 103              		.loc 2 48 16 is_stmt 0 view .LVU22
 104 000a A047     		blx	r4
 105              	.LVL7:
 106              	.L6:
  49:SynaptiX_FDK/components/peripherals/spi/sx_spi.h ****     }
  50:SynaptiX_FDK/components/peripherals/spi/sx_spi.h ****     return -1;
  51:SynaptiX_FDK/components/peripherals/spi/sx_spi.h **** }
 107              		.loc 2 51 1 view .LVU23
 108 000c 10BD     		pop	{r4, pc}
 109              	.LVL8:
 110              	.L8:
  50:SynaptiX_FDK/components/peripherals/spi/sx_spi.h **** }
 111              		.loc 2 50 12 view .LVU24
 112 000e 4FF0FF30 		mov	r0, #-1
 113              	.LVL9:
  50:SynaptiX_FDK/components/peripherals/spi/sx_spi.h **** }
 114              		.loc 2 50 12 view .LVU25
 115 0012 FBE7     		b	.L6
 116              	.LVL10:
 117              	.L9:
ARM GAS  C:\Users\DELL\AppData\Local\Temp\cck5XDKB.s 			page 4


  50:SynaptiX_FDK/components/peripherals/spi/sx_spi.h **** }
 118              		.loc 2 50 12 view .LVU26
 119 0014 4FF0FF30 		mov	r0, #-1
 120              	.LVL11:
  50:SynaptiX_FDK/components/peripherals/spi/sx_spi.h **** }
 121              		.loc 2 50 12 view .LVU27
 122 0018 F8E7     		b	.L6
 123              		.cfi_endproc
 124              	.LFE12:
 126              		.section	.text.w25q_write_enable,"ax",%progbits
 127              		.align	1
 128              		.syntax unified
 129              		.thumb
 130              		.thumb_func
 132              	w25q_write_enable:
 133              	.LFB18:
   1:SynaptiX_FDK/components/modules/external_flash/sx_W25Q128.c **** #include "sx_external_flash.h"
   2:SynaptiX_FDK/components/modules/external_flash/sx_W25Q128.c **** #include "sx_W25Q128.h"
   3:SynaptiX_FDK/components/modules/external_flash/sx_W25Q128.c **** #include "sx_spi.h"
   4:SynaptiX_FDK/components/modules/external_flash/sx_W25Q128.c **** #include "logger.h"
   5:SynaptiX_FDK/components/modules/external_flash/sx_W25Q128.c **** #include "string.h"
   6:SynaptiX_FDK/components/modules/external_flash/sx_W25Q128.c **** #include "sx_delay.h"
   7:SynaptiX_FDK/components/modules/external_flash/sx_W25Q128.c **** 
   8:SynaptiX_FDK/components/modules/external_flash/sx_W25Q128.c **** #define W25Q128_MAX_READ_LEN  256U
   9:SynaptiX_FDK/components/modules/external_flash/sx_W25Q128.c **** 
  10:SynaptiX_FDK/components/modules/external_flash/sx_W25Q128.c **** static const char *TAG = "W25Q128";
  11:SynaptiX_FDK/components/modules/external_flash/sx_W25Q128.c **** static sx_W25Q128_t *s_dev = NULL;
  12:SynaptiX_FDK/components/modules/external_flash/sx_W25Q128.c **** 
  13:SynaptiX_FDK/components/modules/external_flash/sx_W25Q128.c **** sx_ext_flash_ops_t sx_W25Q128_ops = {
  14:SynaptiX_FDK/components/modules/external_flash/sx_W25Q128.c ****     .read         = sx_W25Q128_read,
  15:SynaptiX_FDK/components/modules/external_flash/sx_W25Q128.c ****     .write        = sx_W25Q128_write,
  16:SynaptiX_FDK/components/modules/external_flash/sx_W25Q128.c ****     .erase_sector = sx_W25Q128_erase_sector,
  17:SynaptiX_FDK/components/modules/external_flash/sx_W25Q128.c ****     .is_busy      = sx_W25Q128_is_busy,
  18:SynaptiX_FDK/components/modules/external_flash/sx_W25Q128.c **** };
  19:SynaptiX_FDK/components/modules/external_flash/sx_W25Q128.c **** 
  20:SynaptiX_FDK/components/modules/external_flash/sx_W25Q128.c **** sx_ext_flash_info_t sx_W25Q128_info = {
  21:SynaptiX_FDK/components/modules/external_flash/sx_W25Q128.c ****     .page_size   = W25Q128_PAGE_SIZE,
  22:SynaptiX_FDK/components/modules/external_flash/sx_W25Q128.c ****     .sector_size = W25Q128_SECTOR_SIZE,
  23:SynaptiX_FDK/components/modules/external_flash/sx_W25Q128.c ****     .block_size  = W25Q128_BLOCK_SIZE,
  24:SynaptiX_FDK/components/modules/external_flash/sx_W25Q128.c ****     .total_bytes = W25Q128_TOTAL_BYTES,
  25:SynaptiX_FDK/components/modules/external_flash/sx_W25Q128.c **** };
  26:SynaptiX_FDK/components/modules/external_flash/sx_W25Q128.c **** 
  27:SynaptiX_FDK/components/modules/external_flash/sx_W25Q128.c **** static bool w25q_write_enable(void)
  28:SynaptiX_FDK/components/modules/external_flash/sx_W25Q128.c **** {
 134              		.loc 1 28 1 is_stmt 1 view -0
 135              		.cfi_startproc
 136              		@ args = 0, pretend = 0, frame = 8
 137              		@ frame_needed = 0, uses_anonymous_args = 0
 138 0000 00B5     		push	{lr}
 139              	.LCFI2:
 140              		.cfi_def_cfa_offset 4
 141              		.cfi_offset 14, -4
 142 0002 83B0     		sub	sp, sp, #12
 143              	.LCFI3:
 144              		.cfi_def_cfa_offset 16
  29:SynaptiX_FDK/components/modules/external_flash/sx_W25Q128.c ****     uint8_t cmd = W25Q128_CMD_WRITE_ENABLE;
 145              		.loc 1 29 5 view .LVU29
ARM GAS  C:\Users\DELL\AppData\Local\Temp\cck5XDKB.s 			page 5


 146              		.loc 1 29 13 is_stmt 0 view .LVU30
 147 0004 0623     		movs	r3, #6
 148 0006 8DF80730 		strb	r3, [sp, #7]
  30:SynaptiX_FDK/components/modules/external_flash/sx_W25Q128.c ****     return (sx_spi_write(s_dev->spi, &cmd, 1) == 0);
 149              		.loc 1 30 5 is_stmt 1 view .LVU31
 150              		.loc 1 30 31 is_stmt 0 view .LVU32
 151 000a 064B     		ldr	r3, .L13
 152 000c 1B68     		ldr	r3, [r3]
 153              		.loc 1 30 13 view .LVU33
 154 000e 0122     		movs	r2, #1
 155 0010 0DF10701 		add	r1, sp, #7
 156 0014 1868     		ldr	r0, [r3]
 157 0016 FFF7FEFF 		bl	sx_spi_write
 158              	.LVL12:
  31:SynaptiX_FDK/components/modules/external_flash/sx_W25Q128.c **** }
 159              		.loc 1 31 1 view .LVU34
 160 001a B0FA80F0 		clz	r0, r0
 161 001e 4009     		lsrs	r0, r0, #5
 162 0020 03B0     		add	sp, sp, #12
 163              	.LCFI4:
 164              		.cfi_def_cfa_offset 4
 165              		@ sp needed
 166 0022 00BD     		pop	{pc}
 167              	.L14:
 168              		.align	2
 169              	.L13:
 170 0024 00000000 		.word	s_dev
 171              		.cfi_endproc
 172              	.LFE18:
 174              		.section	.text.sx_W25Q128_is_busy,"ax",%progbits
 175              		.align	1
 176              		.global	sx_W25Q128_is_busy
 177              		.syntax unified
 178              		.thumb
 179              		.thumb_func
 181              	sx_W25Q128_is_busy:
 182              	.LFB22:
  32:SynaptiX_FDK/components/modules/external_flash/sx_W25Q128.c **** 
  33:SynaptiX_FDK/components/modules/external_flash/sx_W25Q128.c **** static void w25q_wait_busy(void)
  34:SynaptiX_FDK/components/modules/external_flash/sx_W25Q128.c **** {
  35:SynaptiX_FDK/components/modules/external_flash/sx_W25Q128.c ****     uint8_t tx[2] = { W25Q128_CMD_READ_STATUS1, 0xFF };
  36:SynaptiX_FDK/components/modules/external_flash/sx_W25Q128.c ****     uint8_t rx[2];
  37:SynaptiX_FDK/components/modules/external_flash/sx_W25Q128.c ****     uint32_t timeout = 500;
  38:SynaptiX_FDK/components/modules/external_flash/sx_W25Q128.c ****     do {
  39:SynaptiX_FDK/components/modules/external_flash/sx_W25Q128.c ****         sx_delay_ms(5);
  40:SynaptiX_FDK/components/modules/external_flash/sx_W25Q128.c ****         sx_spi_write_read(s_dev->spi, tx, rx, 2);
  41:SynaptiX_FDK/components/modules/external_flash/sx_W25Q128.c ****         if (--timeout == 0) {
  42:SynaptiX_FDK/components/modules/external_flash/sx_W25Q128.c ****             log_error("W25Q128", "wait_busy TIMEOUT STATUS=0x%02X", rx[1]);
  43:SynaptiX_FDK/components/modules/external_flash/sx_W25Q128.c ****             return;
  44:SynaptiX_FDK/components/modules/external_flash/sx_W25Q128.c ****         }
  45:SynaptiX_FDK/components/modules/external_flash/sx_W25Q128.c ****     } while (rx[1] & W25Q128_STATUS1_BUSY);
  46:SynaptiX_FDK/components/modules/external_flash/sx_W25Q128.c **** 
  47:SynaptiX_FDK/components/modules/external_flash/sx_W25Q128.c ****     // Read it twice :)) - DONT EDIT IT!!!!!!
  48:SynaptiX_FDK/components/modules/external_flash/sx_W25Q128.c ****     sx_delay_ms(1);
  49:SynaptiX_FDK/components/modules/external_flash/sx_W25Q128.c ****     sx_spi_write_read(s_dev->spi, tx, rx, 2);
  50:SynaptiX_FDK/components/modules/external_flash/sx_W25Q128.c ****     if (rx[1] & W25Q128_STATUS1_BUSY) {
  51:SynaptiX_FDK/components/modules/external_flash/sx_W25Q128.c ****         log_error("W25Q128", "still BUSY after confirm, STATUS=0x%02X", rx[1]);
ARM GAS  C:\Users\DELL\AppData\Local\Temp\cck5XDKB.s 			page 6


  52:SynaptiX_FDK/components/modules/external_flash/sx_W25Q128.c ****         timeout = 500;
  53:SynaptiX_FDK/components/modules/external_flash/sx_W25Q128.c ****         do {
  54:SynaptiX_FDK/components/modules/external_flash/sx_W25Q128.c ****             sx_delay_ms(5);
  55:SynaptiX_FDK/components/modules/external_flash/sx_W25Q128.c ****             sx_spi_write_read(s_dev->spi, tx, rx, 2);
  56:SynaptiX_FDK/components/modules/external_flash/sx_W25Q128.c ****             if (--timeout == 0) {
  57:SynaptiX_FDK/components/modules/external_flash/sx_W25Q128.c ****                 log_error("W25Q128", "wait_busy TIMEOUT2 STATUS=0x%02X", rx[1]);
  58:SynaptiX_FDK/components/modules/external_flash/sx_W25Q128.c ****                 return;
  59:SynaptiX_FDK/components/modules/external_flash/sx_W25Q128.c ****             }
  60:SynaptiX_FDK/components/modules/external_flash/sx_W25Q128.c ****         } while (rx[1] & W25Q128_STATUS1_BUSY);
  61:SynaptiX_FDK/components/modules/external_flash/sx_W25Q128.c ****     }
  62:SynaptiX_FDK/components/modules/external_flash/sx_W25Q128.c **** }
  63:SynaptiX_FDK/components/modules/external_flash/sx_W25Q128.c **** 
  64:SynaptiX_FDK/components/modules/external_flash/sx_W25Q128.c **** static void w25q_wait_busy_long(uint32_t timeout_ms)
  65:SynaptiX_FDK/components/modules/external_flash/sx_W25Q128.c **** {
  66:SynaptiX_FDK/components/modules/external_flash/sx_W25Q128.c ****     uint8_t tx[2] = { W25Q128_CMD_READ_STATUS1, 0xFF };
  67:SynaptiX_FDK/components/modules/external_flash/sx_W25Q128.c ****     uint8_t rx[2];
  68:SynaptiX_FDK/components/modules/external_flash/sx_W25Q128.c ****     uint32_t elapsed = 0;
  69:SynaptiX_FDK/components/modules/external_flash/sx_W25Q128.c **** 
  70:SynaptiX_FDK/components/modules/external_flash/sx_W25Q128.c ****     do {
  71:SynaptiX_FDK/components/modules/external_flash/sx_W25Q128.c ****         sx_delay_ms(100);           
  72:SynaptiX_FDK/components/modules/external_flash/sx_W25Q128.c ****         elapsed += 100;
  73:SynaptiX_FDK/components/modules/external_flash/sx_W25Q128.c ****         sx_spi_write_read(s_dev->spi, tx, rx, 2);
  74:SynaptiX_FDK/components/modules/external_flash/sx_W25Q128.c ****         if (elapsed >= timeout_ms) {
  75:SynaptiX_FDK/components/modules/external_flash/sx_W25Q128.c ****             log_error("W25Q128", "wait_busy_long TIMEOUT STATUS=0x%02X", rx[1]);
  76:SynaptiX_FDK/components/modules/external_flash/sx_W25Q128.c ****             return;
  77:SynaptiX_FDK/components/modules/external_flash/sx_W25Q128.c ****         }
  78:SynaptiX_FDK/components/modules/external_flash/sx_W25Q128.c ****     } while (rx[1] & W25Q128_STATUS1_BUSY);
  79:SynaptiX_FDK/components/modules/external_flash/sx_W25Q128.c **** 
  80:SynaptiX_FDK/components/modules/external_flash/sx_W25Q128.c ****     log_info("W25Q128", "wait_busy_long done in %lu ms", (unsigned long)elapsed);
  81:SynaptiX_FDK/components/modules/external_flash/sx_W25Q128.c **** }
  82:SynaptiX_FDK/components/modules/external_flash/sx_W25Q128.c **** 
  83:SynaptiX_FDK/components/modules/external_flash/sx_W25Q128.c **** /*API*/
  84:SynaptiX_FDK/components/modules/external_flash/sx_W25Q128.c **** 
  85:SynaptiX_FDK/components/modules/external_flash/sx_W25Q128.c **** bool sx_W25Q128_init(sx_W25Q128_t *dev, sx_spi_t *spi)
  86:SynaptiX_FDK/components/modules/external_flash/sx_W25Q128.c **** {
  87:SynaptiX_FDK/components/modules/external_flash/sx_W25Q128.c ****     dev->spi         = spi;
  88:SynaptiX_FDK/components/modules/external_flash/sx_W25Q128.c ****     dev->initialized = false;
  89:SynaptiX_FDK/components/modules/external_flash/sx_W25Q128.c ****     s_dev            = dev;
  90:SynaptiX_FDK/components/modules/external_flash/sx_W25Q128.c **** 
  91:SynaptiX_FDK/components/modules/external_flash/sx_W25Q128.c ****     /* No hardware power-cutoff transistor on this board revision — the
  92:SynaptiX_FDK/components/modules/external_flash/sx_W25Q128.c ****      * chip's 3.3V is wired directly, no GPIO to drive here. Power
  93:SynaptiX_FDK/components/modules/external_flash/sx_W25Q128.c ****      * management is done purely at the SPI level via the chip's own Deep
  94:SynaptiX_FDK/components/modules/external_flash/sx_W25Q128.c ****      * Power-Down mode, see sx_W25Q128_sleep_on()/sx_W25Q128_sleep_off()
  95:SynaptiX_FDK/components/modules/external_flash/sx_W25Q128.c ****      * below, which works the same regardless of board wiring. */
  96:SynaptiX_FDK/components/modules/external_flash/sx_W25Q128.c **** 
  97:SynaptiX_FDK/components/modules/external_flash/sx_W25Q128.c ****     /* Wake from power-down — 1 byte write, 1 lan CS */
  98:SynaptiX_FDK/components/modules/external_flash/sx_W25Q128.c ****     uint8_t wake = W25Q128_CMD_RELEASE_POWER_DOWN;
  99:SynaptiX_FDK/components/modules/external_flash/sx_W25Q128.c ****     sx_spi_write(dev->spi, &wake, 1);
 100:SynaptiX_FDK/components/modules/external_flash/sx_W25Q128.c ****     sx_delay_ms(1);
 101:SynaptiX_FDK/components/modules/external_flash/sx_W25Q128.c ****     w25q_wait_busy();
 102:SynaptiX_FDK/components/modules/external_flash/sx_W25Q128.c **** 
 103:SynaptiX_FDK/components/modules/external_flash/sx_W25Q128.c ****     uint8_t tx[4] = { W25Q128_CMD_JEDEC_ID, 0x00, 0x00, 0x00 };
 104:SynaptiX_FDK/components/modules/external_flash/sx_W25Q128.c ****     uint8_t rx[4] = { 0 };
 105:SynaptiX_FDK/components/modules/external_flash/sx_W25Q128.c ****     sx_spi_write_read(dev->spi, tx, rx, 4);
 106:SynaptiX_FDK/components/modules/external_flash/sx_W25Q128.c **** 
 107:SynaptiX_FDK/components/modules/external_flash/sx_W25Q128.c ****     if (rx[1] != 0xEF || rx[2] != 0x40 || rx[3] != 0x18) {
 108:SynaptiX_FDK/components/modules/external_flash/sx_W25Q128.c ****         log_error(TAG, "JEDEC ID mismatch: %02X %02X %02X", rx[1], rx[2], rx[3]);
ARM GAS  C:\Users\DELL\AppData\Local\Temp\cck5XDKB.s 			page 7


 109:SynaptiX_FDK/components/modules/external_flash/sx_W25Q128.c ****         return false;
 110:SynaptiX_FDK/components/modules/external_flash/sx_W25Q128.c ****     }
 111:SynaptiX_FDK/components/modules/external_flash/sx_W25Q128.c **** 
 112:SynaptiX_FDK/components/modules/external_flash/sx_W25Q128.c ****     dev->initialized = true;
 113:SynaptiX_FDK/components/modules/external_flash/sx_W25Q128.c ****     log_info(TAG, "W25Q128 OK (16MB)");
 114:SynaptiX_FDK/components/modules/external_flash/sx_W25Q128.c ****     return true;
 115:SynaptiX_FDK/components/modules/external_flash/sx_W25Q128.c **** }
 116:SynaptiX_FDK/components/modules/external_flash/sx_W25Q128.c **** 
 117:SynaptiX_FDK/components/modules/external_flash/sx_W25Q128.c **** bool sx_W25Q128_is_busy(void)
 118:SynaptiX_FDK/components/modules/external_flash/sx_W25Q128.c **** {
 183              		.loc 1 118 1 is_stmt 1 view -0
 184              		.cfi_startproc
 185              		@ args = 0, pretend = 0, frame = 8
 186              		@ frame_needed = 0, uses_anonymous_args = 0
 187 0000 10B5     		push	{r4, lr}
 188              	.LCFI5:
 189              		.cfi_def_cfa_offset 8
 190              		.cfi_offset 4, -8
 191              		.cfi_offset 14, -4
 192 0002 82B0     		sub	sp, sp, #8
 193              	.LCFI6:
 194              		.cfi_def_cfa_offset 16
 119:SynaptiX_FDK/components/modules/external_flash/sx_W25Q128.c ****     if (!s_dev || !s_dev->initialized) return false;
 195              		.loc 1 119 5 view .LVU36
 196              		.loc 1 119 9 is_stmt 0 view .LVU37
 197 0004 0C4B     		ldr	r3, .L20
 198 0006 1C68     		ldr	r4, [r3]
 199              		.loc 1 119 8 view .LVU38
 200 0008 A4B1     		cbz	r4, .L17
 201              		.loc 1 119 25 discriminator 2 view .LVU39
 202 000a 2079     		ldrb	r0, [r4, #4]	@ zero_extendqisi2
 203              		.loc 1 119 16 discriminator 2 view .LVU40
 204 000c 08B9     		cbnz	r0, .L19
 205              	.L16:
 120:SynaptiX_FDK/components/modules/external_flash/sx_W25Q128.c ****     uint8_t tx[2] = { W25Q128_CMD_READ_STATUS1, 0x00 };
 121:SynaptiX_FDK/components/modules/external_flash/sx_W25Q128.c ****     uint8_t rx[2] = { 0 };
 122:SynaptiX_FDK/components/modules/external_flash/sx_W25Q128.c ****     sx_spi_write_read(s_dev->spi, tx, rx, 2);
 123:SynaptiX_FDK/components/modules/external_flash/sx_W25Q128.c ****     return (rx[1] & W25Q128_STATUS1_BUSY) != 0;
 124:SynaptiX_FDK/components/modules/external_flash/sx_W25Q128.c **** }
 206              		.loc 1 124 1 view .LVU41
 207 000e 02B0     		add	sp, sp, #8
 208              	.LCFI7:
 209              		.cfi_remember_state
 210              		.cfi_def_cfa_offset 8
 211              		@ sp needed
 212 0010 10BD     		pop	{r4, pc}
 213              	.L19:
 214              	.LCFI8:
 215              		.cfi_restore_state
 120:SynaptiX_FDK/components/modules/external_flash/sx_W25Q128.c ****     uint8_t tx[2] = { W25Q128_CMD_READ_STATUS1, 0x00 };
 216              		.loc 1 120 5 is_stmt 1 view .LVU42
 120:SynaptiX_FDK/components/modules/external_flash/sx_W25Q128.c ****     uint8_t tx[2] = { W25Q128_CMD_READ_STATUS1, 0x00 };
 217              		.loc 1 120 13 is_stmt 0 view .LVU43
 218 0012 0523     		movs	r3, #5
 219 0014 ADF80430 		strh	r3, [sp, #4]	@ movhi
 121:SynaptiX_FDK/components/modules/external_flash/sx_W25Q128.c ****     sx_spi_write_read(s_dev->spi, tx, rx, 2);
 220              		.loc 1 121 5 is_stmt 1 view .LVU44
ARM GAS  C:\Users\DELL\AppData\Local\Temp\cck5XDKB.s 			page 8


 121:SynaptiX_FDK/components/modules/external_flash/sx_W25Q128.c ****     sx_spi_write_read(s_dev->spi, tx, rx, 2);
 221              		.loc 1 121 13 is_stmt 0 view .LVU45
 222 0018 0023     		movs	r3, #0
 223 001a ADF80030 		strh	r3, [sp]	@ movhi
 122:SynaptiX_FDK/components/modules/external_flash/sx_W25Q128.c ****     return (rx[1] & W25Q128_STATUS1_BUSY) != 0;
 224              		.loc 1 122 5 is_stmt 1 view .LVU46
 225 001e 0223     		movs	r3, #2
 226 0020 6A46     		mov	r2, sp
 227 0022 01A9     		add	r1, sp, #4
 228 0024 2068     		ldr	r0, [r4]
 229 0026 FFF7FEFF 		bl	sx_spi_write_read
 230              	.LVL13:
 123:SynaptiX_FDK/components/modules/external_flash/sx_W25Q128.c **** }
 231              		.loc 1 123 5 view .LVU47
 123:SynaptiX_FDK/components/modules/external_flash/sx_W25Q128.c **** }
 232              		.loc 1 123 15 is_stmt 0 view .LVU48
 233 002a 9DF80100 		ldrb	r0, [sp, #1]	@ zero_extendqisi2
 123:SynaptiX_FDK/components/modules/external_flash/sx_W25Q128.c **** }
 234              		.loc 1 123 43 view .LVU49
 235 002e 00F00100 		and	r0, r0, #1
 236 0032 ECE7     		b	.L16
 237              	.L17:
 119:SynaptiX_FDK/components/modules/external_flash/sx_W25Q128.c ****     uint8_t tx[2] = { W25Q128_CMD_READ_STATUS1, 0x00 };
 238              		.loc 1 119 47 discriminator 3 view .LVU50
 239 0034 0020     		movs	r0, #0
 240 0036 EAE7     		b	.L16
 241              	.L21:
 242              		.align	2
 243              	.L20:
 244 0038 00000000 		.word	s_dev
 245              		.cfi_endproc
 246              	.LFE22:
 248              		.section	.rodata.w25q_wait_busy.str1.4,"aMS",%progbits,1
 249              		.align	2
 250              	.LC0:
 251 0000 77616974 		.ascii	"wait_busy TIMEOUT STATUS=0x%02X\000"
 251      5F627573 
 251      79205449 
 251      4D454F55 
 251      54205354 
 252              		.align	2
 253              	.LC1:
 254 0020 57323551 		.ascii	"W25Q128\000"
 254      31323800 
 255              		.align	2
 256              	.LC2:
 257 0028 7374696C 		.ascii	"still BUSY after confirm, STATUS=0x%02X\000"
 257      6C204255 
 257      53592061 
 257      66746572 
 257      20636F6E 
 258              		.align	2
 259              	.LC3:
 260 0050 77616974 		.ascii	"wait_busy TIMEOUT2 STATUS=0x%02X\000"
 260      5F627573 
 260      79205449 
 260      4D454F55 
ARM GAS  C:\Users\DELL\AppData\Local\Temp\cck5XDKB.s 			page 9


 260      54322053 
 261              		.section	.text.w25q_wait_busy,"ax",%progbits
 262              		.align	1
 263              		.syntax unified
 264              		.thumb
 265              		.thumb_func
 267              	w25q_wait_busy:
 268              	.LFB19:
  34:SynaptiX_FDK/components/modules/external_flash/sx_W25Q128.c ****     uint8_t tx[2] = { W25Q128_CMD_READ_STATUS1, 0xFF };
 269              		.loc 1 34 1 is_stmt 1 view -0
 270              		.cfi_startproc
 271              		@ args = 0, pretend = 0, frame = 8
 272              		@ frame_needed = 0, uses_anonymous_args = 0
 273 0000 10B5     		push	{r4, lr}
 274              	.LCFI9:
 275              		.cfi_def_cfa_offset 8
 276              		.cfi_offset 4, -8
 277              		.cfi_offset 14, -4
 278 0002 82B0     		sub	sp, sp, #8
 279              	.LCFI10:
 280              		.cfi_def_cfa_offset 16
  35:SynaptiX_FDK/components/modules/external_flash/sx_W25Q128.c ****     uint8_t rx[2];
 281              		.loc 1 35 5 view .LVU52
  35:SynaptiX_FDK/components/modules/external_flash/sx_W25Q128.c ****     uint8_t rx[2];
 282              		.loc 1 35 13 is_stmt 0 view .LVU53
 283 0004 4FF60573 		movw	r3, #65285
 284 0008 ADF80430 		strh	r3, [sp, #4]	@ movhi
  36:SynaptiX_FDK/components/modules/external_flash/sx_W25Q128.c ****     uint32_t timeout = 500;
 285              		.loc 1 36 5 is_stmt 1 view .LVU54
  37:SynaptiX_FDK/components/modules/external_flash/sx_W25Q128.c ****     do {
 286              		.loc 1 37 5 view .LVU55
 287              	.LVL14:
  37:SynaptiX_FDK/components/modules/external_flash/sx_W25Q128.c ****     do {
 288              		.loc 1 37 14 is_stmt 0 view .LVU56
 289 000c 4FF4FA74 		mov	r4, #500
 290              	.LVL15:
 291              	.L25:
  38:SynaptiX_FDK/components/modules/external_flash/sx_W25Q128.c ****         sx_delay_ms(5);
 292              		.loc 1 38 5 is_stmt 1 view .LVU57
  39:SynaptiX_FDK/components/modules/external_flash/sx_W25Q128.c ****         sx_spi_write_read(s_dev->spi, tx, rx, 2);
 293              		.loc 1 39 9 view .LVU58
 294 0010 0520     		movs	r0, #5
 295 0012 FFF7FEFF 		bl	sx_delay_ms
 296              	.LVL16:
  40:SynaptiX_FDK/components/modules/external_flash/sx_W25Q128.c ****         if (--timeout == 0) {
 297              		.loc 1 40 9 view .LVU59
  40:SynaptiX_FDK/components/modules/external_flash/sx_W25Q128.c ****         if (--timeout == 0) {
 298              		.loc 1 40 32 is_stmt 0 view .LVU60
 299 0016 254B     		ldr	r3, .L34
 300 0018 1868     		ldr	r0, [r3]
  40:SynaptiX_FDK/components/modules/external_flash/sx_W25Q128.c ****         if (--timeout == 0) {
 301              		.loc 1 40 9 view .LVU61
 302 001a 0223     		movs	r3, #2
 303 001c 6A46     		mov	r2, sp
 304 001e 01A9     		add	r1, sp, #4
 305 0020 0068     		ldr	r0, [r0]
 306 0022 FFF7FEFF 		bl	sx_spi_write_read
ARM GAS  C:\Users\DELL\AppData\Local\Temp\cck5XDKB.s 			page 10


 307              	.LVL17:
  41:SynaptiX_FDK/components/modules/external_flash/sx_W25Q128.c ****             log_error("W25Q128", "wait_busy TIMEOUT STATUS=0x%02X", rx[1]);
 308              		.loc 1 41 9 is_stmt 1 view .LVU62
  41:SynaptiX_FDK/components/modules/external_flash/sx_W25Q128.c ****             log_error("W25Q128", "wait_busy TIMEOUT STATUS=0x%02X", rx[1]);
 309              		.loc 1 41 12 is_stmt 0 view .LVU63
 310 0026 013C     		subs	r4, r4, #1
 311              	.LVL18:
  41:SynaptiX_FDK/components/modules/external_flash/sx_W25Q128.c ****             log_error("W25Q128", "wait_busy TIMEOUT STATUS=0x%02X", rx[1]);
 312              		.loc 1 41 12 view .LVU64
 313 0028 16D0     		beq	.L31
  45:SynaptiX_FDK/components/modules/external_flash/sx_W25Q128.c **** 
 314              		.loc 1 45 14 is_stmt 1 view .LVU65
  45:SynaptiX_FDK/components/modules/external_flash/sx_W25Q128.c **** 
 315              		.loc 1 45 16 is_stmt 0 view .LVU66
 316 002a 9DF80130 		ldrb	r3, [sp, #1]	@ zero_extendqisi2
  45:SynaptiX_FDK/components/modules/external_flash/sx_W25Q128.c **** 
 317              		.loc 1 45 14 view .LVU67
 318 002e 13F0010F 		tst	r3, #1
 319 0032 EDD1     		bne	.L25
  48:SynaptiX_FDK/components/modules/external_flash/sx_W25Q128.c ****     sx_spi_write_read(s_dev->spi, tx, rx, 2);
 320              		.loc 1 48 5 is_stmt 1 view .LVU68
 321 0034 0120     		movs	r0, #1
 322 0036 FFF7FEFF 		bl	sx_delay_ms
 323              	.LVL19:
  49:SynaptiX_FDK/components/modules/external_flash/sx_W25Q128.c ****     if (rx[1] & W25Q128_STATUS1_BUSY) {
 324              		.loc 1 49 5 view .LVU69
  49:SynaptiX_FDK/components/modules/external_flash/sx_W25Q128.c ****     if (rx[1] & W25Q128_STATUS1_BUSY) {
 325              		.loc 1 49 28 is_stmt 0 view .LVU70
 326 003a 1C4B     		ldr	r3, .L34
 327 003c 1868     		ldr	r0, [r3]
  49:SynaptiX_FDK/components/modules/external_flash/sx_W25Q128.c ****     if (rx[1] & W25Q128_STATUS1_BUSY) {
 328              		.loc 1 49 5 view .LVU71
 329 003e 0223     		movs	r3, #2
 330 0040 6A46     		mov	r2, sp
 331 0042 01A9     		add	r1, sp, #4
 332 0044 0068     		ldr	r0, [r0]
 333 0046 FFF7FEFF 		bl	sx_spi_write_read
 334              	.LVL20:
  50:SynaptiX_FDK/components/modules/external_flash/sx_W25Q128.c ****         log_error("W25Q128", "still BUSY after confirm, STATUS=0x%02X", rx[1]);
 335              		.loc 1 50 5 is_stmt 1 view .LVU72
  50:SynaptiX_FDK/components/modules/external_flash/sx_W25Q128.c ****         log_error("W25Q128", "still BUSY after confirm, STATUS=0x%02X", rx[1]);
 336              		.loc 1 50 11 is_stmt 0 view .LVU73
 337 004a 9DF80130 		ldrb	r3, [sp, #1]	@ zero_extendqisi2
  50:SynaptiX_FDK/components/modules/external_flash/sx_W25Q128.c ****         log_error("W25Q128", "still BUSY after confirm, STATUS=0x%02X", rx[1]);
 338              		.loc 1 50 8 view .LVU74
 339 004e 13F0010F 		tst	r3, #1
 340 0052 09D1     		bne	.L32
 341              	.L22:
  62:SynaptiX_FDK/components/modules/external_flash/sx_W25Q128.c **** 
 342              		.loc 1 62 1 view .LVU75
 343 0054 02B0     		add	sp, sp, #8
 344              	.LCFI11:
 345              		.cfi_remember_state
 346              		.cfi_def_cfa_offset 8
 347              		@ sp needed
 348 0056 10BD     		pop	{r4, pc}
 349              	.LVL21:
ARM GAS  C:\Users\DELL\AppData\Local\Temp\cck5XDKB.s 			page 11


 350              	.L31:
 351              	.LCFI12:
 352              		.cfi_restore_state
  42:SynaptiX_FDK/components/modules/external_flash/sx_W25Q128.c ****             return;
 353              		.loc 1 42 13 is_stmt 1 view .LVU76
 354 0058 9DF80130 		ldrb	r3, [sp, #1]	@ zero_extendqisi2
 355 005c 144A     		ldr	r2, .L34+4
 356 005e 1549     		ldr	r1, .L34+8
 357 0060 0120     		movs	r0, #1
 358 0062 FFF7FEFF 		bl	log_func
 359              	.LVL22:
  43:SynaptiX_FDK/components/modules/external_flash/sx_W25Q128.c ****         }
 360              		.loc 1 43 13 view .LVU77
 361 0066 F5E7     		b	.L22
 362              	.L32:
  51:SynaptiX_FDK/components/modules/external_flash/sx_W25Q128.c ****         timeout = 500;
 363              		.loc 1 51 9 view .LVU78
 364 0068 134A     		ldr	r2, .L34+12
 365 006a 1249     		ldr	r1, .L34+8
 366 006c 0120     		movs	r0, #1
 367 006e FFF7FEFF 		bl	log_func
 368              	.LVL23:
  52:SynaptiX_FDK/components/modules/external_flash/sx_W25Q128.c ****         do {
 369              		.loc 1 52 9 view .LVU79
  52:SynaptiX_FDK/components/modules/external_flash/sx_W25Q128.c ****         do {
 370              		.loc 1 52 17 is_stmt 0 view .LVU80
 371 0072 4FF4FA74 		mov	r4, #500
 372              	.LVL24:
 373              	.L28:
  53:SynaptiX_FDK/components/modules/external_flash/sx_W25Q128.c ****             sx_delay_ms(5);
 374              		.loc 1 53 9 is_stmt 1 view .LVU81
  54:SynaptiX_FDK/components/modules/external_flash/sx_W25Q128.c ****             sx_spi_write_read(s_dev->spi, tx, rx, 2);
 375              		.loc 1 54 13 view .LVU82
 376 0076 0520     		movs	r0, #5
 377 0078 FFF7FEFF 		bl	sx_delay_ms
 378              	.LVL25:
  55:SynaptiX_FDK/components/modules/external_flash/sx_W25Q128.c ****             if (--timeout == 0) {
 379              		.loc 1 55 13 view .LVU83
  55:SynaptiX_FDK/components/modules/external_flash/sx_W25Q128.c ****             if (--timeout == 0) {
 380              		.loc 1 55 36 is_stmt 0 view .LVU84
 381 007c 0B4B     		ldr	r3, .L34
 382 007e 1868     		ldr	r0, [r3]
  55:SynaptiX_FDK/components/modules/external_flash/sx_W25Q128.c ****             if (--timeout == 0) {
 383              		.loc 1 55 13 view .LVU85
 384 0080 0223     		movs	r3, #2
 385 0082 6A46     		mov	r2, sp
 386 0084 01A9     		add	r1, sp, #4
 387 0086 0068     		ldr	r0, [r0]
 388 0088 FFF7FEFF 		bl	sx_spi_write_read
 389              	.LVL26:
  56:SynaptiX_FDK/components/modules/external_flash/sx_W25Q128.c ****                 log_error("W25Q128", "wait_busy TIMEOUT2 STATUS=0x%02X", rx[1]);
 390              		.loc 1 56 13 is_stmt 1 view .LVU86
  56:SynaptiX_FDK/components/modules/external_flash/sx_W25Q128.c ****                 log_error("W25Q128", "wait_busy TIMEOUT2 STATUS=0x%02X", rx[1]);
 391              		.loc 1 56 16 is_stmt 0 view .LVU87
 392 008c 013C     		subs	r4, r4, #1
 393              	.LVL27:
  56:SynaptiX_FDK/components/modules/external_flash/sx_W25Q128.c ****                 log_error("W25Q128", "wait_busy TIMEOUT2 STATUS=0x%02X", rx[1]);
ARM GAS  C:\Users\DELL\AppData\Local\Temp\cck5XDKB.s 			page 12


 394              		.loc 1 56 16 view .LVU88
 395 008e 05D0     		beq	.L33
  60:SynaptiX_FDK/components/modules/external_flash/sx_W25Q128.c ****     }
 396              		.loc 1 60 18 is_stmt 1 view .LVU89
  60:SynaptiX_FDK/components/modules/external_flash/sx_W25Q128.c ****     }
 397              		.loc 1 60 20 is_stmt 0 view .LVU90
 398 0090 9DF80130 		ldrb	r3, [sp, #1]	@ zero_extendqisi2
  60:SynaptiX_FDK/components/modules/external_flash/sx_W25Q128.c ****     }
 399              		.loc 1 60 18 view .LVU91
 400 0094 13F0010F 		tst	r3, #1
 401 0098 EDD1     		bne	.L28
 402 009a DBE7     		b	.L22
 403              	.L33:
  57:SynaptiX_FDK/components/modules/external_flash/sx_W25Q128.c ****                 return;
 404              		.loc 1 57 17 is_stmt 1 view .LVU92
 405 009c 9DF80130 		ldrb	r3, [sp, #1]	@ zero_extendqisi2
 406 00a0 064A     		ldr	r2, .L34+16
 407 00a2 0449     		ldr	r1, .L34+8
 408 00a4 0120     		movs	r0, #1
 409 00a6 FFF7FEFF 		bl	log_func
 410              	.LVL28:
  58:SynaptiX_FDK/components/modules/external_flash/sx_W25Q128.c ****             }
 411              		.loc 1 58 17 view .LVU93
 412 00aa D3E7     		b	.L22
 413              	.L35:
 414              		.align	2
 415              	.L34:
 416 00ac 00000000 		.word	s_dev
 417 00b0 00000000 		.word	.LC0
 418 00b4 20000000 		.word	.LC1
 419 00b8 28000000 		.word	.LC2
 420 00bc 50000000 		.word	.LC3
 421              		.cfi_endproc
 422              	.LFE19:
 424              		.section	.rodata.sx_W25Q128_erase_sector.str1.4,"aMS",%progbits,1
 425              		.align	2
 426              	.LC4:
 427 0000 53656374 		.ascii	"Sector erased at 0x%06lX\000"
 427      6F722065 
 427      72617365 
 427      64206174 
 427      20307825 
 428              		.section	.text.sx_W25Q128_erase_sector,"ax",%progbits
 429              		.align	1
 430              		.global	sx_W25Q128_erase_sector
 431              		.syntax unified
 432              		.thumb
 433              		.thumb_func
 435              	sx_W25Q128_erase_sector:
 436              	.LVL29:
 437              	.LFB25:
 125:SynaptiX_FDK/components/modules/external_flash/sx_W25Q128.c **** 
 126:SynaptiX_FDK/components/modules/external_flash/sx_W25Q128.c **** int sx_W25Q128_read(uint32_t addr, uint8_t *buf, uint32_t len)
 127:SynaptiX_FDK/components/modules/external_flash/sx_W25Q128.c **** {
 128:SynaptiX_FDK/components/modules/external_flash/sx_W25Q128.c ****     if (!s_dev || !s_dev->initialized) return -1;
 129:SynaptiX_FDK/components/modules/external_flash/sx_W25Q128.c ****     if (buf == NULL || len == 0)        return -1;
 130:SynaptiX_FDK/components/modules/external_flash/sx_W25Q128.c **** 
ARM GAS  C:\Users\DELL\AppData\Local\Temp\cck5XDKB.s 			page 13


 131:SynaptiX_FDK/components/modules/external_flash/sx_W25Q128.c ****     uint32_t offset = 0;
 132:SynaptiX_FDK/components/modules/external_flash/sx_W25Q128.c ****     while (offset < len) {
 133:SynaptiX_FDK/components/modules/external_flash/sx_W25Q128.c ****         uint32_t chunk = len - offset;
 134:SynaptiX_FDK/components/modules/external_flash/sx_W25Q128.c ****         if (chunk > W25Q128_MAX_READ_LEN) chunk = W25Q128_MAX_READ_LEN;
 135:SynaptiX_FDK/components/modules/external_flash/sx_W25Q128.c **** 
 136:SynaptiX_FDK/components/modules/external_flash/sx_W25Q128.c ****         uint8_t tx[4 + W25Q128_MAX_READ_LEN];
 137:SynaptiX_FDK/components/modules/external_flash/sx_W25Q128.c ****         uint8_t rx[4 + W25Q128_MAX_READ_LEN];
 138:SynaptiX_FDK/components/modules/external_flash/sx_W25Q128.c **** 
 139:SynaptiX_FDK/components/modules/external_flash/sx_W25Q128.c ****         uint32_t cur_addr = addr + offset;
 140:SynaptiX_FDK/components/modules/external_flash/sx_W25Q128.c ****         tx[0] = W25Q128_CMD_READ_DATA;
 141:SynaptiX_FDK/components/modules/external_flash/sx_W25Q128.c ****         tx[1] = (uint8_t)(cur_addr >> 16);
 142:SynaptiX_FDK/components/modules/external_flash/sx_W25Q128.c ****         tx[2] = (uint8_t)(cur_addr >>  8);
 143:SynaptiX_FDK/components/modules/external_flash/sx_W25Q128.c ****         tx[3] = (uint8_t)(cur_addr >>  0);
 144:SynaptiX_FDK/components/modules/external_flash/sx_W25Q128.c ****         memset(tx + 4, 0x00, chunk);
 145:SynaptiX_FDK/components/modules/external_flash/sx_W25Q128.c **** 
 146:SynaptiX_FDK/components/modules/external_flash/sx_W25Q128.c ****         if (sx_spi_write_read(s_dev->spi, tx, rx, 4 + chunk) != 0) {
 147:SynaptiX_FDK/components/modules/external_flash/sx_W25Q128.c ****             log_error(TAG, "spi_write_read failed at addr=0x%06lX chunk=%lu",
 148:SynaptiX_FDK/components/modules/external_flash/sx_W25Q128.c ****               (unsigned long)cur_addr, (unsigned long)chunk);
 149:SynaptiX_FDK/components/modules/external_flash/sx_W25Q128.c ****             return -1;
 150:SynaptiX_FDK/components/modules/external_flash/sx_W25Q128.c ****         }
 151:SynaptiX_FDK/components/modules/external_flash/sx_W25Q128.c ****         memcpy(buf + offset, rx + 4, chunk);
 152:SynaptiX_FDK/components/modules/external_flash/sx_W25Q128.c **** 
 153:SynaptiX_FDK/components/modules/external_flash/sx_W25Q128.c ****         offset += chunk;
 154:SynaptiX_FDK/components/modules/external_flash/sx_W25Q128.c ****     }
 155:SynaptiX_FDK/components/modules/external_flash/sx_W25Q128.c ****     return 0;
 156:SynaptiX_FDK/components/modules/external_flash/sx_W25Q128.c **** }
 157:SynaptiX_FDK/components/modules/external_flash/sx_W25Q128.c **** 
 158:SynaptiX_FDK/components/modules/external_flash/sx_W25Q128.c **** int sx_W25Q128_write(uint32_t addr, const uint8_t *buf, uint32_t len)
 159:SynaptiX_FDK/components/modules/external_flash/sx_W25Q128.c **** {
 160:SynaptiX_FDK/components/modules/external_flash/sx_W25Q128.c ****     if (!s_dev || !s_dev->initialized)   return -1;
 161:SynaptiX_FDK/components/modules/external_flash/sx_W25Q128.c ****     if (buf == NULL || len == 0)          return -1;
 162:SynaptiX_FDK/components/modules/external_flash/sx_W25Q128.c ****     uint32_t offset = 0;
 163:SynaptiX_FDK/components/modules/external_flash/sx_W25Q128.c ****     while (offset < len) {
 164:SynaptiX_FDK/components/modules/external_flash/sx_W25Q128.c ****         uint32_t page_offset = (addr + offset) % W25Q128_PAGE_SIZE;
 165:SynaptiX_FDK/components/modules/external_flash/sx_W25Q128.c ****         uint32_t chunk = W25Q128_PAGE_SIZE - page_offset;
 166:SynaptiX_FDK/components/modules/external_flash/sx_W25Q128.c ****         if (chunk > (len - offset)) chunk = len - offset;
 167:SynaptiX_FDK/components/modules/external_flash/sx_W25Q128.c **** 
 168:SynaptiX_FDK/components/modules/external_flash/sx_W25Q128.c ****         if (!w25q_write_enable()) {
 169:SynaptiX_FDK/components/modules/external_flash/sx_W25Q128.c ****             log_error(TAG, "write_enable FAILED");
 170:SynaptiX_FDK/components/modules/external_flash/sx_W25Q128.c ****             return -1;
 171:SynaptiX_FDK/components/modules/external_flash/sx_W25Q128.c ****         }
 172:SynaptiX_FDK/components/modules/external_flash/sx_W25Q128.c **** 
 173:SynaptiX_FDK/components/modules/external_flash/sx_W25Q128.c ****         uint8_t stx[2] = { W25Q128_CMD_READ_STATUS1, 0x00 };
 174:SynaptiX_FDK/components/modules/external_flash/sx_W25Q128.c ****         uint8_t srx[2] = { 0 };
 175:SynaptiX_FDK/components/modules/external_flash/sx_W25Q128.c ****         sx_spi_write_read(s_dev->spi, stx, srx, 2);
 176:SynaptiX_FDK/components/modules/external_flash/sx_W25Q128.c ****         log_info(TAG, "STATUS1 before write addr=0x%06lX: 0x%02X (WEL=%d)", (unsigned long)(addr + 
 177:SynaptiX_FDK/components/modules/external_flash/sx_W25Q128.c **** 
 178:SynaptiX_FDK/components/modules/external_flash/sx_W25Q128.c ****         uint8_t tx[4 + W25Q128_PAGE_SIZE];
 179:SynaptiX_FDK/components/modules/external_flash/sx_W25Q128.c ****         uint32_t cur_addr = addr + offset;
 180:SynaptiX_FDK/components/modules/external_flash/sx_W25Q128.c ****         tx[0] = W25Q128_CMD_PAGE_PROGRAM;
 181:SynaptiX_FDK/components/modules/external_flash/sx_W25Q128.c ****         tx[1] = (uint8_t)(cur_addr >> 16);
 182:SynaptiX_FDK/components/modules/external_flash/sx_W25Q128.c ****         tx[2] = (uint8_t)(cur_addr >>  8);
 183:SynaptiX_FDK/components/modules/external_flash/sx_W25Q128.c ****         tx[3] = (uint8_t)(cur_addr >>  0);
 184:SynaptiX_FDK/components/modules/external_flash/sx_W25Q128.c ****         memcpy(tx + 4, buf + offset, chunk);
 185:SynaptiX_FDK/components/modules/external_flash/sx_W25Q128.c **** 
 186:SynaptiX_FDK/components/modules/external_flash/sx_W25Q128.c ****         uint8_t stx2[2] = { W25Q128_CMD_READ_STATUS1, 0x00 };
 187:SynaptiX_FDK/components/modules/external_flash/sx_W25Q128.c ****         uint8_t srx2[2] = { 0 };
ARM GAS  C:\Users\DELL\AppData\Local\Temp\cck5XDKB.s 			page 14


 188:SynaptiX_FDK/components/modules/external_flash/sx_W25Q128.c ****         sx_spi_write_read(s_dev->spi, stx2, srx2, 2);
 189:SynaptiX_FDK/components/modules/external_flash/sx_W25Q128.c ****         log_info(TAG, "STATUS1 JUST BEFORE page_program: 0x%02X", srx2[1]);
 190:SynaptiX_FDK/components/modules/external_flash/sx_W25Q128.c **** 
 191:SynaptiX_FDK/components/modules/external_flash/sx_W25Q128.c ****         if (sx_spi_write(s_dev->spi, tx, 4 + chunk) != 0) {
 192:SynaptiX_FDK/components/modules/external_flash/sx_W25Q128.c ****             log_error(TAG, "spi_write FAILED");
 193:SynaptiX_FDK/components/modules/external_flash/sx_W25Q128.c ****             return -1;
 194:SynaptiX_FDK/components/modules/external_flash/sx_W25Q128.c ****         }
 195:SynaptiX_FDK/components/modules/external_flash/sx_W25Q128.c **** 
 196:SynaptiX_FDK/components/modules/external_flash/sx_W25Q128.c ****         w25q_wait_busy();
 197:SynaptiX_FDK/components/modules/external_flash/sx_W25Q128.c ****         offset += chunk;
 198:SynaptiX_FDK/components/modules/external_flash/sx_W25Q128.c ****     }
 199:SynaptiX_FDK/components/modules/external_flash/sx_W25Q128.c ****     return 0;
 200:SynaptiX_FDK/components/modules/external_flash/sx_W25Q128.c **** }
 201:SynaptiX_FDK/components/modules/external_flash/sx_W25Q128.c **** 
 202:SynaptiX_FDK/components/modules/external_flash/sx_W25Q128.c **** int sx_W25Q128_erase_sector(uint32_t addr)
 203:SynaptiX_FDK/components/modules/external_flash/sx_W25Q128.c **** {
 438              		.loc 1 203 1 view -0
 439              		.cfi_startproc
 440              		@ args = 0, pretend = 0, frame = 8
 441              		@ frame_needed = 0, uses_anonymous_args = 0
 442              		.loc 1 203 1 is_stmt 0 view .LVU95
 443 0000 30B5     		push	{r4, r5, lr}
 444              	.LCFI13:
 445              		.cfi_def_cfa_offset 12
 446              		.cfi_offset 4, -12
 447              		.cfi_offset 5, -8
 448              		.cfi_offset 14, -4
 449 0002 83B0     		sub	sp, sp, #12
 450              	.LCFI14:
 451              		.cfi_def_cfa_offset 24
 204:SynaptiX_FDK/components/modules/external_flash/sx_W25Q128.c ****     if (!s_dev || !s_dev->initialized) return -1;
 452              		.loc 1 204 5 is_stmt 1 view .LVU96
 453              		.loc 1 204 9 is_stmt 0 view .LVU97
 454 0004 1E4B     		ldr	r3, .L43
 455 0006 1B68     		ldr	r3, [r3]
 456              		.loc 1 204 8 view .LVU98
 457 0008 6BB3     		cbz	r3, .L38
 458              		.loc 1 204 25 discriminator 2 view .LVU99
 459 000a 1B79     		ldrb	r3, [r3, #4]	@ zero_extendqisi2
 460              		.loc 1 204 16 discriminator 2 view .LVU100
 461 000c 73B3     		cbz	r3, .L39
 205:SynaptiX_FDK/components/modules/external_flash/sx_W25Q128.c **** 
 206:SynaptiX_FDK/components/modules/external_flash/sx_W25Q128.c ****     addr &= ~(W25Q128_SECTOR_SIZE - 1U);
 462              		.loc 1 206 5 is_stmt 1 view .LVU101
 463              		.loc 1 206 10 is_stmt 0 view .LVU102
 464 000e 20F47F64 		bic	r4, r0, #4080
 465 0012 24F00F04 		bic	r4, r4, #15
 466              	.LVL30:
 207:SynaptiX_FDK/components/modules/external_flash/sx_W25Q128.c **** 
 208:SynaptiX_FDK/components/modules/external_flash/sx_W25Q128.c ****     if (!w25q_write_enable()) return -1;
 467              		.loc 1 208 5 is_stmt 1 view .LVU103
 468              		.loc 1 208 10 is_stmt 0 view .LVU104
 469 0016 FFF7FEFF 		bl	w25q_write_enable
 470              	.LVL31:
 471              		.loc 1 208 8 discriminator 1 view .LVU105
 472 001a 50B3     		cbz	r0, .L40
 209:SynaptiX_FDK/components/modules/external_flash/sx_W25Q128.c **** 
ARM GAS  C:\Users\DELL\AppData\Local\Temp\cck5XDKB.s 			page 15


 210:SynaptiX_FDK/components/modules/external_flash/sx_W25Q128.c ****     uint8_t cmd[4] = {
 473              		.loc 1 210 5 is_stmt 1 view .LVU106
 474              		.loc 1 210 13 is_stmt 0 view .LVU107
 475 001c 2023     		movs	r3, #32
 476 001e 8DF80430 		strb	r3, [sp, #4]
 211:SynaptiX_FDK/components/modules/external_flash/sx_W25Q128.c ****         W25Q128_CMD_SECTOR_ERASE_4K,
 212:SynaptiX_FDK/components/modules/external_flash/sx_W25Q128.c ****         (uint8_t)(addr >> 16),
 477              		.loc 1 212 9 view .LVU108
 478 0022 C4F30743 		ubfx	r3, r4, #16, #8
 210:SynaptiX_FDK/components/modules/external_flash/sx_W25Q128.c ****         W25Q128_CMD_SECTOR_ERASE_4K,
 479              		.loc 1 210 13 view .LVU109
 480 0026 8DF80530 		strb	r3, [sp, #5]
 213:SynaptiX_FDK/components/modules/external_flash/sx_W25Q128.c ****         (uint8_t)(addr >>  8),
 481              		.loc 1 213 24 view .LVU110
 482 002a 230A     		lsrs	r3, r4, #8
 210:SynaptiX_FDK/components/modules/external_flash/sx_W25Q128.c ****         W25Q128_CMD_SECTOR_ERASE_4K,
 483              		.loc 1 210 13 view .LVU111
 484 002c 8DF80630 		strb	r3, [sp, #6]
 214:SynaptiX_FDK/components/modules/external_flash/sx_W25Q128.c ****         (uint8_t)(addr >>  0),
 485              		.loc 1 214 9 view .LVU112
 486 0030 E3B2     		uxtb	r3, r4
 210:SynaptiX_FDK/components/modules/external_flash/sx_W25Q128.c ****         W25Q128_CMD_SECTOR_ERASE_4K,
 487              		.loc 1 210 13 view .LVU113
 488 0032 8DF80730 		strb	r3, [sp, #7]
 215:SynaptiX_FDK/components/modules/external_flash/sx_W25Q128.c ****     };
 216:SynaptiX_FDK/components/modules/external_flash/sx_W25Q128.c **** 
 217:SynaptiX_FDK/components/modules/external_flash/sx_W25Q128.c ****     if (sx_spi_write(s_dev->spi, cmd, 4) != 0) return -1;
 489              		.loc 1 217 5 is_stmt 1 view .LVU114
 490              		.loc 1 217 27 is_stmt 0 view .LVU115
 491 0036 124B     		ldr	r3, .L43
 492 0038 1B68     		ldr	r3, [r3]
 493              		.loc 1 217 9 view .LVU116
 494 003a 0422     		movs	r2, #4
 495 003c 0DEB0201 		add	r1, sp, r2
 496 0040 1868     		ldr	r0, [r3]
 497 0042 FFF7FEFF 		bl	sx_spi_write
 498              	.LVL32:
 499              		.loc 1 217 8 discriminator 1 view .LVU117
 500 0046 0546     		mov	r5, r0
 501 0048 B0B9     		cbnz	r0, .L41
 218:SynaptiX_FDK/components/modules/external_flash/sx_W25Q128.c **** 
 219:SynaptiX_FDK/components/modules/external_flash/sx_W25Q128.c ****     w25q_wait_busy();
 502              		.loc 1 219 5 is_stmt 1 view .LVU118
 503 004a FFF7FEFF 		bl	w25q_wait_busy
 504              	.LVL33:
 220:SynaptiX_FDK/components/modules/external_flash/sx_W25Q128.c ****     sx_delay_ms(5);
 505              		.loc 1 220 5 view .LVU119
 506 004e 0520     		movs	r0, #5
 507 0050 FFF7FEFF 		bl	sx_delay_ms
 508              	.LVL34:
 221:SynaptiX_FDK/components/modules/external_flash/sx_W25Q128.c ****     log_info(TAG, "Sector erased at 0x%06lX", (unsigned long)addr);
 509              		.loc 1 221 5 view .LVU120
 510 0054 2346     		mov	r3, r4
 511 0056 0B4A     		ldr	r2, .L43+4
 512 0058 0B49     		ldr	r1, .L43+8
 513 005a 0320     		movs	r0, #3
 514 005c FFF7FEFF 		bl	log_func
ARM GAS  C:\Users\DELL\AppData\Local\Temp\cck5XDKB.s 			page 16


 515              	.LVL35:
 222:SynaptiX_FDK/components/modules/external_flash/sx_W25Q128.c ****     return 0;
 516              		.loc 1 222 5 view .LVU121
 517              	.L36:
 223:SynaptiX_FDK/components/modules/external_flash/sx_W25Q128.c **** }
 518              		.loc 1 223 1 is_stmt 0 view .LVU122
 519 0060 2846     		mov	r0, r5
 520 0062 03B0     		add	sp, sp, #12
 521              	.LCFI15:
 522              		.cfi_remember_state
 523              		.cfi_def_cfa_offset 12
 524              		@ sp needed
 525 0064 30BD     		pop	{r4, r5, pc}
 526              	.LVL36:
 527              	.L38:
 528              	.LCFI16:
 529              		.cfi_restore_state
 204:SynaptiX_FDK/components/modules/external_flash/sx_W25Q128.c **** 
 530              		.loc 1 204 47 discriminator 3 view .LVU123
 531 0066 4FF0FF35 		mov	r5, #-1
 532 006a F9E7     		b	.L36
 533              	.L39:
 534 006c 4FF0FF35 		mov	r5, #-1
 535 0070 F6E7     		b	.L36
 536              	.LVL37:
 537              	.L40:
 208:SynaptiX_FDK/components/modules/external_flash/sx_W25Q128.c **** 
 538              		.loc 1 208 38 discriminator 1 view .LVU124
 539 0072 4FF0FF35 		mov	r5, #-1
 540 0076 F3E7     		b	.L36
 541              	.L41:
 217:SynaptiX_FDK/components/modules/external_flash/sx_W25Q128.c **** 
 542              		.loc 1 217 55 discriminator 1 view .LVU125
 543 0078 4FF0FF35 		mov	r5, #-1
 544 007c F0E7     		b	.L36
 545              	.L44:
 546 007e 00BF     		.align	2
 547              	.L43:
 548 0080 00000000 		.word	s_dev
 549 0084 00000000 		.word	.LC4
 550 0088 20000000 		.word	.LC1
 551              		.cfi_endproc
 552              	.LFE25:
 554              		.section	.rodata.w25q_wait_busy_long.str1.4,"aMS",%progbits,1
 555              		.align	2
 556              	.LC5:
 557 0000 77616974 		.ascii	"wait_busy_long TIMEOUT STATUS=0x%02X\000"
 557      5F627573 
 557      795F6C6F 
 557      6E672054 
 557      494D454F 
 558 0025 000000   		.align	2
 559              	.LC6:
 560 0028 77616974 		.ascii	"wait_busy_long done in %lu ms\000"
 560      5F627573 
 560      795F6C6F 
 560      6E672064 
ARM GAS  C:\Users\DELL\AppData\Local\Temp\cck5XDKB.s 			page 17


 560      6F6E6520 
 561              		.section	.text.w25q_wait_busy_long,"ax",%progbits
 562              		.align	1
 563              		.syntax unified
 564              		.thumb
 565              		.thumb_func
 567              	w25q_wait_busy_long:
 568              	.LVL38:
 569              	.LFB20:
  65:SynaptiX_FDK/components/modules/external_flash/sx_W25Q128.c ****     uint8_t tx[2] = { W25Q128_CMD_READ_STATUS1, 0xFF };
 570              		.loc 1 65 1 is_stmt 1 view -0
 571              		.cfi_startproc
 572              		@ args = 0, pretend = 0, frame = 8
 573              		@ frame_needed = 0, uses_anonymous_args = 0
  65:SynaptiX_FDK/components/modules/external_flash/sx_W25Q128.c ****     uint8_t tx[2] = { W25Q128_CMD_READ_STATUS1, 0xFF };
 574              		.loc 1 65 1 is_stmt 0 view .LVU127
 575 0000 70B5     		push	{r4, r5, r6, lr}
 576              	.LCFI17:
 577              		.cfi_def_cfa_offset 16
 578              		.cfi_offset 4, -16
 579              		.cfi_offset 5, -12
 580              		.cfi_offset 6, -8
 581              		.cfi_offset 14, -4
 582 0002 82B0     		sub	sp, sp, #8
 583              	.LCFI18:
 584              		.cfi_def_cfa_offset 24
 585 0004 0646     		mov	r6, r0
  66:SynaptiX_FDK/components/modules/external_flash/sx_W25Q128.c ****     uint8_t rx[2];
 586              		.loc 1 66 5 is_stmt 1 view .LVU128
  66:SynaptiX_FDK/components/modules/external_flash/sx_W25Q128.c ****     uint8_t rx[2];
 587              		.loc 1 66 13 is_stmt 0 view .LVU129
 588 0006 4FF60573 		movw	r3, #65285
 589 000a ADF80430 		strh	r3, [sp, #4]	@ movhi
  67:SynaptiX_FDK/components/modules/external_flash/sx_W25Q128.c ****     uint32_t elapsed = 0;
 590              		.loc 1 67 5 is_stmt 1 view .LVU130
  68:SynaptiX_FDK/components/modules/external_flash/sx_W25Q128.c **** 
 591              		.loc 1 68 5 view .LVU131
 592              	.LVL39:
  68:SynaptiX_FDK/components/modules/external_flash/sx_W25Q128.c **** 
 593              		.loc 1 68 14 is_stmt 0 view .LVU132
 594 000e 0024     		movs	r4, #0
 595              	.LVL40:
 596              	.L48:
  70:SynaptiX_FDK/components/modules/external_flash/sx_W25Q128.c ****         sx_delay_ms(100);           
 597              		.loc 1 70 5 is_stmt 1 view .LVU133
  71:SynaptiX_FDK/components/modules/external_flash/sx_W25Q128.c ****         elapsed += 100;
 598              		.loc 1 71 9 view .LVU134
 599 0010 6420     		movs	r0, #100
 600 0012 FFF7FEFF 		bl	sx_delay_ms
 601              	.LVL41:
  72:SynaptiX_FDK/components/modules/external_flash/sx_W25Q128.c ****         sx_spi_write_read(s_dev->spi, tx, rx, 2);
 602              		.loc 1 72 9 view .LVU135
  72:SynaptiX_FDK/components/modules/external_flash/sx_W25Q128.c ****         sx_spi_write_read(s_dev->spi, tx, rx, 2);
 603              		.loc 1 72 17 is_stmt 0 view .LVU136
 604 0016 6434     		adds	r4, r4, #100
 605              	.LVL42:
  73:SynaptiX_FDK/components/modules/external_flash/sx_W25Q128.c ****         if (elapsed >= timeout_ms) {
ARM GAS  C:\Users\DELL\AppData\Local\Temp\cck5XDKB.s 			page 18


 606              		.loc 1 73 9 is_stmt 1 view .LVU137
  73:SynaptiX_FDK/components/modules/external_flash/sx_W25Q128.c ****         if (elapsed >= timeout_ms) {
 607              		.loc 1 73 32 is_stmt 0 view .LVU138
 608 0018 0F4B     		ldr	r3, .L51
 609 001a 1D68     		ldr	r5, [r3]
  73:SynaptiX_FDK/components/modules/external_flash/sx_W25Q128.c ****         if (elapsed >= timeout_ms) {
 610              		.loc 1 73 9 view .LVU139
 611 001c 0223     		movs	r3, #2
 612 001e 6A46     		mov	r2, sp
 613 0020 01A9     		add	r1, sp, #4
 614 0022 2868     		ldr	r0, [r5]
 615 0024 FFF7FEFF 		bl	sx_spi_write_read
 616              	.LVL43:
  74:SynaptiX_FDK/components/modules/external_flash/sx_W25Q128.c ****             log_error("W25Q128", "wait_busy_long TIMEOUT STATUS=0x%02X", rx[1]);
 617              		.loc 1 74 9 is_stmt 1 view .LVU140
  74:SynaptiX_FDK/components/modules/external_flash/sx_W25Q128.c ****             log_error("W25Q128", "wait_busy_long TIMEOUT STATUS=0x%02X", rx[1]);
 618              		.loc 1 74 12 is_stmt 0 view .LVU141
 619 0028 B442     		cmp	r4, r6
 620 002a 0BD2     		bcs	.L50
  78:SynaptiX_FDK/components/modules/external_flash/sx_W25Q128.c **** 
 621              		.loc 1 78 14 is_stmt 1 view .LVU142
  78:SynaptiX_FDK/components/modules/external_flash/sx_W25Q128.c **** 
 622              		.loc 1 78 16 is_stmt 0 view .LVU143
 623 002c 9DF80130 		ldrb	r3, [sp, #1]	@ zero_extendqisi2
  78:SynaptiX_FDK/components/modules/external_flash/sx_W25Q128.c **** 
 624              		.loc 1 78 14 view .LVU144
 625 0030 13F0010F 		tst	r3, #1
 626 0034 ECD1     		bne	.L48
  80:SynaptiX_FDK/components/modules/external_flash/sx_W25Q128.c **** }
 627              		.loc 1 80 5 is_stmt 1 view .LVU145
 628 0036 2346     		mov	r3, r4
 629 0038 084A     		ldr	r2, .L51+4
 630 003a 0949     		ldr	r1, .L51+8
 631 003c 0320     		movs	r0, #3
 632 003e FFF7FEFF 		bl	log_func
 633              	.LVL44:
 634 0042 06E0     		b	.L45
 635              	.L50:
  75:SynaptiX_FDK/components/modules/external_flash/sx_W25Q128.c ****             return;
 636              		.loc 1 75 13 view .LVU146
 637 0044 9DF80130 		ldrb	r3, [sp, #1]	@ zero_extendqisi2
 638 0048 064A     		ldr	r2, .L51+12
 639 004a 0549     		ldr	r1, .L51+8
 640 004c 0120     		movs	r0, #1
 641 004e FFF7FEFF 		bl	log_func
 642              	.LVL45:
  76:SynaptiX_FDK/components/modules/external_flash/sx_W25Q128.c ****         }
 643              		.loc 1 76 13 view .LVU147
 644              	.L45:
  81:SynaptiX_FDK/components/modules/external_flash/sx_W25Q128.c **** 
 645              		.loc 1 81 1 is_stmt 0 view .LVU148
 646 0052 02B0     		add	sp, sp, #8
 647              	.LCFI19:
 648              		.cfi_def_cfa_offset 16
 649              		@ sp needed
 650 0054 70BD     		pop	{r4, r5, r6, pc}
 651              	.LVL46:
ARM GAS  C:\Users\DELL\AppData\Local\Temp\cck5XDKB.s 			page 19


 652              	.L52:
  81:SynaptiX_FDK/components/modules/external_flash/sx_W25Q128.c **** 
 653              		.loc 1 81 1 view .LVU149
 654 0056 00BF     		.align	2
 655              	.L51:
 656 0058 00000000 		.word	s_dev
 657 005c 28000000 		.word	.LC6
 658 0060 20000000 		.word	.LC1
 659 0064 00000000 		.word	.LC5
 660              		.cfi_endproc
 661              	.LFE20:
 663              		.section	.rodata.sx_W25Q128_read.str1.4,"aMS",%progbits,1
 664              		.align	2
 665              	.LC7:
 666 0000 7370695F 		.ascii	"spi_write_read failed at addr=0x%06lX chunk=%lu\000"
 666      77726974 
 666      655F7265 
 666      61642066 
 666      61696C65 
 667              		.section	.text.sx_W25Q128_read,"ax",%progbits
 668              		.align	1
 669              		.global	sx_W25Q128_read
 670              		.syntax unified
 671              		.thumb
 672              		.thumb_func
 674              	sx_W25Q128_read:
 675              	.LVL47:
 676              	.LFB23:
 127:SynaptiX_FDK/components/modules/external_flash/sx_W25Q128.c ****     if (!s_dev || !s_dev->initialized) return -1;
 677              		.loc 1 127 1 is_stmt 1 view -0
 678              		.cfi_startproc
 679              		@ args = 0, pretend = 0, frame = 520
 680              		@ frame_needed = 0, uses_anonymous_args = 0
 128:SynaptiX_FDK/components/modules/external_flash/sx_W25Q128.c ****     if (buf == NULL || len == 0)        return -1;
 681              		.loc 1 128 5 view .LVU151
 128:SynaptiX_FDK/components/modules/external_flash/sx_W25Q128.c ****     if (buf == NULL || len == 0)        return -1;
 682              		.loc 1 128 9 is_stmt 0 view .LVU152
 683 0000 2E4B     		ldr	r3, .L70
 684 0002 1B68     		ldr	r3, [r3]
 128:SynaptiX_FDK/components/modules/external_flash/sx_W25Q128.c ****     if (buf == NULL || len == 0)        return -1;
 685              		.loc 1 128 8 view .LVU153
 686 0004 002B     		cmp	r3, #0
 687 0006 4DD0     		beq	.L59
 127:SynaptiX_FDK/components/modules/external_flash/sx_W25Q128.c ****     if (!s_dev || !s_dev->initialized) return -1;
 688              		.loc 1 127 1 view .LVU154
 689 0008 2DE9F047 		push	{r4, r5, r6, r7, r8, r9, r10, lr}
 690              	.LCFI20:
 691              		.cfi_def_cfa_offset 32
 692              		.cfi_offset 4, -32
 693              		.cfi_offset 5, -28
 694              		.cfi_offset 6, -24
 695              		.cfi_offset 7, -20
 696              		.cfi_offset 8, -16
 697              		.cfi_offset 9, -12
 698              		.cfi_offset 10, -8
 699              		.cfi_offset 14, -4
 700 000c ADF5047D 		sub	sp, sp, #528
ARM GAS  C:\Users\DELL\AppData\Local\Temp\cck5XDKB.s 			page 20


 701              	.LCFI21:
 702              		.cfi_def_cfa_offset 560
 703 0010 8246     		mov	r10, r0
 704 0012 8946     		mov	r9, r1
 705 0014 9046     		mov	r8, r2
 128:SynaptiX_FDK/components/modules/external_flash/sx_W25Q128.c ****     if (buf == NULL || len == 0)        return -1;
 706              		.loc 1 128 25 discriminator 2 view .LVU155
 707 0016 1B79     		ldrb	r3, [r3, #4]	@ zero_extendqisi2
 128:SynaptiX_FDK/components/modules/external_flash/sx_W25Q128.c ****     if (buf == NULL || len == 0)        return -1;
 708              		.loc 1 128 16 discriminator 2 view .LVU156
 709 0018 002B     		cmp	r3, #0
 710 001a 46D0     		beq	.L60
 129:SynaptiX_FDK/components/modules/external_flash/sx_W25Q128.c **** 
 711              		.loc 1 129 5 is_stmt 1 view .LVU157
 129:SynaptiX_FDK/components/modules/external_flash/sx_W25Q128.c **** 
 712              		.loc 1 129 8 is_stmt 0 view .LVU158
 713 001c 0029     		cmp	r1, #0
 714 001e 47D0     		beq	.L61
 129:SynaptiX_FDK/components/modules/external_flash/sx_W25Q128.c **** 
 715              		.loc 1 129 21 discriminator 2 view .LVU159
 716 0020 002A     		cmp	r2, #0
 717 0022 48D0     		beq	.L62
 131:SynaptiX_FDK/components/modules/external_flash/sx_W25Q128.c ****     while (offset < len) {
 718              		.loc 1 131 14 view .LVU160
 719 0024 0025     		movs	r5, #0
 720 0026 24E0     		b	.L55
 721              	.LVL48:
 722              	.L56:
 723              	.LBB2:
 136:SynaptiX_FDK/components/modules/external_flash/sx_W25Q128.c ****         uint8_t rx[4 + W25Q128_MAX_READ_LEN];
 724              		.loc 1 136 9 is_stmt 1 view .LVU161
 137:SynaptiX_FDK/components/modules/external_flash/sx_W25Q128.c **** 
 725              		.loc 1 137 9 view .LVU162
 139:SynaptiX_FDK/components/modules/external_flash/sx_W25Q128.c ****         tx[0] = W25Q128_CMD_READ_DATA;
 726              		.loc 1 139 9 view .LVU163
 139:SynaptiX_FDK/components/modules/external_flash/sx_W25Q128.c ****         tx[0] = W25Q128_CMD_READ_DATA;
 727              		.loc 1 139 18 is_stmt 0 view .LVU164
 728 0028 05EB0A07 		add	r7, r5, r10
 729              	.LVL49:
 140:SynaptiX_FDK/components/modules/external_flash/sx_W25Q128.c ****         tx[1] = (uint8_t)(cur_addr >> 16);
 730              		.loc 1 140 9 is_stmt 1 view .LVU165
 140:SynaptiX_FDK/components/modules/external_flash/sx_W25Q128.c ****         tx[1] = (uint8_t)(cur_addr >> 16);
 731              		.loc 1 140 15 is_stmt 0 view .LVU166
 732 002c 02AE     		add	r6, sp, #8
 733 002e 0323     		movs	r3, #3
 734 0030 8DF80830 		strb	r3, [sp, #8]
 141:SynaptiX_FDK/components/modules/external_flash/sx_W25Q128.c ****         tx[2] = (uint8_t)(cur_addr >>  8);
 735              		.loc 1 141 9 is_stmt 1 view .LVU167
 141:SynaptiX_FDK/components/modules/external_flash/sx_W25Q128.c ****         tx[2] = (uint8_t)(cur_addr >>  8);
 736              		.loc 1 141 17 is_stmt 0 view .LVU168
 737 0034 C7F30743 		ubfx	r3, r7, #16, #8
 141:SynaptiX_FDK/components/modules/external_flash/sx_W25Q128.c ****         tx[2] = (uint8_t)(cur_addr >>  8);
 738              		.loc 1 141 15 view .LVU169
 739 0038 8DF80930 		strb	r3, [sp, #9]
 142:SynaptiX_FDK/components/modules/external_flash/sx_W25Q128.c ****         tx[3] = (uint8_t)(cur_addr >>  0);
 740              		.loc 1 142 9 is_stmt 1 view .LVU170
 142:SynaptiX_FDK/components/modules/external_flash/sx_W25Q128.c ****         tx[3] = (uint8_t)(cur_addr >>  0);
ARM GAS  C:\Users\DELL\AppData\Local\Temp\cck5XDKB.s 			page 21


 741              		.loc 1 142 17 is_stmt 0 view .LVU171
 742 003c C7F30723 		ubfx	r3, r7, #8, #8
 142:SynaptiX_FDK/components/modules/external_flash/sx_W25Q128.c ****         tx[3] = (uint8_t)(cur_addr >>  0);
 743              		.loc 1 142 15 view .LVU172
 744 0040 8DF80A30 		strb	r3, [sp, #10]
 143:SynaptiX_FDK/components/modules/external_flash/sx_W25Q128.c ****         memset(tx + 4, 0x00, chunk);
 745              		.loc 1 143 9 is_stmt 1 view .LVU173
 143:SynaptiX_FDK/components/modules/external_flash/sx_W25Q128.c ****         memset(tx + 4, 0x00, chunk);
 746              		.loc 1 143 15 is_stmt 0 view .LVU174
 747 0044 8DF80B70 		strb	r7, [sp, #11]
 144:SynaptiX_FDK/components/modules/external_flash/sx_W25Q128.c **** 
 748              		.loc 1 144 9 is_stmt 1 view .LVU175
 749 0048 2246     		mov	r2, r4
 750 004a 0021     		movs	r1, #0
 751 004c 03A8     		add	r0, sp, #12
 752 004e FFF7FEFF 		bl	memset
 753              	.LVL50:
 146:SynaptiX_FDK/components/modules/external_flash/sx_W25Q128.c ****             log_error(TAG, "spi_write_read failed at addr=0x%06lX chunk=%lu",
 754              		.loc 1 146 9 view .LVU176
 146:SynaptiX_FDK/components/modules/external_flash/sx_W25Q128.c ****             log_error(TAG, "spi_write_read failed at addr=0x%06lX chunk=%lu",
 755              		.loc 1 146 36 is_stmt 0 view .LVU177
 756 0052 1A4B     		ldr	r3, .L70
 757 0054 1868     		ldr	r0, [r3]
 146:SynaptiX_FDK/components/modules/external_flash/sx_W25Q128.c ****             log_error(TAG, "spi_write_read failed at addr=0x%06lX chunk=%lu",
 758              		.loc 1 146 13 view .LVU178
 759 0056 231D     		adds	r3, r4, #4
 760 0058 43AA     		add	r2, sp, #268
 761 005a 3146     		mov	r1, r6
 762 005c 0068     		ldr	r0, [r0]
 763 005e FFF7FEFF 		bl	sx_spi_write_read
 764              	.LVL51:
 146:SynaptiX_FDK/components/modules/external_flash/sx_W25Q128.c ****             log_error(TAG, "spi_write_read failed at addr=0x%06lX chunk=%lu",
 765              		.loc 1 146 12 discriminator 1 view .LVU179
 766 0062 80B9     		cbnz	r0, .L68
 151:SynaptiX_FDK/components/modules/external_flash/sx_W25Q128.c **** 
 767              		.loc 1 151 9 is_stmt 1 view .LVU180
 768 0064 2246     		mov	r2, r4
 769 0066 44A9     		add	r1, sp, #272
 770 0068 09EB0500 		add	r0, r9, r5
 771 006c FFF7FEFF 		bl	memcpy
 772              	.LVL52:
 153:SynaptiX_FDK/components/modules/external_flash/sx_W25Q128.c ****     }
 773              		.loc 1 153 9 view .LVU181
 153:SynaptiX_FDK/components/modules/external_flash/sx_W25Q128.c ****     }
 774              		.loc 1 153 16 is_stmt 0 view .LVU182
 775 0070 2544     		add	r5, r5, r4
 776              	.LVL53:
 777              	.L55:
 153:SynaptiX_FDK/components/modules/external_flash/sx_W25Q128.c ****     }
 778              		.loc 1 153 16 view .LVU183
 779              	.LBE2:
 132:SynaptiX_FDK/components/modules/external_flash/sx_W25Q128.c ****         uint32_t chunk = len - offset;
 780              		.loc 1 132 19 is_stmt 1 view .LVU184
 781 0072 4545     		cmp	r5, r8
 782 0074 11D2     		bcs	.L69
 783              	.LBB3:
 133:SynaptiX_FDK/components/modules/external_flash/sx_W25Q128.c ****         if (chunk > W25Q128_MAX_READ_LEN) chunk = W25Q128_MAX_READ_LEN;
ARM GAS  C:\Users\DELL\AppData\Local\Temp\cck5XDKB.s 			page 22


 784              		.loc 1 133 9 view .LVU185
 133:SynaptiX_FDK/components/modules/external_flash/sx_W25Q128.c ****         if (chunk > W25Q128_MAX_READ_LEN) chunk = W25Q128_MAX_READ_LEN;
 785              		.loc 1 133 18 is_stmt 0 view .LVU186
 786 0076 A8EB0504 		sub	r4, r8, r5
 787              	.LVL54:
 134:SynaptiX_FDK/components/modules/external_flash/sx_W25Q128.c **** 
 788              		.loc 1 134 9 is_stmt 1 view .LVU187
 134:SynaptiX_FDK/components/modules/external_flash/sx_W25Q128.c **** 
 789              		.loc 1 134 12 is_stmt 0 view .LVU188
 790 007a B4F5807F 		cmp	r4, #256
 791 007e D3D9     		bls	.L56
 134:SynaptiX_FDK/components/modules/external_flash/sx_W25Q128.c **** 
 792              		.loc 1 134 49 discriminator 1 view .LVU189
 793 0080 4FF48074 		mov	r4, #256
 794              	.LVL55:
 134:SynaptiX_FDK/components/modules/external_flash/sx_W25Q128.c **** 
 795              		.loc 1 134 49 discriminator 1 view .LVU190
 796 0084 D0E7     		b	.L56
 797              	.LVL56:
 798              	.L68:
 147:SynaptiX_FDK/components/modules/external_flash/sx_W25Q128.c ****               (unsigned long)cur_addr, (unsigned long)chunk);
 799              		.loc 1 147 13 is_stmt 1 view .LVU191
 800 0086 0094     		str	r4, [sp]
 801 0088 3B46     		mov	r3, r7
 802 008a 0D4A     		ldr	r2, .L70+4
 803 008c 0D49     		ldr	r1, .L70+8
 804 008e 0120     		movs	r0, #1
 805 0090 FFF7FEFF 		bl	log_func
 806              	.LVL57:
 149:SynaptiX_FDK/components/modules/external_flash/sx_W25Q128.c ****         }
 807              		.loc 1 149 13 view .LVU192
 149:SynaptiX_FDK/components/modules/external_flash/sx_W25Q128.c ****         }
 808              		.loc 1 149 20 is_stmt 0 view .LVU193
 809 0094 4FF0FF30 		mov	r0, #-1
 810 0098 00E0     		b	.L53
 811              	.LVL58:
 812              	.L69:
 149:SynaptiX_FDK/components/modules/external_flash/sx_W25Q128.c ****         }
 813              		.loc 1 149 20 view .LVU194
 814              	.LBE3:
 155:SynaptiX_FDK/components/modules/external_flash/sx_W25Q128.c **** }
 815              		.loc 1 155 12 view .LVU195
 816 009a 0020     		movs	r0, #0
 817              	.LVL59:
 818              	.L53:
 156:SynaptiX_FDK/components/modules/external_flash/sx_W25Q128.c **** 
 819              		.loc 1 156 1 view .LVU196
 820 009c 0DF5047D 		add	sp, sp, #528
 821              	.LCFI22:
 822              		.cfi_def_cfa_offset 32
 823              		@ sp needed
 824 00a0 BDE8F087 		pop	{r4, r5, r6, r7, r8, r9, r10, pc}
 825              	.LVL60:
 826              	.L59:
 827              	.LCFI23:
 828              		.cfi_def_cfa_offset 0
 829              		.cfi_restore 4
ARM GAS  C:\Users\DELL\AppData\Local\Temp\cck5XDKB.s 			page 23


 830              		.cfi_restore 5
 831              		.cfi_restore 6
 832              		.cfi_restore 7
 833              		.cfi_restore 8
 834              		.cfi_restore 9
 835              		.cfi_restore 10
 836              		.cfi_restore 14
 128:SynaptiX_FDK/components/modules/external_flash/sx_W25Q128.c ****     if (buf == NULL || len == 0)        return -1;
 837              		.loc 1 128 47 discriminator 3 view .LVU197
 838 00a4 4FF0FF30 		mov	r0, #-1
 839              	.LVL61:
 156:SynaptiX_FDK/components/modules/external_flash/sx_W25Q128.c **** 
 840              		.loc 1 156 1 view .LVU198
 841 00a8 7047     		bx	lr
 842              	.LVL62:
 843              	.L60:
 844              	.LCFI24:
 845              		.cfi_def_cfa_offset 560
 846              		.cfi_offset 4, -32
 847              		.cfi_offset 5, -28
 848              		.cfi_offset 6, -24
 849              		.cfi_offset 7, -20
 850              		.cfi_offset 8, -16
 851              		.cfi_offset 9, -12
 852              		.cfi_offset 10, -8
 853              		.cfi_offset 14, -4
 128:SynaptiX_FDK/components/modules/external_flash/sx_W25Q128.c ****     if (buf == NULL || len == 0)        return -1;
 854              		.loc 1 128 47 discriminator 3 view .LVU199
 855 00aa 4FF0FF30 		mov	r0, #-1
 856              	.LVL63:
 128:SynaptiX_FDK/components/modules/external_flash/sx_W25Q128.c ****     if (buf == NULL || len == 0)        return -1;
 857              		.loc 1 128 47 discriminator 3 view .LVU200
 858 00ae F5E7     		b	.L53
 859              	.LVL64:
 860              	.L61:
 129:SynaptiX_FDK/components/modules/external_flash/sx_W25Q128.c **** 
 861              		.loc 1 129 48 discriminator 3 view .LVU201
 862 00b0 4FF0FF30 		mov	r0, #-1
 863              	.LVL65:
 129:SynaptiX_FDK/components/modules/external_flash/sx_W25Q128.c **** 
 864              		.loc 1 129 48 discriminator 3 view .LVU202
 865 00b4 F2E7     		b	.L53
 866              	.LVL66:
 867              	.L62:
 129:SynaptiX_FDK/components/modules/external_flash/sx_W25Q128.c **** 
 868              		.loc 1 129 48 discriminator 3 view .LVU203
 869 00b6 4FF0FF30 		mov	r0, #-1
 870              	.LVL67:
 129:SynaptiX_FDK/components/modules/external_flash/sx_W25Q128.c **** 
 871              		.loc 1 129 48 discriminator 3 view .LVU204
 872 00ba EFE7     		b	.L53
 873              	.L71:
 874              		.align	2
 875              	.L70:
 876 00bc 00000000 		.word	s_dev
 877 00c0 00000000 		.word	.LC7
 878 00c4 20000000 		.word	.LC1
ARM GAS  C:\Users\DELL\AppData\Local\Temp\cck5XDKB.s 			page 24


 879              		.cfi_endproc
 880              	.LFE23:
 882              		.section	.rodata.sx_W25Q128_write.str1.4,"aMS",%progbits,1
 883              		.align	2
 884              	.LC8:
 885 0000 77726974 		.ascii	"write_enable FAILED\000"
 885      655F656E 
 885      61626C65 
 885      20464149 
 885      4C454400 
 886              		.align	2
 887              	.LC9:
 888 0014 53544154 		.ascii	"STATUS1 before write addr=0x%06lX: 0x%02X (WEL=%d)\000"
 888      55533120 
 888      6265666F 
 888      72652077 
 888      72697465 
 889 0047 00       		.align	2
 890              	.LC10:
 891 0048 53544154 		.ascii	"STATUS1 JUST BEFORE page_program: 0x%02X\000"
 891      55533120 
 891      4A555354 
 891      20424546 
 891      4F524520 
 892 0071 000000   		.align	2
 893              	.LC11:
 894 0074 7370695F 		.ascii	"spi_write FAILED\000"
 894      77726974 
 894      65204641 
 894      494C4544 
 894      00
 895              		.section	.text.sx_W25Q128_write,"ax",%progbits
 896              		.align	1
 897              		.global	sx_W25Q128_write
 898              		.syntax unified
 899              		.thumb
 900              		.thumb_func
 902              	sx_W25Q128_write:
 903              	.LVL68:
 904              	.LFB24:
 159:SynaptiX_FDK/components/modules/external_flash/sx_W25Q128.c ****     if (!s_dev || !s_dev->initialized)   return -1;
 905              		.loc 1 159 1 is_stmt 1 view -0
 906              		.cfi_startproc
 907              		@ args = 0, pretend = 0, frame = 296
 908              		@ frame_needed = 0, uses_anonymous_args = 0
 159:SynaptiX_FDK/components/modules/external_flash/sx_W25Q128.c ****     if (!s_dev || !s_dev->initialized)   return -1;
 909              		.loc 1 159 1 is_stmt 0 view .LVU206
 910 0000 2DE9F04F 		push	{r4, r5, r6, r7, r8, r9, r10, fp, lr}
 911              	.LCFI25:
 912              		.cfi_def_cfa_offset 36
 913              		.cfi_offset 4, -36
 914              		.cfi_offset 5, -32
 915              		.cfi_offset 6, -28
 916              		.cfi_offset 7, -24
 917              		.cfi_offset 8, -20
 918              		.cfi_offset 9, -16
 919              		.cfi_offset 10, -12
ARM GAS  C:\Users\DELL\AppData\Local\Temp\cck5XDKB.s 			page 25


 920              		.cfi_offset 11, -8
 921              		.cfi_offset 14, -4
 922 0004 CDB0     		sub	sp, sp, #308
 923              	.LCFI26:
 924              		.cfi_def_cfa_offset 344
 925 0006 0490     		str	r0, [sp, #16]
 926 0008 0591     		str	r1, [sp, #20]
 160:SynaptiX_FDK/components/modules/external_flash/sx_W25Q128.c ****     if (buf == NULL || len == 0)          return -1;
 927              		.loc 1 160 5 is_stmt 1 view .LVU207
 160:SynaptiX_FDK/components/modules/external_flash/sx_W25Q128.c ****     if (buf == NULL || len == 0)          return -1;
 928              		.loc 1 160 9 is_stmt 0 view .LVU208
 929 000a 4A4B     		ldr	r3, .L88
 930 000c 1B68     		ldr	r3, [r3]
 160:SynaptiX_FDK/components/modules/external_flash/sx_W25Q128.c ****     if (buf == NULL || len == 0)          return -1;
 931              		.loc 1 160 8 view .LVU209
 932 000e 002B     		cmp	r3, #0
 933 0010 00F08480 		beq	.L80
 160:SynaptiX_FDK/components/modules/external_flash/sx_W25Q128.c ****     if (buf == NULL || len == 0)          return -1;
 934              		.loc 1 160 25 discriminator 2 view .LVU210
 935 0014 1B79     		ldrb	r3, [r3, #4]	@ zero_extendqisi2
 160:SynaptiX_FDK/components/modules/external_flash/sx_W25Q128.c ****     if (buf == NULL || len == 0)          return -1;
 936              		.loc 1 160 16 discriminator 2 view .LVU211
 937 0016 002B     		cmp	r3, #0
 938 0018 00F08380 		beq	.L81
 161:SynaptiX_FDK/components/modules/external_flash/sx_W25Q128.c ****     uint32_t offset = 0;
 939              		.loc 1 161 5 is_stmt 1 view .LVU212
 161:SynaptiX_FDK/components/modules/external_flash/sx_W25Q128.c ****     uint32_t offset = 0;
 940              		.loc 1 161 8 is_stmt 0 view .LVU213
 941 001c 0029     		cmp	r1, #0
 942 001e 00F08380 		beq	.L82
 161:SynaptiX_FDK/components/modules/external_flash/sx_W25Q128.c ****     uint32_t offset = 0;
 943              		.loc 1 161 21 discriminator 2 view .LVU214
 944 0022 002A     		cmp	r2, #0
 945 0024 00F08380 		beq	.L83
 162:SynaptiX_FDK/components/modules/external_flash/sx_W25Q128.c ****     while (offset < len) {
 946              		.loc 1 162 14 view .LVU215
 947 0028 4FF00008 		mov	r8, #0
 948 002c 0392     		str	r2, [sp, #12]
 949 002e 53E0     		b	.L74
 950              	.LVL69:
 951              	.L75:
 952              	.LBB4:
 168:SynaptiX_FDK/components/modules/external_flash/sx_W25Q128.c ****             log_error(TAG, "write_enable FAILED");
 953              		.loc 1 168 9 is_stmt 1 view .LVU216
 168:SynaptiX_FDK/components/modules/external_flash/sx_W25Q128.c ****             log_error(TAG, "write_enable FAILED");
 954              		.loc 1 168 14 is_stmt 0 view .LVU217
 955 0030 FFF7FEFF 		bl	w25q_write_enable
 956              	.LVL70:
 168:SynaptiX_FDK/components/modules/external_flash/sx_W25Q128.c ****             log_error(TAG, "write_enable FAILED");
 957              		.loc 1 168 12 discriminator 1 view .LVU218
 958 0034 0028     		cmp	r0, #0
 959 0036 5FD0     		beq	.L85
 173:SynaptiX_FDK/components/modules/external_flash/sx_W25Q128.c ****         uint8_t srx[2] = { 0 };
 960              		.loc 1 173 9 is_stmt 1 view .LVU219
 173:SynaptiX_FDK/components/modules/external_flash/sx_W25Q128.c ****         uint8_t srx[2] = { 0 };
 961              		.loc 1 173 17 is_stmt 0 view .LVU220
 962 0038 07A9     		add	r1, sp, #28
ARM GAS  C:\Users\DELL\AppData\Local\Temp\cck5XDKB.s 			page 26


 963 003a 4FF0050B 		mov	fp, #5
 964 003e A1F800B0 		strh	fp, [r1]	@ movhi
 174:SynaptiX_FDK/components/modules/external_flash/sx_W25Q128.c ****         sx_spi_write_read(s_dev->spi, stx, srx, 2);
 965              		.loc 1 174 9 is_stmt 1 view .LVU221
 174:SynaptiX_FDK/components/modules/external_flash/sx_W25Q128.c ****         sx_spi_write_read(s_dev->spi, stx, srx, 2);
 966              		.loc 1 174 17 is_stmt 0 view .LVU222
 967 0042 08AD     		add	r5, sp, #32
 968 0044 4FF00009 		mov	r9, #0
 969 0048 ADF82090 		strh	r9, [sp, #32]	@ movhi
 175:SynaptiX_FDK/components/modules/external_flash/sx_W25Q128.c ****         log_info(TAG, "STATUS1 before write addr=0x%06lX: 0x%02X (WEL=%d)", (unsigned long)(addr + 
 970              		.loc 1 175 9 is_stmt 1 view .LVU223
 175:SynaptiX_FDK/components/modules/external_flash/sx_W25Q128.c ****         log_info(TAG, "STATUS1 before write addr=0x%06lX: 0x%02X (WEL=%d)", (unsigned long)(addr + 
 971              		.loc 1 175 32 is_stmt 0 view .LVU224
 972 004c 394F     		ldr	r7, .L88
 973 004e 3868     		ldr	r0, [r7]
 175:SynaptiX_FDK/components/modules/external_flash/sx_W25Q128.c ****         log_info(TAG, "STATUS1 before write addr=0x%06lX: 0x%02X (WEL=%d)", (unsigned long)(addr + 
 974              		.loc 1 175 9 view .LVU225
 975 0050 0223     		movs	r3, #2
 976 0052 2A46     		mov	r2, r5
 977 0054 0068     		ldr	r0, [r0]
 978 0056 FFF7FEFF 		bl	sx_spi_write_read
 979              	.LVL71:
 176:SynaptiX_FDK/components/modules/external_flash/sx_W25Q128.c **** 
 980              		.loc 1 176 9 is_stmt 1 view .LVU226
 981 005a 9DF82130 		ldrb	r3, [sp, #33]	@ zero_extendqisi2
 982 005e C3F34002 		ubfx	r2, r3, #1, #1
 983 0062 0192     		str	r2, [sp, #4]
 984 0064 0093     		str	r3, [sp]
 985 0066 2346     		mov	r3, r4
 986 0068 334A     		ldr	r2, .L88+4
 987 006a 3449     		ldr	r1, .L88+8
 988 006c 0320     		movs	r0, #3
 989 006e FFF7FEFF 		bl	log_func
 990              	.LVL72:
 178:SynaptiX_FDK/components/modules/external_flash/sx_W25Q128.c ****         uint32_t cur_addr = addr + offset;
 991              		.loc 1 178 9 view .LVU227
 179:SynaptiX_FDK/components/modules/external_flash/sx_W25Q128.c ****         tx[0] = W25Q128_CMD_PAGE_PROGRAM;
 992              		.loc 1 179 9 view .LVU228
 180:SynaptiX_FDK/components/modules/external_flash/sx_W25Q128.c ****         tx[1] = (uint8_t)(cur_addr >> 16);
 993              		.loc 1 180 9 view .LVU229
 180:SynaptiX_FDK/components/modules/external_flash/sx_W25Q128.c ****         tx[1] = (uint8_t)(cur_addr >> 16);
 994              		.loc 1 180 15 is_stmt 0 view .LVU230
 995 0072 0BAD     		add	r5, sp, #44
 996 0074 4FF0020A 		mov	r10, #2
 997 0078 8DF82CA0 		strb	r10, [sp, #44]
 181:SynaptiX_FDK/components/modules/external_flash/sx_W25Q128.c ****         tx[2] = (uint8_t)(cur_addr >>  8);
 998              		.loc 1 181 9 is_stmt 1 view .LVU231
 181:SynaptiX_FDK/components/modules/external_flash/sx_W25Q128.c ****         tx[2] = (uint8_t)(cur_addr >>  8);
 999              		.loc 1 181 17 is_stmt 0 view .LVU232
 1000 007c C4F30743 		ubfx	r3, r4, #16, #8
 181:SynaptiX_FDK/components/modules/external_flash/sx_W25Q128.c ****         tx[2] = (uint8_t)(cur_addr >>  8);
 1001              		.loc 1 181 15 view .LVU233
 1002 0080 8DF82D30 		strb	r3, [sp, #45]
 182:SynaptiX_FDK/components/modules/external_flash/sx_W25Q128.c ****         tx[3] = (uint8_t)(cur_addr >>  0);
 1003              		.loc 1 182 9 is_stmt 1 view .LVU234
 182:SynaptiX_FDK/components/modules/external_flash/sx_W25Q128.c ****         tx[3] = (uint8_t)(cur_addr >>  0);
 1004              		.loc 1 182 17 is_stmt 0 view .LVU235
ARM GAS  C:\Users\DELL\AppData\Local\Temp\cck5XDKB.s 			page 27


 1005 0084 C4F30723 		ubfx	r3, r4, #8, #8
 182:SynaptiX_FDK/components/modules/external_flash/sx_W25Q128.c ****         tx[3] = (uint8_t)(cur_addr >>  0);
 1006              		.loc 1 182 15 view .LVU236
 1007 0088 8DF82E30 		strb	r3, [sp, #46]
 183:SynaptiX_FDK/components/modules/external_flash/sx_W25Q128.c ****         memcpy(tx + 4, buf + offset, chunk);
 1008              		.loc 1 183 9 is_stmt 1 view .LVU237
 183:SynaptiX_FDK/components/modules/external_flash/sx_W25Q128.c ****         memcpy(tx + 4, buf + offset, chunk);
 1009              		.loc 1 183 15 is_stmt 0 view .LVU238
 1010 008c 8DF82F40 		strb	r4, [sp, #47]
 184:SynaptiX_FDK/components/modules/external_flash/sx_W25Q128.c **** 
 1011              		.loc 1 184 9 is_stmt 1 view .LVU239
 1012 0090 3246     		mov	r2, r6
 1013 0092 059B     		ldr	r3, [sp, #20]
 1014 0094 03EB0801 		add	r1, r3, r8
 1015 0098 0CA8     		add	r0, sp, #48
 1016 009a FFF7FEFF 		bl	memcpy
 1017              	.LVL73:
 186:SynaptiX_FDK/components/modules/external_flash/sx_W25Q128.c ****         uint8_t srx2[2] = { 0 };
 1018              		.loc 1 186 9 view .LVU240
 186:SynaptiX_FDK/components/modules/external_flash/sx_W25Q128.c ****         uint8_t srx2[2] = { 0 };
 1019              		.loc 1 186 17 is_stmt 0 view .LVU241
 1020 009e 09A9     		add	r1, sp, #36
 1021 00a0 A1F800B0 		strh	fp, [r1]	@ movhi
 187:SynaptiX_FDK/components/modules/external_flash/sx_W25Q128.c ****         sx_spi_write_read(s_dev->spi, stx2, srx2, 2);
 1022              		.loc 1 187 9 is_stmt 1 view .LVU242
 187:SynaptiX_FDK/components/modules/external_flash/sx_W25Q128.c ****         sx_spi_write_read(s_dev->spi, stx2, srx2, 2);
 1023              		.loc 1 187 17 is_stmt 0 view .LVU243
 1024 00a4 0AAC     		add	r4, sp, #40
 1025              	.LVL74:
 187:SynaptiX_FDK/components/modules/external_flash/sx_W25Q128.c ****         sx_spi_write_read(s_dev->spi, stx2, srx2, 2);
 1026              		.loc 1 187 17 view .LVU244
 1027 00a6 ADF82890 		strh	r9, [sp, #40]	@ movhi
 188:SynaptiX_FDK/components/modules/external_flash/sx_W25Q128.c ****         log_info(TAG, "STATUS1 JUST BEFORE page_program: 0x%02X", srx2[1]);
 1028              		.loc 1 188 9 is_stmt 1 view .LVU245
 188:SynaptiX_FDK/components/modules/external_flash/sx_W25Q128.c ****         log_info(TAG, "STATUS1 JUST BEFORE page_program: 0x%02X", srx2[1]);
 1029              		.loc 1 188 32 is_stmt 0 view .LVU246
 1030 00aa 3868     		ldr	r0, [r7]
 188:SynaptiX_FDK/components/modules/external_flash/sx_W25Q128.c ****         log_info(TAG, "STATUS1 JUST BEFORE page_program: 0x%02X", srx2[1]);
 1031              		.loc 1 188 9 view .LVU247
 1032 00ac 5346     		mov	r3, r10
 1033 00ae 2246     		mov	r2, r4
 1034 00b0 0068     		ldr	r0, [r0]
 1035 00b2 FFF7FEFF 		bl	sx_spi_write_read
 1036              	.LVL75:
 189:SynaptiX_FDK/components/modules/external_flash/sx_W25Q128.c **** 
 1037              		.loc 1 189 9 is_stmt 1 view .LVU248
 1038 00b6 9DF82930 		ldrb	r3, [sp, #41]	@ zero_extendqisi2
 1039 00ba 214A     		ldr	r2, .L88+12
 1040 00bc 1F49     		ldr	r1, .L88+8
 1041 00be 0320     		movs	r0, #3
 1042 00c0 FFF7FEFF 		bl	log_func
 1043              	.LVL76:
 191:SynaptiX_FDK/components/modules/external_flash/sx_W25Q128.c ****             log_error(TAG, "spi_write FAILED");
 1044              		.loc 1 191 9 view .LVU249
 191:SynaptiX_FDK/components/modules/external_flash/sx_W25Q128.c ****             log_error(TAG, "spi_write FAILED");
 1045              		.loc 1 191 31 is_stmt 0 view .LVU250
 1046 00c4 3B68     		ldr	r3, [r7]
ARM GAS  C:\Users\DELL\AppData\Local\Temp\cck5XDKB.s 			page 28


 191:SynaptiX_FDK/components/modules/external_flash/sx_W25Q128.c ****             log_error(TAG, "spi_write FAILED");
 1047              		.loc 1 191 13 view .LVU251
 1048 00c6 321D     		adds	r2, r6, #4
 1049 00c8 2946     		mov	r1, r5
 1050 00ca 1868     		ldr	r0, [r3]
 1051 00cc FFF7FEFF 		bl	sx_spi_write
 1052              	.LVL77:
 191:SynaptiX_FDK/components/modules/external_flash/sx_W25Q128.c ****             log_error(TAG, "spi_write FAILED");
 1053              		.loc 1 191 12 discriminator 1 view .LVU252
 1054 00d0 E0B9     		cbnz	r0, .L86
 196:SynaptiX_FDK/components/modules/external_flash/sx_W25Q128.c ****         offset += chunk;
 1055              		.loc 1 196 9 is_stmt 1 view .LVU253
 1056 00d2 FFF7FEFF 		bl	w25q_wait_busy
 1057              	.LVL78:
 197:SynaptiX_FDK/components/modules/external_flash/sx_W25Q128.c ****     }
 1058              		.loc 1 197 9 view .LVU254
 197:SynaptiX_FDK/components/modules/external_flash/sx_W25Q128.c ****     }
 1059              		.loc 1 197 16 is_stmt 0 view .LVU255
 1060 00d6 B044     		add	r8, r8, r6
 1061              	.LVL79:
 1062              	.L74:
 197:SynaptiX_FDK/components/modules/external_flash/sx_W25Q128.c ****     }
 1063              		.loc 1 197 16 view .LVU256
 1064              	.LBE4:
 163:SynaptiX_FDK/components/modules/external_flash/sx_W25Q128.c ****         uint32_t page_offset = (addr + offset) % W25Q128_PAGE_SIZE;
 1065              		.loc 1 163 19 is_stmt 1 view .LVU257
 1066 00d8 039B     		ldr	r3, [sp, #12]
 1067 00da 9845     		cmp	r8, r3
 1068 00dc 1CD2     		bcs	.L87
 1069              	.LBB5:
 164:SynaptiX_FDK/components/modules/external_flash/sx_W25Q128.c ****         uint32_t chunk = W25Q128_PAGE_SIZE - page_offset;
 1070              		.loc 1 164 9 view .LVU258
 164:SynaptiX_FDK/components/modules/external_flash/sx_W25Q128.c ****         uint32_t chunk = W25Q128_PAGE_SIZE - page_offset;
 1071              		.loc 1 164 38 is_stmt 0 view .LVU259
 1072 00de 049B     		ldr	r3, [sp, #16]
 1073 00e0 08EB0304 		add	r4, r8, r3
 164:SynaptiX_FDK/components/modules/external_flash/sx_W25Q128.c ****         uint32_t chunk = W25Q128_PAGE_SIZE - page_offset;
 1074              		.loc 1 164 18 view .LVU260
 1075 00e4 E3B2     		uxtb	r3, r4
 1076              	.LVL80:
 165:SynaptiX_FDK/components/modules/external_flash/sx_W25Q128.c ****         if (chunk > (len - offset)) chunk = len - offset;
 1077              		.loc 1 165 9 is_stmt 1 view .LVU261
 165:SynaptiX_FDK/components/modules/external_flash/sx_W25Q128.c ****         if (chunk > (len - offset)) chunk = len - offset;
 1078              		.loc 1 165 18 is_stmt 0 view .LVU262
 1079 00e6 C3F58073 		rsb	r3, r3, #256
 1080              	.LVL81:
 166:SynaptiX_FDK/components/modules/external_flash/sx_W25Q128.c **** 
 1081              		.loc 1 166 9 is_stmt 1 view .LVU263
 166:SynaptiX_FDK/components/modules/external_flash/sx_W25Q128.c **** 
 1082              		.loc 1 166 26 is_stmt 0 view .LVU264
 1083 00ea 039A     		ldr	r2, [sp, #12]
 1084 00ec A2EB0806 		sub	r6, r2, r8
 166:SynaptiX_FDK/components/modules/external_flash/sx_W25Q128.c **** 
 1085              		.loc 1 166 12 view .LVU265
 1086 00f0 9E42     		cmp	r6, r3
 1087 00f2 9DD3     		bcc	.L75
 165:SynaptiX_FDK/components/modules/external_flash/sx_W25Q128.c ****         if (chunk > (len - offset)) chunk = len - offset;
ARM GAS  C:\Users\DELL\AppData\Local\Temp\cck5XDKB.s 			page 29


 1088              		.loc 1 165 18 view .LVU266
 1089 00f4 1E46     		mov	r6, r3
 1090 00f6 9BE7     		b	.L75
 1091              	.LVL82:
 1092              	.L85:
 169:SynaptiX_FDK/components/modules/external_flash/sx_W25Q128.c ****             return -1;
 1093              		.loc 1 169 13 is_stmt 1 view .LVU267
 1094 00f8 124A     		ldr	r2, .L88+16
 1095 00fa 1049     		ldr	r1, .L88+8
 1096 00fc 0120     		movs	r0, #1
 1097 00fe FFF7FEFF 		bl	log_func
 1098              	.LVL83:
 170:SynaptiX_FDK/components/modules/external_flash/sx_W25Q128.c ****         }
 1099              		.loc 1 170 13 view .LVU268
 1100              	.L77:
 170:SynaptiX_FDK/components/modules/external_flash/sx_W25Q128.c ****         }
 1101              		.loc 1 170 20 is_stmt 0 discriminator 1 view .LVU269
 1102 0102 4FF0FF30 		mov	r0, #-1
 1103              	.LVL84:
 1104              	.L72:
 170:SynaptiX_FDK/components/modules/external_flash/sx_W25Q128.c ****         }
 1105              		.loc 1 170 20 discriminator 1 view .LVU270
 1106              	.LBE5:
 200:SynaptiX_FDK/components/modules/external_flash/sx_W25Q128.c **** 
 1107              		.loc 1 200 1 view .LVU271
 1108 0106 4DB0     		add	sp, sp, #308
 1109              	.LCFI27:
 1110              		.cfi_remember_state
 1111              		.cfi_def_cfa_offset 36
 1112              		@ sp needed
 1113 0108 BDE8F08F 		pop	{r4, r5, r6, r7, r8, r9, r10, fp, pc}
 1114              	.LVL85:
 1115              	.L86:
 1116              	.LCFI28:
 1117              		.cfi_restore_state
 1118              	.LBB6:
 192:SynaptiX_FDK/components/modules/external_flash/sx_W25Q128.c ****             return -1;
 1119              		.loc 1 192 13 is_stmt 1 view .LVU272
 1120 010c 0E4A     		ldr	r2, .L88+20
 1121 010e 0B49     		ldr	r1, .L88+8
 1122 0110 0120     		movs	r0, #1
 1123 0112 FFF7FEFF 		bl	log_func
 1124              	.LVL86:
 193:SynaptiX_FDK/components/modules/external_flash/sx_W25Q128.c ****         }
 1125              		.loc 1 193 13 view .LVU273
 193:SynaptiX_FDK/components/modules/external_flash/sx_W25Q128.c ****         }
 1126              		.loc 1 193 20 is_stmt 0 view .LVU274
 1127 0116 F4E7     		b	.L77
 1128              	.LVL87:
 1129              	.L87:
 193:SynaptiX_FDK/components/modules/external_flash/sx_W25Q128.c ****         }
 1130              		.loc 1 193 20 view .LVU275
 1131              	.LBE6:
 199:SynaptiX_FDK/components/modules/external_flash/sx_W25Q128.c **** }
 1132              		.loc 1 199 12 view .LVU276
 1133 0118 0020     		movs	r0, #0
 1134 011a F4E7     		b	.L72
ARM GAS  C:\Users\DELL\AppData\Local\Temp\cck5XDKB.s 			page 30


 1135              	.LVL88:
 1136              	.L80:
 160:SynaptiX_FDK/components/modules/external_flash/sx_W25Q128.c ****     if (buf == NULL || len == 0)          return -1;
 1137              		.loc 1 160 49 discriminator 3 view .LVU277
 1138 011c 4FF0FF30 		mov	r0, #-1
 1139              	.LVL89:
 160:SynaptiX_FDK/components/modules/external_flash/sx_W25Q128.c ****     if (buf == NULL || len == 0)          return -1;
 1140              		.loc 1 160 49 discriminator 3 view .LVU278
 1141 0120 F1E7     		b	.L72
 1142              	.LVL90:
 1143              	.L81:
 160:SynaptiX_FDK/components/modules/external_flash/sx_W25Q128.c ****     if (buf == NULL || len == 0)          return -1;
 1144              		.loc 1 160 49 discriminator 3 view .LVU279
 1145 0122 4FF0FF30 		mov	r0, #-1
 1146              	.LVL91:
 160:SynaptiX_FDK/components/modules/external_flash/sx_W25Q128.c ****     if (buf == NULL || len == 0)          return -1;
 1147              		.loc 1 160 49 discriminator 3 view .LVU280
 1148 0126 EEE7     		b	.L72
 1149              	.LVL92:
 1150              	.L82:
 161:SynaptiX_FDK/components/modules/external_flash/sx_W25Q128.c ****     uint32_t offset = 0;
 1151              		.loc 1 161 50 discriminator 3 view .LVU281
 1152 0128 4FF0FF30 		mov	r0, #-1
 1153              	.LVL93:
 161:SynaptiX_FDK/components/modules/external_flash/sx_W25Q128.c ****     uint32_t offset = 0;
 1154              		.loc 1 161 50 discriminator 3 view .LVU282
 1155 012c EBE7     		b	.L72
 1156              	.LVL94:
 1157              	.L83:
 161:SynaptiX_FDK/components/modules/external_flash/sx_W25Q128.c ****     uint32_t offset = 0;
 1158              		.loc 1 161 50 discriminator 3 view .LVU283
 1159 012e 4FF0FF30 		mov	r0, #-1
 1160              	.LVL95:
 161:SynaptiX_FDK/components/modules/external_flash/sx_W25Q128.c ****     uint32_t offset = 0;
 1161              		.loc 1 161 50 discriminator 3 view .LVU284
 1162 0132 E8E7     		b	.L72
 1163              	.L89:
 1164              		.align	2
 1165              	.L88:
 1166 0134 00000000 		.word	s_dev
 1167 0138 14000000 		.word	.LC9
 1168 013c 20000000 		.word	.LC1
 1169 0140 48000000 		.word	.LC10
 1170 0144 00000000 		.word	.LC8
 1171 0148 74000000 		.word	.LC11
 1172              		.cfi_endproc
 1173              	.LFE24:
 1175              		.section	.rodata.sx_W25Q128_init.str1.4,"aMS",%progbits,1
 1176              		.align	2
 1177              	.LC12:
 1178 0000 4A454445 		.ascii	"JEDEC ID mismatch: %02X %02X %02X\000"
 1178      43204944 
 1178      206D6973 
 1178      6D617463 
 1178      683A2025 
 1179 0022 0000     		.align	2
 1180              	.LC13:
ARM GAS  C:\Users\DELL\AppData\Local\Temp\cck5XDKB.s 			page 31


 1181 0024 57323551 		.ascii	"W25Q128 OK (16MB)\000"
 1181      31323820 
 1181      4F4B2028 
 1181      31364D42 
 1181      2900
 1182              		.section	.text.sx_W25Q128_init,"ax",%progbits
 1183              		.align	1
 1184              		.global	sx_W25Q128_init
 1185              		.syntax unified
 1186              		.thumb
 1187              		.thumb_func
 1189              	sx_W25Q128_init:
 1190              	.LVL96:
 1191              	.LFB21:
  86:SynaptiX_FDK/components/modules/external_flash/sx_W25Q128.c ****     dev->spi         = spi;
 1192              		.loc 1 86 1 is_stmt 1 view -0
 1193              		.cfi_startproc
 1194              		@ args = 0, pretend = 0, frame = 16
 1195              		@ frame_needed = 0, uses_anonymous_args = 0
  86:SynaptiX_FDK/components/modules/external_flash/sx_W25Q128.c ****     dev->spi         = spi;
 1196              		.loc 1 86 1 is_stmt 0 view .LVU286
 1197 0000 30B5     		push	{r4, r5, lr}
 1198              	.LCFI29:
 1199              		.cfi_def_cfa_offset 12
 1200              		.cfi_offset 4, -12
 1201              		.cfi_offset 5, -8
 1202              		.cfi_offset 14, -4
 1203 0002 87B0     		sub	sp, sp, #28
 1204              	.LCFI30:
 1205              		.cfi_def_cfa_offset 40
 1206 0004 0446     		mov	r4, r0
 1207 0006 0846     		mov	r0, r1
 1208              	.LVL97:
  87:SynaptiX_FDK/components/modules/external_flash/sx_W25Q128.c ****     dev->initialized = false;
 1209              		.loc 1 87 5 is_stmt 1 view .LVU287
  87:SynaptiX_FDK/components/modules/external_flash/sx_W25Q128.c ****     dev->initialized = false;
 1210              		.loc 1 87 22 is_stmt 0 view .LVU288
 1211 0008 2160     		str	r1, [r4]
  88:SynaptiX_FDK/components/modules/external_flash/sx_W25Q128.c ****     s_dev            = dev;
 1212              		.loc 1 88 5 is_stmt 1 view .LVU289
  88:SynaptiX_FDK/components/modules/external_flash/sx_W25Q128.c ****     s_dev            = dev;
 1213              		.loc 1 88 22 is_stmt 0 view .LVU290
 1214 000a 0025     		movs	r5, #0
 1215 000c 2571     		strb	r5, [r4, #4]
  89:SynaptiX_FDK/components/modules/external_flash/sx_W25Q128.c **** 
 1216              		.loc 1 89 5 is_stmt 1 view .LVU291
  89:SynaptiX_FDK/components/modules/external_flash/sx_W25Q128.c **** 
 1217              		.loc 1 89 22 is_stmt 0 view .LVU292
 1218 000e 1D4B     		ldr	r3, .L95
 1219 0010 1C60     		str	r4, [r3]
  98:SynaptiX_FDK/components/modules/external_flash/sx_W25Q128.c ****     sx_spi_write(dev->spi, &wake, 1);
 1220              		.loc 1 98 5 is_stmt 1 view .LVU293
  98:SynaptiX_FDK/components/modules/external_flash/sx_W25Q128.c ****     sx_spi_write(dev->spi, &wake, 1);
 1221              		.loc 1 98 13 is_stmt 0 view .LVU294
 1222 0012 AB23     		movs	r3, #171
 1223 0014 8DF81730 		strb	r3, [sp, #23]
  99:SynaptiX_FDK/components/modules/external_flash/sx_W25Q128.c ****     sx_delay_ms(1);
ARM GAS  C:\Users\DELL\AppData\Local\Temp\cck5XDKB.s 			page 32


 1224              		.loc 1 99 5 is_stmt 1 view .LVU295
 1225 0018 0122     		movs	r2, #1
 1226 001a 0DF11701 		add	r1, sp, #23
 1227              	.LVL98:
  99:SynaptiX_FDK/components/modules/external_flash/sx_W25Q128.c ****     sx_delay_ms(1);
 1228              		.loc 1 99 5 is_stmt 0 view .LVU296
 1229 001e FFF7FEFF 		bl	sx_spi_write
 1230              	.LVL99:
 100:SynaptiX_FDK/components/modules/external_flash/sx_W25Q128.c ****     w25q_wait_busy();
 1231              		.loc 1 100 5 is_stmt 1 view .LVU297
 1232 0022 0120     		movs	r0, #1
 1233 0024 FFF7FEFF 		bl	sx_delay_ms
 1234              	.LVL100:
 101:SynaptiX_FDK/components/modules/external_flash/sx_W25Q128.c **** 
 1235              		.loc 1 101 5 view .LVU298
 1236 0028 FFF7FEFF 		bl	w25q_wait_busy
 1237              	.LVL101:
 103:SynaptiX_FDK/components/modules/external_flash/sx_W25Q128.c ****     uint8_t rx[4] = { 0 };
 1238              		.loc 1 103 5 view .LVU299
 103:SynaptiX_FDK/components/modules/external_flash/sx_W25Q128.c ****     uint8_t rx[4] = { 0 };
 1239              		.loc 1 103 13 is_stmt 0 view .LVU300
 1240 002c 9F23     		movs	r3, #159
 1241 002e 0493     		str	r3, [sp, #16]
 104:SynaptiX_FDK/components/modules/external_flash/sx_W25Q128.c ****     sx_spi_write_read(dev->spi, tx, rx, 4);
 1242              		.loc 1 104 5 is_stmt 1 view .LVU301
 104:SynaptiX_FDK/components/modules/external_flash/sx_W25Q128.c ****     sx_spi_write_read(dev->spi, tx, rx, 4);
 1243              		.loc 1 104 13 is_stmt 0 view .LVU302
 1244 0030 0395     		str	r5, [sp, #12]
 105:SynaptiX_FDK/components/modules/external_flash/sx_W25Q128.c **** 
 1245              		.loc 1 105 5 is_stmt 1 view .LVU303
 1246 0032 0423     		movs	r3, #4
 1247 0034 03AA     		add	r2, sp, #12
 1248 0036 04A9     		add	r1, sp, #16
 1249 0038 2068     		ldr	r0, [r4]
 1250 003a FFF7FEFF 		bl	sx_spi_write_read
 1251              	.LVL102:
 107:SynaptiX_FDK/components/modules/external_flash/sx_W25Q128.c ****         log_error(TAG, "JEDEC ID mismatch: %02X %02X %02X", rx[1], rx[2], rx[3]);
 1252              		.loc 1 107 5 view .LVU304
 107:SynaptiX_FDK/components/modules/external_flash/sx_W25Q128.c ****         log_error(TAG, "JEDEC ID mismatch: %02X %02X %02X", rx[1], rx[2], rx[3]);
 1253              		.loc 1 107 11 is_stmt 0 view .LVU305
 1254 003e 9DF80D30 		ldrb	r3, [sp, #13]	@ zero_extendqisi2
 107:SynaptiX_FDK/components/modules/external_flash/sx_W25Q128.c ****         log_error(TAG, "JEDEC ID mismatch: %02X %02X %02X", rx[1], rx[2], rx[3]);
 1255              		.loc 1 107 8 view .LVU306
 1256 0042 EF2B     		cmp	r3, #239
 1257 0044 07D1     		bne	.L91
 107:SynaptiX_FDK/components/modules/external_flash/sx_W25Q128.c ****         log_error(TAG, "JEDEC ID mismatch: %02X %02X %02X", rx[1], rx[2], rx[3]);
 1258              		.loc 1 107 28 discriminator 1 view .LVU307
 1259 0046 9DF80E20 		ldrb	r2, [sp, #14]	@ zero_extendqisi2
 107:SynaptiX_FDK/components/modules/external_flash/sx_W25Q128.c ****         log_error(TAG, "JEDEC ID mismatch: %02X %02X %02X", rx[1], rx[2], rx[3]);
 1260              		.loc 1 107 23 discriminator 1 view .LVU308
 1261 004a 402A     		cmp	r2, #64
 1262 004c 03D1     		bne	.L91
 107:SynaptiX_FDK/components/modules/external_flash/sx_W25Q128.c ****         log_error(TAG, "JEDEC ID mismatch: %02X %02X %02X", rx[1], rx[2], rx[3]);
 1263              		.loc 1 107 45 discriminator 2 view .LVU309
 1264 004e 9DF80F20 		ldrb	r2, [sp, #15]	@ zero_extendqisi2
 107:SynaptiX_FDK/components/modules/external_flash/sx_W25Q128.c ****         log_error(TAG, "JEDEC ID mismatch: %02X %02X %02X", rx[1], rx[2], rx[3]);
 1265              		.loc 1 107 40 discriminator 2 view .LVU310
ARM GAS  C:\Users\DELL\AppData\Local\Temp\cck5XDKB.s 			page 33


 1266 0052 182A     		cmp	r2, #24
 1267 0054 0DD0     		beq	.L92
 1268              	.L91:
 108:SynaptiX_FDK/components/modules/external_flash/sx_W25Q128.c ****         return false;
 1269              		.loc 1 108 9 is_stmt 1 view .LVU311
 1270 0056 9DF80E20 		ldrb	r2, [sp, #14]	@ zero_extendqisi2
 1271 005a 9DF80F10 		ldrb	r1, [sp, #15]	@ zero_extendqisi2
 1272 005e 0191     		str	r1, [sp, #4]
 1273 0060 0092     		str	r2, [sp]
 1274 0062 094A     		ldr	r2, .L95+4
 1275 0064 0949     		ldr	r1, .L95+8
 1276 0066 0120     		movs	r0, #1
 1277 0068 FFF7FEFF 		bl	log_func
 1278              	.LVL103:
 109:SynaptiX_FDK/components/modules/external_flash/sx_W25Q128.c ****     }
 1279              		.loc 1 109 9 view .LVU312
 109:SynaptiX_FDK/components/modules/external_flash/sx_W25Q128.c ****     }
 1280              		.loc 1 109 16 is_stmt 0 view .LVU313
 1281 006c 0020     		movs	r0, #0
 1282              	.L93:
 115:SynaptiX_FDK/components/modules/external_flash/sx_W25Q128.c **** 
 1283              		.loc 1 115 1 view .LVU314
 1284 006e 07B0     		add	sp, sp, #28
 1285              	.LCFI31:
 1286              		.cfi_remember_state
 1287              		.cfi_def_cfa_offset 12
 1288              		@ sp needed
 1289 0070 30BD     		pop	{r4, r5, pc}
 1290              	.LVL104:
 1291              	.L92:
 1292              	.LCFI32:
 1293              		.cfi_restore_state
 112:SynaptiX_FDK/components/modules/external_flash/sx_W25Q128.c ****     log_info(TAG, "W25Q128 OK (16MB)");
 1294              		.loc 1 112 5 is_stmt 1 view .LVU315
 112:SynaptiX_FDK/components/modules/external_flash/sx_W25Q128.c ****     log_info(TAG, "W25Q128 OK (16MB)");
 1295              		.loc 1 112 22 is_stmt 0 view .LVU316
 1296 0072 0125     		movs	r5, #1
 1297 0074 2571     		strb	r5, [r4, #4]
 113:SynaptiX_FDK/components/modules/external_flash/sx_W25Q128.c ****     return true;
 1298              		.loc 1 113 5 is_stmt 1 view .LVU317
 1299 0076 064A     		ldr	r2, .L95+12
 1300 0078 0449     		ldr	r1, .L95+8
 1301 007a 0320     		movs	r0, #3
 1302 007c FFF7FEFF 		bl	log_func
 1303              	.LVL105:
 114:SynaptiX_FDK/components/modules/external_flash/sx_W25Q128.c **** }
 1304              		.loc 1 114 5 view .LVU318
 114:SynaptiX_FDK/components/modules/external_flash/sx_W25Q128.c **** }
 1305              		.loc 1 114 12 is_stmt 0 view .LVU319
 1306 0080 2846     		mov	r0, r5
 1307 0082 F4E7     		b	.L93
 1308              	.L96:
 1309              		.align	2
 1310              	.L95:
 1311 0084 00000000 		.word	s_dev
 1312 0088 00000000 		.word	.LC12
 1313 008c 20000000 		.word	.LC1
ARM GAS  C:\Users\DELL\AppData\Local\Temp\cck5XDKB.s 			page 34


 1314 0090 24000000 		.word	.LC13
 1315              		.cfi_endproc
 1316              	.LFE21:
 1318              		.section	.rodata.sx_W25Q128_chip_erase.str1.4,"aMS",%progbits,1
 1319              		.align	2
 1320              	.LC14:
 1321 0000 43686970 		.ascii	"Chip erase done\000"
 1321      20657261 
 1321      73652064 
 1321      6F6E6500 
 1322              		.section	.text.sx_W25Q128_chip_erase,"ax",%progbits
 1323              		.align	1
 1324              		.global	sx_W25Q128_chip_erase
 1325              		.syntax unified
 1326              		.thumb
 1327              		.thumb_func
 1329              	sx_W25Q128_chip_erase:
 1330              	.LVL106:
 1331              	.LFB26:
 224:SynaptiX_FDK/components/modules/external_flash/sx_W25Q128.c **** 
 225:SynaptiX_FDK/components/modules/external_flash/sx_W25Q128.c **** void sx_W25Q128_chip_erase(sx_W25Q128_t *dev)
 226:SynaptiX_FDK/components/modules/external_flash/sx_W25Q128.c **** {
 1332              		.loc 1 226 1 is_stmt 1 view -0
 1333              		.cfi_startproc
 1334              		@ args = 0, pretend = 0, frame = 8
 1335              		@ frame_needed = 0, uses_anonymous_args = 0
 1336              		.loc 1 226 1 is_stmt 0 view .LVU321
 1337 0000 10B5     		push	{r4, lr}
 1338              	.LCFI33:
 1339              		.cfi_def_cfa_offset 8
 1340              		.cfi_offset 4, -8
 1341              		.cfi_offset 14, -4
 1342 0002 82B0     		sub	sp, sp, #8
 1343              	.LCFI34:
 1344              		.cfi_def_cfa_offset 16
 1345 0004 0446     		mov	r4, r0
 227:SynaptiX_FDK/components/modules/external_flash/sx_W25Q128.c ****     s_dev = dev;
 1346              		.loc 1 227 5 is_stmt 1 view .LVU322
 1347              		.loc 1 227 11 is_stmt 0 view .LVU323
 1348 0006 0B4B     		ldr	r3, .L99
 1349 0008 1860     		str	r0, [r3]
 228:SynaptiX_FDK/components/modules/external_flash/sx_W25Q128.c ****     w25q_write_enable();
 1350              		.loc 1 228 5 is_stmt 1 view .LVU324
 1351 000a FFF7FEFF 		bl	w25q_write_enable
 1352              	.LVL107:
 229:SynaptiX_FDK/components/modules/external_flash/sx_W25Q128.c ****     uint8_t cmd = W25Q128_CMD_CHIP_ERASE;
 1353              		.loc 1 229 5 view .LVU325
 1354              		.loc 1 229 13 is_stmt 0 view .LVU326
 1355 000e C723     		movs	r3, #199
 1356 0010 8DF80730 		strb	r3, [sp, #7]
 230:SynaptiX_FDK/components/modules/external_flash/sx_W25Q128.c ****     sx_spi_write(dev->spi, &cmd, 1);
 1357              		.loc 1 230 5 is_stmt 1 view .LVU327
 1358 0014 0122     		movs	r2, #1
 1359 0016 0DF10701 		add	r1, sp, #7
 1360 001a 2068     		ldr	r0, [r4]
 1361 001c FFF7FEFF 		bl	sx_spi_write
 1362              	.LVL108:
ARM GAS  C:\Users\DELL\AppData\Local\Temp\cck5XDKB.s 			page 35


 231:SynaptiX_FDK/components/modules/external_flash/sx_W25Q128.c ****     w25q_wait_busy_long(200000);    
 1363              		.loc 1 231 5 view .LVU328
 1364 0020 0548     		ldr	r0, .L99+4
 1365 0022 FFF7FEFF 		bl	w25q_wait_busy_long
 1366              	.LVL109:
 232:SynaptiX_FDK/components/modules/external_flash/sx_W25Q128.c ****     log_info("W25Q128", "Chip erase done");
 1367              		.loc 1 232 5 view .LVU329
 1368 0026 054A     		ldr	r2, .L99+8
 1369 0028 0549     		ldr	r1, .L99+12
 1370 002a 0320     		movs	r0, #3
 1371 002c FFF7FEFF 		bl	log_func
 1372              	.LVL110:
 233:SynaptiX_FDK/components/modules/external_flash/sx_W25Q128.c **** }
 1373              		.loc 1 233 1 is_stmt 0 view .LVU330
 1374 0030 02B0     		add	sp, sp, #8
 1375              	.LCFI35:
 1376              		.cfi_def_cfa_offset 8
 1377              		@ sp needed
 1378 0032 10BD     		pop	{r4, pc}
 1379              	.LVL111:
 1380              	.L100:
 1381              		.loc 1 233 1 view .LVU331
 1382              		.align	2
 1383              	.L99:
 1384 0034 00000000 		.word	s_dev
 1385 0038 400D0300 		.word	200000
 1386 003c 00000000 		.word	.LC14
 1387 0040 20000000 		.word	.LC1
 1388              		.cfi_endproc
 1389              	.LFE26:
 1391              		.section	.text.sx_W25Q128_sleep_on,"ax",%progbits
 1392              		.align	1
 1393              		.global	sx_W25Q128_sleep_on
 1394              		.syntax unified
 1395              		.thumb
 1396              		.thumb_func
 1398              	sx_W25Q128_sleep_on:
 1399              	.LVL112:
 1400              	.LFB27:
 234:SynaptiX_FDK/components/modules/external_flash/sx_W25Q128.c **** 
 235:SynaptiX_FDK/components/modules/external_flash/sx_W25Q128.c **** void sx_W25Q128_sleep_on(sx_W25Q128_t *dev){
 1401              		.loc 1 235 44 is_stmt 1 view -0
 1402              		.cfi_startproc
 1403              		@ args = 0, pretend = 0, frame = 8
 1404              		@ frame_needed = 0, uses_anonymous_args = 0
 1405              		.loc 1 235 44 is_stmt 0 view .LVU333
 1406 0000 10B5     		push	{r4, lr}
 1407              	.LCFI36:
 1408              		.cfi_def_cfa_offset 8
 1409              		.cfi_offset 4, -8
 1410              		.cfi_offset 14, -4
 1411 0002 82B0     		sub	sp, sp, #8
 1412              	.LCFI37:
 1413              		.cfi_def_cfa_offset 16
 1414 0004 0446     		mov	r4, r0
 236:SynaptiX_FDK/components/modules/external_flash/sx_W25Q128.c ****     uint8_t cmd = W25Q128_CMD_POWER_DOWN;
 1415              		.loc 1 236 5 is_stmt 1 view .LVU334
ARM GAS  C:\Users\DELL\AppData\Local\Temp\cck5XDKB.s 			page 36


 1416              		.loc 1 236 13 is_stmt 0 view .LVU335
 1417 0006 B923     		movs	r3, #185
 1418 0008 8DF80730 		strb	r3, [sp, #7]
 237:SynaptiX_FDK/components/modules/external_flash/sx_W25Q128.c ****     sx_spi_write(dev->spi, &cmd, 1);
 1419              		.loc 1 237 5 is_stmt 1 view .LVU336
 1420 000c 0122     		movs	r2, #1
 1421 000e 0DF10701 		add	r1, sp, #7
 1422 0012 0068     		ldr	r0, [r0]
 1423              	.LVL113:
 1424              		.loc 1 237 5 is_stmt 0 view .LVU337
 1425 0014 FFF7FEFF 		bl	sx_spi_write
 1426              	.LVL114:
 238:SynaptiX_FDK/components/modules/external_flash/sx_W25Q128.c ****     dev->initialized = false;
 1427              		.loc 1 238 5 is_stmt 1 view .LVU338
 1428              		.loc 1 238 22 is_stmt 0 view .LVU339
 1429 0018 0023     		movs	r3, #0
 1430 001a 2371     		strb	r3, [r4, #4]
 239:SynaptiX_FDK/components/modules/external_flash/sx_W25Q128.c **** }
 1431              		.loc 1 239 1 view .LVU340
 1432 001c 02B0     		add	sp, sp, #8
 1433              	.LCFI38:
 1434              		.cfi_def_cfa_offset 8
 1435              		@ sp needed
 1436 001e 10BD     		pop	{r4, pc}
 1437              		.loc 1 239 1 view .LVU341
 1438              		.cfi_endproc
 1439              	.LFE27:
 1441              		.section	.text.sx_W25Q128_sleep_off,"ax",%progbits
 1442              		.align	1
 1443              		.global	sx_W25Q128_sleep_off
 1444              		.syntax unified
 1445              		.thumb
 1446              		.thumb_func
 1448              	sx_W25Q128_sleep_off:
 1449              	.LVL115:
 1450              	.LFB28:
 240:SynaptiX_FDK/components/modules/external_flash/sx_W25Q128.c **** 
 241:SynaptiX_FDK/components/modules/external_flash/sx_W25Q128.c **** void sx_W25Q128_sleep_off(sx_W25Q128_t *dev){
 1451              		.loc 1 241 45 is_stmt 1 view -0
 1452              		.cfi_startproc
 1453              		@ args = 0, pretend = 0, frame = 8
 1454              		@ frame_needed = 0, uses_anonymous_args = 0
 1455              		.loc 1 241 45 is_stmt 0 view .LVU343
 1456 0000 10B5     		push	{r4, lr}
 1457              	.LCFI39:
 1458              		.cfi_def_cfa_offset 8
 1459              		.cfi_offset 4, -8
 1460              		.cfi_offset 14, -4
 1461 0002 82B0     		sub	sp, sp, #8
 1462              	.LCFI40:
 1463              		.cfi_def_cfa_offset 16
 1464 0004 0446     		mov	r4, r0
 242:SynaptiX_FDK/components/modules/external_flash/sx_W25Q128.c ****     uint8_t cmd = W25Q128_CMD_RELEASE_POWER_DOWN;
 1465              		.loc 1 242 5 is_stmt 1 view .LVU344
 1466              		.loc 1 242 13 is_stmt 0 view .LVU345
 1467 0006 AB23     		movs	r3, #171
 1468 0008 8DF80730 		strb	r3, [sp, #7]
ARM GAS  C:\Users\DELL\AppData\Local\Temp\cck5XDKB.s 			page 37


 243:SynaptiX_FDK/components/modules/external_flash/sx_W25Q128.c ****     sx_spi_write(dev->spi, &cmd, 1);
 1469              		.loc 1 243 5 is_stmt 1 view .LVU346
 1470 000c 0122     		movs	r2, #1
 1471 000e 0DF10701 		add	r1, sp, #7
 1472 0012 0068     		ldr	r0, [r0]
 1473              	.LVL116:
 1474              		.loc 1 243 5 is_stmt 0 view .LVU347
 1475 0014 FFF7FEFF 		bl	sx_spi_write
 1476              	.LVL117:
 244:SynaptiX_FDK/components/modules/external_flash/sx_W25Q128.c ****     sx_delay_ms(5);
 1477              		.loc 1 244 5 is_stmt 1 view .LVU348
 1478 0018 0520     		movs	r0, #5
 1479 001a FFF7FEFF 		bl	sx_delay_ms
 1480              	.LVL118:
 245:SynaptiX_FDK/components/modules/external_flash/sx_W25Q128.c ****     dev->initialized = true;
 1481              		.loc 1 245 5 view .LVU349
 1482              		.loc 1 245 22 is_stmt 0 view .LVU350
 1483 001e 0123     		movs	r3, #1
 1484 0020 2371     		strb	r3, [r4, #4]
 246:SynaptiX_FDK/components/modules/external_flash/sx_W25Q128.c **** }...
 1485              		.loc 1 246 1 view .LVU351
 1486 0022 02B0     		add	sp, sp, #8
 1487              	.LCFI41:
 1488              		.cfi_def_cfa_offset 8
 1489              		@ sp needed
 1490 0024 10BD     		pop	{r4, pc}
 1491              		.loc 1 246 1 view .LVU352
 1492              		.cfi_endproc
 1493              	.LFE28:
 1495              		.global	sx_W25Q128_info
 1496              		.section	.data.sx_W25Q128_info,"aw"
 1497              		.align	2
 1500              	sx_W25Q128_info:
 1501 0000 00010000 		.word	256
 1502 0004 00100000 		.word	4096
 1503 0008 00000100 		.word	65536
 1504 000c 00000001 		.word	16777216
 1505              		.global	sx_W25Q128_ops
 1506              		.section	.data.sx_W25Q128_ops,"aw"
 1507              		.align	2
 1510              	sx_W25Q128_ops:
 1511 0000 00000000 		.word	sx_W25Q128_read
 1512 0004 00000000 		.word	sx_W25Q128_write
 1513 0008 00000000 		.word	sx_W25Q128_erase_sector
 1514 000c 00000000 		.word	sx_W25Q128_is_busy
 1515              		.section	.bss.s_dev,"aw",%nobits
 1516              		.align	2
 1519              	s_dev:
 1520 0000 00000000 		.space	4
 1521              		.text
 1522              	.Letext0:
 1523              		.file 3 "D:\\stm32cubeclt\\STM32CubeCLT_1.21.0\\GNU-tools-for-STM32\\bin\\../lib/gcc/arm-none-eabi
 1524              		.file 4 "D:\\stm32cubeclt\\STM32CubeCLT_1.21.0\\GNU-tools-for-STM32\\bin\\../lib/gcc/arm-none-eabi
 1525              		.file 5 "SynaptiX_FDK/components/peripherals/gpio/sx_gpio.h"
 1526              		.file 6 "SynaptiX_FDK/components/modules/external_flash/sx_external_flash.h"
 1527              		.file 7 "SynaptiX_FDK/components/modules/external_flash/sx_W25Q128.h"
 1528              		.file 8 "SynaptiX_FDK/services/logger/logger.h"
ARM GAS  C:\Users\DELL\AppData\Local\Temp\cck5XDKB.s 			page 38


 1529              		.file 9 "D:\\stm32cubeclt\\STM32CubeCLT_1.21.0\\GNU-tools-for-STM32\\bin\\../lib/gcc/arm-none-eabi
 1530              		.file 10 "SynaptiX_FDK/utils/delay/sx_delay.h"
 1531              		.file 11 "<built-in>"
ARM GAS  C:\Users\DELL\AppData\Local\Temp\cck5XDKB.s 			page 39

