ARM GAS  C:\Users\DELL\AppData\Local\Temp\ccsjmiMp.s 			page 1


   1              		.cpu cortex-m33
   2              		.arch armv8-m.main
   3              		.fpu fpv5-sp-d16
   4              		.arch_extension dsp
   5              		.eabi_attribute 27, 1
   6              		.eabi_attribute 28, 1
   7              		.eabi_attribute 20, 1
   8              		.eabi_attribute 21, 1
   9              		.eabi_attribute 23, 3
  10              		.eabi_attribute 24, 1
  11              		.eabi_attribute 25, 1
  12              		.eabi_attribute 26, 1
  13              		.eabi_attribute 30, 1
  14              		.eabi_attribute 34, 1
  15              		.eabi_attribute 18, 4
  16              		.file	"test_at.c"
  17              		.text
  18              	.Ltext0:
  19              		.cfi_sections	.debug_frame
  20              		.file 1 "SynaptiX_FDK/app/user/at_usb/test_at.c"
  21              		.section	.text._respond,"ax",%progbits
  22              		.align	1
  23              		.syntax unified
  24              		.thumb
  25              		.thumb_func
  27              	_respond:
  28              	.LVL0:
  29              	.LFB335:
   1:SynaptiX_FDK/app/user/at_usb/test_at.c **** #include "test_at.h"
   2:SynaptiX_FDK/app/user/at_usb/test_at.c **** #include "logger.h"
   3:SynaptiX_FDK/app/user/at_usb/test_at.c **** #include "sx_board.h"
   4:SynaptiX_FDK/app/user/at_usb/test_at.c **** 
   5:SynaptiX_FDK/app/user/at_usb/test_at.c **** static const char *TAG = "TEST_AT_USB";
   6:SynaptiX_FDK/app/user/at_usb/test_at.c **** 
   7:SynaptiX_FDK/app/user/at_usb/test_at.c **** #define NUMBER_COMMAND  4
   8:SynaptiX_FDK/app/user/at_usb/test_at.c **** 
   9:SynaptiX_FDK/app/user/at_usb/test_at.c **** #define AT              0
  10:SynaptiX_FDK/app/user/at_usb/test_at.c **** #define AT_VPN          1
  11:SynaptiX_FDK/app/user/at_usb/test_at.c **** #define AT_MQTTCONNECT  2
  12:SynaptiX_FDK/app/user/at_usb/test_at.c **** #define AT_TIMESLEEP    3
  13:SynaptiX_FDK/app/user/at_usb/test_at.c **** 
  14:SynaptiX_FDK/app/user/at_usb/test_at.c **** // const char* at_usb_command[NUMBER_COMMAND] = {"AT", "AT+VPN", "AT+MQTTCONNECT", "AT+TIMESLEEP"};
  15:SynaptiX_FDK/app/user/at_usb/test_at.c **** 
  16:SynaptiX_FDK/app/user/at_usb/test_at.c **** #define CMD_AT              "AT"
  17:SynaptiX_FDK/app/user/at_usb/test_at.c **** #define CMD_AT_VPN          "AT+VPN"
  18:SynaptiX_FDK/app/user/at_usb/test_at.c **** #define CMD_AT_MQTT         "AT+MQTTCONNECT"
  19:SynaptiX_FDK/app/user/at_usb/test_at.c **** #define CMD_AT_TIMESLEEP    "AT+TIMESLEEP"
  20:SynaptiX_FDK/app/user/at_usb/test_at.c **** 
  21:SynaptiX_FDK/app/user/at_usb/test_at.c **** #define AT_RESP_OK      "\r\nOK\r\n"
  22:SynaptiX_FDK/app/user/at_usb/test_at.c **** #define AT_RESP_ERROR   "\r\nERROR\r\n"
  23:SynaptiX_FDK/app/user/at_usb/test_at.c **** 
  24:SynaptiX_FDK/app/user/at_usb/test_at.c **** static void _respond(const char *resp)
  25:SynaptiX_FDK/app/user/at_usb/test_at.c **** {
  30              		.loc 1 25 1 view -0
  31              		.cfi_startproc
  32              		@ args = 0, pretend = 0, frame = 0
  33              		@ frame_needed = 0, uses_anonymous_args = 0
ARM GAS  C:\Users\DELL\AppData\Local\Temp\ccsjmiMp.s 			page 2


  34              		.loc 1 25 1 is_stmt 0 view .LVU1
  35 0000 10B5     		push	{r4, lr}
  36              	.LCFI0:
  37              		.cfi_def_cfa_offset 8
  38              		.cfi_offset 4, -8
  39              		.cfi_offset 14, -4
  40 0002 0446     		mov	r4, r0
  26:SynaptiX_FDK/app/user/at_usb/test_at.c ****     if (&board.usb == NULL) return;
  41              		.loc 1 26 5 is_stmt 1 view .LVU2
  27:SynaptiX_FDK/app/user/at_usb/test_at.c ****     sx_usb_tiny_write(&board.usb, (const uint8_t *)resp, strlen(resp));
  42              		.loc 1 27 5 view .LVU3
  43              		.loc 1 27 58 is_stmt 0 view .LVU4
  44 0004 FFF7FEFF 		bl	strlen
  45              	.LVL1:
  46              		.loc 1 27 58 view .LVU5
  47 0008 0246     		mov	r2, r0
  48              		.loc 1 27 5 discriminator 1 view .LVU6
  49 000a 2146     		mov	r1, r4
  50 000c 0148     		ldr	r0, .L3
  51 000e FFF7FEFF 		bl	sx_usb_tiny_write
  52              	.LVL2:
  28:SynaptiX_FDK/app/user/at_usb/test_at.c **** }
  53              		.loc 1 28 1 view .LVU7
  54 0012 10BD     		pop	{r4, pc}
  55              	.LVL3:
  56              	.L4:
  57              		.loc 1 28 1 view .LVU8
  58              		.align	2
  59              	.L3:
  60 0014 D0DD0000 		.word	board+56784
  61              		.cfi_endproc
  62              	.LFE335:
  64              		.section	.rodata._at_timesleep_set.str1.4,"aMS",%progbits,1
  65              		.align	2
  66              	.LC0:
  67 0000 4E554C4C 		.ascii	"NULL\000"
  67      00
  68 0005 000000   		.align	2
  69              	.LC1:
  70 0008 54696D65 		.ascii	"TimeSleep set: %s\000"
  70      536C6565 
  70      70207365 
  70      743A2025 
  70      7300
  71 001a 0000     		.align	2
  72              	.LC2:
  73 001c 54455354 		.ascii	"TEST_AT_USB\000"
  73      5F41545F 
  73      55534200 
  74              		.align	2
  75              	.LC3:
  76 0028 0D0A4552 		.ascii	"\015\012ERROR\015\012\000"
  76      524F520D 
  76      0A00
  77 0032 0000     		.align	2
  78              	.LC4:
  79 0034 0D0A4F4B 		.ascii	"\015\012OK\015\012\000"
ARM GAS  C:\Users\DELL\AppData\Local\Temp\ccsjmiMp.s 			page 3


  79      0D0A00
  80              		.section	.text._at_timesleep_set,"ax",%progbits
  81              		.align	1
  82              		.syntax unified
  83              		.thumb
  84              		.thumb_func
  86              	_at_timesleep_set:
  87              	.LVL4:
  88              	.LFB339:
  29:SynaptiX_FDK/app/user/at_usb/test_at.c **** 
  30:SynaptiX_FDK/app/user/at_usb/test_at.c **** static int _at_execute(AT_Command_t *cmd)
  31:SynaptiX_FDK/app/user/at_usb/test_at.c **** {
  32:SynaptiX_FDK/app/user/at_usb/test_at.c ****     log_info(TAG, "Execute: %s", cmd->command);
  33:SynaptiX_FDK/app/user/at_usb/test_at.c ****     _respond(AT_RESP_OK);
  34:SynaptiX_FDK/app/user/at_usb/test_at.c ****     return 0;
  35:SynaptiX_FDK/app/user/at_usb/test_at.c **** }
  36:SynaptiX_FDK/app/user/at_usb/test_at.c **** 
  37:SynaptiX_FDK/app/user/at_usb/test_at.c **** static int _at_vpn_set(AT_Command_t *cmd, const char *param)
  38:SynaptiX_FDK/app/user/at_usb/test_at.c **** {
  39:SynaptiX_FDK/app/user/at_usb/test_at.c ****     log_info(TAG, "VPN set: %s", param ? param : "NULL");
  40:SynaptiX_FDK/app/user/at_usb/test_at.c ****     if (param == NULL) {
  41:SynaptiX_FDK/app/user/at_usb/test_at.c ****         _respond(AT_RESP_ERROR);
  42:SynaptiX_FDK/app/user/at_usb/test_at.c ****         return -1;
  43:SynaptiX_FDK/app/user/at_usb/test_at.c ****     }
  44:SynaptiX_FDK/app/user/at_usb/test_at.c ****     _respond(AT_RESP_OK);
  45:SynaptiX_FDK/app/user/at_usb/test_at.c ****     return 0;
  46:SynaptiX_FDK/app/user/at_usb/test_at.c **** }
  47:SynaptiX_FDK/app/user/at_usb/test_at.c **** 
  48:SynaptiX_FDK/app/user/at_usb/test_at.c **** static int _at_mqtt_set(AT_Command_t *cmd, const char *param)
  49:SynaptiX_FDK/app/user/at_usb/test_at.c **** {
  50:SynaptiX_FDK/app/user/at_usb/test_at.c ****     log_info(TAG, "MQTT set: %s", param ? param : "NULL");
  51:SynaptiX_FDK/app/user/at_usb/test_at.c ****     if (param == NULL) {
  52:SynaptiX_FDK/app/user/at_usb/test_at.c ****         _respond(AT_RESP_ERROR);
  53:SynaptiX_FDK/app/user/at_usb/test_at.c ****         return -1;
  54:SynaptiX_FDK/app/user/at_usb/test_at.c ****     }
  55:SynaptiX_FDK/app/user/at_usb/test_at.c ****     _respond(AT_RESP_OK);
  56:SynaptiX_FDK/app/user/at_usb/test_at.c ****     return 0;
  57:SynaptiX_FDK/app/user/at_usb/test_at.c **** }
  58:SynaptiX_FDK/app/user/at_usb/test_at.c **** 
  59:SynaptiX_FDK/app/user/at_usb/test_at.c **** static int _at_timesleep_set(AT_Command_t *cmd, const char *param)
  60:SynaptiX_FDK/app/user/at_usb/test_at.c **** {
  89              		.loc 1 60 1 is_stmt 1 view -0
  90              		.cfi_startproc
  91              		@ args = 0, pretend = 0, frame = 0
  92              		@ frame_needed = 0, uses_anonymous_args = 0
  93              		.loc 1 60 1 is_stmt 0 view .LVU10
  94 0000 10B5     		push	{r4, lr}
  95              	.LCFI1:
  96              		.cfi_def_cfa_offset 8
  97              		.cfi_offset 4, -8
  98              		.cfi_offset 14, -4
  61:SynaptiX_FDK/app/user/at_usb/test_at.c ****     log_info(TAG, "TimeSleep set: %s", param ? param : "NULL");
  99              		.loc 1 61 5 is_stmt 1 view .LVU11
 100 0002 0C46     		mov	r4, r1
 101 0004 59B1     		cbz	r1, .L9
 102              		.loc 1 61 5 is_stmt 0 discriminator 1 view .LVU12
 103 0006 0B46     		mov	r3, r1
ARM GAS  C:\Users\DELL\AppData\Local\Temp\ccsjmiMp.s 			page 4


 104              	.L6:
 105              		.loc 1 61 5 discriminator 4 view .LVU13
 106 0008 094A     		ldr	r2, .L12
 107 000a 0A49     		ldr	r1, .L12+4
 108              	.LVL5:
 109              		.loc 1 61 5 discriminator 4 view .LVU14
 110 000c 0320     		movs	r0, #3
 111              	.LVL6:
 112              		.loc 1 61 5 discriminator 4 view .LVU15
 113 000e FFF7FEFF 		bl	log_func
 114              	.LVL7:
  62:SynaptiX_FDK/app/user/at_usb/test_at.c ****     if (param == NULL) {
 115              		.loc 1 62 5 is_stmt 1 view .LVU16
 116              		.loc 1 62 8 is_stmt 0 view .LVU17
 117 0012 34B1     		cbz	r4, .L11
  63:SynaptiX_FDK/app/user/at_usb/test_at.c ****         _respond(AT_RESP_ERROR);
  64:SynaptiX_FDK/app/user/at_usb/test_at.c ****         return -1;
  65:SynaptiX_FDK/app/user/at_usb/test_at.c ****     }
  66:SynaptiX_FDK/app/user/at_usb/test_at.c ****     _respond(AT_RESP_OK);
 118              		.loc 1 66 5 is_stmt 1 view .LVU18
 119 0014 0848     		ldr	r0, .L12+8
 120 0016 FFF7FEFF 		bl	_respond
 121              	.LVL8:
  67:SynaptiX_FDK/app/user/at_usb/test_at.c ****     return 0;
 122              		.loc 1 67 5 view .LVU19
 123              		.loc 1 67 12 is_stmt 0 view .LVU20
 124 001a 0020     		movs	r0, #0
 125              	.L5:
  68:SynaptiX_FDK/app/user/at_usb/test_at.c **** }
 126              		.loc 1 68 1 view .LVU21
 127 001c 10BD     		pop	{r4, pc}
 128              	.LVL9:
 129              	.L9:
  61:SynaptiX_FDK/app/user/at_usb/test_at.c ****     if (param == NULL) {
 130              		.loc 1 61 5 discriminator 2 view .LVU22
 131 001e 074B     		ldr	r3, .L12+12
 132 0020 F2E7     		b	.L6
 133              	.LVL10:
 134              	.L11:
  63:SynaptiX_FDK/app/user/at_usb/test_at.c ****         return -1;
 135              		.loc 1 63 9 is_stmt 1 view .LVU23
 136 0022 0748     		ldr	r0, .L12+16
 137 0024 FFF7FEFF 		bl	_respond
 138              	.LVL11:
  64:SynaptiX_FDK/app/user/at_usb/test_at.c ****     }
 139              		.loc 1 64 9 view .LVU24
  64:SynaptiX_FDK/app/user/at_usb/test_at.c ****     }
 140              		.loc 1 64 16 is_stmt 0 view .LVU25
 141 0028 4FF0FF30 		mov	r0, #-1
 142 002c F6E7     		b	.L5
 143              	.L13:
 144 002e 00BF     		.align	2
 145              	.L12:
 146 0030 08000000 		.word	.LC1
 147 0034 1C000000 		.word	.LC2
 148 0038 34000000 		.word	.LC4
 149 003c 00000000 		.word	.LC0
ARM GAS  C:\Users\DELL\AppData\Local\Temp\ccsjmiMp.s 			page 5


 150 0040 28000000 		.word	.LC3
 151              		.cfi_endproc
 152              	.LFE339:
 154              		.section	.rodata._at_mqtt_set.str1.4,"aMS",%progbits,1
 155              		.align	2
 156              	.LC5:
 157 0000 4D515454 		.ascii	"MQTT set: %s\000"
 157      20736574 
 157      3A202573 
 157      00
 158              		.section	.text._at_mqtt_set,"ax",%progbits
 159              		.align	1
 160              		.syntax unified
 161              		.thumb
 162              		.thumb_func
 164              	_at_mqtt_set:
 165              	.LVL12:
 166              	.LFB338:
  49:SynaptiX_FDK/app/user/at_usb/test_at.c ****     log_info(TAG, "MQTT set: %s", param ? param : "NULL");
 167              		.loc 1 49 1 is_stmt 1 view -0
 168              		.cfi_startproc
 169              		@ args = 0, pretend = 0, frame = 0
 170              		@ frame_needed = 0, uses_anonymous_args = 0
  49:SynaptiX_FDK/app/user/at_usb/test_at.c ****     log_info(TAG, "MQTT set: %s", param ? param : "NULL");
 171              		.loc 1 49 1 is_stmt 0 view .LVU27
 172 0000 10B5     		push	{r4, lr}
 173              	.LCFI2:
 174              		.cfi_def_cfa_offset 8
 175              		.cfi_offset 4, -8
 176              		.cfi_offset 14, -4
  50:SynaptiX_FDK/app/user/at_usb/test_at.c ****     if (param == NULL) {
 177              		.loc 1 50 5 is_stmt 1 view .LVU28
 178 0002 0C46     		mov	r4, r1
 179 0004 59B1     		cbz	r1, .L18
  50:SynaptiX_FDK/app/user/at_usb/test_at.c ****     if (param == NULL) {
 180              		.loc 1 50 5 is_stmt 0 discriminator 1 view .LVU29
 181 0006 0B46     		mov	r3, r1
 182              	.L15:
  50:SynaptiX_FDK/app/user/at_usb/test_at.c ****     if (param == NULL) {
 183              		.loc 1 50 5 discriminator 4 view .LVU30
 184 0008 094A     		ldr	r2, .L21
 185 000a 0A49     		ldr	r1, .L21+4
 186              	.LVL13:
  50:SynaptiX_FDK/app/user/at_usb/test_at.c ****     if (param == NULL) {
 187              		.loc 1 50 5 discriminator 4 view .LVU31
 188 000c 0320     		movs	r0, #3
 189              	.LVL14:
  50:SynaptiX_FDK/app/user/at_usb/test_at.c ****     if (param == NULL) {
 190              		.loc 1 50 5 discriminator 4 view .LVU32
 191 000e FFF7FEFF 		bl	log_func
 192              	.LVL15:
  51:SynaptiX_FDK/app/user/at_usb/test_at.c ****         _respond(AT_RESP_ERROR);
 193              		.loc 1 51 5 is_stmt 1 view .LVU33
  51:SynaptiX_FDK/app/user/at_usb/test_at.c ****         _respond(AT_RESP_ERROR);
 194              		.loc 1 51 8 is_stmt 0 view .LVU34
 195 0012 34B1     		cbz	r4, .L20
  55:SynaptiX_FDK/app/user/at_usb/test_at.c ****     return 0;
ARM GAS  C:\Users\DELL\AppData\Local\Temp\ccsjmiMp.s 			page 6


 196              		.loc 1 55 5 is_stmt 1 view .LVU35
 197 0014 0848     		ldr	r0, .L21+8
 198 0016 FFF7FEFF 		bl	_respond
 199              	.LVL16:
  56:SynaptiX_FDK/app/user/at_usb/test_at.c **** }
 200              		.loc 1 56 5 view .LVU36
  56:SynaptiX_FDK/app/user/at_usb/test_at.c **** }
 201              		.loc 1 56 12 is_stmt 0 view .LVU37
 202 001a 0020     		movs	r0, #0
 203              	.L14:
  57:SynaptiX_FDK/app/user/at_usb/test_at.c **** 
 204              		.loc 1 57 1 view .LVU38
 205 001c 10BD     		pop	{r4, pc}
 206              	.LVL17:
 207              	.L18:
  50:SynaptiX_FDK/app/user/at_usb/test_at.c ****     if (param == NULL) {
 208              		.loc 1 50 5 discriminator 2 view .LVU39
 209 001e 074B     		ldr	r3, .L21+12
 210 0020 F2E7     		b	.L15
 211              	.LVL18:
 212              	.L20:
  52:SynaptiX_FDK/app/user/at_usb/test_at.c ****         return -1;
 213              		.loc 1 52 9 is_stmt 1 view .LVU40
 214 0022 0748     		ldr	r0, .L21+16
 215 0024 FFF7FEFF 		bl	_respond
 216              	.LVL19:
  53:SynaptiX_FDK/app/user/at_usb/test_at.c ****     }
 217              		.loc 1 53 9 view .LVU41
  53:SynaptiX_FDK/app/user/at_usb/test_at.c ****     }
 218              		.loc 1 53 16 is_stmt 0 view .LVU42
 219 0028 4FF0FF30 		mov	r0, #-1
 220 002c F6E7     		b	.L14
 221              	.L22:
 222 002e 00BF     		.align	2
 223              	.L21:
 224 0030 00000000 		.word	.LC5
 225 0034 1C000000 		.word	.LC2
 226 0038 34000000 		.word	.LC4
 227 003c 00000000 		.word	.LC0
 228 0040 28000000 		.word	.LC3
 229              		.cfi_endproc
 230              	.LFE338:
 232              		.section	.rodata._at_vpn_set.str1.4,"aMS",%progbits,1
 233              		.align	2
 234              	.LC6:
 235 0000 56504E20 		.ascii	"VPN set: %s\000"
 235      7365743A 
 235      20257300 
 236              		.section	.text._at_vpn_set,"ax",%progbits
 237              		.align	1
 238              		.syntax unified
 239              		.thumb
 240              		.thumb_func
 242              	_at_vpn_set:
 243              	.LVL20:
 244              	.LFB337:
  38:SynaptiX_FDK/app/user/at_usb/test_at.c ****     log_info(TAG, "VPN set: %s", param ? param : "NULL");
ARM GAS  C:\Users\DELL\AppData\Local\Temp\ccsjmiMp.s 			page 7


 245              		.loc 1 38 1 is_stmt 1 view -0
 246              		.cfi_startproc
 247              		@ args = 0, pretend = 0, frame = 0
 248              		@ frame_needed = 0, uses_anonymous_args = 0
  38:SynaptiX_FDK/app/user/at_usb/test_at.c ****     log_info(TAG, "VPN set: %s", param ? param : "NULL");
 249              		.loc 1 38 1 is_stmt 0 view .LVU44
 250 0000 10B5     		push	{r4, lr}
 251              	.LCFI3:
 252              		.cfi_def_cfa_offset 8
 253              		.cfi_offset 4, -8
 254              		.cfi_offset 14, -4
  39:SynaptiX_FDK/app/user/at_usb/test_at.c ****     if (param == NULL) {
 255              		.loc 1 39 5 is_stmt 1 view .LVU45
 256 0002 0C46     		mov	r4, r1
 257 0004 59B1     		cbz	r1, .L27
  39:SynaptiX_FDK/app/user/at_usb/test_at.c ****     if (param == NULL) {
 258              		.loc 1 39 5 is_stmt 0 discriminator 1 view .LVU46
 259 0006 0B46     		mov	r3, r1
 260              	.L24:
  39:SynaptiX_FDK/app/user/at_usb/test_at.c ****     if (param == NULL) {
 261              		.loc 1 39 5 discriminator 4 view .LVU47
 262 0008 094A     		ldr	r2, .L30
 263 000a 0A49     		ldr	r1, .L30+4
 264              	.LVL21:
  39:SynaptiX_FDK/app/user/at_usb/test_at.c ****     if (param == NULL) {
 265              		.loc 1 39 5 discriminator 4 view .LVU48
 266 000c 0320     		movs	r0, #3
 267              	.LVL22:
  39:SynaptiX_FDK/app/user/at_usb/test_at.c ****     if (param == NULL) {
 268              		.loc 1 39 5 discriminator 4 view .LVU49
 269 000e FFF7FEFF 		bl	log_func
 270              	.LVL23:
  40:SynaptiX_FDK/app/user/at_usb/test_at.c ****         _respond(AT_RESP_ERROR);
 271              		.loc 1 40 5 is_stmt 1 view .LVU50
  40:SynaptiX_FDK/app/user/at_usb/test_at.c ****         _respond(AT_RESP_ERROR);
 272              		.loc 1 40 8 is_stmt 0 view .LVU51
 273 0012 34B1     		cbz	r4, .L29
  44:SynaptiX_FDK/app/user/at_usb/test_at.c ****     return 0;
 274              		.loc 1 44 5 is_stmt 1 view .LVU52
 275 0014 0848     		ldr	r0, .L30+8
 276 0016 FFF7FEFF 		bl	_respond
 277              	.LVL24:
  45:SynaptiX_FDK/app/user/at_usb/test_at.c **** }
 278              		.loc 1 45 5 view .LVU53
  45:SynaptiX_FDK/app/user/at_usb/test_at.c **** }
 279              		.loc 1 45 12 is_stmt 0 view .LVU54
 280 001a 0020     		movs	r0, #0
 281              	.L23:
  46:SynaptiX_FDK/app/user/at_usb/test_at.c **** 
 282              		.loc 1 46 1 view .LVU55
 283 001c 10BD     		pop	{r4, pc}
 284              	.LVL25:
 285              	.L27:
  39:SynaptiX_FDK/app/user/at_usb/test_at.c ****     if (param == NULL) {
 286              		.loc 1 39 5 discriminator 2 view .LVU56
 287 001e 074B     		ldr	r3, .L30+12
 288 0020 F2E7     		b	.L24
ARM GAS  C:\Users\DELL\AppData\Local\Temp\ccsjmiMp.s 			page 8


 289              	.LVL26:
 290              	.L29:
  41:SynaptiX_FDK/app/user/at_usb/test_at.c ****         return -1;
 291              		.loc 1 41 9 is_stmt 1 view .LVU57
 292 0022 0748     		ldr	r0, .L30+16
 293 0024 FFF7FEFF 		bl	_respond
 294              	.LVL27:
  42:SynaptiX_FDK/app/user/at_usb/test_at.c ****     }
 295              		.loc 1 42 9 view .LVU58
  42:SynaptiX_FDK/app/user/at_usb/test_at.c ****     }
 296              		.loc 1 42 16 is_stmt 0 view .LVU59
 297 0028 4FF0FF30 		mov	r0, #-1
 298 002c F6E7     		b	.L23
 299              	.L31:
 300 002e 00BF     		.align	2
 301              	.L30:
 302 0030 00000000 		.word	.LC6
 303 0034 1C000000 		.word	.LC2
 304 0038 34000000 		.word	.LC4
 305 003c 00000000 		.word	.LC0
 306 0040 28000000 		.word	.LC3
 307              		.cfi_endproc
 308              	.LFE337:
 310              		.section	.rodata._at_execute.str1.4,"aMS",%progbits,1
 311              		.align	2
 312              	.LC7:
 313 0000 45786563 		.ascii	"Execute: %s\000"
 313      7574653A 
 313      20257300 
 314              		.section	.text._at_execute,"ax",%progbits
 315              		.align	1
 316              		.syntax unified
 317              		.thumb
 318              		.thumb_func
 320              	_at_execute:
 321              	.LVL28:
 322              	.LFB336:
  31:SynaptiX_FDK/app/user/at_usb/test_at.c ****     log_info(TAG, "Execute: %s", cmd->command);
 323              		.loc 1 31 1 is_stmt 1 view -0
 324              		.cfi_startproc
 325              		@ args = 0, pretend = 0, frame = 0
 326              		@ frame_needed = 0, uses_anonymous_args = 0
  31:SynaptiX_FDK/app/user/at_usb/test_at.c ****     log_info(TAG, "Execute: %s", cmd->command);
 327              		.loc 1 31 1 is_stmt 0 view .LVU61
 328 0000 08B5     		push	{r3, lr}
 329              	.LCFI4:
 330              		.cfi_def_cfa_offset 8
 331              		.cfi_offset 3, -8
 332              		.cfi_offset 14, -4
  32:SynaptiX_FDK/app/user/at_usb/test_at.c ****     _respond(AT_RESP_OK);
 333              		.loc 1 32 5 is_stmt 1 view .LVU62
 334 0002 0368     		ldr	r3, [r0]
 335 0004 044A     		ldr	r2, .L34
 336 0006 0549     		ldr	r1, .L34+4
 337 0008 0320     		movs	r0, #3
 338              	.LVL29:
  32:SynaptiX_FDK/app/user/at_usb/test_at.c ****     _respond(AT_RESP_OK);
ARM GAS  C:\Users\DELL\AppData\Local\Temp\ccsjmiMp.s 			page 9


 339              		.loc 1 32 5 is_stmt 0 view .LVU63
 340 000a FFF7FEFF 		bl	log_func
 341              	.LVL30:
  33:SynaptiX_FDK/app/user/at_usb/test_at.c ****     return 0;
 342              		.loc 1 33 5 is_stmt 1 view .LVU64
 343 000e 0448     		ldr	r0, .L34+8
 344 0010 FFF7FEFF 		bl	_respond
 345              	.LVL31:
  34:SynaptiX_FDK/app/user/at_usb/test_at.c **** }
 346              		.loc 1 34 5 view .LVU65
  35:SynaptiX_FDK/app/user/at_usb/test_at.c **** 
 347              		.loc 1 35 1 is_stmt 0 view .LVU66
 348 0014 0020     		movs	r0, #0
 349 0016 08BD     		pop	{r3, pc}
 350              	.L35:
 351              		.align	2
 352              	.L34:
 353 0018 00000000 		.word	.LC7
 354 001c 1C000000 		.word	.LC2
 355 0020 34000000 		.word	.LC4
 356              		.cfi_endproc
 357              	.LFE336:
 359              		.section	.rodata.app_at_init.str1.4,"aMS",%progbits,1
 360              		.align	2
 361              	.LC8:
 362 0000 41542063 		.ascii	"AT command init OK\000"
 362      6F6D6D61 
 362      6E642069 
 362      6E697420 
 362      4F4B00
 363              		.section	.text.app_at_init,"ax",%progbits
 364              		.align	1
 365              		.global	app_at_init
 366              		.syntax unified
 367              		.thumb
 368              		.thumb_func
 370              	app_at_init:
 371              	.LFB340:
  69:SynaptiX_FDK/app/user/at_usb/test_at.c **** 
  70:SynaptiX_FDK/app/user/at_usb/test_at.c **** static AT_Command_t s_commands[NUMBER_COMMAND] = {
  71:SynaptiX_FDK/app/user/at_usb/test_at.c ****     [AT] = {
  72:SynaptiX_FDK/app/user/at_usb/test_at.c ****     .command = CMD_AT,
  73:SynaptiX_FDK/app/user/at_usb/test_at.c ****     .handler = {
  74:SynaptiX_FDK/app/user/at_usb/test_at.c ****         .execute_handler  = _at_execute,  
  75:SynaptiX_FDK/app/user/at_usb/test_at.c ****         .question_handler = NULL,
  76:SynaptiX_FDK/app/user/at_usb/test_at.c ****         .set_handler      = NULL,
  77:SynaptiX_FDK/app/user/at_usb/test_at.c ****     }
  78:SynaptiX_FDK/app/user/at_usb/test_at.c ****     },
  79:SynaptiX_FDK/app/user/at_usb/test_at.c ****     [AT_VPN] = {
  80:SynaptiX_FDK/app/user/at_usb/test_at.c ****         .command = CMD_AT_VPN,
  81:SynaptiX_FDK/app/user/at_usb/test_at.c ****         .handler = {
  82:SynaptiX_FDK/app/user/at_usb/test_at.c ****             .set_handler      = _at_vpn_set,  
  83:SynaptiX_FDK/app/user/at_usb/test_at.c ****             .question_handler = NULL,
  84:SynaptiX_FDK/app/user/at_usb/test_at.c ****             .execute_handler  = NULL,
  85:SynaptiX_FDK/app/user/at_usb/test_at.c ****         }
  86:SynaptiX_FDK/app/user/at_usb/test_at.c ****     },
  87:SynaptiX_FDK/app/user/at_usb/test_at.c ****     [AT_MQTTCONNECT] = {
ARM GAS  C:\Users\DELL\AppData\Local\Temp\ccsjmiMp.s 			page 10


  88:SynaptiX_FDK/app/user/at_usb/test_at.c ****         .command = CMD_AT_MQTT,
  89:SynaptiX_FDK/app/user/at_usb/test_at.c ****         .handler = {
  90:SynaptiX_FDK/app/user/at_usb/test_at.c ****             .set_handler      = _at_mqtt_set, 
  91:SynaptiX_FDK/app/user/at_usb/test_at.c ****             .question_handler = NULL,
  92:SynaptiX_FDK/app/user/at_usb/test_at.c ****             .execute_handler  = NULL,
  93:SynaptiX_FDK/app/user/at_usb/test_at.c ****         }
  94:SynaptiX_FDK/app/user/at_usb/test_at.c ****     },
  95:SynaptiX_FDK/app/user/at_usb/test_at.c ****     [AT_TIMESLEEP] = {
  96:SynaptiX_FDK/app/user/at_usb/test_at.c ****         .command = CMD_AT_TIMESLEEP, 
  97:SynaptiX_FDK/app/user/at_usb/test_at.c ****         .handler = {
  98:SynaptiX_FDK/app/user/at_usb/test_at.c ****             .set_handler      = _at_timesleep_set, 
  99:SynaptiX_FDK/app/user/at_usb/test_at.c ****             .question_handler = NULL,
 100:SynaptiX_FDK/app/user/at_usb/test_at.c ****             .execute_handler  = NULL,
 101:SynaptiX_FDK/app/user/at_usb/test_at.c ****         }
 102:SynaptiX_FDK/app/user/at_usb/test_at.c ****     },
 103:SynaptiX_FDK/app/user/at_usb/test_at.c **** };
 104:SynaptiX_FDK/app/user/at_usb/test_at.c **** 
 105:SynaptiX_FDK/app/user/at_usb/test_at.c **** static AT_Implementation_t s_at_impl;
 106:SynaptiX_FDK/app/user/at_usb/test_at.c **** 
 107:SynaptiX_FDK/app/user/at_usb/test_at.c **** void app_at_init(void) {
 372              		.loc 1 107 24 is_stmt 1 view -0
 373              		.cfi_startproc
 374              		@ args = 0, pretend = 0, frame = 0
 375              		@ frame_needed = 0, uses_anonymous_args = 0
 376 0000 08B5     		push	{r3, lr}
 377              	.LCFI5:
 378              		.cfi_def_cfa_offset 8
 379              		.cfi_offset 3, -8
 380              		.cfi_offset 14, -4
 108:SynaptiX_FDK/app/user/at_usb/test_at.c ****     at_init(&s_at_impl, s_commands, NUMBER_COMMAND);
 381              		.loc 1 108 5 view .LVU68
 382 0002 0422     		movs	r2, #4
 383 0004 0449     		ldr	r1, .L38
 384 0006 0548     		ldr	r0, .L38+4
 385 0008 FFF7FEFF 		bl	at_init
 386              	.LVL32:
 109:SynaptiX_FDK/app/user/at_usb/test_at.c ****     log_info(TAG, "AT command init OK");
 387              		.loc 1 109 5 view .LVU69
 388 000c 044A     		ldr	r2, .L38+8
 389 000e 0549     		ldr	r1, .L38+12
 390 0010 0320     		movs	r0, #3
 391 0012 FFF7FEFF 		bl	log_func
 392              	.LVL33:
 110:SynaptiX_FDK/app/user/at_usb/test_at.c **** }
 393              		.loc 1 110 1 is_stmt 0 view .LVU70
 394 0016 08BD     		pop	{r3, pc}
 395              	.L39:
 396              		.align	2
 397              	.L38:
 398 0018 00000000 		.word	s_commands
 399 001c 00000000 		.word	s_at_impl
 400 0020 00000000 		.word	.LC8
 401 0024 1C000000 		.word	.LC2
 402              		.cfi_endproc
 403              	.LFE340:
 405              		.section	.text.app_at_process,"ax",%progbits
 406              		.align	1
ARM GAS  C:\Users\DELL\AppData\Local\Temp\ccsjmiMp.s 			page 11


 407              		.global	app_at_process
 408              		.syntax unified
 409              		.thumb
 410              		.thumb_func
 412              	app_at_process:
 413              	.LVL34:
 414              	.LFB341:
 111:SynaptiX_FDK/app/user/at_usb/test_at.c **** 
 112:SynaptiX_FDK/app/user/at_usb/test_at.c **** void app_at_process(const char *data, size_t len) {
 415              		.loc 1 112 51 is_stmt 1 view -0
 416              		.cfi_startproc
 417              		@ args = 0, pretend = 0, frame = 0
 418              		@ frame_needed = 0, uses_anonymous_args = 0
 419              		.loc 1 112 51 is_stmt 0 view .LVU72
 420 0000 08B5     		push	{r3, lr}
 421              	.LCFI6:
 422              		.cfi_def_cfa_offset 8
 423              		.cfi_offset 3, -8
 424              		.cfi_offset 14, -4
 425 0002 0A46     		mov	r2, r1
 113:SynaptiX_FDK/app/user/at_usb/test_at.c ****     at_process_input(&s_at_impl, data, len);
 426              		.loc 1 113 5 is_stmt 1 view .LVU73
 427 0004 0146     		mov	r1, r0
 428              	.LVL35:
 429              		.loc 1 113 5 is_stmt 0 view .LVU74
 430 0006 0248     		ldr	r0, .L42
 431              	.LVL36:
 432              		.loc 1 113 5 view .LVU75
 433 0008 FFF7FEFF 		bl	at_process_input
 434              	.LVL37:
 114:SynaptiX_FDK/app/user/at_usb/test_at.c **** }
 435              		.loc 1 114 1 view .LVU76
 436 000c 08BD     		pop	{r3, pc}
 437              	.L43:
 438 000e 00BF     		.align	2
 439              	.L42:
 440 0010 00000000 		.word	s_at_impl
 441              		.cfi_endproc
 442              	.LFE341:
 444              		.section	.bss.s_at_impl,"aw",%nobits
 445              		.align	2
 448              	s_at_impl:
 449 0000 00000000 		.space	272
 449      00000000 
 449      00000000 
 449      00000000 
 449      00000000 
 450              		.section	.rodata.str1.4,"aMS",%progbits,1
 451              		.align	2
 452              	.LC9:
 453 0000 415400   		.ascii	"AT\000"
 454 0003 00       		.align	2
 455              	.LC10:
 456 0004 41542B56 		.ascii	"AT+VPN\000"
 456      504E00
 457 000b 00       		.align	2
 458              	.LC11:
ARM GAS  C:\Users\DELL\AppData\Local\Temp\ccsjmiMp.s 			page 12


 459 000c 41542B4D 		.ascii	"AT+MQTTCONNECT\000"
 459      51545443 
 459      4F4E4E45 
 459      435400
 460 001b 00       		.align	2
 461              	.LC12:
 462 001c 41542B54 		.ascii	"AT+TIMESLEEP\000"
 462      494D4553 
 462      4C454550 
 462      00
 463              		.section	.data.s_commands,"aw"
 464              		.align	2
 467              	s_commands:
 468 0000 00000000 		.word	.LC9
 469 0004 00000000 		.word	0
 470 0008 00000000 		.word	0
 471 000c 00000000 		.word	_at_execute
 472 0010 04000000 		.word	.LC10
 473 0014 00000000 		.word	0
 474 0018 00000000 		.word	_at_vpn_set
 475 001c 00000000 		.word	0
 476 0020 0C000000 		.word	.LC11
 477 0024 00000000 		.word	0
 478 0028 00000000 		.word	_at_mqtt_set
 479 002c 00000000 		.word	0
 480 0030 1C000000 		.word	.LC12
 481 0034 00000000 		.word	0
 482 0038 00000000 		.word	_at_timesleep_set
 483 003c 00000000 		.word	0
 484              		.text
 485              	.Letext0:
 486              		.file 2 "D:\\stm32cubeclt\\STM32CubeCLT_1.21.0\\GNU-tools-for-STM32\\bin\\../lib/gcc/arm-none-eabi
 487              		.file 3 "D:\\stm32cubeclt\\STM32CubeCLT_1.21.0\\GNU-tools-for-STM32\\bin\\../lib/gcc/arm-none-eabi
 488              		.file 4 "D:\\stm32cubeclt\\STM32CubeCLT_1.21.0\\GNU-tools-for-STM32\\bin\\../lib/gcc/arm-none-eabi
 489              		.file 5 "SynaptiX_FDK/app/user/at_usb/at_command.h"
 490              		.file 6 "SynaptiX_FDK/services/logger/logger.h"
 491              		.file 7 "Drivers/CMSIS/Device/ST/STM32H5xx/Include/stm32h563xx.h"
 492              		.file 8 "Drivers/STM32H5xx_HAL_Driver/Inc/stm32h5xx_hal_def.h"
 493              		.file 9 "Drivers/STM32H5xx_HAL_Driver/Inc/stm32h5xx_hal_dma.h"
 494              		.file 10 "Drivers/STM32H5xx_HAL_Driver/Inc/stm32h5xx_hal_dma_ex.h"
 495              		.file 11 "Drivers/STM32H5xx_HAL_Driver/Inc/stm32h5xx_ll_lptim.h"
 496              		.file 12 "Drivers/STM32H5xx_HAL_Driver/Inc/stm32h5xx_hal_spi.h"
 497              		.file 13 "SynaptiX_FDK/components/peripherals/gpio/sx_gpio.h"
 498              		.file 14 "SynaptiX_FDK/components/peripherals/spi/sx_spi.h"
 499              		.file 15 "SynaptiX_FDK/utils/cqueue/cqueue.h"
 500              		.file 16 "SynaptiX_FDK/components/peripherals/uart/sx_uart.h"
 501              		.file 17 "D:\\stm32cubeclt\\STM32CubeCLT_1.21.0\\GNU-tools-for-STM32\\bin\\../lib/gcc/arm-none-eab
 502              		.file 18 "SynaptiX_FDK/components/modules/gps/minmea.h"
 503              		.file 19 "SynaptiX_FDK/components/modules/gps/gps.h"
 504              		.file 20 "SynaptiX_FDK/components/modules/modem/modem.h"
 505              		.file 21 "SynaptiX_FDK/components/modules/modem_ops/modem_ops.h"
 506              		.file 22 "SynaptiX_FDK/components/modules/a76xx/a7677s.h"
 507              		.file 23 "SynaptiX_FDK/components/modules/external_flash/sx_W25Q128.h"
 508              		.file 24 "SynaptiX_FDK/app/user/sx_ex_storage/sx_ex_storage.h"
 509              		.file 25 "SynaptiX_FDK/components/peripherals/usb_cdc_tiny/sx_usb_tiny_cdc.h"
 510              		.file 26 "SynaptiX_FDK/components/peripherals/i2c/sx_i2c.h"
 511              		.file 27 "SynaptiX_FDK/components/modules/rtc/sx_ex_rtc.h"
ARM GAS  C:\Users\DELL\AppData\Local\Temp\ccsjmiMp.s 			page 13


 512              		.file 28 "SynaptiX_FDK/components/modules/imu/bno055.h"
 513              		.file 29 "SynaptiX_FDK/components/modules/sht3x/sht3x.h"
 514              		.file 30 "SynaptiX_FDK/components/modules/ads1115/ads1115.h"
 515              		.file 31 "SynaptiX_FDK/board/sx_board.h"
 516              		.file 32 "D:\\stm32cubeclt\\STM32CubeCLT_1.21.0\\GNU-tools-for-STM32\\bin\\../lib/gcc/arm-none-eab
ARM GAS  C:\Users\DELL\AppData\Local\Temp\ccsjmiMp.s 			page 14

