ARM GAS  C:\Users\DELL\AppData\Local\Temp\ccaG9TDw.s 			page 1


   1              		.cpu cortex-m33
   2              		.arch armv8-m.main
   3              		.fpu fpv5-sp-d16
   4              		.arch_extension dsp
   5              		.eabi_attribute 27, 1
   6              		.eabi_attribute 28, 1
   7              		.eabi_attribute 20, 1
   8              		.eabi_attribute 21, 1
   9              		.eabi_attribute 23, 3
  10              		.eabi_attribute 24, 1
  11              		.eabi_attribute 25, 1
  12              		.eabi_attribute 26, 1
  13              		.eabi_attribute 30, 1
  14              		.eabi_attribute 34, 1
  15              		.eabi_attribute 18, 4
  16              		.file	"tusb_fifo.c"
  17              		.text
  18              	.Ltext0:
  19              		.cfi_sections	.debug_frame
  20              		.file 1 "SynaptiX_FDK/lib/tinyusb/src/common/tusb_fifo.c"
  21              		.section	.text.advance_index,"ax",%progbits
  22              		.align	1
  23              		.syntax unified
  24              		.thumb
  25              		.thumb_func
  27              	advance_index:
  28              	.LVL0:
  29              	.LFB419:
   1:SynaptiX_FDK/lib/tinyusb/src/common/tusb_fifo.c **** /*
   2:SynaptiX_FDK/lib/tinyusb/src/common/tusb_fifo.c ****  * The MIT License (MIT)
   3:SynaptiX_FDK/lib/tinyusb/src/common/tusb_fifo.c ****  *
   4:SynaptiX_FDK/lib/tinyusb/src/common/tusb_fifo.c ****  * Copyright (c) 2019 Ha Thach (tinyusb.org)
   5:SynaptiX_FDK/lib/tinyusb/src/common/tusb_fifo.c ****  * Copyright (c) 2020 Reinhard Panhuber - rework to unmasked pointers
   6:SynaptiX_FDK/lib/tinyusb/src/common/tusb_fifo.c ****  *
   7:SynaptiX_FDK/lib/tinyusb/src/common/tusb_fifo.c ****  * Permission is hereby granted, free of charge, to any person obtaining a copy
   8:SynaptiX_FDK/lib/tinyusb/src/common/tusb_fifo.c ****  * of this software and associated documentation files (the "Software"), to deal
   9:SynaptiX_FDK/lib/tinyusb/src/common/tusb_fifo.c ****  * in the Software without restriction, including without limitation the rights
  10:SynaptiX_FDK/lib/tinyusb/src/common/tusb_fifo.c ****  * to use, copy, modify, merge, publish, distribute, sublicense, and/or sell
  11:SynaptiX_FDK/lib/tinyusb/src/common/tusb_fifo.c ****  * copies of the Software, and to permit persons to whom the Software is
  12:SynaptiX_FDK/lib/tinyusb/src/common/tusb_fifo.c ****  * furnished to do so, subject to the following conditions:
  13:SynaptiX_FDK/lib/tinyusb/src/common/tusb_fifo.c ****  *
  14:SynaptiX_FDK/lib/tinyusb/src/common/tusb_fifo.c ****  * The above copyright notice and this permission notice shall be included in
  15:SynaptiX_FDK/lib/tinyusb/src/common/tusb_fifo.c ****  * all copies or substantial portions of the Software.
  16:SynaptiX_FDK/lib/tinyusb/src/common/tusb_fifo.c ****  *
  17:SynaptiX_FDK/lib/tinyusb/src/common/tusb_fifo.c ****  * THE SOFTWARE IS PROVIDED "AS IS", WITHOUT WARRANTY OF ANY KIND, EXPRESS OR
  18:SynaptiX_FDK/lib/tinyusb/src/common/tusb_fifo.c ****  * IMPLIED, INCLUDING BUT NOT LIMITED TO THE WARRANTIES OF MERCHANTABILITY,
  19:SynaptiX_FDK/lib/tinyusb/src/common/tusb_fifo.c ****  * FITNESS FOR A PARTICULAR PURPOSE AND NONINFRINGEMENT. IN NO EVENT SHALL THE
  20:SynaptiX_FDK/lib/tinyusb/src/common/tusb_fifo.c ****  * AUTHORS OR COPYRIGHT HOLDERS BE LIABLE FOR ANY CLAIM, DAMAGES OR OTHER
  21:SynaptiX_FDK/lib/tinyusb/src/common/tusb_fifo.c ****  * LIABILITY, WHETHER IN AN ACTION OF CONTRACT, TORT OR OTHERWISE, ARISING FROM,
  22:SynaptiX_FDK/lib/tinyusb/src/common/tusb_fifo.c ****  * OUT OF OR IN CONNECTION WITH THE SOFTWARE OR THE USE OR OTHER DEALINGS IN
  23:SynaptiX_FDK/lib/tinyusb/src/common/tusb_fifo.c ****  * THE SOFTWARE.
  24:SynaptiX_FDK/lib/tinyusb/src/common/tusb_fifo.c ****  *
  25:SynaptiX_FDK/lib/tinyusb/src/common/tusb_fifo.c ****  * This file is part of the TinyUSB stack.
  26:SynaptiX_FDK/lib/tinyusb/src/common/tusb_fifo.c ****  */
  27:SynaptiX_FDK/lib/tinyusb/src/common/tusb_fifo.c **** 
  28:SynaptiX_FDK/lib/tinyusb/src/common/tusb_fifo.c **** #include "osal/osal.h"
  29:SynaptiX_FDK/lib/tinyusb/src/common/tusb_fifo.c **** #include "tusb_fifo.h"
ARM GAS  C:\Users\DELL\AppData\Local\Temp\ccaG9TDw.s 			page 2


  30:SynaptiX_FDK/lib/tinyusb/src/common/tusb_fifo.c **** 
  31:SynaptiX_FDK/lib/tinyusb/src/common/tusb_fifo.c **** #define TU_FIFO_DBG 0
  32:SynaptiX_FDK/lib/tinyusb/src/common/tusb_fifo.c **** 
  33:SynaptiX_FDK/lib/tinyusb/src/common/tusb_fifo.c **** 
  34:SynaptiX_FDK/lib/tinyusb/src/common/tusb_fifo.c **** #if OSAL_MUTEX_REQUIRED
  35:SynaptiX_FDK/lib/tinyusb/src/common/tusb_fifo.c **** 
  36:SynaptiX_FDK/lib/tinyusb/src/common/tusb_fifo.c **** TU_ATTR_ALWAYS_INLINE static inline void ff_lock(osal_mutex_t mutex) {
  37:SynaptiX_FDK/lib/tinyusb/src/common/tusb_fifo.c ****   if (mutex != NULL) {
  38:SynaptiX_FDK/lib/tinyusb/src/common/tusb_fifo.c ****     osal_mutex_lock(mutex, OSAL_TIMEOUT_WAIT_FOREVER);
  39:SynaptiX_FDK/lib/tinyusb/src/common/tusb_fifo.c ****   }
  40:SynaptiX_FDK/lib/tinyusb/src/common/tusb_fifo.c **** }
  41:SynaptiX_FDK/lib/tinyusb/src/common/tusb_fifo.c **** 
  42:SynaptiX_FDK/lib/tinyusb/src/common/tusb_fifo.c **** TU_ATTR_ALWAYS_INLINE static inline void ff_unlock(osal_mutex_t mutex) {
  43:SynaptiX_FDK/lib/tinyusb/src/common/tusb_fifo.c ****   if (mutex != NULL) {
  44:SynaptiX_FDK/lib/tinyusb/src/common/tusb_fifo.c ****     osal_mutex_unlock(mutex);
  45:SynaptiX_FDK/lib/tinyusb/src/common/tusb_fifo.c ****   }
  46:SynaptiX_FDK/lib/tinyusb/src/common/tusb_fifo.c **** }
  47:SynaptiX_FDK/lib/tinyusb/src/common/tusb_fifo.c **** 
  48:SynaptiX_FDK/lib/tinyusb/src/common/tusb_fifo.c **** #else
  49:SynaptiX_FDK/lib/tinyusb/src/common/tusb_fifo.c ****   #define ff_lock(_mutex)
  50:SynaptiX_FDK/lib/tinyusb/src/common/tusb_fifo.c ****   #define ff_unlock(_mutex)
  51:SynaptiX_FDK/lib/tinyusb/src/common/tusb_fifo.c **** 
  52:SynaptiX_FDK/lib/tinyusb/src/common/tusb_fifo.c **** #endif
  53:SynaptiX_FDK/lib/tinyusb/src/common/tusb_fifo.c **** 
  54:SynaptiX_FDK/lib/tinyusb/src/common/tusb_fifo.c **** //--------------------------------------------------------------------+
  55:SynaptiX_FDK/lib/tinyusb/src/common/tusb_fifo.c **** // Setup API
  56:SynaptiX_FDK/lib/tinyusb/src/common/tusb_fifo.c **** //--------------------------------------------------------------------+
  57:SynaptiX_FDK/lib/tinyusb/src/common/tusb_fifo.c **** bool tu_fifo_config(tu_fifo_t *f, void *buffer, uint16_t depth, bool overwritable) {
  58:SynaptiX_FDK/lib/tinyusb/src/common/tusb_fifo.c ****   // Limit index space to 2*depth - this allows for a fast "modulo" calculation
  59:SynaptiX_FDK/lib/tinyusb/src/common/tusb_fifo.c ****   // but limits the maximum depth to 2^16/2 = 2^15 and buffer overflows are detectable
  60:SynaptiX_FDK/lib/tinyusb/src/common/tusb_fifo.c ****   // only if overflow happens once (important for unsupervised DMA applications)
  61:SynaptiX_FDK/lib/tinyusb/src/common/tusb_fifo.c ****   if (depth > 0x8000) {
  62:SynaptiX_FDK/lib/tinyusb/src/common/tusb_fifo.c ****     return false;
  63:SynaptiX_FDK/lib/tinyusb/src/common/tusb_fifo.c ****   }
  64:SynaptiX_FDK/lib/tinyusb/src/common/tusb_fifo.c **** 
  65:SynaptiX_FDK/lib/tinyusb/src/common/tusb_fifo.c ****   ff_lock(f->mutex_wr);
  66:SynaptiX_FDK/lib/tinyusb/src/common/tusb_fifo.c ****   ff_lock(f->mutex_rd);
  67:SynaptiX_FDK/lib/tinyusb/src/common/tusb_fifo.c **** 
  68:SynaptiX_FDK/lib/tinyusb/src/common/tusb_fifo.c ****   f->buffer       = (uint8_t *)buffer;
  69:SynaptiX_FDK/lib/tinyusb/src/common/tusb_fifo.c ****   f->depth        = depth;
  70:SynaptiX_FDK/lib/tinyusb/src/common/tusb_fifo.c ****   f->overwritable = overwritable;
  71:SynaptiX_FDK/lib/tinyusb/src/common/tusb_fifo.c ****   f->rd_idx       = 0u;
  72:SynaptiX_FDK/lib/tinyusb/src/common/tusb_fifo.c ****   f->wr_idx       = 0u;
  73:SynaptiX_FDK/lib/tinyusb/src/common/tusb_fifo.c **** 
  74:SynaptiX_FDK/lib/tinyusb/src/common/tusb_fifo.c ****   ff_unlock(f->mutex_wr);
  75:SynaptiX_FDK/lib/tinyusb/src/common/tusb_fifo.c ****   ff_unlock(f->mutex_rd);
  76:SynaptiX_FDK/lib/tinyusb/src/common/tusb_fifo.c **** 
  77:SynaptiX_FDK/lib/tinyusb/src/common/tusb_fifo.c ****   return true;
  78:SynaptiX_FDK/lib/tinyusb/src/common/tusb_fifo.c **** }
  79:SynaptiX_FDK/lib/tinyusb/src/common/tusb_fifo.c **** 
  80:SynaptiX_FDK/lib/tinyusb/src/common/tusb_fifo.c **** // clear fifo by resetting read and write indices
  81:SynaptiX_FDK/lib/tinyusb/src/common/tusb_fifo.c **** void tu_fifo_clear(tu_fifo_t *f) {
  82:SynaptiX_FDK/lib/tinyusb/src/common/tusb_fifo.c ****   ff_lock(f->mutex_wr);
  83:SynaptiX_FDK/lib/tinyusb/src/common/tusb_fifo.c ****   ff_lock(f->mutex_rd);
  84:SynaptiX_FDK/lib/tinyusb/src/common/tusb_fifo.c **** 
  85:SynaptiX_FDK/lib/tinyusb/src/common/tusb_fifo.c ****   f->rd_idx = 0;
  86:SynaptiX_FDK/lib/tinyusb/src/common/tusb_fifo.c ****   f->wr_idx = 0;
ARM GAS  C:\Users\DELL\AppData\Local\Temp\ccaG9TDw.s 			page 3


  87:SynaptiX_FDK/lib/tinyusb/src/common/tusb_fifo.c **** 
  88:SynaptiX_FDK/lib/tinyusb/src/common/tusb_fifo.c ****   ff_unlock(f->mutex_wr);
  89:SynaptiX_FDK/lib/tinyusb/src/common/tusb_fifo.c ****   ff_unlock(f->mutex_rd);
  90:SynaptiX_FDK/lib/tinyusb/src/common/tusb_fifo.c **** }
  91:SynaptiX_FDK/lib/tinyusb/src/common/tusb_fifo.c **** 
  92:SynaptiX_FDK/lib/tinyusb/src/common/tusb_fifo.c **** // Change the fifo overwritable mode
  93:SynaptiX_FDK/lib/tinyusb/src/common/tusb_fifo.c **** void tu_fifo_set_overwritable(tu_fifo_t *f, bool overwritable) {
  94:SynaptiX_FDK/lib/tinyusb/src/common/tusb_fifo.c ****   if (f->overwritable == overwritable) {
  95:SynaptiX_FDK/lib/tinyusb/src/common/tusb_fifo.c ****     return;
  96:SynaptiX_FDK/lib/tinyusb/src/common/tusb_fifo.c ****   }
  97:SynaptiX_FDK/lib/tinyusb/src/common/tusb_fifo.c **** 
  98:SynaptiX_FDK/lib/tinyusb/src/common/tusb_fifo.c ****   ff_lock(f->mutex_wr);
  99:SynaptiX_FDK/lib/tinyusb/src/common/tusb_fifo.c ****   ff_lock(f->mutex_rd);
 100:SynaptiX_FDK/lib/tinyusb/src/common/tusb_fifo.c **** 
 101:SynaptiX_FDK/lib/tinyusb/src/common/tusb_fifo.c ****   f->overwritable = overwritable;
 102:SynaptiX_FDK/lib/tinyusb/src/common/tusb_fifo.c **** 
 103:SynaptiX_FDK/lib/tinyusb/src/common/tusb_fifo.c ****   ff_unlock(f->mutex_wr);
 104:SynaptiX_FDK/lib/tinyusb/src/common/tusb_fifo.c ****   ff_unlock(f->mutex_rd);
 105:SynaptiX_FDK/lib/tinyusb/src/common/tusb_fifo.c **** }
 106:SynaptiX_FDK/lib/tinyusb/src/common/tusb_fifo.c **** 
 107:SynaptiX_FDK/lib/tinyusb/src/common/tusb_fifo.c **** //--------------------------------------------------------------------+
 108:SynaptiX_FDK/lib/tinyusb/src/common/tusb_fifo.c **** // Hardware FIFO API
 109:SynaptiX_FDK/lib/tinyusb/src/common/tusb_fifo.c **** // Support different data access width and address increment scheme
 110:SynaptiX_FDK/lib/tinyusb/src/common/tusb_fifo.c **** // Can support multiple i.e both 16 and 32-bit data access if needed
 111:SynaptiX_FDK/lib/tinyusb/src/common/tusb_fifo.c **** //--------------------------------------------------------------------+
 112:SynaptiX_FDK/lib/tinyusb/src/common/tusb_fifo.c **** #if CFG_TUSB_FIFO_HWFIFO_API
 113:SynaptiX_FDK/lib/tinyusb/src/common/tusb_fifo.c ****   #if CFG_TUSB_FIFO_HWFIFO_ADDR_STRIDE > 0
 114:SynaptiX_FDK/lib/tinyusb/src/common/tusb_fifo.c ****     #define HWFIFO_ADDR_NEXT_N(_hwfifo, _const, _n) _hwfifo = (_const volatile void *)((uintptr_t)(
 115:SynaptiX_FDK/lib/tinyusb/src/common/tusb_fifo.c ****   #else
 116:SynaptiX_FDK/lib/tinyusb/src/common/tusb_fifo.c ****     #define HWFIFO_ADDR_NEXT_N(_hwfifo, _const, _n)
 117:SynaptiX_FDK/lib/tinyusb/src/common/tusb_fifo.c ****   #endif
 118:SynaptiX_FDK/lib/tinyusb/src/common/tusb_fifo.c **** 
 119:SynaptiX_FDK/lib/tinyusb/src/common/tusb_fifo.c ****   #define HWFIFO_ADDR_NEXT(_hwfifo, _const) HWFIFO_ADDR_NEXT_N(_hwfifo, _const, CFG_TUSB_FIFO_HWFIF
 120:SynaptiX_FDK/lib/tinyusb/src/common/tusb_fifo.c **** 
 121:SynaptiX_FDK/lib/tinyusb/src/common/tusb_fifo.c ****   // the fixed ratio works since in the only case of dynamic/multiple data_stride (rusb2): addr_str
 122:SynaptiX_FDK/lib/tinyusb/src/common/tusb_fifo.c ****   #define HWFIFO_ADDR_DATA_RATIO (CFG_TUSB_FIFO_HWFIFO_ADDR_STRIDE / CFG_TUSB_FIFO_HWFIFO_DATA_STRI
 123:SynaptiX_FDK/lib/tinyusb/src/common/tusb_fifo.c **** 
 124:SynaptiX_FDK/lib/tinyusb/src/common/tusb_fifo.c **** //------------- Write -------------//
 125:SynaptiX_FDK/lib/tinyusb/src/common/tusb_fifo.c ****   #ifndef CFG_TUSB_FIFO_HWFIFO_CUSTOM_WRITE
 126:SynaptiX_FDK/lib/tinyusb/src/common/tusb_fifo.c **** TU_ATTR_ALWAYS_INLINE static inline void stride_write(volatile void *hwfifo, const void *src, uint8
 127:SynaptiX_FDK/lib/tinyusb/src/common/tusb_fifo.c ****   (void)data_stride; // possible unused
 128:SynaptiX_FDK/lib/tinyusb/src/common/tusb_fifo.c ****     #if CFG_TUSB_FIFO_HWFIFO_DATA_STRIDE & 4
 129:SynaptiX_FDK/lib/tinyusb/src/common/tusb_fifo.c ****       #if CFG_TUSB_FIFO_HWFIFO_DATA_STRIDE != 4
 130:SynaptiX_FDK/lib/tinyusb/src/common/tusb_fifo.c ****   if (data_stride == 4)
 131:SynaptiX_FDK/lib/tinyusb/src/common/tusb_fifo.c ****       #endif
 132:SynaptiX_FDK/lib/tinyusb/src/common/tusb_fifo.c ****   {
 133:SynaptiX_FDK/lib/tinyusb/src/common/tusb_fifo.c ****     *((volatile uint32_t *)hwfifo) = tu_unaligned_read32(src);
 134:SynaptiX_FDK/lib/tinyusb/src/common/tusb_fifo.c ****   }
 135:SynaptiX_FDK/lib/tinyusb/src/common/tusb_fifo.c ****     #endif
 136:SynaptiX_FDK/lib/tinyusb/src/common/tusb_fifo.c **** 
 137:SynaptiX_FDK/lib/tinyusb/src/common/tusb_fifo.c ****     #if CFG_TUSB_FIFO_HWFIFO_DATA_STRIDE & 2
 138:SynaptiX_FDK/lib/tinyusb/src/common/tusb_fifo.c ****       #if CFG_TUSB_FIFO_HWFIFO_DATA_STRIDE != 2
 139:SynaptiX_FDK/lib/tinyusb/src/common/tusb_fifo.c ****   if (data_stride == 2)
 140:SynaptiX_FDK/lib/tinyusb/src/common/tusb_fifo.c ****       #endif
 141:SynaptiX_FDK/lib/tinyusb/src/common/tusb_fifo.c ****   {
 142:SynaptiX_FDK/lib/tinyusb/src/common/tusb_fifo.c ****     *((volatile uint16_t *)hwfifo) = tu_unaligned_read16(src);
 143:SynaptiX_FDK/lib/tinyusb/src/common/tusb_fifo.c ****   }
ARM GAS  C:\Users\DELL\AppData\Local\Temp\ccaG9TDw.s 			page 4


 144:SynaptiX_FDK/lib/tinyusb/src/common/tusb_fifo.c ****     #endif
 145:SynaptiX_FDK/lib/tinyusb/src/common/tusb_fifo.c **** 
 146:SynaptiX_FDK/lib/tinyusb/src/common/tusb_fifo.c ****     #if CFG_TUSB_FIFO_HWFIFO_DATA_STRIDE == 1
 147:SynaptiX_FDK/lib/tinyusb/src/common/tusb_fifo.c ****   *((volatile uint8_t *)hwfifo) = *(const uint8_t *)src;
 148:SynaptiX_FDK/lib/tinyusb/src/common/tusb_fifo.c ****     #endif
 149:SynaptiX_FDK/lib/tinyusb/src/common/tusb_fifo.c **** }
 150:SynaptiX_FDK/lib/tinyusb/src/common/tusb_fifo.c **** 
 151:SynaptiX_FDK/lib/tinyusb/src/common/tusb_fifo.c **** // Copy from fifo to fixed address buffer (usually a tx register) with TU_FIFO_FIXED_ADDR_RW32 mode
 152:SynaptiX_FDK/lib/tinyusb/src/common/tusb_fifo.c **** void tu_hwfifo_write(volatile void *hwfifo, const uint8_t *src, uint16_t len, const tu_hwfifo_acces
 153:SynaptiX_FDK/lib/tinyusb/src/common/tusb_fifo.c ****   // Write full available 16/32 bit words to dest
 154:SynaptiX_FDK/lib/tinyusb/src/common/tusb_fifo.c ****   const uint8_t data_stride = (access_mode != NULL) ? access_mode->data_stride : CFG_TUSB_FIFO_HWFI
 155:SynaptiX_FDK/lib/tinyusb/src/common/tusb_fifo.c ****   while (len >= data_stride) {
 156:SynaptiX_FDK/lib/tinyusb/src/common/tusb_fifo.c ****     stride_write(hwfifo, src, data_stride);
 157:SynaptiX_FDK/lib/tinyusb/src/common/tusb_fifo.c ****     src += data_stride;
 158:SynaptiX_FDK/lib/tinyusb/src/common/tusb_fifo.c ****     len -= data_stride;
 159:SynaptiX_FDK/lib/tinyusb/src/common/tusb_fifo.c ****     HWFIFO_ADDR_NEXT(hwfifo, );
 160:SynaptiX_FDK/lib/tinyusb/src/common/tusb_fifo.c ****   }
 161:SynaptiX_FDK/lib/tinyusb/src/common/tusb_fifo.c **** 
 162:SynaptiX_FDK/lib/tinyusb/src/common/tusb_fifo.c ****     #if CFG_TUSB_FIFO_HWFIFO_DATA_STRIDE > 1
 163:SynaptiX_FDK/lib/tinyusb/src/common/tusb_fifo.c ****       #ifdef CFG_TUSB_FIFO_HWFIFO_DATA_ODD_16BIT_ACCESS
 164:SynaptiX_FDK/lib/tinyusb/src/common/tusb_fifo.c ****   // 16-bit access is allowed for odd bytes
 165:SynaptiX_FDK/lib/tinyusb/src/common/tusb_fifo.c ****   if (len >= 2) {
 166:SynaptiX_FDK/lib/tinyusb/src/common/tusb_fifo.c ****     *((volatile uint16_t *)hwfifo) = tu_unaligned_read16(src);
 167:SynaptiX_FDK/lib/tinyusb/src/common/tusb_fifo.c ****     src += 2;
 168:SynaptiX_FDK/lib/tinyusb/src/common/tusb_fifo.c ****     len -= 2;
 169:SynaptiX_FDK/lib/tinyusb/src/common/tusb_fifo.c ****     HWFIFO_ADDR_NEXT_N(hwfifo, , 2);
 170:SynaptiX_FDK/lib/tinyusb/src/common/tusb_fifo.c ****   }
 171:SynaptiX_FDK/lib/tinyusb/src/common/tusb_fifo.c ****       #endif
 172:SynaptiX_FDK/lib/tinyusb/src/common/tusb_fifo.c **** 
 173:SynaptiX_FDK/lib/tinyusb/src/common/tusb_fifo.c ****       #ifdef CFG_TUSB_FIFO_HWFIFO_DATA_ODD_8BIT_ACCESS
 174:SynaptiX_FDK/lib/tinyusb/src/common/tusb_fifo.c ****   // 8-bit access is allowed for odd bytes
 175:SynaptiX_FDK/lib/tinyusb/src/common/tusb_fifo.c ****   while (len > 0) {
 176:SynaptiX_FDK/lib/tinyusb/src/common/tusb_fifo.c ****     *((volatile uint8_t *)hwfifo) = *src++;
 177:SynaptiX_FDK/lib/tinyusb/src/common/tusb_fifo.c ****     len--;
 178:SynaptiX_FDK/lib/tinyusb/src/common/tusb_fifo.c ****     HWFIFO_ADDR_NEXT_N(hwfifo, , 1);
 179:SynaptiX_FDK/lib/tinyusb/src/common/tusb_fifo.c ****   }
 180:SynaptiX_FDK/lib/tinyusb/src/common/tusb_fifo.c ****       #else
 181:SynaptiX_FDK/lib/tinyusb/src/common/tusb_fifo.c **** 
 182:SynaptiX_FDK/lib/tinyusb/src/common/tusb_fifo.c ****   // Write odd bytes i.e 1 byte for 16 bit or 1-3 bytes for 32 bit
 183:SynaptiX_FDK/lib/tinyusb/src/common/tusb_fifo.c ****   if (len > 0) {
 184:SynaptiX_FDK/lib/tinyusb/src/common/tusb_fifo.c ****     uint32_t tmp = 0u;
 185:SynaptiX_FDK/lib/tinyusb/src/common/tusb_fifo.c ****     memcpy(&tmp, src, len);
 186:SynaptiX_FDK/lib/tinyusb/src/common/tusb_fifo.c ****     stride_write(hwfifo, &tmp, data_stride);
 187:SynaptiX_FDK/lib/tinyusb/src/common/tusb_fifo.c ****     HWFIFO_ADDR_NEXT(hwfifo, );
 188:SynaptiX_FDK/lib/tinyusb/src/common/tusb_fifo.c ****   }
 189:SynaptiX_FDK/lib/tinyusb/src/common/tusb_fifo.c ****       #endif
 190:SynaptiX_FDK/lib/tinyusb/src/common/tusb_fifo.c ****     #endif
 191:SynaptiX_FDK/lib/tinyusb/src/common/tusb_fifo.c **** }
 192:SynaptiX_FDK/lib/tinyusb/src/common/tusb_fifo.c ****   #endif
 193:SynaptiX_FDK/lib/tinyusb/src/common/tusb_fifo.c **** 
 194:SynaptiX_FDK/lib/tinyusb/src/common/tusb_fifo.c **** //------------- Read -------------//
 195:SynaptiX_FDK/lib/tinyusb/src/common/tusb_fifo.c ****   #ifndef CFG_TUSB_FIFO_HWFIFO_CUSTOM_READ
 196:SynaptiX_FDK/lib/tinyusb/src/common/tusb_fifo.c **** TU_ATTR_ALWAYS_INLINE static inline void stride_read(const volatile void *hwfifo, void *dest, uint8
 197:SynaptiX_FDK/lib/tinyusb/src/common/tusb_fifo.c ****   (void)data_stride; // possible unused
 198:SynaptiX_FDK/lib/tinyusb/src/common/tusb_fifo.c **** 
 199:SynaptiX_FDK/lib/tinyusb/src/common/tusb_fifo.c ****     #if CFG_TUSB_FIFO_HWFIFO_DATA_STRIDE & 4
 200:SynaptiX_FDK/lib/tinyusb/src/common/tusb_fifo.c ****       #if CFG_TUSB_FIFO_HWFIFO_DATA_STRIDE != 4
ARM GAS  C:\Users\DELL\AppData\Local\Temp\ccaG9TDw.s 			page 5


 201:SynaptiX_FDK/lib/tinyusb/src/common/tusb_fifo.c ****   if (data_stride == 4)
 202:SynaptiX_FDK/lib/tinyusb/src/common/tusb_fifo.c ****       #endif
 203:SynaptiX_FDK/lib/tinyusb/src/common/tusb_fifo.c ****   {
 204:SynaptiX_FDK/lib/tinyusb/src/common/tusb_fifo.c ****     tu_unaligned_write32(dest, *((const volatile uint32_t *)hwfifo));
 205:SynaptiX_FDK/lib/tinyusb/src/common/tusb_fifo.c ****   }
 206:SynaptiX_FDK/lib/tinyusb/src/common/tusb_fifo.c ****     #endif
 207:SynaptiX_FDK/lib/tinyusb/src/common/tusb_fifo.c **** 
 208:SynaptiX_FDK/lib/tinyusb/src/common/tusb_fifo.c ****     #if CFG_TUSB_FIFO_HWFIFO_DATA_STRIDE & 2
 209:SynaptiX_FDK/lib/tinyusb/src/common/tusb_fifo.c ****       #if CFG_TUSB_FIFO_HWFIFO_DATA_STRIDE != 2
 210:SynaptiX_FDK/lib/tinyusb/src/common/tusb_fifo.c ****   if (data_stride == 2)
 211:SynaptiX_FDK/lib/tinyusb/src/common/tusb_fifo.c ****       #endif
 212:SynaptiX_FDK/lib/tinyusb/src/common/tusb_fifo.c ****   {
 213:SynaptiX_FDK/lib/tinyusb/src/common/tusb_fifo.c ****     tu_unaligned_write16(dest, *((const volatile uint16_t *)hwfifo));
 214:SynaptiX_FDK/lib/tinyusb/src/common/tusb_fifo.c ****   }
 215:SynaptiX_FDK/lib/tinyusb/src/common/tusb_fifo.c ****     #endif
 216:SynaptiX_FDK/lib/tinyusb/src/common/tusb_fifo.c **** 
 217:SynaptiX_FDK/lib/tinyusb/src/common/tusb_fifo.c ****     #if CFG_TUSB_FIFO_HWFIFO_DATA_STRIDE == 1
 218:SynaptiX_FDK/lib/tinyusb/src/common/tusb_fifo.c ****   *(uint8_t *)dest = *((const volatile uint8_t *)hwfifo);
 219:SynaptiX_FDK/lib/tinyusb/src/common/tusb_fifo.c ****     #endif
 220:SynaptiX_FDK/lib/tinyusb/src/common/tusb_fifo.c **** }
 221:SynaptiX_FDK/lib/tinyusb/src/common/tusb_fifo.c **** 
 222:SynaptiX_FDK/lib/tinyusb/src/common/tusb_fifo.c **** void tu_hwfifo_read(const volatile void *hwfifo, uint8_t *dest, uint16_t len, const tu_hwfifo_acces
 223:SynaptiX_FDK/lib/tinyusb/src/common/tusb_fifo.c ****   // Reading full available 16/32-bit hwfifo and write to fifo
 224:SynaptiX_FDK/lib/tinyusb/src/common/tusb_fifo.c ****   const uint8_t data_stride = (access_mode != NULL) ? access_mode->data_stride : CFG_TUSB_FIFO_HWFI
 225:SynaptiX_FDK/lib/tinyusb/src/common/tusb_fifo.c ****   while (len >= data_stride) {
 226:SynaptiX_FDK/lib/tinyusb/src/common/tusb_fifo.c ****     stride_read(hwfifo, dest, data_stride);
 227:SynaptiX_FDK/lib/tinyusb/src/common/tusb_fifo.c ****     dest += data_stride;
 228:SynaptiX_FDK/lib/tinyusb/src/common/tusb_fifo.c ****     len -= data_stride;
 229:SynaptiX_FDK/lib/tinyusb/src/common/tusb_fifo.c ****     HWFIFO_ADDR_NEXT(hwfifo, const);
 230:SynaptiX_FDK/lib/tinyusb/src/common/tusb_fifo.c ****   }
 231:SynaptiX_FDK/lib/tinyusb/src/common/tusb_fifo.c **** 
 232:SynaptiX_FDK/lib/tinyusb/src/common/tusb_fifo.c ****     #if CFG_TUSB_FIFO_HWFIFO_DATA_STRIDE > 1
 233:SynaptiX_FDK/lib/tinyusb/src/common/tusb_fifo.c ****       #ifdef CFG_TUSB_FIFO_HWFIFO_DATA_ODD_16BIT_ACCESS
 234:SynaptiX_FDK/lib/tinyusb/src/common/tusb_fifo.c ****   // 16-bit access is allowed for odd bytes
 235:SynaptiX_FDK/lib/tinyusb/src/common/tusb_fifo.c ****   if (len >= 2) {
 236:SynaptiX_FDK/lib/tinyusb/src/common/tusb_fifo.c ****     tu_unaligned_write16(dest, *((const volatile uint16_t *)hwfifo));
 237:SynaptiX_FDK/lib/tinyusb/src/common/tusb_fifo.c ****     dest += 2;
 238:SynaptiX_FDK/lib/tinyusb/src/common/tusb_fifo.c ****     len -= 2;
 239:SynaptiX_FDK/lib/tinyusb/src/common/tusb_fifo.c ****     HWFIFO_ADDR_NEXT_N(hwfifo, const, 2);
 240:SynaptiX_FDK/lib/tinyusb/src/common/tusb_fifo.c ****   }
 241:SynaptiX_FDK/lib/tinyusb/src/common/tusb_fifo.c ****       #endif
 242:SynaptiX_FDK/lib/tinyusb/src/common/tusb_fifo.c **** 
 243:SynaptiX_FDK/lib/tinyusb/src/common/tusb_fifo.c ****       #ifdef CFG_TUSB_FIFO_HWFIFO_DATA_ODD_8BIT_ACCESS
 244:SynaptiX_FDK/lib/tinyusb/src/common/tusb_fifo.c ****   // 8-bit access is allowed for odd bytes
 245:SynaptiX_FDK/lib/tinyusb/src/common/tusb_fifo.c ****   while (len > 0) {
 246:SynaptiX_FDK/lib/tinyusb/src/common/tusb_fifo.c ****     *dest++ = *((const volatile uint8_t *)hwfifo);
 247:SynaptiX_FDK/lib/tinyusb/src/common/tusb_fifo.c ****     len--;
 248:SynaptiX_FDK/lib/tinyusb/src/common/tusb_fifo.c ****     HWFIFO_ADDR_NEXT_N(hwfifo, const, 1);
 249:SynaptiX_FDK/lib/tinyusb/src/common/tusb_fifo.c ****   }
 250:SynaptiX_FDK/lib/tinyusb/src/common/tusb_fifo.c ****       #else
 251:SynaptiX_FDK/lib/tinyusb/src/common/tusb_fifo.c ****   // Read odd bytes i.e 1 byte for 16 bit or 1-3 bytes for 32 bit
 252:SynaptiX_FDK/lib/tinyusb/src/common/tusb_fifo.c ****   if (len > 0) {
 253:SynaptiX_FDK/lib/tinyusb/src/common/tusb_fifo.c ****     uint32_t tmp;
 254:SynaptiX_FDK/lib/tinyusb/src/common/tusb_fifo.c ****     stride_read(hwfifo, &tmp, data_stride);
 255:SynaptiX_FDK/lib/tinyusb/src/common/tusb_fifo.c ****     memcpy(dest, &tmp, len);
 256:SynaptiX_FDK/lib/tinyusb/src/common/tusb_fifo.c ****     HWFIFO_ADDR_NEXT(hwfifo, const);
 257:SynaptiX_FDK/lib/tinyusb/src/common/tusb_fifo.c ****   }
ARM GAS  C:\Users\DELL\AppData\Local\Temp\ccaG9TDw.s 			page 6


 258:SynaptiX_FDK/lib/tinyusb/src/common/tusb_fifo.c ****       #endif
 259:SynaptiX_FDK/lib/tinyusb/src/common/tusb_fifo.c ****     #endif
 260:SynaptiX_FDK/lib/tinyusb/src/common/tusb_fifo.c **** }
 261:SynaptiX_FDK/lib/tinyusb/src/common/tusb_fifo.c ****   #endif
 262:SynaptiX_FDK/lib/tinyusb/src/common/tusb_fifo.c **** 
 263:SynaptiX_FDK/lib/tinyusb/src/common/tusb_fifo.c **** // push to sw fifo from hwfifo
 264:SynaptiX_FDK/lib/tinyusb/src/common/tusb_fifo.c **** static void hwff_push_n(const tu_fifo_t *f, const void *app_buf, uint16_t n, uint16_t wr_ptr,
 265:SynaptiX_FDK/lib/tinyusb/src/common/tusb_fifo.c ****                         const tu_hwfifo_access_t *access_mode) {
 266:SynaptiX_FDK/lib/tinyusb/src/common/tusb_fifo.c ****   uint16_t lin_bytes  = f->depth - wr_ptr;
 267:SynaptiX_FDK/lib/tinyusb/src/common/tusb_fifo.c ****   uint16_t wrap_bytes = n - lin_bytes;
 268:SynaptiX_FDK/lib/tinyusb/src/common/tusb_fifo.c ****   uint8_t *ff_buf     = f->buffer + wr_ptr;
 269:SynaptiX_FDK/lib/tinyusb/src/common/tusb_fifo.c **** 
 270:SynaptiX_FDK/lib/tinyusb/src/common/tusb_fifo.c ****   const volatile void *hwfifo = (const volatile void *)app_buf;
 271:SynaptiX_FDK/lib/tinyusb/src/common/tusb_fifo.c ****   if (n <= lin_bytes) {
 272:SynaptiX_FDK/lib/tinyusb/src/common/tusb_fifo.c ****     // Linear only case
 273:SynaptiX_FDK/lib/tinyusb/src/common/tusb_fifo.c ****     tu_hwfifo_read(hwfifo, ff_buf, n, access_mode);
 274:SynaptiX_FDK/lib/tinyusb/src/common/tusb_fifo.c ****   } else {
 275:SynaptiX_FDK/lib/tinyusb/src/common/tusb_fifo.c ****     // Wrap around case
 276:SynaptiX_FDK/lib/tinyusb/src/common/tusb_fifo.c ****   #if CFG_TUSB_FIFO_HWFIFO_DATA_STRIDE == 1
 277:SynaptiX_FDK/lib/tinyusb/src/common/tusb_fifo.c ****     tu_hwfifo_read(hwfifo, ff_buf, lin_bytes, access_mode);     // linear part
 278:SynaptiX_FDK/lib/tinyusb/src/common/tusb_fifo.c ****     HWFIFO_ADDR_NEXT_N(hwfifo, const, lin_bytes);
 279:SynaptiX_FDK/lib/tinyusb/src/common/tusb_fifo.c ****     tu_hwfifo_read(hwfifo, f->buffer, wrap_bytes, access_mode); // wrapped part
 280:SynaptiX_FDK/lib/tinyusb/src/common/tusb_fifo.c ****   #else
 281:SynaptiX_FDK/lib/tinyusb/src/common/tusb_fifo.c ****     // Write full words to the linear part of the buffer
 282:SynaptiX_FDK/lib/tinyusb/src/common/tusb_fifo.c ****     const uint8_t  data_stride = access_mode->data_stride;
 283:SynaptiX_FDK/lib/tinyusb/src/common/tusb_fifo.c ****     const uint32_t odd_mask    = data_stride - 1;
 284:SynaptiX_FDK/lib/tinyusb/src/common/tusb_fifo.c ****     uint16_t       lin_even    = lin_bytes & ~odd_mask;
 285:SynaptiX_FDK/lib/tinyusb/src/common/tusb_fifo.c ****     tu_hwfifo_read(hwfifo, ff_buf, lin_even, access_mode);
 286:SynaptiX_FDK/lib/tinyusb/src/common/tusb_fifo.c ****     HWFIFO_ADDR_NEXT_N(hwfifo, const, lin_even * HWFIFO_ADDR_DATA_RATIO);
 287:SynaptiX_FDK/lib/tinyusb/src/common/tusb_fifo.c ****     ff_buf += lin_even;
 288:SynaptiX_FDK/lib/tinyusb/src/common/tusb_fifo.c **** 
 289:SynaptiX_FDK/lib/tinyusb/src/common/tusb_fifo.c ****     // There could be an odd 1 byte (16bit) or 1-3 bytes (32bit) before the wrap-around boundary
 290:SynaptiX_FDK/lib/tinyusb/src/common/tusb_fifo.c ****     // combine it with the wrapped part to form a full word for data stride
 291:SynaptiX_FDK/lib/tinyusb/src/common/tusb_fifo.c ****     const uint8_t lin_odd = lin_bytes & odd_mask;
 292:SynaptiX_FDK/lib/tinyusb/src/common/tusb_fifo.c ****     if (lin_odd > 0) {
 293:SynaptiX_FDK/lib/tinyusb/src/common/tusb_fifo.c ****       const uint8_t wrap_odd = (uint8_t)tu_min16(wrap_bytes, data_stride - lin_odd);
 294:SynaptiX_FDK/lib/tinyusb/src/common/tusb_fifo.c ****       uint8_t       buf_temp[4];
 295:SynaptiX_FDK/lib/tinyusb/src/common/tusb_fifo.c ****       tu_hwfifo_read(hwfifo, buf_temp, lin_odd + wrap_odd, access_mode);
 296:SynaptiX_FDK/lib/tinyusb/src/common/tusb_fifo.c ****       HWFIFO_ADDR_NEXT(hwfifo, const);
 297:SynaptiX_FDK/lib/tinyusb/src/common/tusb_fifo.c **** 
 298:SynaptiX_FDK/lib/tinyusb/src/common/tusb_fifo.c ****       for (uint8_t i = 0; i < lin_odd; ++i) {
 299:SynaptiX_FDK/lib/tinyusb/src/common/tusb_fifo.c ****         ff_buf[i] = buf_temp[i];
 300:SynaptiX_FDK/lib/tinyusb/src/common/tusb_fifo.c ****       }
 301:SynaptiX_FDK/lib/tinyusb/src/common/tusb_fifo.c ****       for (uint8_t i = 0; i < wrap_odd; ++i) {
 302:SynaptiX_FDK/lib/tinyusb/src/common/tusb_fifo.c ****         f->buffer[i] = buf_temp[lin_odd + i];
 303:SynaptiX_FDK/lib/tinyusb/src/common/tusb_fifo.c ****       }
 304:SynaptiX_FDK/lib/tinyusb/src/common/tusb_fifo.c **** 
 305:SynaptiX_FDK/lib/tinyusb/src/common/tusb_fifo.c ****       wrap_bytes -= wrap_odd;
 306:SynaptiX_FDK/lib/tinyusb/src/common/tusb_fifo.c ****       ff_buf = f->buffer + wrap_odd; // wrap around
 307:SynaptiX_FDK/lib/tinyusb/src/common/tusb_fifo.c ****     } else {
 308:SynaptiX_FDK/lib/tinyusb/src/common/tusb_fifo.c ****       ff_buf = f->buffer;            // wrap around to beginning
 309:SynaptiX_FDK/lib/tinyusb/src/common/tusb_fifo.c ****     }
 310:SynaptiX_FDK/lib/tinyusb/src/common/tusb_fifo.c **** 
 311:SynaptiX_FDK/lib/tinyusb/src/common/tusb_fifo.c ****     // Write data wrapped part
 312:SynaptiX_FDK/lib/tinyusb/src/common/tusb_fifo.c ****     if (wrap_bytes > 0) {
 313:SynaptiX_FDK/lib/tinyusb/src/common/tusb_fifo.c ****       tu_hwfifo_read(hwfifo, ff_buf, wrap_bytes, access_mode);
 314:SynaptiX_FDK/lib/tinyusb/src/common/tusb_fifo.c ****     }
ARM GAS  C:\Users\DELL\AppData\Local\Temp\ccaG9TDw.s 			page 7


 315:SynaptiX_FDK/lib/tinyusb/src/common/tusb_fifo.c ****   #endif
 316:SynaptiX_FDK/lib/tinyusb/src/common/tusb_fifo.c ****   }
 317:SynaptiX_FDK/lib/tinyusb/src/common/tusb_fifo.c **** }
 318:SynaptiX_FDK/lib/tinyusb/src/common/tusb_fifo.c **** 
 319:SynaptiX_FDK/lib/tinyusb/src/common/tusb_fifo.c **** // pull from sw fifo to hwfifo
 320:SynaptiX_FDK/lib/tinyusb/src/common/tusb_fifo.c **** static void hwff_pull_n(const tu_fifo_t *f, void *app_buf, uint16_t n, uint16_t rd_ptr,
 321:SynaptiX_FDK/lib/tinyusb/src/common/tusb_fifo.c ****                         const tu_hwfifo_access_t *access_mode) {
 322:SynaptiX_FDK/lib/tinyusb/src/common/tusb_fifo.c ****   uint16_t       lin_bytes  = f->depth - rd_ptr;
 323:SynaptiX_FDK/lib/tinyusb/src/common/tusb_fifo.c ****   uint16_t       wrap_bytes = n - lin_bytes; // only used if wrapped
 324:SynaptiX_FDK/lib/tinyusb/src/common/tusb_fifo.c ****   const uint8_t *ff_buf     = f->buffer + rd_ptr;
 325:SynaptiX_FDK/lib/tinyusb/src/common/tusb_fifo.c **** 
 326:SynaptiX_FDK/lib/tinyusb/src/common/tusb_fifo.c ****   volatile void *hwfifo = (volatile void *)app_buf;
 327:SynaptiX_FDK/lib/tinyusb/src/common/tusb_fifo.c **** 
 328:SynaptiX_FDK/lib/tinyusb/src/common/tusb_fifo.c ****   if (n <= lin_bytes) {
 329:SynaptiX_FDK/lib/tinyusb/src/common/tusb_fifo.c ****     // Linear only case
 330:SynaptiX_FDK/lib/tinyusb/src/common/tusb_fifo.c ****     tu_hwfifo_write(hwfifo, ff_buf, n, access_mode);
 331:SynaptiX_FDK/lib/tinyusb/src/common/tusb_fifo.c ****   } else {
 332:SynaptiX_FDK/lib/tinyusb/src/common/tusb_fifo.c ****     // Wrap around case
 333:SynaptiX_FDK/lib/tinyusb/src/common/tusb_fifo.c ****   #if CFG_TUSB_FIFO_HWFIFO_DATA_STRIDE == 1
 334:SynaptiX_FDK/lib/tinyusb/src/common/tusb_fifo.c ****     tu_hwfifo_write(hwfifo, ff_buf, lin_bytes, access_mode);     // linear part
 335:SynaptiX_FDK/lib/tinyusb/src/common/tusb_fifo.c ****     HWFIFO_ADDR_NEXT_N(hwfifo, , lin_bytes);
 336:SynaptiX_FDK/lib/tinyusb/src/common/tusb_fifo.c ****     tu_hwfifo_write(hwfifo, f->buffer, wrap_bytes, access_mode); // wrapped part
 337:SynaptiX_FDK/lib/tinyusb/src/common/tusb_fifo.c ****   #else
 338:SynaptiX_FDK/lib/tinyusb/src/common/tusb_fifo.c ****     // Read full words from linear part
 339:SynaptiX_FDK/lib/tinyusb/src/common/tusb_fifo.c ****     const uint8_t  data_stride = access_mode->data_stride;
 340:SynaptiX_FDK/lib/tinyusb/src/common/tusb_fifo.c ****     const uint32_t odd_mask    = data_stride - 1;
 341:SynaptiX_FDK/lib/tinyusb/src/common/tusb_fifo.c ****     uint16_t       lin_even    = lin_bytes & ~odd_mask;
 342:SynaptiX_FDK/lib/tinyusb/src/common/tusb_fifo.c ****     tu_hwfifo_write(hwfifo, ff_buf, lin_even, access_mode);
 343:SynaptiX_FDK/lib/tinyusb/src/common/tusb_fifo.c ****     HWFIFO_ADDR_NEXT_N(hwfifo, , lin_even * HWFIFO_ADDR_DATA_RATIO);
 344:SynaptiX_FDK/lib/tinyusb/src/common/tusb_fifo.c ****     ff_buf += lin_even;
 345:SynaptiX_FDK/lib/tinyusb/src/common/tusb_fifo.c **** 
 346:SynaptiX_FDK/lib/tinyusb/src/common/tusb_fifo.c ****     // There could be odd 1 byte (16bit) or 1-3 bytes (32bit) before the wrap-around boundary
 347:SynaptiX_FDK/lib/tinyusb/src/common/tusb_fifo.c ****     const uint8_t lin_odd = lin_bytes & odd_mask;
 348:SynaptiX_FDK/lib/tinyusb/src/common/tusb_fifo.c ****     if (lin_odd > 0) {
 349:SynaptiX_FDK/lib/tinyusb/src/common/tusb_fifo.c ****       const uint8_t wrap_odd = (uint8_t)tu_min16(wrap_bytes, data_stride - lin_odd);
 350:SynaptiX_FDK/lib/tinyusb/src/common/tusb_fifo.c **** 
 351:SynaptiX_FDK/lib/tinyusb/src/common/tusb_fifo.c ****       uint8_t buf_temp[4];
 352:SynaptiX_FDK/lib/tinyusb/src/common/tusb_fifo.c ****       for (uint8_t i = 0; i < lin_odd; ++i) {
 353:SynaptiX_FDK/lib/tinyusb/src/common/tusb_fifo.c ****         buf_temp[i] = ff_buf[i];
 354:SynaptiX_FDK/lib/tinyusb/src/common/tusb_fifo.c ****       }
 355:SynaptiX_FDK/lib/tinyusb/src/common/tusb_fifo.c ****       for (uint8_t i = 0; i < wrap_odd; ++i) {
 356:SynaptiX_FDK/lib/tinyusb/src/common/tusb_fifo.c ****         buf_temp[lin_odd + i] = f->buffer[i];
 357:SynaptiX_FDK/lib/tinyusb/src/common/tusb_fifo.c ****       }
 358:SynaptiX_FDK/lib/tinyusb/src/common/tusb_fifo.c **** 
 359:SynaptiX_FDK/lib/tinyusb/src/common/tusb_fifo.c ****       tu_hwfifo_write(hwfifo, buf_temp, lin_odd + wrap_odd, access_mode);
 360:SynaptiX_FDK/lib/tinyusb/src/common/tusb_fifo.c ****       HWFIFO_ADDR_NEXT(hwfifo, );
 361:SynaptiX_FDK/lib/tinyusb/src/common/tusb_fifo.c **** 
 362:SynaptiX_FDK/lib/tinyusb/src/common/tusb_fifo.c ****       wrap_bytes -= wrap_odd;
 363:SynaptiX_FDK/lib/tinyusb/src/common/tusb_fifo.c ****       ff_buf = f->buffer + wrap_odd; // wrap around
 364:SynaptiX_FDK/lib/tinyusb/src/common/tusb_fifo.c ****     } else {
 365:SynaptiX_FDK/lib/tinyusb/src/common/tusb_fifo.c ****       ff_buf = f->buffer;            // wrap around to beginning
 366:SynaptiX_FDK/lib/tinyusb/src/common/tusb_fifo.c ****     }
 367:SynaptiX_FDK/lib/tinyusb/src/common/tusb_fifo.c **** 
 368:SynaptiX_FDK/lib/tinyusb/src/common/tusb_fifo.c ****     // Read data wrapped part
 369:SynaptiX_FDK/lib/tinyusb/src/common/tusb_fifo.c ****     if (wrap_bytes > 0) {
 370:SynaptiX_FDK/lib/tinyusb/src/common/tusb_fifo.c ****       tu_hwfifo_write(hwfifo, ff_buf, wrap_bytes, access_mode);
 371:SynaptiX_FDK/lib/tinyusb/src/common/tusb_fifo.c ****     }
ARM GAS  C:\Users\DELL\AppData\Local\Temp\ccaG9TDw.s 			page 8


 372:SynaptiX_FDK/lib/tinyusb/src/common/tusb_fifo.c ****   #endif
 373:SynaptiX_FDK/lib/tinyusb/src/common/tusb_fifo.c ****   }
 374:SynaptiX_FDK/lib/tinyusb/src/common/tusb_fifo.c **** }
 375:SynaptiX_FDK/lib/tinyusb/src/common/tusb_fifo.c **** #endif
 376:SynaptiX_FDK/lib/tinyusb/src/common/tusb_fifo.c **** 
 377:SynaptiX_FDK/lib/tinyusb/src/common/tusb_fifo.c **** //--------------------------------------------------------------------+
 378:SynaptiX_FDK/lib/tinyusb/src/common/tusb_fifo.c **** // Pull & Push
 379:SynaptiX_FDK/lib/tinyusb/src/common/tusb_fifo.c **** // copy data to/from fifo without updating read/write pointers
 380:SynaptiX_FDK/lib/tinyusb/src/common/tusb_fifo.c **** //--------------------------------------------------------------------+
 381:SynaptiX_FDK/lib/tinyusb/src/common/tusb_fifo.c **** // send n items to fifo WITHOUT updating write pointer
 382:SynaptiX_FDK/lib/tinyusb/src/common/tusb_fifo.c **** static void ff_push_n(const tu_fifo_t *f, const void *app_buf, uint16_t n, uint16_t wr_ptr) {
 383:SynaptiX_FDK/lib/tinyusb/src/common/tusb_fifo.c ****   uint16_t lin_bytes  = f->depth - wr_ptr;
 384:SynaptiX_FDK/lib/tinyusb/src/common/tusb_fifo.c ****   uint16_t wrap_bytes = n - lin_bytes;
 385:SynaptiX_FDK/lib/tinyusb/src/common/tusb_fifo.c ****   uint8_t *ff_buf     = f->buffer + wr_ptr;
 386:SynaptiX_FDK/lib/tinyusb/src/common/tusb_fifo.c **** 
 387:SynaptiX_FDK/lib/tinyusb/src/common/tusb_fifo.c ****   if (n <= lin_bytes) {
 388:SynaptiX_FDK/lib/tinyusb/src/common/tusb_fifo.c ****     // Linear only case
 389:SynaptiX_FDK/lib/tinyusb/src/common/tusb_fifo.c ****     memcpy(ff_buf, app_buf, n);
 390:SynaptiX_FDK/lib/tinyusb/src/common/tusb_fifo.c ****   } else {
 391:SynaptiX_FDK/lib/tinyusb/src/common/tusb_fifo.c ****     // Wrap around case
 392:SynaptiX_FDK/lib/tinyusb/src/common/tusb_fifo.c ****     memcpy(ff_buf, app_buf, lin_bytes);                                    // linear part
 393:SynaptiX_FDK/lib/tinyusb/src/common/tusb_fifo.c ****     memcpy(f->buffer, ((const uint8_t *)app_buf) + lin_bytes, wrap_bytes); // wrapped part
 394:SynaptiX_FDK/lib/tinyusb/src/common/tusb_fifo.c ****   }
 395:SynaptiX_FDK/lib/tinyusb/src/common/tusb_fifo.c **** }
 396:SynaptiX_FDK/lib/tinyusb/src/common/tusb_fifo.c **** 
 397:SynaptiX_FDK/lib/tinyusb/src/common/tusb_fifo.c **** // get n items from fifo WITHOUT updating read pointer
 398:SynaptiX_FDK/lib/tinyusb/src/common/tusb_fifo.c **** static void ff_pull_n(const tu_fifo_t *f, void *app_buf, uint16_t n, uint16_t rd_ptr) {
 399:SynaptiX_FDK/lib/tinyusb/src/common/tusb_fifo.c ****   uint16_t       lin_bytes  = f->depth - rd_ptr;
 400:SynaptiX_FDK/lib/tinyusb/src/common/tusb_fifo.c ****   uint16_t       wrap_bytes = n - lin_bytes; // only used if wrapped
 401:SynaptiX_FDK/lib/tinyusb/src/common/tusb_fifo.c ****   const uint8_t *ff_buf     = f->buffer + rd_ptr;
 402:SynaptiX_FDK/lib/tinyusb/src/common/tusb_fifo.c **** 
 403:SynaptiX_FDK/lib/tinyusb/src/common/tusb_fifo.c ****   // single byte access
 404:SynaptiX_FDK/lib/tinyusb/src/common/tusb_fifo.c ****   if (n <= lin_bytes) {
 405:SynaptiX_FDK/lib/tinyusb/src/common/tusb_fifo.c ****     // Linear only
 406:SynaptiX_FDK/lib/tinyusb/src/common/tusb_fifo.c ****     memcpy(app_buf, ff_buf, n);
 407:SynaptiX_FDK/lib/tinyusb/src/common/tusb_fifo.c ****   } else {
 408:SynaptiX_FDK/lib/tinyusb/src/common/tusb_fifo.c ****     // Wrap around
 409:SynaptiX_FDK/lib/tinyusb/src/common/tusb_fifo.c ****     memcpy(app_buf, ff_buf, lin_bytes);                            // linear part
 410:SynaptiX_FDK/lib/tinyusb/src/common/tusb_fifo.c ****     memcpy((uint8_t *)app_buf + lin_bytes, f->buffer, wrap_bytes); // wrapped part
 411:SynaptiX_FDK/lib/tinyusb/src/common/tusb_fifo.c ****   }
 412:SynaptiX_FDK/lib/tinyusb/src/common/tusb_fifo.c **** }
 413:SynaptiX_FDK/lib/tinyusb/src/common/tusb_fifo.c **** 
 414:SynaptiX_FDK/lib/tinyusb/src/common/tusb_fifo.c **** //--------------------------------------------------------------------+
 415:SynaptiX_FDK/lib/tinyusb/src/common/tusb_fifo.c **** // Index Helper
 416:SynaptiX_FDK/lib/tinyusb/src/common/tusb_fifo.c **** //--------------------------------------------------------------------+
 417:SynaptiX_FDK/lib/tinyusb/src/common/tusb_fifo.c **** 
 418:SynaptiX_FDK/lib/tinyusb/src/common/tusb_fifo.c **** // Advance an absolute index
 419:SynaptiX_FDK/lib/tinyusb/src/common/tusb_fifo.c **** // "absolute" index is only in the range of [0..2*depth)
 420:SynaptiX_FDK/lib/tinyusb/src/common/tusb_fifo.c **** static uint16_t advance_index(uint16_t depth, uint16_t idx, uint16_t offset) {
  30              		.loc 1 420 78 view -0
  31              		.cfi_startproc
  32              		@ args = 0, pretend = 0, frame = 0
  33              		@ frame_needed = 0, uses_anonymous_args = 0
  34              		@ link register save eliminated.
  35              		.loc 1 420 78 is_stmt 0 view .LVU1
  36 0000 0346     		mov	r3, r0
 421:SynaptiX_FDK/lib/tinyusb/src/common/tusb_fifo.c ****   // We limit the index space of p such that a correct wrap around happens
ARM GAS  C:\Users\DELL\AppData\Local\Temp\ccaG9TDw.s 			page 9


 422:SynaptiX_FDK/lib/tinyusb/src/common/tusb_fifo.c ****   // Check for a wrap around or if we are in unused index space - This has to be checked first!!
 423:SynaptiX_FDK/lib/tinyusb/src/common/tusb_fifo.c ****   // We are exploiting the wrap around to the correct index
 424:SynaptiX_FDK/lib/tinyusb/src/common/tusb_fifo.c ****   uint16_t new_idx = (uint16_t)(idx + offset);
  37              		.loc 1 424 3 is_stmt 1 view .LVU2
  38              		.loc 1 424 12 is_stmt 0 view .LVU3
  39 0002 0A44     		add	r2, r2, r1
  40              	.LVL1:
  41              		.loc 1 424 12 view .LVU4
  42 0004 90B2     		uxth	r0, r2
  43              	.LVL2:
 425:SynaptiX_FDK/lib/tinyusb/src/common/tusb_fifo.c ****   if ((idx > new_idx) || (new_idx >= 2 * depth)) {
  44              		.loc 1 425 3 is_stmt 1 view .LVU5
  45              		.loc 1 425 6 is_stmt 0 view .LVU6
  46 0006 8142     		cmp	r1, r0
  47 0008 02D8     		bhi	.L2
  48              		.loc 1 425 23 discriminator 1 view .LVU7
  49 000a B0EB430F 		cmp	r0, r3, lsl #1
  50 000e 03DB     		blt	.L3
  51              	.L2:
  52              	.LBB94:
 426:SynaptiX_FDK/lib/tinyusb/src/common/tusb_fifo.c ****     const uint16_t non_used_index_space = (uint16_t)(UINT16_MAX - (2 * depth - 1));
  53              		.loc 1 426 5 is_stmt 1 view .LVU8
  54              		.loc 1 426 43 is_stmt 0 view .LVU9
  55 0010 5B00     		lsls	r3, r3, #1
  56              	.LVL3:
  57              		.loc 1 426 43 view .LVU10
  58 0012 9BB2     		uxth	r3, r3
  59              	.LVL4:
 427:SynaptiX_FDK/lib/tinyusb/src/common/tusb_fifo.c ****     new_idx                             = (uint16_t)(new_idx + non_used_index_space);
  60              		.loc 1 427 5 is_stmt 1 view .LVU11
  61 0014 C01A     		subs	r0, r0, r3
  62              	.LVL5:
  63              		.loc 1 427 5 is_stmt 0 view .LVU12
  64 0016 80B2     		uxth	r0, r0
  65              	.LVL6:
  66              	.L3:
  67              		.loc 1 427 5 view .LVU13
  68              	.LBE94:
 428:SynaptiX_FDK/lib/tinyusb/src/common/tusb_fifo.c ****   }
 429:SynaptiX_FDK/lib/tinyusb/src/common/tusb_fifo.c **** 
 430:SynaptiX_FDK/lib/tinyusb/src/common/tusb_fifo.c ****   return new_idx;
  69              		.loc 1 430 3 is_stmt 1 view .LVU14
 431:SynaptiX_FDK/lib/tinyusb/src/common/tusb_fifo.c **** }
  70              		.loc 1 431 1 is_stmt 0 view .LVU15
  71 0018 7047     		bx	lr
  72              		.cfi_endproc
  73              	.LFE419:
  75              		.section	.text.correct_read_index,"ax",%progbits
  76              		.align	1
  77              		.syntax unified
  78              		.thumb
  79              		.thumb_func
  81              	correct_read_index:
  82              	.LVL7:
  83              	.LFB421:
 432:SynaptiX_FDK/lib/tinyusb/src/common/tusb_fifo.c **** 
 433:SynaptiX_FDK/lib/tinyusb/src/common/tusb_fifo.c **** // index to pointer (0..depth-1), simply a modulo with minus.
ARM GAS  C:\Users\DELL\AppData\Local\Temp\ccaG9TDw.s 			page 10


 434:SynaptiX_FDK/lib/tinyusb/src/common/tusb_fifo.c **** TU_ATTR_ALWAYS_INLINE static inline uint16_t idx2ptr(uint16_t depth, uint16_t idx) {
 435:SynaptiX_FDK/lib/tinyusb/src/common/tusb_fifo.c ****   // Only run at most 3 times since index is limit in the range of [0..2*depth)
 436:SynaptiX_FDK/lib/tinyusb/src/common/tusb_fifo.c ****   while (idx >= depth) {
 437:SynaptiX_FDK/lib/tinyusb/src/common/tusb_fifo.c ****     idx -= depth;
 438:SynaptiX_FDK/lib/tinyusb/src/common/tusb_fifo.c ****   }
 439:SynaptiX_FDK/lib/tinyusb/src/common/tusb_fifo.c ****   return idx;
 440:SynaptiX_FDK/lib/tinyusb/src/common/tusb_fifo.c **** }
 441:SynaptiX_FDK/lib/tinyusb/src/common/tusb_fifo.c **** 
 442:SynaptiX_FDK/lib/tinyusb/src/common/tusb_fifo.c **** // Works on local copies of w
 443:SynaptiX_FDK/lib/tinyusb/src/common/tusb_fifo.c **** // When an overwritable fifo is overflowed, rd_idx will be re-index so that it forms a full fifo
 444:SynaptiX_FDK/lib/tinyusb/src/common/tusb_fifo.c **** static uint16_t correct_read_index(tu_fifo_t *f, uint16_t wr_idx) {
  84              		.loc 1 444 67 is_stmt 1 view -0
  85              		.cfi_startproc
  86              		@ args = 0, pretend = 0, frame = 0
  87              		@ frame_needed = 0, uses_anonymous_args = 0
  88              		@ link register save eliminated.
  89              		.loc 1 444 67 is_stmt 0 view .LVU17
  90 0000 0246     		mov	r2, r0
 445:SynaptiX_FDK/lib/tinyusb/src/common/tusb_fifo.c ****   uint16_t rd_idx;
  91              		.loc 1 445 3 is_stmt 1 view .LVU18
 446:SynaptiX_FDK/lib/tinyusb/src/common/tusb_fifo.c ****   if (wr_idx >= f->depth) {
  92              		.loc 1 446 3 view .LVU19
  93              		.loc 1 446 18 is_stmt 0 view .LVU20
  94 0002 8388     		ldrh	r3, [r0, #4]
  95              		.loc 1 446 6 view .LVU21
  96 0004 8B42     		cmp	r3, r1
  97 0006 03D8     		bhi	.L5
 447:SynaptiX_FDK/lib/tinyusb/src/common/tusb_fifo.c ****     rd_idx = wr_idx - f->depth;
  98              		.loc 1 447 5 is_stmt 1 view .LVU22
  99              		.loc 1 447 12 is_stmt 0 view .LVU23
 100 0008 C91A     		subs	r1, r1, r3
 101              	.LVL8:
 102              		.loc 1 447 12 view .LVU24
 103 000a 88B2     		uxth	r0, r1
 104              	.LVL9:
 105              	.L6:
 448:SynaptiX_FDK/lib/tinyusb/src/common/tusb_fifo.c ****   } else {
 449:SynaptiX_FDK/lib/tinyusb/src/common/tusb_fifo.c ****     rd_idx = wr_idx + f->depth;
 450:SynaptiX_FDK/lib/tinyusb/src/common/tusb_fifo.c ****   }
 451:SynaptiX_FDK/lib/tinyusb/src/common/tusb_fifo.c **** 
 452:SynaptiX_FDK/lib/tinyusb/src/common/tusb_fifo.c ****   f->rd_idx = rd_idx;
 106              		.loc 1 452 3 is_stmt 1 view .LVU25
 107              		.loc 1 452 13 is_stmt 0 view .LVU26
 108 000c 5081     		strh	r0, [r2, #10]	@ movhi
 453:SynaptiX_FDK/lib/tinyusb/src/common/tusb_fifo.c ****   return rd_idx;
 109              		.loc 1 453 3 is_stmt 1 view .LVU27
 454:SynaptiX_FDK/lib/tinyusb/src/common/tusb_fifo.c **** }
 110              		.loc 1 454 1 is_stmt 0 view .LVU28
 111 000e 7047     		bx	lr
 112              	.LVL10:
 113              	.L5:
 449:SynaptiX_FDK/lib/tinyusb/src/common/tusb_fifo.c ****   }
 114              		.loc 1 449 5 is_stmt 1 view .LVU29
 449:SynaptiX_FDK/lib/tinyusb/src/common/tusb_fifo.c ****   }
 115              		.loc 1 449 12 is_stmt 0 view .LVU30
 116 0010 1944     		add	r1, r1, r3
 117              	.LVL11:
ARM GAS  C:\Users\DELL\AppData\Local\Temp\ccaG9TDw.s 			page 11


 449:SynaptiX_FDK/lib/tinyusb/src/common/tusb_fifo.c ****   }
 118              		.loc 1 449 12 view .LVU31
 119 0012 88B2     		uxth	r0, r1
 120              	.LVL12:
 449:SynaptiX_FDK/lib/tinyusb/src/common/tusb_fifo.c ****   }
 121              		.loc 1 449 12 view .LVU32
 122 0014 FAE7     		b	.L6
 123              		.cfi_endproc
 124              	.LFE421:
 126              		.section	.text.ff_peek_local,"ax",%progbits
 127              		.align	1
 128              		.syntax unified
 129              		.thumb
 130              		.thumb_func
 132              	ff_peek_local:
 133              	.LVL13:
 134              	.LFB427:
 455:SynaptiX_FDK/lib/tinyusb/src/common/tusb_fifo.c **** 
 456:SynaptiX_FDK/lib/tinyusb/src/common/tusb_fifo.c **** //--------------------------------------------------------------------+
 457:SynaptiX_FDK/lib/tinyusb/src/common/tusb_fifo.c **** // n-API
 458:SynaptiX_FDK/lib/tinyusb/src/common/tusb_fifo.c **** //--------------------------------------------------------------------+
 459:SynaptiX_FDK/lib/tinyusb/src/common/tusb_fifo.c **** 
 460:SynaptiX_FDK/lib/tinyusb/src/common/tusb_fifo.c **** // Works on local copies of w and r
 461:SynaptiX_FDK/lib/tinyusb/src/common/tusb_fifo.c **** // Must be protected by read mutex since in case of an overflow read pointer gets modified
 462:SynaptiX_FDK/lib/tinyusb/src/common/tusb_fifo.c **** uint16_t tu_fifo_peek_n_access_mode(tu_fifo_t *f, void *p_buffer, uint16_t n, uint16_t wr_idx, uint
 463:SynaptiX_FDK/lib/tinyusb/src/common/tusb_fifo.c ****                                     const tu_hwfifo_access_t *access_mode) {
 464:SynaptiX_FDK/lib/tinyusb/src/common/tusb_fifo.c ****   uint16_t count = tu_ff_overflow_count(f->depth, wr_idx, rd_idx);
 465:SynaptiX_FDK/lib/tinyusb/src/common/tusb_fifo.c ****   if (count == 0) {
 466:SynaptiX_FDK/lib/tinyusb/src/common/tusb_fifo.c ****     return 0; // nothing to peek
 467:SynaptiX_FDK/lib/tinyusb/src/common/tusb_fifo.c ****   }
 468:SynaptiX_FDK/lib/tinyusb/src/common/tusb_fifo.c **** 
 469:SynaptiX_FDK/lib/tinyusb/src/common/tusb_fifo.c ****   // Check overflow and correct if required
 470:SynaptiX_FDK/lib/tinyusb/src/common/tusb_fifo.c ****   if (count > f->depth) {
 471:SynaptiX_FDK/lib/tinyusb/src/common/tusb_fifo.c ****     rd_idx = correct_read_index(f, wr_idx);
 472:SynaptiX_FDK/lib/tinyusb/src/common/tusb_fifo.c ****     count  = f->depth;
 473:SynaptiX_FDK/lib/tinyusb/src/common/tusb_fifo.c ****   }
 474:SynaptiX_FDK/lib/tinyusb/src/common/tusb_fifo.c **** 
 475:SynaptiX_FDK/lib/tinyusb/src/common/tusb_fifo.c ****   if (count < n) {
 476:SynaptiX_FDK/lib/tinyusb/src/common/tusb_fifo.c ****     n = count; // limit to available count
 477:SynaptiX_FDK/lib/tinyusb/src/common/tusb_fifo.c ****   }
 478:SynaptiX_FDK/lib/tinyusb/src/common/tusb_fifo.c **** 
 479:SynaptiX_FDK/lib/tinyusb/src/common/tusb_fifo.c ****   const uint16_t rd_ptr = idx2ptr(f->depth, rd_idx);
 480:SynaptiX_FDK/lib/tinyusb/src/common/tusb_fifo.c **** 
 481:SynaptiX_FDK/lib/tinyusb/src/common/tusb_fifo.c **** #if CFG_TUSB_FIFO_HWFIFO_API
 482:SynaptiX_FDK/lib/tinyusb/src/common/tusb_fifo.c ****   if (access_mode != NULL) {
 483:SynaptiX_FDK/lib/tinyusb/src/common/tusb_fifo.c ****     hwff_pull_n(f, p_buffer, n, rd_ptr, access_mode);
 484:SynaptiX_FDK/lib/tinyusb/src/common/tusb_fifo.c ****   } else
 485:SynaptiX_FDK/lib/tinyusb/src/common/tusb_fifo.c **** #endif
 486:SynaptiX_FDK/lib/tinyusb/src/common/tusb_fifo.c ****   {
 487:SynaptiX_FDK/lib/tinyusb/src/common/tusb_fifo.c ****     (void)access_mode;
 488:SynaptiX_FDK/lib/tinyusb/src/common/tusb_fifo.c ****     ff_pull_n(f, p_buffer, n, rd_ptr);
 489:SynaptiX_FDK/lib/tinyusb/src/common/tusb_fifo.c ****   }
 490:SynaptiX_FDK/lib/tinyusb/src/common/tusb_fifo.c **** 
 491:SynaptiX_FDK/lib/tinyusb/src/common/tusb_fifo.c ****   return n;
 492:SynaptiX_FDK/lib/tinyusb/src/common/tusb_fifo.c **** }
 493:SynaptiX_FDK/lib/tinyusb/src/common/tusb_fifo.c **** 
 494:SynaptiX_FDK/lib/tinyusb/src/common/tusb_fifo.c **** // Read n items without removing it from the FIFO, correct read pointer if overflowed
ARM GAS  C:\Users\DELL\AppData\Local\Temp\ccaG9TDw.s 			page 12


 495:SynaptiX_FDK/lib/tinyusb/src/common/tusb_fifo.c **** uint16_t tu_fifo_peek_n(tu_fifo_t *f, void *p_buffer, uint16_t n) {
 496:SynaptiX_FDK/lib/tinyusb/src/common/tusb_fifo.c ****   ff_lock(f->mutex_rd);
 497:SynaptiX_FDK/lib/tinyusb/src/common/tusb_fifo.c ****   const uint16_t wr_idx = f->wr_idx;
 498:SynaptiX_FDK/lib/tinyusb/src/common/tusb_fifo.c ****   const uint16_t rd_idx = f->rd_idx;
 499:SynaptiX_FDK/lib/tinyusb/src/common/tusb_fifo.c ****   const uint16_t ret = tu_fifo_peek_n_access_mode(f, p_buffer, n, wr_idx, rd_idx, NULL);
 500:SynaptiX_FDK/lib/tinyusb/src/common/tusb_fifo.c ****   ff_unlock(f->mutex_rd);
 501:SynaptiX_FDK/lib/tinyusb/src/common/tusb_fifo.c ****   return ret;
 502:SynaptiX_FDK/lib/tinyusb/src/common/tusb_fifo.c **** }
 503:SynaptiX_FDK/lib/tinyusb/src/common/tusb_fifo.c **** 
 504:SynaptiX_FDK/lib/tinyusb/src/common/tusb_fifo.c **** // Read n items from fifo with access mode
 505:SynaptiX_FDK/lib/tinyusb/src/common/tusb_fifo.c **** uint16_t tu_fifo_read_n_access_mode(tu_fifo_t *f, void *buffer, uint16_t n, const tu_hwfifo_access_
 506:SynaptiX_FDK/lib/tinyusb/src/common/tusb_fifo.c ****   ff_lock(f->mutex_rd);
 507:SynaptiX_FDK/lib/tinyusb/src/common/tusb_fifo.c **** 
 508:SynaptiX_FDK/lib/tinyusb/src/common/tusb_fifo.c ****   // Peek the data: f->rd_idx might get modified in case of an overflow so we can not use a local v
 509:SynaptiX_FDK/lib/tinyusb/src/common/tusb_fifo.c ****   const uint16_t wr_idx = f->wr_idx;
 510:SynaptiX_FDK/lib/tinyusb/src/common/tusb_fifo.c ****   n         = tu_fifo_peek_n_access_mode(f, buffer, n, wr_idx, f->rd_idx, access_mode);
 511:SynaptiX_FDK/lib/tinyusb/src/common/tusb_fifo.c ****   f->rd_idx = advance_index(f->depth, f->rd_idx, n);
 512:SynaptiX_FDK/lib/tinyusb/src/common/tusb_fifo.c **** 
 513:SynaptiX_FDK/lib/tinyusb/src/common/tusb_fifo.c ****   ff_unlock(f->mutex_rd);
 514:SynaptiX_FDK/lib/tinyusb/src/common/tusb_fifo.c ****   return n;
 515:SynaptiX_FDK/lib/tinyusb/src/common/tusb_fifo.c **** }
 516:SynaptiX_FDK/lib/tinyusb/src/common/tusb_fifo.c **** 
 517:SynaptiX_FDK/lib/tinyusb/src/common/tusb_fifo.c **** // Write n items to fifo with access mode
 518:SynaptiX_FDK/lib/tinyusb/src/common/tusb_fifo.c **** uint16_t tu_fifo_write_n_access_mode(tu_fifo_t *f, const void *data, uint16_t n,
 519:SynaptiX_FDK/lib/tinyusb/src/common/tusb_fifo.c ****                                      const tu_hwfifo_access_t *access_mode) {
 520:SynaptiX_FDK/lib/tinyusb/src/common/tusb_fifo.c ****   if (n == 0) {
 521:SynaptiX_FDK/lib/tinyusb/src/common/tusb_fifo.c ****     return 0;
 522:SynaptiX_FDK/lib/tinyusb/src/common/tusb_fifo.c ****   }
 523:SynaptiX_FDK/lib/tinyusb/src/common/tusb_fifo.c **** 
 524:SynaptiX_FDK/lib/tinyusb/src/common/tusb_fifo.c ****   ff_lock(f->mutex_wr);
 525:SynaptiX_FDK/lib/tinyusb/src/common/tusb_fifo.c **** 
 526:SynaptiX_FDK/lib/tinyusb/src/common/tusb_fifo.c ****   uint16_t wr_idx = f->wr_idx;
 527:SynaptiX_FDK/lib/tinyusb/src/common/tusb_fifo.c ****   uint16_t rd_idx = f->rd_idx;
 528:SynaptiX_FDK/lib/tinyusb/src/common/tusb_fifo.c **** 
 529:SynaptiX_FDK/lib/tinyusb/src/common/tusb_fifo.c ****   const uint8_t *buf8 = (const uint8_t *)data;
 530:SynaptiX_FDK/lib/tinyusb/src/common/tusb_fifo.c **** 
 531:SynaptiX_FDK/lib/tinyusb/src/common/tusb_fifo.c ****   TU_LOG(TU_FIFO_DBG, "rd = %3u, wr = %3u, count = %3u, remain = %3u, n = %3u:  ", rd_idx, wr_idx,
 532:SynaptiX_FDK/lib/tinyusb/src/common/tusb_fifo.c ****          tu_ff_overflow_count(f->depth, wr_idx, rd_idx), tu_ff_remaining_local(f->depth, wr_idx, rd
 533:SynaptiX_FDK/lib/tinyusb/src/common/tusb_fifo.c **** 
 534:SynaptiX_FDK/lib/tinyusb/src/common/tusb_fifo.c ****   if (!f->overwritable) {
 535:SynaptiX_FDK/lib/tinyusb/src/common/tusb_fifo.c ****     // limit up to full
 536:SynaptiX_FDK/lib/tinyusb/src/common/tusb_fifo.c ****     const uint16_t remain = tu_ff_remaining_local(f->depth, wr_idx, rd_idx);
 537:SynaptiX_FDK/lib/tinyusb/src/common/tusb_fifo.c ****     n                     = tu_min16(n, remain);
 538:SynaptiX_FDK/lib/tinyusb/src/common/tusb_fifo.c ****   } else {
 539:SynaptiX_FDK/lib/tinyusb/src/common/tusb_fifo.c ****     // In over-writable mode, fifo_write() is allowed even when fifo is full. In such case,
 540:SynaptiX_FDK/lib/tinyusb/src/common/tusb_fifo.c ****     // oldest data in fifo i.e. at read pointer data will be overwritten
 541:SynaptiX_FDK/lib/tinyusb/src/common/tusb_fifo.c ****     // Note: we can modify read buffer contents however we must not modify the read index itself wi
 542:SynaptiX_FDK/lib/tinyusb/src/common/tusb_fifo.c ****     // function! Since it would end up in a race condition with read functions!
 543:SynaptiX_FDK/lib/tinyusb/src/common/tusb_fifo.c ****     if (n >= f->depth) {
 544:SynaptiX_FDK/lib/tinyusb/src/common/tusb_fifo.c ****       // Only copy last part
 545:SynaptiX_FDK/lib/tinyusb/src/common/tusb_fifo.c ****       if (access_mode == NULL) {
 546:SynaptiX_FDK/lib/tinyusb/src/common/tusb_fifo.c ****         buf8 += (n - f->depth);
 547:SynaptiX_FDK/lib/tinyusb/src/common/tusb_fifo.c ****       } else {
 548:SynaptiX_FDK/lib/tinyusb/src/common/tusb_fifo.c ****         // TODO should read from hw fifo to discard data, however reading an odd number could
 549:SynaptiX_FDK/lib/tinyusb/src/common/tusb_fifo.c ****         // accidentally discard data.
 550:SynaptiX_FDK/lib/tinyusb/src/common/tusb_fifo.c ****       }
 551:SynaptiX_FDK/lib/tinyusb/src/common/tusb_fifo.c **** 
ARM GAS  C:\Users\DELL\AppData\Local\Temp\ccaG9TDw.s 			page 13


 552:SynaptiX_FDK/lib/tinyusb/src/common/tusb_fifo.c ****       n = f->depth;
 553:SynaptiX_FDK/lib/tinyusb/src/common/tusb_fifo.c **** 
 554:SynaptiX_FDK/lib/tinyusb/src/common/tusb_fifo.c ****       // We start writing at the read pointer's position since we fill the whole buffer
 555:SynaptiX_FDK/lib/tinyusb/src/common/tusb_fifo.c ****       wr_idx = rd_idx;
 556:SynaptiX_FDK/lib/tinyusb/src/common/tusb_fifo.c ****     } else {
 557:SynaptiX_FDK/lib/tinyusb/src/common/tusb_fifo.c ****       const uint16_t overflowable_count = tu_ff_overflow_count(f->depth, wr_idx, rd_idx);
 558:SynaptiX_FDK/lib/tinyusb/src/common/tusb_fifo.c ****       if (overflowable_count + n >= 2 * f->depth) {
 559:SynaptiX_FDK/lib/tinyusb/src/common/tusb_fifo.c ****         // Double overflowed
 560:SynaptiX_FDK/lib/tinyusb/src/common/tusb_fifo.c ****         // Index is bigger than the allowed range [0,2*depth)
 561:SynaptiX_FDK/lib/tinyusb/src/common/tusb_fifo.c ****         // re-position write index to have a full fifo after pushed
 562:SynaptiX_FDK/lib/tinyusb/src/common/tusb_fifo.c ****         wr_idx = advance_index(f->depth, rd_idx, f->depth - n);
 563:SynaptiX_FDK/lib/tinyusb/src/common/tusb_fifo.c **** 
 564:SynaptiX_FDK/lib/tinyusb/src/common/tusb_fifo.c ****         // TODO we should also shift out n bytes from read index since we avoid changing rd index !
 565:SynaptiX_FDK/lib/tinyusb/src/common/tusb_fifo.c ****         // However memmove() is expensive due to actual copying + wrapping consideration.
 566:SynaptiX_FDK/lib/tinyusb/src/common/tusb_fifo.c ****         // Also race condition could happen anyway if read() is invoke while moving result in corru
 567:SynaptiX_FDK/lib/tinyusb/src/common/tusb_fifo.c ****         // currently deliberately not implemented --> result in incorrect data read back
 568:SynaptiX_FDK/lib/tinyusb/src/common/tusb_fifo.c ****       } else {
 569:SynaptiX_FDK/lib/tinyusb/src/common/tusb_fifo.c ****         // normal + single overflowed:
 570:SynaptiX_FDK/lib/tinyusb/src/common/tusb_fifo.c ****         // Index is in the range of [0,2*depth) and thus detect and recoverable. Recovering is hand
 571:SynaptiX_FDK/lib/tinyusb/src/common/tusb_fifo.c ****         // Therefore we just increase write index
 572:SynaptiX_FDK/lib/tinyusb/src/common/tusb_fifo.c ****         // we will correct (re-position) read index later on in fifo_read() function
 573:SynaptiX_FDK/lib/tinyusb/src/common/tusb_fifo.c ****       }
 574:SynaptiX_FDK/lib/tinyusb/src/common/tusb_fifo.c ****     }
 575:SynaptiX_FDK/lib/tinyusb/src/common/tusb_fifo.c ****   }
 576:SynaptiX_FDK/lib/tinyusb/src/common/tusb_fifo.c **** 
 577:SynaptiX_FDK/lib/tinyusb/src/common/tusb_fifo.c ****   if (n) {
 578:SynaptiX_FDK/lib/tinyusb/src/common/tusb_fifo.c ****     const uint16_t wr_ptr = idx2ptr(f->depth, wr_idx);
 579:SynaptiX_FDK/lib/tinyusb/src/common/tusb_fifo.c ****     TU_LOG(TU_FIFO_DBG, "actual_n = %u, wr_ptr = %u", n, wr_ptr);
 580:SynaptiX_FDK/lib/tinyusb/src/common/tusb_fifo.c **** 
 581:SynaptiX_FDK/lib/tinyusb/src/common/tusb_fifo.c **** #if CFG_TUSB_FIFO_HWFIFO_API
 582:SynaptiX_FDK/lib/tinyusb/src/common/tusb_fifo.c ****     if (access_mode != NULL) {
 583:SynaptiX_FDK/lib/tinyusb/src/common/tusb_fifo.c ****       hwff_push_n(f, buf8, n, wr_ptr, access_mode);
 584:SynaptiX_FDK/lib/tinyusb/src/common/tusb_fifo.c ****     } else
 585:SynaptiX_FDK/lib/tinyusb/src/common/tusb_fifo.c **** #endif
 586:SynaptiX_FDK/lib/tinyusb/src/common/tusb_fifo.c ****     {
 587:SynaptiX_FDK/lib/tinyusb/src/common/tusb_fifo.c ****       ff_push_n(f, buf8, n, wr_ptr);
 588:SynaptiX_FDK/lib/tinyusb/src/common/tusb_fifo.c ****     }
 589:SynaptiX_FDK/lib/tinyusb/src/common/tusb_fifo.c ****     f->wr_idx = advance_index(f->depth, wr_idx, n);
 590:SynaptiX_FDK/lib/tinyusb/src/common/tusb_fifo.c **** 
 591:SynaptiX_FDK/lib/tinyusb/src/common/tusb_fifo.c ****     TU_LOG(TU_FIFO_DBG, "\tnew_wr = %u\r\n", f->wr_idx);
 592:SynaptiX_FDK/lib/tinyusb/src/common/tusb_fifo.c ****   }
 593:SynaptiX_FDK/lib/tinyusb/src/common/tusb_fifo.c **** 
 594:SynaptiX_FDK/lib/tinyusb/src/common/tusb_fifo.c ****   ff_unlock(f->mutex_wr);
 595:SynaptiX_FDK/lib/tinyusb/src/common/tusb_fifo.c **** 
 596:SynaptiX_FDK/lib/tinyusb/src/common/tusb_fifo.c ****   return n;
 597:SynaptiX_FDK/lib/tinyusb/src/common/tusb_fifo.c **** }
 598:SynaptiX_FDK/lib/tinyusb/src/common/tusb_fifo.c **** 
 599:SynaptiX_FDK/lib/tinyusb/src/common/tusb_fifo.c **** uint16_t tu_fifo_discard_n(tu_fifo_t *f, uint16_t n) {
 600:SynaptiX_FDK/lib/tinyusb/src/common/tusb_fifo.c ****   const uint16_t count = tu_min16(n, tu_fifo_count(f)); // limit to available count
 601:SynaptiX_FDK/lib/tinyusb/src/common/tusb_fifo.c ****   ff_lock(f->mutex_rd);
 602:SynaptiX_FDK/lib/tinyusb/src/common/tusb_fifo.c ****   f->rd_idx = advance_index(f->depth, f->rd_idx, count);
 603:SynaptiX_FDK/lib/tinyusb/src/common/tusb_fifo.c ****   ff_unlock(f->mutex_rd);
 604:SynaptiX_FDK/lib/tinyusb/src/common/tusb_fifo.c **** 
 605:SynaptiX_FDK/lib/tinyusb/src/common/tusb_fifo.c ****   return count;
 606:SynaptiX_FDK/lib/tinyusb/src/common/tusb_fifo.c **** }
 607:SynaptiX_FDK/lib/tinyusb/src/common/tusb_fifo.c **** 
 608:SynaptiX_FDK/lib/tinyusb/src/common/tusb_fifo.c **** //--------------------------------------------------------------------+
ARM GAS  C:\Users\DELL\AppData\Local\Temp\ccaG9TDw.s 			page 14


 609:SynaptiX_FDK/lib/tinyusb/src/common/tusb_fifo.c **** // One API
 610:SynaptiX_FDK/lib/tinyusb/src/common/tusb_fifo.c **** //--------------------------------------------------------------------+
 611:SynaptiX_FDK/lib/tinyusb/src/common/tusb_fifo.c **** 
 612:SynaptiX_FDK/lib/tinyusb/src/common/tusb_fifo.c **** // peek() using local write/read index, correct read index if overflowed
 613:SynaptiX_FDK/lib/tinyusb/src/common/tusb_fifo.c **** // Be careful, caller must not lock mutex, since this Will also try to lock mutex
 614:SynaptiX_FDK/lib/tinyusb/src/common/tusb_fifo.c **** static bool ff_peek_local(tu_fifo_t *f, void *buf, uint16_t wr_idx, uint16_t rd_idx) {
 135              		.loc 1 614 86 is_stmt 1 view -0
 136              		.cfi_startproc
 137              		@ args = 0, pretend = 0, frame = 0
 138              		@ frame_needed = 0, uses_anonymous_args = 0
 139              		.loc 1 614 86 is_stmt 0 view .LVU34
 140 0000 38B5     		push	{r3, r4, r5, lr}
 141              	.LCFI0:
 142              		.cfi_def_cfa_offset 16
 143              		.cfi_offset 3, -16
 144              		.cfi_offset 4, -12
 145              		.cfi_offset 5, -8
 146              		.cfi_offset 14, -4
 147 0002 0446     		mov	r4, r0
 148 0004 0D46     		mov	r5, r1
 615:SynaptiX_FDK/lib/tinyusb/src/common/tusb_fifo.c ****   const uint16_t ovf_count = tu_ff_overflow_count(f->depth, wr_idx, rd_idx);
 149              		.loc 1 615 3 is_stmt 1 view .LVU35
 150              		.loc 1 615 30 is_stmt 0 view .LVU36
 151 0006 8188     		ldrh	r1, [r0, #4]
 152              	.LVL14:
 153              	.LBB95:
 154              	.LBI95:
 155              		.file 2 "SynaptiX_FDK/lib/tinyusb/src/common/tusb_fifo.h"
   1:SynaptiX_FDK/lib/tinyusb/src/common/tusb_fifo.h **** /*
   2:SynaptiX_FDK/lib/tinyusb/src/common/tusb_fifo.h ****  * The MIT License (MIT)
   3:SynaptiX_FDK/lib/tinyusb/src/common/tusb_fifo.h ****  *
   4:SynaptiX_FDK/lib/tinyusb/src/common/tusb_fifo.h ****  * Copyright (c) 2019 Ha Thach (tinyusb.org)
   5:SynaptiX_FDK/lib/tinyusb/src/common/tusb_fifo.h ****  * Copyright (c) 2020 Reinhard Panhuber - rework to unmasked pointers
   6:SynaptiX_FDK/lib/tinyusb/src/common/tusb_fifo.h ****  *
   7:SynaptiX_FDK/lib/tinyusb/src/common/tusb_fifo.h ****  * Permission is hereby granted, free of charge, to any person obtaining a copy
   8:SynaptiX_FDK/lib/tinyusb/src/common/tusb_fifo.h ****  * of this software and associated documentation files (the "Software"), to deal
   9:SynaptiX_FDK/lib/tinyusb/src/common/tusb_fifo.h ****  * in the Software without restriction, including without limitation the rights
  10:SynaptiX_FDK/lib/tinyusb/src/common/tusb_fifo.h ****  * to use, copy, modify, merge, publish, distribute, sublicense, and/or sell
  11:SynaptiX_FDK/lib/tinyusb/src/common/tusb_fifo.h ****  * copies of the Software, and to permit persons to whom the Software is
  12:SynaptiX_FDK/lib/tinyusb/src/common/tusb_fifo.h ****  * furnished to do so, subject to the following conditions:
  13:SynaptiX_FDK/lib/tinyusb/src/common/tusb_fifo.h ****  *
  14:SynaptiX_FDK/lib/tinyusb/src/common/tusb_fifo.h ****  * The above copyright notice and this permission notice shall be included in
  15:SynaptiX_FDK/lib/tinyusb/src/common/tusb_fifo.h ****  * all copies or substantial portions of the Software.
  16:SynaptiX_FDK/lib/tinyusb/src/common/tusb_fifo.h ****  *
  17:SynaptiX_FDK/lib/tinyusb/src/common/tusb_fifo.h ****  * THE SOFTWARE IS PROVIDED "AS IS", WITHOUT WARRANTY OF ANY KIND, EXPRESS OR
  18:SynaptiX_FDK/lib/tinyusb/src/common/tusb_fifo.h ****  * IMPLIED, INCLUDING BUT NOT LIMITED TO THE WARRANTIES OF MERCHANTABILITY,
  19:SynaptiX_FDK/lib/tinyusb/src/common/tusb_fifo.h ****  * FITNESS FOR A PARTICULAR PURPOSE AND NONINFRINGEMENT. IN NO EVENT SHALL THE
  20:SynaptiX_FDK/lib/tinyusb/src/common/tusb_fifo.h ****  * AUTHORS OR COPYRIGHT HOLDERS BE LIABLE FOR ANY CLAIM, DAMAGES OR OTHER
  21:SynaptiX_FDK/lib/tinyusb/src/common/tusb_fifo.h ****  * LIABILITY, WHETHER IN AN ACTION OF CONTRACT, TORT OR OTHERWISE, ARISING FROM,
  22:SynaptiX_FDK/lib/tinyusb/src/common/tusb_fifo.h ****  * OUT OF OR IN CONNECTION WITH THE SOFTWARE OR THE USE OR OTHER DEALINGS IN
  23:SynaptiX_FDK/lib/tinyusb/src/common/tusb_fifo.h ****  * THE SOFTWARE.
  24:SynaptiX_FDK/lib/tinyusb/src/common/tusb_fifo.h ****  *
  25:SynaptiX_FDK/lib/tinyusb/src/common/tusb_fifo.h ****  * This file is part of the TinyUSB stack.
  26:SynaptiX_FDK/lib/tinyusb/src/common/tusb_fifo.h ****  */
  27:SynaptiX_FDK/lib/tinyusb/src/common/tusb_fifo.h **** 
  28:SynaptiX_FDK/lib/tinyusb/src/common/tusb_fifo.h **** #ifndef TUSB_FIFO_H_
  29:SynaptiX_FDK/lib/tinyusb/src/common/tusb_fifo.h **** #define TUSB_FIFO_H_
ARM GAS  C:\Users\DELL\AppData\Local\Temp\ccaG9TDw.s 			page 15


  30:SynaptiX_FDK/lib/tinyusb/src/common/tusb_fifo.h **** 
  31:SynaptiX_FDK/lib/tinyusb/src/common/tusb_fifo.h **** #ifdef __cplusplus
  32:SynaptiX_FDK/lib/tinyusb/src/common/tusb_fifo.h **** extern "C" {
  33:SynaptiX_FDK/lib/tinyusb/src/common/tusb_fifo.h **** #endif
  34:SynaptiX_FDK/lib/tinyusb/src/common/tusb_fifo.h **** 
  35:SynaptiX_FDK/lib/tinyusb/src/common/tusb_fifo.h **** #include "common/tusb_common.h"
  36:SynaptiX_FDK/lib/tinyusb/src/common/tusb_fifo.h **** #include "osal/osal.h"
  37:SynaptiX_FDK/lib/tinyusb/src/common/tusb_fifo.h **** 
  38:SynaptiX_FDK/lib/tinyusb/src/common/tusb_fifo.h **** //--------------------------------------------------------------------+
  39:SynaptiX_FDK/lib/tinyusb/src/common/tusb_fifo.h **** // Configuration
  40:SynaptiX_FDK/lib/tinyusb/src/common/tusb_fifo.h **** //--------------------------------------------------------------------+
  41:SynaptiX_FDK/lib/tinyusb/src/common/tusb_fifo.h **** // mutex is only needed for RTOS. For OS None, we don't get preempted
  42:SynaptiX_FDK/lib/tinyusb/src/common/tusb_fifo.h **** #define CFG_FIFO_MUTEX      OSAL_MUTEX_REQUIRED
  43:SynaptiX_FDK/lib/tinyusb/src/common/tusb_fifo.h **** 
  44:SynaptiX_FDK/lib/tinyusb/src/common/tusb_fifo.h **** #define CFG_TUSB_FIFO_HWFIFO_API (CFG_TUD_EDPT_DEDICATED_HWFIFO || CFG_TUH_EDPT_DEDICATED_HWFIFO)
  45:SynaptiX_FDK/lib/tinyusb/src/common/tusb_fifo.h **** 
  46:SynaptiX_FDK/lib/tinyusb/src/common/tusb_fifo.h **** #ifndef CFG_TUSB_FIFO_HWFIFO_DATA_STRIDE
  47:SynaptiX_FDK/lib/tinyusb/src/common/tusb_fifo.h ****   #define CFG_TUSB_FIFO_HWFIFO_DATA_STRIDE 0
  48:SynaptiX_FDK/lib/tinyusb/src/common/tusb_fifo.h **** #endif
  49:SynaptiX_FDK/lib/tinyusb/src/common/tusb_fifo.h **** 
  50:SynaptiX_FDK/lib/tinyusb/src/common/tusb_fifo.h **** #ifndef CFG_TUSB_FIFO_HWFIFO_ADDR_STRIDE
  51:SynaptiX_FDK/lib/tinyusb/src/common/tusb_fifo.h ****   #define CFG_TUSB_FIFO_HWFIFO_ADDR_STRIDE 0
  52:SynaptiX_FDK/lib/tinyusb/src/common/tusb_fifo.h **** #endif
  53:SynaptiX_FDK/lib/tinyusb/src/common/tusb_fifo.h **** 
  54:SynaptiX_FDK/lib/tinyusb/src/common/tusb_fifo.h **** // Due to the use of unmasked pointers, this FIFO does not suffer from losing
  55:SynaptiX_FDK/lib/tinyusb/src/common/tusb_fifo.h **** // one item slice. Furthermore, write and read operations are completely
  56:SynaptiX_FDK/lib/tinyusb/src/common/tusb_fifo.h **** // decoupled as write and read functions do not modify a common state. Henceforth,
  57:SynaptiX_FDK/lib/tinyusb/src/common/tusb_fifo.h **** // writing or reading from the FIFO within an ISR is safe as long as no other
  58:SynaptiX_FDK/lib/tinyusb/src/common/tusb_fifo.h **** // process (thread or ISR) interferes.
  59:SynaptiX_FDK/lib/tinyusb/src/common/tusb_fifo.h **** // Also, this FIFO is ready to be used in combination with a DMA as the write and
  60:SynaptiX_FDK/lib/tinyusb/src/common/tusb_fifo.h **** // read pointers can be updated from within a DMA ISR. Overflows are detectable
  61:SynaptiX_FDK/lib/tinyusb/src/common/tusb_fifo.h **** // within a certain number (see tu_fifo_overflow()).
  62:SynaptiX_FDK/lib/tinyusb/src/common/tusb_fifo.h **** 
  63:SynaptiX_FDK/lib/tinyusb/src/common/tusb_fifo.h **** /* Write/Read "pointer" is in the range of: 0 .. depth - 1, and is used to get the fifo data.
  64:SynaptiX_FDK/lib/tinyusb/src/common/tusb_fifo.h ****  * Write/Read "index" is always in the range of: 0 .. 2*depth-1
  65:SynaptiX_FDK/lib/tinyusb/src/common/tusb_fifo.h ****  *
  66:SynaptiX_FDK/lib/tinyusb/src/common/tusb_fifo.h ****  * The extra window allow us to determine the fifo state of empty or full with only 2 indices
  67:SynaptiX_FDK/lib/tinyusb/src/common/tusb_fifo.h ****  * Following are examples with depth = 3
  68:SynaptiX_FDK/lib/tinyusb/src/common/tusb_fifo.h ****  *
  69:SynaptiX_FDK/lib/tinyusb/src/common/tusb_fifo.h ****  * - empty: W = R
  70:SynaptiX_FDK/lib/tinyusb/src/common/tusb_fifo.h ****  *                |
  71:SynaptiX_FDK/lib/tinyusb/src/common/tusb_fifo.h ****  *    -------------------------
  72:SynaptiX_FDK/lib/tinyusb/src/common/tusb_fifo.h ****  *    | 0 | RW| 2 | 3 | 4 | 5 |
  73:SynaptiX_FDK/lib/tinyusb/src/common/tusb_fifo.h ****  *
  74:SynaptiX_FDK/lib/tinyusb/src/common/tusb_fifo.h ****  * - full 1: W > R
  75:SynaptiX_FDK/lib/tinyusb/src/common/tusb_fifo.h ****  *                |
  76:SynaptiX_FDK/lib/tinyusb/src/common/tusb_fifo.h ****  *    -------------------------
  77:SynaptiX_FDK/lib/tinyusb/src/common/tusb_fifo.h ****  *    | 0 | R | 2 | 3 | W | 5 |
  78:SynaptiX_FDK/lib/tinyusb/src/common/tusb_fifo.h ****  *
  79:SynaptiX_FDK/lib/tinyusb/src/common/tusb_fifo.h ****  * - full 2: W < R
  80:SynaptiX_FDK/lib/tinyusb/src/common/tusb_fifo.h ****  *                |
  81:SynaptiX_FDK/lib/tinyusb/src/common/tusb_fifo.h ****  *    -------------------------
  82:SynaptiX_FDK/lib/tinyusb/src/common/tusb_fifo.h ****  *    | 0 | 1 | W | 3 | 4 | R |
  83:SynaptiX_FDK/lib/tinyusb/src/common/tusb_fifo.h ****  *
  84:SynaptiX_FDK/lib/tinyusb/src/common/tusb_fifo.h ****  * - Number of items in the fifo can be determined in either cases:
  85:SynaptiX_FDK/lib/tinyusb/src/common/tusb_fifo.h ****  *    - case W >= R: Count = W - R
  86:SynaptiX_FDK/lib/tinyusb/src/common/tusb_fifo.h ****  *    - case W <  R: Count = 2*depth - (R - W)
ARM GAS  C:\Users\DELL\AppData\Local\Temp\ccaG9TDw.s 			page 16


  87:SynaptiX_FDK/lib/tinyusb/src/common/tusb_fifo.h ****  *
  88:SynaptiX_FDK/lib/tinyusb/src/common/tusb_fifo.h ****  * In non-overwritable mode, computed Count (in above 2 cases) is at most equal to depth.
  89:SynaptiX_FDK/lib/tinyusb/src/common/tusb_fifo.h ****  * However, in over-writable mode, write index can be repeatedly increased and count can be
  90:SynaptiX_FDK/lib/tinyusb/src/common/tusb_fifo.h ****  * temporarily larger than depth (overflowed condition) e.g
  91:SynaptiX_FDK/lib/tinyusb/src/common/tusb_fifo.h ****  *
  92:SynaptiX_FDK/lib/tinyusb/src/common/tusb_fifo.h ****  *  - Overflowed 1: write(3), write(1)
  93:SynaptiX_FDK/lib/tinyusb/src/common/tusb_fifo.h ****  *    In this case we will adjust Read index when read()/peek() is called so that count = depth.
  94:SynaptiX_FDK/lib/tinyusb/src/common/tusb_fifo.h ****  *                  |
  95:SynaptiX_FDK/lib/tinyusb/src/common/tusb_fifo.h ****  *      -------------------------
  96:SynaptiX_FDK/lib/tinyusb/src/common/tusb_fifo.h ****  *      | R | 1 | 2 | 3 | W | 5 |
  97:SynaptiX_FDK/lib/tinyusb/src/common/tusb_fifo.h ****  *
  98:SynaptiX_FDK/lib/tinyusb/src/common/tusb_fifo.h ****  *  - Double Overflowed i.e index is out of allowed range [0,2*depth)
  99:SynaptiX_FDK/lib/tinyusb/src/common/tusb_fifo.h ****  *    This occurs when we continue to write after 1st overflowed to 2nd overflowed. e.g:
 100:SynaptiX_FDK/lib/tinyusb/src/common/tusb_fifo.h ****  *      write(3), write(1), write(2)
 101:SynaptiX_FDK/lib/tinyusb/src/common/tusb_fifo.h ****  *    This must be prevented since it will cause unrecoverable state, in above example
 102:SynaptiX_FDK/lib/tinyusb/src/common/tusb_fifo.h ****  *    if not handled the fifo will be empty instead of continue-to-be full. Since we must not modif
 103:SynaptiX_FDK/lib/tinyusb/src/common/tusb_fifo.h ****  *    read index in write() function, which cause race condition. We will re-position write index s
 104:SynaptiX_FDK/lib/tinyusb/src/common/tusb_fifo.h ****  *    after data is written it is a full fifo i.e W = depth - R
 105:SynaptiX_FDK/lib/tinyusb/src/common/tusb_fifo.h ****  *
 106:SynaptiX_FDK/lib/tinyusb/src/common/tusb_fifo.h ****  *      re-position W = 1 before write(2)
 107:SynaptiX_FDK/lib/tinyusb/src/common/tusb_fifo.h ****  *      Note: we should also move data from mem[3] to read index as well, but deliberately skipped 
 108:SynaptiX_FDK/lib/tinyusb/src/common/tusb_fifo.h ****  *      since it is an expensive operation !!!
 109:SynaptiX_FDK/lib/tinyusb/src/common/tusb_fifo.h ****  *                  |
 110:SynaptiX_FDK/lib/tinyusb/src/common/tusb_fifo.h ****  *      -------------------------
 111:SynaptiX_FDK/lib/tinyusb/src/common/tusb_fifo.h ****  *      | R | W | 2 | 3 | 4 | 5 |
 112:SynaptiX_FDK/lib/tinyusb/src/common/tusb_fifo.h ****  *
 113:SynaptiX_FDK/lib/tinyusb/src/common/tusb_fifo.h ****  *      perform write(2), result is still a full fifo.
 114:SynaptiX_FDK/lib/tinyusb/src/common/tusb_fifo.h ****  *
 115:SynaptiX_FDK/lib/tinyusb/src/common/tusb_fifo.h ****  *                  |
 116:SynaptiX_FDK/lib/tinyusb/src/common/tusb_fifo.h ****  *      -------------------------
 117:SynaptiX_FDK/lib/tinyusb/src/common/tusb_fifo.h ****  *      | R | 1 | 2 | W | 4 | 5 |
 118:SynaptiX_FDK/lib/tinyusb/src/common/tusb_fifo.h ****  */
 119:SynaptiX_FDK/lib/tinyusb/src/common/tusb_fifo.h **** typedef struct {
 120:SynaptiX_FDK/lib/tinyusb/src/common/tusb_fifo.h ****   uint8_t *buffer;              // buffer pointer
 121:SynaptiX_FDK/lib/tinyusb/src/common/tusb_fifo.h ****   uint16_t depth;               // max items
 122:SynaptiX_FDK/lib/tinyusb/src/common/tusb_fifo.h ****   bool     overwritable;        // overwritable when full
 123:SynaptiX_FDK/lib/tinyusb/src/common/tusb_fifo.h ****   // 1 byte padding here
 124:SynaptiX_FDK/lib/tinyusb/src/common/tusb_fifo.h **** 
 125:SynaptiX_FDK/lib/tinyusb/src/common/tusb_fifo.h ****   volatile uint16_t wr_idx;     // write index
 126:SynaptiX_FDK/lib/tinyusb/src/common/tusb_fifo.h ****   volatile uint16_t rd_idx;     // read index
 127:SynaptiX_FDK/lib/tinyusb/src/common/tusb_fifo.h **** 
 128:SynaptiX_FDK/lib/tinyusb/src/common/tusb_fifo.h **** #if OSAL_MUTEX_REQUIRED
 129:SynaptiX_FDK/lib/tinyusb/src/common/tusb_fifo.h ****   osal_mutex_t mutex_wr;
 130:SynaptiX_FDK/lib/tinyusb/src/common/tusb_fifo.h ****   osal_mutex_t mutex_rd;
 131:SynaptiX_FDK/lib/tinyusb/src/common/tusb_fifo.h **** #endif
 132:SynaptiX_FDK/lib/tinyusb/src/common/tusb_fifo.h **** } tu_fifo_t;
 133:SynaptiX_FDK/lib/tinyusb/src/common/tusb_fifo.h **** 
 134:SynaptiX_FDK/lib/tinyusb/src/common/tusb_fifo.h **** typedef struct {
 135:SynaptiX_FDK/lib/tinyusb/src/common/tusb_fifo.h ****   struct {
 136:SynaptiX_FDK/lib/tinyusb/src/common/tusb_fifo.h ****     uint16_t len; // length
 137:SynaptiX_FDK/lib/tinyusb/src/common/tusb_fifo.h ****     uint8_t *ptr; // buffer pointer
 138:SynaptiX_FDK/lib/tinyusb/src/common/tusb_fifo.h ****   } linear, wrapped;
 139:SynaptiX_FDK/lib/tinyusb/src/common/tusb_fifo.h **** } tu_fifo_buffer_info_t;
 140:SynaptiX_FDK/lib/tinyusb/src/common/tusb_fifo.h **** 
 141:SynaptiX_FDK/lib/tinyusb/src/common/tusb_fifo.h **** // Access mode for hardware fifo read/write
 142:SynaptiX_FDK/lib/tinyusb/src/common/tusb_fifo.h **** typedef struct {
 143:SynaptiX_FDK/lib/tinyusb/src/common/tusb_fifo.h ****   uint8_t   data_stride;
ARM GAS  C:\Users\DELL\AppData\Local\Temp\ccaG9TDw.s 			page 17


 144:SynaptiX_FDK/lib/tinyusb/src/common/tusb_fifo.h ****   uintptr_t param;
 145:SynaptiX_FDK/lib/tinyusb/src/common/tusb_fifo.h **** } tu_hwfifo_access_t;
 146:SynaptiX_FDK/lib/tinyusb/src/common/tusb_fifo.h **** 
 147:SynaptiX_FDK/lib/tinyusb/src/common/tusb_fifo.h **** #define TU_FIFO_INIT(_buffer, _depth, _overwritable) \
 148:SynaptiX_FDK/lib/tinyusb/src/common/tusb_fifo.h ****   {                                                  \
 149:SynaptiX_FDK/lib/tinyusb/src/common/tusb_fifo.h ****     .buffer       = _buffer,                         \
 150:SynaptiX_FDK/lib/tinyusb/src/common/tusb_fifo.h ****     .depth        = _depth,                          \
 151:SynaptiX_FDK/lib/tinyusb/src/common/tusb_fifo.h ****     .overwritable = _overwritable,                   \
 152:SynaptiX_FDK/lib/tinyusb/src/common/tusb_fifo.h ****   }
 153:SynaptiX_FDK/lib/tinyusb/src/common/tusb_fifo.h **** 
 154:SynaptiX_FDK/lib/tinyusb/src/common/tusb_fifo.h **** #define TU_FIFO_DEF(_name, _depth, _overwritable)                    \
 155:SynaptiX_FDK/lib/tinyusb/src/common/tusb_fifo.h ****   uint8_t   _name##_buf[_depth];                                     \
 156:SynaptiX_FDK/lib/tinyusb/src/common/tusb_fifo.h ****   tu_fifo_t _name = TU_FIFO_INIT(_name##_buf, _depth, _overwritable)
 157:SynaptiX_FDK/lib/tinyusb/src/common/tusb_fifo.h **** 
 158:SynaptiX_FDK/lib/tinyusb/src/common/tusb_fifo.h **** // Moving data from tusb_fifo <-> USB hardware FIFOs e.g. STM32s need to use a special stride mode 
 159:SynaptiX_FDK/lib/tinyusb/src/common/tusb_fifo.h **** // data in 2/4 byte chunks from/to a fixed address (USB FIFO register) instead of incrementing the 
 160:SynaptiX_FDK/lib/tinyusb/src/common/tusb_fifo.h **** // read/write access_mode with stride_mode = true. The STRIDE DATA and ADDR stride must be configur
 161:SynaptiX_FDK/lib/tinyusb/src/common/tusb_fifo.h **** // CFG_TUSB_FIFO_HWFIFO_DATA_STRIDE and CFG_TUSB_FIFO_HWFIFO_ADDR_STRIDE
 162:SynaptiX_FDK/lib/tinyusb/src/common/tusb_fifo.h **** 
 163:SynaptiX_FDK/lib/tinyusb/src/common/tusb_fifo.h **** //--------------------------------------------------------------------+
 164:SynaptiX_FDK/lib/tinyusb/src/common/tusb_fifo.h **** // Setup API
 165:SynaptiX_FDK/lib/tinyusb/src/common/tusb_fifo.h **** //--------------------------------------------------------------------+
 166:SynaptiX_FDK/lib/tinyusb/src/common/tusb_fifo.h **** bool tu_fifo_config(tu_fifo_t *f, void *buffer, uint16_t depth, bool overwritable);
 167:SynaptiX_FDK/lib/tinyusb/src/common/tusb_fifo.h **** void tu_fifo_set_overwritable(tu_fifo_t *f, bool overwritable);
 168:SynaptiX_FDK/lib/tinyusb/src/common/tusb_fifo.h **** void tu_fifo_clear(tu_fifo_t *f);
 169:SynaptiX_FDK/lib/tinyusb/src/common/tusb_fifo.h **** 
 170:SynaptiX_FDK/lib/tinyusb/src/common/tusb_fifo.h **** #if OSAL_MUTEX_REQUIRED
 171:SynaptiX_FDK/lib/tinyusb/src/common/tusb_fifo.h **** TU_ATTR_ALWAYS_INLINE static inline
 172:SynaptiX_FDK/lib/tinyusb/src/common/tusb_fifo.h **** void tu_fifo_config_mutex(tu_fifo_t *f, osal_mutex_t wr_mutex, osal_mutex_t rd_mutex) {
 173:SynaptiX_FDK/lib/tinyusb/src/common/tusb_fifo.h ****   f->mutex_wr = wr_mutex;
 174:SynaptiX_FDK/lib/tinyusb/src/common/tusb_fifo.h ****   f->mutex_rd = rd_mutex;
 175:SynaptiX_FDK/lib/tinyusb/src/common/tusb_fifo.h **** }
 176:SynaptiX_FDK/lib/tinyusb/src/common/tusb_fifo.h **** #else
 177:SynaptiX_FDK/lib/tinyusb/src/common/tusb_fifo.h **** #define tu_fifo_config_mutex(_f, _wr_mutex, _rd_mutex)
 178:SynaptiX_FDK/lib/tinyusb/src/common/tusb_fifo.h **** #endif
 179:SynaptiX_FDK/lib/tinyusb/src/common/tusb_fifo.h **** 
 180:SynaptiX_FDK/lib/tinyusb/src/common/tusb_fifo.h **** //--------------------------------------------------------------------+
 181:SynaptiX_FDK/lib/tinyusb/src/common/tusb_fifo.h **** // Index API
 182:SynaptiX_FDK/lib/tinyusb/src/common/tusb_fifo.h **** //--------------------------------------------------------------------+
 183:SynaptiX_FDK/lib/tinyusb/src/common/tusb_fifo.h **** void tu_fifo_correct_read_pointer(tu_fifo_t *f);
 184:SynaptiX_FDK/lib/tinyusb/src/common/tusb_fifo.h **** 
 185:SynaptiX_FDK/lib/tinyusb/src/common/tusb_fifo.h **** // Pointer modifications intended to be used in combinations with DMAs.
 186:SynaptiX_FDK/lib/tinyusb/src/common/tusb_fifo.h **** // USE WITH CARE - NO SAFETY CHECKS CONDUCTED HERE! NOT MUTEX PROTECTED!
 187:SynaptiX_FDK/lib/tinyusb/src/common/tusb_fifo.h **** void tu_fifo_advance_write_pointer(tu_fifo_t *f, uint16_t n);
 188:SynaptiX_FDK/lib/tinyusb/src/common/tusb_fifo.h **** void tu_fifo_advance_read_pointer(tu_fifo_t *f, uint16_t n);
 189:SynaptiX_FDK/lib/tinyusb/src/common/tusb_fifo.h **** 
 190:SynaptiX_FDK/lib/tinyusb/src/common/tusb_fifo.h **** // If you want to read/write from/to the FIFO by use of a DMA, you may need to conduct two copies
 191:SynaptiX_FDK/lib/tinyusb/src/common/tusb_fifo.h **** // to handle a possible wrapping part. These functions deliver a pointer to start
 192:SynaptiX_FDK/lib/tinyusb/src/common/tusb_fifo.h **** // reading/writing from/to and a valid linear length along which no wrap occurs.
 193:SynaptiX_FDK/lib/tinyusb/src/common/tusb_fifo.h **** void tu_fifo_get_read_info(tu_fifo_t *f, tu_fifo_buffer_info_t *info);
 194:SynaptiX_FDK/lib/tinyusb/src/common/tusb_fifo.h **** void tu_fifo_get_write_info(tu_fifo_t *f, tu_fifo_buffer_info_t *info);
 195:SynaptiX_FDK/lib/tinyusb/src/common/tusb_fifo.h **** 
 196:SynaptiX_FDK/lib/tinyusb/src/common/tusb_fifo.h **** //--------------------------------------------------------------------+
 197:SynaptiX_FDK/lib/tinyusb/src/common/tusb_fifo.h **** // Peek API
 198:SynaptiX_FDK/lib/tinyusb/src/common/tusb_fifo.h **** // peek() will correct/re-index read pointer in case of an overflowed fifo to form a full fifo
 199:SynaptiX_FDK/lib/tinyusb/src/common/tusb_fifo.h **** //--------------------------------------------------------------------+
 200:SynaptiX_FDK/lib/tinyusb/src/common/tusb_fifo.h **** uint16_t tu_fifo_peek_n_access_mode(tu_fifo_t *f, void *p_buffer, uint16_t n, uint16_t wr_idx, uint
ARM GAS  C:\Users\DELL\AppData\Local\Temp\ccaG9TDw.s 			page 18


 201:SynaptiX_FDK/lib/tinyusb/src/common/tusb_fifo.h ****                                     const tu_hwfifo_access_t *access_mode);
 202:SynaptiX_FDK/lib/tinyusb/src/common/tusb_fifo.h **** bool     tu_fifo_peek(tu_fifo_t *f, void *p_buffer);
 203:SynaptiX_FDK/lib/tinyusb/src/common/tusb_fifo.h **** uint16_t tu_fifo_peek_n(tu_fifo_t *f, void *p_buffer, uint16_t n);
 204:SynaptiX_FDK/lib/tinyusb/src/common/tusb_fifo.h **** 
 205:SynaptiX_FDK/lib/tinyusb/src/common/tusb_fifo.h **** //--------------------------------------------------------------------+
 206:SynaptiX_FDK/lib/tinyusb/src/common/tusb_fifo.h **** // Read API
 207:SynaptiX_FDK/lib/tinyusb/src/common/tusb_fifo.h **** // peek() + advance read index
 208:SynaptiX_FDK/lib/tinyusb/src/common/tusb_fifo.h **** //--------------------------------------------------------------------+
 209:SynaptiX_FDK/lib/tinyusb/src/common/tusb_fifo.h **** uint16_t tu_fifo_read_n_access_mode(tu_fifo_t *f, void *buffer, uint16_t n, const tu_hwfifo_access_
 210:SynaptiX_FDK/lib/tinyusb/src/common/tusb_fifo.h **** bool     tu_fifo_read(tu_fifo_t *f, void *buffer);
 211:SynaptiX_FDK/lib/tinyusb/src/common/tusb_fifo.h **** TU_ATTR_ALWAYS_INLINE static inline uint16_t tu_fifo_read_n(tu_fifo_t *f, void *buffer, uint16_t n)
 212:SynaptiX_FDK/lib/tinyusb/src/common/tusb_fifo.h ****   return tu_fifo_read_n_access_mode(f, buffer, n, NULL);
 213:SynaptiX_FDK/lib/tinyusb/src/common/tusb_fifo.h **** }
 214:SynaptiX_FDK/lib/tinyusb/src/common/tusb_fifo.h **** 
 215:SynaptiX_FDK/lib/tinyusb/src/common/tusb_fifo.h **** // discard first n items from fifo i.e advance read pointer by n with mutex
 216:SynaptiX_FDK/lib/tinyusb/src/common/tusb_fifo.h **** // return number of discarded items
 217:SynaptiX_FDK/lib/tinyusb/src/common/tusb_fifo.h **** uint16_t tu_fifo_discard_n(tu_fifo_t *f, uint16_t n);
 218:SynaptiX_FDK/lib/tinyusb/src/common/tusb_fifo.h **** 
 219:SynaptiX_FDK/lib/tinyusb/src/common/tusb_fifo.h **** //--------------------------------------------------------------------+
 220:SynaptiX_FDK/lib/tinyusb/src/common/tusb_fifo.h **** // Write API
 221:SynaptiX_FDK/lib/tinyusb/src/common/tusb_fifo.h **** //--------------------------------------------------------------------+
 222:SynaptiX_FDK/lib/tinyusb/src/common/tusb_fifo.h **** uint16_t tu_fifo_write_n_access_mode(tu_fifo_t *f, const void *data, uint16_t n, const tu_hwfifo_ac
 223:SynaptiX_FDK/lib/tinyusb/src/common/tusb_fifo.h **** bool     tu_fifo_write(tu_fifo_t *f, const void *data);
 224:SynaptiX_FDK/lib/tinyusb/src/common/tusb_fifo.h **** TU_ATTR_ALWAYS_INLINE static inline uint16_t tu_fifo_write_n(tu_fifo_t *f, const void *data, uint16
 225:SynaptiX_FDK/lib/tinyusb/src/common/tusb_fifo.h ****   return tu_fifo_write_n_access_mode(f, data, n, NULL);
 226:SynaptiX_FDK/lib/tinyusb/src/common/tusb_fifo.h **** }
 227:SynaptiX_FDK/lib/tinyusb/src/common/tusb_fifo.h **** 
 228:SynaptiX_FDK/lib/tinyusb/src/common/tusb_fifo.h **** //--------------------------------------------------------------------+
 229:SynaptiX_FDK/lib/tinyusb/src/common/tusb_fifo.h **** // Hardware FIFO API
 230:SynaptiX_FDK/lib/tinyusb/src/common/tusb_fifo.h **** // Special hardware FIFO/Buffer to hold USB data, usually requires certain access method these can 
 231:SynaptiX_FDK/lib/tinyusb/src/common/tusb_fifo.h **** // CFG_TUSB_FIFO_HWFIFO_DATA_STRIDE (data width) and CFG_TUSB_FIFO_HWFIFO_ADDR_STRIDE (address incr
 232:SynaptiX_FDK/lib/tinyusb/src/common/tusb_fifo.h **** // Note: these usually has opposite direction (read/write) to/from our software FIFO  (tu_fifo_t)
 233:SynaptiX_FDK/lib/tinyusb/src/common/tusb_fifo.h **** //--------------------------------------------------------------------+
 234:SynaptiX_FDK/lib/tinyusb/src/common/tusb_fifo.h **** TU_ATTR_ALWAYS_INLINE static inline uint16_t tu_hwfifo_write_from_fifo(volatile void *hwfifo, tu_fi
 235:SynaptiX_FDK/lib/tinyusb/src/common/tusb_fifo.h ****                                                                        const tu_hwfifo_access_t *ac
 236:SynaptiX_FDK/lib/tinyusb/src/common/tusb_fifo.h ****   const tu_hwfifo_access_t default_access = {.data_stride = CFG_TUSB_FIFO_HWFIFO_DATA_STRIDE, .para
 237:SynaptiX_FDK/lib/tinyusb/src/common/tusb_fifo.h ****   return tu_fifo_read_n_access_mode(f, (void *)(uintptr_t)hwfifo, n,
 238:SynaptiX_FDK/lib/tinyusb/src/common/tusb_fifo.h ****                                     (access_mode != NULL) ? access_mode : &default_access);
 239:SynaptiX_FDK/lib/tinyusb/src/common/tusb_fifo.h **** }
 240:SynaptiX_FDK/lib/tinyusb/src/common/tusb_fifo.h **** 
 241:SynaptiX_FDK/lib/tinyusb/src/common/tusb_fifo.h **** TU_ATTR_ALWAYS_INLINE static inline uint16_t tu_hwfifo_read_to_fifo(const volatile void *hwfifo, tu
 242:SynaptiX_FDK/lib/tinyusb/src/common/tusb_fifo.h ****                                                                     uint16_t n, const tu_hwfifo_acc
 243:SynaptiX_FDK/lib/tinyusb/src/common/tusb_fifo.h ****   const tu_hwfifo_access_t default_access = {.data_stride = CFG_TUSB_FIFO_HWFIFO_DATA_STRIDE, .para
 244:SynaptiX_FDK/lib/tinyusb/src/common/tusb_fifo.h ****   return tu_fifo_write_n_access_mode(f, (const void *)(uintptr_t)hwfifo, n,
 245:SynaptiX_FDK/lib/tinyusb/src/common/tusb_fifo.h ****                                      (access_mode != NULL) ? access_mode : &default_access);
 246:SynaptiX_FDK/lib/tinyusb/src/common/tusb_fifo.h **** }
 247:SynaptiX_FDK/lib/tinyusb/src/common/tusb_fifo.h **** 
 248:SynaptiX_FDK/lib/tinyusb/src/common/tusb_fifo.h **** #if CFG_TUSB_FIFO_HWFIFO_API
 249:SynaptiX_FDK/lib/tinyusb/src/common/tusb_fifo.h **** // read from hwfifo to buffer
 250:SynaptiX_FDK/lib/tinyusb/src/common/tusb_fifo.h **** void tu_hwfifo_read(const volatile void *hwfifo, uint8_t *dest, uint16_t len, const tu_hwfifo_acces
 251:SynaptiX_FDK/lib/tinyusb/src/common/tusb_fifo.h **** 
 252:SynaptiX_FDK/lib/tinyusb/src/common/tusb_fifo.h **** // write to hwfifo from buffer with access mode
 253:SynaptiX_FDK/lib/tinyusb/src/common/tusb_fifo.h **** void tu_hwfifo_write(volatile void *hwfifo, const uint8_t *src, uint16_t len, const tu_hwfifo_acces
 254:SynaptiX_FDK/lib/tinyusb/src/common/tusb_fifo.h **** 
 255:SynaptiX_FDK/lib/tinyusb/src/common/tusb_fifo.h **** #endif
 256:SynaptiX_FDK/lib/tinyusb/src/common/tusb_fifo.h **** 
 257:SynaptiX_FDK/lib/tinyusb/src/common/tusb_fifo.h **** //--------------------------------------------------------------------+
ARM GAS  C:\Users\DELL\AppData\Local\Temp\ccaG9TDw.s 			page 19


 258:SynaptiX_FDK/lib/tinyusb/src/common/tusb_fifo.h **** // Internal Helper Local
 259:SynaptiX_FDK/lib/tinyusb/src/common/tusb_fifo.h **** // work on local copies of read/write indices in order to only access them once for re-entrancy
 260:SynaptiX_FDK/lib/tinyusb/src/common/tusb_fifo.h **** //--------------------------------------------------------------------+
 261:SynaptiX_FDK/lib/tinyusb/src/common/tusb_fifo.h **** // return overflowable count (index difference), which can be used to determine both fifo count and
 262:SynaptiX_FDK/lib/tinyusb/src/common/tusb_fifo.h **** TU_ATTR_ALWAYS_INLINE static inline uint16_t tu_ff_overflow_count(uint16_t depth, uint16_t wr_idx, 
 156              		.loc 2 262 46 is_stmt 1 view .LVU37
 157              	.LBB96:
 263:SynaptiX_FDK/lib/tinyusb/src/common/tusb_fifo.h ****   const int32_t diff = (int32_t)wr_idx - (int32_t)rd_idx;
 158              		.loc 2 263 3 view .LVU38
 159              		.loc 2 263 17 is_stmt 0 view .LVU39
 160 0008 D01A     		subs	r0, r2, r3
 161              	.LVL15:
 264:SynaptiX_FDK/lib/tinyusb/src/common/tusb_fifo.h ****   if (diff >= 0) {
 162              		.loc 2 264 3 is_stmt 1 view .LVU40
 163              		.loc 2 264 6 is_stmt 0 view .LVU41
 164 000a 0028     		cmp	r0, #0
 165 000c 05DB     		blt	.L8
 265:SynaptiX_FDK/lib/tinyusb/src/common/tusb_fifo.h ****     return (uint16_t)diff;
 166              		.loc 2 265 5 is_stmt 1 view .LVU42
 167              		.loc 2 265 12 is_stmt 0 view .LVU43
 168 000e 80B2     		uxth	r0, r0
 169              	.LVL16:
 170              	.L9:
 171              		.loc 2 265 12 view .LVU44
 172              	.LBE96:
 173              	.LBE95:
 616:SynaptiX_FDK/lib/tinyusb/src/common/tusb_fifo.c ****   if (ovf_count == 0) {
 174              		.loc 1 616 3 is_stmt 1 view .LVU45
 175              		.loc 1 616 6 is_stmt 0 view .LVU46
 176 0010 B8B1     		cbz	r0, .L14
 617:SynaptiX_FDK/lib/tinyusb/src/common/tusb_fifo.c ****     return false; // nothing to peek
 618:SynaptiX_FDK/lib/tinyusb/src/common/tusb_fifo.c ****   }
 619:SynaptiX_FDK/lib/tinyusb/src/common/tusb_fifo.c **** 
 620:SynaptiX_FDK/lib/tinyusb/src/common/tusb_fifo.c ****   // Correct read index if overflow
 621:SynaptiX_FDK/lib/tinyusb/src/common/tusb_fifo.c ****   if (ovf_count > f->depth) {
 177              		.loc 1 621 3 is_stmt 1 view .LVU47
 178              		.loc 1 621 6 is_stmt 0 view .LVU48
 179 0012 8142     		cmp	r1, r0
 180 0014 06D3     		bcc	.L16
 181              	.LVL17:
 182              	.L11:
 622:SynaptiX_FDK/lib/tinyusb/src/common/tusb_fifo.c ****     ff_lock(f->mutex_rd);
 623:SynaptiX_FDK/lib/tinyusb/src/common/tusb_fifo.c ****     rd_idx = correct_read_index(f, wr_idx);
 624:SynaptiX_FDK/lib/tinyusb/src/common/tusb_fifo.c ****     ff_unlock(f->mutex_rd);
 183              		.loc 1 624 27 is_stmt 1 view .LVU49
 625:SynaptiX_FDK/lib/tinyusb/src/common/tusb_fifo.c ****   }
 626:SynaptiX_FDK/lib/tinyusb/src/common/tusb_fifo.c **** 
 627:SynaptiX_FDK/lib/tinyusb/src/common/tusb_fifo.c ****   const uint16_t rd_ptr = idx2ptr(f->depth, rd_idx);
 184              		.loc 1 627 3 view .LVU50
 185              		.loc 1 627 27 is_stmt 0 view .LVU51
 186 0016 A288     		ldrh	r2, [r4, #4]
 187              	.LVL18:
 188              	.LBB98:
 189              	.LBI98:
 434:SynaptiX_FDK/lib/tinyusb/src/common/tusb_fifo.c ****   // Only run at most 3 times since index is limit in the range of [0..2*depth)
 190              		.loc 1 434 46 is_stmt 1 view .LVU52
 191              	.LBB99:
ARM GAS  C:\Users\DELL\AppData\Local\Temp\ccaG9TDw.s 			page 20


 436:SynaptiX_FDK/lib/tinyusb/src/common/tusb_fifo.c ****     idx -= depth;
 192              		.loc 1 436 3 view .LVU53
 436:SynaptiX_FDK/lib/tinyusb/src/common/tusb_fifo.c ****     idx -= depth;
 193              		.loc 1 436 9 is_stmt 0 view .LVU54
 194 0018 0CE0     		b	.L12
 195              	.LVL19:
 196              	.L8:
 436:SynaptiX_FDK/lib/tinyusb/src/common/tusb_fifo.c ****     idx -= depth;
 197              		.loc 1 436 9 view .LVU55
 198              	.LBE99:
 199              	.LBE98:
 200              	.LBB101:
 201              	.LBB97:
 266:SynaptiX_FDK/lib/tinyusb/src/common/tusb_fifo.h ****   } else {
 267:SynaptiX_FDK/lib/tinyusb/src/common/tusb_fifo.h ****     return (uint16_t)(2 * depth + diff);
 202              		.loc 2 267 5 is_stmt 1 view .LVU56
 203              		.loc 2 267 12 is_stmt 0 view .LVU57
 204 001a D01A     		subs	r0, r2, r3
 205              	.LVL20:
 206              		.loc 2 267 12 view .LVU58
 207 001c 00EB4100 		add	r0, r0, r1, lsl #1
 208 0020 80B2     		uxth	r0, r0
 209 0022 F5E7     		b	.L9
 210              	.LVL21:
 211              	.L16:
 212              		.loc 2 267 12 view .LVU59
 213              	.LBE97:
 214              	.LBE101:
 622:SynaptiX_FDK/lib/tinyusb/src/common/tusb_fifo.c ****     rd_idx = correct_read_index(f, wr_idx);
 215              		.loc 1 622 25 is_stmt 1 view .LVU60
 623:SynaptiX_FDK/lib/tinyusb/src/common/tusb_fifo.c ****     ff_unlock(f->mutex_rd);
 216              		.loc 1 623 5 view .LVU61
 623:SynaptiX_FDK/lib/tinyusb/src/common/tusb_fifo.c ****     ff_unlock(f->mutex_rd);
 217              		.loc 1 623 14 is_stmt 0 view .LVU62
 218 0024 1146     		mov	r1, r2
 219 0026 2046     		mov	r0, r4
 220              	.LVL22:
 623:SynaptiX_FDK/lib/tinyusb/src/common/tusb_fifo.c ****     ff_unlock(f->mutex_rd);
 221              		.loc 1 623 14 view .LVU63
 222 0028 FFF7FEFF 		bl	correct_read_index
 223              	.LVL23:
 623:SynaptiX_FDK/lib/tinyusb/src/common/tusb_fifo.c ****     ff_unlock(f->mutex_rd);
 224              		.loc 1 623 14 view .LVU64
 225 002c 0346     		mov	r3, r0
 226 002e F2E7     		b	.L11
 227              	.LVL24:
 228              	.L13:
 229              	.LBB102:
 230              	.LBB100:
 437:SynaptiX_FDK/lib/tinyusb/src/common/tusb_fifo.c ****   }
 231              		.loc 1 437 5 is_stmt 1 view .LVU65
 437:SynaptiX_FDK/lib/tinyusb/src/common/tusb_fifo.c ****   }
 232              		.loc 1 437 9 is_stmt 0 view .LVU66
 233 0030 9B1A     		subs	r3, r3, r2
 234              	.LVL25:
 437:SynaptiX_FDK/lib/tinyusb/src/common/tusb_fifo.c ****   }
 235              		.loc 1 437 9 view .LVU67
ARM GAS  C:\Users\DELL\AppData\Local\Temp\ccaG9TDw.s 			page 21


 236 0032 9BB2     		uxth	r3, r3
 237              	.LVL26:
 238              	.L12:
 436:SynaptiX_FDK/lib/tinyusb/src/common/tusb_fifo.c ****     idx -= depth;
 239              		.loc 1 436 14 is_stmt 1 view .LVU68
 240 0034 9A42     		cmp	r2, r3
 241 0036 FBD9     		bls	.L13
 439:SynaptiX_FDK/lib/tinyusb/src/common/tusb_fifo.c **** }
 242              		.loc 1 439 3 view .LVU69
 243              	.LVL27:
 439:SynaptiX_FDK/lib/tinyusb/src/common/tusb_fifo.c **** }
 244              		.loc 1 439 3 is_stmt 0 view .LVU70
 245              	.LBE100:
 246              	.LBE102:
 628:SynaptiX_FDK/lib/tinyusb/src/common/tusb_fifo.c ****   memcpy(buf, f->buffer + rd_ptr, 1);
 247              		.loc 1 628 3 is_stmt 1 view .LVU71
 248              		.loc 1 628 16 is_stmt 0 view .LVU72
 249 0038 2268     		ldr	r2, [r4]
 250              		.loc 1 628 3 view .LVU73
 251 003a D35C     		ldrb	r3, [r2, r3]	@ zero_extendqisi2
 252              	.LVL28:
 253              		.loc 1 628 3 view .LVU74
 254 003c 2B70     		strb	r3, [r5]
 629:SynaptiX_FDK/lib/tinyusb/src/common/tusb_fifo.c **** 
 630:SynaptiX_FDK/lib/tinyusb/src/common/tusb_fifo.c ****   return true;
 255              		.loc 1 630 3 is_stmt 1 view .LVU75
 256              		.loc 1 630 10 is_stmt 0 view .LVU76
 257 003e 0120     		movs	r0, #1
 258              	.LVL29:
 259              	.L10:
 631:SynaptiX_FDK/lib/tinyusb/src/common/tusb_fifo.c **** }
 260              		.loc 1 631 1 view .LVU77
 261 0040 38BD     		pop	{r3, r4, r5, pc}
 262              	.LVL30:
 263              	.L14:
 617:SynaptiX_FDK/lib/tinyusb/src/common/tusb_fifo.c ****   }
 264              		.loc 1 617 12 view .LVU78
 265 0042 0020     		movs	r0, #0
 266              	.LVL31:
 617:SynaptiX_FDK/lib/tinyusb/src/common/tusb_fifo.c ****   }
 267              		.loc 1 617 12 view .LVU79
 268 0044 FCE7     		b	.L10
 269              		.cfi_endproc
 270              	.LFE427:
 272              		.section	.text.ff_pull_n,"ax",%progbits
 273              		.align	1
 274              		.syntax unified
 275              		.thumb
 276              		.thumb_func
 278              	ff_pull_n:
 279              	.LVL32:
 280              	.LFB418:
 398:SynaptiX_FDK/lib/tinyusb/src/common/tusb_fifo.c ****   uint16_t       lin_bytes  = f->depth - rd_ptr;
 281              		.loc 1 398 87 is_stmt 1 view -0
 282              		.cfi_startproc
 283              		@ args = 0, pretend = 0, frame = 0
 284              		@ frame_needed = 0, uses_anonymous_args = 0
ARM GAS  C:\Users\DELL\AppData\Local\Temp\ccaG9TDw.s 			page 22


 398:SynaptiX_FDK/lib/tinyusb/src/common/tusb_fifo.c ****   uint16_t       lin_bytes  = f->depth - rd_ptr;
 285              		.loc 1 398 87 is_stmt 0 view .LVU81
 286 0000 F8B5     		push	{r3, r4, r5, r6, r7, lr}
 287              	.LCFI1:
 288              		.cfi_def_cfa_offset 24
 289              		.cfi_offset 3, -24
 290              		.cfi_offset 4, -20
 291              		.cfi_offset 5, -16
 292              		.cfi_offset 6, -12
 293              		.cfi_offset 7, -8
 294              		.cfi_offset 14, -4
 295 0002 0E46     		mov	r6, r1
 399:SynaptiX_FDK/lib/tinyusb/src/common/tusb_fifo.c ****   uint16_t       wrap_bytes = n - lin_bytes; // only used if wrapped
 296              		.loc 1 399 3 is_stmt 1 view .LVU82
 399:SynaptiX_FDK/lib/tinyusb/src/common/tusb_fifo.c ****   uint16_t       wrap_bytes = n - lin_bytes; // only used if wrapped
 297              		.loc 1 399 32 is_stmt 0 view .LVU83
 298 0004 B0F804C0 		ldrh	ip, [r0, #4]
 399:SynaptiX_FDK/lib/tinyusb/src/common/tusb_fifo.c ****   uint16_t       wrap_bytes = n - lin_bytes; // only used if wrapped
 299              		.loc 1 399 18 view .LVU84
 300 0008 ACEB0307 		sub	r7, ip, r3
 301 000c BFB2     		uxth	r7, r7
 302              	.LVL33:
 400:SynaptiX_FDK/lib/tinyusb/src/common/tusb_fifo.c ****   const uint8_t *ff_buf     = f->buffer + rd_ptr;
 303              		.loc 1 400 3 is_stmt 1 view .LVU85
 400:SynaptiX_FDK/lib/tinyusb/src/common/tusb_fifo.c ****   const uint8_t *ff_buf     = f->buffer + rd_ptr;
 304              		.loc 1 400 18 is_stmt 0 view .LVU86
 305 000e A3EB0C0C 		sub	ip, r3, ip
 306 0012 9444     		add	ip, ip, r2
 307              	.LVL34:
 401:SynaptiX_FDK/lib/tinyusb/src/common/tusb_fifo.c **** 
 308              		.loc 1 401 3 is_stmt 1 view .LVU87
 401:SynaptiX_FDK/lib/tinyusb/src/common/tusb_fifo.c **** 
 309              		.loc 1 401 32 is_stmt 0 view .LVU88
 310 0014 0168     		ldr	r1, [r0]
 311              	.LVL35:
 401:SynaptiX_FDK/lib/tinyusb/src/common/tusb_fifo.c **** 
 312              		.loc 1 401 18 view .LVU89
 313 0016 1944     		add	r1, r1, r3
 314              	.LVL36:
 404:SynaptiX_FDK/lib/tinyusb/src/common/tusb_fifo.c ****     // Linear only
 315              		.loc 1 404 3 is_stmt 1 view .LVU90
 404:SynaptiX_FDK/lib/tinyusb/src/common/tusb_fifo.c ****     // Linear only
 316              		.loc 1 404 6 is_stmt 0 view .LVU91
 317 0018 9742     		cmp	r7, r2
 318 001a 03D3     		bcc	.L18
 406:SynaptiX_FDK/lib/tinyusb/src/common/tusb_fifo.c ****   } else {
 319              		.loc 1 406 5 is_stmt 1 view .LVU92
 320 001c 3046     		mov	r0, r6
 321              	.LVL37:
 406:SynaptiX_FDK/lib/tinyusb/src/common/tusb_fifo.c ****   } else {
 322              		.loc 1 406 5 is_stmt 0 view .LVU93
 323 001e FFF7FEFF 		bl	memcpy
 324              	.LVL38:
 325              	.L17:
 412:SynaptiX_FDK/lib/tinyusb/src/common/tusb_fifo.c **** 
 326              		.loc 1 412 1 view .LVU94
 327 0022 F8BD     		pop	{r3, r4, r5, r6, r7, pc}
ARM GAS  C:\Users\DELL\AppData\Local\Temp\ccaG9TDw.s 			page 23


 328              	.LVL39:
 329              	.L18:
 412:SynaptiX_FDK/lib/tinyusb/src/common/tusb_fifo.c **** 
 330              		.loc 1 412 1 view .LVU95
 331 0024 0546     		mov	r5, r0
 332 0026 1FFA8CF4 		uxth	r4, ip
 409:SynaptiX_FDK/lib/tinyusb/src/common/tusb_fifo.c ****     memcpy((uint8_t *)app_buf + lin_bytes, f->buffer, wrap_bytes); // wrapped part
 333              		.loc 1 409 5 is_stmt 1 view .LVU96
 334 002a 3A46     		mov	r2, r7
 335              	.LVL40:
 409:SynaptiX_FDK/lib/tinyusb/src/common/tusb_fifo.c ****     memcpy((uint8_t *)app_buf + lin_bytes, f->buffer, wrap_bytes); // wrapped part
 336              		.loc 1 409 5 is_stmt 0 view .LVU97
 337 002c 3046     		mov	r0, r6
 338              	.LVL41:
 409:SynaptiX_FDK/lib/tinyusb/src/common/tusb_fifo.c ****     memcpy((uint8_t *)app_buf + lin_bytes, f->buffer, wrap_bytes); // wrapped part
 339              		.loc 1 409 5 view .LVU98
 340 002e FFF7FEFF 		bl	memcpy
 341              	.LVL42:
 410:SynaptiX_FDK/lib/tinyusb/src/common/tusb_fifo.c ****   }
 342              		.loc 1 410 5 is_stmt 1 view .LVU99
 343 0032 2246     		mov	r2, r4
 344 0034 2968     		ldr	r1, [r5]
 345 0036 F019     		adds	r0, r6, r7
 346 0038 FFF7FEFF 		bl	memcpy
 347              	.LVL43:
 412:SynaptiX_FDK/lib/tinyusb/src/common/tusb_fifo.c **** 
 348              		.loc 1 412 1 is_stmt 0 view .LVU100
 349 003c F1E7     		b	.L17
 350              		.cfi_endproc
 351              	.LFE418:
 353              		.section	.text.ff_push_n,"ax",%progbits
 354              		.align	1
 355              		.syntax unified
 356              		.thumb
 357              		.thumb_func
 359              	ff_push_n:
 360              	.LVL44:
 361              	.LFB417:
 382:SynaptiX_FDK/lib/tinyusb/src/common/tusb_fifo.c ****   uint16_t lin_bytes  = f->depth - wr_ptr;
 362              		.loc 1 382 93 is_stmt 1 view -0
 363              		.cfi_startproc
 364              		@ args = 0, pretend = 0, frame = 0
 365              		@ frame_needed = 0, uses_anonymous_args = 0
 382:SynaptiX_FDK/lib/tinyusb/src/common/tusb_fifo.c ****   uint16_t lin_bytes  = f->depth - wr_ptr;
 366              		.loc 1 382 93 is_stmt 0 view .LVU102
 367 0000 F8B5     		push	{r3, r4, r5, r6, r7, lr}
 368              	.LCFI2:
 369              		.cfi_def_cfa_offset 24
 370              		.cfi_offset 3, -24
 371              		.cfi_offset 4, -20
 372              		.cfi_offset 5, -16
 373              		.cfi_offset 6, -12
 374              		.cfi_offset 7, -8
 375              		.cfi_offset 14, -4
 376 0002 0546     		mov	r5, r0
 377 0004 0E46     		mov	r6, r1
 383:SynaptiX_FDK/lib/tinyusb/src/common/tusb_fifo.c ****   uint16_t wrap_bytes = n - lin_bytes;
ARM GAS  C:\Users\DELL\AppData\Local\Temp\ccaG9TDw.s 			page 24


 378              		.loc 1 383 3 is_stmt 1 view .LVU103
 383:SynaptiX_FDK/lib/tinyusb/src/common/tusb_fifo.c ****   uint16_t wrap_bytes = n - lin_bytes;
 379              		.loc 1 383 26 is_stmt 0 view .LVU104
 380 0006 B0F804C0 		ldrh	ip, [r0, #4]
 383:SynaptiX_FDK/lib/tinyusb/src/common/tusb_fifo.c ****   uint16_t wrap_bytes = n - lin_bytes;
 381              		.loc 1 383 12 view .LVU105
 382 000a ACEB0307 		sub	r7, ip, r3
 383 000e BFB2     		uxth	r7, r7
 384              	.LVL45:
 384:SynaptiX_FDK/lib/tinyusb/src/common/tusb_fifo.c ****   uint8_t *ff_buf     = f->buffer + wr_ptr;
 385              		.loc 1 384 3 is_stmt 1 view .LVU106
 384:SynaptiX_FDK/lib/tinyusb/src/common/tusb_fifo.c ****   uint8_t *ff_buf     = f->buffer + wr_ptr;
 386              		.loc 1 384 12 is_stmt 0 view .LVU107
 387 0010 A3EB0C0C 		sub	ip, r3, ip
 388 0014 9444     		add	ip, ip, r2
 389              	.LVL46:
 385:SynaptiX_FDK/lib/tinyusb/src/common/tusb_fifo.c **** 
 390              		.loc 1 385 3 is_stmt 1 view .LVU108
 385:SynaptiX_FDK/lib/tinyusb/src/common/tusb_fifo.c **** 
 391              		.loc 1 385 26 is_stmt 0 view .LVU109
 392 0016 0068     		ldr	r0, [r0]
 393              	.LVL47:
 385:SynaptiX_FDK/lib/tinyusb/src/common/tusb_fifo.c **** 
 394              		.loc 1 385 12 view .LVU110
 395 0018 1844     		add	r0, r0, r3
 396              	.LVL48:
 387:SynaptiX_FDK/lib/tinyusb/src/common/tusb_fifo.c ****     // Linear only case
 397              		.loc 1 387 3 is_stmt 1 view .LVU111
 387:SynaptiX_FDK/lib/tinyusb/src/common/tusb_fifo.c ****     // Linear only case
 398              		.loc 1 387 6 is_stmt 0 view .LVU112
 399 001a 9742     		cmp	r7, r2
 400 001c 02D3     		bcc	.L22
 389:SynaptiX_FDK/lib/tinyusb/src/common/tusb_fifo.c ****   } else {
 401              		.loc 1 389 5 is_stmt 1 view .LVU113
 402 001e FFF7FEFF 		bl	memcpy
 403              	.LVL49:
 404              	.L21:
 395:SynaptiX_FDK/lib/tinyusb/src/common/tusb_fifo.c **** 
 405              		.loc 1 395 1 is_stmt 0 view .LVU114
 406 0022 F8BD     		pop	{r3, r4, r5, r6, r7, pc}
 407              	.LVL50:
 408              	.L22:
 395:SynaptiX_FDK/lib/tinyusb/src/common/tusb_fifo.c **** 
 409              		.loc 1 395 1 view .LVU115
 410 0024 1FFA8CF4 		uxth	r4, ip
 392:SynaptiX_FDK/lib/tinyusb/src/common/tusb_fifo.c ****     memcpy(f->buffer, ((const uint8_t *)app_buf) + lin_bytes, wrap_bytes); // wrapped part
 411              		.loc 1 392 5 is_stmt 1 view .LVU116
 412 0028 3A46     		mov	r2, r7
 413              	.LVL51:
 392:SynaptiX_FDK/lib/tinyusb/src/common/tusb_fifo.c ****     memcpy(f->buffer, ((const uint8_t *)app_buf) + lin_bytes, wrap_bytes); // wrapped part
 414              		.loc 1 392 5 is_stmt 0 view .LVU117
 415 002a FFF7FEFF 		bl	memcpy
 416              	.LVL52:
 393:SynaptiX_FDK/lib/tinyusb/src/common/tusb_fifo.c ****   }
 417              		.loc 1 393 5 is_stmt 1 view .LVU118
 418 002e 2246     		mov	r2, r4
 419 0030 F119     		adds	r1, r6, r7
ARM GAS  C:\Users\DELL\AppData\Local\Temp\ccaG9TDw.s 			page 25


 420 0032 2868     		ldr	r0, [r5]
 421 0034 FFF7FEFF 		bl	memcpy
 422              	.LVL53:
 395:SynaptiX_FDK/lib/tinyusb/src/common/tusb_fifo.c **** 
 423              		.loc 1 395 1 is_stmt 0 view .LVU119
 424 0038 F3E7     		b	.L21
 425              		.cfi_endproc
 426              	.LFE417:
 428              		.section	.text.tu_fifo_config,"ax",%progbits
 429              		.align	1
 430              		.global	tu_fifo_config
 431              		.syntax unified
 432              		.thumb
 433              		.thumb_func
 435              	tu_fifo_config:
 436              	.LVL54:
 437              	.LFB408:
  57:SynaptiX_FDK/lib/tinyusb/src/common/tusb_fifo.c ****   // Limit index space to 2*depth - this allows for a fast "modulo" calculation
 438              		.loc 1 57 84 is_stmt 1 view -0
 439              		.cfi_startproc
 440              		@ args = 0, pretend = 0, frame = 0
 441              		@ frame_needed = 0, uses_anonymous_args = 0
 442              		@ link register save eliminated.
  61:SynaptiX_FDK/lib/tinyusb/src/common/tusb_fifo.c ****     return false;
 443              		.loc 1 61 3 view .LVU121
  61:SynaptiX_FDK/lib/tinyusb/src/common/tusb_fifo.c ****     return false;
 444              		.loc 1 61 6 is_stmt 0 view .LVU122
 445 0000 B2F5004F 		cmp	r2, #32768
 446 0004 07D8     		bhi	.L27
  65:SynaptiX_FDK/lib/tinyusb/src/common/tusb_fifo.c ****   ff_lock(f->mutex_rd);
 447              		.loc 1 65 23 is_stmt 1 view .LVU123
  66:SynaptiX_FDK/lib/tinyusb/src/common/tusb_fifo.c **** 
 448              		.loc 1 66 23 view .LVU124
  68:SynaptiX_FDK/lib/tinyusb/src/common/tusb_fifo.c ****   f->depth        = depth;
 449              		.loc 1 68 3 view .LVU125
  68:SynaptiX_FDK/lib/tinyusb/src/common/tusb_fifo.c ****   f->depth        = depth;
 450              		.loc 1 68 19 is_stmt 0 view .LVU126
 451 0006 0160     		str	r1, [r0]
  69:SynaptiX_FDK/lib/tinyusb/src/common/tusb_fifo.c ****   f->overwritable = overwritable;
 452              		.loc 1 69 3 is_stmt 1 view .LVU127
  69:SynaptiX_FDK/lib/tinyusb/src/common/tusb_fifo.c ****   f->overwritable = overwritable;
 453              		.loc 1 69 19 is_stmt 0 view .LVU128
 454 0008 8280     		strh	r2, [r0, #4]	@ movhi
  70:SynaptiX_FDK/lib/tinyusb/src/common/tusb_fifo.c ****   f->rd_idx       = 0u;
 455              		.loc 1 70 3 is_stmt 1 view .LVU129
  70:SynaptiX_FDK/lib/tinyusb/src/common/tusb_fifo.c ****   f->rd_idx       = 0u;
 456              		.loc 1 70 19 is_stmt 0 view .LVU130
 457 000a 8371     		strb	r3, [r0, #6]
  71:SynaptiX_FDK/lib/tinyusb/src/common/tusb_fifo.c ****   f->wr_idx       = 0u;
 458              		.loc 1 71 3 is_stmt 1 view .LVU131
  71:SynaptiX_FDK/lib/tinyusb/src/common/tusb_fifo.c ****   f->wr_idx       = 0u;
 459              		.loc 1 71 19 is_stmt 0 view .LVU132
 460 000c 0023     		movs	r3, #0
 461              	.LVL55:
  71:SynaptiX_FDK/lib/tinyusb/src/common/tusb_fifo.c ****   f->wr_idx       = 0u;
 462              		.loc 1 71 19 view .LVU133
 463 000e 4381     		strh	r3, [r0, #10]	@ movhi
ARM GAS  C:\Users\DELL\AppData\Local\Temp\ccaG9TDw.s 			page 26


  72:SynaptiX_FDK/lib/tinyusb/src/common/tusb_fifo.c **** 
 464              		.loc 1 72 3 is_stmt 1 view .LVU134
  72:SynaptiX_FDK/lib/tinyusb/src/common/tusb_fifo.c **** 
 465              		.loc 1 72 19 is_stmt 0 view .LVU135
 466 0010 0381     		strh	r3, [r0, #8]	@ movhi
  74:SynaptiX_FDK/lib/tinyusb/src/common/tusb_fifo.c ****   ff_unlock(f->mutex_rd);
 467              		.loc 1 74 25 is_stmt 1 view .LVU136
  75:SynaptiX_FDK/lib/tinyusb/src/common/tusb_fifo.c **** 
 468              		.loc 1 75 25 view .LVU137
  77:SynaptiX_FDK/lib/tinyusb/src/common/tusb_fifo.c **** }
 469              		.loc 1 77 3 view .LVU138
  77:SynaptiX_FDK/lib/tinyusb/src/common/tusb_fifo.c **** }
 470              		.loc 1 77 10 is_stmt 0 view .LVU139
 471 0012 0120     		movs	r0, #1
 472              	.LVL56:
  77:SynaptiX_FDK/lib/tinyusb/src/common/tusb_fifo.c **** }
 473              		.loc 1 77 10 view .LVU140
 474 0014 7047     		bx	lr
 475              	.LVL57:
 476              	.L27:
  62:SynaptiX_FDK/lib/tinyusb/src/common/tusb_fifo.c ****   }
 477              		.loc 1 62 12 view .LVU141
 478 0016 0020     		movs	r0, #0
 479              	.LVL58:
  78:SynaptiX_FDK/lib/tinyusb/src/common/tusb_fifo.c **** 
 480              		.loc 1 78 1 view .LVU142
 481 0018 7047     		bx	lr
 482              		.cfi_endproc
 483              	.LFE408:
 485              		.section	.text.tu_fifo_clear,"ax",%progbits
 486              		.align	1
 487              		.global	tu_fifo_clear
 488              		.syntax unified
 489              		.thumb
 490              		.thumb_func
 492              	tu_fifo_clear:
 493              	.LVL59:
 494              	.LFB409:
  81:SynaptiX_FDK/lib/tinyusb/src/common/tusb_fifo.c ****   ff_lock(f->mutex_wr);
 495              		.loc 1 81 34 is_stmt 1 view -0
 496              		.cfi_startproc
 497              		@ args = 0, pretend = 0, frame = 0
 498              		@ frame_needed = 0, uses_anonymous_args = 0
 499              		@ link register save eliminated.
  82:SynaptiX_FDK/lib/tinyusb/src/common/tusb_fifo.c ****   ff_lock(f->mutex_rd);
 500              		.loc 1 82 23 view .LVU144
  83:SynaptiX_FDK/lib/tinyusb/src/common/tusb_fifo.c **** 
 501              		.loc 1 83 23 view .LVU145
  85:SynaptiX_FDK/lib/tinyusb/src/common/tusb_fifo.c ****   f->wr_idx = 0;
 502              		.loc 1 85 3 view .LVU146
  85:SynaptiX_FDK/lib/tinyusb/src/common/tusb_fifo.c ****   f->wr_idx = 0;
 503              		.loc 1 85 13 is_stmt 0 view .LVU147
 504 0000 0023     		movs	r3, #0
 505 0002 4381     		strh	r3, [r0, #10]	@ movhi
  86:SynaptiX_FDK/lib/tinyusb/src/common/tusb_fifo.c **** 
 506              		.loc 1 86 3 is_stmt 1 view .LVU148
  86:SynaptiX_FDK/lib/tinyusb/src/common/tusb_fifo.c **** 
ARM GAS  C:\Users\DELL\AppData\Local\Temp\ccaG9TDw.s 			page 27


 507              		.loc 1 86 13 is_stmt 0 view .LVU149
 508 0004 0381     		strh	r3, [r0, #8]	@ movhi
  88:SynaptiX_FDK/lib/tinyusb/src/common/tusb_fifo.c ****   ff_unlock(f->mutex_rd);
 509              		.loc 1 88 25 is_stmt 1 view .LVU150
  89:SynaptiX_FDK/lib/tinyusb/src/common/tusb_fifo.c **** }
 510              		.loc 1 89 25 view .LVU151
  90:SynaptiX_FDK/lib/tinyusb/src/common/tusb_fifo.c **** 
 511              		.loc 1 90 1 is_stmt 0 view .LVU152
 512 0006 7047     		bx	lr
 513              		.cfi_endproc
 514              	.LFE409:
 516              		.section	.text.tu_fifo_set_overwritable,"ax",%progbits
 517              		.align	1
 518              		.global	tu_fifo_set_overwritable
 519              		.syntax unified
 520              		.thumb
 521              		.thumb_func
 523              	tu_fifo_set_overwritable:
 524              	.LVL60:
 525              	.LFB410:
  93:SynaptiX_FDK/lib/tinyusb/src/common/tusb_fifo.c ****   if (f->overwritable == overwritable) {
 526              		.loc 1 93 64 is_stmt 1 view -0
 527              		.cfi_startproc
 528              		@ args = 0, pretend = 0, frame = 0
 529              		@ frame_needed = 0, uses_anonymous_args = 0
 530              		@ link register save eliminated.
  94:SynaptiX_FDK/lib/tinyusb/src/common/tusb_fifo.c ****     return;
 531              		.loc 1 94 3 view .LVU154
  94:SynaptiX_FDK/lib/tinyusb/src/common/tusb_fifo.c ****     return;
 532              		.loc 1 94 8 is_stmt 0 view .LVU155
 533 0000 8379     		ldrb	r3, [r0, #6]	@ zero_extendqisi2
  94:SynaptiX_FDK/lib/tinyusb/src/common/tusb_fifo.c ****     return;
 534              		.loc 1 94 6 view .LVU156
 535 0002 8B42     		cmp	r3, r1
 536 0004 00D0     		beq	.L29
  98:SynaptiX_FDK/lib/tinyusb/src/common/tusb_fifo.c ****   ff_lock(f->mutex_rd);
 537              		.loc 1 98 23 is_stmt 1 view .LVU157
  99:SynaptiX_FDK/lib/tinyusb/src/common/tusb_fifo.c **** 
 538              		.loc 1 99 23 view .LVU158
 101:SynaptiX_FDK/lib/tinyusb/src/common/tusb_fifo.c **** 
 539              		.loc 1 101 3 view .LVU159
 101:SynaptiX_FDK/lib/tinyusb/src/common/tusb_fifo.c **** 
 540              		.loc 1 101 19 is_stmt 0 view .LVU160
 541 0006 8171     		strb	r1, [r0, #6]
 103:SynaptiX_FDK/lib/tinyusb/src/common/tusb_fifo.c ****   ff_unlock(f->mutex_rd);
 542              		.loc 1 103 25 is_stmt 1 view .LVU161
 104:SynaptiX_FDK/lib/tinyusb/src/common/tusb_fifo.c **** }
 543              		.loc 1 104 25 view .LVU162
 544              	.L29:
 105:SynaptiX_FDK/lib/tinyusb/src/common/tusb_fifo.c **** 
 545              		.loc 1 105 1 is_stmt 0 view .LVU163
 546 0008 7047     		bx	lr
 547              		.cfi_endproc
 548              	.LFE410:
 550              		.section	.text.tu_hwfifo_write,"ax",%progbits
 551              		.align	1
 552              		.global	tu_hwfifo_write
ARM GAS  C:\Users\DELL\AppData\Local\Temp\ccaG9TDw.s 			page 28


 553              		.syntax unified
 554              		.thumb
 555              		.thumb_func
 557              	tu_hwfifo_write:
 558              	.LVL61:
 559              	.LFB412:
 152:SynaptiX_FDK/lib/tinyusb/src/common/tusb_fifo.c ****   // Write full available 16/32 bit words to dest
 560              		.loc 1 152 118 is_stmt 1 view -0
 561              		.cfi_startproc
 562              		@ args = 0, pretend = 0, frame = 8
 563              		@ frame_needed = 0, uses_anonymous_args = 0
 152:SynaptiX_FDK/lib/tinyusb/src/common/tusb_fifo.c ****   // Write full available 16/32 bit words to dest
 564              		.loc 1 152 118 is_stmt 0 view .LVU165
 565 0000 10B5     		push	{r4, lr}
 566              	.LCFI3:
 567              		.cfi_def_cfa_offset 8
 568              		.cfi_offset 4, -8
 569              		.cfi_offset 14, -4
 570 0002 82B0     		sub	sp, sp, #8
 571              	.LCFI4:
 572              		.cfi_def_cfa_offset 16
 573 0004 0446     		mov	r4, r0
 154:SynaptiX_FDK/lib/tinyusb/src/common/tusb_fifo.c ****   while (len >= data_stride) {
 574              		.loc 1 154 3 is_stmt 1 view .LVU166
 154:SynaptiX_FDK/lib/tinyusb/src/common/tusb_fifo.c ****   while (len >= data_stride) {
 575              		.loc 1 154 17 is_stmt 0 view .LVU167
 576 0006 0BB1     		cbz	r3, .L36
 154:SynaptiX_FDK/lib/tinyusb/src/common/tusb_fifo.c ****   while (len >= data_stride) {
 577              		.loc 1 154 17 discriminator 1 view .LVU168
 578 0008 1B78     		ldrb	r3, [r3]	@ zero_extendqisi2
 579              	.LVL62:
 154:SynaptiX_FDK/lib/tinyusb/src/common/tusb_fifo.c ****   while (len >= data_stride) {
 580              		.loc 1 154 17 discriminator 1 view .LVU169
 581 000a 07E0     		b	.L33
 582              	.LVL63:
 583              	.L36:
 154:SynaptiX_FDK/lib/tinyusb/src/common/tusb_fifo.c ****   while (len >= data_stride) {
 584              		.loc 1 154 17 discriminator 2 view .LVU170
 585 000c 0423     		movs	r3, #4
 586              	.LVL64:
 155:SynaptiX_FDK/lib/tinyusb/src/common/tusb_fifo.c ****     stride_write(hwfifo, src, data_stride);
 587              		.loc 1 155 3 is_stmt 1 view .LVU171
 155:SynaptiX_FDK/lib/tinyusb/src/common/tusb_fifo.c ****     stride_write(hwfifo, src, data_stride);
 588              		.loc 1 155 9 is_stmt 0 view .LVU172
 589 000e 05E0     		b	.L33
 590              	.LVL65:
 591              	.L34:
 156:SynaptiX_FDK/lib/tinyusb/src/common/tusb_fifo.c ****     src += data_stride;
 592              		.loc 1 156 5 is_stmt 1 view .LVU173
 593              	.LBB103:
 594              	.LBI103:
 126:SynaptiX_FDK/lib/tinyusb/src/common/tusb_fifo.c ****   (void)data_stride; // possible unused
 595              		.loc 1 126 42 view .LVU174
 596              	.LBB104:
 127:SynaptiX_FDK/lib/tinyusb/src/common/tusb_fifo.c ****     #if CFG_TUSB_FIFO_HWFIFO_DATA_STRIDE & 4
 597              		.loc 1 127 3 view .LVU175
 133:SynaptiX_FDK/lib/tinyusb/src/common/tusb_fifo.c ****   }
ARM GAS  C:\Users\DELL\AppData\Local\Temp\ccaG9TDw.s 			page 29


 598              		.loc 1 133 5 view .LVU176
 599              	.LBB105:
 600              	.LBI105:
 601              		.file 3 "SynaptiX_FDK/lib/tinyusb/src/common/tusb_common.h"
   1:SynaptiX_FDK/lib/tinyusb/src/common/tusb_common.h **** /*
   2:SynaptiX_FDK/lib/tinyusb/src/common/tusb_common.h ****  * The MIT License (MIT)
   3:SynaptiX_FDK/lib/tinyusb/src/common/tusb_common.h ****  *
   4:SynaptiX_FDK/lib/tinyusb/src/common/tusb_common.h ****  * Copyright (c) 2019 Ha Thach (tinyusb.org)
   5:SynaptiX_FDK/lib/tinyusb/src/common/tusb_common.h ****  *
   6:SynaptiX_FDK/lib/tinyusb/src/common/tusb_common.h ****  * Permission is hereby granted, free of charge, to any person obtaining a copy
   7:SynaptiX_FDK/lib/tinyusb/src/common/tusb_common.h ****  * of this software and associated documentation files (the "Software"), to deal
   8:SynaptiX_FDK/lib/tinyusb/src/common/tusb_common.h ****  * in the Software without restriction, including without limitation the rights
   9:SynaptiX_FDK/lib/tinyusb/src/common/tusb_common.h ****  * to use, copy, modify, merge, publish, distribute, sublicense, and/or sell
  10:SynaptiX_FDK/lib/tinyusb/src/common/tusb_common.h ****  * copies of the Software, and to permit persons to whom the Software is
  11:SynaptiX_FDK/lib/tinyusb/src/common/tusb_common.h ****  * furnished to do so, subject to the following conditions:
  12:SynaptiX_FDK/lib/tinyusb/src/common/tusb_common.h ****  *
  13:SynaptiX_FDK/lib/tinyusb/src/common/tusb_common.h ****  * The above copyright notice and this permission notice shall be included in
  14:SynaptiX_FDK/lib/tinyusb/src/common/tusb_common.h ****  * all copies or substantial portions of the Software.
  15:SynaptiX_FDK/lib/tinyusb/src/common/tusb_common.h ****  *
  16:SynaptiX_FDK/lib/tinyusb/src/common/tusb_common.h ****  * THE SOFTWARE IS PROVIDED "AS IS", WITHOUT WARRANTY OF ANY KIND, EXPRESS OR
  17:SynaptiX_FDK/lib/tinyusb/src/common/tusb_common.h ****  * IMPLIED, INCLUDING BUT NOT LIMITED TO THE WARRANTIES OF MERCHANTABILITY,
  18:SynaptiX_FDK/lib/tinyusb/src/common/tusb_common.h ****  * FITNESS FOR A PARTICULAR PURPOSE AND NONINFRINGEMENT. IN NO EVENT SHALL THE
  19:SynaptiX_FDK/lib/tinyusb/src/common/tusb_common.h ****  * AUTHORS OR COPYRIGHT HOLDERS BE LIABLE FOR ANY CLAIM, DAMAGES OR OTHER
  20:SynaptiX_FDK/lib/tinyusb/src/common/tusb_common.h ****  * LIABILITY, WHETHER IN AN ACTION OF CONTRACT, TORT OR OTHERWISE, ARISING FROM,
  21:SynaptiX_FDK/lib/tinyusb/src/common/tusb_common.h ****  * OUT OF OR IN CONNECTION WITH THE SOFTWARE OR THE USE OR OTHER DEALINGS IN
  22:SynaptiX_FDK/lib/tinyusb/src/common/tusb_common.h ****  * THE SOFTWARE.
  23:SynaptiX_FDK/lib/tinyusb/src/common/tusb_common.h ****  *
  24:SynaptiX_FDK/lib/tinyusb/src/common/tusb_common.h ****  * This file is part of the TinyUSB stack.
  25:SynaptiX_FDK/lib/tinyusb/src/common/tusb_common.h ****  */
  26:SynaptiX_FDK/lib/tinyusb/src/common/tusb_common.h **** 
  27:SynaptiX_FDK/lib/tinyusb/src/common/tusb_common.h **** #ifndef TUSB_COMMON_H_
  28:SynaptiX_FDK/lib/tinyusb/src/common/tusb_common.h **** #define TUSB_COMMON_H_
  29:SynaptiX_FDK/lib/tinyusb/src/common/tusb_common.h **** 
  30:SynaptiX_FDK/lib/tinyusb/src/common/tusb_common.h **** #ifdef __cplusplus
  31:SynaptiX_FDK/lib/tinyusb/src/common/tusb_common.h ****  extern "C" {
  32:SynaptiX_FDK/lib/tinyusb/src/common/tusb_common.h **** #endif
  33:SynaptiX_FDK/lib/tinyusb/src/common/tusb_common.h **** 
  34:SynaptiX_FDK/lib/tinyusb/src/common/tusb_common.h **** //--------------------------------------------------------------------+
  35:SynaptiX_FDK/lib/tinyusb/src/common/tusb_common.h **** // Macros Helper
  36:SynaptiX_FDK/lib/tinyusb/src/common/tusb_common.h **** //--------------------------------------------------------------------+
  37:SynaptiX_FDK/lib/tinyusb/src/common/tusb_common.h **** #define TU_ARRAY_SIZE(_arr)           ( sizeof(_arr) / sizeof(_arr[0]) )
  38:SynaptiX_FDK/lib/tinyusb/src/common/tusb_common.h **** #define TU_FIELD_SIZE(_type, _field)  (sizeof(((_type *)0)->_field))
  39:SynaptiX_FDK/lib/tinyusb/src/common/tusb_common.h **** #define TU_MIN(_x, _y)                ( ( (_x) < (_y) ) ? (_x) : (_y) )
  40:SynaptiX_FDK/lib/tinyusb/src/common/tusb_common.h **** #define TU_MAX(_x, _y)                ( ( (_x) > (_y) ) ? (_x) : (_y) )
  41:SynaptiX_FDK/lib/tinyusb/src/common/tusb_common.h **** #define TU_DIV_CEIL(n, d)             (((n) + (d) - 1) / (d))
  42:SynaptiX_FDK/lib/tinyusb/src/common/tusb_common.h **** #define TU_DIV_ROUND_NEAREST(v, d)    (((v) + (d)/2) / (d) ) // round to nearest integer
  43:SynaptiX_FDK/lib/tinyusb/src/common/tusb_common.h **** 
  44:SynaptiX_FDK/lib/tinyusb/src/common/tusb_common.h **** #define TU_U16(_high, _low)           ((uint16_t) ((((uint16_t) (_high)) << 8) | ((uint16_t) (_low)
  45:SynaptiX_FDK/lib/tinyusb/src/common/tusb_common.h **** #define TU_U16_HIGH(_u16)             ((uint8_t) (((uint16_t) (_u16) >> 8) & 0x00ffu))
  46:SynaptiX_FDK/lib/tinyusb/src/common/tusb_common.h **** #define TU_U16_LOW(_u16)              ((uint8_t) ((uint16_t) (_u16) & 0x00ffu))
  47:SynaptiX_FDK/lib/tinyusb/src/common/tusb_common.h **** #define U16_TO_U8S_BE(_u16)           TU_U16_HIGH(_u16), TU_U16_LOW(_u16)
  48:SynaptiX_FDK/lib/tinyusb/src/common/tusb_common.h **** #define U16_TO_U8S_LE(_u16)           TU_U16_LOW(_u16), TU_U16_HIGH(_u16)
  49:SynaptiX_FDK/lib/tinyusb/src/common/tusb_common.h **** 
  50:SynaptiX_FDK/lib/tinyusb/src/common/tusb_common.h **** #define TU_U24(_high, _mid, _low)     ((uint32_t) ((((uint32_t) (_high)) << 16) | (((uint32_t) (_mi
  51:SynaptiX_FDK/lib/tinyusb/src/common/tusb_common.h **** #define TU_U24_HIGH(_u24)             ((uint8_t) (((uint32_t) (_u24) >> 16) & 0x0000ffu))
  52:SynaptiX_FDK/lib/tinyusb/src/common/tusb_common.h **** #define TU_U24_MID(_u24)              ((uint8_t) (((uint32_t) (_u24) >>  8) & 0x0000ffu))
  53:SynaptiX_FDK/lib/tinyusb/src/common/tusb_common.h **** #define TU_U24_LOW(_u24)              ((uint8_t) ((uint32_t) (_u24) & 0x0000ffu))
ARM GAS  C:\Users\DELL\AppData\Local\Temp\ccaG9TDw.s 			page 30


  54:SynaptiX_FDK/lib/tinyusb/src/common/tusb_common.h **** #define U24_TO_U8S_BE(_u24)           TU_U24_HIGH(_u24), TU_U24_MID(_u24), TU_U24_LOW(_u24)
  55:SynaptiX_FDK/lib/tinyusb/src/common/tusb_common.h **** #define U24_TO_U8S_LE(_u24)           TU_U24_LOW(_u24), TU_U24_MID(_u24), TU_U24_HIGH(_u24)
  56:SynaptiX_FDK/lib/tinyusb/src/common/tusb_common.h **** 
  57:SynaptiX_FDK/lib/tinyusb/src/common/tusb_common.h **** #define TU_U32_BYTE3(_u32)            ((uint8_t) ((((uint32_t) _u32) >> 24) & 0x000000ff)) // MSB
  58:SynaptiX_FDK/lib/tinyusb/src/common/tusb_common.h **** #define TU_U32_BYTE2(_u32)            ((uint8_t) ((((uint32_t) _u32) >> 16) & 0x000000ff))
  59:SynaptiX_FDK/lib/tinyusb/src/common/tusb_common.h **** #define TU_U32_BYTE1(_u32)            ((uint8_t) ((((uint32_t) _u32) >>  8) & 0x000000ff))
  60:SynaptiX_FDK/lib/tinyusb/src/common/tusb_common.h **** #define TU_U32_BYTE0(_u32)            ((uint8_t) (((uint32_t)  _u32)        & 0x000000ff)) // LSB
  61:SynaptiX_FDK/lib/tinyusb/src/common/tusb_common.h **** 
  62:SynaptiX_FDK/lib/tinyusb/src/common/tusb_common.h **** #define U32_TO_U8S_BE(_u32)           TU_U32_BYTE3(_u32), TU_U32_BYTE2(_u32), TU_U32_BYTE1(_u32), T
  63:SynaptiX_FDK/lib/tinyusb/src/common/tusb_common.h **** #define U32_TO_U8S_LE(_u32)           TU_U32_BYTE0(_u32), TU_U32_BYTE1(_u32), TU_U32_BYTE2(_u32), T
  64:SynaptiX_FDK/lib/tinyusb/src/common/tusb_common.h **** 
  65:SynaptiX_FDK/lib/tinyusb/src/common/tusb_common.h **** #define TU_BIT(n)                     (1UL << (n))
  66:SynaptiX_FDK/lib/tinyusb/src/common/tusb_common.h **** 
  67:SynaptiX_FDK/lib/tinyusb/src/common/tusb_common.h **** // Generate a mask with bit from high (31) to low (0) set, e.g TU_GENMASK(3, 0) = 0b1111
  68:SynaptiX_FDK/lib/tinyusb/src/common/tusb_common.h **** #define TU_GENMASK(h, l)              ( (UINT32_MAX << (l)) & (UINT32_MAX >> (31 - (h))) )
  69:SynaptiX_FDK/lib/tinyusb/src/common/tusb_common.h **** 
  70:SynaptiX_FDK/lib/tinyusb/src/common/tusb_common.h **** //--------------------------------------------------------------------+
  71:SynaptiX_FDK/lib/tinyusb/src/common/tusb_common.h **** // Includes
  72:SynaptiX_FDK/lib/tinyusb/src/common/tusb_common.h **** //--------------------------------------------------------------------+
  73:SynaptiX_FDK/lib/tinyusb/src/common/tusb_common.h **** 
  74:SynaptiX_FDK/lib/tinyusb/src/common/tusb_common.h **** // Standard Headers
  75:SynaptiX_FDK/lib/tinyusb/src/common/tusb_common.h **** #include <stdbool.h>
  76:SynaptiX_FDK/lib/tinyusb/src/common/tusb_common.h **** #include <stdint.h>
  77:SynaptiX_FDK/lib/tinyusb/src/common/tusb_common.h **** #include <inttypes.h>
  78:SynaptiX_FDK/lib/tinyusb/src/common/tusb_common.h **** #include <stddef.h>
  79:SynaptiX_FDK/lib/tinyusb/src/common/tusb_common.h **** #include <string.h>
  80:SynaptiX_FDK/lib/tinyusb/src/common/tusb_common.h **** 
  81:SynaptiX_FDK/lib/tinyusb/src/common/tusb_common.h **** // Tinyusb Common Headers
  82:SynaptiX_FDK/lib/tinyusb/src/common/tusb_common.h **** #include "tusb_option.h"
  83:SynaptiX_FDK/lib/tinyusb/src/common/tusb_common.h **** #include "tusb_compiler.h"
  84:SynaptiX_FDK/lib/tinyusb/src/common/tusb_common.h **** #include "tusb_verify.h"
  85:SynaptiX_FDK/lib/tinyusb/src/common/tusb_common.h **** #include "tusb_types.h"
  86:SynaptiX_FDK/lib/tinyusb/src/common/tusb_common.h **** #include "tusb_debug.h"
  87:SynaptiX_FDK/lib/tinyusb/src/common/tusb_common.h **** 
  88:SynaptiX_FDK/lib/tinyusb/src/common/tusb_common.h **** //--------------------------------------------------------------------+
  89:SynaptiX_FDK/lib/tinyusb/src/common/tusb_common.h **** // API implemented by application if needed
  90:SynaptiX_FDK/lib/tinyusb/src/common/tusb_common.h **** // TODO move to a more obvious place/file
  91:SynaptiX_FDK/lib/tinyusb/src/common/tusb_common.h **** //--------------------------------------------------------------------+
  92:SynaptiX_FDK/lib/tinyusb/src/common/tusb_common.h **** 
  93:SynaptiX_FDK/lib/tinyusb/src/common/tusb_common.h **** // Get current milliseconds, required by some port/configuration without RTOS
  94:SynaptiX_FDK/lib/tinyusb/src/common/tusb_common.h **** extern uint32_t tusb_time_millis_api(void);
  95:SynaptiX_FDK/lib/tinyusb/src/common/tusb_common.h **** 
  96:SynaptiX_FDK/lib/tinyusb/src/common/tusb_common.h **** // Delay in milliseconds, use tusb_time_millis_api() by default. required by some port/configuratio
  97:SynaptiX_FDK/lib/tinyusb/src/common/tusb_common.h **** extern void tusb_time_delay_ms_api(uint32_t ms);
  98:SynaptiX_FDK/lib/tinyusb/src/common/tusb_common.h **** 
  99:SynaptiX_FDK/lib/tinyusb/src/common/tusb_common.h **** // flush data cache
 100:SynaptiX_FDK/lib/tinyusb/src/common/tusb_common.h **** extern void tusb_app_dcache_flush(uintptr_t addr, uint32_t data_size);
 101:SynaptiX_FDK/lib/tinyusb/src/common/tusb_common.h **** 
 102:SynaptiX_FDK/lib/tinyusb/src/common/tusb_common.h **** // invalidate data cache
 103:SynaptiX_FDK/lib/tinyusb/src/common/tusb_common.h **** extern void tusb_app_dcache_invalidate(uintptr_t addr, uint32_t data_size);
 104:SynaptiX_FDK/lib/tinyusb/src/common/tusb_common.h **** 
 105:SynaptiX_FDK/lib/tinyusb/src/common/tusb_common.h **** // Optional physical <-> virtual address translation
 106:SynaptiX_FDK/lib/tinyusb/src/common/tusb_common.h **** extern void* tusb_app_virt_to_phys(void *virt_addr);
 107:SynaptiX_FDK/lib/tinyusb/src/common/tusb_common.h **** extern void* tusb_app_phys_to_virt(void *phys_addr);
 108:SynaptiX_FDK/lib/tinyusb/src/common/tusb_common.h **** 
 109:SynaptiX_FDK/lib/tinyusb/src/common/tusb_common.h **** //--------------------------------------------------------------------+
 110:SynaptiX_FDK/lib/tinyusb/src/common/tusb_common.h **** // Internal Inline Functions
ARM GAS  C:\Users\DELL\AppData\Local\Temp\ccaG9TDw.s 			page 31


 111:SynaptiX_FDK/lib/tinyusb/src/common/tusb_common.h **** //--------------------------------------------------------------------+
 112:SynaptiX_FDK/lib/tinyusb/src/common/tusb_common.h **** 
 113:SynaptiX_FDK/lib/tinyusb/src/common/tusb_common.h **** //------------- Mem -------------//
 114:SynaptiX_FDK/lib/tinyusb/src/common/tusb_common.h **** #define tu_memclr(buffer, size)  (void) memset((buffer), 0, (size))
 115:SynaptiX_FDK/lib/tinyusb/src/common/tusb_common.h **** #define tu_varclr(_var)          tu_memclr(_var, sizeof(*(_var)))
 116:SynaptiX_FDK/lib/tinyusb/src/common/tusb_common.h **** 
 117:SynaptiX_FDK/lib/tinyusb/src/common/tusb_common.h **** // This is a backport of memset_s from c11
 118:SynaptiX_FDK/lib/tinyusb/src/common/tusb_common.h **** TU_ATTR_ALWAYS_INLINE static inline int tu_memset_s(void *dest, size_t destsz, int ch, size_t count
 119:SynaptiX_FDK/lib/tinyusb/src/common/tusb_common.h ****   // Validate parameters
 120:SynaptiX_FDK/lib/tinyusb/src/common/tusb_common.h ****   if (dest == NULL) {
 121:SynaptiX_FDK/lib/tinyusb/src/common/tusb_common.h ****     return -1;
 122:SynaptiX_FDK/lib/tinyusb/src/common/tusb_common.h ****   }
 123:SynaptiX_FDK/lib/tinyusb/src/common/tusb_common.h **** 
 124:SynaptiX_FDK/lib/tinyusb/src/common/tusb_common.h ****   if (count == 0u) {
 125:SynaptiX_FDK/lib/tinyusb/src/common/tusb_common.h ****     return 0;
 126:SynaptiX_FDK/lib/tinyusb/src/common/tusb_common.h ****   }
 127:SynaptiX_FDK/lib/tinyusb/src/common/tusb_common.h **** 
 128:SynaptiX_FDK/lib/tinyusb/src/common/tusb_common.h ****   if (count > destsz) {
 129:SynaptiX_FDK/lib/tinyusb/src/common/tusb_common.h ****     return -1;
 130:SynaptiX_FDK/lib/tinyusb/src/common/tusb_common.h ****   }
 131:SynaptiX_FDK/lib/tinyusb/src/common/tusb_common.h **** 
 132:SynaptiX_FDK/lib/tinyusb/src/common/tusb_common.h ****   (void) memset(dest, ch, count);
 133:SynaptiX_FDK/lib/tinyusb/src/common/tusb_common.h ****   return 0;
 134:SynaptiX_FDK/lib/tinyusb/src/common/tusb_common.h **** }
 135:SynaptiX_FDK/lib/tinyusb/src/common/tusb_common.h **** 
 136:SynaptiX_FDK/lib/tinyusb/src/common/tusb_common.h **** // This is a backport of memcpy_s from c11
 137:SynaptiX_FDK/lib/tinyusb/src/common/tusb_common.h **** TU_ATTR_ALWAYS_INLINE static inline int tu_memcpy_s(void *dest, size_t destsz, const void *src, siz
 138:SynaptiX_FDK/lib/tinyusb/src/common/tusb_common.h ****   if (dest == NULL) {
 139:SynaptiX_FDK/lib/tinyusb/src/common/tusb_common.h ****     return -1;
 140:SynaptiX_FDK/lib/tinyusb/src/common/tusb_common.h ****   }
 141:SynaptiX_FDK/lib/tinyusb/src/common/tusb_common.h **** 
 142:SynaptiX_FDK/lib/tinyusb/src/common/tusb_common.h ****   if (count == 0u) {
 143:SynaptiX_FDK/lib/tinyusb/src/common/tusb_common.h ****     return 0;
 144:SynaptiX_FDK/lib/tinyusb/src/common/tusb_common.h ****   }
 145:SynaptiX_FDK/lib/tinyusb/src/common/tusb_common.h **** 
 146:SynaptiX_FDK/lib/tinyusb/src/common/tusb_common.h ****   if (src == NULL) {
 147:SynaptiX_FDK/lib/tinyusb/src/common/tusb_common.h ****     return -1;
 148:SynaptiX_FDK/lib/tinyusb/src/common/tusb_common.h ****   }
 149:SynaptiX_FDK/lib/tinyusb/src/common/tusb_common.h **** 
 150:SynaptiX_FDK/lib/tinyusb/src/common/tusb_common.h ****   if (count > destsz) {
 151:SynaptiX_FDK/lib/tinyusb/src/common/tusb_common.h ****     return -1;
 152:SynaptiX_FDK/lib/tinyusb/src/common/tusb_common.h ****   }
 153:SynaptiX_FDK/lib/tinyusb/src/common/tusb_common.h **** 
 154:SynaptiX_FDK/lib/tinyusb/src/common/tusb_common.h ****   (void) memcpy(dest, src, count);
 155:SynaptiX_FDK/lib/tinyusb/src/common/tusb_common.h ****   return 0;
 156:SynaptiX_FDK/lib/tinyusb/src/common/tusb_common.h **** }
 157:SynaptiX_FDK/lib/tinyusb/src/common/tusb_common.h **** 
 158:SynaptiX_FDK/lib/tinyusb/src/common/tusb_common.h **** TU_ATTR_ALWAYS_INLINE static inline bool tu_mem_is_zero(const void *buffer, size_t size) {
 159:SynaptiX_FDK/lib/tinyusb/src/common/tusb_common.h ****   const uint8_t* buf8 = (const uint8_t*) buffer;
 160:SynaptiX_FDK/lib/tinyusb/src/common/tusb_common.h ****   for (size_t i = 0; i < size; i++) {
 161:SynaptiX_FDK/lib/tinyusb/src/common/tusb_common.h ****     if (buf8[i] != 0) { return false; }
 162:SynaptiX_FDK/lib/tinyusb/src/common/tusb_common.h ****   }
 163:SynaptiX_FDK/lib/tinyusb/src/common/tusb_common.h ****   return true;
 164:SynaptiX_FDK/lib/tinyusb/src/common/tusb_common.h **** }
 165:SynaptiX_FDK/lib/tinyusb/src/common/tusb_common.h **** 
 166:SynaptiX_FDK/lib/tinyusb/src/common/tusb_common.h **** TU_ATTR_ALWAYS_INLINE static inline bool tu_mem_is_ff(const void *buffer, size_t size) {
 167:SynaptiX_FDK/lib/tinyusb/src/common/tusb_common.h ****   const uint8_t* buf8 = (const uint8_t*) buffer;
ARM GAS  C:\Users\DELL\AppData\Local\Temp\ccaG9TDw.s 			page 32


 168:SynaptiX_FDK/lib/tinyusb/src/common/tusb_common.h ****   for (size_t i = 0; i < size; i++) {
 169:SynaptiX_FDK/lib/tinyusb/src/common/tusb_common.h ****     if (buf8[i] != 0xff) { return false; }
 170:SynaptiX_FDK/lib/tinyusb/src/common/tusb_common.h ****   }
 171:SynaptiX_FDK/lib/tinyusb/src/common/tusb_common.h ****   return true;
 172:SynaptiX_FDK/lib/tinyusb/src/common/tusb_common.h **** }
 173:SynaptiX_FDK/lib/tinyusb/src/common/tusb_common.h **** 
 174:SynaptiX_FDK/lib/tinyusb/src/common/tusb_common.h **** 
 175:SynaptiX_FDK/lib/tinyusb/src/common/tusb_common.h **** //------------- Bytes -------------//
 176:SynaptiX_FDK/lib/tinyusb/src/common/tusb_common.h **** TU_ATTR_ALWAYS_INLINE static inline uint32_t tu_u32(uint8_t b3, uint8_t b2, uint8_t b1, uint8_t b0)
 177:SynaptiX_FDK/lib/tinyusb/src/common/tusb_common.h ****   return (((uint32_t)b3) << 24) | (((uint32_t)b2) << 16) | (((uint32_t)b1) << 8) | b0;
 178:SynaptiX_FDK/lib/tinyusb/src/common/tusb_common.h **** }
 179:SynaptiX_FDK/lib/tinyusb/src/common/tusb_common.h **** 
 180:SynaptiX_FDK/lib/tinyusb/src/common/tusb_common.h **** TU_ATTR_ALWAYS_INLINE static inline uint32_t tu_u32_from_u16(uint16_t high, uint16_t low) {
 181:SynaptiX_FDK/lib/tinyusb/src/common/tusb_common.h ****   return (((uint32_t)high) << 16) | low;
 182:SynaptiX_FDK/lib/tinyusb/src/common/tusb_common.h **** }
 183:SynaptiX_FDK/lib/tinyusb/src/common/tusb_common.h **** 
 184:SynaptiX_FDK/lib/tinyusb/src/common/tusb_common.h **** TU_ATTR_ALWAYS_INLINE static inline uint16_t tu_u16(uint8_t high, uint8_t low) {
 185:SynaptiX_FDK/lib/tinyusb/src/common/tusb_common.h ****   return (uint16_t)((((uint16_t)high) << 8) | low);
 186:SynaptiX_FDK/lib/tinyusb/src/common/tusb_common.h **** }
 187:SynaptiX_FDK/lib/tinyusb/src/common/tusb_common.h **** 
 188:SynaptiX_FDK/lib/tinyusb/src/common/tusb_common.h **** TU_ATTR_ALWAYS_INLINE static inline uint8_t tu_u32_byte3(uint32_t ui32) { return TU_U32_BYTE3(ui32)
 189:SynaptiX_FDK/lib/tinyusb/src/common/tusb_common.h **** TU_ATTR_ALWAYS_INLINE static inline uint8_t tu_u32_byte2(uint32_t ui32) { return TU_U32_BYTE2(ui32)
 190:SynaptiX_FDK/lib/tinyusb/src/common/tusb_common.h **** TU_ATTR_ALWAYS_INLINE static inline uint8_t tu_u32_byte1(uint32_t ui32) { return TU_U32_BYTE1(ui32)
 191:SynaptiX_FDK/lib/tinyusb/src/common/tusb_common.h **** TU_ATTR_ALWAYS_INLINE static inline uint8_t tu_u32_byte0(uint32_t ui32) { return TU_U32_BYTE0(ui32)
 192:SynaptiX_FDK/lib/tinyusb/src/common/tusb_common.h **** 
 193:SynaptiX_FDK/lib/tinyusb/src/common/tusb_common.h **** TU_ATTR_ALWAYS_INLINE static inline uint16_t tu_u32_high16(uint32_t ui32) { return (uint16_t) (ui32
 194:SynaptiX_FDK/lib/tinyusb/src/common/tusb_common.h **** TU_ATTR_ALWAYS_INLINE static inline uint16_t tu_u32_low16 (uint32_t ui32) { return (uint16_t) (ui32
 195:SynaptiX_FDK/lib/tinyusb/src/common/tusb_common.h **** 
 196:SynaptiX_FDK/lib/tinyusb/src/common/tusb_common.h **** TU_ATTR_ALWAYS_INLINE static inline uint8_t tu_u16_high(uint16_t ui16) { return TU_U16_HIGH(ui16); 
 197:SynaptiX_FDK/lib/tinyusb/src/common/tusb_common.h **** TU_ATTR_ALWAYS_INLINE static inline uint8_t tu_u16_low (uint16_t ui16) { return TU_U16_LOW(ui16); }
 198:SynaptiX_FDK/lib/tinyusb/src/common/tusb_common.h **** 
 199:SynaptiX_FDK/lib/tinyusb/src/common/tusb_common.h **** //------------- Bits -------------//
 200:SynaptiX_FDK/lib/tinyusb/src/common/tusb_common.h **** TU_ATTR_ALWAYS_INLINE static inline uint32_t tu_bit_set  (uint32_t value, uint8_t pos) { return val
 201:SynaptiX_FDK/lib/tinyusb/src/common/tusb_common.h **** TU_ATTR_ALWAYS_INLINE static inline uint32_t tu_bit_clear(uint32_t value, uint8_t pos) { return val
 202:SynaptiX_FDK/lib/tinyusb/src/common/tusb_common.h **** TU_ATTR_ALWAYS_INLINE static inline bool     tu_bit_test (uint32_t value, uint8_t pos) { return (va
 203:SynaptiX_FDK/lib/tinyusb/src/common/tusb_common.h **** 
 204:SynaptiX_FDK/lib/tinyusb/src/common/tusb_common.h **** //------------- Min -------------//
 205:SynaptiX_FDK/lib/tinyusb/src/common/tusb_common.h **** TU_ATTR_ALWAYS_INLINE static inline uint8_t  tu_min8  (uint8_t  x, uint8_t y ) { return (x < y) ? x
 206:SynaptiX_FDK/lib/tinyusb/src/common/tusb_common.h **** TU_ATTR_ALWAYS_INLINE static inline uint16_t tu_min16 (uint16_t x, uint16_t y) { return (x < y) ? x
 207:SynaptiX_FDK/lib/tinyusb/src/common/tusb_common.h **** TU_ATTR_ALWAYS_INLINE static inline uint32_t tu_min32 (uint32_t x, uint32_t y) { return (x < y) ? x
 208:SynaptiX_FDK/lib/tinyusb/src/common/tusb_common.h **** 
 209:SynaptiX_FDK/lib/tinyusb/src/common/tusb_common.h **** //------------- Max -------------//
 210:SynaptiX_FDK/lib/tinyusb/src/common/tusb_common.h **** TU_ATTR_ALWAYS_INLINE static inline uint8_t  tu_max8  (uint8_t  x, uint8_t y ) { return (x > y) ? x
 211:SynaptiX_FDK/lib/tinyusb/src/common/tusb_common.h **** TU_ATTR_ALWAYS_INLINE static inline uint16_t tu_max16 (uint16_t x, uint16_t y) { return (x > y) ? x
 212:SynaptiX_FDK/lib/tinyusb/src/common/tusb_common.h **** TU_ATTR_ALWAYS_INLINE static inline uint32_t tu_max32 (uint32_t x, uint32_t y) { return (x > y) ? x
 213:SynaptiX_FDK/lib/tinyusb/src/common/tusb_common.h **** 
 214:SynaptiX_FDK/lib/tinyusb/src/common/tusb_common.h **** //------------- Align -------------//
 215:SynaptiX_FDK/lib/tinyusb/src/common/tusb_common.h **** TU_ATTR_ALWAYS_INLINE static inline uint32_t tu_align(uint32_t value, uint32_t alignment) {
 216:SynaptiX_FDK/lib/tinyusb/src/common/tusb_common.h ****   return value & ((uint32_t) ~(alignment-1));
 217:SynaptiX_FDK/lib/tinyusb/src/common/tusb_common.h **** }
 218:SynaptiX_FDK/lib/tinyusb/src/common/tusb_common.h **** 
 219:SynaptiX_FDK/lib/tinyusb/src/common/tusb_common.h **** TU_ATTR_ALWAYS_INLINE static inline uint32_t tu_align4  (uint32_t value) { return (value & 0xFFFFFF
 220:SynaptiX_FDK/lib/tinyusb/src/common/tusb_common.h **** TU_ATTR_ALWAYS_INLINE static inline uint32_t tu_align8  (uint32_t value) { return (value & 0xFFFFFF
 221:SynaptiX_FDK/lib/tinyusb/src/common/tusb_common.h **** TU_ATTR_ALWAYS_INLINE static inline uint32_t tu_align16 (uint32_t value) { return (value & 0xFFFFFF
 222:SynaptiX_FDK/lib/tinyusb/src/common/tusb_common.h **** TU_ATTR_ALWAYS_INLINE static inline uint32_t tu_align32 (uint32_t value) { return (value & 0xFFFFFF
 223:SynaptiX_FDK/lib/tinyusb/src/common/tusb_common.h **** TU_ATTR_ALWAYS_INLINE static inline uint32_t tu_align4k (uint32_t value) { return (value & 0xFFFFF0
 224:SynaptiX_FDK/lib/tinyusb/src/common/tusb_common.h **** TU_ATTR_ALWAYS_INLINE static inline uint32_t tu_offset4k(uint32_t value) { return (value & 0xFFFUL)
ARM GAS  C:\Users\DELL\AppData\Local\Temp\ccaG9TDw.s 			page 33


 225:SynaptiX_FDK/lib/tinyusb/src/common/tusb_common.h **** 
 226:SynaptiX_FDK/lib/tinyusb/src/common/tusb_common.h **** TU_ATTR_ALWAYS_INLINE static inline bool tu_is_aligned32(uint32_t value) { return (value & 0x1FUL) 
 227:SynaptiX_FDK/lib/tinyusb/src/common/tusb_common.h **** TU_ATTR_ALWAYS_INLINE static inline bool tu_is_aligned64(uint64_t value) { return (value & 0x3FUL) 
 228:SynaptiX_FDK/lib/tinyusb/src/common/tusb_common.h **** 
 229:SynaptiX_FDK/lib/tinyusb/src/common/tusb_common.h **** //------------- Mathematics -------------//
 230:SynaptiX_FDK/lib/tinyusb/src/common/tusb_common.h **** TU_ATTR_ALWAYS_INLINE static inline uint32_t tu_div_ceil(uint32_t v, uint32_t d) { return TU_DIV_CE
 231:SynaptiX_FDK/lib/tinyusb/src/common/tusb_common.h **** TU_ATTR_ALWAYS_INLINE static inline uint32_t tu_div_round_nearest(uint32_t v, uint32_t d) { return 
 232:SynaptiX_FDK/lib/tinyusb/src/common/tusb_common.h **** 
 233:SynaptiX_FDK/lib/tinyusb/src/common/tusb_common.h **** TU_ATTR_ALWAYS_INLINE static inline uint32_t tu_round_up(uint32_t v, uint32_t f) { return tu_div_ce
 234:SynaptiX_FDK/lib/tinyusb/src/common/tusb_common.h **** 
 235:SynaptiX_FDK/lib/tinyusb/src/common/tusb_common.h **** // log2 of a value is its MSB's position
 236:SynaptiX_FDK/lib/tinyusb/src/common/tusb_common.h **** // TODO use clz TODO remove
 237:SynaptiX_FDK/lib/tinyusb/src/common/tusb_common.h **** TU_ATTR_ALWAYS_INLINE static inline uint8_t tu_log2(uint32_t value) {
 238:SynaptiX_FDK/lib/tinyusb/src/common/tusb_common.h ****   uint8_t result = 0;
 239:SynaptiX_FDK/lib/tinyusb/src/common/tusb_common.h ****   while ((value >>= 1u) != 0u) {
 240:SynaptiX_FDK/lib/tinyusb/src/common/tusb_common.h ****     result++;
 241:SynaptiX_FDK/lib/tinyusb/src/common/tusb_common.h ****   }
 242:SynaptiX_FDK/lib/tinyusb/src/common/tusb_common.h ****   return result;
 243:SynaptiX_FDK/lib/tinyusb/src/common/tusb_common.h **** }
 244:SynaptiX_FDK/lib/tinyusb/src/common/tusb_common.h **** 
 245:SynaptiX_FDK/lib/tinyusb/src/common/tusb_common.h **** //static inline uint8_t tu_log2(uint32_t value)
 246:SynaptiX_FDK/lib/tinyusb/src/common/tusb_common.h **** //{
 247:SynaptiX_FDK/lib/tinyusb/src/common/tusb_common.h **** //   return sizeof(uint32_t) * CHAR_BIT - __builtin_clz(x) - 1;
 248:SynaptiX_FDK/lib/tinyusb/src/common/tusb_common.h **** //}
 249:SynaptiX_FDK/lib/tinyusb/src/common/tusb_common.h **** 
 250:SynaptiX_FDK/lib/tinyusb/src/common/tusb_common.h **** TU_ATTR_ALWAYS_INLINE static inline bool tu_is_power_of_two(uint32_t value) {
 251:SynaptiX_FDK/lib/tinyusb/src/common/tusb_common.h ****    return (value != 0) && ((value & (value - 1)) == 0);
 252:SynaptiX_FDK/lib/tinyusb/src/common/tusb_common.h **** }
 253:SynaptiX_FDK/lib/tinyusb/src/common/tusb_common.h **** 
 254:SynaptiX_FDK/lib/tinyusb/src/common/tusb_common.h **** //------------- Unaligned Access -------------//
 255:SynaptiX_FDK/lib/tinyusb/src/common/tusb_common.h **** #if TUP_ARCH_STRICT_ALIGN
 256:SynaptiX_FDK/lib/tinyusb/src/common/tusb_common.h **** 
 257:SynaptiX_FDK/lib/tinyusb/src/common/tusb_common.h **** // Rely on compiler to generate correct code for unaligned access
 258:SynaptiX_FDK/lib/tinyusb/src/common/tusb_common.h **** typedef struct { uint16_t val; } TU_ATTR_PACKED tu_unaligned_uint16_t;
 259:SynaptiX_FDK/lib/tinyusb/src/common/tusb_common.h **** typedef struct { uint32_t val; } TU_ATTR_PACKED tu_unaligned_uint32_t;
 260:SynaptiX_FDK/lib/tinyusb/src/common/tusb_common.h **** 
 261:SynaptiX_FDK/lib/tinyusb/src/common/tusb_common.h **** TU_ATTR_ALWAYS_INLINE static inline uint32_t tu_unaligned_read32(const void *mem) {
 262:SynaptiX_FDK/lib/tinyusb/src/common/tusb_common.h ****   tu_unaligned_uint32_t const *ua32 = (tu_unaligned_uint32_t const *) mem;
 263:SynaptiX_FDK/lib/tinyusb/src/common/tusb_common.h ****   return ua32->val;
 264:SynaptiX_FDK/lib/tinyusb/src/common/tusb_common.h **** }
 265:SynaptiX_FDK/lib/tinyusb/src/common/tusb_common.h **** 
 266:SynaptiX_FDK/lib/tinyusb/src/common/tusb_common.h **** TU_ATTR_ALWAYS_INLINE static inline void tu_unaligned_write32(void *mem, uint32_t value) {
 267:SynaptiX_FDK/lib/tinyusb/src/common/tusb_common.h ****   tu_unaligned_uint32_t *ua32 = (tu_unaligned_uint32_t *) mem;
 268:SynaptiX_FDK/lib/tinyusb/src/common/tusb_common.h ****   ua32->val = value;
 269:SynaptiX_FDK/lib/tinyusb/src/common/tusb_common.h **** }
 270:SynaptiX_FDK/lib/tinyusb/src/common/tusb_common.h **** 
 271:SynaptiX_FDK/lib/tinyusb/src/common/tusb_common.h **** TU_ATTR_ALWAYS_INLINE static inline uint16_t tu_unaligned_read16(const void *mem) {
 272:SynaptiX_FDK/lib/tinyusb/src/common/tusb_common.h ****   tu_unaligned_uint16_t const *ua16 = (tu_unaligned_uint16_t const *) mem;
 273:SynaptiX_FDK/lib/tinyusb/src/common/tusb_common.h ****   return ua16->val;
 274:SynaptiX_FDK/lib/tinyusb/src/common/tusb_common.h **** }
 275:SynaptiX_FDK/lib/tinyusb/src/common/tusb_common.h **** 
 276:SynaptiX_FDK/lib/tinyusb/src/common/tusb_common.h **** TU_ATTR_ALWAYS_INLINE static inline void tu_unaligned_write16(void *mem, uint16_t value) {
 277:SynaptiX_FDK/lib/tinyusb/src/common/tusb_common.h ****   tu_unaligned_uint16_t *ua16 = (tu_unaligned_uint16_t *) mem;
 278:SynaptiX_FDK/lib/tinyusb/src/common/tusb_common.h ****   ua16->val = value;
 279:SynaptiX_FDK/lib/tinyusb/src/common/tusb_common.h **** }
 280:SynaptiX_FDK/lib/tinyusb/src/common/tusb_common.h **** 
 281:SynaptiX_FDK/lib/tinyusb/src/common/tusb_common.h **** #elif TUP_MCU_STRICT_ALIGN
ARM GAS  C:\Users\DELL\AppData\Local\Temp\ccaG9TDw.s 			page 34


 282:SynaptiX_FDK/lib/tinyusb/src/common/tusb_common.h **** 
 283:SynaptiX_FDK/lib/tinyusb/src/common/tusb_common.h **** // MCU such as LPC_IP3511 Highspeed cannot access unaligned memory on USB_RAM although it is ARM M4
 284:SynaptiX_FDK/lib/tinyusb/src/common/tusb_common.h **** // We have to manually pick up bytes since tu_unaligned_uint32_t will still generate unaligned code
 285:SynaptiX_FDK/lib/tinyusb/src/common/tusb_common.h **** // NOTE: volatile cast to memory to prevent compiler to optimize and generate unaligned code
 286:SynaptiX_FDK/lib/tinyusb/src/common/tusb_common.h **** // TODO Big Endian may need minor changes
 287:SynaptiX_FDK/lib/tinyusb/src/common/tusb_common.h **** TU_ATTR_ALWAYS_INLINE static inline uint32_t tu_unaligned_read32(const void* mem) {
 288:SynaptiX_FDK/lib/tinyusb/src/common/tusb_common.h ****   volatile uint8_t const* buf8 = (uint8_t const*) mem;
 289:SynaptiX_FDK/lib/tinyusb/src/common/tusb_common.h ****   return tu_u32(buf8[3], buf8[2], buf8[1], buf8[0]);
 290:SynaptiX_FDK/lib/tinyusb/src/common/tusb_common.h **** }
 291:SynaptiX_FDK/lib/tinyusb/src/common/tusb_common.h **** 
 292:SynaptiX_FDK/lib/tinyusb/src/common/tusb_common.h **** TU_ATTR_ALWAYS_INLINE static inline void tu_unaligned_write32(void* mem, uint32_t value) {
 293:SynaptiX_FDK/lib/tinyusb/src/common/tusb_common.h ****   volatile uint8_t* buf8 = (uint8_t*) mem;
 294:SynaptiX_FDK/lib/tinyusb/src/common/tusb_common.h ****   buf8[0] = tu_u32_byte0(value);
 295:SynaptiX_FDK/lib/tinyusb/src/common/tusb_common.h ****   buf8[1] = tu_u32_byte1(value);
 296:SynaptiX_FDK/lib/tinyusb/src/common/tusb_common.h ****   buf8[2] = tu_u32_byte2(value);
 297:SynaptiX_FDK/lib/tinyusb/src/common/tusb_common.h ****   buf8[3] = tu_u32_byte3(value);
 298:SynaptiX_FDK/lib/tinyusb/src/common/tusb_common.h **** }
 299:SynaptiX_FDK/lib/tinyusb/src/common/tusb_common.h **** 
 300:SynaptiX_FDK/lib/tinyusb/src/common/tusb_common.h **** TU_ATTR_ALWAYS_INLINE static inline uint16_t tu_unaligned_read16(const void* mem) {
 301:SynaptiX_FDK/lib/tinyusb/src/common/tusb_common.h ****   volatile uint8_t const* buf8 = (uint8_t const*) mem;
 302:SynaptiX_FDK/lib/tinyusb/src/common/tusb_common.h ****   return tu_u16(buf8[1], buf8[0]);
 303:SynaptiX_FDK/lib/tinyusb/src/common/tusb_common.h **** }
 304:SynaptiX_FDK/lib/tinyusb/src/common/tusb_common.h **** 
 305:SynaptiX_FDK/lib/tinyusb/src/common/tusb_common.h **** TU_ATTR_ALWAYS_INLINE static inline void tu_unaligned_write16(void* mem, uint16_t value) {
 306:SynaptiX_FDK/lib/tinyusb/src/common/tusb_common.h ****   volatile uint8_t* buf8 = (uint8_t*) mem;
 307:SynaptiX_FDK/lib/tinyusb/src/common/tusb_common.h ****   buf8[0] = tu_u16_low(value);
 308:SynaptiX_FDK/lib/tinyusb/src/common/tusb_common.h ****   buf8[1] = tu_u16_high(value);
 309:SynaptiX_FDK/lib/tinyusb/src/common/tusb_common.h **** }
 310:SynaptiX_FDK/lib/tinyusb/src/common/tusb_common.h **** 
 311:SynaptiX_FDK/lib/tinyusb/src/common/tusb_common.h **** #else
 312:SynaptiX_FDK/lib/tinyusb/src/common/tusb_common.h **** 
 313:SynaptiX_FDK/lib/tinyusb/src/common/tusb_common.h **** // MCU that could access unaligned memory natively
 314:SynaptiX_FDK/lib/tinyusb/src/common/tusb_common.h **** TU_ATTR_ALWAYS_INLINE static inline uint32_t tu_unaligned_read32(const void *mem) {
 602              		.loc 3 314 46 view .LVU177
 603              	.LBB106:
 315:SynaptiX_FDK/lib/tinyusb/src/common/tusb_common.h ****   return *((uint32_t const *) mem);
 604              		.loc 3 315 3 view .LVU178
 605              		.loc 3 315 10 is_stmt 0 view .LVU179
 606 0010 0868     		ldr	r0, [r1]
 607              	.LVL66:
 608              		.loc 3 315 10 view .LVU180
 609              	.LBE106:
 610              	.LBE105:
 133:SynaptiX_FDK/lib/tinyusb/src/common/tusb_fifo.c ****   }
 611              		.loc 1 133 36 discriminator 1 view .LVU181
 612 0012 44F8040B 		str	r0, [r4], #4
 613              	.LVL67:
 133:SynaptiX_FDK/lib/tinyusb/src/common/tusb_fifo.c ****   }
 614              		.loc 1 133 36 discriminator 1 view .LVU182
 615              	.LBE104:
 616              	.LBE103:
 157:SynaptiX_FDK/lib/tinyusb/src/common/tusb_fifo.c ****     len -= data_stride;
 617              		.loc 1 157 5 is_stmt 1 view .LVU183
 157:SynaptiX_FDK/lib/tinyusb/src/common/tusb_fifo.c ****     len -= data_stride;
 618              		.loc 1 157 9 is_stmt 0 view .LVU184
 619 0016 1944     		add	r1, r1, r3
 620              	.LVL68:
ARM GAS  C:\Users\DELL\AppData\Local\Temp\ccaG9TDw.s 			page 35


 158:SynaptiX_FDK/lib/tinyusb/src/common/tusb_fifo.c ****     HWFIFO_ADDR_NEXT(hwfifo, );
 621              		.loc 1 158 5 is_stmt 1 view .LVU185
 158:SynaptiX_FDK/lib/tinyusb/src/common/tusb_fifo.c ****     HWFIFO_ADDR_NEXT(hwfifo, );
 622              		.loc 1 158 9 is_stmt 0 view .LVU186
 623 0018 D21A     		subs	r2, r2, r3
 624              	.LVL69:
 158:SynaptiX_FDK/lib/tinyusb/src/common/tusb_fifo.c ****     HWFIFO_ADDR_NEXT(hwfifo, );
 625              		.loc 1 158 9 view .LVU187
 626 001a 92B2     		uxth	r2, r2
 627              	.LVL70:
 159:SynaptiX_FDK/lib/tinyusb/src/common/tusb_fifo.c ****   }
 628              		.loc 1 159 5 is_stmt 1 view .LVU188
 629              	.L33:
 155:SynaptiX_FDK/lib/tinyusb/src/common/tusb_fifo.c ****     stride_write(hwfifo, src, data_stride);
 630              		.loc 1 155 14 view .LVU189
 631 001c 9342     		cmp	r3, r2
 632 001e F7D9     		bls	.L34
 183:SynaptiX_FDK/lib/tinyusb/src/common/tusb_fifo.c ****     uint32_t tmp = 0u;
 633              		.loc 1 183 3 view .LVU190
 183:SynaptiX_FDK/lib/tinyusb/src/common/tusb_fifo.c ****     uint32_t tmp = 0u;
 634              		.loc 1 183 6 is_stmt 0 view .LVU191
 635 0020 0AB9     		cbnz	r2, .L38
 636              	.LVL71:
 637              	.L31:
 191:SynaptiX_FDK/lib/tinyusb/src/common/tusb_fifo.c ****   #endif
 638              		.loc 1 191 1 view .LVU192
 639 0022 02B0     		add	sp, sp, #8
 640              	.LCFI5:
 641              		.cfi_remember_state
 642              		.cfi_def_cfa_offset 8
 643              		@ sp needed
 644 0024 10BD     		pop	{r4, pc}
 645              	.LVL72:
 646              	.L38:
 647              	.LCFI6:
 648              		.cfi_restore_state
 649              	.LBB107:
 184:SynaptiX_FDK/lib/tinyusb/src/common/tusb_fifo.c ****     memcpy(&tmp, src, len);
 650              		.loc 1 184 5 is_stmt 1 view .LVU193
 184:SynaptiX_FDK/lib/tinyusb/src/common/tusb_fifo.c ****     memcpy(&tmp, src, len);
 651              		.loc 1 184 14 is_stmt 0 view .LVU194
 652 0026 0023     		movs	r3, #0
 653 0028 0193     		str	r3, [sp, #4]
 185:SynaptiX_FDK/lib/tinyusb/src/common/tusb_fifo.c ****     stride_write(hwfifo, &tmp, data_stride);
 654              		.loc 1 185 5 is_stmt 1 view .LVU195
 655 002a 01A8     		add	r0, sp, #4
 656 002c FFF7FEFF 		bl	memcpy
 657              	.LVL73:
 186:SynaptiX_FDK/lib/tinyusb/src/common/tusb_fifo.c ****     HWFIFO_ADDR_NEXT(hwfifo, );
 658              		.loc 1 186 5 view .LVU196
 659              	.LBB108:
 660              	.LBI108:
 126:SynaptiX_FDK/lib/tinyusb/src/common/tusb_fifo.c ****   (void)data_stride; // possible unused
 661              		.loc 1 126 42 view .LVU197
 662              	.LBB109:
 127:SynaptiX_FDK/lib/tinyusb/src/common/tusb_fifo.c ****     #if CFG_TUSB_FIFO_HWFIFO_DATA_STRIDE & 4
 663              		.loc 1 127 3 view .LVU198
ARM GAS  C:\Users\DELL\AppData\Local\Temp\ccaG9TDw.s 			page 36


 133:SynaptiX_FDK/lib/tinyusb/src/common/tusb_fifo.c ****   }
 664              		.loc 1 133 5 view .LVU199
 665              	.LBB110:
 666              	.LBI110:
 314:SynaptiX_FDK/lib/tinyusb/src/common/tusb_common.h ****   return *((uint32_t const *) mem);
 667              		.loc 3 314 46 view .LVU200
 668              	.LBB111:
 669              		.loc 3 315 3 view .LVU201
 670              		.loc 3 315 10 is_stmt 0 view .LVU202
 671 0030 019B     		ldr	r3, [sp, #4]
 672              	.LVL74:
 673              		.loc 3 315 10 view .LVU203
 674              	.LBE111:
 675              	.LBE110:
 133:SynaptiX_FDK/lib/tinyusb/src/common/tusb_fifo.c ****   }
 676              		.loc 1 133 36 discriminator 1 view .LVU204
 677 0032 2360     		str	r3, [r4]
 678              	.LVL75:
 133:SynaptiX_FDK/lib/tinyusb/src/common/tusb_fifo.c ****   }
 679              		.loc 1 133 36 discriminator 1 view .LVU205
 680              	.LBE109:
 681              	.LBE108:
 187:SynaptiX_FDK/lib/tinyusb/src/common/tusb_fifo.c ****   }
 682              		.loc 1 187 5 is_stmt 1 view .LVU206
 187:SynaptiX_FDK/lib/tinyusb/src/common/tusb_fifo.c ****   }
 683              		.loc 1 187 5 is_stmt 0 view .LVU207
 684              	.LBE107:
 191:SynaptiX_FDK/lib/tinyusb/src/common/tusb_fifo.c ****   #endif
 685              		.loc 1 191 1 view .LVU208
 686 0034 F5E7     		b	.L31
 687              		.cfi_endproc
 688              	.LFE412:
 690              		.section	.text.hwff_pull_n,"ax",%progbits
 691              		.align	1
 692              		.syntax unified
 693              		.thumb
 694              		.thumb_func
 696              	hwff_pull_n:
 697              	.LVL76:
 698              	.LFB416:
 321:SynaptiX_FDK/lib/tinyusb/src/common/tusb_fifo.c ****   uint16_t       lin_bytes  = f->depth - rd_ptr;
 699              		.loc 1 321 64 is_stmt 1 view -0
 700              		.cfi_startproc
 701              		@ args = 4, pretend = 0, frame = 8
 702              		@ frame_needed = 0, uses_anonymous_args = 0
 321:SynaptiX_FDK/lib/tinyusb/src/common/tusb_fifo.c ****   uint16_t       lin_bytes  = f->depth - rd_ptr;
 703              		.loc 1 321 64 is_stmt 0 view .LVU210
 704 0000 2DE9F04F 		push	{r4, r5, r6, r7, r8, r9, r10, fp, lr}
 705              	.LCFI7:
 706              		.cfi_def_cfa_offset 36
 707              		.cfi_offset 4, -36
 708              		.cfi_offset 5, -32
 709              		.cfi_offset 6, -28
 710              		.cfi_offset 7, -24
 711              		.cfi_offset 8, -20
 712              		.cfi_offset 9, -16
 713              		.cfi_offset 10, -12
ARM GAS  C:\Users\DELL\AppData\Local\Temp\ccaG9TDw.s 			page 37


 714              		.cfi_offset 11, -8
 715              		.cfi_offset 14, -4
 716 0004 83B0     		sub	sp, sp, #12
 717              	.LCFI8:
 718              		.cfi_def_cfa_offset 48
 719 0006 0E46     		mov	r6, r1
 720 0008 0C9F     		ldr	r7, [sp, #48]
 322:SynaptiX_FDK/lib/tinyusb/src/common/tusb_fifo.c ****   uint16_t       wrap_bytes = n - lin_bytes; // only used if wrapped
 721              		.loc 1 322 3 is_stmt 1 view .LVU211
 322:SynaptiX_FDK/lib/tinyusb/src/common/tusb_fifo.c ****   uint16_t       wrap_bytes = n - lin_bytes; // only used if wrapped
 722              		.loc 1 322 32 is_stmt 0 view .LVU212
 723 000a 8488     		ldrh	r4, [r0, #4]
 322:SynaptiX_FDK/lib/tinyusb/src/common/tusb_fifo.c ****   uint16_t       wrap_bytes = n - lin_bytes; // only used if wrapped
 724              		.loc 1 322 18 view .LVU213
 725 000c A4EB0308 		sub	r8, r4, r3
 726 0010 1FFA88F8 		uxth	r8, r8
 727              	.LVL77:
 323:SynaptiX_FDK/lib/tinyusb/src/common/tusb_fifo.c ****   const uint8_t *ff_buf     = f->buffer + rd_ptr;
 728              		.loc 1 323 3 is_stmt 1 view .LVU214
 323:SynaptiX_FDK/lib/tinyusb/src/common/tusb_fifo.c ****   const uint8_t *ff_buf     = f->buffer + rd_ptr;
 729              		.loc 1 323 18 is_stmt 0 view .LVU215
 730 0014 1C1B     		subs	r4, r3, r4
 731 0016 1444     		add	r4, r4, r2
 732              	.LVL78:
 324:SynaptiX_FDK/lib/tinyusb/src/common/tusb_fifo.c **** 
 733              		.loc 1 324 3 is_stmt 1 view .LVU216
 324:SynaptiX_FDK/lib/tinyusb/src/common/tusb_fifo.c **** 
 734              		.loc 1 324 32 is_stmt 0 view .LVU217
 735 0018 0168     		ldr	r1, [r0]
 736              	.LVL79:
 324:SynaptiX_FDK/lib/tinyusb/src/common/tusb_fifo.c **** 
 737              		.loc 1 324 18 view .LVU218
 738 001a 01EB0309 		add	r9, r1, r3
 739              	.LVL80:
 326:SynaptiX_FDK/lib/tinyusb/src/common/tusb_fifo.c **** 
 740              		.loc 1 326 3 is_stmt 1 view .LVU219
 328:SynaptiX_FDK/lib/tinyusb/src/common/tusb_fifo.c ****     // Linear only case
 741              		.loc 1 328 3 view .LVU220
 328:SynaptiX_FDK/lib/tinyusb/src/common/tusb_fifo.c ****     // Linear only case
 742              		.loc 1 328 6 is_stmt 0 view .LVU221
 743 001e 9045     		cmp	r8, r2
 744 0020 07D3     		bcc	.L40
 330:SynaptiX_FDK/lib/tinyusb/src/common/tusb_fifo.c ****   } else {
 745              		.loc 1 330 5 is_stmt 1 view .LVU222
 746 0022 3B46     		mov	r3, r7
 747              	.LVL81:
 330:SynaptiX_FDK/lib/tinyusb/src/common/tusb_fifo.c ****   } else {
 748              		.loc 1 330 5 is_stmt 0 view .LVU223
 749 0024 4946     		mov	r1, r9
 750 0026 3046     		mov	r0, r6
 751              	.LVL82:
 330:SynaptiX_FDK/lib/tinyusb/src/common/tusb_fifo.c ****   } else {
 752              		.loc 1 330 5 view .LVU224
 753 0028 FFF7FEFF 		bl	tu_hwfifo_write
 754              	.LVL83:
 755              	.L39:
 374:SynaptiX_FDK/lib/tinyusb/src/common/tusb_fifo.c **** #endif
ARM GAS  C:\Users\DELL\AppData\Local\Temp\ccaG9TDw.s 			page 38


 756              		.loc 1 374 1 view .LVU225
 757 002c 03B0     		add	sp, sp, #12
 758              	.LCFI9:
 759              		.cfi_remember_state
 760              		.cfi_def_cfa_offset 36
 761              		@ sp needed
 762 002e BDE8F08F 		pop	{r4, r5, r6, r7, r8, r9, r10, fp, pc}
 763              	.LVL84:
 764              	.L40:
 765              	.LCFI10:
 766              		.cfi_restore_state
 374:SynaptiX_FDK/lib/tinyusb/src/common/tusb_fifo.c **** #endif
 767              		.loc 1 374 1 view .LVU226
 768 0032 0546     		mov	r5, r0
 769 0034 A4B2     		uxth	r4, r4
 770              	.LBB112:
 339:SynaptiX_FDK/lib/tinyusb/src/common/tusb_fifo.c ****     const uint32_t odd_mask    = data_stride - 1;
 771              		.loc 1 339 5 is_stmt 1 view .LVU227
 339:SynaptiX_FDK/lib/tinyusb/src/common/tusb_fifo.c ****     const uint32_t odd_mask    = data_stride - 1;
 772              		.loc 1 339 20 is_stmt 0 view .LVU228
 773 0036 97F800B0 		ldrb	fp, [r7]	@ zero_extendqisi2
 774              	.LVL85:
 340:SynaptiX_FDK/lib/tinyusb/src/common/tusb_fifo.c ****     uint16_t       lin_even    = lin_bytes & ~odd_mask;
 775              		.loc 1 340 5 is_stmt 1 view .LVU229
 341:SynaptiX_FDK/lib/tinyusb/src/common/tusb_fifo.c ****     tu_hwfifo_write(hwfifo, ff_buf, lin_even, access_mode);
 776              		.loc 1 341 5 view .LVU230
 341:SynaptiX_FDK/lib/tinyusb/src/common/tusb_fifo.c ****     tu_hwfifo_write(hwfifo, ff_buf, lin_even, access_mode);
 777              		.loc 1 341 44 is_stmt 0 view .LVU231
 778 003a CBF1000A 		rsb	r10, fp, #0
 341:SynaptiX_FDK/lib/tinyusb/src/common/tusb_fifo.c ****     tu_hwfifo_write(hwfifo, ff_buf, lin_even, access_mode);
 779              		.loc 1 341 20 view .LVU232
 780 003e 0AEA080A 		and	r10, r10, r8
 781              	.LVL86:
 342:SynaptiX_FDK/lib/tinyusb/src/common/tusb_fifo.c ****     HWFIFO_ADDR_NEXT_N(hwfifo, , lin_even * HWFIFO_ADDR_DATA_RATIO);
 782              		.loc 1 342 5 is_stmt 1 view .LVU233
 783 0042 3B46     		mov	r3, r7
 784              	.LVL87:
 342:SynaptiX_FDK/lib/tinyusb/src/common/tusb_fifo.c ****     HWFIFO_ADDR_NEXT_N(hwfifo, , lin_even * HWFIFO_ADDR_DATA_RATIO);
 785              		.loc 1 342 5 is_stmt 0 view .LVU234
 786 0044 5246     		mov	r2, r10
 787              	.LVL88:
 342:SynaptiX_FDK/lib/tinyusb/src/common/tusb_fifo.c ****     HWFIFO_ADDR_NEXT_N(hwfifo, , lin_even * HWFIFO_ADDR_DATA_RATIO);
 788              		.loc 1 342 5 view .LVU235
 789 0046 4946     		mov	r1, r9
 790 0048 3046     		mov	r0, r6
 791              	.LVL89:
 342:SynaptiX_FDK/lib/tinyusb/src/common/tusb_fifo.c ****     HWFIFO_ADDR_NEXT_N(hwfifo, , lin_even * HWFIFO_ADDR_DATA_RATIO);
 792              		.loc 1 342 5 view .LVU236
 793 004a FFF7FEFF 		bl	tu_hwfifo_write
 794              	.LVL90:
 343:SynaptiX_FDK/lib/tinyusb/src/common/tusb_fifo.c ****     ff_buf += lin_even;
 795              		.loc 1 343 5 is_stmt 1 view .LVU237
 796 004e 5644     		add	r6, r6, r10
 797              	.LVL91:
 343:SynaptiX_FDK/lib/tinyusb/src/common/tusb_fifo.c ****     ff_buf += lin_even;
 798              		.loc 1 343 5 is_stmt 0 view .LVU238
 799 0050 3046     		mov	r0, r6
ARM GAS  C:\Users\DELL\AppData\Local\Temp\ccaG9TDw.s 			page 39


 800              	.LVL92:
 344:SynaptiX_FDK/lib/tinyusb/src/common/tusb_fifo.c **** 
 801              		.loc 1 344 5 is_stmt 1 view .LVU239
 347:SynaptiX_FDK/lib/tinyusb/src/common/tusb_fifo.c ****     if (lin_odd > 0) {
 802              		.loc 1 347 5 view .LVU240
 347:SynaptiX_FDK/lib/tinyusb/src/common/tusb_fifo.c ****     if (lin_odd > 0) {
 803              		.loc 1 347 39 is_stmt 0 view .LVU241
 804 0052 0BF1FF32 		add	r2, fp, #-1
 805              	.LVL93:
 347:SynaptiX_FDK/lib/tinyusb/src/common/tusb_fifo.c ****     if (lin_odd > 0) {
 806              		.loc 1 347 39 view .LVU242
 807 0056 D2B2     		uxtb	r2, r2
 808              	.LVL94:
 348:SynaptiX_FDK/lib/tinyusb/src/common/tusb_fifo.c ****       const uint8_t wrap_odd = (uint8_t)tu_min16(wrap_bytes, data_stride - lin_odd);
 809              		.loc 1 348 5 is_stmt 1 view .LVU243
 348:SynaptiX_FDK/lib/tinyusb/src/common/tusb_fifo.c ****       const uint8_t wrap_odd = (uint8_t)tu_min16(wrap_bytes, data_stride - lin_odd);
 810              		.loc 1 348 8 is_stmt 0 view .LVU244
 811 0058 18EA0202 		ands	r2, r8, r2
 812              	.LVL95:
 348:SynaptiX_FDK/lib/tinyusb/src/common/tusb_fifo.c ****       const uint8_t wrap_odd = (uint8_t)tu_min16(wrap_bytes, data_stride - lin_odd);
 813              		.loc 1 348 8 view .LVU245
 814 005c 3DD0     		beq	.L42
 815              	.LBB113:
 349:SynaptiX_FDK/lib/tinyusb/src/common/tusb_fifo.c **** 
 816              		.loc 1 349 7 is_stmt 1 view .LVU246
 349:SynaptiX_FDK/lib/tinyusb/src/common/tusb_fifo.c **** 
 817              		.loc 1 349 41 is_stmt 0 view .LVU247
 818 005e ABEB020B 		sub	fp, fp, r2
 819              	.LVL96:
 349:SynaptiX_FDK/lib/tinyusb/src/common/tusb_fifo.c **** 
 820              		.loc 1 349 41 view .LVU248
 821 0062 1FFA8BFB 		uxth	fp, fp
 822              	.LVL97:
 823              	.LBB114:
 824              	.LBI114:
 206:SynaptiX_FDK/lib/tinyusb/src/common/tusb_common.h **** TU_ATTR_ALWAYS_INLINE static inline uint32_t tu_min32 (uint32_t x, uint32_t y) { return (x < y) ? x
 825              		.loc 3 206 46 is_stmt 1 view .LVU249
 826              	.LBB115:
 206:SynaptiX_FDK/lib/tinyusb/src/common/tusb_common.h **** TU_ATTR_ALWAYS_INLINE static inline uint32_t tu_min32 (uint32_t x, uint32_t y) { return (x < y) ? x
 827              		.loc 3 206 82 view .LVU250
 206:SynaptiX_FDK/lib/tinyusb/src/common/tusb_common.h **** TU_ATTR_ALWAYS_INLINE static inline uint32_t tu_min32 (uint32_t x, uint32_t y) { return (x < y) ? x
 828              		.loc 3 206 101 is_stmt 0 view .LVU251
 829 0066 A345     		cmp	fp, r4
 830 0068 28BF     		it	cs
 831 006a A346     		movcs	fp, r4
 832              	.LVL98:
 206:SynaptiX_FDK/lib/tinyusb/src/common/tusb_common.h **** TU_ATTR_ALWAYS_INLINE static inline uint32_t tu_min32 (uint32_t x, uint32_t y) { return (x < y) ? x
 833              		.loc 3 206 101 view .LVU252
 834              	.LBE115:
 835              	.LBE114:
 349:SynaptiX_FDK/lib/tinyusb/src/common/tusb_fifo.c **** 
 836              		.loc 1 349 21 discriminator 1 view .LVU253
 837 006c 5FFA8BF8 		uxtb	r8, fp
 838              	.LVL99:
 351:SynaptiX_FDK/lib/tinyusb/src/common/tusb_fifo.c ****       for (uint8_t i = 0; i < lin_odd; ++i) {
 839              		.loc 1 351 7 is_stmt 1 view .LVU254
 352:SynaptiX_FDK/lib/tinyusb/src/common/tusb_fifo.c ****         buf_temp[i] = ff_buf[i];
ARM GAS  C:\Users\DELL\AppData\Local\Temp\ccaG9TDw.s 			page 40


 840              		.loc 1 352 7 view .LVU255
 841              	.LBB116:
 352:SynaptiX_FDK/lib/tinyusb/src/common/tusb_fifo.c ****         buf_temp[i] = ff_buf[i];
 842              		.loc 1 352 12 view .LVU256
 352:SynaptiX_FDK/lib/tinyusb/src/common/tusb_fifo.c ****         buf_temp[i] = ff_buf[i];
 843              		.loc 1 352 20 is_stmt 0 view .LVU257
 844 0070 4FF0000C 		mov	ip, #0
 352:SynaptiX_FDK/lib/tinyusb/src/common/tusb_fifo.c ****         buf_temp[i] = ff_buf[i];
 845              		.loc 1 352 7 view .LVU258
 846 0074 0CE0     		b	.L43
 847              	.LVL100:
 848              	.L44:
 353:SynaptiX_FDK/lib/tinyusb/src/common/tusb_fifo.c ****       }
 849              		.loc 1 353 9 is_stmt 1 view .LVU259
 353:SynaptiX_FDK/lib/tinyusb/src/common/tusb_fifo.c ****       }
 850              		.loc 1 353 29 is_stmt 0 view .LVU260
 851 0076 09EB0A03 		add	r3, r9, r10
 852 007a 13F80C10 		ldrb	r1, [r3, ip]	@ zero_extendqisi2
 353:SynaptiX_FDK/lib/tinyusb/src/common/tusb_fifo.c ****       }
 853              		.loc 1 353 21 view .LVU261
 854 007e 0CF10803 		add	r3, ip, #8
 855 0082 6B44     		add	r3, sp, r3
 856 0084 03F8041C 		strb	r1, [r3, #-4]
 352:SynaptiX_FDK/lib/tinyusb/src/common/tusb_fifo.c ****         buf_temp[i] = ff_buf[i];
 857              		.loc 1 352 40 is_stmt 1 discriminator 3 view .LVU262
 858 0088 0CF1010C 		add	ip, ip, #1
 859              	.LVL101:
 352:SynaptiX_FDK/lib/tinyusb/src/common/tusb_fifo.c ****         buf_temp[i] = ff_buf[i];
 860              		.loc 1 352 40 is_stmt 0 discriminator 3 view .LVU263
 861 008c 5FFA8CFC 		uxtb	ip, ip
 862              	.LVL102:
 863              	.L43:
 352:SynaptiX_FDK/lib/tinyusb/src/common/tusb_fifo.c ****         buf_temp[i] = ff_buf[i];
 864              		.loc 1 352 29 is_stmt 1 discriminator 1 view .LVU264
 865 0090 9445     		cmp	ip, r2
 866 0092 F0D3     		bcc	.L44
 867              	.LBE116:
 868              	.LBB117:
 355:SynaptiX_FDK/lib/tinyusb/src/common/tusb_fifo.c ****         buf_temp[lin_odd + i] = f->buffer[i];
 869              		.loc 1 355 20 is_stmt 0 view .LVU265
 870 0094 0023     		movs	r3, #0
 871 0096 08E0     		b	.L45
 872              	.LVL103:
 873              	.L46:
 356:SynaptiX_FDK/lib/tinyusb/src/common/tusb_fifo.c ****       }
 874              		.loc 1 356 9 is_stmt 1 view .LVU266
 356:SynaptiX_FDK/lib/tinyusb/src/common/tusb_fifo.c ****       }
 875              		.loc 1 356 34 is_stmt 0 view .LVU267
 876 0098 2868     		ldr	r0, [r5]
 356:SynaptiX_FDK/lib/tinyusb/src/common/tusb_fifo.c ****       }
 877              		.loc 1 356 26 view .LVU268
 878 009a D118     		adds	r1, r2, r3
 356:SynaptiX_FDK/lib/tinyusb/src/common/tusb_fifo.c ****       }
 879              		.loc 1 356 42 view .LVU269
 880 009c C05C     		ldrb	r0, [r0, r3]	@ zero_extendqisi2
 356:SynaptiX_FDK/lib/tinyusb/src/common/tusb_fifo.c ****       }
 881              		.loc 1 356 31 view .LVU270
ARM GAS  C:\Users\DELL\AppData\Local\Temp\ccaG9TDw.s 			page 41


 882 009e 0831     		adds	r1, r1, #8
 883 00a0 6944     		add	r1, sp, r1
 884 00a2 01F8040C 		strb	r0, [r1, #-4]
 355:SynaptiX_FDK/lib/tinyusb/src/common/tusb_fifo.c ****         buf_temp[lin_odd + i] = f->buffer[i];
 885              		.loc 1 355 41 is_stmt 1 discriminator 3 view .LVU271
 886 00a6 0133     		adds	r3, r3, #1
 887              	.LVL104:
 355:SynaptiX_FDK/lib/tinyusb/src/common/tusb_fifo.c ****         buf_temp[lin_odd + i] = f->buffer[i];
 888              		.loc 1 355 41 is_stmt 0 discriminator 3 view .LVU272
 889 00a8 DBB2     		uxtb	r3, r3
 890              	.LVL105:
 891              	.L45:
 355:SynaptiX_FDK/lib/tinyusb/src/common/tusb_fifo.c ****         buf_temp[lin_odd + i] = f->buffer[i];
 892              		.loc 1 355 29 is_stmt 1 discriminator 1 view .LVU273
 893 00aa 4345     		cmp	r3, r8
 894 00ac F4D3     		bcc	.L46
 895              	.LBE117:
 359:SynaptiX_FDK/lib/tinyusb/src/common/tusb_fifo.c ****       HWFIFO_ADDR_NEXT(hwfifo, );
 896              		.loc 1 359 7 view .LVU274
 897 00ae 5FFA8BFB 		uxtb	fp, fp
 898 00b2 3B46     		mov	r3, r7
 899              	.LVL106:
 359:SynaptiX_FDK/lib/tinyusb/src/common/tusb_fifo.c ****       HWFIFO_ADDR_NEXT(hwfifo, );
 900              		.loc 1 359 7 is_stmt 0 view .LVU275
 901 00b4 5A44     		add	r2, r2, fp
 902              	.LVL107:
 359:SynaptiX_FDK/lib/tinyusb/src/common/tusb_fifo.c ****       HWFIFO_ADDR_NEXT(hwfifo, );
 903              		.loc 1 359 7 view .LVU276
 904 00b6 01A9     		add	r1, sp, #4
 905 00b8 3046     		mov	r0, r6
 906 00ba FFF7FEFF 		bl	tu_hwfifo_write
 907              	.LVL108:
 360:SynaptiX_FDK/lib/tinyusb/src/common/tusb_fifo.c **** 
 908              		.loc 1 360 7 is_stmt 1 view .LVU277
 909 00be 301D     		adds	r0, r6, #4
 910              	.LVL109:
 362:SynaptiX_FDK/lib/tinyusb/src/common/tusb_fifo.c ****       ff_buf = f->buffer + wrap_odd; // wrap around
 911              		.loc 1 362 7 view .LVU278
 362:SynaptiX_FDK/lib/tinyusb/src/common/tusb_fifo.c ****       ff_buf = f->buffer + wrap_odd; // wrap around
 912              		.loc 1 362 18 is_stmt 0 view .LVU279
 913 00c0 A4EB0B0B 		sub	fp, r4, fp
 914 00c4 1FFA8BF4 		uxth	r4, fp
 915              	.LVL110:
 363:SynaptiX_FDK/lib/tinyusb/src/common/tusb_fifo.c ****     } else {
 916              		.loc 1 363 7 is_stmt 1 view .LVU280
 363:SynaptiX_FDK/lib/tinyusb/src/common/tusb_fifo.c ****     } else {
 917              		.loc 1 363 17 is_stmt 0 view .LVU281
 918 00c8 2968     		ldr	r1, [r5]
 363:SynaptiX_FDK/lib/tinyusb/src/common/tusb_fifo.c ****     } else {
 919              		.loc 1 363 14 view .LVU282
 920 00ca 4144     		add	r1, r1, r8
 921              	.LVL111:
 922              	.L47:
 363:SynaptiX_FDK/lib/tinyusb/src/common/tusb_fifo.c ****     } else {
 923              		.loc 1 363 14 view .LVU283
 924              	.LBE113:
 369:SynaptiX_FDK/lib/tinyusb/src/common/tusb_fifo.c ****       tu_hwfifo_write(hwfifo, ff_buf, wrap_bytes, access_mode);
ARM GAS  C:\Users\DELL\AppData\Local\Temp\ccaG9TDw.s 			page 42


 925              		.loc 1 369 5 is_stmt 1 view .LVU284
 369:SynaptiX_FDK/lib/tinyusb/src/common/tusb_fifo.c ****       tu_hwfifo_write(hwfifo, ff_buf, wrap_bytes, access_mode);
 926              		.loc 1 369 8 is_stmt 0 view .LVU285
 927 00cc 002C     		cmp	r4, #0
 928 00ce ADD0     		beq	.L39
 370:SynaptiX_FDK/lib/tinyusb/src/common/tusb_fifo.c ****     }
 929              		.loc 1 370 7 is_stmt 1 view .LVU286
 930 00d0 3B46     		mov	r3, r7
 931 00d2 2246     		mov	r2, r4
 932 00d4 FFF7FEFF 		bl	tu_hwfifo_write
 933              	.LVL112:
 370:SynaptiX_FDK/lib/tinyusb/src/common/tusb_fifo.c ****     }
 934              		.loc 1 370 7 is_stmt 0 view .LVU287
 935              	.LBE112:
 374:SynaptiX_FDK/lib/tinyusb/src/common/tusb_fifo.c **** #endif
 936              		.loc 1 374 1 view .LVU288
 937 00d8 A8E7     		b	.L39
 938              	.LVL113:
 939              	.L42:
 940              	.LBB118:
 365:SynaptiX_FDK/lib/tinyusb/src/common/tusb_fifo.c ****     }
 941              		.loc 1 365 7 is_stmt 1 view .LVU289
 365:SynaptiX_FDK/lib/tinyusb/src/common/tusb_fifo.c ****     }
 942              		.loc 1 365 14 is_stmt 0 view .LVU290
 943 00da 2968     		ldr	r1, [r5]
 944 00dc F6E7     		b	.L47
 945              	.LBE118:
 946              		.cfi_endproc
 947              	.LFE416:
 949              		.section	.text.tu_hwfifo_read,"ax",%progbits
 950              		.align	1
 951              		.global	tu_hwfifo_read
 952              		.syntax unified
 953              		.thumb
 954              		.thumb_func
 956              	tu_hwfifo_read:
 957              	.LVL114:
 958              	.LFB414:
 222:SynaptiX_FDK/lib/tinyusb/src/common/tusb_fifo.c ****   // Reading full available 16/32-bit hwfifo and write to fifo
 959              		.loc 1 222 118 is_stmt 1 view -0
 960              		.cfi_startproc
 961              		@ args = 0, pretend = 0, frame = 8
 962              		@ frame_needed = 0, uses_anonymous_args = 0
 222:SynaptiX_FDK/lib/tinyusb/src/common/tusb_fifo.c ****   // Reading full available 16/32-bit hwfifo and write to fifo
 963              		.loc 1 222 118 is_stmt 0 view .LVU292
 964 0000 8446     		mov	ip, r0
 965 0002 0846     		mov	r0, r1
 966              	.LVL115:
 224:SynaptiX_FDK/lib/tinyusb/src/common/tusb_fifo.c ****   while (len >= data_stride) {
 967              		.loc 1 224 3 is_stmt 1 view .LVU293
 224:SynaptiX_FDK/lib/tinyusb/src/common/tusb_fifo.c ****   while (len >= data_stride) {
 968              		.loc 1 224 17 is_stmt 0 view .LVU294
 969 0004 0BB1     		cbz	r3, .L54
 224:SynaptiX_FDK/lib/tinyusb/src/common/tusb_fifo.c ****   while (len >= data_stride) {
 970              		.loc 1 224 17 discriminator 1 view .LVU295
 971 0006 1B78     		ldrb	r3, [r3]	@ zero_extendqisi2
 972              	.LVL116:
ARM GAS  C:\Users\DELL\AppData\Local\Temp\ccaG9TDw.s 			page 43


 224:SynaptiX_FDK/lib/tinyusb/src/common/tusb_fifo.c ****   while (len >= data_stride) {
 973              		.loc 1 224 17 discriminator 1 view .LVU296
 974 0008 07E0     		b	.L51
 975              	.LVL117:
 976              	.L54:
 224:SynaptiX_FDK/lib/tinyusb/src/common/tusb_fifo.c ****   while (len >= data_stride) {
 977              		.loc 1 224 17 discriminator 2 view .LVU297
 978 000a 0423     		movs	r3, #4
 979              	.LVL118:
 225:SynaptiX_FDK/lib/tinyusb/src/common/tusb_fifo.c ****     stride_read(hwfifo, dest, data_stride);
 980              		.loc 1 225 3 is_stmt 1 view .LVU298
 225:SynaptiX_FDK/lib/tinyusb/src/common/tusb_fifo.c ****     stride_read(hwfifo, dest, data_stride);
 981              		.loc 1 225 9 is_stmt 0 view .LVU299
 982 000c 05E0     		b	.L51
 983              	.LVL119:
 984              	.L52:
 226:SynaptiX_FDK/lib/tinyusb/src/common/tusb_fifo.c ****     dest += data_stride;
 985              		.loc 1 226 5 is_stmt 1 view .LVU300
 986              	.LBB119:
 987              	.LBI119:
 196:SynaptiX_FDK/lib/tinyusb/src/common/tusb_fifo.c ****   (void)data_stride; // possible unused
 988              		.loc 1 196 42 view .LVU301
 989              	.LBB120:
 197:SynaptiX_FDK/lib/tinyusb/src/common/tusb_fifo.c **** 
 990              		.loc 1 197 3 view .LVU302
 204:SynaptiX_FDK/lib/tinyusb/src/common/tusb_fifo.c ****   }
 991              		.loc 1 204 5 view .LVU303
 992 000e 5CF8041B 		ldr	r1, [ip], #4
 993              	.LVL120:
 994              	.LBB121:
 995              	.LBI121:
 316:SynaptiX_FDK/lib/tinyusb/src/common/tusb_common.h **** }
 317:SynaptiX_FDK/lib/tinyusb/src/common/tusb_common.h **** 
 318:SynaptiX_FDK/lib/tinyusb/src/common/tusb_common.h **** TU_ATTR_ALWAYS_INLINE static inline uint16_t tu_unaligned_read16(const void *mem) {
 319:SynaptiX_FDK/lib/tinyusb/src/common/tusb_common.h ****   return *((uint16_t const *) mem);
 320:SynaptiX_FDK/lib/tinyusb/src/common/tusb_common.h **** }
 321:SynaptiX_FDK/lib/tinyusb/src/common/tusb_common.h **** 
 322:SynaptiX_FDK/lib/tinyusb/src/common/tusb_common.h **** TU_ATTR_ALWAYS_INLINE static inline void tu_unaligned_write32(void *mem, uint32_t value) {
 996              		.loc 3 322 42 view .LVU304
 997              	.LBB122:
 323:SynaptiX_FDK/lib/tinyusb/src/common/tusb_common.h ****   *((uint32_t *) mem) = value;
 998              		.loc 3 323 3 view .LVU305
 999              		.loc 3 323 23 is_stmt 0 view .LVU306
 1000 0012 0160     		str	r1, [r0]
 1001              	.LVL121:
 1002              		.loc 3 323 23 view .LVU307
 1003              	.LBE122:
 1004              	.LBE121:
 1005              	.LBE120:
 1006              	.LBE119:
 227:SynaptiX_FDK/lib/tinyusb/src/common/tusb_fifo.c ****     len -= data_stride;
 1007              		.loc 1 227 5 is_stmt 1 view .LVU308
 227:SynaptiX_FDK/lib/tinyusb/src/common/tusb_fifo.c ****     len -= data_stride;
 1008              		.loc 1 227 10 is_stmt 0 view .LVU309
 1009 0014 1844     		add	r0, r0, r3
 1010              	.LVL122:
 228:SynaptiX_FDK/lib/tinyusb/src/common/tusb_fifo.c ****     HWFIFO_ADDR_NEXT(hwfifo, const);
ARM GAS  C:\Users\DELL\AppData\Local\Temp\ccaG9TDw.s 			page 44


 1011              		.loc 1 228 5 is_stmt 1 view .LVU310
 228:SynaptiX_FDK/lib/tinyusb/src/common/tusb_fifo.c ****     HWFIFO_ADDR_NEXT(hwfifo, const);
 1012              		.loc 1 228 9 is_stmt 0 view .LVU311
 1013 0016 D21A     		subs	r2, r2, r3
 1014              	.LVL123:
 228:SynaptiX_FDK/lib/tinyusb/src/common/tusb_fifo.c ****     HWFIFO_ADDR_NEXT(hwfifo, const);
 1015              		.loc 1 228 9 view .LVU312
 1016 0018 92B2     		uxth	r2, r2
 1017              	.LVL124:
 229:SynaptiX_FDK/lib/tinyusb/src/common/tusb_fifo.c ****   }
 1018              		.loc 1 229 5 is_stmt 1 view .LVU313
 1019              	.L51:
 225:SynaptiX_FDK/lib/tinyusb/src/common/tusb_fifo.c ****     stride_read(hwfifo, dest, data_stride);
 1020              		.loc 1 225 14 view .LVU314
 1021 001a 9342     		cmp	r3, r2
 1022 001c F7D9     		bls	.L52
 252:SynaptiX_FDK/lib/tinyusb/src/common/tusb_fifo.c ****     uint32_t tmp;
 1023              		.loc 1 252 3 view .LVU315
 252:SynaptiX_FDK/lib/tinyusb/src/common/tusb_fifo.c ****     uint32_t tmp;
 1024              		.loc 1 252 6 is_stmt 0 view .LVU316
 1025 001e 02B9     		cbnz	r2, .L59
 1026 0020 7047     		bx	lr
 1027              	.L59:
 222:SynaptiX_FDK/lib/tinyusb/src/common/tusb_fifo.c ****   // Reading full available 16/32-bit hwfifo and write to fifo
 1028              		.loc 1 222 118 view .LVU317
 1029 0022 00B5     		push	{lr}
 1030              	.LCFI11:
 1031              		.cfi_def_cfa_offset 4
 1032              		.cfi_offset 14, -4
 1033 0024 83B0     		sub	sp, sp, #12
 1034              	.LCFI12:
 1035              		.cfi_def_cfa_offset 16
 1036              	.LBB123:
 253:SynaptiX_FDK/lib/tinyusb/src/common/tusb_fifo.c ****     stride_read(hwfifo, &tmp, data_stride);
 1037              		.loc 1 253 5 is_stmt 1 view .LVU318
 254:SynaptiX_FDK/lib/tinyusb/src/common/tusb_fifo.c ****     memcpy(dest, &tmp, len);
 1038              		.loc 1 254 5 view .LVU319
 1039              	.LVL125:
 1040              	.LBB124:
 1041              	.LBI124:
 196:SynaptiX_FDK/lib/tinyusb/src/common/tusb_fifo.c ****   (void)data_stride; // possible unused
 1042              		.loc 1 196 42 view .LVU320
 1043              	.LBB125:
 197:SynaptiX_FDK/lib/tinyusb/src/common/tusb_fifo.c **** 
 1044              		.loc 1 197 3 view .LVU321
 204:SynaptiX_FDK/lib/tinyusb/src/common/tusb_fifo.c ****   }
 1045              		.loc 1 204 5 view .LVU322
 1046 0026 DCF80030 		ldr	r3, [ip]
 1047              	.LVL126:
 1048              	.LBB126:
 1049              	.LBI126:
 322:SynaptiX_FDK/lib/tinyusb/src/common/tusb_common.h ****   *((uint32_t *) mem) = value;
 1050              		.loc 3 322 42 view .LVU323
 1051              	.LBB127:
 1052              		.loc 3 323 3 view .LVU324
 1053              		.loc 3 323 23 is_stmt 0 view .LVU325
 1054 002a 0193     		str	r3, [sp, #4]
ARM GAS  C:\Users\DELL\AppData\Local\Temp\ccaG9TDw.s 			page 45


 1055              	.LVL127:
 1056              		.loc 3 323 23 view .LVU326
 1057              	.LBE127:
 1058              	.LBE126:
 1059              	.LBE125:
 1060              	.LBE124:
 255:SynaptiX_FDK/lib/tinyusb/src/common/tusb_fifo.c ****     HWFIFO_ADDR_NEXT(hwfifo, const);
 1061              		.loc 1 255 5 is_stmt 1 view .LVU327
 1062 002c 01A9     		add	r1, sp, #4
 1063 002e FFF7FEFF 		bl	memcpy
 1064              	.LVL128:
 256:SynaptiX_FDK/lib/tinyusb/src/common/tusb_fifo.c ****   }
 1065              		.loc 1 256 5 view .LVU328
 256:SynaptiX_FDK/lib/tinyusb/src/common/tusb_fifo.c ****   }
 1066              		.loc 1 256 5 is_stmt 0 view .LVU329
 1067              	.LBE123:
 260:SynaptiX_FDK/lib/tinyusb/src/common/tusb_fifo.c ****   #endif
 1068              		.loc 1 260 1 view .LVU330
 1069 0032 03B0     		add	sp, sp, #12
 1070              	.LCFI13:
 1071              		.cfi_def_cfa_offset 4
 1072              		@ sp needed
 1073 0034 00BD     		pop	{pc}
 1074              		.cfi_endproc
 1075              	.LFE414:
 1077              		.section	.text.hwff_push_n,"ax",%progbits
 1078              		.align	1
 1079              		.syntax unified
 1080              		.thumb
 1081              		.thumb_func
 1083              	hwff_push_n:
 1084              	.LVL129:
 1085              	.LFB415:
 265:SynaptiX_FDK/lib/tinyusb/src/common/tusb_fifo.c ****   uint16_t lin_bytes  = f->depth - wr_ptr;
 1086              		.loc 1 265 64 is_stmt 1 view -0
 1087              		.cfi_startproc
 1088              		@ args = 4, pretend = 0, frame = 8
 1089              		@ frame_needed = 0, uses_anonymous_args = 0
 265:SynaptiX_FDK/lib/tinyusb/src/common/tusb_fifo.c ****   uint16_t lin_bytes  = f->depth - wr_ptr;
 1090              		.loc 1 265 64 is_stmt 0 view .LVU332
 1091 0000 2DE9F04F 		push	{r4, r5, r6, r7, r8, r9, r10, fp, lr}
 1092              	.LCFI14:
 1093              		.cfi_def_cfa_offset 36
 1094              		.cfi_offset 4, -36
 1095              		.cfi_offset 5, -32
 1096              		.cfi_offset 6, -28
 1097              		.cfi_offset 7, -24
 1098              		.cfi_offset 8, -20
 1099              		.cfi_offset 9, -16
 1100              		.cfi_offset 10, -12
 1101              		.cfi_offset 11, -8
 1102              		.cfi_offset 14, -4
 1103 0004 83B0     		sub	sp, sp, #12
 1104              	.LCFI15:
 1105              		.cfi_def_cfa_offset 48
 1106 0006 0F46     		mov	r7, r1
 266:SynaptiX_FDK/lib/tinyusb/src/common/tusb_fifo.c ****   uint16_t wrap_bytes = n - lin_bytes;
ARM GAS  C:\Users\DELL\AppData\Local\Temp\ccaG9TDw.s 			page 46


 1107              		.loc 1 266 3 is_stmt 1 view .LVU333
 266:SynaptiX_FDK/lib/tinyusb/src/common/tusb_fifo.c ****   uint16_t wrap_bytes = n - lin_bytes;
 1108              		.loc 1 266 26 is_stmt 0 view .LVU334
 1109 0008 8488     		ldrh	r4, [r0, #4]
 266:SynaptiX_FDK/lib/tinyusb/src/common/tusb_fifo.c ****   uint16_t wrap_bytes = n - lin_bytes;
 1110              		.loc 1 266 12 view .LVU335
 1111 000a E51A     		subs	r5, r4, r3
 1112 000c ADB2     		uxth	r5, r5
 1113              	.LVL130:
 267:SynaptiX_FDK/lib/tinyusb/src/common/tusb_fifo.c ****   uint8_t *ff_buf     = f->buffer + wr_ptr;
 1114              		.loc 1 267 3 is_stmt 1 view .LVU336
 267:SynaptiX_FDK/lib/tinyusb/src/common/tusb_fifo.c ****   uint8_t *ff_buf     = f->buffer + wr_ptr;
 1115              		.loc 1 267 12 is_stmt 0 view .LVU337
 1116 000e 1C1B     		subs	r4, r3, r4
 1117 0010 1444     		add	r4, r4, r2
 1118              	.LVL131:
 268:SynaptiX_FDK/lib/tinyusb/src/common/tusb_fifo.c **** 
 1119              		.loc 1 268 3 is_stmt 1 view .LVU338
 268:SynaptiX_FDK/lib/tinyusb/src/common/tusb_fifo.c **** 
 1120              		.loc 1 268 26 is_stmt 0 view .LVU339
 1121 0012 0168     		ldr	r1, [r0]
 1122              	.LVL132:
 268:SynaptiX_FDK/lib/tinyusb/src/common/tusb_fifo.c **** 
 1123              		.loc 1 268 12 view .LVU340
 1124 0014 01EB0308 		add	r8, r1, r3
 1125              	.LVL133:
 270:SynaptiX_FDK/lib/tinyusb/src/common/tusb_fifo.c ****   if (n <= lin_bytes) {
 1126              		.loc 1 270 3 is_stmt 1 view .LVU341
 271:SynaptiX_FDK/lib/tinyusb/src/common/tusb_fifo.c ****     // Linear only case
 1127              		.loc 1 271 3 view .LVU342
 271:SynaptiX_FDK/lib/tinyusb/src/common/tusb_fifo.c ****     // Linear only case
 1128              		.loc 1 271 6 is_stmt 0 view .LVU343
 1129 0018 9542     		cmp	r5, r2
 1130 001a 07D3     		bcc	.L61
 273:SynaptiX_FDK/lib/tinyusb/src/common/tusb_fifo.c ****   } else {
 1131              		.loc 1 273 5 is_stmt 1 view .LVU344
 1132 001c 0C9B     		ldr	r3, [sp, #48]
 1133              	.LVL134:
 273:SynaptiX_FDK/lib/tinyusb/src/common/tusb_fifo.c ****   } else {
 1134              		.loc 1 273 5 is_stmt 0 view .LVU345
 1135 001e 4146     		mov	r1, r8
 1136 0020 3846     		mov	r0, r7
 1137              	.LVL135:
 273:SynaptiX_FDK/lib/tinyusb/src/common/tusb_fifo.c ****   } else {
 1138              		.loc 1 273 5 view .LVU346
 1139 0022 FFF7FEFF 		bl	tu_hwfifo_read
 1140              	.LVL136:
 1141              	.L60:
 317:SynaptiX_FDK/lib/tinyusb/src/common/tusb_fifo.c **** 
 1142              		.loc 1 317 1 view .LVU347
 1143 0026 03B0     		add	sp, sp, #12
 1144              	.LCFI16:
 1145              		.cfi_remember_state
 1146              		.cfi_def_cfa_offset 36
 1147              		@ sp needed
 1148 0028 BDE8F08F 		pop	{r4, r5, r6, r7, r8, r9, r10, fp, pc}
 1149              	.LVL137:
ARM GAS  C:\Users\DELL\AppData\Local\Temp\ccaG9TDw.s 			page 47


 1150              	.L61:
 1151              	.LCFI17:
 1152              		.cfi_restore_state
 317:SynaptiX_FDK/lib/tinyusb/src/common/tusb_fifo.c **** 
 1153              		.loc 1 317 1 view .LVU348
 1154 002c 0646     		mov	r6, r0
 1155 002e A4B2     		uxth	r4, r4
 1156              	.LBB128:
 282:SynaptiX_FDK/lib/tinyusb/src/common/tusb_fifo.c ****     const uint32_t odd_mask    = data_stride - 1;
 1157              		.loc 1 282 5 is_stmt 1 view .LVU349
 282:SynaptiX_FDK/lib/tinyusb/src/common/tusb_fifo.c ****     const uint32_t odd_mask    = data_stride - 1;
 1158              		.loc 1 282 20 is_stmt 0 view .LVU350
 1159 0030 0C9B     		ldr	r3, [sp, #48]
 1160              	.LVL138:
 282:SynaptiX_FDK/lib/tinyusb/src/common/tusb_fifo.c ****     const uint32_t odd_mask    = data_stride - 1;
 1161              		.loc 1 282 20 view .LVU351
 1162 0032 93F800B0 		ldrb	fp, [r3]	@ zero_extendqisi2
 1163              	.LVL139:
 283:SynaptiX_FDK/lib/tinyusb/src/common/tusb_fifo.c ****     uint16_t       lin_even    = lin_bytes & ~odd_mask;
 1164              		.loc 1 283 5 is_stmt 1 view .LVU352
 284:SynaptiX_FDK/lib/tinyusb/src/common/tusb_fifo.c ****     tu_hwfifo_read(hwfifo, ff_buf, lin_even, access_mode);
 1165              		.loc 1 284 5 view .LVU353
 284:SynaptiX_FDK/lib/tinyusb/src/common/tusb_fifo.c ****     tu_hwfifo_read(hwfifo, ff_buf, lin_even, access_mode);
 1166              		.loc 1 284 44 is_stmt 0 view .LVU354
 1167 0036 CBF10009 		rsb	r9, fp, #0
 284:SynaptiX_FDK/lib/tinyusb/src/common/tusb_fifo.c ****     tu_hwfifo_read(hwfifo, ff_buf, lin_even, access_mode);
 1168              		.loc 1 284 20 view .LVU355
 1169 003a 09EA0509 		and	r9, r9, r5
 1170              	.LVL140:
 285:SynaptiX_FDK/lib/tinyusb/src/common/tusb_fifo.c ****     HWFIFO_ADDR_NEXT_N(hwfifo, const, lin_even * HWFIFO_ADDR_DATA_RATIO);
 1171              		.loc 1 285 5 is_stmt 1 view .LVU356
 1172 003e 4A46     		mov	r2, r9
 1173              	.LVL141:
 285:SynaptiX_FDK/lib/tinyusb/src/common/tusb_fifo.c ****     HWFIFO_ADDR_NEXT_N(hwfifo, const, lin_even * HWFIFO_ADDR_DATA_RATIO);
 1174              		.loc 1 285 5 is_stmt 0 view .LVU357
 1175 0040 4146     		mov	r1, r8
 1176 0042 3846     		mov	r0, r7
 1177              	.LVL142:
 285:SynaptiX_FDK/lib/tinyusb/src/common/tusb_fifo.c ****     HWFIFO_ADDR_NEXT_N(hwfifo, const, lin_even * HWFIFO_ADDR_DATA_RATIO);
 1178              		.loc 1 285 5 view .LVU358
 1179 0044 FFF7FEFF 		bl	tu_hwfifo_read
 1180              	.LVL143:
 286:SynaptiX_FDK/lib/tinyusb/src/common/tusb_fifo.c ****     ff_buf += lin_even;
 1181              		.loc 1 286 5 is_stmt 1 view .LVU359
 1182 0048 4F44     		add	r7, r7, r9
 1183              	.LVL144:
 286:SynaptiX_FDK/lib/tinyusb/src/common/tusb_fifo.c ****     ff_buf += lin_even;
 1184              		.loc 1 286 5 is_stmt 0 view .LVU360
 1185 004a 3846     		mov	r0, r7
 1186              	.LVL145:
 287:SynaptiX_FDK/lib/tinyusb/src/common/tusb_fifo.c **** 
 1187              		.loc 1 287 5 is_stmt 1 view .LVU361
 291:SynaptiX_FDK/lib/tinyusb/src/common/tusb_fifo.c ****     if (lin_odd > 0) {
 1188              		.loc 1 291 5 view .LVU362
 291:SynaptiX_FDK/lib/tinyusb/src/common/tusb_fifo.c ****     if (lin_odd > 0) {
 1189              		.loc 1 291 39 is_stmt 0 view .LVU363
 1190 004c 0BF1FF33 		add	r3, fp, #-1
ARM GAS  C:\Users\DELL\AppData\Local\Temp\ccaG9TDw.s 			page 48


 1191              	.LVL146:
 291:SynaptiX_FDK/lib/tinyusb/src/common/tusb_fifo.c ****     if (lin_odd > 0) {
 1192              		.loc 1 291 39 view .LVU364
 1193 0050 DBB2     		uxtb	r3, r3
 1194              	.LVL147:
 292:SynaptiX_FDK/lib/tinyusb/src/common/tusb_fifo.c ****       const uint8_t wrap_odd = (uint8_t)tu_min16(wrap_bytes, data_stride - lin_odd);
 1195              		.loc 1 292 5 is_stmt 1 view .LVU365
 292:SynaptiX_FDK/lib/tinyusb/src/common/tusb_fifo.c ****       const uint8_t wrap_odd = (uint8_t)tu_min16(wrap_bytes, data_stride - lin_odd);
 1196              		.loc 1 292 8 is_stmt 0 view .LVU366
 1197 0052 1D40     		ands	r5, r5, r3
 1198              	.LVL148:
 292:SynaptiX_FDK/lib/tinyusb/src/common/tusb_fifo.c ****       const uint8_t wrap_odd = (uint8_t)tu_min16(wrap_bytes, data_stride - lin_odd);
 1199              		.loc 1 292 8 view .LVU367
 1200 0054 07D1     		bne	.L70
 308:SynaptiX_FDK/lib/tinyusb/src/common/tusb_fifo.c ****     }
 1201              		.loc 1 308 7 is_stmt 1 view .LVU368
 308:SynaptiX_FDK/lib/tinyusb/src/common/tusb_fifo.c ****     }
 1202              		.loc 1 308 14 is_stmt 0 view .LVU369
 1203 0056 3168     		ldr	r1, [r6]
 1204              	.LVL149:
 1205              	.L68:
 312:SynaptiX_FDK/lib/tinyusb/src/common/tusb_fifo.c ****       tu_hwfifo_read(hwfifo, ff_buf, wrap_bytes, access_mode);
 1206              		.loc 1 312 5 is_stmt 1 view .LVU370
 312:SynaptiX_FDK/lib/tinyusb/src/common/tusb_fifo.c ****       tu_hwfifo_read(hwfifo, ff_buf, wrap_bytes, access_mode);
 1207              		.loc 1 312 8 is_stmt 0 view .LVU371
 1208 0058 002C     		cmp	r4, #0
 1209 005a E4D0     		beq	.L60
 313:SynaptiX_FDK/lib/tinyusb/src/common/tusb_fifo.c ****     }
 1210              		.loc 1 313 7 is_stmt 1 view .LVU372
 1211 005c 0C9B     		ldr	r3, [sp, #48]
 1212 005e 2246     		mov	r2, r4
 1213 0060 FFF7FEFF 		bl	tu_hwfifo_read
 1214              	.LVL150:
 313:SynaptiX_FDK/lib/tinyusb/src/common/tusb_fifo.c ****     }
 1215              		.loc 1 313 7 is_stmt 0 view .LVU373
 1216              	.LBE128:
 317:SynaptiX_FDK/lib/tinyusb/src/common/tusb_fifo.c **** 
 1217              		.loc 1 317 1 view .LVU374
 1218 0064 DFE7     		b	.L60
 1219              	.LVL151:
 1220              	.L70:
 1221              	.LBB134:
 1222              	.LBB129:
 293:SynaptiX_FDK/lib/tinyusb/src/common/tusb_fifo.c ****       uint8_t       buf_temp[4];
 1223              		.loc 1 293 7 is_stmt 1 view .LVU375
 293:SynaptiX_FDK/lib/tinyusb/src/common/tusb_fifo.c ****       uint8_t       buf_temp[4];
 1224              		.loc 1 293 41 is_stmt 0 view .LVU376
 1225 0066 ABEB0503 		sub	r3, fp, r5
 1226 006a 9BB2     		uxth	r3, r3
 1227              	.LVL152:
 1228              	.LBB130:
 1229              	.LBI130:
 206:SynaptiX_FDK/lib/tinyusb/src/common/tusb_common.h **** TU_ATTR_ALWAYS_INLINE static inline uint32_t tu_min32 (uint32_t x, uint32_t y) { return (x < y) ? x
 1230              		.loc 3 206 46 is_stmt 1 view .LVU377
 1231              	.LBB131:
 206:SynaptiX_FDK/lib/tinyusb/src/common/tusb_common.h **** TU_ATTR_ALWAYS_INLINE static inline uint32_t tu_min32 (uint32_t x, uint32_t y) { return (x < y) ? x
 1232              		.loc 3 206 82 view .LVU378
ARM GAS  C:\Users\DELL\AppData\Local\Temp\ccaG9TDw.s 			page 49


 206:SynaptiX_FDK/lib/tinyusb/src/common/tusb_common.h **** TU_ATTR_ALWAYS_INLINE static inline uint32_t tu_min32 (uint32_t x, uint32_t y) { return (x < y) ? x
 1233              		.loc 3 206 101 is_stmt 0 view .LVU379
 1234 006c A342     		cmp	r3, r4
 1235 006e 28BF     		it	cs
 1236 0070 2346     		movcs	r3, r4
 1237              	.LVL153:
 206:SynaptiX_FDK/lib/tinyusb/src/common/tusb_common.h **** TU_ATTR_ALWAYS_INLINE static inline uint32_t tu_min32 (uint32_t x, uint32_t y) { return (x < y) ? x
 1238              		.loc 3 206 101 view .LVU380
 1239              	.LBE131:
 1240              	.LBE130:
 293:SynaptiX_FDK/lib/tinyusb/src/common/tusb_fifo.c ****       uint8_t       buf_temp[4];
 1241              		.loc 1 293 21 discriminator 1 view .LVU381
 1242 0072 5FFA83FB 		uxtb	fp, r3
 1243              	.LVL154:
 294:SynaptiX_FDK/lib/tinyusb/src/common/tusb_fifo.c ****       tu_hwfifo_read(hwfifo, buf_temp, lin_odd + wrap_odd, access_mode);
 1244              		.loc 1 294 7 is_stmt 1 view .LVU382
 295:SynaptiX_FDK/lib/tinyusb/src/common/tusb_fifo.c ****       HWFIFO_ADDR_NEXT(hwfifo, const);
 1245              		.loc 1 295 7 view .LVU383
 1246 0076 DA46     		mov	r10, fp
 1247 0078 0C9B     		ldr	r3, [sp, #48]
 1248 007a 05EB0B02 		add	r2, r5, fp
 1249 007e 01A9     		add	r1, sp, #4
 1250 0080 FFF7FEFF 		bl	tu_hwfifo_read
 1251              	.LVL155:
 296:SynaptiX_FDK/lib/tinyusb/src/common/tusb_fifo.c **** 
 1252              		.loc 1 296 7 view .LVU384
 1253 0084 381D     		adds	r0, r7, #4
 1254              	.LVL156:
 298:SynaptiX_FDK/lib/tinyusb/src/common/tusb_fifo.c ****         ff_buf[i] = buf_temp[i];
 1255              		.loc 1 298 7 view .LVU385
 1256              	.LBB132:
 298:SynaptiX_FDK/lib/tinyusb/src/common/tusb_fifo.c ****         ff_buf[i] = buf_temp[i];
 1257              		.loc 1 298 12 view .LVU386
 298:SynaptiX_FDK/lib/tinyusb/src/common/tusb_fifo.c ****         ff_buf[i] = buf_temp[i];
 1258              		.loc 1 298 20 is_stmt 0 view .LVU387
 1259 0086 0023     		movs	r3, #0
 298:SynaptiX_FDK/lib/tinyusb/src/common/tusb_fifo.c ****         ff_buf[i] = buf_temp[i];
 1260              		.loc 1 298 7 view .LVU388
 1261 0088 0AE0     		b	.L64
 1262              	.LVL157:
 1263              	.L65:
 299:SynaptiX_FDK/lib/tinyusb/src/common/tusb_fifo.c ****       }
 1264              		.loc 1 299 9 is_stmt 1 view .LVU389
 299:SynaptiX_FDK/lib/tinyusb/src/common/tusb_fifo.c ****       }
 1265              		.loc 1 299 15 is_stmt 0 view .LVU390
 1266 008a 09EB0302 		add	r2, r9, r3
 299:SynaptiX_FDK/lib/tinyusb/src/common/tusb_fifo.c ****       }
 1267              		.loc 1 299 29 view .LVU391
 1268 008e 03F10801 		add	r1, r3, #8
 1269 0092 6944     		add	r1, sp, r1
 1270 0094 11F8041C 		ldrb	r1, [r1, #-4]	@ zero_extendqisi2
 299:SynaptiX_FDK/lib/tinyusb/src/common/tusb_fifo.c ****       }
 1271              		.loc 1 299 19 view .LVU392
 1272 0098 08F80210 		strb	r1, [r8, r2]
 298:SynaptiX_FDK/lib/tinyusb/src/common/tusb_fifo.c ****         ff_buf[i] = buf_temp[i];
 1273              		.loc 1 298 40 is_stmt 1 discriminator 3 view .LVU393
 1274 009c 0133     		adds	r3, r3, #1
ARM GAS  C:\Users\DELL\AppData\Local\Temp\ccaG9TDw.s 			page 50


 1275              	.LVL158:
 298:SynaptiX_FDK/lib/tinyusb/src/common/tusb_fifo.c ****         ff_buf[i] = buf_temp[i];
 1276              		.loc 1 298 40 is_stmt 0 discriminator 3 view .LVU394
 1277 009e DBB2     		uxtb	r3, r3
 1278              	.LVL159:
 1279              	.L64:
 298:SynaptiX_FDK/lib/tinyusb/src/common/tusb_fifo.c ****         ff_buf[i] = buf_temp[i];
 1280              		.loc 1 298 29 is_stmt 1 discriminator 1 view .LVU395
 1281 00a0 AB42     		cmp	r3, r5
 1282 00a2 F2D3     		bcc	.L65
 1283              	.LBE132:
 1284              	.LBB133:
 301:SynaptiX_FDK/lib/tinyusb/src/common/tusb_fifo.c ****         f->buffer[i] = buf_temp[lin_odd + i];
 1285              		.loc 1 301 20 is_stmt 0 view .LVU396
 1286 00a4 0023     		movs	r3, #0
 1287              	.LVL160:
 301:SynaptiX_FDK/lib/tinyusb/src/common/tusb_fifo.c ****         f->buffer[i] = buf_temp[lin_odd + i];
 1288              		.loc 1 301 20 view .LVU397
 1289 00a6 08E0     		b	.L66
 1290              	.LVL161:
 1291              	.L67:
 302:SynaptiX_FDK/lib/tinyusb/src/common/tusb_fifo.c ****       }
 1292              		.loc 1 302 9 is_stmt 1 view .LVU398
 302:SynaptiX_FDK/lib/tinyusb/src/common/tusb_fifo.c ****       }
 1293              		.loc 1 302 41 is_stmt 0 view .LVU399
 1294 00a8 EA18     		adds	r2, r5, r3
 302:SynaptiX_FDK/lib/tinyusb/src/common/tusb_fifo.c ****       }
 1295              		.loc 1 302 10 view .LVU400
 1296 00aa 3168     		ldr	r1, [r6]
 302:SynaptiX_FDK/lib/tinyusb/src/common/tusb_fifo.c ****       }
 1297              		.loc 1 302 32 view .LVU401
 1298 00ac 0832     		adds	r2, r2, #8
 1299 00ae 6A44     		add	r2, sp, r2
 1300 00b0 12F8042C 		ldrb	r2, [r2, #-4]	@ zero_extendqisi2
 302:SynaptiX_FDK/lib/tinyusb/src/common/tusb_fifo.c ****       }
 1301              		.loc 1 302 22 view .LVU402
 1302 00b4 CA54     		strb	r2, [r1, r3]
 301:SynaptiX_FDK/lib/tinyusb/src/common/tusb_fifo.c ****         f->buffer[i] = buf_temp[lin_odd + i];
 1303              		.loc 1 301 41 is_stmt 1 discriminator 3 view .LVU403
 1304 00b6 0133     		adds	r3, r3, #1
 1305              	.LVL162:
 301:SynaptiX_FDK/lib/tinyusb/src/common/tusb_fifo.c ****         f->buffer[i] = buf_temp[lin_odd + i];
 1306              		.loc 1 301 41 is_stmt 0 discriminator 3 view .LVU404
 1307 00b8 DBB2     		uxtb	r3, r3
 1308              	.LVL163:
 1309              	.L66:
 301:SynaptiX_FDK/lib/tinyusb/src/common/tusb_fifo.c ****         f->buffer[i] = buf_temp[lin_odd + i];
 1310              		.loc 1 301 29 is_stmt 1 discriminator 1 view .LVU405
 1311 00ba 5B45     		cmp	r3, fp
 1312 00bc F4D3     		bcc	.L67
 1313              	.LBE133:
 305:SynaptiX_FDK/lib/tinyusb/src/common/tusb_fifo.c ****       ff_buf = f->buffer + wrap_odd; // wrap around
 1314              		.loc 1 305 7 view .LVU406
 305:SynaptiX_FDK/lib/tinyusb/src/common/tusb_fifo.c ****       ff_buf = f->buffer + wrap_odd; // wrap around
 1315              		.loc 1 305 18 is_stmt 0 view .LVU407
 1316 00be A4EB0A03 		sub	r3, r4, r10
 1317              	.LVL164:
ARM GAS  C:\Users\DELL\AppData\Local\Temp\ccaG9TDw.s 			page 51


 305:SynaptiX_FDK/lib/tinyusb/src/common/tusb_fifo.c ****       ff_buf = f->buffer + wrap_odd; // wrap around
 1318              		.loc 1 305 18 view .LVU408
 1319 00c2 9CB2     		uxth	r4, r3
 1320              	.LVL165:
 306:SynaptiX_FDK/lib/tinyusb/src/common/tusb_fifo.c ****     } else {
 1321              		.loc 1 306 7 is_stmt 1 view .LVU409
 306:SynaptiX_FDK/lib/tinyusb/src/common/tusb_fifo.c ****     } else {
 1322              		.loc 1 306 17 is_stmt 0 view .LVU410
 1323 00c4 3168     		ldr	r1, [r6]
 306:SynaptiX_FDK/lib/tinyusb/src/common/tusb_fifo.c ****     } else {
 1324              		.loc 1 306 14 view .LVU411
 1325 00c6 5944     		add	r1, r1, fp
 1326              	.LVL166:
 306:SynaptiX_FDK/lib/tinyusb/src/common/tusb_fifo.c ****     } else {
 1327              		.loc 1 306 14 view .LVU412
 1328              	.LBE129:
 1329 00c8 C6E7     		b	.L68
 1330              	.LBE134:
 1331              		.cfi_endproc
 1332              	.LFE415:
 1334              		.section	.text.tu_fifo_peek_n_access_mode,"ax",%progbits
 1335              		.align	1
 1336              		.global	tu_fifo_peek_n_access_mode
 1337              		.syntax unified
 1338              		.thumb
 1339              		.thumb_func
 1341              	tu_fifo_peek_n_access_mode:
 1342              	.LVL167:
 1343              	.LFB422:
 463:SynaptiX_FDK/lib/tinyusb/src/common/tusb_fifo.c ****   uint16_t count = tu_ff_overflow_count(f->depth, wr_idx, rd_idx);
 1344              		.loc 1 463 76 is_stmt 1 view -0
 1345              		.cfi_startproc
 1346              		@ args = 8, pretend = 0, frame = 0
 1347              		@ frame_needed = 0, uses_anonymous_args = 0
 463:SynaptiX_FDK/lib/tinyusb/src/common/tusb_fifo.c ****   uint16_t count = tu_ff_overflow_count(f->depth, wr_idx, rd_idx);
 1348              		.loc 1 463 76 is_stmt 0 view .LVU414
 1349 0000 2DE9F041 		push	{r4, r5, r6, r7, r8, lr}
 1350              	.LCFI18:
 1351              		.cfi_def_cfa_offset 24
 1352              		.cfi_offset 4, -24
 1353              		.cfi_offset 5, -20
 1354              		.cfi_offset 6, -16
 1355              		.cfi_offset 7, -12
 1356              		.cfi_offset 8, -8
 1357              		.cfi_offset 14, -4
 1358 0004 82B0     		sub	sp, sp, #8
 1359              	.LCFI19:
 1360              		.cfi_def_cfa_offset 32
 1361 0006 0646     		mov	r6, r0
 1362 0008 0F46     		mov	r7, r1
 1363 000a 9046     		mov	r8, r2
 1364 000c 1946     		mov	r1, r3
 1365              	.LVL168:
 463:SynaptiX_FDK/lib/tinyusb/src/common/tusb_fifo.c ****   uint16_t count = tu_ff_overflow_count(f->depth, wr_idx, rd_idx);
 1366              		.loc 1 463 76 view .LVU415
 1367 000e BDF82030 		ldrh	r3, [sp, #32]
 1368              	.LVL169:
ARM GAS  C:\Users\DELL\AppData\Local\Temp\ccaG9TDw.s 			page 52


 463:SynaptiX_FDK/lib/tinyusb/src/common/tusb_fifo.c ****   uint16_t count = tu_ff_overflow_count(f->depth, wr_idx, rd_idx);
 1369              		.loc 1 463 76 view .LVU416
 1370 0012 099C     		ldr	r4, [sp, #36]
 464:SynaptiX_FDK/lib/tinyusb/src/common/tusb_fifo.c ****   if (count == 0) {
 1371              		.loc 1 464 3 is_stmt 1 view .LVU417
 464:SynaptiX_FDK/lib/tinyusb/src/common/tusb_fifo.c ****   if (count == 0) {
 1372              		.loc 1 464 20 is_stmt 0 view .LVU418
 1373 0014 8288     		ldrh	r2, [r0, #4]
 1374              	.LVL170:
 1375              	.LBB135:
 1376              	.LBI135:
 262:SynaptiX_FDK/lib/tinyusb/src/common/tusb_fifo.h ****   const int32_t diff = (int32_t)wr_idx - (int32_t)rd_idx;
 1377              		.loc 2 262 46 is_stmt 1 view .LVU419
 1378              	.LBB136:
 263:SynaptiX_FDK/lib/tinyusb/src/common/tusb_fifo.h ****   if (diff >= 0) {
 1379              		.loc 2 263 3 view .LVU420
 263:SynaptiX_FDK/lib/tinyusb/src/common/tusb_fifo.h ****   if (diff >= 0) {
 1380              		.loc 2 263 17 is_stmt 0 view .LVU421
 1381 0016 C81A     		subs	r0, r1, r3
 1382              	.LVL171:
 264:SynaptiX_FDK/lib/tinyusb/src/common/tusb_fifo.h ****     return (uint16_t)diff;
 1383              		.loc 2 264 3 is_stmt 1 view .LVU422
 264:SynaptiX_FDK/lib/tinyusb/src/common/tusb_fifo.h ****     return (uint16_t)diff;
 1384              		.loc 2 264 6 is_stmt 0 view .LVU423
 1385 0018 0028     		cmp	r0, #0
 1386 001a 08DB     		blt	.L72
 265:SynaptiX_FDK/lib/tinyusb/src/common/tusb_fifo.h ****   } else {
 1387              		.loc 2 265 5 is_stmt 1 view .LVU424
 265:SynaptiX_FDK/lib/tinyusb/src/common/tusb_fifo.h ****   } else {
 1388              		.loc 2 265 12 is_stmt 0 view .LVU425
 1389 001c 85B2     		uxth	r5, r0
 1390              	.L73:
 1391              	.LVL172:
 265:SynaptiX_FDK/lib/tinyusb/src/common/tusb_fifo.h ****   } else {
 1392              		.loc 2 265 12 view .LVU426
 1393              	.LBE136:
 1394              	.LBE135:
 465:SynaptiX_FDK/lib/tinyusb/src/common/tusb_fifo.c ****     return 0; // nothing to peek
 1395              		.loc 1 465 3 is_stmt 1 view .LVU427
 465:SynaptiX_FDK/lib/tinyusb/src/common/tusb_fifo.c ****     return 0; // nothing to peek
 1396              		.loc 1 465 6 is_stmt 0 view .LVU428
 1397 001e E5B1     		cbz	r5, .L74
 470:SynaptiX_FDK/lib/tinyusb/src/common/tusb_fifo.c ****     rd_idx = correct_read_index(f, wr_idx);
 1398              		.loc 1 470 3 is_stmt 1 view .LVU429
 470:SynaptiX_FDK/lib/tinyusb/src/common/tusb_fifo.c ****     rd_idx = correct_read_index(f, wr_idx);
 1399              		.loc 1 470 6 is_stmt 0 view .LVU430
 1400 0020 AA42     		cmp	r2, r5
 1401 0022 09D3     		bcc	.L81
 1402              	.LVL173:
 1403              	.L75:
 475:SynaptiX_FDK/lib/tinyusb/src/common/tusb_fifo.c ****     n = count; // limit to available count
 1404              		.loc 1 475 3 is_stmt 1 view .LVU431
 475:SynaptiX_FDK/lib/tinyusb/src/common/tusb_fifo.c ****     n = count; // limit to available count
 1405              		.loc 1 475 6 is_stmt 0 view .LVU432
 1406 0024 4545     		cmp	r5, r8
 1407 0026 00D3     		bcc	.L76
 1408 0028 4546     		mov	r5, r8
ARM GAS  C:\Users\DELL\AppData\Local\Temp\ccaG9TDw.s 			page 53


 1409              	.LVL174:
 1410              	.L76:
 479:SynaptiX_FDK/lib/tinyusb/src/common/tusb_fifo.c **** 
 1411              		.loc 1 479 3 is_stmt 1 view .LVU433
 479:SynaptiX_FDK/lib/tinyusb/src/common/tusb_fifo.c **** 
 1412              		.loc 1 479 27 is_stmt 0 view .LVU434
 1413 002a B288     		ldrh	r2, [r6, #4]
 1414              	.LVL175:
 1415              	.LBB138:
 1416              	.LBI138:
 434:SynaptiX_FDK/lib/tinyusb/src/common/tusb_fifo.c ****   // Only run at most 3 times since index is limit in the range of [0..2*depth)
 1417              		.loc 1 434 46 is_stmt 1 view .LVU435
 1418              	.LBB139:
 436:SynaptiX_FDK/lib/tinyusb/src/common/tusb_fifo.c ****     idx -= depth;
 1419              		.loc 1 436 3 view .LVU436
 436:SynaptiX_FDK/lib/tinyusb/src/common/tusb_fifo.c ****     idx -= depth;
 1420              		.loc 1 436 9 is_stmt 0 view .LVU437
 1421 002c 0CE0     		b	.L77
 1422              	.LVL176:
 1423              	.L72:
 436:SynaptiX_FDK/lib/tinyusb/src/common/tusb_fifo.c ****     idx -= depth;
 1424              		.loc 1 436 9 view .LVU438
 1425              	.LBE139:
 1426              	.LBE138:
 1427              	.LBB141:
 1428              	.LBB137:
 1429              		.loc 2 267 5 is_stmt 1 view .LVU439
 1430              		.loc 2 267 12 is_stmt 0 view .LVU440
 1431 002e CD1A     		subs	r5, r1, r3
 1432 0030 05EB4205 		add	r5, r5, r2, lsl #1
 1433 0034 ADB2     		uxth	r5, r5
 1434 0036 F2E7     		b	.L73
 1435              	.LVL177:
 1436              	.L81:
 1437              		.loc 2 267 12 view .LVU441
 1438              	.LBE137:
 1439              	.LBE141:
 471:SynaptiX_FDK/lib/tinyusb/src/common/tusb_fifo.c ****     count  = f->depth;
 1440              		.loc 1 471 5 is_stmt 1 view .LVU442
 471:SynaptiX_FDK/lib/tinyusb/src/common/tusb_fifo.c ****     count  = f->depth;
 1441              		.loc 1 471 14 is_stmt 0 view .LVU443
 1442 0038 3046     		mov	r0, r6
 1443 003a FFF7FEFF 		bl	correct_read_index
 1444              	.LVL178:
 1445 003e 0346     		mov	r3, r0
 1446              	.LVL179:
 472:SynaptiX_FDK/lib/tinyusb/src/common/tusb_fifo.c ****   }
 1447              		.loc 1 472 5 is_stmt 1 view .LVU444
 472:SynaptiX_FDK/lib/tinyusb/src/common/tusb_fifo.c ****   }
 1448              		.loc 1 472 12 is_stmt 0 view .LVU445
 1449 0040 B588     		ldrh	r5, [r6, #4]
 1450              	.LVL180:
 472:SynaptiX_FDK/lib/tinyusb/src/common/tusb_fifo.c ****   }
 1451              		.loc 1 472 12 view .LVU446
 1452 0042 EFE7     		b	.L75
 1453              	.LVL181:
 1454              	.L78:
ARM GAS  C:\Users\DELL\AppData\Local\Temp\ccaG9TDw.s 			page 54


 1455              	.LBB142:
 1456              	.LBB140:
 437:SynaptiX_FDK/lib/tinyusb/src/common/tusb_fifo.c ****   }
 1457              		.loc 1 437 5 is_stmt 1 view .LVU447
 437:SynaptiX_FDK/lib/tinyusb/src/common/tusb_fifo.c ****   }
 1458              		.loc 1 437 9 is_stmt 0 view .LVU448
 1459 0044 9B1A     		subs	r3, r3, r2
 1460              	.LVL182:
 437:SynaptiX_FDK/lib/tinyusb/src/common/tusb_fifo.c ****   }
 1461              		.loc 1 437 9 view .LVU449
 1462 0046 9BB2     		uxth	r3, r3
 1463              	.LVL183:
 1464              	.L77:
 436:SynaptiX_FDK/lib/tinyusb/src/common/tusb_fifo.c ****     idx -= depth;
 1465              		.loc 1 436 14 is_stmt 1 view .LVU450
 1466 0048 9A42     		cmp	r2, r3
 1467 004a FBD9     		bls	.L78
 439:SynaptiX_FDK/lib/tinyusb/src/common/tusb_fifo.c **** }
 1468              		.loc 1 439 3 view .LVU451
 1469              	.LVL184:
 439:SynaptiX_FDK/lib/tinyusb/src/common/tusb_fifo.c **** }
 1470              		.loc 1 439 3 is_stmt 0 view .LVU452
 1471              	.LBE140:
 1472              	.LBE142:
 482:SynaptiX_FDK/lib/tinyusb/src/common/tusb_fifo.c ****     hwff_pull_n(f, p_buffer, n, rd_ptr, access_mode);
 1473              		.loc 1 482 3 is_stmt 1 view .LVU453
 482:SynaptiX_FDK/lib/tinyusb/src/common/tusb_fifo.c ****     hwff_pull_n(f, p_buffer, n, rd_ptr, access_mode);
 1474              		.loc 1 482 6 is_stmt 0 view .LVU454
 1475 004c 4CB1     		cbz	r4, .L79
 483:SynaptiX_FDK/lib/tinyusb/src/common/tusb_fifo.c ****   } else
 1476              		.loc 1 483 5 is_stmt 1 view .LVU455
 1477 004e 0094     		str	r4, [sp]
 1478 0050 2A46     		mov	r2, r5
 1479 0052 3946     		mov	r1, r7
 1480 0054 3046     		mov	r0, r6
 1481 0056 FFF7FEFF 		bl	hwff_pull_n
 1482              	.LVL185:
 1483              	.L74:
 492:SynaptiX_FDK/lib/tinyusb/src/common/tusb_fifo.c **** 
 1484              		.loc 1 492 1 is_stmt 0 view .LVU456
 1485 005a 2846     		mov	r0, r5
 1486 005c 02B0     		add	sp, sp, #8
 1487              	.LCFI20:
 1488              		.cfi_remember_state
 1489              		.cfi_def_cfa_offset 24
 1490              		@ sp needed
 1491 005e BDE8F081 		pop	{r4, r5, r6, r7, r8, pc}
 1492              	.LVL186:
 1493              	.L79:
 1494              	.LCFI21:
 1495              		.cfi_restore_state
 487:SynaptiX_FDK/lib/tinyusb/src/common/tusb_fifo.c ****     ff_pull_n(f, p_buffer, n, rd_ptr);
 1496              		.loc 1 487 5 is_stmt 1 view .LVU457
 488:SynaptiX_FDK/lib/tinyusb/src/common/tusb_fifo.c ****   }
 1497              		.loc 1 488 5 view .LVU458
 1498 0062 2A46     		mov	r2, r5
 1499 0064 3946     		mov	r1, r7
ARM GAS  C:\Users\DELL\AppData\Local\Temp\ccaG9TDw.s 			page 55


 1500 0066 3046     		mov	r0, r6
 1501 0068 FFF7FEFF 		bl	ff_pull_n
 1502              	.LVL187:
 488:SynaptiX_FDK/lib/tinyusb/src/common/tusb_fifo.c ****   }
 1503              		.loc 1 488 5 is_stmt 0 view .LVU459
 1504 006c F5E7     		b	.L74
 1505              		.cfi_endproc
 1506              	.LFE422:
 1508              		.section	.text.tu_fifo_peek_n,"ax",%progbits
 1509              		.align	1
 1510              		.global	tu_fifo_peek_n
 1511              		.syntax unified
 1512              		.thumb
 1513              		.thumb_func
 1515              	tu_fifo_peek_n:
 1516              	.LVL188:
 1517              	.LFB423:
 495:SynaptiX_FDK/lib/tinyusb/src/common/tusb_fifo.c ****   ff_lock(f->mutex_rd);
 1518              		.loc 1 495 67 is_stmt 1 view -0
 1519              		.cfi_startproc
 1520              		@ args = 0, pretend = 0, frame = 0
 1521              		@ frame_needed = 0, uses_anonymous_args = 0
 495:SynaptiX_FDK/lib/tinyusb/src/common/tusb_fifo.c ****   ff_lock(f->mutex_rd);
 1522              		.loc 1 495 67 is_stmt 0 view .LVU461
 1523 0000 30B5     		push	{r4, r5, lr}
 1524              	.LCFI22:
 1525              		.cfi_def_cfa_offset 12
 1526              		.cfi_offset 4, -12
 1527              		.cfi_offset 5, -8
 1528              		.cfi_offset 14, -4
 1529 0002 83B0     		sub	sp, sp, #12
 1530              	.LCFI23:
 1531              		.cfi_def_cfa_offset 24
 496:SynaptiX_FDK/lib/tinyusb/src/common/tusb_fifo.c ****   const uint16_t wr_idx = f->wr_idx;
 1532              		.loc 1 496 23 is_stmt 1 view .LVU462
 497:SynaptiX_FDK/lib/tinyusb/src/common/tusb_fifo.c ****   const uint16_t rd_idx = f->rd_idx;
 1533              		.loc 1 497 3 view .LVU463
 497:SynaptiX_FDK/lib/tinyusb/src/common/tusb_fifo.c ****   const uint16_t rd_idx = f->rd_idx;
 1534              		.loc 1 497 18 is_stmt 0 view .LVU464
 1535 0004 0389     		ldrh	r3, [r0, #8]
 1536              	.LVL189:
 498:SynaptiX_FDK/lib/tinyusb/src/common/tusb_fifo.c ****   const uint16_t ret = tu_fifo_peek_n_access_mode(f, p_buffer, n, wr_idx, rd_idx, NULL);
 1537              		.loc 1 498 3 is_stmt 1 view .LVU465
 498:SynaptiX_FDK/lib/tinyusb/src/common/tusb_fifo.c ****   const uint16_t ret = tu_fifo_peek_n_access_mode(f, p_buffer, n, wr_idx, rd_idx, NULL);
 1538              		.loc 1 498 18 is_stmt 0 view .LVU466
 1539 0006 4489     		ldrh	r4, [r0, #10]
 1540 0008 A4B2     		uxth	r4, r4
 1541              	.LVL190:
 499:SynaptiX_FDK/lib/tinyusb/src/common/tusb_fifo.c ****   ff_unlock(f->mutex_rd);
 1542              		.loc 1 499 3 is_stmt 1 view .LVU467
 499:SynaptiX_FDK/lib/tinyusb/src/common/tusb_fifo.c ****   ff_unlock(f->mutex_rd);
 1543              		.loc 1 499 24 is_stmt 0 view .LVU468
 1544 000a 0025     		movs	r5, #0
 1545 000c 0195     		str	r5, [sp, #4]
 1546 000e 0094     		str	r4, [sp]
 1547 0010 9BB2     		uxth	r3, r3
 499:SynaptiX_FDK/lib/tinyusb/src/common/tusb_fifo.c ****   ff_unlock(f->mutex_rd);
ARM GAS  C:\Users\DELL\AppData\Local\Temp\ccaG9TDw.s 			page 56


 1548              		.loc 1 499 24 view .LVU469
 1549 0012 FFF7FEFF 		bl	tu_fifo_peek_n_access_mode
 1550              	.LVL191:
 500:SynaptiX_FDK/lib/tinyusb/src/common/tusb_fifo.c ****   return ret;
 1551              		.loc 1 500 25 is_stmt 1 view .LVU470
 501:SynaptiX_FDK/lib/tinyusb/src/common/tusb_fifo.c **** }
 1552              		.loc 1 501 3 view .LVU471
 502:SynaptiX_FDK/lib/tinyusb/src/common/tusb_fifo.c **** 
 1553              		.loc 1 502 1 is_stmt 0 view .LVU472
 1554 0016 03B0     		add	sp, sp, #12
 1555              	.LCFI24:
 1556              		.cfi_def_cfa_offset 12
 1557              		@ sp needed
 1558 0018 30BD     		pop	{r4, r5, pc}
 502:SynaptiX_FDK/lib/tinyusb/src/common/tusb_fifo.c **** 
 1559              		.loc 1 502 1 view .LVU473
 1560              		.cfi_endproc
 1561              	.LFE423:
 1563              		.section	.text.tu_fifo_read_n_access_mode,"ax",%progbits
 1564              		.align	1
 1565              		.global	tu_fifo_read_n_access_mode
 1566              		.syntax unified
 1567              		.thumb
 1568              		.thumb_func
 1570              	tu_fifo_read_n_access_mode:
 1571              	.LVL192:
 1572              	.LFB424:
 505:SynaptiX_FDK/lib/tinyusb/src/common/tusb_fifo.c ****   ff_lock(f->mutex_rd);
 1573              		.loc 1 505 116 is_stmt 1 view -0
 1574              		.cfi_startproc
 1575              		@ args = 0, pretend = 0, frame = 0
 1576              		@ frame_needed = 0, uses_anonymous_args = 0
 505:SynaptiX_FDK/lib/tinyusb/src/common/tusb_fifo.c ****   ff_lock(f->mutex_rd);
 1577              		.loc 1 505 116 is_stmt 0 view .LVU475
 1578 0000 30B5     		push	{r4, r5, lr}
 1579              	.LCFI25:
 1580              		.cfi_def_cfa_offset 12
 1581              		.cfi_offset 4, -12
 1582              		.cfi_offset 5, -8
 1583              		.cfi_offset 14, -4
 1584 0002 83B0     		sub	sp, sp, #12
 1585              	.LCFI26:
 1586              		.cfi_def_cfa_offset 24
 1587 0004 0446     		mov	r4, r0
 506:SynaptiX_FDK/lib/tinyusb/src/common/tusb_fifo.c **** 
 1588              		.loc 1 506 23 is_stmt 1 view .LVU476
 509:SynaptiX_FDK/lib/tinyusb/src/common/tusb_fifo.c ****   n         = tu_fifo_peek_n_access_mode(f, buffer, n, wr_idx, f->rd_idx, access_mode);
 1589              		.loc 1 509 3 view .LVU477
 509:SynaptiX_FDK/lib/tinyusb/src/common/tusb_fifo.c ****   n         = tu_fifo_peek_n_access_mode(f, buffer, n, wr_idx, f->rd_idx, access_mode);
 1590              		.loc 1 509 18 is_stmt 0 view .LVU478
 1591 0006 B0F808C0 		ldrh	ip, [r0, #8]
 1592              	.LVL193:
 510:SynaptiX_FDK/lib/tinyusb/src/common/tusb_fifo.c ****   f->rd_idx = advance_index(f->depth, f->rd_idx, n);
 1593              		.loc 1 510 3 is_stmt 1 view .LVU479
 510:SynaptiX_FDK/lib/tinyusb/src/common/tusb_fifo.c ****   f->rd_idx = advance_index(f->depth, f->rd_idx, n);
 1594              		.loc 1 510 65 is_stmt 0 view .LVU480
 1595 000a 4589     		ldrh	r5, [r0, #10]
ARM GAS  C:\Users\DELL\AppData\Local\Temp\ccaG9TDw.s 			page 57


 1596 000c ADB2     		uxth	r5, r5
 510:SynaptiX_FDK/lib/tinyusb/src/common/tusb_fifo.c ****   f->rd_idx = advance_index(f->depth, f->rd_idx, n);
 1597              		.loc 1 510 15 view .LVU481
 1598 000e 0193     		str	r3, [sp, #4]
 1599 0010 0095     		str	r5, [sp]
 1600 0012 1FFA8CF3 		uxth	r3, ip
 1601              	.LVL194:
 510:SynaptiX_FDK/lib/tinyusb/src/common/tusb_fifo.c ****   f->rd_idx = advance_index(f->depth, f->rd_idx, n);
 1602              		.loc 1 510 15 view .LVU482
 1603 0016 FFF7FEFF 		bl	tu_fifo_peek_n_access_mode
 1604              	.LVL195:
 510:SynaptiX_FDK/lib/tinyusb/src/common/tusb_fifo.c ****   f->rd_idx = advance_index(f->depth, f->rd_idx, n);
 1605              		.loc 1 510 15 view .LVU483
 1606 001a 0546     		mov	r5, r0
 1607              	.LVL196:
 511:SynaptiX_FDK/lib/tinyusb/src/common/tusb_fifo.c **** 
 1608              		.loc 1 511 3 is_stmt 1 view .LVU484
 511:SynaptiX_FDK/lib/tinyusb/src/common/tusb_fifo.c **** 
 1609              		.loc 1 511 40 is_stmt 0 view .LVU485
 1610 001c 6189     		ldrh	r1, [r4, #10]
 511:SynaptiX_FDK/lib/tinyusb/src/common/tusb_fifo.c **** 
 1611              		.loc 1 511 15 view .LVU486
 1612 001e 0246     		mov	r2, r0
 1613 0020 89B2     		uxth	r1, r1
 1614 0022 A088     		ldrh	r0, [r4, #4]
 1615              	.LVL197:
 511:SynaptiX_FDK/lib/tinyusb/src/common/tusb_fifo.c **** 
 1616              		.loc 1 511 15 view .LVU487
 1617 0024 FFF7FEFF 		bl	advance_index
 1618              	.LVL198:
 511:SynaptiX_FDK/lib/tinyusb/src/common/tusb_fifo.c **** 
 1619              		.loc 1 511 13 discriminator 1 view .LVU488
 1620 0028 6081     		strh	r0, [r4, #10]	@ movhi
 513:SynaptiX_FDK/lib/tinyusb/src/common/tusb_fifo.c ****   return n;
 1621              		.loc 1 513 25 is_stmt 1 view .LVU489
 514:SynaptiX_FDK/lib/tinyusb/src/common/tusb_fifo.c **** }
 1622              		.loc 1 514 3 view .LVU490
 515:SynaptiX_FDK/lib/tinyusb/src/common/tusb_fifo.c **** 
 1623              		.loc 1 515 1 is_stmt 0 view .LVU491
 1624 002a 2846     		mov	r0, r5
 1625 002c 03B0     		add	sp, sp, #12
 1626              	.LCFI27:
 1627              		.cfi_def_cfa_offset 12
 1628              		@ sp needed
 1629 002e 30BD     		pop	{r4, r5, pc}
 515:SynaptiX_FDK/lib/tinyusb/src/common/tusb_fifo.c **** 
 1630              		.loc 1 515 1 view .LVU492
 1631              		.cfi_endproc
 1632              	.LFE424:
 1634              		.section	.text.tu_fifo_write_n_access_mode,"ax",%progbits
 1635              		.align	1
 1636              		.global	tu_fifo_write_n_access_mode
 1637              		.syntax unified
 1638              		.thumb
 1639              		.thumb_func
 1641              	tu_fifo_write_n_access_mode:
 1642              	.LVL199:
ARM GAS  C:\Users\DELL\AppData\Local\Temp\ccaG9TDw.s 			page 58


 1643              	.LFB425:
 519:SynaptiX_FDK/lib/tinyusb/src/common/tusb_fifo.c ****   if (n == 0) {
 1644              		.loc 1 519 77 is_stmt 1 view -0
 1645              		.cfi_startproc
 1646              		@ args = 0, pretend = 0, frame = 0
 1647              		@ frame_needed = 0, uses_anonymous_args = 0
 519:SynaptiX_FDK/lib/tinyusb/src/common/tusb_fifo.c ****   if (n == 0) {
 1648              		.loc 1 519 77 is_stmt 0 view .LVU494
 1649 0000 2DE9F043 		push	{r4, r5, r6, r7, r8, r9, lr}
 1650              	.LCFI28:
 1651              		.cfi_def_cfa_offset 28
 1652              		.cfi_offset 4, -28
 1653              		.cfi_offset 5, -24
 1654              		.cfi_offset 6, -20
 1655              		.cfi_offset 7, -16
 1656              		.cfi_offset 8, -12
 1657              		.cfi_offset 9, -8
 1658              		.cfi_offset 14, -4
 1659 0004 83B0     		sub	sp, sp, #12
 1660              	.LCFI29:
 1661              		.cfi_def_cfa_offset 40
 520:SynaptiX_FDK/lib/tinyusb/src/common/tusb_fifo.c ****     return 0;
 1662              		.loc 1 520 3 is_stmt 1 view .LVU495
 520:SynaptiX_FDK/lib/tinyusb/src/common/tusb_fifo.c ****     return 0;
 1663              		.loc 1 520 6 is_stmt 0 view .LVU496
 1664 0006 9146     		mov	r9, r2
 1665 0008 002A     		cmp	r2, #0
 1666 000a 5FD0     		beq	.L99
 1667 000c 0446     		mov	r4, r0
 1668 000e 8846     		mov	r8, r1
 1669 0010 1F46     		mov	r7, r3
 524:SynaptiX_FDK/lib/tinyusb/src/common/tusb_fifo.c **** 
 1670              		.loc 1 524 23 is_stmt 1 view .LVU497
 526:SynaptiX_FDK/lib/tinyusb/src/common/tusb_fifo.c ****   uint16_t rd_idx = f->rd_idx;
 1671              		.loc 1 526 3 view .LVU498
 526:SynaptiX_FDK/lib/tinyusb/src/common/tusb_fifo.c ****   uint16_t rd_idx = f->rd_idx;
 1672              		.loc 1 526 12 is_stmt 0 view .LVU499
 1673 0012 0689     		ldrh	r6, [r0, #8]
 1674 0014 B6B2     		uxth	r6, r6
 1675              	.LVL200:
 527:SynaptiX_FDK/lib/tinyusb/src/common/tusb_fifo.c **** 
 1676              		.loc 1 527 3 is_stmt 1 view .LVU500
 527:SynaptiX_FDK/lib/tinyusb/src/common/tusb_fifo.c **** 
 1677              		.loc 1 527 12 is_stmt 0 view .LVU501
 1678 0016 B0F80AC0 		ldrh	ip, [r0, #10]
 1679 001a 1FFA8CF1 		uxth	r1, ip
 1680              	.LVL201:
 529:SynaptiX_FDK/lib/tinyusb/src/common/tusb_fifo.c **** 
 1681              		.loc 1 529 3 is_stmt 1 view .LVU502
 532:SynaptiX_FDK/lib/tinyusb/src/common/tusb_fifo.c **** 
 1682              		.loc 1 532 109 view .LVU503
 534:SynaptiX_FDK/lib/tinyusb/src/common/tusb_fifo.c ****     // limit up to full
 1683              		.loc 1 534 3 view .LVU504
 534:SynaptiX_FDK/lib/tinyusb/src/common/tusb_fifo.c ****     // limit up to full
 1684              		.loc 1 534 9 is_stmt 0 view .LVU505
 1685 001e 8379     		ldrb	r3, [r0, #6]	@ zero_extendqisi2
 1686              	.LVL202:
ARM GAS  C:\Users\DELL\AppData\Local\Temp\ccaG9TDw.s 			page 59


 534:SynaptiX_FDK/lib/tinyusb/src/common/tusb_fifo.c ****     // limit up to full
 1687              		.loc 1 534 6 view .LVU506
 1688 0020 CBB9     		cbnz	r3, .L88
 1689              	.LBB143:
 536:SynaptiX_FDK/lib/tinyusb/src/common/tusb_fifo.c ****     n                     = tu_min16(n, remain);
 1690              		.loc 1 536 5 is_stmt 1 view .LVU507
 536:SynaptiX_FDK/lib/tinyusb/src/common/tusb_fifo.c ****     n                     = tu_min16(n, remain);
 1691              		.loc 1 536 29 is_stmt 0 view .LVU508
 1692 0022 8588     		ldrh	r5, [r0, #4]
 1693              	.LVL203:
 1694              	.LBB144:
 1695              	.LBI144:
 268:SynaptiX_FDK/lib/tinyusb/src/common/tusb_fifo.h ****   }
 269:SynaptiX_FDK/lib/tinyusb/src/common/tusb_fifo.h **** }
 270:SynaptiX_FDK/lib/tinyusb/src/common/tusb_fifo.h **** 
 271:SynaptiX_FDK/lib/tinyusb/src/common/tusb_fifo.h **** // return remaining slot in fifo
 272:SynaptiX_FDK/lib/tinyusb/src/common/tusb_fifo.h **** TU_ATTR_ALWAYS_INLINE static inline uint16_t tu_ff_remaining_local(uint16_t depth, uint16_t wr_idx,
 1696              		.loc 2 272 46 is_stmt 1 view .LVU509
 1697              	.LBB145:
 273:SynaptiX_FDK/lib/tinyusb/src/common/tusb_fifo.h ****   const uint16_t ovf_count = tu_ff_overflow_count(depth, wr_idx, rd_idx);
 1698              		.loc 2 273 3 view .LVU510
 1699              	.LBB146:
 1700              	.LBI146:
 262:SynaptiX_FDK/lib/tinyusb/src/common/tusb_fifo.h ****   const int32_t diff = (int32_t)wr_idx - (int32_t)rd_idx;
 1701              		.loc 2 262 46 view .LVU511
 1702              	.LBB147:
 263:SynaptiX_FDK/lib/tinyusb/src/common/tusb_fifo.h ****   if (diff >= 0) {
 1703              		.loc 2 263 3 view .LVU512
 263:SynaptiX_FDK/lib/tinyusb/src/common/tusb_fifo.h ****   if (diff >= 0) {
 1704              		.loc 2 263 17 is_stmt 0 view .LVU513
 1705 0024 731A     		subs	r3, r6, r1
 1706              	.LVL204:
 264:SynaptiX_FDK/lib/tinyusb/src/common/tusb_fifo.h ****     return (uint16_t)diff;
 1707              		.loc 2 264 3 is_stmt 1 view .LVU514
 264:SynaptiX_FDK/lib/tinyusb/src/common/tusb_fifo.h ****     return (uint16_t)diff;
 1708              		.loc 2 264 6 is_stmt 0 view .LVU515
 1709 0026 002B     		cmp	r3, #0
 1710 0028 0EDB     		blt	.L89
 265:SynaptiX_FDK/lib/tinyusb/src/common/tusb_fifo.h ****   } else {
 1711              		.loc 2 265 5 is_stmt 1 view .LVU516
 265:SynaptiX_FDK/lib/tinyusb/src/common/tusb_fifo.h ****   } else {
 1712              		.loc 2 265 12 is_stmt 0 view .LVU517
 1713 002a 1FFA83FC 		uxth	ip, r3
 1714              	.L90:
 1715              	.LVL205:
 265:SynaptiX_FDK/lib/tinyusb/src/common/tusb_fifo.h ****   } else {
 1716              		.loc 2 265 12 view .LVU518
 1717              	.LBE147:
 1718              	.LBE146:
 274:SynaptiX_FDK/lib/tinyusb/src/common/tusb_fifo.h ****   return (depth > ovf_count) ? (depth - ovf_count) : 0;
 1719              		.loc 2 274 3 is_stmt 1 view .LVU519
 1720              		.loc 2 274 52 is_stmt 0 view .LVU520
 1721 002e 6545     		cmp	r5, ip
 1722 0030 51D9     		bls	.L100
 1723              		.loc 2 274 52 discriminator 1 view .LVU521
 1724 0032 A5EB0C05 		sub	r5, r5, ip
 1725              	.LVL206:
ARM GAS  C:\Users\DELL\AppData\Local\Temp\ccaG9TDw.s 			page 60


 1726              		.loc 2 274 52 discriminator 1 view .LVU522
 1727 0036 ADB2     		uxth	r5, r5
 1728              	.LVL207:
 1729              		.loc 2 274 52 discriminator 1 view .LVU523
 1730              	.LBE145:
 1731              	.LBE144:
 537:SynaptiX_FDK/lib/tinyusb/src/common/tusb_fifo.c ****   } else {
 1732              		.loc 1 537 5 is_stmt 1 view .LVU524
 1733              	.LBB151:
 1734              	.LBI151:
 206:SynaptiX_FDK/lib/tinyusb/src/common/tusb_common.h **** TU_ATTR_ALWAYS_INLINE static inline uint32_t tu_min32 (uint32_t x, uint32_t y) { return (x < y) ? x
 1735              		.loc 3 206 46 view .LVU525
 1736              	.LBB152:
 206:SynaptiX_FDK/lib/tinyusb/src/common/tusb_common.h **** TU_ATTR_ALWAYS_INLINE static inline uint32_t tu_min32 (uint32_t x, uint32_t y) { return (x < y) ? x
 1737              		.loc 3 206 82 view .LVU526
 206:SynaptiX_FDK/lib/tinyusb/src/common/tusb_common.h **** TU_ATTR_ALWAYS_INLINE static inline uint32_t tu_min32 (uint32_t x, uint32_t y) { return (x < y) ? x
 1738              		.loc 3 206 101 is_stmt 0 view .LVU527
 1739 0038 4D45     		cmp	r5, r9
 1740 003a 28BF     		it	cs
 1741 003c 4D46     		movcs	r5, r9
 1742              	.LVL208:
 1743              	.L91:
 206:SynaptiX_FDK/lib/tinyusb/src/common/tusb_common.h **** TU_ATTR_ALWAYS_INLINE static inline uint32_t tu_min32 (uint32_t x, uint32_t y) { return (x < y) ? x
 1744              		.loc 3 206 101 view .LVU528
 1745              	.LBE152:
 1746              	.LBE151:
 1747              	.LBE143:
 1748              	.LBB154:
 573:SynaptiX_FDK/lib/tinyusb/src/common/tusb_fifo.c ****     }
 1749              		.loc 1 573 7 is_stmt 1 view .LVU529
 1750              	.LBE154:
 577:SynaptiX_FDK/lib/tinyusb/src/common/tusb_fifo.c ****     const uint16_t wr_ptr = idx2ptr(f->depth, wr_idx);
 1751              		.loc 1 577 3 view .LVU530
 577:SynaptiX_FDK/lib/tinyusb/src/common/tusb_fifo.c ****     const uint16_t wr_ptr = idx2ptr(f->depth, wr_idx);
 1752              		.loc 1 577 6 is_stmt 0 view .LVU531
 1753 003e 002D     		cmp	r5, #0
 1754 0040 45D0     		beq	.L87
 1755              	.LBB159:
 578:SynaptiX_FDK/lib/tinyusb/src/common/tusb_fifo.c ****     TU_LOG(TU_FIFO_DBG, "actual_n = %u, wr_ptr = %u", n, wr_ptr);
 1756              		.loc 1 578 5 is_stmt 1 view .LVU532
 578:SynaptiX_FDK/lib/tinyusb/src/common/tusb_fifo.c ****     TU_LOG(TU_FIFO_DBG, "actual_n = %u, wr_ptr = %u", n, wr_ptr);
 1757              		.loc 1 578 29 is_stmt 0 view .LVU533
 1758 0042 A288     		ldrh	r2, [r4, #4]
 1759              	.LVL209:
 1760              	.LBB160:
 1761              	.LBI160:
 434:SynaptiX_FDK/lib/tinyusb/src/common/tusb_fifo.c ****   // Only run at most 3 times since index is limit in the range of [0..2*depth)
 1762              		.loc 1 434 46 is_stmt 1 view .LVU534
 1763              	.LBB161:
 436:SynaptiX_FDK/lib/tinyusb/src/common/tusb_fifo.c ****     idx -= depth;
 1764              		.loc 1 436 3 view .LVU535
 436:SynaptiX_FDK/lib/tinyusb/src/common/tusb_fifo.c ****     idx -= depth;
 1765              		.loc 1 436 9 is_stmt 0 view .LVU536
 1766 0044 3346     		mov	r3, r6
 1767 0046 2BE0     		b	.L95
 1768              	.LVL210:
 1769              	.L89:
ARM GAS  C:\Users\DELL\AppData\Local\Temp\ccaG9TDw.s 			page 61


 436:SynaptiX_FDK/lib/tinyusb/src/common/tusb_fifo.c ****     idx -= depth;
 1770              		.loc 1 436 9 view .LVU537
 1771              	.LBE161:
 1772              	.LBE160:
 1773              	.LBE159:
 1774              	.LBB164:
 1775              	.LBB153:
 1776              	.LBB150:
 1777              	.LBB149:
 1778              	.LBB148:
 267:SynaptiX_FDK/lib/tinyusb/src/common/tusb_fifo.h ****   }
 1779              		.loc 2 267 5 is_stmt 1 view .LVU538
 267:SynaptiX_FDK/lib/tinyusb/src/common/tusb_fifo.h ****   }
 1780              		.loc 2 267 12 is_stmt 0 view .LVU539
 1781 0048 A6EB010C 		sub	ip, r6, r1
 1782 004c 0CEB450C 		add	ip, ip, r5, lsl #1
 1783 0050 1FFA8CFC 		uxth	ip, ip
 1784 0054 EBE7     		b	.L90
 1785              	.LVL211:
 1786              	.L88:
 267:SynaptiX_FDK/lib/tinyusb/src/common/tusb_fifo.h ****   }
 1787              		.loc 2 267 12 view .LVU540
 1788              	.LBE148:
 1789              	.LBE149:
 1790              	.LBE150:
 1791              	.LBE153:
 1792              	.LBE164:
 543:SynaptiX_FDK/lib/tinyusb/src/common/tusb_fifo.c ****       // Only copy last part
 1793              		.loc 1 543 5 is_stmt 1 view .LVU541
 543:SynaptiX_FDK/lib/tinyusb/src/common/tusb_fifo.c ****       // Only copy last part
 1794              		.loc 1 543 15 is_stmt 0 view .LVU542
 1795 0056 8588     		ldrh	r5, [r0, #4]
 543:SynaptiX_FDK/lib/tinyusb/src/common/tusb_fifo.c ****       // Only copy last part
 1796              		.loc 1 543 8 view .LVU543
 1797 0058 9542     		cmp	r5, r2
 1798 005a 07D8     		bhi	.L92
 545:SynaptiX_FDK/lib/tinyusb/src/common/tusb_fifo.c ****         buf8 += (n - f->depth);
 1799              		.loc 1 545 7 is_stmt 1 view .LVU544
 545:SynaptiX_FDK/lib/tinyusb/src/common/tusb_fifo.c ****         buf8 += (n - f->depth);
 1800              		.loc 1 545 10 is_stmt 0 view .LVU545
 1801 005c 0FB1     		cbz	r7, .L104
 555:SynaptiX_FDK/lib/tinyusb/src/common/tusb_fifo.c ****     } else {
 1802              		.loc 1 555 14 view .LVU546
 1803 005e 0E46     		mov	r6, r1
 1804              	.LVL212:
 555:SynaptiX_FDK/lib/tinyusb/src/common/tusb_fifo.c ****     } else {
 1805              		.loc 1 555 14 view .LVU547
 1806 0060 EDE7     		b	.L91
 1807              	.LVL213:
 1808              	.L104:
 546:SynaptiX_FDK/lib/tinyusb/src/common/tusb_fifo.c ****       } else {
 1809              		.loc 1 546 9 is_stmt 1 view .LVU548
 546:SynaptiX_FDK/lib/tinyusb/src/common/tusb_fifo.c ****       } else {
 1810              		.loc 1 546 20 is_stmt 0 view .LVU549
 1811 0062 A2EB0509 		sub	r9, r2, r5
 546:SynaptiX_FDK/lib/tinyusb/src/common/tusb_fifo.c ****       } else {
 1812              		.loc 1 546 14 view .LVU550
ARM GAS  C:\Users\DELL\AppData\Local\Temp\ccaG9TDw.s 			page 62


 1813 0066 C844     		add	r8, r8, r9
 1814              	.LVL214:
 555:SynaptiX_FDK/lib/tinyusb/src/common/tusb_fifo.c ****     } else {
 1815              		.loc 1 555 14 view .LVU551
 1816 0068 0E46     		mov	r6, r1
 1817              	.LVL215:
 555:SynaptiX_FDK/lib/tinyusb/src/common/tusb_fifo.c ****     } else {
 1818              		.loc 1 555 14 view .LVU552
 1819 006a E8E7     		b	.L91
 1820              	.LVL216:
 1821              	.L92:
 1822              	.LBB165:
 557:SynaptiX_FDK/lib/tinyusb/src/common/tusb_fifo.c ****       if (overflowable_count + n >= 2 * f->depth) {
 1823              		.loc 1 557 7 is_stmt 1 view .LVU553
 1824              	.LBB155:
 1825              	.LBI155:
 262:SynaptiX_FDK/lib/tinyusb/src/common/tusb_fifo.h ****   const int32_t diff = (int32_t)wr_idx - (int32_t)rd_idx;
 1826              		.loc 2 262 46 view .LVU554
 1827              	.LBB156:
 263:SynaptiX_FDK/lib/tinyusb/src/common/tusb_fifo.h ****   if (diff >= 0) {
 1828              		.loc 2 263 3 view .LVU555
 263:SynaptiX_FDK/lib/tinyusb/src/common/tusb_fifo.h ****   if (diff >= 0) {
 1829              		.loc 2 263 17 is_stmt 0 view .LVU556
 1830 006c 731A     		subs	r3, r6, r1
 1831              	.LVL217:
 264:SynaptiX_FDK/lib/tinyusb/src/common/tusb_fifo.h ****     return (uint16_t)diff;
 1832              		.loc 2 264 3 is_stmt 1 view .LVU557
 264:SynaptiX_FDK/lib/tinyusb/src/common/tusb_fifo.h ****     return (uint16_t)diff;
 1833              		.loc 2 264 6 is_stmt 0 view .LVU558
 1834 006e 002B     		cmp	r3, #0
 1835 0070 0DDB     		blt	.L93
 265:SynaptiX_FDK/lib/tinyusb/src/common/tusb_fifo.h ****   } else {
 1836              		.loc 2 265 5 is_stmt 1 view .LVU559
 265:SynaptiX_FDK/lib/tinyusb/src/common/tusb_fifo.h ****   } else {
 1837              		.loc 2 265 12 is_stmt 0 view .LVU560
 1838 0072 9BB2     		uxth	r3, r3
 1839              	.LVL218:
 1840              	.L94:
 265:SynaptiX_FDK/lib/tinyusb/src/common/tusb_fifo.h ****   } else {
 1841              		.loc 2 265 12 view .LVU561
 1842              	.LBE156:
 1843              	.LBE155:
 558:SynaptiX_FDK/lib/tinyusb/src/common/tusb_fifo.c ****         // Double overflowed
 1844              		.loc 1 558 7 is_stmt 1 view .LVU562
 558:SynaptiX_FDK/lib/tinyusb/src/common/tusb_fifo.c ****         // Double overflowed
 1845              		.loc 1 558 30 is_stmt 0 view .LVU563
 1846 0074 4B44     		add	r3, r3, r9
 1847              	.LVL219:
 558:SynaptiX_FDK/lib/tinyusb/src/common/tusb_fifo.c ****         // Double overflowed
 1848              		.loc 1 558 10 view .LVU564
 1849 0076 B3EB450F 		cmp	r3, r5, lsl #1
 1850 007a 0DDB     		blt	.L102
 562:SynaptiX_FDK/lib/tinyusb/src/common/tusb_fifo.c **** 
 1851              		.loc 1 562 9 is_stmt 1 view .LVU565
 562:SynaptiX_FDK/lib/tinyusb/src/common/tusb_fifo.c **** 
 1852              		.loc 1 562 18 is_stmt 0 view .LVU566
 1853 007c A5EB0902 		sub	r2, r5, r9
ARM GAS  C:\Users\DELL\AppData\Local\Temp\ccaG9TDw.s 			page 63


 1854              	.LVL220:
 562:SynaptiX_FDK/lib/tinyusb/src/common/tusb_fifo.c **** 
 1855              		.loc 1 562 18 view .LVU567
 1856 0080 92B2     		uxth	r2, r2
 1857 0082 2846     		mov	r0, r5
 1858              	.LVL221:
 562:SynaptiX_FDK/lib/tinyusb/src/common/tusb_fifo.c **** 
 1859              		.loc 1 562 18 view .LVU568
 1860 0084 FFF7FEFF 		bl	advance_index
 1861              	.LVL222:
 562:SynaptiX_FDK/lib/tinyusb/src/common/tusb_fifo.c **** 
 1862              		.loc 1 562 18 view .LVU569
 1863 0088 0646     		mov	r6, r0
 1864              	.LVL223:
 562:SynaptiX_FDK/lib/tinyusb/src/common/tusb_fifo.c **** 
 1865              		.loc 1 562 18 view .LVU570
 1866 008a 4D46     		mov	r5, r9
 1867 008c D7E7     		b	.L91
 1868              	.LVL224:
 1869              	.L93:
 1870              	.LBB158:
 1871              	.LBB157:
 267:SynaptiX_FDK/lib/tinyusb/src/common/tusb_fifo.h ****   }
 1872              		.loc 2 267 5 is_stmt 1 view .LVU571
 267:SynaptiX_FDK/lib/tinyusb/src/common/tusb_fifo.h ****   }
 1873              		.loc 2 267 12 is_stmt 0 view .LVU572
 1874 008e 731A     		subs	r3, r6, r1
 1875              	.LVL225:
 267:SynaptiX_FDK/lib/tinyusb/src/common/tusb_fifo.h ****   }
 1876              		.loc 2 267 12 view .LVU573
 1877 0090 03EB4503 		add	r3, r3, r5, lsl #1
 1878 0094 9BB2     		uxth	r3, r3
 1879 0096 EDE7     		b	.L94
 1880              	.LVL226:
 1881              	.L102:
 267:SynaptiX_FDK/lib/tinyusb/src/common/tusb_fifo.h ****   }
 1882              		.loc 2 267 12 view .LVU574
 1883              	.LBE157:
 1884              	.LBE158:
 1885 0098 4D46     		mov	r5, r9
 1886 009a D0E7     		b	.L91
 1887              	.LVL227:
 1888              	.L96:
 267:SynaptiX_FDK/lib/tinyusb/src/common/tusb_fifo.h ****   }
 1889              		.loc 2 267 12 view .LVU575
 1890              	.LBE165:
 1891              	.LBB166:
 1892              	.LBB163:
 1893              	.LBB162:
 437:SynaptiX_FDK/lib/tinyusb/src/common/tusb_fifo.c ****   }
 1894              		.loc 1 437 5 is_stmt 1 view .LVU576
 437:SynaptiX_FDK/lib/tinyusb/src/common/tusb_fifo.c ****   }
 1895              		.loc 1 437 9 is_stmt 0 view .LVU577
 1896 009c 9B1A     		subs	r3, r3, r2
 1897              	.LVL228:
 437:SynaptiX_FDK/lib/tinyusb/src/common/tusb_fifo.c ****   }
 1898              		.loc 1 437 9 view .LVU578
ARM GAS  C:\Users\DELL\AppData\Local\Temp\ccaG9TDw.s 			page 64


 1899 009e 9BB2     		uxth	r3, r3
 1900              	.LVL229:
 1901              	.L95:
 436:SynaptiX_FDK/lib/tinyusb/src/common/tusb_fifo.c ****     idx -= depth;
 1902              		.loc 1 436 14 is_stmt 1 view .LVU579
 1903 00a0 9A42     		cmp	r2, r3
 1904 00a2 FBD9     		bls	.L96
 439:SynaptiX_FDK/lib/tinyusb/src/common/tusb_fifo.c **** }
 1905              		.loc 1 439 3 view .LVU580
 1906              	.LVL230:
 439:SynaptiX_FDK/lib/tinyusb/src/common/tusb_fifo.c **** }
 1907              		.loc 1 439 3 is_stmt 0 view .LVU581
 1908              	.LBE162:
 1909              	.LBE163:
 579:SynaptiX_FDK/lib/tinyusb/src/common/tusb_fifo.c **** 
 1910              		.loc 1 579 65 is_stmt 1 view .LVU582
 582:SynaptiX_FDK/lib/tinyusb/src/common/tusb_fifo.c ****       hwff_push_n(f, buf8, n, wr_ptr, access_mode);
 1911              		.loc 1 582 5 view .LVU583
 582:SynaptiX_FDK/lib/tinyusb/src/common/tusb_fifo.c ****       hwff_push_n(f, buf8, n, wr_ptr, access_mode);
 1912              		.loc 1 582 8 is_stmt 0 view .LVU584
 1913 00a4 67B1     		cbz	r7, .L97
 583:SynaptiX_FDK/lib/tinyusb/src/common/tusb_fifo.c ****     } else
 1914              		.loc 1 583 7 is_stmt 1 view .LVU585
 1915 00a6 0097     		str	r7, [sp]
 1916 00a8 2A46     		mov	r2, r5
 1917 00aa 4146     		mov	r1, r8
 1918 00ac 2046     		mov	r0, r4
 1919 00ae FFF7FEFF 		bl	hwff_push_n
 1920              	.LVL231:
 1921              	.L98:
 589:SynaptiX_FDK/lib/tinyusb/src/common/tusb_fifo.c **** 
 1922              		.loc 1 589 5 view .LVU586
 589:SynaptiX_FDK/lib/tinyusb/src/common/tusb_fifo.c **** 
 1923              		.loc 1 589 17 is_stmt 0 view .LVU587
 1924 00b2 2A46     		mov	r2, r5
 1925 00b4 3146     		mov	r1, r6
 1926 00b6 A088     		ldrh	r0, [r4, #4]
 1927 00b8 FFF7FEFF 		bl	advance_index
 1928              	.LVL232:
 589:SynaptiX_FDK/lib/tinyusb/src/common/tusb_fifo.c **** 
 1929              		.loc 1 589 15 discriminator 1 view .LVU588
 1930 00bc 2081     		strh	r0, [r4, #8]	@ movhi
 1931 00be 06E0     		b	.L87
 1932              	.LVL233:
 1933              	.L97:
 587:SynaptiX_FDK/lib/tinyusb/src/common/tusb_fifo.c ****     }
 1934              		.loc 1 587 7 is_stmt 1 view .LVU589
 1935 00c0 2A46     		mov	r2, r5
 1936 00c2 4146     		mov	r1, r8
 1937 00c4 2046     		mov	r0, r4
 1938 00c6 FFF7FEFF 		bl	ff_push_n
 1939              	.LVL234:
 587:SynaptiX_FDK/lib/tinyusb/src/common/tusb_fifo.c ****     }
 1940              		.loc 1 587 7 is_stmt 0 view .LVU590
 1941 00ca F2E7     		b	.L98
 1942              	.LVL235:
 1943              	.L99:
ARM GAS  C:\Users\DELL\AppData\Local\Temp\ccaG9TDw.s 			page 65


 587:SynaptiX_FDK/lib/tinyusb/src/common/tusb_fifo.c ****     }
 1944              		.loc 1 587 7 view .LVU591
 1945              	.LBE166:
 521:SynaptiX_FDK/lib/tinyusb/src/common/tusb_fifo.c ****   }
 1946              		.loc 1 521 12 view .LVU592
 1947 00cc 1546     		mov	r5, r2
 1948              	.LVL236:
 1949              	.L87:
 597:SynaptiX_FDK/lib/tinyusb/src/common/tusb_fifo.c **** 
 1950              		.loc 1 597 1 view .LVU593
 1951 00ce 2846     		mov	r0, r5
 1952 00d0 03B0     		add	sp, sp, #12
 1953              	.LCFI30:
 1954              		.cfi_remember_state
 1955              		.cfi_def_cfa_offset 28
 1956              		@ sp needed
 1957 00d2 BDE8F083 		pop	{r4, r5, r6, r7, r8, r9, pc}
 1958              	.LVL237:
 1959              	.L100:
 1960              	.LCFI31:
 1961              		.cfi_restore_state
 1962              	.LBB167:
 537:SynaptiX_FDK/lib/tinyusb/src/common/tusb_fifo.c ****   } else {
 1963              		.loc 1 537 29 view .LVU594
 1964 00d6 0025     		movs	r5, #0
 1965              	.LVL238:
 537:SynaptiX_FDK/lib/tinyusb/src/common/tusb_fifo.c ****   } else {
 1966              		.loc 1 537 29 view .LVU595
 1967 00d8 F9E7     		b	.L87
 1968              	.LBE167:
 1969              		.cfi_endproc
 1970              	.LFE425:
 1972              		.section	.text.tu_fifo_discard_n,"ax",%progbits
 1973              		.align	1
 1974              		.global	tu_fifo_discard_n
 1975              		.syntax unified
 1976              		.thumb
 1977              		.thumb_func
 1979              	tu_fifo_discard_n:
 1980              	.LVL239:
 1981              	.LFB426:
 599:SynaptiX_FDK/lib/tinyusb/src/common/tusb_fifo.c ****   const uint16_t count = tu_min16(n, tu_fifo_count(f)); // limit to available count
 1982              		.loc 1 599 54 is_stmt 1 view -0
 1983              		.cfi_startproc
 1984              		@ args = 0, pretend = 0, frame = 0
 1985              		@ frame_needed = 0, uses_anonymous_args = 0
 599:SynaptiX_FDK/lib/tinyusb/src/common/tusb_fifo.c ****   const uint16_t count = tu_min16(n, tu_fifo_count(f)); // limit to available count
 1986              		.loc 1 599 54 is_stmt 0 view .LVU597
 1987 0000 38B5     		push	{r3, r4, r5, lr}
 1988              	.LCFI32:
 1989              		.cfi_def_cfa_offset 16
 1990              		.cfi_offset 3, -16
 1991              		.cfi_offset 4, -12
 1992              		.cfi_offset 5, -8
 1993              		.cfi_offset 14, -4
 1994 0002 0446     		mov	r4, r0
 1995 0004 0D46     		mov	r5, r1
ARM GAS  C:\Users\DELL\AppData\Local\Temp\ccaG9TDw.s 			page 66


 600:SynaptiX_FDK/lib/tinyusb/src/common/tusb_fifo.c ****   ff_lock(f->mutex_rd);
 1996              		.loc 1 600 3 is_stmt 1 view .LVU598
 1997              	.LVL240:
 1998              	.LBB168:
 1999              	.LBI168:
 275:SynaptiX_FDK/lib/tinyusb/src/common/tusb_fifo.h **** }
 276:SynaptiX_FDK/lib/tinyusb/src/common/tusb_fifo.h **** 
 277:SynaptiX_FDK/lib/tinyusb/src/common/tusb_fifo.h **** //--------------------------------------------------------------------+
 278:SynaptiX_FDK/lib/tinyusb/src/common/tusb_fifo.h **** // State API
 279:SynaptiX_FDK/lib/tinyusb/src/common/tusb_fifo.h **** // Following functions are reentrant since they only access read/write indices once, therefore can 
 280:SynaptiX_FDK/lib/tinyusb/src/common/tusb_fifo.h **** // ISRs context without the need of mutexes
 281:SynaptiX_FDK/lib/tinyusb/src/common/tusb_fifo.h **** //--------------------------------------------------------------------+
 282:SynaptiX_FDK/lib/tinyusb/src/common/tusb_fifo.h **** TU_ATTR_ALWAYS_INLINE static inline uint16_t tu_fifo_depth(const tu_fifo_t *f) {
 283:SynaptiX_FDK/lib/tinyusb/src/common/tusb_fifo.h ****   return f->depth;
 284:SynaptiX_FDK/lib/tinyusb/src/common/tusb_fifo.h **** }
 285:SynaptiX_FDK/lib/tinyusb/src/common/tusb_fifo.h **** 
 286:SynaptiX_FDK/lib/tinyusb/src/common/tusb_fifo.h **** TU_ATTR_ALWAYS_INLINE static inline bool tu_fifo_empty(const tu_fifo_t *f) {
 287:SynaptiX_FDK/lib/tinyusb/src/common/tusb_fifo.h ****   const uint16_t wr_idx = f->wr_idx;
 288:SynaptiX_FDK/lib/tinyusb/src/common/tusb_fifo.h ****   const uint16_t rd_idx = f->rd_idx;
 289:SynaptiX_FDK/lib/tinyusb/src/common/tusb_fifo.h ****   return wr_idx == rd_idx;
 290:SynaptiX_FDK/lib/tinyusb/src/common/tusb_fifo.h **** }
 291:SynaptiX_FDK/lib/tinyusb/src/common/tusb_fifo.h **** 
 292:SynaptiX_FDK/lib/tinyusb/src/common/tusb_fifo.h **** // return number of items in fifo, capped to fifo's depth
 293:SynaptiX_FDK/lib/tinyusb/src/common/tusb_fifo.h **** TU_ATTR_ALWAYS_INLINE static inline uint16_t tu_fifo_count(const tu_fifo_t *f) {
 2000              		.loc 2 293 46 view .LVU599
 2001              	.LBB169:
 294:SynaptiX_FDK/lib/tinyusb/src/common/tusb_fifo.h ****   const uint16_t wr_idx = f->wr_idx;
 2002              		.loc 2 294 3 view .LVU600
 2003              		.loc 2 294 18 is_stmt 0 view .LVU601
 2004 0006 0389     		ldrh	r3, [r0, #8]
 2005 0008 9BB2     		uxth	r3, r3
 2006              	.LVL241:
 295:SynaptiX_FDK/lib/tinyusb/src/common/tusb_fifo.h ****   const uint16_t rd_idx = f->rd_idx;
 2007              		.loc 2 295 3 is_stmt 1 view .LVU602
 2008              		.loc 2 295 18 is_stmt 0 view .LVU603
 2009 000a 4289     		ldrh	r2, [r0, #10]
 2010 000c 92B2     		uxth	r2, r2
 2011              	.LVL242:
 296:SynaptiX_FDK/lib/tinyusb/src/common/tusb_fifo.h ****   return tu_min16(tu_ff_overflow_count(f->depth, wr_idx, rd_idx), f->depth);
 2012              		.loc 2 296 3 is_stmt 1 view .LVU604
 2013              		.loc 2 296 41 is_stmt 0 view .LVU605
 2014 000e 8088     		ldrh	r0, [r0, #4]
 2015              	.LVL243:
 2016              	.LBB170:
 2017              	.LBI170:
 262:SynaptiX_FDK/lib/tinyusb/src/common/tusb_fifo.h ****   const int32_t diff = (int32_t)wr_idx - (int32_t)rd_idx;
 2018              		.loc 2 262 46 is_stmt 1 view .LVU606
 2019              	.LBB171:
 263:SynaptiX_FDK/lib/tinyusb/src/common/tusb_fifo.h ****   if (diff >= 0) {
 2020              		.loc 2 263 3 view .LVU607
 263:SynaptiX_FDK/lib/tinyusb/src/common/tusb_fifo.h ****   if (diff >= 0) {
 2021              		.loc 2 263 17 is_stmt 0 view .LVU608
 2022 0010 991A     		subs	r1, r3, r2
 2023              	.LVL244:
 264:SynaptiX_FDK/lib/tinyusb/src/common/tusb_fifo.h ****     return (uint16_t)diff;
 2024              		.loc 2 264 3 is_stmt 1 view .LVU609
 264:SynaptiX_FDK/lib/tinyusb/src/common/tusb_fifo.h ****     return (uint16_t)diff;
ARM GAS  C:\Users\DELL\AppData\Local\Temp\ccaG9TDw.s 			page 67


 2025              		.loc 2 264 6 is_stmt 0 view .LVU610
 2026 0012 0029     		cmp	r1, #0
 2027 0014 0EDB     		blt	.L106
 265:SynaptiX_FDK/lib/tinyusb/src/common/tusb_fifo.h ****   } else {
 2028              		.loc 2 265 5 is_stmt 1 view .LVU611
 265:SynaptiX_FDK/lib/tinyusb/src/common/tusb_fifo.h ****   } else {
 2029              		.loc 2 265 12 is_stmt 0 view .LVU612
 2030 0016 8BB2     		uxth	r3, r1
 2031              	.LVL245:
 2032              	.L107:
 265:SynaptiX_FDK/lib/tinyusb/src/common/tusb_fifo.h ****   } else {
 2033              		.loc 2 265 12 view .LVU613
 2034              	.LBE171:
 2035              	.LBE170:
 2036              	.LBB173:
 2037              	.LBI173:
