ARM GAS  C:\Users\DELL\AppData\Local\Temp\ccQBAAfE.s 			page 1


   1              		.cpu cortex-m33
   2              		.arch armv8-m.main
   3              		.fpu fpv5-sp-d16
   4              		.arch_extension dsp
   5              		.eabi_attribute 27, 1
   6              		.eabi_attribute 28, 1
   7              		.eabi_attribute 20, 1
   8              		.eabi_attribute 21, 1
   9              		.eabi_attribute 23, 3
  10              		.eabi_attribute 24, 1
  11              		.eabi_attribute 25, 1
  12              		.eabi_attribute 26, 1
  13              		.eabi_attribute 30, 1
  14              		.eabi_attribute 34, 1
  15              		.eabi_attribute 18, 4
  16              		.file	"usb.c"
  17              		.text
  18              	.Ltext0:
  19              		.cfi_sections	.debug_frame
  20              		.file 1 "Core/Src/usb.c"
  21              		.section	.text.MX_USB_PCD_Init,"ax",%progbits
  22              		.align	1
  23              		.global	MX_USB_PCD_Init
  24              		.syntax unified
  25              		.thumb
  26              		.thumb_func
  28              	MX_USB_PCD_Init:
  29              	.LFB297:
   1:Core/Src/usb.c **** /* USER CODE BEGIN Header */
   2:Core/Src/usb.c **** /**
   3:Core/Src/usb.c ****   ******************************************************************************
   4:Core/Src/usb.c ****   * @file    usb.c
   5:Core/Src/usb.c ****   * @brief   This file provides code for the configuration
   6:Core/Src/usb.c ****   *          of the USB instances.
   7:Core/Src/usb.c ****   ******************************************************************************
   8:Core/Src/usb.c ****   * @attention
   9:Core/Src/usb.c ****   *
  10:Core/Src/usb.c ****   * Copyright (c) 2026 STMicroelectronics.
  11:Core/Src/usb.c ****   * All rights reserved.
  12:Core/Src/usb.c ****   *
  13:Core/Src/usb.c ****   * This software is licensed under terms that can be found in the LICENSE file
  14:Core/Src/usb.c ****   * in the root directory of this software component.
  15:Core/Src/usb.c ****   * If no LICENSE file comes with this software, it is provided AS-IS.
  16:Core/Src/usb.c ****   *
  17:Core/Src/usb.c ****   ******************************************************************************
  18:Core/Src/usb.c ****   */
  19:Core/Src/usb.c **** /* USER CODE END Header */
  20:Core/Src/usb.c **** /* Includes ------------------------------------------------------------------*/
  21:Core/Src/usb.c **** #include "usb.h"
  22:Core/Src/usb.c **** 
  23:Core/Src/usb.c **** /* USER CODE BEGIN 0 */
  24:Core/Src/usb.c **** 
  25:Core/Src/usb.c **** /* USER CODE END 0 */
  26:Core/Src/usb.c **** 
  27:Core/Src/usb.c **** PCD_HandleTypeDef hpcd_USB_DRD_FS;
  28:Core/Src/usb.c **** 
  29:Core/Src/usb.c **** /* USB init function */
ARM GAS  C:\Users\DELL\AppData\Local\Temp\ccQBAAfE.s 			page 2


  30:Core/Src/usb.c **** 
  31:Core/Src/usb.c **** void MX_USB_PCD_Init(void)
  32:Core/Src/usb.c **** {
  30              		.loc 1 32 1 view -0
  31              		.cfi_startproc
  32              		@ args = 0, pretend = 0, frame = 0
  33              		@ frame_needed = 0, uses_anonymous_args = 0
  34 0000 08B5     		push	{r3, lr}
  35              	.LCFI0:
  36              		.cfi_def_cfa_offset 8
  37              		.cfi_offset 3, -8
  38              		.cfi_offset 14, -4
  33:Core/Src/usb.c **** 
  34:Core/Src/usb.c ****   /* USER CODE BEGIN USB_Init 0 */
  35:Core/Src/usb.c **** 
  36:Core/Src/usb.c ****   /* USER CODE END USB_Init 0 */
  37:Core/Src/usb.c **** 
  38:Core/Src/usb.c ****   /* USER CODE BEGIN USB_Init 1 */
  39:Core/Src/usb.c **** 
  40:Core/Src/usb.c ****   /* USER CODE END USB_Init 1 */
  41:Core/Src/usb.c ****   hpcd_USB_DRD_FS.Instance = USB_DRD_FS;
  39              		.loc 1 41 3 view .LVU1
  40              		.loc 1 41 28 is_stmt 0 view .LVU2
  41 0002 0B48     		ldr	r0, .L5
  42 0004 0B4B     		ldr	r3, .L5+4
  43 0006 0360     		str	r3, [r0]
  42:Core/Src/usb.c ****   hpcd_USB_DRD_FS.Init.dev_endpoints = 8;
  44              		.loc 1 42 3 is_stmt 1 view .LVU3
  45              		.loc 1 42 38 is_stmt 0 view .LVU4
  46 0008 0823     		movs	r3, #8
  47 000a 0371     		strb	r3, [r0, #4]
  43:Core/Src/usb.c ****   hpcd_USB_DRD_FS.Init.speed = USBD_FS_SPEED;
  48              		.loc 1 43 3 is_stmt 1 view .LVU5
  49              		.loc 1 43 30 is_stmt 0 view .LVU6
  50 000c 0223     		movs	r3, #2
  51 000e C371     		strb	r3, [r0, #7]
  44:Core/Src/usb.c ****   hpcd_USB_DRD_FS.Init.phy_itface = PCD_PHY_EMBEDDED;
  52              		.loc 1 44 3 is_stmt 1 view .LVU7
  53              		.loc 1 44 35 is_stmt 0 view .LVU8
  54 0010 4372     		strb	r3, [r0, #9]
  45:Core/Src/usb.c ****   hpcd_USB_DRD_FS.Init.Sof_enable = DISABLE;
  55              		.loc 1 45 3 is_stmt 1 view .LVU9
  56              		.loc 1 45 35 is_stmt 0 view .LVU10
  57 0012 0023     		movs	r3, #0
  58 0014 8372     		strb	r3, [r0, #10]
  46:Core/Src/usb.c ****   hpcd_USB_DRD_FS.Init.low_power_enable = DISABLE;
  59              		.loc 1 46 3 is_stmt 1 view .LVU11
  60              		.loc 1 46 41 is_stmt 0 view .LVU12
  61 0016 C372     		strb	r3, [r0, #11]
  47:Core/Src/usb.c ****   hpcd_USB_DRD_FS.Init.lpm_enable = DISABLE;
  62              		.loc 1 47 3 is_stmt 1 view .LVU13
  63              		.loc 1 47 35 is_stmt 0 view .LVU14
  64 0018 0373     		strb	r3, [r0, #12]
  48:Core/Src/usb.c ****   hpcd_USB_DRD_FS.Init.battery_charging_enable = DISABLE;
  65              		.loc 1 48 3 is_stmt 1 view .LVU15
  66              		.loc 1 48 48 is_stmt 0 view .LVU16
  67 001a 4373     		strb	r3, [r0, #13]
ARM GAS  C:\Users\DELL\AppData\Local\Temp\ccQBAAfE.s 			page 3


  49:Core/Src/usb.c ****   hpcd_USB_DRD_FS.Init.vbus_sensing_enable = DISABLE;
  68              		.loc 1 49 3 is_stmt 1 view .LVU17
  69              		.loc 1 49 44 is_stmt 0 view .LVU18
  70 001c 8373     		strb	r3, [r0, #14]
  50:Core/Src/usb.c ****   hpcd_USB_DRD_FS.Init.bulk_doublebuffer_enable = DISABLE;
  71              		.loc 1 50 3 is_stmt 1 view .LVU19
  72              		.loc 1 50 49 is_stmt 0 view .LVU20
  73 001e C373     		strb	r3, [r0, #15]
  51:Core/Src/usb.c ****   hpcd_USB_DRD_FS.Init.iso_singlebuffer_enable = DISABLE;
  74              		.loc 1 51 3 is_stmt 1 view .LVU21
  75              		.loc 1 51 48 is_stmt 0 view .LVU22
  76 0020 0374     		strb	r3, [r0, #16]
  52:Core/Src/usb.c ****   if (HAL_PCD_Init(&hpcd_USB_DRD_FS) != HAL_OK)
  77              		.loc 1 52 3 is_stmt 1 view .LVU23
  78              		.loc 1 52 7 is_stmt 0 view .LVU24
  79 0022 FFF7FEFF 		bl	HAL_PCD_Init
  80              	.LVL0:
  81              		.loc 1 52 6 discriminator 1 view .LVU25
  82 0026 00B9     		cbnz	r0, .L4
  83              	.L1:
  53:Core/Src/usb.c ****   {
  54:Core/Src/usb.c ****     Error_Handler();
  55:Core/Src/usb.c ****   }
  56:Core/Src/usb.c ****   /* USER CODE BEGIN USB_Init 2 */
  57:Core/Src/usb.c **** 
  58:Core/Src/usb.c ****   /* USER CODE END USB_Init 2 */
  59:Core/Src/usb.c **** 
  60:Core/Src/usb.c **** }
  84              		.loc 1 60 1 view .LVU26
  85 0028 08BD     		pop	{r3, pc}
  86              	.L4:
  54:Core/Src/usb.c ****   }
  87              		.loc 1 54 5 is_stmt 1 view .LVU27
  88 002a FFF7FEFF 		bl	Error_Handler
  89              	.LVL1:
  90              		.loc 1 60 1 is_stmt 0 view .LVU28
  91 002e FBE7     		b	.L1
  92              	.L6:
  93              		.align	2
  94              	.L5:
  95 0030 00000000 		.word	hpcd_USB_DRD_FS
  96 0034 00600140 		.word	1073831936
  97              		.cfi_endproc
  98              	.LFE297:
 100              		.section	.text.HAL_PCD_MspInit,"ax",%progbits
 101              		.align	1
 102              		.global	HAL_PCD_MspInit
 103              		.syntax unified
 104              		.thumb
 105              		.thumb_func
 107              	HAL_PCD_MspInit:
 108              	.LVL2:
 109              	.LFB298:
  61:Core/Src/usb.c **** 
  62:Core/Src/usb.c **** void HAL_PCD_MspInit(PCD_HandleTypeDef* pcdHandle)
  63:Core/Src/usb.c **** {
 110              		.loc 1 63 1 is_stmt 1 view -0
ARM GAS  C:\Users\DELL\AppData\Local\Temp\ccQBAAfE.s 			page 4


 111              		.cfi_startproc
 112              		@ args = 0, pretend = 0, frame = 272
 113              		@ frame_needed = 0, uses_anonymous_args = 0
 114              		.loc 1 63 1 is_stmt 0 view .LVU30
 115 0000 10B5     		push	{r4, lr}
 116              	.LCFI1:
 117              		.cfi_def_cfa_offset 8
 118              		.cfi_offset 4, -8
 119              		.cfi_offset 14, -4
 120 0002 C4B0     		sub	sp, sp, #272
 121              	.LCFI2:
 122              		.cfi_def_cfa_offset 280
 123 0004 0446     		mov	r4, r0
  64:Core/Src/usb.c **** 
  65:Core/Src/usb.c ****   RCC_PeriphCLKInitTypeDef PeriphClkInitStruct = {0};
 124              		.loc 1 65 3 is_stmt 1 view .LVU31
 125              		.loc 1 65 28 is_stmt 0 view .LVU32
 126 0006 4FF48472 		mov	r2, #264
 127 000a 0021     		movs	r1, #0
 128 000c 02A8     		add	r0, sp, #8
 129              	.LVL3:
 130              		.loc 1 65 28 view .LVU33
 131 000e FFF7FEFF 		bl	memset
 132              	.LVL4:
  66:Core/Src/usb.c ****   if(pcdHandle->Instance==USB_DRD_FS)
 133              		.loc 1 66 3 is_stmt 1 view .LVU34
 134              		.loc 1 66 15 is_stmt 0 view .LVU35
 135 0012 2268     		ldr	r2, [r4]
 136              		.loc 1 66 5 view .LVU36
 137 0014 154B     		ldr	r3, .L13
 138 0016 9A42     		cmp	r2, r3
 139 0018 01D0     		beq	.L11
 140              	.L7:
  67:Core/Src/usb.c ****   {
  68:Core/Src/usb.c ****   /* USER CODE BEGIN USB_DRD_FS_MspInit 0 */
  69:Core/Src/usb.c **** 
  70:Core/Src/usb.c ****   /* USER CODE END USB_DRD_FS_MspInit 0 */
  71:Core/Src/usb.c **** 
  72:Core/Src/usb.c ****   /** Initializes the peripherals clock
  73:Core/Src/usb.c ****   */
  74:Core/Src/usb.c ****     PeriphClkInitStruct.PeriphClockSelection = RCC_PERIPHCLK_USB;
  75:Core/Src/usb.c ****     PeriphClkInitStruct.UsbClockSelection = RCC_USBCLKSOURCE_HSI48;
  76:Core/Src/usb.c ****     if (HAL_RCCEx_PeriphCLKConfig(&PeriphClkInitStruct) != HAL_OK)
  77:Core/Src/usb.c ****     {
  78:Core/Src/usb.c ****       Error_Handler();
  79:Core/Src/usb.c ****     }
  80:Core/Src/usb.c **** 
  81:Core/Src/usb.c ****     /* Enable VDDUSB */
  82:Core/Src/usb.c ****     HAL_PWREx_EnableVddUSB();
  83:Core/Src/usb.c ****     /* USB_DRD_FS clock enable */
  84:Core/Src/usb.c ****     __HAL_RCC_USB_CLK_ENABLE();
  85:Core/Src/usb.c **** 
  86:Core/Src/usb.c ****     /* USB_DRD_FS interrupt Init */
  87:Core/Src/usb.c ****     HAL_NVIC_SetPriority(USB_DRD_FS_IRQn, 1, 0);
  88:Core/Src/usb.c ****     HAL_NVIC_EnableIRQ(USB_DRD_FS_IRQn);
  89:Core/Src/usb.c ****   /* USER CODE BEGIN USB_DRD_FS_MspInit 1 */
  90:Core/Src/usb.c **** 
ARM GAS  C:\Users\DELL\AppData\Local\Temp\ccQBAAfE.s 			page 5


  91:Core/Src/usb.c ****   /* USER CODE END USB_DRD_FS_MspInit 1 */
  92:Core/Src/usb.c ****   }
  93:Core/Src/usb.c **** }
 141              		.loc 1 93 1 view .LVU37
 142 001a 44B0     		add	sp, sp, #272
 143              	.LCFI3:
 144              		.cfi_remember_state
 145              		.cfi_def_cfa_offset 8
 146              		@ sp needed
 147 001c 10BD     		pop	{r4, pc}
 148              	.LVL5:
 149              	.L11:
 150              	.LCFI4:
 151              		.cfi_restore_state
  74:Core/Src/usb.c ****     PeriphClkInitStruct.UsbClockSelection = RCC_USBCLKSOURCE_HSI48;
 152              		.loc 1 74 5 is_stmt 1 view .LVU38
  74:Core/Src/usb.c ****     PeriphClkInitStruct.UsbClockSelection = RCC_USBCLKSOURCE_HSI48;
 153              		.loc 1 74 46 is_stmt 0 view .LVU39
 154 001e 02A8     		add	r0, sp, #8
 155 0020 0022     		movs	r2, #0
 156 0022 1023     		movs	r3, #16
 157 0024 CDE90223 		strd	r2, [sp, #8]
  75:Core/Src/usb.c ****     if (HAL_RCCEx_PeriphCLKConfig(&PeriphClkInitStruct) != HAL_OK)
 158              		.loc 1 75 5 is_stmt 1 view .LVU40
  75:Core/Src/usb.c ****     if (HAL_RCCEx_PeriphCLKConfig(&PeriphClkInitStruct) != HAL_OK)
 159              		.loc 1 75 43 is_stmt 0 view .LVU41
 160 0028 3023     		movs	r3, #48
 161 002a C0F80031 		str	r3, [r0, #256]
  76:Core/Src/usb.c ****     {
 162              		.loc 1 76 5 is_stmt 1 view .LVU42
  76:Core/Src/usb.c ****     {
 163              		.loc 1 76 9 is_stmt 0 view .LVU43
 164 002e FFF7FEFF 		bl	HAL_RCCEx_PeriphCLKConfig
 165              	.LVL6:
  76:Core/Src/usb.c ****     {
 166              		.loc 1 76 8 discriminator 1 view .LVU44
 167 0032 B8B9     		cbnz	r0, .L12
 168              	.L9:
  82:Core/Src/usb.c ****     /* USB_DRD_FS clock enable */
 169              		.loc 1 82 5 is_stmt 1 view .LVU45
 170 0034 FFF7FEFF 		bl	HAL_PWREx_EnableVddUSB
 171              	.LVL7:
  84:Core/Src/usb.c **** 
 172              		.loc 1 84 5 view .LVU46
 173              	.LBB2:
  84:Core/Src/usb.c **** 
 174              		.loc 1 84 5 view .LVU47
  84:Core/Src/usb.c **** 
 175              		.loc 1 84 5 view .LVU48
 176 0038 0D4B     		ldr	r3, .L13+4
 177 003a D3F8A420 		ldr	r2, [r3, #164]
 178 003e 42F08072 		orr	r2, r2, #16777216
 179 0042 C3F8A420 		str	r2, [r3, #164]
  84:Core/Src/usb.c **** 
 180              		.loc 1 84 5 view .LVU49
 181 0046 D3F8A430 		ldr	r3, [r3, #164]
 182 004a 03F08073 		and	r3, r3, #16777216
ARM GAS  C:\Users\DELL\AppData\Local\Temp\ccQBAAfE.s 			page 6


 183 004e 0193     		str	r3, [sp, #4]
  84:Core/Src/usb.c **** 
 184              		.loc 1 84 5 view .LVU50
 185 0050 019B     		ldr	r3, [sp, #4]
 186              	.LBE2:
  84:Core/Src/usb.c **** 
 187              		.loc 1 84 5 view .LVU51
  87:Core/Src/usb.c ****     HAL_NVIC_EnableIRQ(USB_DRD_FS_IRQn);
 188              		.loc 1 87 5 view .LVU52
 189 0052 0022     		movs	r2, #0
 190 0054 0121     		movs	r1, #1
 191 0056 4A20     		movs	r0, #74
 192 0058 FFF7FEFF 		bl	HAL_NVIC_SetPriority
 193              	.LVL8:
  88:Core/Src/usb.c ****   /* USER CODE BEGIN USB_DRD_FS_MspInit 1 */
 194              		.loc 1 88 5 view .LVU53
 195 005c 4A20     		movs	r0, #74
 196 005e FFF7FEFF 		bl	HAL_NVIC_EnableIRQ
 197              	.LVL9:
 198              		.loc 1 93 1 is_stmt 0 view .LVU54
 199 0062 DAE7     		b	.L7
 200              	.L12:
  78:Core/Src/usb.c ****     }
 201              		.loc 1 78 7 is_stmt 1 view .LVU55
 202 0064 FFF7FEFF 		bl	Error_Handler
 203              	.LVL10:
 204 0068 E4E7     		b	.L9
 205              	.L14:
 206 006a 00BF     		.align	2
 207              	.L13:
 208 006c 00600140 		.word	1073831936
 209 0070 000C0244 		.word	1140984832
 210              		.cfi_endproc
 211              	.LFE298:
 213              		.section	.text.HAL_PCD_MspDeInit,"ax",%progbits
 214              		.align	1
 215              		.global	HAL_PCD_MspDeInit
 216              		.syntax unified
 217              		.thumb
 218              		.thumb_func
 220              	HAL_PCD_MspDeInit:
 221              	.LVL11:
 222              	.LFB299:
  94:Core/Src/usb.c **** 
  95:Core/Src/usb.c **** void HAL_PCD_MspDeInit(PCD_HandleTypeDef* pcdHandle)
  96:Core/Src/usb.c **** {
 223              		.loc 1 96 1 view -0
 224              		.cfi_startproc
 225              		@ args = 0, pretend = 0, frame = 0
 226              		@ frame_needed = 0, uses_anonymous_args = 0
 227              		.loc 1 96 1 is_stmt 0 view .LVU57
 228 0000 08B5     		push	{r3, lr}
 229              	.LCFI5:
 230              		.cfi_def_cfa_offset 8
 231              		.cfi_offset 3, -8
 232              		.cfi_offset 14, -4
  97:Core/Src/usb.c **** 
ARM GAS  C:\Users\DELL\AppData\Local\Temp\ccQBAAfE.s 			page 7


  98:Core/Src/usb.c ****   if(pcdHandle->Instance==USB_DRD_FS)
 233              		.loc 1 98 3 is_stmt 1 view .LVU58
 234              		.loc 1 98 15 is_stmt 0 view .LVU59
 235 0002 0268     		ldr	r2, [r0]
 236              		.loc 1 98 5 view .LVU60
 237 0004 074B     		ldr	r3, .L19
 238 0006 9A42     		cmp	r2, r3
 239 0008 00D0     		beq	.L18
 240              	.LVL12:
 241              	.L15:
  99:Core/Src/usb.c ****   {
 100:Core/Src/usb.c ****   /* USER CODE BEGIN USB_DRD_FS_MspDeInit 0 */
 101:Core/Src/usb.c **** 
 102:Core/Src/usb.c ****   /* USER CODE END USB_DRD_FS_MspDeInit 0 */
 103:Core/Src/usb.c ****     /* Peripheral clock disable */
 104:Core/Src/usb.c ****     __HAL_RCC_USB_CLK_DISABLE();
 105:Core/Src/usb.c **** 
 106:Core/Src/usb.c ****     /* USB_DRD_FS interrupt Deinit */
 107:Core/Src/usb.c ****     HAL_NVIC_DisableIRQ(USB_DRD_FS_IRQn);
 108:Core/Src/usb.c ****   /* USER CODE BEGIN USB_DRD_FS_MspDeInit 1 */
 109:Core/Src/usb.c **** 
 110:Core/Src/usb.c ****   /* USER CODE END USB_DRD_FS_MspDeInit 1 */
 111:Core/Src/usb.c ****   }
 112:Core/Src/usb.c **** }
 242              		.loc 1 112 1 view .LVU61
 243 000a 08BD     		pop	{r3, pc}
 244              	.LVL13:
 245              	.L18:
 104:Core/Src/usb.c **** 
 246              		.loc 1 104 5 is_stmt 1 view .LVU62
 247 000c 064A     		ldr	r2, .L19+4
 248 000e D2F8A430 		ldr	r3, [r2, #164]
 249 0012 23F08073 		bic	r3, r3, #16777216
 250 0016 C2F8A430 		str	r3, [r2, #164]
 107:Core/Src/usb.c ****   /* USER CODE BEGIN USB_DRD_FS_MspDeInit 1 */
 251              		.loc 1 107 5 view .LVU63
 252 001a 4A20     		movs	r0, #74
 253              	.LVL14:
 107:Core/Src/usb.c ****   /* USER CODE BEGIN USB_DRD_FS_MspDeInit 1 */
 254              		.loc 1 107 5 is_stmt 0 view .LVU64
 255 001c FFF7FEFF 		bl	HAL_NVIC_DisableIRQ
 256              	.LVL15:
 257              		.loc 1 112 1 view .LVU65
 258 0020 F3E7     		b	.L15
 259              	.L20:
 260 0022 00BF     		.align	2
 261              	.L19:
 262 0024 00600140 		.word	1073831936
 263 0028 000C0244 		.word	1140984832
 264              		.cfi_endproc
 265              	.LFE299:
 267              		.global	hpcd_USB_DRD_FS
 268              		.section	.bss.hpcd_USB_DRD_FS,"aw",%nobits
 269              		.align	2
 272              	hpcd_USB_DRD_FS:
 273 0000 00000000 		.space	740
 273      00000000 
ARM GAS  C:\Users\DELL\AppData\Local\Temp\ccQBAAfE.s 			page 8


 273      00000000 
 273      00000000 
 273      00000000 
 274              		.text
 275              	.Letext0:
 276              		.file 2 "D:\\stm32cubeclt\\STM32CubeCLT_1.21.0\\GNU-tools-for-STM32\\bin\\../lib/gcc/arm-none-eabi
 277              		.file 3 "Drivers/CMSIS/Device/ST/STM32H5xx/Include/stm32h563xx.h"
 278              		.file 4 "D:\\stm32cubeclt\\STM32CubeCLT_1.21.0\\GNU-tools-for-STM32\\bin\\../lib/gcc/arm-none-eabi
 279              		.file 5 "Drivers/CMSIS/Device/ST/STM32H5xx/Include/stm32h5xx.h"
 280              		.file 6 "Drivers/STM32H5xx_HAL_Driver/Inc/stm32h5xx_hal_def.h"
 281              		.file 7 "Drivers/STM32H5xx_HAL_Driver/Inc/stm32h5xx_hal_rcc_ex.h"
 282              		.file 8 "Drivers/STM32H5xx_HAL_Driver/Inc/stm32h5xx_ll_lptim.h"
 283              		.file 9 "Drivers/STM32H5xx_HAL_Driver/Inc/stm32h5xx_ll_usb.h"
 284              		.file 10 "Drivers/STM32H5xx_HAL_Driver/Inc/stm32h5xx_hal_pcd.h"
 285              		.file 11 "Drivers/STM32H5xx_HAL_Driver/Inc/stm32h5xx_hal_cortex.h"
 286              		.file 12 "Drivers/STM32H5xx_HAL_Driver/Inc/stm32h5xx_hal_pwr_ex.h"
 287              		.file 13 "Core/Inc/main.h"
 288              		.file 14 "Core/Inc/usb.h"
 289              		.file 15 "<built-in>"
ARM GAS  C:\Users\DELL\AppData\Local\Temp\ccQBAAfE.s 			page 9

