ARM GAS  C:\Users\DELL\AppData\Local\Temp\ccxUMlHQ.s 			page 1


   1              		.cpu cortex-m33
   2              		.arch armv8-m.main
   3              		.fpu fpv5-sp-d16
   4              		.arch_extension dsp
   5              		.eabi_attribute 27, 1
   6              		.eabi_attribute 28, 1
   7              		.eabi_attribute 20, 1
   8              		.eabi_attribute 21, 1
   9              		.eabi_attribute 23, 3
  10              		.eabi_attribute 24, 1
  11              		.eabi_attribute 25, 1
  12              		.eabi_attribute 26, 1
  13              		.eabi_attribute 30, 1
  14              		.eabi_attribute 34, 1
  15              		.eabi_attribute 18, 4
  16              		.file	"usb_descriptor.c"
  17              		.text
  18              	.Ltext0:
  19              		.cfi_sections	.debug_frame
  20              		.file 1 "SynaptiX_FDK/components/peripherals/usb_cdc_tiny/usb_descriptor.c"
  21              		.section	.text.tud_descriptor_device_cb,"ax",%progbits
  22              		.align	1
  23              		.global	tud_descriptor_device_cb
  24              		.syntax unified
  25              		.thumb
  26              		.thumb_func
  28              	tud_descriptor_device_cb:
  29              	.LFB431:
   1:SynaptiX_FDK/components/peripherals/usb_cdc_tiny/usb_descriptor.c **** #include "tusb.h"
   2:SynaptiX_FDK/components/peripherals/usb_cdc_tiny/usb_descriptor.c **** #include <string.h>
   3:SynaptiX_FDK/components/peripherals/usb_cdc_tiny/usb_descriptor.c **** 
   4:SynaptiX_FDK/components/peripherals/usb_cdc_tiny/usb_descriptor.c **** /* ── UID Serial ── */
   5:SynaptiX_FDK/components/peripherals/usb_cdc_tiny/usb_descriptor.c **** // static size_t get_serial_from_uid(uint16_t *buf, size_t buf_len)
   6:SynaptiX_FDK/components/peripherals/usb_cdc_tiny/usb_descriptor.c **** // {
   7:SynaptiX_FDK/components/peripherals/usb_cdc_tiny/usb_descriptor.c **** //     uint32_t const uid[3] = {
   8:SynaptiX_FDK/components/peripherals/usb_cdc_tiny/usb_descriptor.c **** //         *(volatile uint32_t *)(0x08FFF800UL),
   9:SynaptiX_FDK/components/peripherals/usb_cdc_tiny/usb_descriptor.c **** //         *(volatile uint32_t *)(0x08FFF804UL),
  10:SynaptiX_FDK/components/peripherals/usb_cdc_tiny/usb_descriptor.c **** //         *(volatile uint32_t *)(0x08FFF808UL)
  11:SynaptiX_FDK/components/peripherals/usb_cdc_tiny/usb_descriptor.c **** //     };
  12:SynaptiX_FDK/components/peripherals/usb_cdc_tiny/usb_descriptor.c **** //     const char hex[] = "0123456789ABCDEF";
  13:SynaptiX_FDK/components/peripherals/usb_cdc_tiny/usb_descriptor.c **** //     size_t count = 0;
  14:SynaptiX_FDK/components/peripherals/usb_cdc_tiny/usb_descriptor.c **** //     for (int w = 0; w < 3 && count < buf_len; w++)
  15:SynaptiX_FDK/components/peripherals/usb_cdc_tiny/usb_descriptor.c **** //         for (int b = 7; b >= 0 && count < buf_len; b--)
  16:SynaptiX_FDK/components/peripherals/usb_cdc_tiny/usb_descriptor.c **** //             buf[count++] = hex[(uid[w] >> (b * 4)) & 0xF];
  17:SynaptiX_FDK/components/peripherals/usb_cdc_tiny/usb_descriptor.c **** //     return count;
  18:SynaptiX_FDK/components/peripherals/usb_cdc_tiny/usb_descriptor.c **** // }
  19:SynaptiX_FDK/components/peripherals/usb_cdc_tiny/usb_descriptor.c **** 
  20:SynaptiX_FDK/components/peripherals/usb_cdc_tiny/usb_descriptor.c **** /* ── VID / PID ── */
  21:SynaptiX_FDK/components/peripherals/usb_cdc_tiny/usb_descriptor.c **** #define PID_MAP(itf, n)  ((CFG_TUD_##itf) ? (1 << (n)) : 0)
  22:SynaptiX_FDK/components/peripherals/usb_cdc_tiny/usb_descriptor.c **** #define USB_PID  (0x4000 | PID_MAP(CDC,0) | PID_MAP(MSC,1) | \
  23:SynaptiX_FDK/components/peripherals/usb_cdc_tiny/usb_descriptor.c ****                   PID_MAP(HID,2) | PID_MAP(MIDI,3) | PID_MAP(VENDOR,4))
  24:SynaptiX_FDK/components/peripherals/usb_cdc_tiny/usb_descriptor.c **** #define USB_VID  0xCafe//0xCafe
  25:SynaptiX_FDK/components/peripherals/usb_cdc_tiny/usb_descriptor.c **** #define USB_BCD  0x0200
  26:SynaptiX_FDK/components/peripherals/usb_cdc_tiny/usb_descriptor.c **** 
  27:SynaptiX_FDK/components/peripherals/usb_cdc_tiny/usb_descriptor.c **** /* ── Device Descriptor ── */
  28:SynaptiX_FDK/components/peripherals/usb_cdc_tiny/usb_descriptor.c **** static tusb_desc_device_t const desc_device = {
  29:SynaptiX_FDK/components/peripherals/usb_cdc_tiny/usb_descriptor.c ****     .bLength            = sizeof(tusb_desc_device_t),
ARM GAS  C:\Users\DELL\AppData\Local\Temp\ccxUMlHQ.s 			page 2


  30:SynaptiX_FDK/components/peripherals/usb_cdc_tiny/usb_descriptor.c ****     .bDescriptorType    = TUSB_DESC_DEVICE,
  31:SynaptiX_FDK/components/peripherals/usb_cdc_tiny/usb_descriptor.c ****     .bcdUSB             = USB_BCD,
  32:SynaptiX_FDK/components/peripherals/usb_cdc_tiny/usb_descriptor.c ****     .bDeviceClass       = TUSB_CLASS_MISC,
  33:SynaptiX_FDK/components/peripherals/usb_cdc_tiny/usb_descriptor.c ****     .bDeviceSubClass    = MISC_SUBCLASS_COMMON,
  34:SynaptiX_FDK/components/peripherals/usb_cdc_tiny/usb_descriptor.c ****     .bDeviceProtocol    = MISC_PROTOCOL_IAD,
  35:SynaptiX_FDK/components/peripherals/usb_cdc_tiny/usb_descriptor.c ****     .bMaxPacketSize0    = CFG_TUD_ENDPOINT0_SIZE,
  36:SynaptiX_FDK/components/peripherals/usb_cdc_tiny/usb_descriptor.c ****     .idVendor           = USB_VID,
  37:SynaptiX_FDK/components/peripherals/usb_cdc_tiny/usb_descriptor.c ****     .idProduct          = USB_PID,
  38:SynaptiX_FDK/components/peripherals/usb_cdc_tiny/usb_descriptor.c ****     .bcdDevice          = 0x0100,
  39:SynaptiX_FDK/components/peripherals/usb_cdc_tiny/usb_descriptor.c ****     .iManufacturer      = 0x01,
  40:SynaptiX_FDK/components/peripherals/usb_cdc_tiny/usb_descriptor.c ****     .iProduct           = 0x02,
  41:SynaptiX_FDK/components/peripherals/usb_cdc_tiny/usb_descriptor.c ****     .iSerialNumber      = 0x03,
  42:SynaptiX_FDK/components/peripherals/usb_cdc_tiny/usb_descriptor.c ****     .bNumConfigurations = 0x01
  43:SynaptiX_FDK/components/peripherals/usb_cdc_tiny/usb_descriptor.c **** };
  44:SynaptiX_FDK/components/peripherals/usb_cdc_tiny/usb_descriptor.c **** 
  45:SynaptiX_FDK/components/peripherals/usb_cdc_tiny/usb_descriptor.c **** uint8_t const *tud_descriptor_device_cb(void) {
  30              		.loc 1 45 47 view -0
  31              		.cfi_startproc
  32              		@ args = 0, pretend = 0, frame = 0
  33              		@ frame_needed = 0, uses_anonymous_args = 0
  34              		@ link register save eliminated.
  46:SynaptiX_FDK/components/peripherals/usb_cdc_tiny/usb_descriptor.c ****     return (uint8_t const *)&desc_device;
  35              		.loc 1 46 5 view .LVU1
  47:SynaptiX_FDK/components/peripherals/usb_cdc_tiny/usb_descriptor.c **** }
  36              		.loc 1 47 1 is_stmt 0 view .LVU2
  37 0000 0048     		ldr	r0, .L2
  38 0002 7047     		bx	lr
  39              	.L3:
  40              		.align	2
  41              	.L2:
  42 0004 00000000 		.word	desc_device
  43              		.cfi_endproc
  44              	.LFE431:
  46              		.section	.text.tud_descriptor_configuration_cb,"ax",%progbits
  47              		.align	1
  48              		.global	tud_descriptor_configuration_cb
  49              		.syntax unified
  50              		.thumb
  51              		.thumb_func
  53              	tud_descriptor_configuration_cb:
  54              	.LVL0:
  55              	.LFB432:
  48:SynaptiX_FDK/components/peripherals/usb_cdc_tiny/usb_descriptor.c **** 
  49:SynaptiX_FDK/components/peripherals/usb_cdc_tiny/usb_descriptor.c **** /* ── HID Report Descriptor (chỉ compile khi CFG_TUD_HID = 1) ── */
  50:SynaptiX_FDK/components/peripherals/usb_cdc_tiny/usb_descriptor.c **** #if CFG_TUD_HID
  51:SynaptiX_FDK/components/peripherals/usb_cdc_tiny/usb_descriptor.c **** static const uint8_t hid_report_desc[] = {
  52:SynaptiX_FDK/components/peripherals/usb_cdc_tiny/usb_descriptor.c ****     TUD_HID_REPORT_DESC_KEYBOARD(HID_REPORT_ID(1)),
  53:SynaptiX_FDK/components/peripherals/usb_cdc_tiny/usb_descriptor.c ****     TUD_HID_REPORT_DESC_MOUSE   (HID_REPORT_ID(2)),
  54:SynaptiX_FDK/components/peripherals/usb_cdc_tiny/usb_descriptor.c **** };
  55:SynaptiX_FDK/components/peripherals/usb_cdc_tiny/usb_descriptor.c **** 
  56:SynaptiX_FDK/components/peripherals/usb_cdc_tiny/usb_descriptor.c **** uint8_t const *tud_hid_descriptor_report_cb(uint8_t instance) {
  57:SynaptiX_FDK/components/peripherals/usb_cdc_tiny/usb_descriptor.c ****     (void)instance;
  58:SynaptiX_FDK/components/peripherals/usb_cdc_tiny/usb_descriptor.c ****     return hid_report_desc;
  59:SynaptiX_FDK/components/peripherals/usb_cdc_tiny/usb_descriptor.c **** }
  60:SynaptiX_FDK/components/peripherals/usb_cdc_tiny/usb_descriptor.c **** #endif
  61:SynaptiX_FDK/components/peripherals/usb_cdc_tiny/usb_descriptor.c **** 
  62:SynaptiX_FDK/components/peripherals/usb_cdc_tiny/usb_descriptor.c **** /* ── Interface Numbers ── */
ARM GAS  C:\Users\DELL\AppData\Local\Temp\ccxUMlHQ.s 			page 3


  63:SynaptiX_FDK/components/peripherals/usb_cdc_tiny/usb_descriptor.c **** enum {
  64:SynaptiX_FDK/components/peripherals/usb_cdc_tiny/usb_descriptor.c ****     ITF_NUM_CDC_0 = 0,
  65:SynaptiX_FDK/components/peripherals/usb_cdc_tiny/usb_descriptor.c ****     ITF_NUM_CDC_0_DATA,
  66:SynaptiX_FDK/components/peripherals/usb_cdc_tiny/usb_descriptor.c **** #if CFG_TUD_HID
  67:SynaptiX_FDK/components/peripherals/usb_cdc_tiny/usb_descriptor.c ****     ITF_NUM_HID,
  68:SynaptiX_FDK/components/peripherals/usb_cdc_tiny/usb_descriptor.c **** #endif
  69:SynaptiX_FDK/components/peripherals/usb_cdc_tiny/usb_descriptor.c **** #ifdef CFG_TUD_MSC
  70:SynaptiX_FDK/components/peripherals/usb_cdc_tiny/usb_descriptor.c ****     ITF_NUM_MSC,             /* MSC */
  71:SynaptiX_FDK/components/peripherals/usb_cdc_tiny/usb_descriptor.c ****     ITF_NUM_TOTAL
  72:SynaptiX_FDK/components/peripherals/usb_cdc_tiny/usb_descriptor.c **** #endif
  73:SynaptiX_FDK/components/peripherals/usb_cdc_tiny/usb_descriptor.c **** };
  74:SynaptiX_FDK/components/peripherals/usb_cdc_tiny/usb_descriptor.c **** 
  75:SynaptiX_FDK/components/peripherals/usb_cdc_tiny/usb_descriptor.c **** /* ── Endpoints ── */
  76:SynaptiX_FDK/components/peripherals/usb_cdc_tiny/usb_descriptor.c **** #define EPNUM_CDC_0_NOTIF   0x81   // EP1 IN  – CDC notification
  77:SynaptiX_FDK/components/peripherals/usb_cdc_tiny/usb_descriptor.c **** #define EPNUM_CDC_0_OUT     0x02   // EP2 OUT – CDC data
  78:SynaptiX_FDK/components/peripherals/usb_cdc_tiny/usb_descriptor.c **** #define EPNUM_CDC_0_IN      0x82   // EP2 IN  – CDC data
  79:SynaptiX_FDK/components/peripherals/usb_cdc_tiny/usb_descriptor.c **** 
  80:SynaptiX_FDK/components/peripherals/usb_cdc_tiny/usb_descriptor.c **** /*  MSC  */
  81:SynaptiX_FDK/components/peripherals/usb_cdc_tiny/usb_descriptor.c **** #if CFG_TUD_MSC
  82:SynaptiX_FDK/components/peripherals/usb_cdc_tiny/usb_descriptor.c **** #define EPNUM_MSC_OUT       0x03
  83:SynaptiX_FDK/components/peripherals/usb_cdc_tiny/usb_descriptor.c **** #define EPNUM_MSC_IN        0x83
  84:SynaptiX_FDK/components/peripherals/usb_cdc_tiny/usb_descriptor.c **** #endif
  85:SynaptiX_FDK/components/peripherals/usb_cdc_tiny/usb_descriptor.c **** 
  86:SynaptiX_FDK/components/peripherals/usb_cdc_tiny/usb_descriptor.c **** #if CFG_TUD_HID
  87:SynaptiX_FDK/components/peripherals/usb_cdc_tiny/usb_descriptor.c **** #define EPNUM_HID           0x83   // EP3 IN  – HID
  88:SynaptiX_FDK/components/peripherals/usb_cdc_tiny/usb_descriptor.c **** #endif
  89:SynaptiX_FDK/components/peripherals/usb_cdc_tiny/usb_descriptor.c **** 
  90:SynaptiX_FDK/components/peripherals/usb_cdc_tiny/usb_descriptor.c **** /* ── Config Descriptor total length ── */
  91:SynaptiX_FDK/components/peripherals/usb_cdc_tiny/usb_descriptor.c **** #if CFG_TUD_MSC
  92:SynaptiX_FDK/components/peripherals/usb_cdc_tiny/usb_descriptor.c **** #define CONFIG_TOTAL_LEN  ( TUD_CONFIG_DESC_LEN                      \
  93:SynaptiX_FDK/components/peripherals/usb_cdc_tiny/usb_descriptor.c ****                           + TUD_CDC_DESC_LEN                         \
  94:SynaptiX_FDK/components/peripherals/usb_cdc_tiny/usb_descriptor.c ****                           + (CFG_TUD_HID ? TUD_HID_DESC_LEN : 0)   \
  95:SynaptiX_FDK/components/peripherals/usb_cdc_tiny/usb_descriptor.c ****                           + (CFG_TUD_MSC ? TUD_MSC_DESC_LEN : 0) )
  96:SynaptiX_FDK/components/peripherals/usb_cdc_tiny/usb_descriptor.c **** #endif
  97:SynaptiX_FDK/components/peripherals/usb_cdc_tiny/usb_descriptor.c **** 
  98:SynaptiX_FDK/components/peripherals/usb_cdc_tiny/usb_descriptor.c **** /* ── Configuration Descriptor ── */
  99:SynaptiX_FDK/components/peripherals/usb_cdc_tiny/usb_descriptor.c **** static uint8_t const desc_fs_configuration[] = {
 100:SynaptiX_FDK/components/peripherals/usb_cdc_tiny/usb_descriptor.c **** #if CFG_TUD_MSC
 101:SynaptiX_FDK/components/peripherals/usb_cdc_tiny/usb_descriptor.c ****     TUD_CONFIG_DESCRIPTOR(1, ITF_NUM_TOTAL, 0, CONFIG_TOTAL_LEN, 0x00, 100),
 102:SynaptiX_FDK/components/peripherals/usb_cdc_tiny/usb_descriptor.c **** #endif
 103:SynaptiX_FDK/components/peripherals/usb_cdc_tiny/usb_descriptor.c ****     TUD_CDC_DESCRIPTOR(ITF_NUM_CDC_0, 4, EPNUM_CDC_0_NOTIF, 8,
 104:SynaptiX_FDK/components/peripherals/usb_cdc_tiny/usb_descriptor.c ****                        EPNUM_CDC_0_OUT, EPNUM_CDC_0_IN, 64),
 105:SynaptiX_FDK/components/peripherals/usb_cdc_tiny/usb_descriptor.c **** 
 106:SynaptiX_FDK/components/peripherals/usb_cdc_tiny/usb_descriptor.c **** #if CFG_TUD_MSC
 107:SynaptiX_FDK/components/peripherals/usb_cdc_tiny/usb_descriptor.c ****     TUD_MSC_DESCRIPTOR(ITF_NUM_MSC, 6, EPNUM_MSC_OUT, EPNUM_MSC_IN, CFG_TUD_MSC_EP_BUFSIZE),
 108:SynaptiX_FDK/components/peripherals/usb_cdc_tiny/usb_descriptor.c **** #endif
 109:SynaptiX_FDK/components/peripherals/usb_cdc_tiny/usb_descriptor.c **** 
 110:SynaptiX_FDK/components/peripherals/usb_cdc_tiny/usb_descriptor.c **** #if CFG_TUD_HID
 111:SynaptiX_FDK/components/peripherals/usb_cdc_tiny/usb_descriptor.c ****     TUD_HID_DESCRIPTOR(ITF_NUM_HID, 5,
 112:SynaptiX_FDK/components/peripherals/usb_cdc_tiny/usb_descriptor.c ****                        HID_ITF_PROTOCOL_NONE,
 113:SynaptiX_FDK/components/peripherals/usb_cdc_tiny/usb_descriptor.c ****                        sizeof(hid_report_desc),
 114:SynaptiX_FDK/components/peripherals/usb_cdc_tiny/usb_descriptor.c ****                        EPNUM_HID, 16, 5),
 115:SynaptiX_FDK/components/peripherals/usb_cdc_tiny/usb_descriptor.c **** #endif
 116:SynaptiX_FDK/components/peripherals/usb_cdc_tiny/usb_descriptor.c **** };
 117:SynaptiX_FDK/components/peripherals/usb_cdc_tiny/usb_descriptor.c **** 
 118:SynaptiX_FDK/components/peripherals/usb_cdc_tiny/usb_descriptor.c **** uint8_t const *tud_descriptor_configuration_cb(uint8_t index) {
  56              		.loc 1 118 63 is_stmt 1 view -0
ARM GAS  C:\Users\DELL\AppData\Local\Temp\ccxUMlHQ.s 			page 4


  57              		.cfi_startproc
  58              		@ args = 0, pretend = 0, frame = 0
  59              		@ frame_needed = 0, uses_anonymous_args = 0
  60              		@ link register save eliminated.
 119:SynaptiX_FDK/components/peripherals/usb_cdc_tiny/usb_descriptor.c ****     (void)index;
  61              		.loc 1 119 5 view .LVU4
 120:SynaptiX_FDK/components/peripherals/usb_cdc_tiny/usb_descriptor.c ****     return desc_fs_configuration;
  62              		.loc 1 120 5 view .LVU5
 121:SynaptiX_FDK/components/peripherals/usb_cdc_tiny/usb_descriptor.c **** }
  63              		.loc 1 121 1 is_stmt 0 view .LVU6
  64 0000 0048     		ldr	r0, .L5
  65              	.LVL1:
  66              		.loc 1 121 1 view .LVU7
  67 0002 7047     		bx	lr
  68              	.L6:
  69              		.align	2
  70              	.L5:
  71 0004 00000000 		.word	desc_fs_configuration
  72              		.cfi_endproc
  73              	.LFE432:
  75              		.section	.rodata.tud_descriptor_string_cb.str1.4,"aMS",%progbits,1
  76              		.align	2
  77              	.LC0:
  78 0000 53544D33 		.ascii	"STM32H563_Logan\000"
  78      32483536 
  78      335F4C6F 
  78      67616E00 
  79              		.section	.text.tud_descriptor_string_cb,"ax",%progbits
  80              		.align	1
  81              		.global	tud_descriptor_string_cb
  82              		.syntax unified
  83              		.thumb
  84              		.thumb_func
  86              	tud_descriptor_string_cb:
  87              	.LVL2:
  88              	.LFB433:
 122:SynaptiX_FDK/components/peripherals/usb_cdc_tiny/usb_descriptor.c **** 
 123:SynaptiX_FDK/components/peripherals/usb_cdc_tiny/usb_descriptor.c **** /* ── String Descriptors ── */
 124:SynaptiX_FDK/components/peripherals/usb_cdc_tiny/usb_descriptor.c **** enum {
 125:SynaptiX_FDK/components/peripherals/usb_cdc_tiny/usb_descriptor.c ****     STRID_LANGID = 0,
 126:SynaptiX_FDK/components/peripherals/usb_cdc_tiny/usb_descriptor.c ****     STRID_MANUFACTURER,
 127:SynaptiX_FDK/components/peripherals/usb_cdc_tiny/usb_descriptor.c ****     STRID_PRODUCT,
 128:SynaptiX_FDK/components/peripherals/usb_cdc_tiny/usb_descriptor.c ****     STRID_SERIAL,
 129:SynaptiX_FDK/components/peripherals/usb_cdc_tiny/usb_descriptor.c ****     STRID_CDC_ITF,    // index 4
 130:SynaptiX_FDK/components/peripherals/usb_cdc_tiny/usb_descriptor.c **** #if CFG_TUD_HID
 131:SynaptiX_FDK/components/peripherals/usb_cdc_tiny/usb_descriptor.c ****     STRID_HID_ITF,    // index 5
 132:SynaptiX_FDK/components/peripherals/usb_cdc_tiny/usb_descriptor.c **** #endif
 133:SynaptiX_FDK/components/peripherals/usb_cdc_tiny/usb_descriptor.c **** };
 134:SynaptiX_FDK/components/peripherals/usb_cdc_tiny/usb_descriptor.c **** 
 135:SynaptiX_FDK/components/peripherals/usb_cdc_tiny/usb_descriptor.c **** static char const *string_desc_arr[] = {
 136:SynaptiX_FDK/components/peripherals/usb_cdc_tiny/usb_descriptor.c ****     [0] = (const char[]){ 0x09, 0x04 },
 137:SynaptiX_FDK/components/peripherals/usb_cdc_tiny/usb_descriptor.c ****     [1] = "STMicroelectronics",
 138:SynaptiX_FDK/components/peripherals/usb_cdc_tiny/usb_descriptor.c ****     [2] = "STM32H563 CDC"
 139:SynaptiX_FDK/components/peripherals/usb_cdc_tiny/usb_descriptor.c ****           #if CFG_TUD_HID
 140:SynaptiX_FDK/components/peripherals/usb_cdc_tiny/usb_descriptor.c ****           "+HID"
 141:SynaptiX_FDK/components/peripherals/usb_cdc_tiny/usb_descriptor.c ****           #endif
 142:SynaptiX_FDK/components/peripherals/usb_cdc_tiny/usb_descriptor.c ****           " Demo",
ARM GAS  C:\Users\DELL\AppData\Local\Temp\ccxUMlHQ.s 			page 5


 143:SynaptiX_FDK/components/peripherals/usb_cdc_tiny/usb_descriptor.c ****     [3] = NULL,                    // Serial từ UID
 144:SynaptiX_FDK/components/peripherals/usb_cdc_tiny/usb_descriptor.c ****     [4] = "TinyUSB CDC Port",
 145:SynaptiX_FDK/components/peripherals/usb_cdc_tiny/usb_descriptor.c **** #if CFG_TUD_HID
 146:SynaptiX_FDK/components/peripherals/usb_cdc_tiny/usb_descriptor.c ****     [5] = "TinyUSB HID KB+Mouse",
 147:SynaptiX_FDK/components/peripherals/usb_cdc_tiny/usb_descriptor.c **** #endif
 148:SynaptiX_FDK/components/peripherals/usb_cdc_tiny/usb_descriptor.c **** #if CFG_TUD_MSC
 149:SynaptiX_FDK/components/peripherals/usb_cdc_tiny/usb_descriptor.c ****     [6] = "TRACKINGFW MSC Storage"
 150:SynaptiX_FDK/components/peripherals/usb_cdc_tiny/usb_descriptor.c **** #endif
 151:SynaptiX_FDK/components/peripherals/usb_cdc_tiny/usb_descriptor.c **** };
 152:SynaptiX_FDK/components/peripherals/usb_cdc_tiny/usb_descriptor.c **** 
 153:SynaptiX_FDK/components/peripherals/usb_cdc_tiny/usb_descriptor.c **** static uint16_t _desc_str[33];
 154:SynaptiX_FDK/components/peripherals/usb_cdc_tiny/usb_descriptor.c **** 
 155:SynaptiX_FDK/components/peripherals/usb_cdc_tiny/usb_descriptor.c **** uint16_t const *tud_descriptor_string_cb(uint8_t index, uint16_t langid) {
  89              		.loc 1 155 74 is_stmt 1 view -0
  90              		.cfi_startproc
  91              		@ args = 0, pretend = 0, frame = 0
  92              		@ frame_needed = 0, uses_anonymous_args = 0
  93              		.loc 1 155 74 is_stmt 0 view .LVU9
  94 0000 10B5     		push	{r4, lr}
  95              	.LCFI0:
  96              		.cfi_def_cfa_offset 8
  97              		.cfi_offset 4, -8
  98              		.cfi_offset 14, -4
 156:SynaptiX_FDK/components/peripherals/usb_cdc_tiny/usb_descriptor.c ****     (void)langid;
  99              		.loc 1 156 5 is_stmt 1 view .LVU10
 157:SynaptiX_FDK/components/peripherals/usb_cdc_tiny/usb_descriptor.c ****     size_t chr_count;
 100              		.loc 1 157 5 view .LVU11
 158:SynaptiX_FDK/components/peripherals/usb_cdc_tiny/usb_descriptor.c **** 
 159:SynaptiX_FDK/components/peripherals/usb_cdc_tiny/usb_descriptor.c ****     switch (index) {
 101              		.loc 1 159 5 view .LVU12
 102 0002 78B1     		cbz	r0, .L8
 103 0004 0328     		cmp	r0, #3
 104 0006 25D0     		beq	.L17
 105              	.LBB2:
 160:SynaptiX_FDK/components/peripherals/usb_cdc_tiny/usb_descriptor.c ****         case STRID_LANGID:
 161:SynaptiX_FDK/components/peripherals/usb_cdc_tiny/usb_descriptor.c ****             memcpy(&_desc_str[1], string_desc_arr[0], 2);
 162:SynaptiX_FDK/components/peripherals/usb_cdc_tiny/usb_descriptor.c ****             chr_count = 1;
 163:SynaptiX_FDK/components/peripherals/usb_cdc_tiny/usb_descriptor.c ****             break;
 164:SynaptiX_FDK/components/peripherals/usb_cdc_tiny/usb_descriptor.c **** 
 165:SynaptiX_FDK/components/peripherals/usb_cdc_tiny/usb_descriptor.c ****        case STRID_SERIAL: {
 166:SynaptiX_FDK/components/peripherals/usb_cdc_tiny/usb_descriptor.c ****           const char *ser = "STM32H563_Logan";   
 167:SynaptiX_FDK/components/peripherals/usb_cdc_tiny/usb_descriptor.c ****           chr_count = strlen(ser);
 168:SynaptiX_FDK/components/peripherals/usb_cdc_tiny/usb_descriptor.c ****           for (size_t i = 0; i < chr_count; i++)
 169:SynaptiX_FDK/components/peripherals/usb_cdc_tiny/usb_descriptor.c ****               _desc_str[1 + i] = (uint16_t)ser[i];
 170:SynaptiX_FDK/components/peripherals/usb_cdc_tiny/usb_descriptor.c ****           break;
 171:SynaptiX_FDK/components/peripherals/usb_cdc_tiny/usb_descriptor.c ****       }
 172:SynaptiX_FDK/components/peripherals/usb_cdc_tiny/usb_descriptor.c **** 
 173:SynaptiX_FDK/components/peripherals/usb_cdc_tiny/usb_descriptor.c ****         default: {
 174:SynaptiX_FDK/components/peripherals/usb_cdc_tiny/usb_descriptor.c ****             size_t arr_len = sizeof(string_desc_arr) / sizeof(string_desc_arr[0]);
 106              		.loc 1 174 13 view .LVU13
 107              	.LVL3:
 175:SynaptiX_FDK/components/peripherals/usb_cdc_tiny/usb_descriptor.c ****             if (index >= arr_len || string_desc_arr[index] == NULL)
 108              		.loc 1 175 13 view .LVU14
 109              		.loc 1 175 16 is_stmt 0 view .LVU15
 110 0008 0628     		cmp	r0, #6
 111 000a 2DD8     		bhi	.L18
 112              		.loc 1 175 52 discriminator 1 view .LVU16
ARM GAS  C:\Users\DELL\AppData\Local\Temp\ccxUMlHQ.s 			page 6


 113 000c 174A     		ldr	r2, .L22
 114 000e 52F82040 		ldr	r4, [r2, r0, lsl #2]
 115              		.loc 1 175 34 discriminator 1 view .LVU17
 116 0012 9CB1     		cbz	r4, .L7
 176:SynaptiX_FDK/components/peripherals/usb_cdc_tiny/usb_descriptor.c ****                 return NULL;
 177:SynaptiX_FDK/components/peripherals/usb_cdc_tiny/usb_descriptor.c ****             const char *str = string_desc_arr[index];
 117              		.loc 1 177 13 is_stmt 1 view .LVU18
 118              	.LVL4:
 178:SynaptiX_FDK/components/peripherals/usb_cdc_tiny/usb_descriptor.c ****             chr_count = strlen(str);
 119              		.loc 1 178 13 view .LVU19
 120              		.loc 1 178 25 is_stmt 0 view .LVU20
 121 0014 2046     		mov	r0, r4
 122              	.LVL5:
 123              		.loc 1 178 25 view .LVU21
 124 0016 FFF7FEFF 		bl	strlen
 125              	.LVL6:
 179:SynaptiX_FDK/components/peripherals/usb_cdc_tiny/usb_descriptor.c ****             if (chr_count > 32) chr_count = 32;
 126              		.loc 1 179 13 is_stmt 1 view .LVU22
 127              		.loc 1 179 16 is_stmt 0 view .LVU23
 128 001a 2028     		cmp	r0, #32
 129 001c 00D9     		bls	.L14
 130              		.loc 1 179 43 discriminator 1 view .LVU24
 131 001e 2020     		movs	r0, #32
 132              	.LVL7:
 133              	.L14:
 180:SynaptiX_FDK/components/peripherals/usb_cdc_tiny/usb_descriptor.c ****             for (size_t i = 0; i < chr_count; i++)
 134              		.loc 1 180 13 is_stmt 1 view .LVU25
 135              	.LBB3:
 136              		.loc 1 180 18 view .LVU26
 137              		.loc 1 180 25 is_stmt 0 view .LVU27
 138 0020 0023     		movs	r3, #0
 139              		.loc 1 180 13 view .LVU28
 140 0022 1EE0     		b	.L15
 141              	.LVL8:
 142              	.L8:
 143              		.loc 1 180 13 view .LVU29
 144              	.LBE3:
 145              	.LBE2:
 161:SynaptiX_FDK/components/peripherals/usb_cdc_tiny/usb_descriptor.c ****             chr_count = 1;
 146              		.loc 1 161 13 is_stmt 1 view .LVU30
 147 0024 124B     		ldr	r3, .L22+4
 148 0026 40F20942 		movw	r2, #1033
 149 002a 5A80     		strh	r2, [r3, #2]	@ movhi
 162:SynaptiX_FDK/components/peripherals/usb_cdc_tiny/usb_descriptor.c ****             break;
 150              		.loc 1 162 13 view .LVU31
 151              	.LVL9:
 163:SynaptiX_FDK/components/peripherals/usb_cdc_tiny/usb_descriptor.c **** 
 152              		.loc 1 163 13 view .LVU32
 162:SynaptiX_FDK/components/peripherals/usb_cdc_tiny/usb_descriptor.c ****             break;
 153              		.loc 1 162 23 is_stmt 0 view .LVU33
 154 002c 0120     		movs	r0, #1
 155              	.LVL10:
 156              	.L11:
 181:SynaptiX_FDK/components/peripherals/usb_cdc_tiny/usb_descriptor.c ****                 _desc_str[1 + i] = (uint16_t)str[i];
 182:SynaptiX_FDK/components/peripherals/usb_cdc_tiny/usb_descriptor.c ****             break;
 183:SynaptiX_FDK/components/peripherals/usb_cdc_tiny/usb_descriptor.c ****         }
 184:SynaptiX_FDK/components/peripherals/usb_cdc_tiny/usb_descriptor.c ****     }
ARM GAS  C:\Users\DELL\AppData\Local\Temp\ccxUMlHQ.s 			page 7


 185:SynaptiX_FDK/components/peripherals/usb_cdc_tiny/usb_descriptor.c **** 
 186:SynaptiX_FDK/components/peripherals/usb_cdc_tiny/usb_descriptor.c ****     _desc_str[0] = (uint16_t)((TUSB_DESC_STRING << 8) | (2 * chr_count + 2));
 157              		.loc 1 186 5 is_stmt 1 view .LVU34
 158              		.loc 1 186 72 is_stmt 0 view .LVU35
 159 002e 431C     		adds	r3, r0, #1
 160 0030 5B00     		lsls	r3, r3, #1
 161 0032 9BB2     		uxth	r3, r3
 162              		.loc 1 186 20 view .LVU36
 163 0034 43F44073 		orr	r3, r3, #768
 164              		.loc 1 186 18 view .LVU37
 165 0038 0D4C     		ldr	r4, .L22+4
 166 003a 2380     		strh	r3, [r4]	@ movhi
 187:SynaptiX_FDK/components/peripherals/usb_cdc_tiny/usb_descriptor.c ****     return _desc_str;
 167              		.loc 1 187 5 is_stmt 1 view .LVU38
 168              	.LVL11:
 169              	.L7:
 188:SynaptiX_FDK/components/peripherals/usb_cdc_tiny/usb_descriptor.c **** }...
 170              		.loc 1 188 1 is_stmt 0 view .LVU39
 171 003c 2046     		mov	r0, r4
 172 003e 10BD     		pop	{r4, pc}
 173              	.LVL12:
 174              	.L12:
 175              	.LBB5:
 176              	.LBB6:
 169:SynaptiX_FDK/components/peripherals/usb_cdc_tiny/usb_descriptor.c ****               _desc_str[1 + i] = (uint16_t)ser[i];
 177              		.loc 1 169 15 is_stmt 1 view .LVU40
 169:SynaptiX_FDK/components/peripherals/usb_cdc_tiny/usb_descriptor.c ****               _desc_str[1 + i] = (uint16_t)ser[i];
 178              		.loc 1 169 47 is_stmt 0 view .LVU41
 179 0040 0C4A     		ldr	r2, .L22+8
 180 0042 D15C     		ldrb	r1, [r2, r3]	@ zero_extendqisi2
 169:SynaptiX_FDK/components/peripherals/usb_cdc_tiny/usb_descriptor.c ****               _desc_str[1 + i] = (uint16_t)ser[i];
 181              		.loc 1 169 27 view .LVU42
 182 0044 0133     		adds	r3, r3, #1
 183              	.LVL13:
 169:SynaptiX_FDK/components/peripherals/usb_cdc_tiny/usb_descriptor.c ****               _desc_str[1 + i] = (uint16_t)ser[i];
 184              		.loc 1 169 32 view .LVU43
 185 0046 0A4A     		ldr	r2, .L22+4
 186 0048 22F81310 		strh	r1, [r2, r3, lsl #1]	@ movhi
 168:SynaptiX_FDK/components/peripherals/usb_cdc_tiny/usb_descriptor.c ****           for (size_t i = 0; i < chr_count; i++)
 187              		.loc 1 168 46 is_stmt 1 discriminator 3 view .LVU44
 188              	.LVL14:
 189              	.L9:
 168:SynaptiX_FDK/components/peripherals/usb_cdc_tiny/usb_descriptor.c ****           for (size_t i = 0; i < chr_count; i++)
 190              		.loc 1 168 32 discriminator 1 view .LVU45
 191 004c 0E2B     		cmp	r3, #14
 192 004e F7D9     		bls	.L12
 193              	.LBE6:
 167:SynaptiX_FDK/components/peripherals/usb_cdc_tiny/usb_descriptor.c ****           chr_count = strlen(ser);
 194              		.loc 1 167 23 is_stmt 0 view .LVU46
 195 0050 0F20     		movs	r0, #15
 196              	.LVL15:
 167:SynaptiX_FDK/components/peripherals/usb_cdc_tiny/usb_descriptor.c ****           chr_count = strlen(ser);
 197              		.loc 1 167 23 view .LVU47
 198 0052 ECE7     		b	.L11
 199              	.LVL16:
 200              	.L17:
 167:SynaptiX_FDK/components/peripherals/usb_cdc_tiny/usb_descriptor.c ****           chr_count = strlen(ser);
ARM GAS  C:\Users\DELL\AppData\Local\Temp\ccxUMlHQ.s 			page 8


 201              		.loc 1 167 23 view .LVU48
 202              	.LBE5:
 159:SynaptiX_FDK/components/peripherals/usb_cdc_tiny/usb_descriptor.c ****     switch (index) {
 203              		.loc 1 159 5 view .LVU49
 204 0054 0023     		movs	r3, #0
 205 0056 F9E7     		b	.L9
 206              	.LVL17:
 207              	.L16:
 208              	.LBB7:
 209              	.LBB4:
 181:SynaptiX_FDK/components/peripherals/usb_cdc_tiny/usb_descriptor.c ****                 _desc_str[1 + i] = (uint16_t)str[i];
 210              		.loc 1 181 17 is_stmt 1 view .LVU50
 181:SynaptiX_FDK/components/peripherals/usb_cdc_tiny/usb_descriptor.c ****                 _desc_str[1 + i] = (uint16_t)str[i];
 211              		.loc 1 181 49 is_stmt 0 view .LVU51
 212 0058 E15C     		ldrb	r1, [r4, r3]	@ zero_extendqisi2
 181:SynaptiX_FDK/components/peripherals/usb_cdc_tiny/usb_descriptor.c ****                 _desc_str[1 + i] = (uint16_t)str[i];
 213              		.loc 1 181 29 view .LVU52
 214 005a 0133     		adds	r3, r3, #1
 215              	.LVL18:
 181:SynaptiX_FDK/components/peripherals/usb_cdc_tiny/usb_descriptor.c ****                 _desc_str[1 + i] = (uint16_t)str[i];
 216              		.loc 1 181 34 view .LVU53
 217 005c 044A     		ldr	r2, .L22+4
 218 005e 22F81310 		strh	r1, [r2, r3, lsl #1]	@ movhi
 180:SynaptiX_FDK/components/peripherals/usb_cdc_tiny/usb_descriptor.c ****             for (size_t i = 0; i < chr_count; i++)
 219              		.loc 1 180 48 is_stmt 1 discriminator 3 view .LVU54
 220              	.LVL19:
 221              	.L15:
 180:SynaptiX_FDK/components/peripherals/usb_cdc_tiny/usb_descriptor.c ****             for (size_t i = 0; i < chr_count; i++)
 222              		.loc 1 180 34 discriminator 1 view .LVU55
 223 0062 9842     		cmp	r0, r3
 224 0064 F8D8     		bhi	.L16
 225 0066 E2E7     		b	.L11
 226              	.LVL20:
 227              	.L18:
 180:SynaptiX_FDK/components/peripherals/usb_cdc_tiny/usb_descriptor.c ****             for (size_t i = 0; i < chr_count; i++)
 228              		.loc 1 180 34 is_stmt 0 discriminator 1 view .LVU56
 229              	.LBE4:
 176:SynaptiX_FDK/components/peripherals/usb_cdc_tiny/usb_descriptor.c ****                 return NULL;
 230              		.loc 1 176 24 view .LVU57
 231 0068 0024     		movs	r4, #0
 232 006a E7E7     		b	.L7
 233              	.L23:
 234              		.align	2
 235              	.L22:
 236 006c 00000000 		.word	string_desc_arr
 237 0070 00000000 		.word	_desc_str
 238 0074 00000000 		.word	.LC0
 239              	.LBE7:
 240              		.cfi_endproc
 241              	.LFE433:
 243              		.section	.bss._desc_str,"aw",%nobits
 244              		.align	2
 247              	_desc_str:
 248 0000 00000000 		.space	66
 248      00000000 
 248      00000000 
 248      00000000 
ARM GAS  C:\Users\DELL\AppData\Local\Temp\ccxUMlHQ.s 			page 9


 248      00000000 
 249              		.section	.rodata.str1.4,"aMS",%progbits,1
 250              		.align	2
 251              	.LC1:
 252 0000 53544D69 		.ascii	"STMicroelectronics\000"
 252      63726F65 
 252      6C656374 
 252      726F6E69 
 252      637300
 253 0013 00       		.align	2
 254              	.LC2:
 255 0014 53544D33 		.ascii	"STM32H563 CDC Demo\000"
 255      32483536 
 255      33204344 
 255      43204465 
 255      6D6F00
 256 0027 00       		.align	2
 257              	.LC3:
 258 0028 54696E79 		.ascii	"TinyUSB CDC Port\000"
 258      55534220 
 258      43444320 
 258      506F7274 
 258      00
 259 0039 000000   		.align	2
 260              	.LC4:
 261 003c 54524143 		.ascii	"TRACKINGFW MSC Storage\000"
 261      4B494E47 
 261      4657204D 
 261      53432053 
 261      746F7261 
 262              		.section	.rodata.string_desc_arr,"a"
 263              		.align	2
 266              	string_desc_arr:
 267 0000 00000000 		.word	__compound_literal.0
 268 0004 00000000 		.word	.LC1
 269 0008 14000000 		.word	.LC2
 270 000c 00000000 		.word	0
 271 0010 28000000 		.word	.LC3
 272 0014 00000000 		.space	4
 273 0018 3C000000 		.word	.LC4
 274              		.section	.rodata.__compound_literal.0,"a"
 275              		.align	2
 278              	__compound_literal.0:
 279 0000 09       		.byte	9
 280 0001 04       		.byte	4
 281              		.section	.rodata.desc_fs_configuration,"a"
 282              		.align	2
 285              	desc_fs_configuration:
 286 0000 09026200 		.ascii	"\011\002b\000\003\001\000\2002\010\013\000\002\002\002"
 286      03010080 
 286      32080B00 
 286      020202
 287 000f 00000904 		.ascii	"\000\000\011\004\000\000\001\002\002\000\004\005$\000"
 287      00000102 
 287      02000405 
 287      2400
 288 001d 20010524 		.ascii	" \001\005$\001\000\001\004$\002\006\005$\006\000\001"
ARM GAS  C:\Users\DELL\AppData\Local\Temp\ccxUMlHQ.s 			page 10


 288      01000104 
 288      24020605 
 288      24060001 
 289 002d 07058103 		.ascii	"\007\005\201\003\010\000\001\011\004\001\000\002\012"
 289      08000109 
 289      04010002 
 289      0A
 290 003a 00000007 		.ascii	"\000\000\000\007\005\002\002@\000\000\007\005\202\002"
 290      05020240 
 290      00000705 
 290      8202
 291 0048 40000009 		.ascii	"@\000\000\011\004\002\000\002\010\006P\006\007\005\003"
 291      04020002 
 291      08065006 
 291      070503
 292 0057 02400000 		.ascii	"\002@\000\000\007\005\203\002@\000\000"
 292      07058302 
 292      400000
 293              		.section	.rodata.desc_device,"a"
 294              		.align	2
 297              	desc_device:
 298 0000 12       		.byte	18
 299 0001 01       		.byte	1
 300 0002 0002     		.short	512
 301 0004 EF       		.byte	-17
 302 0005 02       		.byte	2
 303 0006 01       		.byte	1
 304 0007 40       		.byte	64
 305 0008 FECA     		.short	-13570
 306 000a 0340     		.short	16387
 307 000c 0001     		.short	256
 308 000e 01       		.byte	1
 309 000f 02       		.byte	2
 310 0010 03       		.byte	3
 311 0011 01       		.byte	1
 312              		.text
 313              	.Letext0:
 314              		.file 2 "D:\\stm32cubeclt\\STM32CubeCLT_1.21.0\\GNU-tools-for-STM32\\bin\\../lib/gcc/arm-none-eabi
 315              		.file 3 "D:\\stm32cubeclt\\STM32CubeCLT_1.21.0\\GNU-tools-for-STM32\\bin\\../lib/gcc/arm-none-eabi
 316              		.file 4 "D:\\stm32cubeclt\\STM32CubeCLT_1.21.0\\GNU-tools-for-STM32\\bin\\../lib/gcc/arm-none-eabi
 317              		.file 5 "Drivers/STM32H5xx_HAL_Driver/Inc/stm32h5xx_ll_lptim.h"
 318              		.file 6 "SynaptiX_FDK/lib/tinyusb/src/common/tusb_types.h"
 319              		.file 7 "SynaptiX_FDK/lib/tinyusb/src/class/cdc/cdc.h"
 320              		.file 8 "SynaptiX_FDK/lib/tinyusb/src/class/msc/msc.h"
 321              		.file 9 "D:\\stm32cubeclt\\STM32CubeCLT_1.21.0\\GNU-tools-for-STM32\\bin\\../lib/gcc/arm-none-eabi
ARM GAS  C:\Users\DELL\AppData\Local\Temp\ccxUMlHQ.s 			page 11


DEFINED SYMBOLS
                            *ABS*:00000000 usb_descriptor.c
C:\Users\DELL\AppData\Local\Temp\ccxUMlHQ.s:22     .text.tud_descriptor_device_cb:00000000 $t
C:\Users\DELL\AppData\Local\Temp\ccxUMlHQ.s:28     .text.tud_descriptor_device_cb:00000000 tud_descriptor_device_cb
C:\Users\DELL\AppData\Local\Temp\ccxUMlHQ.s:42     .text.tud_descriptor_device_cb:00000004 $d
C:\Users\DELL\AppData\Local\Temp\ccxUMlHQ.s:297    .rodata.desc_device:00000000 desc_device
C:\Users\DELL\AppData\Local\Temp\ccxUMlHQ.s:47     .text.tud_descriptor_configuration_cb:00000000 $t
C:\Users\DELL\AppData\Local\Temp\ccxUMlHQ.s:53     .text.tud_descriptor_configuration_cb:00000000 tud_descriptor_configuration_cb
C:\Users\DELL\AppData\Local\Temp\ccxUMlHQ.s:71     .text.tud_descriptor_configuration_cb:00000004 $d
C:\Users\DELL\AppData\Local\Temp\ccxUMlHQ.s:285    .rodata.desc_fs_configuration:00000000 desc_fs_configuration
C:\Users\DELL\AppData\Local\Temp\ccxUMlHQ.s:76     .rodata.tud_descriptor_string_cb.str1.4:00000000 $d
C:\Users\DELL\AppData\Local\Temp\ccxUMlHQ.s:80     .text.tud_descriptor_string_cb:00000000 $t
C:\Users\DELL\AppData\Local\Temp\ccxUMlHQ.s:86     .text.tud_descriptor_string_cb:00000000 tud_descriptor_string_cb
C:\Users\DELL\AppData\Local\Temp\ccxUMlHQ.s:236    .text.tud_descriptor_string_cb:0000006c $d
C:\Users\DELL\AppData\Local\Temp\ccxUMlHQ.s:266    .rodata.string_desc_arr:00000000 string_desc_arr
C:\Users\DELL\AppData\Local\Temp\ccxUMlHQ.s:247    .bss._desc_str:00000000 _desc_str
C:\Users\DELL\AppData\Local\Temp\ccxUMlHQ.s:244    .bss._desc_str:00000000 $d
C:\Users\DELL\AppData\Local\Temp\ccxUMlHQ.s:250    .rodata.str1.4:00000000 $d
C:\Users\DELL\AppData\Local\Temp\ccxUMlHQ.s:263    .rodata.string_desc_arr:00000000 $d
C:\Users\DELL\AppData\Local\Temp\ccxUMlHQ.s:278    .rodata.__compound_literal.0:00000000 __compound_literal.0
C:\Users\DELL\AppData\Local\Temp\ccxUMlHQ.s:275    .rodata.__compound_literal.0:00000000 $d
C:\Users\DELL\AppData\Local\Temp\ccxUMlHQ.s:282    .rodata.desc_fs_configuration:00000000 $d
C:\Users\DELL\AppData\Local\Temp\ccxUMlHQ.s:294    .rodata.desc_device:00000000 $d

UNDEFINED SYMBOLS
strlen
