ARM GAS  C:\Users\DELL\AppData\Local\Temp\ccYJ4WIi.s 			page 1


   1              		.cpu cortex-m33
   2              		.arch armv8-m.main
   3              		.fpu fpv5-sp-d16
   4              		.arch_extension dsp
   5              		.eabi_attribute 27, 1
   6              		.eabi_attribute 28, 1
   7              		.eabi_attribute 20, 1
   8              		.eabi_attribute 21, 1
   9              		.eabi_attribute 23, 3
  10              		.eabi_attribute 24, 1
  11              		.eabi_attribute 25, 1
  12              		.eabi_attribute 26, 1
  13              		.eabi_attribute 30, 1
  14              		.eabi_attribute 34, 1
  15              		.eabi_attribute 18, 4
  16              		.file	"usbd.c"
  17              		.text
  18              	.Ltext0:
  19              		.cfi_sections	.debug_frame
  20              		.file 1 "SynaptiX_FDK/lib/tinyusb/src/device/usbd.c"
  21              		.section	.text.tud_vendor_control_xfer_cb,"ax",%progbits
  22              		.align	1
  23              		.weak	tud_vendor_control_xfer_cb
  24              		.syntax unified
  25              		.thumb
  26              		.thumb_func
  28              	tud_vendor_control_xfer_cb:
  29              	.LVL0:
  30              	.LFB459:
   1:SynaptiX_FDK/lib/tinyusb/src/device/usbd.c **** /*
   2:SynaptiX_FDK/lib/tinyusb/src/device/usbd.c ****  * The MIT License (MIT)
   3:SynaptiX_FDK/lib/tinyusb/src/device/usbd.c ****  *
   4:SynaptiX_FDK/lib/tinyusb/src/device/usbd.c ****  * Copyright (c) 2019 Ha Thach (tinyusb.org)
   5:SynaptiX_FDK/lib/tinyusb/src/device/usbd.c ****  *
   6:SynaptiX_FDK/lib/tinyusb/src/device/usbd.c ****  * Permission is hereby granted, free of charge, to any person obtaining a copy
   7:SynaptiX_FDK/lib/tinyusb/src/device/usbd.c ****  * of this software and associated documentation files (the "Software"), to deal
   8:SynaptiX_FDK/lib/tinyusb/src/device/usbd.c ****  * in the Software without restriction, including without limitation the rights
   9:SynaptiX_FDK/lib/tinyusb/src/device/usbd.c ****  * to use, copy, modify, merge, publish, distribute, sublicense, and/or sell
  10:SynaptiX_FDK/lib/tinyusb/src/device/usbd.c ****  * copies of the Software, and to permit persons to whom the Software is
  11:SynaptiX_FDK/lib/tinyusb/src/device/usbd.c ****  * furnished to do so, subject to the following conditions:
  12:SynaptiX_FDK/lib/tinyusb/src/device/usbd.c ****  *
  13:SynaptiX_FDK/lib/tinyusb/src/device/usbd.c ****  * The above copyright notice and this permission notice shall be included in
  14:SynaptiX_FDK/lib/tinyusb/src/device/usbd.c ****  * all copies or substantial portions of the Software.
  15:SynaptiX_FDK/lib/tinyusb/src/device/usbd.c ****  *
  16:SynaptiX_FDK/lib/tinyusb/src/device/usbd.c ****  * THE SOFTWARE IS PROVIDED "AS IS", WITHOUT WARRANTY OF ANY KIND, EXPRESS OR
  17:SynaptiX_FDK/lib/tinyusb/src/device/usbd.c ****  * IMPLIED, INCLUDING BUT NOT LIMITED TO THE WARRANTIES OF MERCHANTABILITY,
  18:SynaptiX_FDK/lib/tinyusb/src/device/usbd.c ****  * FITNESS FOR A PARTICULAR PURPOSE AND NONINFRINGEMENT. IN NO EVENT SHALL THE
  19:SynaptiX_FDK/lib/tinyusb/src/device/usbd.c ****  * AUTHORS OR COPYRIGHT HOLDERS BE LIABLE FOR ANY CLAIM, DAMAGES OR OTHER
  20:SynaptiX_FDK/lib/tinyusb/src/device/usbd.c ****  * LIABILITY, WHETHER IN AN ACTION OF CONTRACT, TORT OR OTHERWISE, ARISING FROM,
  21:SynaptiX_FDK/lib/tinyusb/src/device/usbd.c ****  * OUT OF OR IN CONNECTION WITH THE SOFTWARE OR THE USE OR OTHER DEALINGS IN
  22:SynaptiX_FDK/lib/tinyusb/src/device/usbd.c ****  * THE SOFTWARE.
  23:SynaptiX_FDK/lib/tinyusb/src/device/usbd.c ****  *
  24:SynaptiX_FDK/lib/tinyusb/src/device/usbd.c ****  * This file is part of the TinyUSB stack.
  25:SynaptiX_FDK/lib/tinyusb/src/device/usbd.c ****  */
  26:SynaptiX_FDK/lib/tinyusb/src/device/usbd.c **** 
  27:SynaptiX_FDK/lib/tinyusb/src/device/usbd.c **** #include "tusb_option.h"
  28:SynaptiX_FDK/lib/tinyusb/src/device/usbd.c **** 
ARM GAS  C:\Users\DELL\AppData\Local\Temp\ccYJ4WIi.s 			page 2


  29:SynaptiX_FDK/lib/tinyusb/src/device/usbd.c **** #if CFG_TUD_ENABLED
  30:SynaptiX_FDK/lib/tinyusb/src/device/usbd.c **** 
  31:SynaptiX_FDK/lib/tinyusb/src/device/usbd.c **** #include "device/dcd.h"
  32:SynaptiX_FDK/lib/tinyusb/src/device/usbd.c **** #include "tusb.h"
  33:SynaptiX_FDK/lib/tinyusb/src/device/usbd.c **** #include "common/tusb_private.h"
  34:SynaptiX_FDK/lib/tinyusb/src/device/usbd.c **** 
  35:SynaptiX_FDK/lib/tinyusb/src/device/usbd.c **** #include "device/usbd.h"
  36:SynaptiX_FDK/lib/tinyusb/src/device/usbd.c **** #include "device/usbd_pvt.h"
  37:SynaptiX_FDK/lib/tinyusb/src/device/usbd.c **** 
  38:SynaptiX_FDK/lib/tinyusb/src/device/usbd.c **** //--------------------------------------------------------------------+
  39:SynaptiX_FDK/lib/tinyusb/src/device/usbd.c **** // USBD Configuration
  40:SynaptiX_FDK/lib/tinyusb/src/device/usbd.c **** //--------------------------------------------------------------------+
  41:SynaptiX_FDK/lib/tinyusb/src/device/usbd.c **** #ifndef CFG_TUD_TASK_QUEUE_SZ
  42:SynaptiX_FDK/lib/tinyusb/src/device/usbd.c ****   #define CFG_TUD_TASK_QUEUE_SZ   16
  43:SynaptiX_FDK/lib/tinyusb/src/device/usbd.c **** #endif
  44:SynaptiX_FDK/lib/tinyusb/src/device/usbd.c **** 
  45:SynaptiX_FDK/lib/tinyusb/src/device/usbd.c **** //--------------------------------------------------------------------+
  46:SynaptiX_FDK/lib/tinyusb/src/device/usbd.c **** // Weak stubs: invoked if no strong implementation is available
  47:SynaptiX_FDK/lib/tinyusb/src/device/usbd.c **** //--------------------------------------------------------------------+
  48:SynaptiX_FDK/lib/tinyusb/src/device/usbd.c **** TU_ATTR_WEAK void tud_event_hook_cb(uint8_t rhport, uint32_t eventid, bool in_isr) {
  49:SynaptiX_FDK/lib/tinyusb/src/device/usbd.c ****   (void) rhport; (void) eventid; (void) in_isr;
  50:SynaptiX_FDK/lib/tinyusb/src/device/usbd.c **** }
  51:SynaptiX_FDK/lib/tinyusb/src/device/usbd.c **** 
  52:SynaptiX_FDK/lib/tinyusb/src/device/usbd.c **** TU_ATTR_WEAK void tud_sof_cb(uint32_t frame_count) {
  53:SynaptiX_FDK/lib/tinyusb/src/device/usbd.c ****   (void) frame_count;
  54:SynaptiX_FDK/lib/tinyusb/src/device/usbd.c **** }
  55:SynaptiX_FDK/lib/tinyusb/src/device/usbd.c **** 
  56:SynaptiX_FDK/lib/tinyusb/src/device/usbd.c **** TU_ATTR_WEAK uint8_t const* tud_descriptor_bos_cb(void) {
  57:SynaptiX_FDK/lib/tinyusb/src/device/usbd.c ****   return NULL;
  58:SynaptiX_FDK/lib/tinyusb/src/device/usbd.c **** }
  59:SynaptiX_FDK/lib/tinyusb/src/device/usbd.c **** 
  60:SynaptiX_FDK/lib/tinyusb/src/device/usbd.c **** TU_ATTR_WEAK uint8_t const* tud_descriptor_device_qualifier_cb(void) {
  61:SynaptiX_FDK/lib/tinyusb/src/device/usbd.c ****   return NULL;
  62:SynaptiX_FDK/lib/tinyusb/src/device/usbd.c **** }
  63:SynaptiX_FDK/lib/tinyusb/src/device/usbd.c **** 
  64:SynaptiX_FDK/lib/tinyusb/src/device/usbd.c **** TU_ATTR_WEAK uint8_t const* tud_descriptor_other_speed_configuration_cb(uint8_t index) {
  65:SynaptiX_FDK/lib/tinyusb/src/device/usbd.c ****   (void) index;
  66:SynaptiX_FDK/lib/tinyusb/src/device/usbd.c ****   return NULL;
  67:SynaptiX_FDK/lib/tinyusb/src/device/usbd.c **** }
  68:SynaptiX_FDK/lib/tinyusb/src/device/usbd.c **** 
  69:SynaptiX_FDK/lib/tinyusb/src/device/usbd.c **** TU_ATTR_WEAK void tud_mount_cb(void) {
  70:SynaptiX_FDK/lib/tinyusb/src/device/usbd.c **** }
  71:SynaptiX_FDK/lib/tinyusb/src/device/usbd.c **** 
  72:SynaptiX_FDK/lib/tinyusb/src/device/usbd.c **** TU_ATTR_WEAK void tud_umount_cb(void) {
  73:SynaptiX_FDK/lib/tinyusb/src/device/usbd.c **** }
  74:SynaptiX_FDK/lib/tinyusb/src/device/usbd.c **** 
  75:SynaptiX_FDK/lib/tinyusb/src/device/usbd.c **** TU_ATTR_WEAK void tud_suspend_cb(bool remote_wakeup_en) {
  76:SynaptiX_FDK/lib/tinyusb/src/device/usbd.c ****   (void) remote_wakeup_en;
  77:SynaptiX_FDK/lib/tinyusb/src/device/usbd.c **** }
  78:SynaptiX_FDK/lib/tinyusb/src/device/usbd.c **** 
  79:SynaptiX_FDK/lib/tinyusb/src/device/usbd.c **** TU_ATTR_WEAK void tud_resume_cb(void) {
  80:SynaptiX_FDK/lib/tinyusb/src/device/usbd.c **** }
  81:SynaptiX_FDK/lib/tinyusb/src/device/usbd.c **** 
  82:SynaptiX_FDK/lib/tinyusb/src/device/usbd.c **** TU_ATTR_WEAK bool tud_vendor_control_xfer_cb(uint8_t rhport, uint8_t stage, tusb_control_request_t 
  31              		.loc 1 82 116 view -0
  32              		.cfi_startproc
  33              		@ args = 0, pretend = 0, frame = 0
ARM GAS  C:\Users\DELL\AppData\Local\Temp\ccYJ4WIi.s 			page 3


  34              		@ frame_needed = 0, uses_anonymous_args = 0
  35              		@ link register save eliminated.
  83:SynaptiX_FDK/lib/tinyusb/src/device/usbd.c ****   (void) rhport; (void) stage; (void) request;
  36              		.loc 1 83 3 view .LVU1
  37              		.loc 1 83 18 view .LVU2
  38              		.loc 1 83 32 view .LVU3
  84:SynaptiX_FDK/lib/tinyusb/src/device/usbd.c ****   return false;
  39              		.loc 1 84 3 view .LVU4
  85:SynaptiX_FDK/lib/tinyusb/src/device/usbd.c **** }
  40              		.loc 1 85 1 is_stmt 0 view .LVU5
  41 0000 0020     		movs	r0, #0
  42              	.LVL1:
  43              		.loc 1 85 1 view .LVU6
  44 0002 7047     		bx	lr
  45              		.cfi_endproc
  46              	.LFE459:
  48              		.section	.text.configuration_reset,"ax",%progbits
  49              		.align	1
  50              		.syntax unified
  51              		.thumb
  52              		.thumb_func
  54              	configuration_reset:
  55              	.LVL2:
  56              	.LFB483:
  86:SynaptiX_FDK/lib/tinyusb/src/device/usbd.c **** 
  87:SynaptiX_FDK/lib/tinyusb/src/device/usbd.c **** TU_ATTR_WEAK bool dcd_deinit(uint8_t rhport) {
  88:SynaptiX_FDK/lib/tinyusb/src/device/usbd.c ****   (void) rhport;
  89:SynaptiX_FDK/lib/tinyusb/src/device/usbd.c ****   return false;
  90:SynaptiX_FDK/lib/tinyusb/src/device/usbd.c **** }
  91:SynaptiX_FDK/lib/tinyusb/src/device/usbd.c **** 
  92:SynaptiX_FDK/lib/tinyusb/src/device/usbd.c **** TU_ATTR_WEAK void dcd_connect(uint8_t rhport) {
  93:SynaptiX_FDK/lib/tinyusb/src/device/usbd.c ****   (void) rhport;
  94:SynaptiX_FDK/lib/tinyusb/src/device/usbd.c **** }
  95:SynaptiX_FDK/lib/tinyusb/src/device/usbd.c **** 
  96:SynaptiX_FDK/lib/tinyusb/src/device/usbd.c **** TU_ATTR_WEAK void dcd_disconnect(uint8_t rhport) {
  97:SynaptiX_FDK/lib/tinyusb/src/device/usbd.c ****   (void) rhport;
  98:SynaptiX_FDK/lib/tinyusb/src/device/usbd.c **** }
  99:SynaptiX_FDK/lib/tinyusb/src/device/usbd.c **** 
 100:SynaptiX_FDK/lib/tinyusb/src/device/usbd.c **** TU_ATTR_WEAK bool dcd_dcache_clean(const void* addr, uint32_t data_size) {
 101:SynaptiX_FDK/lib/tinyusb/src/device/usbd.c ****   (void) addr; (void) data_size;
 102:SynaptiX_FDK/lib/tinyusb/src/device/usbd.c ****   return true;
 103:SynaptiX_FDK/lib/tinyusb/src/device/usbd.c **** }
 104:SynaptiX_FDK/lib/tinyusb/src/device/usbd.c **** 
 105:SynaptiX_FDK/lib/tinyusb/src/device/usbd.c **** TU_ATTR_WEAK bool dcd_dcache_invalidate(const void* addr, uint32_t data_size) {
 106:SynaptiX_FDK/lib/tinyusb/src/device/usbd.c ****   (void) addr; (void) data_size;
 107:SynaptiX_FDK/lib/tinyusb/src/device/usbd.c ****   return true;
 108:SynaptiX_FDK/lib/tinyusb/src/device/usbd.c **** }
 109:SynaptiX_FDK/lib/tinyusb/src/device/usbd.c **** 
 110:SynaptiX_FDK/lib/tinyusb/src/device/usbd.c **** TU_ATTR_WEAK bool dcd_dcache_clean_invalidate(const void* addr, uint32_t data_size) {
 111:SynaptiX_FDK/lib/tinyusb/src/device/usbd.c ****   (void) addr; (void) data_size;
 112:SynaptiX_FDK/lib/tinyusb/src/device/usbd.c ****   return true;
 113:SynaptiX_FDK/lib/tinyusb/src/device/usbd.c **** }
 114:SynaptiX_FDK/lib/tinyusb/src/device/usbd.c **** 
 115:SynaptiX_FDK/lib/tinyusb/src/device/usbd.c **** //--------------------------------------------------------------------+
 116:SynaptiX_FDK/lib/tinyusb/src/device/usbd.c **** // Device Data
 117:SynaptiX_FDK/lib/tinyusb/src/device/usbd.c **** //--------------------------------------------------------------------+
 118:SynaptiX_FDK/lib/tinyusb/src/device/usbd.c **** typedef struct {
ARM GAS  C:\Users\DELL\AppData\Local\Temp\ccYJ4WIi.s 			page 4


 119:SynaptiX_FDK/lib/tinyusb/src/device/usbd.c ****   // Note: these may share an enum state
 120:SynaptiX_FDK/lib/tinyusb/src/device/usbd.c ****   volatile uint8_t connected;
 121:SynaptiX_FDK/lib/tinyusb/src/device/usbd.c ****   volatile uint8_t addressed;
 122:SynaptiX_FDK/lib/tinyusb/src/device/usbd.c ****   volatile uint8_t suspended;
 123:SynaptiX_FDK/lib/tinyusb/src/device/usbd.c **** 
 124:SynaptiX_FDK/lib/tinyusb/src/device/usbd.c ****   union {
 125:SynaptiX_FDK/lib/tinyusb/src/device/usbd.c ****     struct TU_ATTR_PACKED {
 126:SynaptiX_FDK/lib/tinyusb/src/device/usbd.c ****       uint8_t self_powered     : 1; // configuration descriptor's attribute;
 127:SynaptiX_FDK/lib/tinyusb/src/device/usbd.c ****       uint8_t remote_wakeup_en : 1; // enable/disable by host
 128:SynaptiX_FDK/lib/tinyusb/src/device/usbd.c ****     };
 129:SynaptiX_FDK/lib/tinyusb/src/device/usbd.c ****     uint8_t dev_state_bm;
 130:SynaptiX_FDK/lib/tinyusb/src/device/usbd.c ****   };
 131:SynaptiX_FDK/lib/tinyusb/src/device/usbd.c **** 
 132:SynaptiX_FDK/lib/tinyusb/src/device/usbd.c ****   uint8_t          cfg_num; // current active configuration (0x00 is not configured)
 133:SynaptiX_FDK/lib/tinyusb/src/device/usbd.c ****   uint8_t          speed;
 134:SynaptiX_FDK/lib/tinyusb/src/device/usbd.c ****   volatile uint8_t sof_consumer;
 135:SynaptiX_FDK/lib/tinyusb/src/device/usbd.c **** 
 136:SynaptiX_FDK/lib/tinyusb/src/device/usbd.c ****   uint8_t itf2drv[CFG_TUD_INTERFACE_MAX];   // map interface number to driver (0xff is invalid)
 137:SynaptiX_FDK/lib/tinyusb/src/device/usbd.c ****   uint8_t ep2drv[CFG_TUD_ENDPPOINT_MAX][2]; // map endpoint to driver ( 0xff is invalid ), can use 
 138:SynaptiX_FDK/lib/tinyusb/src/device/usbd.c **** 
 139:SynaptiX_FDK/lib/tinyusb/src/device/usbd.c ****   tu_edpt_state_t ep_status[CFG_TUD_ENDPPOINT_MAX][2];
 140:SynaptiX_FDK/lib/tinyusb/src/device/usbd.c **** } usbd_device_t;
 141:SynaptiX_FDK/lib/tinyusb/src/device/usbd.c **** 
 142:SynaptiX_FDK/lib/tinyusb/src/device/usbd.c **** static usbd_device_t    _usbd_dev;
 143:SynaptiX_FDK/lib/tinyusb/src/device/usbd.c **** static volatile uint8_t _usbd_queued_setup;
 144:SynaptiX_FDK/lib/tinyusb/src/device/usbd.c **** 
 145:SynaptiX_FDK/lib/tinyusb/src/device/usbd.c **** //--------------------------------------------------------------------+
 146:SynaptiX_FDK/lib/tinyusb/src/device/usbd.c **** // Class Driver
 147:SynaptiX_FDK/lib/tinyusb/src/device/usbd.c **** //--------------------------------------------------------------------+
 148:SynaptiX_FDK/lib/tinyusb/src/device/usbd.c ****   #if CFG_TUSB_DEBUG >= CFG_TUD_LOG_LEVEL
 149:SynaptiX_FDK/lib/tinyusb/src/device/usbd.c ****     #define DRIVER_NAME(_name) _name
 150:SynaptiX_FDK/lib/tinyusb/src/device/usbd.c ****   #else
 151:SynaptiX_FDK/lib/tinyusb/src/device/usbd.c ****     #define DRIVER_NAME(_name) NULL
 152:SynaptiX_FDK/lib/tinyusb/src/device/usbd.c ****   #endif
 153:SynaptiX_FDK/lib/tinyusb/src/device/usbd.c **** 
 154:SynaptiX_FDK/lib/tinyusb/src/device/usbd.c **** // Built-in class drivers
 155:SynaptiX_FDK/lib/tinyusb/src/device/usbd.c **** static const usbd_class_driver_t _usbd_driver[] = {
 156:SynaptiX_FDK/lib/tinyusb/src/device/usbd.c ****   #if CFG_TUD_CDC
 157:SynaptiX_FDK/lib/tinyusb/src/device/usbd.c ****     {
 158:SynaptiX_FDK/lib/tinyusb/src/device/usbd.c ****         .name             = DRIVER_NAME("CDC"),
 159:SynaptiX_FDK/lib/tinyusb/src/device/usbd.c ****         .init             = cdcd_init,
 160:SynaptiX_FDK/lib/tinyusb/src/device/usbd.c ****         .deinit           = cdcd_deinit,
 161:SynaptiX_FDK/lib/tinyusb/src/device/usbd.c ****         .reset            = cdcd_reset,
 162:SynaptiX_FDK/lib/tinyusb/src/device/usbd.c ****         .open             = cdcd_open,
 163:SynaptiX_FDK/lib/tinyusb/src/device/usbd.c ****         .control_xfer_cb  = cdcd_control_xfer_cb,
 164:SynaptiX_FDK/lib/tinyusb/src/device/usbd.c ****         .xfer_cb          = cdcd_xfer_cb,
 165:SynaptiX_FDK/lib/tinyusb/src/device/usbd.c ****         .xfer_isr         = NULL,
 166:SynaptiX_FDK/lib/tinyusb/src/device/usbd.c ****         .sof              = NULL
 167:SynaptiX_FDK/lib/tinyusb/src/device/usbd.c ****     },
 168:SynaptiX_FDK/lib/tinyusb/src/device/usbd.c ****     #endif
 169:SynaptiX_FDK/lib/tinyusb/src/device/usbd.c **** 
 170:SynaptiX_FDK/lib/tinyusb/src/device/usbd.c ****     #if CFG_TUD_MSC
 171:SynaptiX_FDK/lib/tinyusb/src/device/usbd.c ****     {
 172:SynaptiX_FDK/lib/tinyusb/src/device/usbd.c ****         .name             = DRIVER_NAME("MSC"),
 173:SynaptiX_FDK/lib/tinyusb/src/device/usbd.c ****         .init             = mscd_init,
 174:SynaptiX_FDK/lib/tinyusb/src/device/usbd.c ****         .deinit           = NULL,
 175:SynaptiX_FDK/lib/tinyusb/src/device/usbd.c ****         .reset            = mscd_reset,
ARM GAS  C:\Users\DELL\AppData\Local\Temp\ccYJ4WIi.s 			page 5


 176:SynaptiX_FDK/lib/tinyusb/src/device/usbd.c ****         .open             = mscd_open,
 177:SynaptiX_FDK/lib/tinyusb/src/device/usbd.c ****         .control_xfer_cb  = mscd_control_xfer_cb,
 178:SynaptiX_FDK/lib/tinyusb/src/device/usbd.c ****         .xfer_cb          = mscd_xfer_cb,
 179:SynaptiX_FDK/lib/tinyusb/src/device/usbd.c ****         .xfer_isr         = NULL,
 180:SynaptiX_FDK/lib/tinyusb/src/device/usbd.c ****         .sof              = NULL
 181:SynaptiX_FDK/lib/tinyusb/src/device/usbd.c ****     },
 182:SynaptiX_FDK/lib/tinyusb/src/device/usbd.c ****     #endif
 183:SynaptiX_FDK/lib/tinyusb/src/device/usbd.c **** 
 184:SynaptiX_FDK/lib/tinyusb/src/device/usbd.c ****     #if CFG_TUD_HID
 185:SynaptiX_FDK/lib/tinyusb/src/device/usbd.c ****     {
 186:SynaptiX_FDK/lib/tinyusb/src/device/usbd.c ****         .name             = DRIVER_NAME("HID"),
 187:SynaptiX_FDK/lib/tinyusb/src/device/usbd.c ****         .init             = hidd_init,
 188:SynaptiX_FDK/lib/tinyusb/src/device/usbd.c ****         .deinit           = hidd_deinit,
 189:SynaptiX_FDK/lib/tinyusb/src/device/usbd.c ****         .reset            = hidd_reset,
 190:SynaptiX_FDK/lib/tinyusb/src/device/usbd.c ****         .open             = hidd_open,
 191:SynaptiX_FDK/lib/tinyusb/src/device/usbd.c ****         .control_xfer_cb  = hidd_control_xfer_cb,
 192:SynaptiX_FDK/lib/tinyusb/src/device/usbd.c ****         .xfer_cb          = hidd_xfer_cb,
 193:SynaptiX_FDK/lib/tinyusb/src/device/usbd.c ****         .xfer_isr         = NULL,
 194:SynaptiX_FDK/lib/tinyusb/src/device/usbd.c ****         .sof              = NULL
 195:SynaptiX_FDK/lib/tinyusb/src/device/usbd.c ****     },
 196:SynaptiX_FDK/lib/tinyusb/src/device/usbd.c ****     #endif
 197:SynaptiX_FDK/lib/tinyusb/src/device/usbd.c **** 
 198:SynaptiX_FDK/lib/tinyusb/src/device/usbd.c ****     #if CFG_TUD_AUDIO
 199:SynaptiX_FDK/lib/tinyusb/src/device/usbd.c ****     {
 200:SynaptiX_FDK/lib/tinyusb/src/device/usbd.c ****         .name             = DRIVER_NAME("AUDIO"),
 201:SynaptiX_FDK/lib/tinyusb/src/device/usbd.c ****         .init             = audiod_init,
 202:SynaptiX_FDK/lib/tinyusb/src/device/usbd.c ****         .deinit           = audiod_deinit,
 203:SynaptiX_FDK/lib/tinyusb/src/device/usbd.c ****         .reset            = audiod_reset,
 204:SynaptiX_FDK/lib/tinyusb/src/device/usbd.c ****         .open             = audiod_open,
 205:SynaptiX_FDK/lib/tinyusb/src/device/usbd.c ****         .control_xfer_cb  = audiod_control_xfer_cb,
 206:SynaptiX_FDK/lib/tinyusb/src/device/usbd.c ****         .xfer_cb          = audiod_xfer_cb,
 207:SynaptiX_FDK/lib/tinyusb/src/device/usbd.c ****         .xfer_isr         = audiod_xfer_isr,
 208:SynaptiX_FDK/lib/tinyusb/src/device/usbd.c ****         .sof              = audiod_sof_isr
 209:SynaptiX_FDK/lib/tinyusb/src/device/usbd.c ****     },
 210:SynaptiX_FDK/lib/tinyusb/src/device/usbd.c ****     #endif
 211:SynaptiX_FDK/lib/tinyusb/src/device/usbd.c **** 
 212:SynaptiX_FDK/lib/tinyusb/src/device/usbd.c ****     #if CFG_TUD_VIDEO
 213:SynaptiX_FDK/lib/tinyusb/src/device/usbd.c ****     {
 214:SynaptiX_FDK/lib/tinyusb/src/device/usbd.c ****         .name             = DRIVER_NAME("VIDEO"),
 215:SynaptiX_FDK/lib/tinyusb/src/device/usbd.c ****         .init             = videod_init,
 216:SynaptiX_FDK/lib/tinyusb/src/device/usbd.c ****         .deinit           = videod_deinit,
 217:SynaptiX_FDK/lib/tinyusb/src/device/usbd.c ****         .reset            = videod_reset,
 218:SynaptiX_FDK/lib/tinyusb/src/device/usbd.c ****         .open             = videod_open,
 219:SynaptiX_FDK/lib/tinyusb/src/device/usbd.c ****         .control_xfer_cb  = videod_control_xfer_cb,
 220:SynaptiX_FDK/lib/tinyusb/src/device/usbd.c ****         .xfer_cb          = videod_xfer_cb,
 221:SynaptiX_FDK/lib/tinyusb/src/device/usbd.c ****         .xfer_isr         = NULL,
 222:SynaptiX_FDK/lib/tinyusb/src/device/usbd.c ****         .sof              = NULL
 223:SynaptiX_FDK/lib/tinyusb/src/device/usbd.c ****     },
 224:SynaptiX_FDK/lib/tinyusb/src/device/usbd.c ****     #endif
 225:SynaptiX_FDK/lib/tinyusb/src/device/usbd.c **** 
 226:SynaptiX_FDK/lib/tinyusb/src/device/usbd.c ****     #if CFG_TUD_MIDI
 227:SynaptiX_FDK/lib/tinyusb/src/device/usbd.c ****     {
 228:SynaptiX_FDK/lib/tinyusb/src/device/usbd.c ****         .name             = DRIVER_NAME("MIDI"),
 229:SynaptiX_FDK/lib/tinyusb/src/device/usbd.c ****         .init             = midid_init,
 230:SynaptiX_FDK/lib/tinyusb/src/device/usbd.c ****         .deinit           = midid_deinit,
 231:SynaptiX_FDK/lib/tinyusb/src/device/usbd.c ****         .open             = midid_open,
 232:SynaptiX_FDK/lib/tinyusb/src/device/usbd.c ****         .reset            = midid_reset,
ARM GAS  C:\Users\DELL\AppData\Local\Temp\ccYJ4WIi.s 			page 6


 233:SynaptiX_FDK/lib/tinyusb/src/device/usbd.c ****         .control_xfer_cb  = midid_control_xfer_cb,
 234:SynaptiX_FDK/lib/tinyusb/src/device/usbd.c ****         .xfer_cb          = midid_xfer_cb,
 235:SynaptiX_FDK/lib/tinyusb/src/device/usbd.c ****         .xfer_isr         = NULL,
 236:SynaptiX_FDK/lib/tinyusb/src/device/usbd.c ****         .sof              = NULL
 237:SynaptiX_FDK/lib/tinyusb/src/device/usbd.c ****     },
 238:SynaptiX_FDK/lib/tinyusb/src/device/usbd.c ****     #endif
 239:SynaptiX_FDK/lib/tinyusb/src/device/usbd.c **** 
 240:SynaptiX_FDK/lib/tinyusb/src/device/usbd.c ****     #if CFG_TUD_VENDOR
 241:SynaptiX_FDK/lib/tinyusb/src/device/usbd.c ****     {
 242:SynaptiX_FDK/lib/tinyusb/src/device/usbd.c ****         .name             = DRIVER_NAME("VENDOR"),
 243:SynaptiX_FDK/lib/tinyusb/src/device/usbd.c ****         .init             = vendord_init,
 244:SynaptiX_FDK/lib/tinyusb/src/device/usbd.c ****         .deinit           = vendord_deinit,
 245:SynaptiX_FDK/lib/tinyusb/src/device/usbd.c ****         .reset            = vendord_reset,
 246:SynaptiX_FDK/lib/tinyusb/src/device/usbd.c ****         .open             = vendord_open,
 247:SynaptiX_FDK/lib/tinyusb/src/device/usbd.c ****         .control_xfer_cb  = tud_vendor_control_xfer_cb,
 248:SynaptiX_FDK/lib/tinyusb/src/device/usbd.c ****         .xfer_cb          = vendord_xfer_cb,
 249:SynaptiX_FDK/lib/tinyusb/src/device/usbd.c ****         .xfer_isr         = NULL,
 250:SynaptiX_FDK/lib/tinyusb/src/device/usbd.c ****         .sof              = NULL
 251:SynaptiX_FDK/lib/tinyusb/src/device/usbd.c ****     },
 252:SynaptiX_FDK/lib/tinyusb/src/device/usbd.c ****     #endif
 253:SynaptiX_FDK/lib/tinyusb/src/device/usbd.c **** 
 254:SynaptiX_FDK/lib/tinyusb/src/device/usbd.c ****     #if CFG_TUD_USBTMC
 255:SynaptiX_FDK/lib/tinyusb/src/device/usbd.c ****     {
 256:SynaptiX_FDK/lib/tinyusb/src/device/usbd.c ****         .name             = DRIVER_NAME("TMC"),
 257:SynaptiX_FDK/lib/tinyusb/src/device/usbd.c ****         .init             = usbtmcd_init_cb,
 258:SynaptiX_FDK/lib/tinyusb/src/device/usbd.c ****         .deinit           = usbtmcd_deinit,
 259:SynaptiX_FDK/lib/tinyusb/src/device/usbd.c ****         .reset            = usbtmcd_reset_cb,
 260:SynaptiX_FDK/lib/tinyusb/src/device/usbd.c ****         .open             = usbtmcd_open_cb,
 261:SynaptiX_FDK/lib/tinyusb/src/device/usbd.c ****         .control_xfer_cb  = usbtmcd_control_xfer_cb,
 262:SynaptiX_FDK/lib/tinyusb/src/device/usbd.c ****         .xfer_cb          = usbtmcd_xfer_cb,
 263:SynaptiX_FDK/lib/tinyusb/src/device/usbd.c ****         .xfer_isr         = NULL,
 264:SynaptiX_FDK/lib/tinyusb/src/device/usbd.c ****         .sof              = NULL
 265:SynaptiX_FDK/lib/tinyusb/src/device/usbd.c ****     },
 266:SynaptiX_FDK/lib/tinyusb/src/device/usbd.c ****     #endif
 267:SynaptiX_FDK/lib/tinyusb/src/device/usbd.c **** 
 268:SynaptiX_FDK/lib/tinyusb/src/device/usbd.c ****     #if CFG_TUD_DFU_RUNTIME
 269:SynaptiX_FDK/lib/tinyusb/src/device/usbd.c ****     {
 270:SynaptiX_FDK/lib/tinyusb/src/device/usbd.c ****         .name             = DRIVER_NAME("DFU-RUNTIME"),
 271:SynaptiX_FDK/lib/tinyusb/src/device/usbd.c ****         .init             = dfu_rtd_init,
 272:SynaptiX_FDK/lib/tinyusb/src/device/usbd.c ****         .deinit           = dfu_rtd_deinit,
 273:SynaptiX_FDK/lib/tinyusb/src/device/usbd.c ****         .reset            = dfu_rtd_reset,
 274:SynaptiX_FDK/lib/tinyusb/src/device/usbd.c ****         .open             = dfu_rtd_open,
 275:SynaptiX_FDK/lib/tinyusb/src/device/usbd.c ****         .control_xfer_cb  = dfu_rtd_control_xfer_cb,
 276:SynaptiX_FDK/lib/tinyusb/src/device/usbd.c ****         .xfer_cb          = NULL,
 277:SynaptiX_FDK/lib/tinyusb/src/device/usbd.c ****         .xfer_isr         = NULL,
 278:SynaptiX_FDK/lib/tinyusb/src/device/usbd.c ****         .sof              = NULL
 279:SynaptiX_FDK/lib/tinyusb/src/device/usbd.c ****     },
 280:SynaptiX_FDK/lib/tinyusb/src/device/usbd.c ****     #endif
 281:SynaptiX_FDK/lib/tinyusb/src/device/usbd.c **** 
 282:SynaptiX_FDK/lib/tinyusb/src/device/usbd.c ****     #if CFG_TUD_DFU
 283:SynaptiX_FDK/lib/tinyusb/src/device/usbd.c ****     {
 284:SynaptiX_FDK/lib/tinyusb/src/device/usbd.c ****         .name             = DRIVER_NAME("DFU"),
 285:SynaptiX_FDK/lib/tinyusb/src/device/usbd.c ****         .init             = dfu_moded_init,
 286:SynaptiX_FDK/lib/tinyusb/src/device/usbd.c ****         .deinit           = dfu_moded_deinit,
 287:SynaptiX_FDK/lib/tinyusb/src/device/usbd.c ****         .reset            = dfu_moded_reset,
 288:SynaptiX_FDK/lib/tinyusb/src/device/usbd.c ****         .open             = dfu_moded_open,
 289:SynaptiX_FDK/lib/tinyusb/src/device/usbd.c ****         .control_xfer_cb  = dfu_moded_control_xfer_cb,
ARM GAS  C:\Users\DELL\AppData\Local\Temp\ccYJ4WIi.s 			page 7


 290:SynaptiX_FDK/lib/tinyusb/src/device/usbd.c ****         .xfer_cb          = NULL,
 291:SynaptiX_FDK/lib/tinyusb/src/device/usbd.c ****         .xfer_isr         = NULL,
 292:SynaptiX_FDK/lib/tinyusb/src/device/usbd.c ****         .sof              = NULL
 293:SynaptiX_FDK/lib/tinyusb/src/device/usbd.c ****     },
 294:SynaptiX_FDK/lib/tinyusb/src/device/usbd.c ****     #endif
 295:SynaptiX_FDK/lib/tinyusb/src/device/usbd.c **** 
 296:SynaptiX_FDK/lib/tinyusb/src/device/usbd.c ****     #if CFG_TUD_ECM_RNDIS || CFG_TUD_NCM
 297:SynaptiX_FDK/lib/tinyusb/src/device/usbd.c ****     {
 298:SynaptiX_FDK/lib/tinyusb/src/device/usbd.c ****         .name             = DRIVER_NAME("NET"),
 299:SynaptiX_FDK/lib/tinyusb/src/device/usbd.c ****         .init             = netd_init,
 300:SynaptiX_FDK/lib/tinyusb/src/device/usbd.c ****         .deinit           = netd_deinit,
 301:SynaptiX_FDK/lib/tinyusb/src/device/usbd.c ****         .reset            = netd_reset,
 302:SynaptiX_FDK/lib/tinyusb/src/device/usbd.c ****         .open             = netd_open,
 303:SynaptiX_FDK/lib/tinyusb/src/device/usbd.c ****         .control_xfer_cb  = netd_control_xfer_cb,
 304:SynaptiX_FDK/lib/tinyusb/src/device/usbd.c ****         .xfer_cb          = netd_xfer_cb,
 305:SynaptiX_FDK/lib/tinyusb/src/device/usbd.c ****         .xfer_isr         = NULL,
 306:SynaptiX_FDK/lib/tinyusb/src/device/usbd.c ****         .sof              = NULL,
 307:SynaptiX_FDK/lib/tinyusb/src/device/usbd.c ****     },
 308:SynaptiX_FDK/lib/tinyusb/src/device/usbd.c ****     #endif
 309:SynaptiX_FDK/lib/tinyusb/src/device/usbd.c **** 
 310:SynaptiX_FDK/lib/tinyusb/src/device/usbd.c ****     #if CFG_TUD_BTH
 311:SynaptiX_FDK/lib/tinyusb/src/device/usbd.c ****     {
 312:SynaptiX_FDK/lib/tinyusb/src/device/usbd.c ****         .name             = DRIVER_NAME("BTH"),
 313:SynaptiX_FDK/lib/tinyusb/src/device/usbd.c ****         .init             = btd_init,
 314:SynaptiX_FDK/lib/tinyusb/src/device/usbd.c ****         .deinit           = btd_deinit,
 315:SynaptiX_FDK/lib/tinyusb/src/device/usbd.c ****         .reset            = btd_reset,
 316:SynaptiX_FDK/lib/tinyusb/src/device/usbd.c ****         .open             = btd_open,
 317:SynaptiX_FDK/lib/tinyusb/src/device/usbd.c ****         .control_xfer_cb  = btd_control_xfer_cb,
 318:SynaptiX_FDK/lib/tinyusb/src/device/usbd.c ****         .xfer_cb          = btd_xfer_cb,
 319:SynaptiX_FDK/lib/tinyusb/src/device/usbd.c ****         .xfer_isr         = NULL,
 320:SynaptiX_FDK/lib/tinyusb/src/device/usbd.c ****         .sof              = NULL
 321:SynaptiX_FDK/lib/tinyusb/src/device/usbd.c ****     },
 322:SynaptiX_FDK/lib/tinyusb/src/device/usbd.c ****     #endif
 323:SynaptiX_FDK/lib/tinyusb/src/device/usbd.c **** 
 324:SynaptiX_FDK/lib/tinyusb/src/device/usbd.c ****     #if CFG_TUD_MTP
 325:SynaptiX_FDK/lib/tinyusb/src/device/usbd.c ****     {
 326:SynaptiX_FDK/lib/tinyusb/src/device/usbd.c ****         .name             = DRIVER_NAME("MTP"),
 327:SynaptiX_FDK/lib/tinyusb/src/device/usbd.c ****         .init             = mtpd_init,
 328:SynaptiX_FDK/lib/tinyusb/src/device/usbd.c ****         .deinit           = mtpd_deinit,
 329:SynaptiX_FDK/lib/tinyusb/src/device/usbd.c ****         .reset            = mtpd_reset,
 330:SynaptiX_FDK/lib/tinyusb/src/device/usbd.c ****         .open             = mtpd_open,
 331:SynaptiX_FDK/lib/tinyusb/src/device/usbd.c ****         .control_xfer_cb  = mtpd_control_xfer_cb,
 332:SynaptiX_FDK/lib/tinyusb/src/device/usbd.c ****         .xfer_cb          = mtpd_xfer_cb,
 333:SynaptiX_FDK/lib/tinyusb/src/device/usbd.c ****         .xfer_isr         = NULL,
 334:SynaptiX_FDK/lib/tinyusb/src/device/usbd.c ****         .sof              = NULL
 335:SynaptiX_FDK/lib/tinyusb/src/device/usbd.c ****     },
 336:SynaptiX_FDK/lib/tinyusb/src/device/usbd.c ****     #endif
 337:SynaptiX_FDK/lib/tinyusb/src/device/usbd.c **** 
 338:SynaptiX_FDK/lib/tinyusb/src/device/usbd.c ****     #if CFG_TUD_PRINTER
 339:SynaptiX_FDK/lib/tinyusb/src/device/usbd.c ****     {
 340:SynaptiX_FDK/lib/tinyusb/src/device/usbd.c ****         .name             = DRIVER_NAME("PRINTER"),
 341:SynaptiX_FDK/lib/tinyusb/src/device/usbd.c ****         .init             = printerd_init,
 342:SynaptiX_FDK/lib/tinyusb/src/device/usbd.c ****         .deinit           = printerd_deinit,
 343:SynaptiX_FDK/lib/tinyusb/src/device/usbd.c ****         .reset            = printerd_reset,
 344:SynaptiX_FDK/lib/tinyusb/src/device/usbd.c ****         .open             = printerd_open,
 345:SynaptiX_FDK/lib/tinyusb/src/device/usbd.c ****         .control_xfer_cb  = printerd_control_xfer_cb,
 346:SynaptiX_FDK/lib/tinyusb/src/device/usbd.c ****         .xfer_cb          = printerd_xfer_cb,
ARM GAS  C:\Users\DELL\AppData\Local\Temp\ccYJ4WIi.s 			page 8


 347:SynaptiX_FDK/lib/tinyusb/src/device/usbd.c ****         .sof              = NULL
 348:SynaptiX_FDK/lib/tinyusb/src/device/usbd.c ****     },
 349:SynaptiX_FDK/lib/tinyusb/src/device/usbd.c ****     #endif
 350:SynaptiX_FDK/lib/tinyusb/src/device/usbd.c **** };
 351:SynaptiX_FDK/lib/tinyusb/src/device/usbd.c **** 
 352:SynaptiX_FDK/lib/tinyusb/src/device/usbd.c **** enum { BUILTIN_DRIVER_COUNT = TU_ARRAY_SIZE(_usbd_driver) };
 353:SynaptiX_FDK/lib/tinyusb/src/device/usbd.c **** 
 354:SynaptiX_FDK/lib/tinyusb/src/device/usbd.c **** // Additional class drivers implemented by application
 355:SynaptiX_FDK/lib/tinyusb/src/device/usbd.c **** static const usbd_class_driver_t *_app_driver       = NULL;
 356:SynaptiX_FDK/lib/tinyusb/src/device/usbd.c **** static uint8_t                    _app_driver_count = 0;
 357:SynaptiX_FDK/lib/tinyusb/src/device/usbd.c **** 
 358:SynaptiX_FDK/lib/tinyusb/src/device/usbd.c **** #define TOTAL_DRIVER_COUNT    ((uint8_t) (_app_driver_count + BUILTIN_DRIVER_COUNT))
 359:SynaptiX_FDK/lib/tinyusb/src/device/usbd.c **** 
 360:SynaptiX_FDK/lib/tinyusb/src/device/usbd.c **** // virtually joins built-in and application drivers together.
 361:SynaptiX_FDK/lib/tinyusb/src/device/usbd.c **** // Application is positioned first to allow overwriting built-in ones.
 362:SynaptiX_FDK/lib/tinyusb/src/device/usbd.c **** TU_ATTR_ALWAYS_INLINE static inline usbd_class_driver_t const * get_driver(uint8_t drvid) {
 363:SynaptiX_FDK/lib/tinyusb/src/device/usbd.c ****   usbd_class_driver_t const *driver = NULL;
 364:SynaptiX_FDK/lib/tinyusb/src/device/usbd.c ****   if (drvid < _app_driver_count) {
 365:SynaptiX_FDK/lib/tinyusb/src/device/usbd.c ****     // Application drivers
 366:SynaptiX_FDK/lib/tinyusb/src/device/usbd.c ****     driver = &_app_driver[drvid];
 367:SynaptiX_FDK/lib/tinyusb/src/device/usbd.c ****   } else{
 368:SynaptiX_FDK/lib/tinyusb/src/device/usbd.c ****     drvid -= _app_driver_count;
 369:SynaptiX_FDK/lib/tinyusb/src/device/usbd.c ****     if (drvid < BUILTIN_DRIVER_COUNT) {
 370:SynaptiX_FDK/lib/tinyusb/src/device/usbd.c ****       driver = &_usbd_driver[drvid];
 371:SynaptiX_FDK/lib/tinyusb/src/device/usbd.c ****     }
 372:SynaptiX_FDK/lib/tinyusb/src/device/usbd.c ****   }
 373:SynaptiX_FDK/lib/tinyusb/src/device/usbd.c **** 
 374:SynaptiX_FDK/lib/tinyusb/src/device/usbd.c ****   return driver;
 375:SynaptiX_FDK/lib/tinyusb/src/device/usbd.c **** }
 376:SynaptiX_FDK/lib/tinyusb/src/device/usbd.c **** 
 377:SynaptiX_FDK/lib/tinyusb/src/device/usbd.c **** //--------------------------------------------------------------------+
 378:SynaptiX_FDK/lib/tinyusb/src/device/usbd.c **** // DCD Event
 379:SynaptiX_FDK/lib/tinyusb/src/device/usbd.c **** //--------------------------------------------------------------------+
 380:SynaptiX_FDK/lib/tinyusb/src/device/usbd.c **** enum {
 381:SynaptiX_FDK/lib/tinyusb/src/device/usbd.c ****   RHPORT_INVALID = 0xFFu
 382:SynaptiX_FDK/lib/tinyusb/src/device/usbd.c **** };
 383:SynaptiX_FDK/lib/tinyusb/src/device/usbd.c **** static uint8_t _usbd_rhport = RHPORT_INVALID;
 384:SynaptiX_FDK/lib/tinyusb/src/device/usbd.c **** 
 385:SynaptiX_FDK/lib/tinyusb/src/device/usbd.c **** static OSAL_SPINLOCK_DEF(_usbd_spin, usbd_int_set);
 386:SynaptiX_FDK/lib/tinyusb/src/device/usbd.c **** 
 387:SynaptiX_FDK/lib/tinyusb/src/device/usbd.c **** // Event queue: usbd_int_set() is used as mutex in OS NONE config
 388:SynaptiX_FDK/lib/tinyusb/src/device/usbd.c **** OSAL_QUEUE_DEF(usbd_int_set, _usbd_qdef, CFG_TUD_TASK_QUEUE_SZ, dcd_event_t);
 389:SynaptiX_FDK/lib/tinyusb/src/device/usbd.c **** static osal_queue_t _usbd_q;
 390:SynaptiX_FDK/lib/tinyusb/src/device/usbd.c **** 
 391:SynaptiX_FDK/lib/tinyusb/src/device/usbd.c **** // Mutex for claiming endpoint
 392:SynaptiX_FDK/lib/tinyusb/src/device/usbd.c **** #if OSAL_MUTEX_REQUIRED
 393:SynaptiX_FDK/lib/tinyusb/src/device/usbd.c ****   static osal_mutex_def_t _ubsd_mutexdef;
 394:SynaptiX_FDK/lib/tinyusb/src/device/usbd.c ****   static osal_mutex_t _usbd_mutex;
 395:SynaptiX_FDK/lib/tinyusb/src/device/usbd.c **** #else
 396:SynaptiX_FDK/lib/tinyusb/src/device/usbd.c ****   #define _usbd_mutex   NULL
 397:SynaptiX_FDK/lib/tinyusb/src/device/usbd.c **** #endif
 398:SynaptiX_FDK/lib/tinyusb/src/device/usbd.c **** 
 399:SynaptiX_FDK/lib/tinyusb/src/device/usbd.c **** TU_ATTR_ALWAYS_INLINE static inline bool queue_event(dcd_event_t const * event, bool in_isr) {
 400:SynaptiX_FDK/lib/tinyusb/src/device/usbd.c ****   TU_ASSERT(osal_queue_send(_usbd_q, event, in_isr));
 401:SynaptiX_FDK/lib/tinyusb/src/device/usbd.c ****   tud_event_hook_cb(event->rhport, event->event_id, in_isr);
 402:SynaptiX_FDK/lib/tinyusb/src/device/usbd.c ****   return true;
 403:SynaptiX_FDK/lib/tinyusb/src/device/usbd.c **** }
ARM GAS  C:\Users\DELL\AppData\Local\Temp\ccYJ4WIi.s 			page 9


 404:SynaptiX_FDK/lib/tinyusb/src/device/usbd.c **** 
 405:SynaptiX_FDK/lib/tinyusb/src/device/usbd.c **** //--------------------------------------------------------------------+
 406:SynaptiX_FDK/lib/tinyusb/src/device/usbd.c **** // Prototypes
 407:SynaptiX_FDK/lib/tinyusb/src/device/usbd.c **** //--------------------------------------------------------------------+
 408:SynaptiX_FDK/lib/tinyusb/src/device/usbd.c **** static bool process_control_request(uint8_t rhport, tusb_control_request_t const * p_request);
 409:SynaptiX_FDK/lib/tinyusb/src/device/usbd.c **** static bool process_set_config(uint8_t rhport, uint8_t cfg_num);
 410:SynaptiX_FDK/lib/tinyusb/src/device/usbd.c **** static bool process_get_descriptor(uint8_t rhport, tusb_control_request_t const * p_request);
 411:SynaptiX_FDK/lib/tinyusb/src/device/usbd.c **** 
 412:SynaptiX_FDK/lib/tinyusb/src/device/usbd.c **** #if CFG_TUD_TEST_MODE
 413:SynaptiX_FDK/lib/tinyusb/src/device/usbd.c **** static bool process_test_mode_cb(uint8_t rhport, uint8_t stage, tusb_control_request_t const * requ
 414:SynaptiX_FDK/lib/tinyusb/src/device/usbd.c ****   TU_VERIFY(CONTROL_STAGE_ACK == stage);
 415:SynaptiX_FDK/lib/tinyusb/src/device/usbd.c ****   uint8_t const selector = tu_u16_high(request->wIndex);
 416:SynaptiX_FDK/lib/tinyusb/src/device/usbd.c ****   TU_LOG_USBD("    Enter Test Mode (test selector index: %d)\r\n", selector);
 417:SynaptiX_FDK/lib/tinyusb/src/device/usbd.c ****   dcd_enter_test_mode(rhport, (tusb_feature_test_mode_t) selector);
 418:SynaptiX_FDK/lib/tinyusb/src/device/usbd.c ****   return true;
 419:SynaptiX_FDK/lib/tinyusb/src/device/usbd.c **** }
 420:SynaptiX_FDK/lib/tinyusb/src/device/usbd.c **** #endif
 421:SynaptiX_FDK/lib/tinyusb/src/device/usbd.c **** 
 422:SynaptiX_FDK/lib/tinyusb/src/device/usbd.c **** // from usbd_control.c
 423:SynaptiX_FDK/lib/tinyusb/src/device/usbd.c **** void usbd_control_reset(void);
 424:SynaptiX_FDK/lib/tinyusb/src/device/usbd.c **** void usbd_control_set_request(tusb_control_request_t const *request);
 425:SynaptiX_FDK/lib/tinyusb/src/device/usbd.c **** void usbd_control_set_complete_callback( usbd_control_xfer_cb_t fp );
 426:SynaptiX_FDK/lib/tinyusb/src/device/usbd.c **** bool usbd_control_xfer_cb (uint8_t rhport, uint8_t ep_addr, xfer_result_t event, uint32_t xferred_b
 427:SynaptiX_FDK/lib/tinyusb/src/device/usbd.c **** 
 428:SynaptiX_FDK/lib/tinyusb/src/device/usbd.c **** //--------------------------------------------------------------------+
 429:SynaptiX_FDK/lib/tinyusb/src/device/usbd.c **** // Weak stubs: invoked if no strong implementation is available
 430:SynaptiX_FDK/lib/tinyusb/src/device/usbd.c **** //--------------------------------------------------------------------+
 431:SynaptiX_FDK/lib/tinyusb/src/device/usbd.c **** TU_ATTR_WEAK usbd_class_driver_t const* usbd_app_driver_get_cb(uint8_t* driver_count) {
 432:SynaptiX_FDK/lib/tinyusb/src/device/usbd.c ****   *driver_count = 0;
 433:SynaptiX_FDK/lib/tinyusb/src/device/usbd.c ****   return NULL;
 434:SynaptiX_FDK/lib/tinyusb/src/device/usbd.c **** }
 435:SynaptiX_FDK/lib/tinyusb/src/device/usbd.c **** 
 436:SynaptiX_FDK/lib/tinyusb/src/device/usbd.c **** TU_ATTR_WEAK bool dcd_edpt_xfer_fifo(uint8_t rhport, uint8_t ep_addr, tu_fifo_t * ff, uint16_t tota
 437:SynaptiX_FDK/lib/tinyusb/src/device/usbd.c ****   (void) rhport; (void) ep_addr; (void) ff; (void) total_bytes; (void) is_isr;
 438:SynaptiX_FDK/lib/tinyusb/src/device/usbd.c ****   return false;
 439:SynaptiX_FDK/lib/tinyusb/src/device/usbd.c **** }
 440:SynaptiX_FDK/lib/tinyusb/src/device/usbd.c **** 
 441:SynaptiX_FDK/lib/tinyusb/src/device/usbd.c **** TU_ATTR_WEAK bool dcd_configure(uint8_t rhport, uint32_t cfg_id, const void* cfg_param) {
 442:SynaptiX_FDK/lib/tinyusb/src/device/usbd.c ****   (void) rhport; (void) cfg_id; (void) cfg_param;
 443:SynaptiX_FDK/lib/tinyusb/src/device/usbd.c ****   return false;
 444:SynaptiX_FDK/lib/tinyusb/src/device/usbd.c **** }
 445:SynaptiX_FDK/lib/tinyusb/src/device/usbd.c **** 
 446:SynaptiX_FDK/lib/tinyusb/src/device/usbd.c **** //--------------------------------------------------------------------+
 447:SynaptiX_FDK/lib/tinyusb/src/device/usbd.c **** // Debug
 448:SynaptiX_FDK/lib/tinyusb/src/device/usbd.c **** //--------------------------------------------------------------------+
 449:SynaptiX_FDK/lib/tinyusb/src/device/usbd.c **** #if CFG_TUSB_DEBUG >= CFG_TUD_LOG_LEVEL
 450:SynaptiX_FDK/lib/tinyusb/src/device/usbd.c **** static char const *const _usbd_event_str[DCD_EVENT_COUNT] = {
 451:SynaptiX_FDK/lib/tinyusb/src/device/usbd.c ****     "Invalid",
 452:SynaptiX_FDK/lib/tinyusb/src/device/usbd.c ****     "Bus Reset",
 453:SynaptiX_FDK/lib/tinyusb/src/device/usbd.c ****     "Unplugged",
 454:SynaptiX_FDK/lib/tinyusb/src/device/usbd.c ****     "SOF",
 455:SynaptiX_FDK/lib/tinyusb/src/device/usbd.c ****     "Suspend",
 456:SynaptiX_FDK/lib/tinyusb/src/device/usbd.c ****     "Resume",
 457:SynaptiX_FDK/lib/tinyusb/src/device/usbd.c ****     "Setup Received",
 458:SynaptiX_FDK/lib/tinyusb/src/device/usbd.c ****     "Xfer Complete",
 459:SynaptiX_FDK/lib/tinyusb/src/device/usbd.c ****     "Func Call"
 460:SynaptiX_FDK/lib/tinyusb/src/device/usbd.c **** };
ARM GAS  C:\Users\DELL\AppData\Local\Temp\ccYJ4WIi.s 			page 10


 461:SynaptiX_FDK/lib/tinyusb/src/device/usbd.c **** 
 462:SynaptiX_FDK/lib/tinyusb/src/device/usbd.c **** // for usbd_control to print the name of control complete driver
 463:SynaptiX_FDK/lib/tinyusb/src/device/usbd.c **** void usbd_driver_print_control_complete_name(usbd_control_xfer_cb_t callback) {
 464:SynaptiX_FDK/lib/tinyusb/src/device/usbd.c ****   for (uint8_t i = 0; i < TOTAL_DRIVER_COUNT; i++) {
 465:SynaptiX_FDK/lib/tinyusb/src/device/usbd.c ****     usbd_class_driver_t const* driver = get_driver(i);
 466:SynaptiX_FDK/lib/tinyusb/src/device/usbd.c ****     if (driver && driver->control_xfer_cb == callback) {
 467:SynaptiX_FDK/lib/tinyusb/src/device/usbd.c ****       TU_LOG_USBD("%s control complete\r\n", driver->name);
 468:SynaptiX_FDK/lib/tinyusb/src/device/usbd.c ****       return;
 469:SynaptiX_FDK/lib/tinyusb/src/device/usbd.c ****     }
 470:SynaptiX_FDK/lib/tinyusb/src/device/usbd.c ****   }
 471:SynaptiX_FDK/lib/tinyusb/src/device/usbd.c **** }
 472:SynaptiX_FDK/lib/tinyusb/src/device/usbd.c **** 
 473:SynaptiX_FDK/lib/tinyusb/src/device/usbd.c **** #endif
 474:SynaptiX_FDK/lib/tinyusb/src/device/usbd.c **** 
 475:SynaptiX_FDK/lib/tinyusb/src/device/usbd.c **** //--------------------------------------------------------------------+
 476:SynaptiX_FDK/lib/tinyusb/src/device/usbd.c **** // Application API
 477:SynaptiX_FDK/lib/tinyusb/src/device/usbd.c **** //--------------------------------------------------------------------+
 478:SynaptiX_FDK/lib/tinyusb/src/device/usbd.c **** tusb_speed_t tud_speed_get(void) {
 479:SynaptiX_FDK/lib/tinyusb/src/device/usbd.c ****   return (tusb_speed_t) _usbd_dev.speed;
 480:SynaptiX_FDK/lib/tinyusb/src/device/usbd.c **** }
 481:SynaptiX_FDK/lib/tinyusb/src/device/usbd.c **** 
 482:SynaptiX_FDK/lib/tinyusb/src/device/usbd.c **** bool tud_connected(void) {
 483:SynaptiX_FDK/lib/tinyusb/src/device/usbd.c ****   return _usbd_dev.connected;
 484:SynaptiX_FDK/lib/tinyusb/src/device/usbd.c **** }
 485:SynaptiX_FDK/lib/tinyusb/src/device/usbd.c **** 
 486:SynaptiX_FDK/lib/tinyusb/src/device/usbd.c **** bool tud_mounted(void) {
 487:SynaptiX_FDK/lib/tinyusb/src/device/usbd.c ****   return _usbd_dev.cfg_num ? true : false;
 488:SynaptiX_FDK/lib/tinyusb/src/device/usbd.c **** }
 489:SynaptiX_FDK/lib/tinyusb/src/device/usbd.c **** 
 490:SynaptiX_FDK/lib/tinyusb/src/device/usbd.c **** bool tud_suspended(void) {
 491:SynaptiX_FDK/lib/tinyusb/src/device/usbd.c ****   return _usbd_dev.suspended;
 492:SynaptiX_FDK/lib/tinyusb/src/device/usbd.c **** }
 493:SynaptiX_FDK/lib/tinyusb/src/device/usbd.c **** 
 494:SynaptiX_FDK/lib/tinyusb/src/device/usbd.c **** bool tud_remote_wakeup(void) {
 495:SynaptiX_FDK/lib/tinyusb/src/device/usbd.c ****   // only wake up host if this feature is enabled and we are suspended
 496:SynaptiX_FDK/lib/tinyusb/src/device/usbd.c ****   TU_VERIFY(_usbd_dev.suspended && _usbd_dev.remote_wakeup_en);
 497:SynaptiX_FDK/lib/tinyusb/src/device/usbd.c ****   dcd_remote_wakeup(_usbd_rhport);
 498:SynaptiX_FDK/lib/tinyusb/src/device/usbd.c ****   return true;
 499:SynaptiX_FDK/lib/tinyusb/src/device/usbd.c **** }
 500:SynaptiX_FDK/lib/tinyusb/src/device/usbd.c **** 
 501:SynaptiX_FDK/lib/tinyusb/src/device/usbd.c **** bool tud_disconnect(void) {
 502:SynaptiX_FDK/lib/tinyusb/src/device/usbd.c ****   dcd_disconnect(_usbd_rhport);
 503:SynaptiX_FDK/lib/tinyusb/src/device/usbd.c ****   return true;
 504:SynaptiX_FDK/lib/tinyusb/src/device/usbd.c **** }
 505:SynaptiX_FDK/lib/tinyusb/src/device/usbd.c **** 
 506:SynaptiX_FDK/lib/tinyusb/src/device/usbd.c **** bool tud_connect(void) {
 507:SynaptiX_FDK/lib/tinyusb/src/device/usbd.c ****   dcd_connect(_usbd_rhport);
 508:SynaptiX_FDK/lib/tinyusb/src/device/usbd.c ****   return true;
 509:SynaptiX_FDK/lib/tinyusb/src/device/usbd.c **** }
 510:SynaptiX_FDK/lib/tinyusb/src/device/usbd.c **** 
 511:SynaptiX_FDK/lib/tinyusb/src/device/usbd.c **** void tud_sof_cb_enable(bool en) {
 512:SynaptiX_FDK/lib/tinyusb/src/device/usbd.c ****   usbd_sof_enable(_usbd_rhport, SOF_CONSUMER_USER, en);
 513:SynaptiX_FDK/lib/tinyusb/src/device/usbd.c **** }
 514:SynaptiX_FDK/lib/tinyusb/src/device/usbd.c **** 
 515:SynaptiX_FDK/lib/tinyusb/src/device/usbd.c **** bool tud_inited(void) {
 516:SynaptiX_FDK/lib/tinyusb/src/device/usbd.c ****   return _usbd_rhport != RHPORT_INVALID;
 517:SynaptiX_FDK/lib/tinyusb/src/device/usbd.c **** }
ARM GAS  C:\Users\DELL\AppData\Local\Temp\ccYJ4WIi.s 			page 11


 518:SynaptiX_FDK/lib/tinyusb/src/device/usbd.c **** 
 519:SynaptiX_FDK/lib/tinyusb/src/device/usbd.c **** bool tud_configure(uint8_t rhport, uint32_t cfg_id, const void* cfg_param) {
 520:SynaptiX_FDK/lib/tinyusb/src/device/usbd.c ****   return dcd_configure(rhport, cfg_id, cfg_param);
 521:SynaptiX_FDK/lib/tinyusb/src/device/usbd.c **** }
 522:SynaptiX_FDK/lib/tinyusb/src/device/usbd.c **** 
 523:SynaptiX_FDK/lib/tinyusb/src/device/usbd.c **** bool tud_rhport_init(uint8_t rhport, const tusb_rhport_init_t* rh_init) {
 524:SynaptiX_FDK/lib/tinyusb/src/device/usbd.c ****   if (tud_inited()) {
 525:SynaptiX_FDK/lib/tinyusb/src/device/usbd.c ****     return true; // skip if already initialized
 526:SynaptiX_FDK/lib/tinyusb/src/device/usbd.c ****   }
 527:SynaptiX_FDK/lib/tinyusb/src/device/usbd.c ****   TU_ASSERT(rh_init);
 528:SynaptiX_FDK/lib/tinyusb/src/device/usbd.c ****  #if CFG_TUSB_DEBUG >= CFG_TUD_LOG_LEVEL
 529:SynaptiX_FDK/lib/tinyusb/src/device/usbd.c ****   char const* speed_str = 0;
 530:SynaptiX_FDK/lib/tinyusb/src/device/usbd.c ****   switch (rh_init->speed) {
 531:SynaptiX_FDK/lib/tinyusb/src/device/usbd.c ****     case TUSB_SPEED_HIGH:
 532:SynaptiX_FDK/lib/tinyusb/src/device/usbd.c ****       speed_str = "High";
 533:SynaptiX_FDK/lib/tinyusb/src/device/usbd.c ****     break;
 534:SynaptiX_FDK/lib/tinyusb/src/device/usbd.c ****     case TUSB_SPEED_FULL:
 535:SynaptiX_FDK/lib/tinyusb/src/device/usbd.c ****       speed_str = "Full";
 536:SynaptiX_FDK/lib/tinyusb/src/device/usbd.c ****     break;
 537:SynaptiX_FDK/lib/tinyusb/src/device/usbd.c ****     case TUSB_SPEED_LOW:
 538:SynaptiX_FDK/lib/tinyusb/src/device/usbd.c ****       speed_str = "Low";
 539:SynaptiX_FDK/lib/tinyusb/src/device/usbd.c ****     break;
 540:SynaptiX_FDK/lib/tinyusb/src/device/usbd.c ****     case TUSB_SPEED_AUTO:
 541:SynaptiX_FDK/lib/tinyusb/src/device/usbd.c ****       speed_str = "Auto";
 542:SynaptiX_FDK/lib/tinyusb/src/device/usbd.c ****     break;
 543:SynaptiX_FDK/lib/tinyusb/src/device/usbd.c ****   default:
 544:SynaptiX_FDK/lib/tinyusb/src/device/usbd.c ****     break;
 545:SynaptiX_FDK/lib/tinyusb/src/device/usbd.c ****   }
 546:SynaptiX_FDK/lib/tinyusb/src/device/usbd.c ****   TU_LOG_USBD("USBD init on controller %u, speed = %s\r\n", rhport, speed_str);
 547:SynaptiX_FDK/lib/tinyusb/src/device/usbd.c ****   TU_LOG_INT(CFG_TUD_LOG_LEVEL, sizeof(usbd_device_t));
 548:SynaptiX_FDK/lib/tinyusb/src/device/usbd.c ****   TU_LOG_INT(CFG_TUD_LOG_LEVEL, sizeof(dcd_event_t));
 549:SynaptiX_FDK/lib/tinyusb/src/device/usbd.c ****   TU_LOG_INT(CFG_TUD_LOG_LEVEL, sizeof(tu_fifo_t));
 550:SynaptiX_FDK/lib/tinyusb/src/device/usbd.c ****   TU_LOG_INT(CFG_TUD_LOG_LEVEL, sizeof(tu_edpt_stream_t));
 551:SynaptiX_FDK/lib/tinyusb/src/device/usbd.c **** #endif
 552:SynaptiX_FDK/lib/tinyusb/src/device/usbd.c **** 
 553:SynaptiX_FDK/lib/tinyusb/src/device/usbd.c ****   tu_varclr(&_usbd_dev);
 554:SynaptiX_FDK/lib/tinyusb/src/device/usbd.c ****   _usbd_queued_setup = 0;
 555:SynaptiX_FDK/lib/tinyusb/src/device/usbd.c **** 
 556:SynaptiX_FDK/lib/tinyusb/src/device/usbd.c ****   osal_spin_init(&_usbd_spin);
 557:SynaptiX_FDK/lib/tinyusb/src/device/usbd.c **** 
 558:SynaptiX_FDK/lib/tinyusb/src/device/usbd.c **** #if OSAL_MUTEX_REQUIRED
 559:SynaptiX_FDK/lib/tinyusb/src/device/usbd.c ****   // Init device mutex
 560:SynaptiX_FDK/lib/tinyusb/src/device/usbd.c ****   _usbd_mutex = osal_mutex_create(&_ubsd_mutexdef);
 561:SynaptiX_FDK/lib/tinyusb/src/device/usbd.c ****   TU_ASSERT(_usbd_mutex);
 562:SynaptiX_FDK/lib/tinyusb/src/device/usbd.c **** #endif
 563:SynaptiX_FDK/lib/tinyusb/src/device/usbd.c **** 
 564:SynaptiX_FDK/lib/tinyusb/src/device/usbd.c ****   // Init device queue & task
 565:SynaptiX_FDK/lib/tinyusb/src/device/usbd.c ****   _usbd_q = osal_queue_create(&_usbd_qdef);
 566:SynaptiX_FDK/lib/tinyusb/src/device/usbd.c ****   TU_ASSERT(_usbd_q);
 567:SynaptiX_FDK/lib/tinyusb/src/device/usbd.c **** 
 568:SynaptiX_FDK/lib/tinyusb/src/device/usbd.c ****   // Get application driver if available
 569:SynaptiX_FDK/lib/tinyusb/src/device/usbd.c ****   _app_driver = usbd_app_driver_get_cb(&_app_driver_count);
 570:SynaptiX_FDK/lib/tinyusb/src/device/usbd.c ****   TU_ASSERT(_app_driver_count + BUILTIN_DRIVER_COUNT <= UINT8_MAX);
 571:SynaptiX_FDK/lib/tinyusb/src/device/usbd.c **** 
 572:SynaptiX_FDK/lib/tinyusb/src/device/usbd.c ****   // Init class drivers
 573:SynaptiX_FDK/lib/tinyusb/src/device/usbd.c ****   for (uint8_t i = 0; i < TOTAL_DRIVER_COUNT; i++) {
 574:SynaptiX_FDK/lib/tinyusb/src/device/usbd.c ****     usbd_class_driver_t const* driver = get_driver(i);
ARM GAS  C:\Users\DELL\AppData\Local\Temp\ccYJ4WIi.s 			page 12


 575:SynaptiX_FDK/lib/tinyusb/src/device/usbd.c ****     if (driver && driver->init) {
 576:SynaptiX_FDK/lib/tinyusb/src/device/usbd.c ****       TU_LOG_USBD("%s init\r\n", driver->name);
 577:SynaptiX_FDK/lib/tinyusb/src/device/usbd.c ****       driver->init();
 578:SynaptiX_FDK/lib/tinyusb/src/device/usbd.c ****     }
 579:SynaptiX_FDK/lib/tinyusb/src/device/usbd.c ****   }
 580:SynaptiX_FDK/lib/tinyusb/src/device/usbd.c **** 
 581:SynaptiX_FDK/lib/tinyusb/src/device/usbd.c ****   _usbd_rhport = rhport;
 582:SynaptiX_FDK/lib/tinyusb/src/device/usbd.c **** 
 583:SynaptiX_FDK/lib/tinyusb/src/device/usbd.c ****   // Init device controller driver
 584:SynaptiX_FDK/lib/tinyusb/src/device/usbd.c ****   TU_ASSERT(dcd_init(rhport, rh_init));
 585:SynaptiX_FDK/lib/tinyusb/src/device/usbd.c ****   dcd_int_enable(rhport);
 586:SynaptiX_FDK/lib/tinyusb/src/device/usbd.c **** 
 587:SynaptiX_FDK/lib/tinyusb/src/device/usbd.c ****   return true;
 588:SynaptiX_FDK/lib/tinyusb/src/device/usbd.c **** }
 589:SynaptiX_FDK/lib/tinyusb/src/device/usbd.c **** 
 590:SynaptiX_FDK/lib/tinyusb/src/device/usbd.c **** bool tud_deinit(uint8_t rhport) {
 591:SynaptiX_FDK/lib/tinyusb/src/device/usbd.c ****   if (!tud_inited()) {
 592:SynaptiX_FDK/lib/tinyusb/src/device/usbd.c ****     return true; // skip if not initialized
 593:SynaptiX_FDK/lib/tinyusb/src/device/usbd.c ****   }
 594:SynaptiX_FDK/lib/tinyusb/src/device/usbd.c **** 
 595:SynaptiX_FDK/lib/tinyusb/src/device/usbd.c ****   TU_LOG_USBD("USBD deinit on controller %u\r\n", rhport);
 596:SynaptiX_FDK/lib/tinyusb/src/device/usbd.c **** 
 597:SynaptiX_FDK/lib/tinyusb/src/device/usbd.c ****   const uint8_t cfg_num = _usbd_dev.cfg_num;
 598:SynaptiX_FDK/lib/tinyusb/src/device/usbd.c **** 
 599:SynaptiX_FDK/lib/tinyusb/src/device/usbd.c ****   // Deinit device controller driver
 600:SynaptiX_FDK/lib/tinyusb/src/device/usbd.c ****   dcd_int_disable(rhport);
 601:SynaptiX_FDK/lib/tinyusb/src/device/usbd.c ****   dcd_disconnect(rhport);
 602:SynaptiX_FDK/lib/tinyusb/src/device/usbd.c ****   TU_ASSERT(dcd_deinit(rhport));
 603:SynaptiX_FDK/lib/tinyusb/src/device/usbd.c **** 
 604:SynaptiX_FDK/lib/tinyusb/src/device/usbd.c ****   // Deinit class drivers
 605:SynaptiX_FDK/lib/tinyusb/src/device/usbd.c ****   for (uint8_t i = 0; i < TOTAL_DRIVER_COUNT; i++) {
 606:SynaptiX_FDK/lib/tinyusb/src/device/usbd.c ****     usbd_class_driver_t const* driver = get_driver(i);
 607:SynaptiX_FDK/lib/tinyusb/src/device/usbd.c ****     if(driver && driver->deinit) {
 608:SynaptiX_FDK/lib/tinyusb/src/device/usbd.c ****       TU_LOG_USBD("%s deinit\r\n", driver->name);
 609:SynaptiX_FDK/lib/tinyusb/src/device/usbd.c ****       driver->deinit();
 610:SynaptiX_FDK/lib/tinyusb/src/device/usbd.c ****     }
 611:SynaptiX_FDK/lib/tinyusb/src/device/usbd.c ****   }
 612:SynaptiX_FDK/lib/tinyusb/src/device/usbd.c **** 
 613:SynaptiX_FDK/lib/tinyusb/src/device/usbd.c ****   // Clear device data
 614:SynaptiX_FDK/lib/tinyusb/src/device/usbd.c ****   tu_varclr(&_usbd_dev);
 615:SynaptiX_FDK/lib/tinyusb/src/device/usbd.c ****   usbd_control_reset();
 616:SynaptiX_FDK/lib/tinyusb/src/device/usbd.c **** 
 617:SynaptiX_FDK/lib/tinyusb/src/device/usbd.c ****   // Deinit device queue & task
 618:SynaptiX_FDK/lib/tinyusb/src/device/usbd.c ****   osal_queue_delete(_usbd_q);
 619:SynaptiX_FDK/lib/tinyusb/src/device/usbd.c ****   _usbd_q = NULL;
 620:SynaptiX_FDK/lib/tinyusb/src/device/usbd.c **** 
 621:SynaptiX_FDK/lib/tinyusb/src/device/usbd.c **** #if OSAL_MUTEX_REQUIRED
 622:SynaptiX_FDK/lib/tinyusb/src/device/usbd.c ****   // TODO make sure there is no task waiting on this mutex
 623:SynaptiX_FDK/lib/tinyusb/src/device/usbd.c ****   osal_mutex_delete(_usbd_mutex);
 624:SynaptiX_FDK/lib/tinyusb/src/device/usbd.c ****   _usbd_mutex = NULL;
 625:SynaptiX_FDK/lib/tinyusb/src/device/usbd.c **** #endif
 626:SynaptiX_FDK/lib/tinyusb/src/device/usbd.c **** 
 627:SynaptiX_FDK/lib/tinyusb/src/device/usbd.c ****   _usbd_rhport = RHPORT_INVALID;
 628:SynaptiX_FDK/lib/tinyusb/src/device/usbd.c **** 
 629:SynaptiX_FDK/lib/tinyusb/src/device/usbd.c ****   if (cfg_num > 0) {
 630:SynaptiX_FDK/lib/tinyusb/src/device/usbd.c ****     tud_umount_cb();
 631:SynaptiX_FDK/lib/tinyusb/src/device/usbd.c ****   }
ARM GAS  C:\Users\DELL\AppData\Local\Temp\ccYJ4WIi.s 			page 13


 632:SynaptiX_FDK/lib/tinyusb/src/device/usbd.c **** 
 633:SynaptiX_FDK/lib/tinyusb/src/device/usbd.c ****   return true;
 634:SynaptiX_FDK/lib/tinyusb/src/device/usbd.c **** }
 635:SynaptiX_FDK/lib/tinyusb/src/device/usbd.c **** 
 636:SynaptiX_FDK/lib/tinyusb/src/device/usbd.c **** static void configuration_reset(uint8_t rhport) {
  57              		.loc 1 636 49 is_stmt 1 view -0
  58              		.cfi_startproc
  59              		@ args = 0, pretend = 0, frame = 0
  60              		@ frame_needed = 0, uses_anonymous_args = 0
  61              		.loc 1 636 49 is_stmt 0 view .LVU8
  62 0000 38B5     		push	{r3, r4, r5, lr}
  63              	.LCFI0:
  64              		.cfi_def_cfa_offset 16
  65              		.cfi_offset 3, -16
  66              		.cfi_offset 4, -12
  67              		.cfi_offset 5, -8
  68              		.cfi_offset 14, -4
  69 0002 0546     		mov	r5, r0
 637:SynaptiX_FDK/lib/tinyusb/src/device/usbd.c ****   for (uint8_t i = 0; i < TOTAL_DRIVER_COUNT; i++) {
  70              		.loc 1 637 3 is_stmt 1 view .LVU9
  71              	.LBB247:
  72              		.loc 1 637 8 view .LVU10
  73              	.LVL3:
  74              		.loc 1 637 16 is_stmt 0 view .LVU11
  75 0004 0024     		movs	r4, #0
  76              		.loc 1 637 3 view .LVU12
  77 0006 0DE0     		b	.L3
  78              	.LVL4:
  79              	.L4:
  80              	.LBB248:
  81              	.LBB249:
  82              	.LBB250:
 368:SynaptiX_FDK/lib/tinyusb/src/device/usbd.c ****     if (drvid < BUILTIN_DRIVER_COUNT) {
  83              		.loc 1 368 5 is_stmt 1 view .LVU13
 368:SynaptiX_FDK/lib/tinyusb/src/device/usbd.c ****     if (drvid < BUILTIN_DRIVER_COUNT) {
  84              		.loc 1 368 11 is_stmt 0 view .LVU14
  85 0008 E31A     		subs	r3, r4, r3
  86 000a DBB2     		uxtb	r3, r3
  87              	.LVL5:
 369:SynaptiX_FDK/lib/tinyusb/src/device/usbd.c ****       driver = &_usbd_driver[drvid];
  88              		.loc 1 369 5 is_stmt 1 view .LVU15
 369:SynaptiX_FDK/lib/tinyusb/src/device/usbd.c ****       driver = &_usbd_driver[drvid];
  89              		.loc 1 369 8 is_stmt 0 view .LVU16
  90 000c 012B     		cmp	r3, #1
  91 000e 18D8     		bhi	.L5
 370:SynaptiX_FDK/lib/tinyusb/src/device/usbd.c ****     }
  92              		.loc 1 370 7 is_stmt 1 view .LVU17
 370:SynaptiX_FDK/lib/tinyusb/src/device/usbd.c ****     }
  93              		.loc 1 370 14 is_stmt 0 view .LVU18
  94 0010 03EBC303 		add	r3, r3, r3, lsl #3
  95              	.LVL6:
 370:SynaptiX_FDK/lib/tinyusb/src/device/usbd.c ****     }
  96              		.loc 1 370 14 view .LVU19
  97 0014 1C4A     		ldr	r2, .L12
  98 0016 02EB8303 		add	r3, r2, r3, lsl #2
  99              	.LVL7:
 374:SynaptiX_FDK/lib/tinyusb/src/device/usbd.c **** }
ARM GAS  C:\Users\DELL\AppData\Local\Temp\ccYJ4WIi.s 			page 14


 100              		.loc 1 374 3 is_stmt 1 view .LVU20
 374:SynaptiX_FDK/lib/tinyusb/src/device/usbd.c **** }
 101              		.loc 1 374 3 is_stmt 0 view .LVU21
 102              	.LBE250:
 103              	.LBE249:
 638:SynaptiX_FDK/lib/tinyusb/src/device/usbd.c ****     usbd_class_driver_t const* driver = get_driver(i);
 639:SynaptiX_FDK/lib/tinyusb/src/device/usbd.c ****     TU_ASSERT(driver,);
 104              		.loc 1 639 5 is_stmt 1 view .LVU22
 105              		.loc 1 639 5 view .LVU23
 106              	.L6:
 107              		.loc 1 639 5 view .LVU24
 640:SynaptiX_FDK/lib/tinyusb/src/device/usbd.c ****     driver->reset(rhport);
 108              		.loc 1 640 5 view .LVU25
 109              		.loc 1 640 11 is_stmt 0 view .LVU26
 110 001a DB68     		ldr	r3, [r3, #12]
 111              		.loc 1 640 5 view .LVU27
 112 001c 2846     		mov	r0, r5
 113 001e 9847     		blx	r3
 114              	.LVL8:
 115              	.LBE248:
 637:SynaptiX_FDK/lib/tinyusb/src/device/usbd.c ****     usbd_class_driver_t const* driver = get_driver(i);
 116              		.loc 1 637 48 is_stmt 1 discriminator 2 view .LVU28
 117 0020 0134     		adds	r4, r4, #1
 118              	.LVL9:
 637:SynaptiX_FDK/lib/tinyusb/src/device/usbd.c ****     usbd_class_driver_t const* driver = get_driver(i);
 119              		.loc 1 637 48 is_stmt 0 discriminator 2 view .LVU29
 120 0022 E4B2     		uxtb	r4, r4
 121              	.LVL10:
 122              	.L3:
 637:SynaptiX_FDK/lib/tinyusb/src/device/usbd.c ****     usbd_class_driver_t const* driver = get_driver(i);
 123              		.loc 1 637 25 is_stmt 1 discriminator 1 view .LVU30
 637:SynaptiX_FDK/lib/tinyusb/src/device/usbd.c ****     usbd_class_driver_t const* driver = get_driver(i);
 124              		.loc 1 637 27 is_stmt 0 discriminator 1 view .LVU31
 125 0024 194B     		ldr	r3, .L12+4
 126 0026 1B78     		ldrb	r3, [r3]	@ zero_extendqisi2
 127 0028 9A1C     		adds	r2, r3, #2
 128 002a D2B2     		uxtb	r2, r2
 637:SynaptiX_FDK/lib/tinyusb/src/device/usbd.c ****     usbd_class_driver_t const* driver = get_driver(i);
 129              		.loc 1 637 25 discriminator 1 view .LVU32
 130 002c A242     		cmp	r2, r4
 131 002e 11D9     		bls	.L11
 132              	.LBB254:
 638:SynaptiX_FDK/lib/tinyusb/src/device/usbd.c ****     usbd_class_driver_t const* driver = get_driver(i);
 133              		.loc 1 638 5 is_stmt 1 view .LVU33
 134              	.LVL11:
 135              	.LBB252:
 136              	.LBI249:
 362:SynaptiX_FDK/lib/tinyusb/src/device/usbd.c ****   usbd_class_driver_t const *driver = NULL;
 137              		.loc 1 362 65 view .LVU34
 138              	.LBB251:
 363:SynaptiX_FDK/lib/tinyusb/src/device/usbd.c ****   if (drvid < _app_driver_count) {
 139              		.loc 1 363 3 view .LVU35
 364:SynaptiX_FDK/lib/tinyusb/src/device/usbd.c ****     // Application drivers
 140              		.loc 1 364 3 view .LVU36
 364:SynaptiX_FDK/lib/tinyusb/src/device/usbd.c ****     // Application drivers
 141              		.loc 1 364 6 is_stmt 0 view .LVU37
 142 0030 A342     		cmp	r3, r4
ARM GAS  C:\Users\DELL\AppData\Local\Temp\ccYJ4WIi.s 			page 15


 143 0032 E9D9     		bls	.L4
 366:SynaptiX_FDK/lib/tinyusb/src/device/usbd.c ****   } else{
 144              		.loc 1 366 5 is_stmt 1 view .LVU38
 366:SynaptiX_FDK/lib/tinyusb/src/device/usbd.c ****   } else{
 145              		.loc 1 366 14 is_stmt 0 view .LVU39
 146 0034 164B     		ldr	r3, .L12+8
 147 0036 1B68     		ldr	r3, [r3]
 366:SynaptiX_FDK/lib/tinyusb/src/device/usbd.c ****   } else{
 148              		.loc 1 366 26 view .LVU40
 149 0038 04EBC402 		add	r2, r4, r4, lsl #3
 150              	.LVL12:
 374:SynaptiX_FDK/lib/tinyusb/src/device/usbd.c **** }
 151              		.loc 1 374 3 is_stmt 1 view .LVU41
 374:SynaptiX_FDK/lib/tinyusb/src/device/usbd.c **** }
 152              		.loc 1 374 3 is_stmt 0 view .LVU42
 153              	.LBE251:
 154              	.LBE252:
 639:SynaptiX_FDK/lib/tinyusb/src/device/usbd.c ****     driver->reset(rhport);
 155              		.loc 1 639 5 is_stmt 1 view .LVU43
 639:SynaptiX_FDK/lib/tinyusb/src/device/usbd.c ****     driver->reset(rhport);
 156              		.loc 1 639 5 view .LVU44
 157 003c 13EB8203 		adds	r3, r3, r2, lsl #2
 158              	.LVL13:
 639:SynaptiX_FDK/lib/tinyusb/src/device/usbd.c ****     driver->reset(rhport);
 159              		.loc 1 639 5 is_stmt 0 view .LVU45
 160 0040 EBD1     		bne	.L6
 161              	.LVL14:
 162              	.L5:
 639:SynaptiX_FDK/lib/tinyusb/src/device/usbd.c ****     driver->reset(rhport);
 163              		.loc 1 639 5 is_stmt 1 discriminator 1 view .LVU46
 639:SynaptiX_FDK/lib/tinyusb/src/device/usbd.c ****     driver->reset(rhport);
 164              		.loc 1 639 5 discriminator 1 view .LVU47
 639:SynaptiX_FDK/lib/tinyusb/src/device/usbd.c ****     driver->reset(rhport);
 165              		.loc 1 639 5 discriminator 1 view .LVU48
 639:SynaptiX_FDK/lib/tinyusb/src/device/usbd.c ****     driver->reset(rhport);
 166              		.loc 1 639 5 discriminator 1 view .LVU49
 167              	.LBB253:
 639:SynaptiX_FDK/lib/tinyusb/src/device/usbd.c ****     driver->reset(rhport);
 168              		.loc 1 639 5 discriminator 1 view .LVU50
 639:SynaptiX_FDK/lib/tinyusb/src/device/usbd.c ****     driver->reset(rhport);
 169              		.loc 1 639 5 view .LVU51
 639:SynaptiX_FDK/lib/tinyusb/src/device/usbd.c ****     driver->reset(rhport);
 170              		.loc 1 639 5 is_stmt 0 discriminator 1 view .LVU52
 171 0042 4FF0E023 		mov	r3, #-536813568
 172 0046 D3F8F03D 		ldr	r3, [r3, #3568]
 173 004a 13F0010F 		tst	r3, #1
 174 004e 00D0     		beq	.L2
 639:SynaptiX_FDK/lib/tinyusb/src/device/usbd.c ****     driver->reset(rhport);
 175              		.loc 1 639 5 is_stmt 1 discriminator 2 view .LVU53
 176              		.syntax unified
 177              	@ 639 "SynaptiX_FDK/lib/tinyusb/src/device/usbd.c" 1
 178 0050 00BE     		BKPT #0
 179              	
 180              	@ 0 "" 2
 181              		.thumb
 182              		.syntax unified
 183              	.LBE253:
ARM GAS  C:\Users\DELL\AppData\Local\Temp\ccYJ4WIi.s 			page 16


 639:SynaptiX_FDK/lib/tinyusb/src/device/usbd.c ****     driver->reset(rhport);
 184              		.loc 1 639 5 discriminator 4 view .LVU54
 639:SynaptiX_FDK/lib/tinyusb/src/device/usbd.c ****     driver->reset(rhport);
 185              		.loc 1 639 5 discriminator 4 view .LVU55
 186              	.LVL15:
 187              	.L2:
 639:SynaptiX_FDK/lib/tinyusb/src/device/usbd.c ****     driver->reset(rhport);
 188              		.loc 1 639 5 is_stmt 0 discriminator 4 view .LVU56
 189              	.LBE254:
 190              	.LBE247:
 641:SynaptiX_FDK/lib/tinyusb/src/device/usbd.c ****   }
 642:SynaptiX_FDK/lib/tinyusb/src/device/usbd.c **** 
 643:SynaptiX_FDK/lib/tinyusb/src/device/usbd.c ****   tu_varclr(&_usbd_dev);
 644:SynaptiX_FDK/lib/tinyusb/src/device/usbd.c ****   (void)memset(_usbd_dev.itf2drv, TUSB_INDEX_INVALID_8, sizeof(_usbd_dev.itf2drv)); // invalid mapp
 645:SynaptiX_FDK/lib/tinyusb/src/device/usbd.c ****   (void)memset(_usbd_dev.ep2drv, TUSB_INDEX_INVALID_8, sizeof(_usbd_dev.ep2drv));   // invalid mapp
 646:SynaptiX_FDK/lib/tinyusb/src/device/usbd.c **** }
 191              		.loc 1 646 1 view .LVU57
 192 0052 38BD     		pop	{r3, r4, r5, pc}
 193              	.LVL16:
 194              	.L11:
 643:SynaptiX_FDK/lib/tinyusb/src/device/usbd.c ****   (void)memset(_usbd_dev.itf2drv, TUSB_INDEX_INVALID_8, sizeof(_usbd_dev.itf2drv)); // invalid mapp
 195              		.loc 1 643 3 is_stmt 1 view .LVU58
 196 0054 0F4C     		ldr	r4, .L12+12
 197              	.LVL17:
 643:SynaptiX_FDK/lib/tinyusb/src/device/usbd.c ****   (void)memset(_usbd_dev.itf2drv, TUSB_INDEX_INVALID_8, sizeof(_usbd_dev.itf2drv)); // invalid mapp
 198              		.loc 1 643 3 is_stmt 0 view .LVU59
 199 0056 3722     		movs	r2, #55
 200 0058 0021     		movs	r1, #0
 201 005a 2046     		mov	r0, r4
 202 005c FFF7FEFF 		bl	memset
 203              	.LVL18:
 644:SynaptiX_FDK/lib/tinyusb/src/device/usbd.c ****   (void)memset(_usbd_dev.ep2drv, TUSB_INDEX_INVALID_8, sizeof(_usbd_dev.ep2drv));   // invalid mapp
 204              		.loc 1 644 3 is_stmt 1 view .LVU60
 644:SynaptiX_FDK/lib/tinyusb/src/device/usbd.c ****   (void)memset(_usbd_dev.ep2drv, TUSB_INDEX_INVALID_8, sizeof(_usbd_dev.ep2drv));   // invalid mapp
 205              		.loc 1 644 9 is_stmt 0 view .LVU61
 206 0060 4FF0FF33 		mov	r3, #-1
 207 0064 C4F80730 		str	r3, [r4, #7]	@ unaligned
 208 0068 C4F80B30 		str	r3, [r4, #11]	@ unaligned
 209 006c C4F80F30 		str	r3, [r4, #15]	@ unaligned
 210 0070 C4F81330 		str	r3, [r4, #19]	@ unaligned
 645:SynaptiX_FDK/lib/tinyusb/src/device/usbd.c **** }
 211              		.loc 1 645 3 is_stmt 1 view .LVU62
 645:SynaptiX_FDK/lib/tinyusb/src/device/usbd.c **** }
 212              		.loc 1 645 9 is_stmt 0 view .LVU63
 213 0074 C4F81730 		str	r3, [r4, #23]	@ unaligned
 214 0078 C4F81B30 		str	r3, [r4, #27]	@ unaligned
 215 007c C4F81F30 		str	r3, [r4, #31]	@ unaligned
 216 0080 C4F82330 		str	r3, [r4, #35]	@ unaligned
 217 0084 E5E7     		b	.L2
 218              	.L13:
 219 0086 00BF     		.align	2
 220              	.L12:
 221 0088 00000000 		.word	_usbd_driver
 222 008c 00000000 		.word	_app_driver_count
 223 0090 00000000 		.word	_app_driver
 224 0094 00000000 		.word	_usbd_dev
 225              		.cfi_endproc
ARM GAS  C:\Users\DELL\AppData\Local\Temp\ccYJ4WIi.s 			page 17


 226              	.LFE483:
 228              		.section	.text.usbd_int_set,"ax",%progbits
 229              		.align	1
 230              		.global	usbd_int_set
 231              		.syntax unified
 232              		.thumb
 233              		.thumb_func
 235              	usbd_int_set:
 236              	.LVL19:
 237              	.LFB492:
 647:SynaptiX_FDK/lib/tinyusb/src/device/usbd.c **** 
 648:SynaptiX_FDK/lib/tinyusb/src/device/usbd.c **** static void usbd_reset(uint8_t rhport) {
 649:SynaptiX_FDK/lib/tinyusb/src/device/usbd.c ****   configuration_reset(rhport);
 650:SynaptiX_FDK/lib/tinyusb/src/device/usbd.c ****   usbd_control_reset();
 651:SynaptiX_FDK/lib/tinyusb/src/device/usbd.c **** }
 652:SynaptiX_FDK/lib/tinyusb/src/device/usbd.c **** 
 653:SynaptiX_FDK/lib/tinyusb/src/device/usbd.c **** bool tud_task_event_ready(void) {
 654:SynaptiX_FDK/lib/tinyusb/src/device/usbd.c ****   TU_VERIFY(tud_inited()); // Skip if stack is not initialized
 655:SynaptiX_FDK/lib/tinyusb/src/device/usbd.c ****   return !osal_queue_empty(_usbd_q);
 656:SynaptiX_FDK/lib/tinyusb/src/device/usbd.c **** }
 657:SynaptiX_FDK/lib/tinyusb/src/device/usbd.c **** 
 658:SynaptiX_FDK/lib/tinyusb/src/device/usbd.c **** //--------------------------------------------------------------------+
 659:SynaptiX_FDK/lib/tinyusb/src/device/usbd.c **** // USBD Task
 660:SynaptiX_FDK/lib/tinyusb/src/device/usbd.c **** //--------------------------------------------------------------------+
 661:SynaptiX_FDK/lib/tinyusb/src/device/usbd.c **** /* USB Device Driver task
 662:SynaptiX_FDK/lib/tinyusb/src/device/usbd.c ****  * This top level thread manages all device controller event and delegates events to class-specific
 663:SynaptiX_FDK/lib/tinyusb/src/device/usbd.c ****  * This should be called periodically within the mainloop or rtos thread.
 664:SynaptiX_FDK/lib/tinyusb/src/device/usbd.c ****  *
 665:SynaptiX_FDK/lib/tinyusb/src/device/usbd.c ****     int main(void) {
 666:SynaptiX_FDK/lib/tinyusb/src/device/usbd.c ****       application_init();
 667:SynaptiX_FDK/lib/tinyusb/src/device/usbd.c ****       tusb_init(0, TUSB_ROLE_DEVICE);
 668:SynaptiX_FDK/lib/tinyusb/src/device/usbd.c **** 
 669:SynaptiX_FDK/lib/tinyusb/src/device/usbd.c ****       while(1) { // the mainloop
 670:SynaptiX_FDK/lib/tinyusb/src/device/usbd.c ****         application_code();
 671:SynaptiX_FDK/lib/tinyusb/src/device/usbd.c ****         tud_task(); // tinyusb device task
 672:SynaptiX_FDK/lib/tinyusb/src/device/usbd.c ****       }
 673:SynaptiX_FDK/lib/tinyusb/src/device/usbd.c ****     }
 674:SynaptiX_FDK/lib/tinyusb/src/device/usbd.c ****  */
 675:SynaptiX_FDK/lib/tinyusb/src/device/usbd.c **** void tud_task_ext(uint32_t timeout_ms, bool in_isr) {
 676:SynaptiX_FDK/lib/tinyusb/src/device/usbd.c ****   (void) in_isr; // not implemented yet
 677:SynaptiX_FDK/lib/tinyusb/src/device/usbd.c **** 
 678:SynaptiX_FDK/lib/tinyusb/src/device/usbd.c ****   // Skip if stack is not initialized
 679:SynaptiX_FDK/lib/tinyusb/src/device/usbd.c ****   if (!tud_inited()) {
 680:SynaptiX_FDK/lib/tinyusb/src/device/usbd.c ****     return;
 681:SynaptiX_FDK/lib/tinyusb/src/device/usbd.c ****   }
 682:SynaptiX_FDK/lib/tinyusb/src/device/usbd.c **** 
 683:SynaptiX_FDK/lib/tinyusb/src/device/usbd.c ****   // Loop until there are no more events in the queue or CFG_TUD_TASK_EVENTS_PER_RUN is reached
 684:SynaptiX_FDK/lib/tinyusb/src/device/usbd.c ****   for (unsigned epr = 0;; epr++) {
 685:SynaptiX_FDK/lib/tinyusb/src/device/usbd.c **** #if CFG_TUD_TASK_EVENTS_PER_RUN > 0
 686:SynaptiX_FDK/lib/tinyusb/src/device/usbd.c ****     if (epr >= CFG_TUD_TASK_EVENTS_PER_RUN) {
 687:SynaptiX_FDK/lib/tinyusb/src/device/usbd.c ****       TU_LOG_USBD("USBD event limit (" TU_XSTRING(CFG_TUD_TASK_EVENTS_PER_RUN) ") reached\r\n");
 688:SynaptiX_FDK/lib/tinyusb/src/device/usbd.c ****       break;
 689:SynaptiX_FDK/lib/tinyusb/src/device/usbd.c ****     }
 690:SynaptiX_FDK/lib/tinyusb/src/device/usbd.c **** #endif
 691:SynaptiX_FDK/lib/tinyusb/src/device/usbd.c ****     dcd_event_t event;
 692:SynaptiX_FDK/lib/tinyusb/src/device/usbd.c ****     if (!osal_queue_receive(_usbd_q, &event, timeout_ms)) {
 693:SynaptiX_FDK/lib/tinyusb/src/device/usbd.c ****       return;
ARM GAS  C:\Users\DELL\AppData\Local\Temp\ccYJ4WIi.s 			page 18


 694:SynaptiX_FDK/lib/tinyusb/src/device/usbd.c ****     }
 695:SynaptiX_FDK/lib/tinyusb/src/device/usbd.c **** 
 696:SynaptiX_FDK/lib/tinyusb/src/device/usbd.c **** #if CFG_TUSB_DEBUG >= CFG_TUD_LOG_LEVEL
 697:SynaptiX_FDK/lib/tinyusb/src/device/usbd.c ****     if (event.event_id == DCD_EVENT_SETUP_RECEIVED) {
 698:SynaptiX_FDK/lib/tinyusb/src/device/usbd.c ****       TU_LOG_USBD("\r\n"); // extra line for setup
 699:SynaptiX_FDK/lib/tinyusb/src/device/usbd.c ****     }
 700:SynaptiX_FDK/lib/tinyusb/src/device/usbd.c ****     TU_LOG_USBD("USBD %s ", event.event_id < DCD_EVENT_COUNT ? _usbd_event_str[event.event_id] : "C
 701:SynaptiX_FDK/lib/tinyusb/src/device/usbd.c **** #endif
 702:SynaptiX_FDK/lib/tinyusb/src/device/usbd.c **** 
 703:SynaptiX_FDK/lib/tinyusb/src/device/usbd.c ****     switch (event.event_id) {
 704:SynaptiX_FDK/lib/tinyusb/src/device/usbd.c ****       case DCD_EVENT_BUS_RESET:
 705:SynaptiX_FDK/lib/tinyusb/src/device/usbd.c ****         TU_LOG_USBD(": %s Speed\r\n", tu_str_speed[event.bus_reset.speed]);
 706:SynaptiX_FDK/lib/tinyusb/src/device/usbd.c ****         usbd_reset(event.rhport);
 707:SynaptiX_FDK/lib/tinyusb/src/device/usbd.c ****         _usbd_dev.speed = event.bus_reset.speed;
 708:SynaptiX_FDK/lib/tinyusb/src/device/usbd.c ****         break;
 709:SynaptiX_FDK/lib/tinyusb/src/device/usbd.c **** 
 710:SynaptiX_FDK/lib/tinyusb/src/device/usbd.c ****       case DCD_EVENT_UNPLUGGED:
 711:SynaptiX_FDK/lib/tinyusb/src/device/usbd.c ****         TU_LOG_USBD("\r\n");
 712:SynaptiX_FDK/lib/tinyusb/src/device/usbd.c ****         usbd_reset(event.rhport);
 713:SynaptiX_FDK/lib/tinyusb/src/device/usbd.c ****         tud_umount_cb();
 714:SynaptiX_FDK/lib/tinyusb/src/device/usbd.c ****         break;
 715:SynaptiX_FDK/lib/tinyusb/src/device/usbd.c **** 
 716:SynaptiX_FDK/lib/tinyusb/src/device/usbd.c ****       case DCD_EVENT_SETUP_RECEIVED:
 717:SynaptiX_FDK/lib/tinyusb/src/device/usbd.c ****         TU_ASSERT(_usbd_queued_setup > 0,);
 718:SynaptiX_FDK/lib/tinyusb/src/device/usbd.c ****         _usbd_queued_setup--;
 719:SynaptiX_FDK/lib/tinyusb/src/device/usbd.c ****         TU_LOG_BUF(CFG_TUD_LOG_LEVEL, &event.setup_received, 8);
 720:SynaptiX_FDK/lib/tinyusb/src/device/usbd.c ****         if (_usbd_queued_setup != 0) {
 721:SynaptiX_FDK/lib/tinyusb/src/device/usbd.c ****           TU_LOG_USBD("  Skipped since there is other SETUP in queue\r\n");
 722:SynaptiX_FDK/lib/tinyusb/src/device/usbd.c ****           break;
 723:SynaptiX_FDK/lib/tinyusb/src/device/usbd.c ****         }
 724:SynaptiX_FDK/lib/tinyusb/src/device/usbd.c **** 
 725:SynaptiX_FDK/lib/tinyusb/src/device/usbd.c ****         // Mark as connected after receiving 1st setup packet.
 726:SynaptiX_FDK/lib/tinyusb/src/device/usbd.c ****         // But it is easier to set it every time instead of wasting time to check then set
 727:SynaptiX_FDK/lib/tinyusb/src/device/usbd.c ****         _usbd_dev.connected = 1;
 728:SynaptiX_FDK/lib/tinyusb/src/device/usbd.c **** 
 729:SynaptiX_FDK/lib/tinyusb/src/device/usbd.c ****         // mark both in & out control as free
 730:SynaptiX_FDK/lib/tinyusb/src/device/usbd.c ****         _usbd_dev.ep_status[0][TUSB_DIR_OUT].busy = 0;
 731:SynaptiX_FDK/lib/tinyusb/src/device/usbd.c ****         _usbd_dev.ep_status[0][TUSB_DIR_OUT].claimed = 0;
 732:SynaptiX_FDK/lib/tinyusb/src/device/usbd.c ****         _usbd_dev.ep_status[0][TUSB_DIR_IN].busy = 0;
 733:SynaptiX_FDK/lib/tinyusb/src/device/usbd.c ****         _usbd_dev.ep_status[0][TUSB_DIR_IN].claimed = 0;
 734:SynaptiX_FDK/lib/tinyusb/src/device/usbd.c **** 
 735:SynaptiX_FDK/lib/tinyusb/src/device/usbd.c ****         // Process control request
 736:SynaptiX_FDK/lib/tinyusb/src/device/usbd.c ****         if (!process_control_request(event.rhport, &event.setup_received)) {
 737:SynaptiX_FDK/lib/tinyusb/src/device/usbd.c ****           TU_LOG_USBD("  Stall EP0\r\n");
 738:SynaptiX_FDK/lib/tinyusb/src/device/usbd.c ****           // Failed -> stall both control endpoint IN and OUT
 739:SynaptiX_FDK/lib/tinyusb/src/device/usbd.c ****           dcd_edpt_stall(event.rhport, 0);
 740:SynaptiX_FDK/lib/tinyusb/src/device/usbd.c ****           dcd_edpt_stall(event.rhport, 0 | TUSB_DIR_IN_MASK);
 741:SynaptiX_FDK/lib/tinyusb/src/device/usbd.c ****         }
 742:SynaptiX_FDK/lib/tinyusb/src/device/usbd.c ****         break;
 743:SynaptiX_FDK/lib/tinyusb/src/device/usbd.c **** 
 744:SynaptiX_FDK/lib/tinyusb/src/device/usbd.c ****       case DCD_EVENT_XFER_COMPLETE: {
 745:SynaptiX_FDK/lib/tinyusb/src/device/usbd.c ****         // Invoke the class callback associated with the endpoint address
 746:SynaptiX_FDK/lib/tinyusb/src/device/usbd.c ****         uint8_t const ep_addr = event.xfer_complete.ep_addr;
 747:SynaptiX_FDK/lib/tinyusb/src/device/usbd.c ****         uint8_t const epnum = tu_edpt_number(ep_addr);
 748:SynaptiX_FDK/lib/tinyusb/src/device/usbd.c ****         uint8_t const ep_dir = tu_edpt_dir(ep_addr);
 749:SynaptiX_FDK/lib/tinyusb/src/device/usbd.c **** 
 750:SynaptiX_FDK/lib/tinyusb/src/device/usbd.c ****         TU_LOG_USBD("on EP %02X with %u bytes\r\n", ep_addr, (unsigned int) event.xfer_complete.len
ARM GAS  C:\Users\DELL\AppData\Local\Temp\ccYJ4WIi.s 			page 19


 751:SynaptiX_FDK/lib/tinyusb/src/device/usbd.c **** 
 752:SynaptiX_FDK/lib/tinyusb/src/device/usbd.c ****         _usbd_dev.ep_status[epnum][ep_dir].busy = 0;
 753:SynaptiX_FDK/lib/tinyusb/src/device/usbd.c ****         _usbd_dev.ep_status[epnum][ep_dir].claimed = 0;
 754:SynaptiX_FDK/lib/tinyusb/src/device/usbd.c **** 
 755:SynaptiX_FDK/lib/tinyusb/src/device/usbd.c ****         if (0 == epnum) {
 756:SynaptiX_FDK/lib/tinyusb/src/device/usbd.c ****           usbd_control_xfer_cb(event.rhport, ep_addr, (xfer_result_t) event.xfer_complete.result, e
 757:SynaptiX_FDK/lib/tinyusb/src/device/usbd.c ****         } else {
 758:SynaptiX_FDK/lib/tinyusb/src/device/usbd.c ****           usbd_class_driver_t const* driver = get_driver(_usbd_dev.ep2drv[epnum][ep_dir]);
 759:SynaptiX_FDK/lib/tinyusb/src/device/usbd.c ****           TU_ASSERT(driver,);
 760:SynaptiX_FDK/lib/tinyusb/src/device/usbd.c **** 
 761:SynaptiX_FDK/lib/tinyusb/src/device/usbd.c ****           TU_LOG_USBD("  %s xfer callback\r\n", driver->name);
 762:SynaptiX_FDK/lib/tinyusb/src/device/usbd.c ****           driver->xfer_cb(event.rhport, ep_addr, (xfer_result_t) event.xfer_complete.result, event.
 763:SynaptiX_FDK/lib/tinyusb/src/device/usbd.c ****         }
 764:SynaptiX_FDK/lib/tinyusb/src/device/usbd.c ****         break;
 765:SynaptiX_FDK/lib/tinyusb/src/device/usbd.c ****       }
 766:SynaptiX_FDK/lib/tinyusb/src/device/usbd.c **** 
 767:SynaptiX_FDK/lib/tinyusb/src/device/usbd.c ****       case DCD_EVENT_SUSPEND:
 768:SynaptiX_FDK/lib/tinyusb/src/device/usbd.c ****         // NOTE: When plugging/unplugging device, the D+/D- state are unstable and
 769:SynaptiX_FDK/lib/tinyusb/src/device/usbd.c ****         // can accidentally meet the SUSPEND condition ( Bus Idle for 3ms ), which result in a seri
 770:SynaptiX_FDK/lib/tinyusb/src/device/usbd.c ****         // e.g suspend -> resume -> unplug/plug. Skip suspend/resume if not connected
 771:SynaptiX_FDK/lib/tinyusb/src/device/usbd.c ****         if (_usbd_dev.connected) {
 772:SynaptiX_FDK/lib/tinyusb/src/device/usbd.c ****           TU_LOG_USBD(": Remote Wakeup = %u\r\n", _usbd_dev.remote_wakeup_en);
 773:SynaptiX_FDK/lib/tinyusb/src/device/usbd.c ****           tud_suspend_cb(_usbd_dev.remote_wakeup_en);
 774:SynaptiX_FDK/lib/tinyusb/src/device/usbd.c ****         } else {
 775:SynaptiX_FDK/lib/tinyusb/src/device/usbd.c ****           TU_LOG_USBD(" Skipped\r\n");
 776:SynaptiX_FDK/lib/tinyusb/src/device/usbd.c ****         }
 777:SynaptiX_FDK/lib/tinyusb/src/device/usbd.c ****         break;
 778:SynaptiX_FDK/lib/tinyusb/src/device/usbd.c **** 
 779:SynaptiX_FDK/lib/tinyusb/src/device/usbd.c ****       case DCD_EVENT_RESUME:
 780:SynaptiX_FDK/lib/tinyusb/src/device/usbd.c ****         if (_usbd_dev.connected) {
 781:SynaptiX_FDK/lib/tinyusb/src/device/usbd.c ****           TU_LOG_USBD("\r\n");
 782:SynaptiX_FDK/lib/tinyusb/src/device/usbd.c ****           tud_resume_cb();
 783:SynaptiX_FDK/lib/tinyusb/src/device/usbd.c ****         } else {
 784:SynaptiX_FDK/lib/tinyusb/src/device/usbd.c ****           TU_LOG_USBD(" Skipped\r\n");
 785:SynaptiX_FDK/lib/tinyusb/src/device/usbd.c ****         }
 786:SynaptiX_FDK/lib/tinyusb/src/device/usbd.c ****         break;
 787:SynaptiX_FDK/lib/tinyusb/src/device/usbd.c **** 
 788:SynaptiX_FDK/lib/tinyusb/src/device/usbd.c ****       case USBD_EVENT_FUNC_CALL:
 789:SynaptiX_FDK/lib/tinyusb/src/device/usbd.c ****         TU_LOG_USBD("\r\n");
 790:SynaptiX_FDK/lib/tinyusb/src/device/usbd.c ****         if (event.func_call.func != NULL) {
 791:SynaptiX_FDK/lib/tinyusb/src/device/usbd.c ****           event.func_call.func(event.func_call.param);
 792:SynaptiX_FDK/lib/tinyusb/src/device/usbd.c ****         }
 793:SynaptiX_FDK/lib/tinyusb/src/device/usbd.c ****         break;
 794:SynaptiX_FDK/lib/tinyusb/src/device/usbd.c **** 
 795:SynaptiX_FDK/lib/tinyusb/src/device/usbd.c ****       case DCD_EVENT_SOF:
 796:SynaptiX_FDK/lib/tinyusb/src/device/usbd.c ****         if (tu_bit_test(_usbd_dev.sof_consumer, SOF_CONSUMER_USER)) {
 797:SynaptiX_FDK/lib/tinyusb/src/device/usbd.c ****           TU_LOG_USBD("\r\n");
 798:SynaptiX_FDK/lib/tinyusb/src/device/usbd.c ****           tud_sof_cb(event.sof.frame_count);
 799:SynaptiX_FDK/lib/tinyusb/src/device/usbd.c ****         }
 800:SynaptiX_FDK/lib/tinyusb/src/device/usbd.c ****       break;
 801:SynaptiX_FDK/lib/tinyusb/src/device/usbd.c **** 
 802:SynaptiX_FDK/lib/tinyusb/src/device/usbd.c ****       default:
 803:SynaptiX_FDK/lib/tinyusb/src/device/usbd.c ****         TU_BREAKPOINT();
 804:SynaptiX_FDK/lib/tinyusb/src/device/usbd.c ****         break;
 805:SynaptiX_FDK/lib/tinyusb/src/device/usbd.c ****     }
 806:SynaptiX_FDK/lib/tinyusb/src/device/usbd.c **** 
 807:SynaptiX_FDK/lib/tinyusb/src/device/usbd.c **** #if CFG_TUSB_OS != OPT_OS_NONE && CFG_TUSB_OS != OPT_OS_PICO
ARM GAS  C:\Users\DELL\AppData\Local\Temp\ccYJ4WIi.s 			page 20


 808:SynaptiX_FDK/lib/tinyusb/src/device/usbd.c ****     // return if there is no more events, for application to run other background
 809:SynaptiX_FDK/lib/tinyusb/src/device/usbd.c ****     if (osal_queue_empty(_usbd_q)) { return; }
 810:SynaptiX_FDK/lib/tinyusb/src/device/usbd.c **** #endif
 811:SynaptiX_FDK/lib/tinyusb/src/device/usbd.c ****   }
 812:SynaptiX_FDK/lib/tinyusb/src/device/usbd.c **** }
 813:SynaptiX_FDK/lib/tinyusb/src/device/usbd.c **** 
 814:SynaptiX_FDK/lib/tinyusb/src/device/usbd.c **** //--------------------------------------------------------------------+
 815:SynaptiX_FDK/lib/tinyusb/src/device/usbd.c **** // Control Request Parser & Handling
 816:SynaptiX_FDK/lib/tinyusb/src/device/usbd.c **** //--------------------------------------------------------------------+
 817:SynaptiX_FDK/lib/tinyusb/src/device/usbd.c **** 
 818:SynaptiX_FDK/lib/tinyusb/src/device/usbd.c **** // Helper to invoke class driver control request handler
 819:SynaptiX_FDK/lib/tinyusb/src/device/usbd.c **** static bool invoke_class_control(uint8_t rhport, usbd_class_driver_t const * driver, tusb_control_r
 820:SynaptiX_FDK/lib/tinyusb/src/device/usbd.c ****   usbd_control_set_complete_callback(driver->control_xfer_cb);
 821:SynaptiX_FDK/lib/tinyusb/src/device/usbd.c ****   TU_LOG_USBD("  %s control request\r\n", driver->name);
 822:SynaptiX_FDK/lib/tinyusb/src/device/usbd.c ****   return driver->control_xfer_cb(rhport, CONTROL_STAGE_SETUP, request);
 823:SynaptiX_FDK/lib/tinyusb/src/device/usbd.c **** }
 824:SynaptiX_FDK/lib/tinyusb/src/device/usbd.c **** 
 825:SynaptiX_FDK/lib/tinyusb/src/device/usbd.c **** // This handles the actual request and its response.
 826:SynaptiX_FDK/lib/tinyusb/src/device/usbd.c **** // Returns false if unable to complete the request, causing caller to stall control endpoints.
 827:SynaptiX_FDK/lib/tinyusb/src/device/usbd.c **** static bool process_control_request(uint8_t rhport, tusb_control_request_t const * p_request) {
 828:SynaptiX_FDK/lib/tinyusb/src/device/usbd.c ****   usbd_control_set_complete_callback(NULL);
 829:SynaptiX_FDK/lib/tinyusb/src/device/usbd.c ****   TU_ASSERT(p_request->bmRequestType_bit.type < TUSB_REQ_TYPE_INVALID);
 830:SynaptiX_FDK/lib/tinyusb/src/device/usbd.c **** 
 831:SynaptiX_FDK/lib/tinyusb/src/device/usbd.c ****   // Vendor request
 832:SynaptiX_FDK/lib/tinyusb/src/device/usbd.c ****   if ( p_request->bmRequestType_bit.type == TUSB_REQ_TYPE_VENDOR ) {
 833:SynaptiX_FDK/lib/tinyusb/src/device/usbd.c ****     usbd_control_set_complete_callback(tud_vendor_control_xfer_cb);
 834:SynaptiX_FDK/lib/tinyusb/src/device/usbd.c ****     return tud_vendor_control_xfer_cb(rhport, CONTROL_STAGE_SETUP, p_request);
 835:SynaptiX_FDK/lib/tinyusb/src/device/usbd.c ****   }
 836:SynaptiX_FDK/lib/tinyusb/src/device/usbd.c **** 
 837:SynaptiX_FDK/lib/tinyusb/src/device/usbd.c **** #if CFG_TUSB_DEBUG >= CFG_TUD_LOG_LEVEL
 838:SynaptiX_FDK/lib/tinyusb/src/device/usbd.c ****   if (TUSB_REQ_TYPE_STANDARD == p_request->bmRequestType_bit.type && p_request->bRequest <= TUSB_RE
 839:SynaptiX_FDK/lib/tinyusb/src/device/usbd.c ****     TU_LOG_USBD("  %s", tu_str_std_request[p_request->bRequest]);
 840:SynaptiX_FDK/lib/tinyusb/src/device/usbd.c ****     if (TUSB_REQ_GET_DESCRIPTOR != p_request->bRequest) {
 841:SynaptiX_FDK/lib/tinyusb/src/device/usbd.c ****       TU_LOG_USBD("\r\n");
 842:SynaptiX_FDK/lib/tinyusb/src/device/usbd.c ****     }
 843:SynaptiX_FDK/lib/tinyusb/src/device/usbd.c ****   }
 844:SynaptiX_FDK/lib/tinyusb/src/device/usbd.c **** #endif
 845:SynaptiX_FDK/lib/tinyusb/src/device/usbd.c **** 
 846:SynaptiX_FDK/lib/tinyusb/src/device/usbd.c ****   switch (p_request->bmRequestType_bit.recipient) { //-V2520
 847:SynaptiX_FDK/lib/tinyusb/src/device/usbd.c ****     //------------- Device Requests e.g in enumeration -------------//
 848:SynaptiX_FDK/lib/tinyusb/src/device/usbd.c ****     case TUSB_REQ_RCPT_DEVICE:
 849:SynaptiX_FDK/lib/tinyusb/src/device/usbd.c ****       if ( TUSB_REQ_TYPE_CLASS == p_request->bmRequestType_bit.type ) {
 850:SynaptiX_FDK/lib/tinyusb/src/device/usbd.c ****         uint8_t const itf = tu_u16_low(p_request->wIndex);
 851:SynaptiX_FDK/lib/tinyusb/src/device/usbd.c ****         TU_VERIFY(itf < TU_ARRAY_SIZE(_usbd_dev.itf2drv));
 852:SynaptiX_FDK/lib/tinyusb/src/device/usbd.c **** 
 853:SynaptiX_FDK/lib/tinyusb/src/device/usbd.c ****         usbd_class_driver_t const * driver = get_driver(_usbd_dev.itf2drv[itf]);
 854:SynaptiX_FDK/lib/tinyusb/src/device/usbd.c ****         TU_VERIFY(driver);
 855:SynaptiX_FDK/lib/tinyusb/src/device/usbd.c **** 
 856:SynaptiX_FDK/lib/tinyusb/src/device/usbd.c ****         // forward to class driver: "non-STD request to Interface"
 857:SynaptiX_FDK/lib/tinyusb/src/device/usbd.c ****         return invoke_class_control(rhport, driver, p_request);
 858:SynaptiX_FDK/lib/tinyusb/src/device/usbd.c ****       }
 859:SynaptiX_FDK/lib/tinyusb/src/device/usbd.c **** 
 860:SynaptiX_FDK/lib/tinyusb/src/device/usbd.c ****       if (TUSB_REQ_TYPE_STANDARD != p_request->bmRequestType_bit.type) {
 861:SynaptiX_FDK/lib/tinyusb/src/device/usbd.c ****         // Non-standard request is not supported
 862:SynaptiX_FDK/lib/tinyusb/src/device/usbd.c ****         TU_BREAKPOINT();
 863:SynaptiX_FDK/lib/tinyusb/src/device/usbd.c ****         return false;
 864:SynaptiX_FDK/lib/tinyusb/src/device/usbd.c ****       }
ARM GAS  C:\Users\DELL\AppData\Local\Temp\ccYJ4WIi.s 			page 21


 865:SynaptiX_FDK/lib/tinyusb/src/device/usbd.c **** 
 866:SynaptiX_FDK/lib/tinyusb/src/device/usbd.c ****       switch (p_request->bRequest) { //-V2520
 867:SynaptiX_FDK/lib/tinyusb/src/device/usbd.c ****         case TUSB_REQ_SET_ADDRESS:
 868:SynaptiX_FDK/lib/tinyusb/src/device/usbd.c ****           // Depending on mcu, status phase could be sent either before or after changing device ad
 869:SynaptiX_FDK/lib/tinyusb/src/device/usbd.c ****           // or even require stack to not response with status at all
 870:SynaptiX_FDK/lib/tinyusb/src/device/usbd.c ****           // Therefore DCD must take full responsibility to response and include zlp status packet 
 871:SynaptiX_FDK/lib/tinyusb/src/device/usbd.c ****           usbd_control_set_request(p_request); // set request since DCD has no access to tud_contro
 872:SynaptiX_FDK/lib/tinyusb/src/device/usbd.c ****           dcd_set_address(rhport, (uint8_t) p_request->wValue);
 873:SynaptiX_FDK/lib/tinyusb/src/device/usbd.c ****           // skip tud_control_status()
 874:SynaptiX_FDK/lib/tinyusb/src/device/usbd.c ****           _usbd_dev.addressed = 1;
 875:SynaptiX_FDK/lib/tinyusb/src/device/usbd.c ****         break;
 876:SynaptiX_FDK/lib/tinyusb/src/device/usbd.c **** 
 877:SynaptiX_FDK/lib/tinyusb/src/device/usbd.c ****         case TUSB_REQ_GET_CONFIGURATION: {
 878:SynaptiX_FDK/lib/tinyusb/src/device/usbd.c ****           uint8_t cfg_num = _usbd_dev.cfg_num;
 879:SynaptiX_FDK/lib/tinyusb/src/device/usbd.c ****           tud_control_xfer(rhport, p_request, &cfg_num, 1);
 880:SynaptiX_FDK/lib/tinyusb/src/device/usbd.c ****         }
 881:SynaptiX_FDK/lib/tinyusb/src/device/usbd.c ****         break;
 882:SynaptiX_FDK/lib/tinyusb/src/device/usbd.c **** 
 883:SynaptiX_FDK/lib/tinyusb/src/device/usbd.c ****         case TUSB_REQ_SET_CONFIGURATION: {
 884:SynaptiX_FDK/lib/tinyusb/src/device/usbd.c ****           uint8_t const cfg_num = (uint8_t) p_request->wValue;
 885:SynaptiX_FDK/lib/tinyusb/src/device/usbd.c **** 
 886:SynaptiX_FDK/lib/tinyusb/src/device/usbd.c ****           // Only process if new configure is different
 887:SynaptiX_FDK/lib/tinyusb/src/device/usbd.c ****           if (_usbd_dev.cfg_num != cfg_num) {
 888:SynaptiX_FDK/lib/tinyusb/src/device/usbd.c ****             if (_usbd_dev.cfg_num != 0) {
 889:SynaptiX_FDK/lib/tinyusb/src/device/usbd.c ****               // already configured: need to clear all endpoints and driver first
 890:SynaptiX_FDK/lib/tinyusb/src/device/usbd.c ****               TU_LOG_USBD("  Clear current Configuration (%u) before switching\r\n", _usbd_dev.cfg_
 891:SynaptiX_FDK/lib/tinyusb/src/device/usbd.c **** 
 892:SynaptiX_FDK/lib/tinyusb/src/device/usbd.c ****               dcd_sof_enable(rhport, false);
 893:SynaptiX_FDK/lib/tinyusb/src/device/usbd.c ****               dcd_edpt_close_all(rhport);
 894:SynaptiX_FDK/lib/tinyusb/src/device/usbd.c **** 
 895:SynaptiX_FDK/lib/tinyusb/src/device/usbd.c ****               // close all drivers and current configured state except bus speed
 896:SynaptiX_FDK/lib/tinyusb/src/device/usbd.c ****               const uint8_t speed = _usbd_dev.speed;
 897:SynaptiX_FDK/lib/tinyusb/src/device/usbd.c ****               configuration_reset(rhport);
 898:SynaptiX_FDK/lib/tinyusb/src/device/usbd.c **** 
 899:SynaptiX_FDK/lib/tinyusb/src/device/usbd.c ****               _usbd_dev.speed = speed; // restore speed
 900:SynaptiX_FDK/lib/tinyusb/src/device/usbd.c ****             }
 901:SynaptiX_FDK/lib/tinyusb/src/device/usbd.c **** 
 902:SynaptiX_FDK/lib/tinyusb/src/device/usbd.c ****             _usbd_dev.cfg_num = cfg_num;
 903:SynaptiX_FDK/lib/tinyusb/src/device/usbd.c **** 
 904:SynaptiX_FDK/lib/tinyusb/src/device/usbd.c ****             // Handle the new configuration
 905:SynaptiX_FDK/lib/tinyusb/src/device/usbd.c ****             if (cfg_num == 0) {
 906:SynaptiX_FDK/lib/tinyusb/src/device/usbd.c ****               tud_umount_cb();
 907:SynaptiX_FDK/lib/tinyusb/src/device/usbd.c ****             } else {
 908:SynaptiX_FDK/lib/tinyusb/src/device/usbd.c ****               if (!process_set_config(rhport, cfg_num)) {
 909:SynaptiX_FDK/lib/tinyusb/src/device/usbd.c ****                 _usbd_dev.cfg_num = 0;
 910:SynaptiX_FDK/lib/tinyusb/src/device/usbd.c ****                 TU_ASSERT(false);
 911:SynaptiX_FDK/lib/tinyusb/src/device/usbd.c ****               }
 912:SynaptiX_FDK/lib/tinyusb/src/device/usbd.c ****               tud_mount_cb();
 913:SynaptiX_FDK/lib/tinyusb/src/device/usbd.c ****             }
 914:SynaptiX_FDK/lib/tinyusb/src/device/usbd.c ****           }
 915:SynaptiX_FDK/lib/tinyusb/src/device/usbd.c **** 
 916:SynaptiX_FDK/lib/tinyusb/src/device/usbd.c ****           tud_control_status(rhport, p_request);
 917:SynaptiX_FDK/lib/tinyusb/src/device/usbd.c ****         }
 918:SynaptiX_FDK/lib/tinyusb/src/device/usbd.c ****         break;
 919:SynaptiX_FDK/lib/tinyusb/src/device/usbd.c **** 
 920:SynaptiX_FDK/lib/tinyusb/src/device/usbd.c ****         case TUSB_REQ_GET_DESCRIPTOR:
 921:SynaptiX_FDK/lib/tinyusb/src/device/usbd.c ****           TU_VERIFY(process_get_descriptor(rhport, p_request));
ARM GAS  C:\Users\DELL\AppData\Local\Temp\ccYJ4WIi.s 			page 22


 922:SynaptiX_FDK/lib/tinyusb/src/device/usbd.c ****         break;
 923:SynaptiX_FDK/lib/tinyusb/src/device/usbd.c **** 
 924:SynaptiX_FDK/lib/tinyusb/src/device/usbd.c ****         case TUSB_REQ_SET_FEATURE:
 925:SynaptiX_FDK/lib/tinyusb/src/device/usbd.c ****           switch(p_request->wValue) { //-V2520
 926:SynaptiX_FDK/lib/tinyusb/src/device/usbd.c ****             case TUSB_REQ_FEATURE_REMOTE_WAKEUP:
 927:SynaptiX_FDK/lib/tinyusb/src/device/usbd.c ****               TU_LOG_USBD("    Enable Remote Wakeup\r\n");
 928:SynaptiX_FDK/lib/tinyusb/src/device/usbd.c ****               // Host may enable remote wake up before suspending especially HID device
 929:SynaptiX_FDK/lib/tinyusb/src/device/usbd.c ****               _usbd_dev.remote_wakeup_en = 1;
 930:SynaptiX_FDK/lib/tinyusb/src/device/usbd.c ****               tud_control_status(rhport, p_request);
 931:SynaptiX_FDK/lib/tinyusb/src/device/usbd.c ****               break;
 932:SynaptiX_FDK/lib/tinyusb/src/device/usbd.c **** 
 933:SynaptiX_FDK/lib/tinyusb/src/device/usbd.c ****             #if CFG_TUD_TEST_MODE
 934:SynaptiX_FDK/lib/tinyusb/src/device/usbd.c ****             case TUSB_REQ_FEATURE_TEST_MODE: {
 935:SynaptiX_FDK/lib/tinyusb/src/device/usbd.c ****               // Only handle the test mode if supported and valid
 936:SynaptiX_FDK/lib/tinyusb/src/device/usbd.c ****               TU_VERIFY(0 == tu_u16_low(p_request->wIndex));
 937:SynaptiX_FDK/lib/tinyusb/src/device/usbd.c **** 
 938:SynaptiX_FDK/lib/tinyusb/src/device/usbd.c ****               uint8_t const selector = tu_u16_high(p_request->wIndex);
 939:SynaptiX_FDK/lib/tinyusb/src/device/usbd.c ****               TU_VERIFY(TUSB_FEATURE_TEST_J <= selector && selector <= TUSB_FEATURE_TEST_FORCE_ENAB
 940:SynaptiX_FDK/lib/tinyusb/src/device/usbd.c **** 
 941:SynaptiX_FDK/lib/tinyusb/src/device/usbd.c ****               usbd_control_set_complete_callback(process_test_mode_cb);
 942:SynaptiX_FDK/lib/tinyusb/src/device/usbd.c ****               tud_control_status(rhport, p_request);
 943:SynaptiX_FDK/lib/tinyusb/src/device/usbd.c ****               break;
 944:SynaptiX_FDK/lib/tinyusb/src/device/usbd.c ****             }
 945:SynaptiX_FDK/lib/tinyusb/src/device/usbd.c ****             #endif
 946:SynaptiX_FDK/lib/tinyusb/src/device/usbd.c **** 
 947:SynaptiX_FDK/lib/tinyusb/src/device/usbd.c ****             // Stall unsupported feature selector
 948:SynaptiX_FDK/lib/tinyusb/src/device/usbd.c ****             default: return false;
 949:SynaptiX_FDK/lib/tinyusb/src/device/usbd.c ****           }
 950:SynaptiX_FDK/lib/tinyusb/src/device/usbd.c ****         break;
 951:SynaptiX_FDK/lib/tinyusb/src/device/usbd.c **** 
 952:SynaptiX_FDK/lib/tinyusb/src/device/usbd.c ****         case TUSB_REQ_CLEAR_FEATURE:
 953:SynaptiX_FDK/lib/tinyusb/src/device/usbd.c ****           // Only support remote wakeup for device feature
 954:SynaptiX_FDK/lib/tinyusb/src/device/usbd.c ****           TU_VERIFY(TUSB_REQ_FEATURE_REMOTE_WAKEUP == p_request->wValue);
 955:SynaptiX_FDK/lib/tinyusb/src/device/usbd.c ****           TU_LOG_USBD("    Disable Remote Wakeup\r\n");
 956:SynaptiX_FDK/lib/tinyusb/src/device/usbd.c **** 
 957:SynaptiX_FDK/lib/tinyusb/src/device/usbd.c ****           // Host may disable remote wake up after resuming
 958:SynaptiX_FDK/lib/tinyusb/src/device/usbd.c ****           _usbd_dev.remote_wakeup_en = 0;
 959:SynaptiX_FDK/lib/tinyusb/src/device/usbd.c ****           tud_control_status(rhport, p_request);
 960:SynaptiX_FDK/lib/tinyusb/src/device/usbd.c ****           break;
 961:SynaptiX_FDK/lib/tinyusb/src/device/usbd.c **** 
 962:SynaptiX_FDK/lib/tinyusb/src/device/usbd.c ****         case TUSB_REQ_GET_STATUS: {
 963:SynaptiX_FDK/lib/tinyusb/src/device/usbd.c ****           // Device status bit mask
 964:SynaptiX_FDK/lib/tinyusb/src/device/usbd.c ****           // - Bit 0: Self Powered TODO must invoke callback to get actual status
 965:SynaptiX_FDK/lib/tinyusb/src/device/usbd.c ****           // - Bit 1: Remote Wakeup enabled
 966:SynaptiX_FDK/lib/tinyusb/src/device/usbd.c ****           uint16_t status = (uint16_t)_usbd_dev.dev_state_bm;
 967:SynaptiX_FDK/lib/tinyusb/src/device/usbd.c ****           tud_control_xfer(rhport, p_request, &status, 2);
 968:SynaptiX_FDK/lib/tinyusb/src/device/usbd.c ****           break;
 969:SynaptiX_FDK/lib/tinyusb/src/device/usbd.c ****         }
 970:SynaptiX_FDK/lib/tinyusb/src/device/usbd.c **** 
 971:SynaptiX_FDK/lib/tinyusb/src/device/usbd.c ****         // Unknown/Unsupported request
 972:SynaptiX_FDK/lib/tinyusb/src/device/usbd.c ****         default: TU_BREAKPOINT(); return false;
 973:SynaptiX_FDK/lib/tinyusb/src/device/usbd.c ****       }
 974:SynaptiX_FDK/lib/tinyusb/src/device/usbd.c ****     break;
 975:SynaptiX_FDK/lib/tinyusb/src/device/usbd.c **** 
 976:SynaptiX_FDK/lib/tinyusb/src/device/usbd.c ****     //------------- Class/Interface Specific Request -------------//
 977:SynaptiX_FDK/lib/tinyusb/src/device/usbd.c ****     case TUSB_REQ_RCPT_INTERFACE: {
 978:SynaptiX_FDK/lib/tinyusb/src/device/usbd.c ****       uint8_t itf;
ARM GAS  C:\Users\DELL\AppData\Local\Temp\ccYJ4WIi.s 			page 23


 979:SynaptiX_FDK/lib/tinyusb/src/device/usbd.c ****       #if CFG_TUD_PRINTER
 980:SynaptiX_FDK/lib/tinyusb/src/device/usbd.c ****       // Printer GET_DEVICE_ID has a weird wIndex = interface (high) | alt (low)
 981:SynaptiX_FDK/lib/tinyusb/src/device/usbd.c ****       // attempt to interpret this as a printer request if matched
 982:SynaptiX_FDK/lib/tinyusb/src/device/usbd.c ****       if (TUSB_REQ_TYPE_CLASS == p_request->bmRequestType_bit.type &&
 983:SynaptiX_FDK/lib/tinyusb/src/device/usbd.c ****           TUSB_DIR_IN == p_request->bmRequestType_bit.direction &&
 984:SynaptiX_FDK/lib/tinyusb/src/device/usbd.c ****           TUSB_PRINTER_REQUEST_GET_DEVICE_ID == p_request->bRequest) {
 985:SynaptiX_FDK/lib/tinyusb/src/device/usbd.c ****         itf = tu_u16_high(p_request->wIndex);
 986:SynaptiX_FDK/lib/tinyusb/src/device/usbd.c ****         if (itf < TU_ARRAY_SIZE(_usbd_dev.itf2drv)) {
 987:SynaptiX_FDK/lib/tinyusb/src/device/usbd.c ****           const usbd_class_driver_t * driver = get_driver(_usbd_dev.itf2drv[itf]);
 988:SynaptiX_FDK/lib/tinyusb/src/device/usbd.c ****           if (driver != NULL && driver->control_xfer_cb == printerd_control_xfer_cb) {
 989:SynaptiX_FDK/lib/tinyusb/src/device/usbd.c ****             if (invoke_class_control(rhport, driver, p_request)) {
 990:SynaptiX_FDK/lib/tinyusb/src/device/usbd.c ****               return true;
 991:SynaptiX_FDK/lib/tinyusb/src/device/usbd.c ****             }
 992:SynaptiX_FDK/lib/tinyusb/src/device/usbd.c ****           }
 993:SynaptiX_FDK/lib/tinyusb/src/device/usbd.c ****         }
 994:SynaptiX_FDK/lib/tinyusb/src/device/usbd.c ****       }
 995:SynaptiX_FDK/lib/tinyusb/src/device/usbd.c ****       #endif
 996:SynaptiX_FDK/lib/tinyusb/src/device/usbd.c ****       itf = tu_u16_low(p_request->wIndex);
 997:SynaptiX_FDK/lib/tinyusb/src/device/usbd.c ****       TU_VERIFY(itf < TU_ARRAY_SIZE(_usbd_dev.itf2drv));
 998:SynaptiX_FDK/lib/tinyusb/src/device/usbd.c **** 
 999:SynaptiX_FDK/lib/tinyusb/src/device/usbd.c ****       usbd_class_driver_t const * driver = get_driver(_usbd_dev.itf2drv[itf]);
1000:SynaptiX_FDK/lib/tinyusb/src/device/usbd.c ****       TU_VERIFY(driver);
1001:SynaptiX_FDK/lib/tinyusb/src/device/usbd.c **** 
1002:SynaptiX_FDK/lib/tinyusb/src/device/usbd.c ****       // all requests to Interface (STD or Class) is forwarded to class driver.
1003:SynaptiX_FDK/lib/tinyusb/src/device/usbd.c ****       // notable requests are: GET HID REPORT DESCRIPTOR, SET_INTERFACE, GET_INTERFACE
1004:SynaptiX_FDK/lib/tinyusb/src/device/usbd.c ****       if (!invoke_class_control(rhport, driver, p_request)) {
1005:SynaptiX_FDK/lib/tinyusb/src/device/usbd.c ****         // For GET_INTERFACE and SET_INTERFACE, it is mandatory to respond even if the class
1006:SynaptiX_FDK/lib/tinyusb/src/device/usbd.c ****         // driver doesn't use alternate settings or implement this
1007:SynaptiX_FDK/lib/tinyusb/src/device/usbd.c ****         TU_VERIFY(TUSB_REQ_TYPE_STANDARD == p_request->bmRequestType_bit.type);
1008:SynaptiX_FDK/lib/tinyusb/src/device/usbd.c **** 
1009:SynaptiX_FDK/lib/tinyusb/src/device/usbd.c ****         // Clear complete callback if driver set since it can also stall the request.
1010:SynaptiX_FDK/lib/tinyusb/src/device/usbd.c ****         usbd_control_set_complete_callback(NULL);
1011:SynaptiX_FDK/lib/tinyusb/src/device/usbd.c **** 
1012:SynaptiX_FDK/lib/tinyusb/src/device/usbd.c ****         switch (p_request->bRequest) { //-V2520
1013:SynaptiX_FDK/lib/tinyusb/src/device/usbd.c ****           case TUSB_REQ_GET_INTERFACE: {
1014:SynaptiX_FDK/lib/tinyusb/src/device/usbd.c ****             uint8_t alternate = 0;
1015:SynaptiX_FDK/lib/tinyusb/src/device/usbd.c ****             tud_control_xfer(rhport, p_request, &alternate, 1);
1016:SynaptiX_FDK/lib/tinyusb/src/device/usbd.c ****             break;
1017:SynaptiX_FDK/lib/tinyusb/src/device/usbd.c ****           }
1018:SynaptiX_FDK/lib/tinyusb/src/device/usbd.c **** 
1019:SynaptiX_FDK/lib/tinyusb/src/device/usbd.c ****           case TUSB_REQ_SET_INTERFACE:
1020:SynaptiX_FDK/lib/tinyusb/src/device/usbd.c ****             tud_control_status(rhport, p_request);
1021:SynaptiX_FDK/lib/tinyusb/src/device/usbd.c ****             break;
1022:SynaptiX_FDK/lib/tinyusb/src/device/usbd.c **** 
1023:SynaptiX_FDK/lib/tinyusb/src/device/usbd.c ****           default: return false;
1024:SynaptiX_FDK/lib/tinyusb/src/device/usbd.c ****         }
1025:SynaptiX_FDK/lib/tinyusb/src/device/usbd.c ****       }
1026:SynaptiX_FDK/lib/tinyusb/src/device/usbd.c ****       break;
1027:SynaptiX_FDK/lib/tinyusb/src/device/usbd.c ****     }
1028:SynaptiX_FDK/lib/tinyusb/src/device/usbd.c **** 
1029:SynaptiX_FDK/lib/tinyusb/src/device/usbd.c ****     //------------- Endpoint Request -------------//
1030:SynaptiX_FDK/lib/tinyusb/src/device/usbd.c ****     case TUSB_REQ_RCPT_ENDPOINT: {
1031:SynaptiX_FDK/lib/tinyusb/src/device/usbd.c ****       uint8_t const ep_addr = tu_u16_low(p_request->wIndex);
1032:SynaptiX_FDK/lib/tinyusb/src/device/usbd.c ****       uint8_t const ep_num  = tu_edpt_number(ep_addr);
1033:SynaptiX_FDK/lib/tinyusb/src/device/usbd.c ****       uint8_t const ep_dir  = tu_edpt_dir(ep_addr);
1034:SynaptiX_FDK/lib/tinyusb/src/device/usbd.c **** 
1035:SynaptiX_FDK/lib/tinyusb/src/device/usbd.c ****       TU_ASSERT(ep_num < TU_ARRAY_SIZE(_usbd_dev.ep2drv) );
ARM GAS  C:\Users\DELL\AppData\Local\Temp\ccYJ4WIi.s 			page 24


1036:SynaptiX_FDK/lib/tinyusb/src/device/usbd.c ****       usbd_class_driver_t const * driver = get_driver(_usbd_dev.ep2drv[ep_num][ep_dir]);
1037:SynaptiX_FDK/lib/tinyusb/src/device/usbd.c **** 
1038:SynaptiX_FDK/lib/tinyusb/src/device/usbd.c ****       if (TUSB_REQ_TYPE_STANDARD != p_request->bmRequestType_bit.type) {
1039:SynaptiX_FDK/lib/tinyusb/src/device/usbd.c ****         // Forward class request to its driver
1040:SynaptiX_FDK/lib/tinyusb/src/device/usbd.c ****         TU_VERIFY(driver);
1041:SynaptiX_FDK/lib/tinyusb/src/device/usbd.c ****         return invoke_class_control(rhport, driver, p_request);
1042:SynaptiX_FDK/lib/tinyusb/src/device/usbd.c ****       } else {
1043:SynaptiX_FDK/lib/tinyusb/src/device/usbd.c ****         // Handle STD request to endpoint
1044:SynaptiX_FDK/lib/tinyusb/src/device/usbd.c ****         switch (p_request->bRequest) { //-V2520
1045:SynaptiX_FDK/lib/tinyusb/src/device/usbd.c ****           case TUSB_REQ_GET_STATUS: {
1046:SynaptiX_FDK/lib/tinyusb/src/device/usbd.c ****             uint16_t status = usbd_edpt_stalled(rhport, ep_addr) ? 0x0001u : 0x0000u;
1047:SynaptiX_FDK/lib/tinyusb/src/device/usbd.c ****             tud_control_xfer(rhport, p_request, &status, 2);
1048:SynaptiX_FDK/lib/tinyusb/src/device/usbd.c ****           }
1049:SynaptiX_FDK/lib/tinyusb/src/device/usbd.c ****           break;
1050:SynaptiX_FDK/lib/tinyusb/src/device/usbd.c **** 
1051:SynaptiX_FDK/lib/tinyusb/src/device/usbd.c ****           case TUSB_REQ_CLEAR_FEATURE:
1052:SynaptiX_FDK/lib/tinyusb/src/device/usbd.c ****           case TUSB_REQ_SET_FEATURE: {
1053:SynaptiX_FDK/lib/tinyusb/src/device/usbd.c ****             if ( TUSB_REQ_FEATURE_EDPT_HALT == p_request->wValue ) {
1054:SynaptiX_FDK/lib/tinyusb/src/device/usbd.c ****               if ( TUSB_REQ_CLEAR_FEATURE ==  p_request->bRequest ) {
1055:SynaptiX_FDK/lib/tinyusb/src/device/usbd.c ****                 usbd_edpt_clear_stall(rhport, ep_addr);
1056:SynaptiX_FDK/lib/tinyusb/src/device/usbd.c ****               }else {
1057:SynaptiX_FDK/lib/tinyusb/src/device/usbd.c ****                 usbd_edpt_stall(rhport, ep_addr);
1058:SynaptiX_FDK/lib/tinyusb/src/device/usbd.c ****               }
1059:SynaptiX_FDK/lib/tinyusb/src/device/usbd.c ****             }
1060:SynaptiX_FDK/lib/tinyusb/src/device/usbd.c **** 
1061:SynaptiX_FDK/lib/tinyusb/src/device/usbd.c ****             if (driver != NULL) {
1062:SynaptiX_FDK/lib/tinyusb/src/device/usbd.c ****               // Some classes such as USBTMC needs to clear/re-init its buffer when receiving CLEAR
1063:SynaptiX_FDK/lib/tinyusb/src/device/usbd.c ****               // We will also forward std request targeted endpoint to class drivers as well
1064:SynaptiX_FDK/lib/tinyusb/src/device/usbd.c **** 
1065:SynaptiX_FDK/lib/tinyusb/src/device/usbd.c ****               // STD request must always be ACKed regardless of driver returned value
1066:SynaptiX_FDK/lib/tinyusb/src/device/usbd.c ****               // Also clear complete callback if driver set since it can also stall the request.
1067:SynaptiX_FDK/lib/tinyusb/src/device/usbd.c ****               (void) invoke_class_control(rhport, driver, p_request);
1068:SynaptiX_FDK/lib/tinyusb/src/device/usbd.c ****               usbd_control_set_complete_callback(NULL);
1069:SynaptiX_FDK/lib/tinyusb/src/device/usbd.c **** 
1070:SynaptiX_FDK/lib/tinyusb/src/device/usbd.c ****               // skip ZLP status if driver already did that
1071:SynaptiX_FDK/lib/tinyusb/src/device/usbd.c ****               if (!_usbd_dev.ep_status[0][TUSB_DIR_IN].busy) {
1072:SynaptiX_FDK/lib/tinyusb/src/device/usbd.c ****                 tud_control_status(rhport, p_request);
1073:SynaptiX_FDK/lib/tinyusb/src/device/usbd.c ****               }
1074:SynaptiX_FDK/lib/tinyusb/src/device/usbd.c ****             }
1075:SynaptiX_FDK/lib/tinyusb/src/device/usbd.c ****           }
1076:SynaptiX_FDK/lib/tinyusb/src/device/usbd.c ****           break;
1077:SynaptiX_FDK/lib/tinyusb/src/device/usbd.c **** 
1078:SynaptiX_FDK/lib/tinyusb/src/device/usbd.c ****           // Unknown/Unsupported request
1079:SynaptiX_FDK/lib/tinyusb/src/device/usbd.c ****           default:
1080:SynaptiX_FDK/lib/tinyusb/src/device/usbd.c ****             TU_BREAKPOINT();
1081:SynaptiX_FDK/lib/tinyusb/src/device/usbd.c ****             return false;
1082:SynaptiX_FDK/lib/tinyusb/src/device/usbd.c ****         }
1083:SynaptiX_FDK/lib/tinyusb/src/device/usbd.c ****       }
1084:SynaptiX_FDK/lib/tinyusb/src/device/usbd.c ****       break;
1085:SynaptiX_FDK/lib/tinyusb/src/device/usbd.c ****     }
1086:SynaptiX_FDK/lib/tinyusb/src/device/usbd.c **** 
1087:SynaptiX_FDK/lib/tinyusb/src/device/usbd.c ****     // Unknown recipient
1088:SynaptiX_FDK/lib/tinyusb/src/device/usbd.c ****     default:
1089:SynaptiX_FDK/lib/tinyusb/src/device/usbd.c ****       TU_BREAKPOINT();
1090:SynaptiX_FDK/lib/tinyusb/src/device/usbd.c ****       return false;
1091:SynaptiX_FDK/lib/tinyusb/src/device/usbd.c ****   }
1092:SynaptiX_FDK/lib/tinyusb/src/device/usbd.c **** 
ARM GAS  C:\Users\DELL\AppData\Local\Temp\ccYJ4WIi.s 			page 25


1093:SynaptiX_FDK/lib/tinyusb/src/device/usbd.c ****   return true;
1094:SynaptiX_FDK/lib/tinyusb/src/device/usbd.c **** }
1095:SynaptiX_FDK/lib/tinyusb/src/device/usbd.c **** 
1096:SynaptiX_FDK/lib/tinyusb/src/device/usbd.c **** // Process Set Configure Request
1097:SynaptiX_FDK/lib/tinyusb/src/device/usbd.c **** // This function parse configuration descriptor & open drivers accordingly
1098:SynaptiX_FDK/lib/tinyusb/src/device/usbd.c **** static bool process_set_config(uint8_t rhport, uint8_t cfg_num) {
1099:SynaptiX_FDK/lib/tinyusb/src/device/usbd.c ****   // index is cfg_num-1
1100:SynaptiX_FDK/lib/tinyusb/src/device/usbd.c ****   const tusb_desc_configuration_t *desc_cfg =
1101:SynaptiX_FDK/lib/tinyusb/src/device/usbd.c ****     (const tusb_desc_configuration_t *)tud_descriptor_configuration_cb(cfg_num - 1);
1102:SynaptiX_FDK/lib/tinyusb/src/device/usbd.c ****   TU_ASSERT(desc_cfg != NULL && desc_cfg->bDescriptorType == TUSB_DESC_CONFIGURATION);
1103:SynaptiX_FDK/lib/tinyusb/src/device/usbd.c **** 
1104:SynaptiX_FDK/lib/tinyusb/src/device/usbd.c ****   // Parse configuration descriptor
1105:SynaptiX_FDK/lib/tinyusb/src/device/usbd.c ****   _usbd_dev.self_powered = (desc_cfg->bmAttributes & TUSB_DESC_CONFIG_ATT_SELF_POWERED) ? 1u : 0u;
1106:SynaptiX_FDK/lib/tinyusb/src/device/usbd.c **** 
1107:SynaptiX_FDK/lib/tinyusb/src/device/usbd.c ****   // Parse interface descriptor
1108:SynaptiX_FDK/lib/tinyusb/src/device/usbd.c ****   const uint8_t *p_desc   = ((const uint8_t *)desc_cfg) + sizeof(tusb_desc_configuration_t);
1109:SynaptiX_FDK/lib/tinyusb/src/device/usbd.c ****   const uint8_t *desc_end = ((const uint8_t *)desc_cfg) + tu_le16toh(desc_cfg->wTotalLength);
1110:SynaptiX_FDK/lib/tinyusb/src/device/usbd.c **** 
1111:SynaptiX_FDK/lib/tinyusb/src/device/usbd.c ****   while (tu_desc_in_bounds(p_desc, desc_end)) {
1112:SynaptiX_FDK/lib/tinyusb/src/device/usbd.c ****     // Class will always start with Interface Association (if any) and then Interface descriptor
1113:SynaptiX_FDK/lib/tinyusb/src/device/usbd.c ****     if (TUSB_DESC_INTERFACE_ASSOCIATION == tu_desc_type(p_desc)) {
1114:SynaptiX_FDK/lib/tinyusb/src/device/usbd.c ****       p_desc = tu_desc_next(p_desc); // next to Interface
1115:SynaptiX_FDK/lib/tinyusb/src/device/usbd.c ****       continue;
1116:SynaptiX_FDK/lib/tinyusb/src/device/usbd.c ****     }
1117:SynaptiX_FDK/lib/tinyusb/src/device/usbd.c **** 
1118:SynaptiX_FDK/lib/tinyusb/src/device/usbd.c ****     TU_ASSERT(TUSB_DESC_INTERFACE == tu_desc_type(p_desc));
1119:SynaptiX_FDK/lib/tinyusb/src/device/usbd.c ****     const tusb_desc_interface_t *desc_itf = (const tusb_desc_interface_t *)p_desc;
1120:SynaptiX_FDK/lib/tinyusb/src/device/usbd.c **** 
1121:SynaptiX_FDK/lib/tinyusb/src/device/usbd.c ****     // Find driver for this interface
1122:SynaptiX_FDK/lib/tinyusb/src/device/usbd.c ****     const uint16_t remaining_len = (uint16_t)(desc_end - p_desc);
1123:SynaptiX_FDK/lib/tinyusb/src/device/usbd.c ****     uint8_t        drv_id;
1124:SynaptiX_FDK/lib/tinyusb/src/device/usbd.c ****     for (drv_id = 0; drv_id < TOTAL_DRIVER_COUNT; drv_id++) {
1125:SynaptiX_FDK/lib/tinyusb/src/device/usbd.c ****       const usbd_class_driver_t *driver = get_driver(drv_id);
1126:SynaptiX_FDK/lib/tinyusb/src/device/usbd.c ****       TU_ASSERT(driver);
1127:SynaptiX_FDK/lib/tinyusb/src/device/usbd.c ****       const uint16_t drv_len = driver->open(rhport, desc_itf, remaining_len);
1128:SynaptiX_FDK/lib/tinyusb/src/device/usbd.c **** 
1129:SynaptiX_FDK/lib/tinyusb/src/device/usbd.c ****       if ((sizeof(tusb_desc_interface_t) <= drv_len) && (drv_len <= remaining_len)) {
1130:SynaptiX_FDK/lib/tinyusb/src/device/usbd.c ****         // Open successfully
1131:SynaptiX_FDK/lib/tinyusb/src/device/usbd.c ****         TU_LOG_USBD("  %s opened\r\n", driver->name);
1132:SynaptiX_FDK/lib/tinyusb/src/device/usbd.c **** 
1133:SynaptiX_FDK/lib/tinyusb/src/device/usbd.c ****         // bind found driver to all interfaces and endpoint within drv_len
1134:SynaptiX_FDK/lib/tinyusb/src/device/usbd.c ****         TU_ASSERT(tu_bind_driver_to_ep_itf(drv_id, _usbd_dev.ep2drv, _usbd_dev.itf2drv, CFG_TUD_INT
1135:SynaptiX_FDK/lib/tinyusb/src/device/usbd.c ****                                            drv_len));
1136:SynaptiX_FDK/lib/tinyusb/src/device/usbd.c **** 
1137:SynaptiX_FDK/lib/tinyusb/src/device/usbd.c ****         p_desc += drv_len; // next Interface
1138:SynaptiX_FDK/lib/tinyusb/src/device/usbd.c ****         break; // exit driver find loop
1139:SynaptiX_FDK/lib/tinyusb/src/device/usbd.c ****       }
1140:SynaptiX_FDK/lib/tinyusb/src/device/usbd.c ****     }
1141:SynaptiX_FDK/lib/tinyusb/src/device/usbd.c **** 
1142:SynaptiX_FDK/lib/tinyusb/src/device/usbd.c ****     // Failed if there is no supported drivers
1143:SynaptiX_FDK/lib/tinyusb/src/device/usbd.c ****     TU_ASSERT(drv_id < TOTAL_DRIVER_COUNT);
1144:SynaptiX_FDK/lib/tinyusb/src/device/usbd.c ****   }
1145:SynaptiX_FDK/lib/tinyusb/src/device/usbd.c **** 
1146:SynaptiX_FDK/lib/tinyusb/src/device/usbd.c ****   return true;
1147:SynaptiX_FDK/lib/tinyusb/src/device/usbd.c **** }
1148:SynaptiX_FDK/lib/tinyusb/src/device/usbd.c **** 
1149:SynaptiX_FDK/lib/tinyusb/src/device/usbd.c **** // return descriptor's buffer and update desc_len
ARM GAS  C:\Users\DELL\AppData\Local\Temp\ccYJ4WIi.s 			page 26


1150:SynaptiX_FDK/lib/tinyusb/src/device/usbd.c **** static bool process_get_descriptor(uint8_t rhport, tusb_control_request_t const * p_request)
1151:SynaptiX_FDK/lib/tinyusb/src/device/usbd.c **** {
1152:SynaptiX_FDK/lib/tinyusb/src/device/usbd.c ****   tusb_desc_type_t const desc_type = (tusb_desc_type_t) tu_u16_high(p_request->wValue);
1153:SynaptiX_FDK/lib/tinyusb/src/device/usbd.c ****   uint8_t const desc_index = tu_u16_low( p_request->wValue );
1154:SynaptiX_FDK/lib/tinyusb/src/device/usbd.c **** 
1155:SynaptiX_FDK/lib/tinyusb/src/device/usbd.c ****   switch(desc_type) { //-V2520
1156:SynaptiX_FDK/lib/tinyusb/src/device/usbd.c ****     case TUSB_DESC_DEVICE: {
1157:SynaptiX_FDK/lib/tinyusb/src/device/usbd.c ****       TU_LOG_USBD(" Device\r\n");
1158:SynaptiX_FDK/lib/tinyusb/src/device/usbd.c **** 
1159:SynaptiX_FDK/lib/tinyusb/src/device/usbd.c ****       void* desc_device = (void*) (uintptr_t) tud_descriptor_device_cb();
1160:SynaptiX_FDK/lib/tinyusb/src/device/usbd.c ****       TU_ASSERT(desc_device);
1161:SynaptiX_FDK/lib/tinyusb/src/device/usbd.c **** 
1162:SynaptiX_FDK/lib/tinyusb/src/device/usbd.c ****       // Only response with exactly 1 Packet if: not addressed and host requested more data than de
1163:SynaptiX_FDK/lib/tinyusb/src/device/usbd.c ****       // This only happens with the very first get device descriptor and EP0 size = 8 or 16.
1164:SynaptiX_FDK/lib/tinyusb/src/device/usbd.c ****       if ((CFG_TUD_ENDPOINT0_SIZE < sizeof(tusb_desc_device_t)) && !_usbd_dev.addressed &&
1165:SynaptiX_FDK/lib/tinyusb/src/device/usbd.c ****           ((tusb_control_request_t const*) p_request)->wLength > sizeof(tusb_desc_device_t)) {
1166:SynaptiX_FDK/lib/tinyusb/src/device/usbd.c ****         // Hack here: we modify the request length to prevent usbd_control response with zlp
1167:SynaptiX_FDK/lib/tinyusb/src/device/usbd.c ****         // since we are responding with 1 packet & less data than wLength.
1168:SynaptiX_FDK/lib/tinyusb/src/device/usbd.c ****         tusb_control_request_t mod_request = *p_request;
1169:SynaptiX_FDK/lib/tinyusb/src/device/usbd.c ****         mod_request.wLength = CFG_TUD_ENDPOINT0_SIZE;
1170:SynaptiX_FDK/lib/tinyusb/src/device/usbd.c **** 
1171:SynaptiX_FDK/lib/tinyusb/src/device/usbd.c ****         return tud_control_xfer(rhport, &mod_request, desc_device, CFG_TUD_ENDPOINT0_SIZE);
1172:SynaptiX_FDK/lib/tinyusb/src/device/usbd.c ****       }else {
1173:SynaptiX_FDK/lib/tinyusb/src/device/usbd.c ****         return tud_control_xfer(rhport, p_request, desc_device, sizeof(tusb_desc_device_t));
1174:SynaptiX_FDK/lib/tinyusb/src/device/usbd.c ****       }
1175:SynaptiX_FDK/lib/tinyusb/src/device/usbd.c ****     }
1176:SynaptiX_FDK/lib/tinyusb/src/device/usbd.c ****     // break; // unreachable
1177:SynaptiX_FDK/lib/tinyusb/src/device/usbd.c **** 
1178:SynaptiX_FDK/lib/tinyusb/src/device/usbd.c ****     case TUSB_DESC_BOS: {
1179:SynaptiX_FDK/lib/tinyusb/src/device/usbd.c ****       TU_LOG_USBD(" BOS\r\n");
1180:SynaptiX_FDK/lib/tinyusb/src/device/usbd.c **** 
1181:SynaptiX_FDK/lib/tinyusb/src/device/usbd.c ****       // requested by host if USB > 2.0 ( i.e 2.1 or 3.x )
1182:SynaptiX_FDK/lib/tinyusb/src/device/usbd.c ****       uintptr_t desc_bos = (uintptr_t) tud_descriptor_bos_cb();
1183:SynaptiX_FDK/lib/tinyusb/src/device/usbd.c ****       TU_VERIFY(desc_bos != 0);
1184:SynaptiX_FDK/lib/tinyusb/src/device/usbd.c **** 
1185:SynaptiX_FDK/lib/tinyusb/src/device/usbd.c ****       // Use offsetof to avoid pointer to the odd/misaligned address
1186:SynaptiX_FDK/lib/tinyusb/src/device/usbd.c ****       uint16_t const total_len = tu_le16toh( tu_unaligned_read16((const void*) (desc_bos + offsetof
1187:SynaptiX_FDK/lib/tinyusb/src/device/usbd.c **** 
1188:SynaptiX_FDK/lib/tinyusb/src/device/usbd.c ****       return tud_control_xfer(rhport, p_request, (void*) desc_bos, total_len);
1189:SynaptiX_FDK/lib/tinyusb/src/device/usbd.c ****     }
1190:SynaptiX_FDK/lib/tinyusb/src/device/usbd.c ****     // break; // unreachable
1191:SynaptiX_FDK/lib/tinyusb/src/device/usbd.c **** 
1192:SynaptiX_FDK/lib/tinyusb/src/device/usbd.c ****     case TUSB_DESC_CONFIGURATION:
1193:SynaptiX_FDK/lib/tinyusb/src/device/usbd.c ****     case TUSB_DESC_OTHER_SPEED_CONFIG: {
1194:SynaptiX_FDK/lib/tinyusb/src/device/usbd.c ****       uintptr_t desc_config;
1195:SynaptiX_FDK/lib/tinyusb/src/device/usbd.c **** 
1196:SynaptiX_FDK/lib/tinyusb/src/device/usbd.c ****       if ( desc_type == TUSB_DESC_CONFIGURATION ) {
1197:SynaptiX_FDK/lib/tinyusb/src/device/usbd.c ****         TU_LOG_USBD(" Configuration[%u]\r\n", desc_index);
1198:SynaptiX_FDK/lib/tinyusb/src/device/usbd.c ****         desc_config = (uintptr_t) tud_descriptor_configuration_cb(desc_index);
1199:SynaptiX_FDK/lib/tinyusb/src/device/usbd.c ****         TU_ASSERT(desc_config != 0);
1200:SynaptiX_FDK/lib/tinyusb/src/device/usbd.c ****       }else {
1201:SynaptiX_FDK/lib/tinyusb/src/device/usbd.c ****         // Host only request this after getting Device Qualifier descriptor
1202:SynaptiX_FDK/lib/tinyusb/src/device/usbd.c ****         TU_LOG_USBD(" Other Speed Configuration\r\n");
1203:SynaptiX_FDK/lib/tinyusb/src/device/usbd.c ****         desc_config = (uintptr_t) tud_descriptor_other_speed_configuration_cb(desc_index);
1204:SynaptiX_FDK/lib/tinyusb/src/device/usbd.c ****         TU_VERIFY(desc_config != 0);
1205:SynaptiX_FDK/lib/tinyusb/src/device/usbd.c ****       }
1206:SynaptiX_FDK/lib/tinyusb/src/device/usbd.c **** 
ARM GAS  C:\Users\DELL\AppData\Local\Temp\ccYJ4WIi.s 			page 27


1207:SynaptiX_FDK/lib/tinyusb/src/device/usbd.c ****       // Use offsetof to avoid pointer to the odd/misaligned address
1208:SynaptiX_FDK/lib/tinyusb/src/device/usbd.c ****       uint16_t const total_len = tu_le16toh( tu_unaligned_read16((const void*) (desc_config + offse
1209:SynaptiX_FDK/lib/tinyusb/src/device/usbd.c **** 
1210:SynaptiX_FDK/lib/tinyusb/src/device/usbd.c ****       return tud_control_xfer(rhport, p_request, (void*) desc_config, total_len);
1211:SynaptiX_FDK/lib/tinyusb/src/device/usbd.c ****     }
1212:SynaptiX_FDK/lib/tinyusb/src/device/usbd.c ****     // break; // unreachable
1213:SynaptiX_FDK/lib/tinyusb/src/device/usbd.c **** 
1214:SynaptiX_FDK/lib/tinyusb/src/device/usbd.c ****     case TUSB_DESC_STRING: {
1215:SynaptiX_FDK/lib/tinyusb/src/device/usbd.c ****       TU_LOG_USBD(" String[%u]\r\n", desc_index);
1216:SynaptiX_FDK/lib/tinyusb/src/device/usbd.c **** 
1217:SynaptiX_FDK/lib/tinyusb/src/device/usbd.c ****       // String Descriptor always uses the desc set from user
1218:SynaptiX_FDK/lib/tinyusb/src/device/usbd.c ****       uint8_t const* desc_str = (uint8_t const*) tud_descriptor_string_cb(desc_index, tu_le16toh(p_
1219:SynaptiX_FDK/lib/tinyusb/src/device/usbd.c ****       TU_VERIFY(desc_str);
1220:SynaptiX_FDK/lib/tinyusb/src/device/usbd.c **** 
1221:SynaptiX_FDK/lib/tinyusb/src/device/usbd.c ****       // first byte of descriptor is its size
1222:SynaptiX_FDK/lib/tinyusb/src/device/usbd.c ****       return tud_control_xfer(rhport, p_request, (void*) (uintptr_t) desc_str, tu_desc_len(desc_str
1223:SynaptiX_FDK/lib/tinyusb/src/device/usbd.c ****     }
1224:SynaptiX_FDK/lib/tinyusb/src/device/usbd.c ****     // break; // unreachable
1225:SynaptiX_FDK/lib/tinyusb/src/device/usbd.c **** 
1226:SynaptiX_FDK/lib/tinyusb/src/device/usbd.c ****     case TUSB_DESC_DEVICE_QUALIFIER: {
1227:SynaptiX_FDK/lib/tinyusb/src/device/usbd.c ****       TU_LOG_USBD(" Device Qualifier\r\n");
1228:SynaptiX_FDK/lib/tinyusb/src/device/usbd.c ****       uint8_t const* desc_qualifier = tud_descriptor_device_qualifier_cb();
1229:SynaptiX_FDK/lib/tinyusb/src/device/usbd.c ****       TU_VERIFY(desc_qualifier);
1230:SynaptiX_FDK/lib/tinyusb/src/device/usbd.c ****       return tud_control_xfer(rhport, p_request, (void*) (uintptr_t) desc_qualifier, tu_desc_len(de
1231:SynaptiX_FDK/lib/tinyusb/src/device/usbd.c ****     }
1232:SynaptiX_FDK/lib/tinyusb/src/device/usbd.c ****     // break; // unreachable
1233:SynaptiX_FDK/lib/tinyusb/src/device/usbd.c **** 
1234:SynaptiX_FDK/lib/tinyusb/src/device/usbd.c ****     default: return false;
1235:SynaptiX_FDK/lib/tinyusb/src/device/usbd.c ****   }
1236:SynaptiX_FDK/lib/tinyusb/src/device/usbd.c **** }
1237:SynaptiX_FDK/lib/tinyusb/src/device/usbd.c **** 
1238:SynaptiX_FDK/lib/tinyusb/src/device/usbd.c **** //--------------------------------------------------------------------+
1239:SynaptiX_FDK/lib/tinyusb/src/device/usbd.c **** // DCD Event Handler
1240:SynaptiX_FDK/lib/tinyusb/src/device/usbd.c **** //--------------------------------------------------------------------+
1241:SynaptiX_FDK/lib/tinyusb/src/device/usbd.c **** TU_ATTR_FAST_FUNC void dcd_event_handler(dcd_event_t const* event, bool in_isr) {
1242:SynaptiX_FDK/lib/tinyusb/src/device/usbd.c ****   bool send = false;
1243:SynaptiX_FDK/lib/tinyusb/src/device/usbd.c ****   switch (event->event_id) {
1244:SynaptiX_FDK/lib/tinyusb/src/device/usbd.c ****     case DCD_EVENT_UNPLUGGED:
1245:SynaptiX_FDK/lib/tinyusb/src/device/usbd.c ****       _usbd_dev.connected = 0;
1246:SynaptiX_FDK/lib/tinyusb/src/device/usbd.c ****       _usbd_dev.addressed = 0;
1247:SynaptiX_FDK/lib/tinyusb/src/device/usbd.c ****       _usbd_dev.cfg_num = 0;
1248:SynaptiX_FDK/lib/tinyusb/src/device/usbd.c ****       _usbd_dev.suspended = 0;
1249:SynaptiX_FDK/lib/tinyusb/src/device/usbd.c ****       send = true;
1250:SynaptiX_FDK/lib/tinyusb/src/device/usbd.c ****       break;
1251:SynaptiX_FDK/lib/tinyusb/src/device/usbd.c **** 
1252:SynaptiX_FDK/lib/tinyusb/src/device/usbd.c ****     case DCD_EVENT_SUSPEND:
1253:SynaptiX_FDK/lib/tinyusb/src/device/usbd.c ****       // NOTE: When plugging/unplugging device, the D+/D- state are unstable and
1254:SynaptiX_FDK/lib/tinyusb/src/device/usbd.c ****       // can accidentally meet the SUSPEND condition ( Bus Idle for 3ms ).
1255:SynaptiX_FDK/lib/tinyusb/src/device/usbd.c ****       // In addition, some MCUs such as SAMD or boards that haven no VBUS detection cannot distingu
1256:SynaptiX_FDK/lib/tinyusb/src/device/usbd.c ****       // suspended vs disconnected. We will skip handling SUSPEND/RESUME event if not currently con
1257:SynaptiX_FDK/lib/tinyusb/src/device/usbd.c ****       if (_usbd_dev.connected) {
1258:SynaptiX_FDK/lib/tinyusb/src/device/usbd.c ****         _usbd_dev.suspended = 1;
1259:SynaptiX_FDK/lib/tinyusb/src/device/usbd.c ****         send = true;
1260:SynaptiX_FDK/lib/tinyusb/src/device/usbd.c ****       }
1261:SynaptiX_FDK/lib/tinyusb/src/device/usbd.c ****       break;
1262:SynaptiX_FDK/lib/tinyusb/src/device/usbd.c **** 
1263:SynaptiX_FDK/lib/tinyusb/src/device/usbd.c ****     case DCD_EVENT_RESUME:
ARM GAS  C:\Users\DELL\AppData\Local\Temp\ccYJ4WIi.s 			page 28


1264:SynaptiX_FDK/lib/tinyusb/src/device/usbd.c ****       // skip event if not connected (especially required for SAMD)
1265:SynaptiX_FDK/lib/tinyusb/src/device/usbd.c ****       if (_usbd_dev.connected) {
1266:SynaptiX_FDK/lib/tinyusb/src/device/usbd.c ****         _usbd_dev.suspended = 0;
1267:SynaptiX_FDK/lib/tinyusb/src/device/usbd.c ****         send = true;
1268:SynaptiX_FDK/lib/tinyusb/src/device/usbd.c ****       }
1269:SynaptiX_FDK/lib/tinyusb/src/device/usbd.c ****       break;
1270:SynaptiX_FDK/lib/tinyusb/src/device/usbd.c **** 
1271:SynaptiX_FDK/lib/tinyusb/src/device/usbd.c ****     case DCD_EVENT_SOF:
1272:SynaptiX_FDK/lib/tinyusb/src/device/usbd.c ****       // SOF driver handler in ISR context
1273:SynaptiX_FDK/lib/tinyusb/src/device/usbd.c ****       for (uint8_t i = 0; i < TOTAL_DRIVER_COUNT; i++) {
1274:SynaptiX_FDK/lib/tinyusb/src/device/usbd.c ****         usbd_class_driver_t const* driver = get_driver(i);
1275:SynaptiX_FDK/lib/tinyusb/src/device/usbd.c ****         if (driver && driver->sof) {
1276:SynaptiX_FDK/lib/tinyusb/src/device/usbd.c ****           driver->sof(event->rhport, event->sof.frame_count);
1277:SynaptiX_FDK/lib/tinyusb/src/device/usbd.c ****         }
1278:SynaptiX_FDK/lib/tinyusb/src/device/usbd.c ****       }
1279:SynaptiX_FDK/lib/tinyusb/src/device/usbd.c **** 
1280:SynaptiX_FDK/lib/tinyusb/src/device/usbd.c ****       // Some MCUs after running dcd_remote_wakeup() does not have way to detect the end of remote 
1281:SynaptiX_FDK/lib/tinyusb/src/device/usbd.c ****       // which last 1-15 ms. DCD can use SOF as a clear indicator that bus is back to operational
1282:SynaptiX_FDK/lib/tinyusb/src/device/usbd.c ****       if (_usbd_dev.suspended) {
1283:SynaptiX_FDK/lib/tinyusb/src/device/usbd.c ****         _usbd_dev.suspended = 0;
1284:SynaptiX_FDK/lib/tinyusb/src/device/usbd.c **** 
1285:SynaptiX_FDK/lib/tinyusb/src/device/usbd.c ****         dcd_event_t const event_resume = {.rhport = event->rhport, .event_id = DCD_EVENT_RESUME};
1286:SynaptiX_FDK/lib/tinyusb/src/device/usbd.c ****         queue_event(&event_resume, in_isr);
1287:SynaptiX_FDK/lib/tinyusb/src/device/usbd.c ****       }
1288:SynaptiX_FDK/lib/tinyusb/src/device/usbd.c **** 
1289:SynaptiX_FDK/lib/tinyusb/src/device/usbd.c ****       if (tu_bit_test(_usbd_dev.sof_consumer, SOF_CONSUMER_USER)) {
1290:SynaptiX_FDK/lib/tinyusb/src/device/usbd.c ****         dcd_event_t const event_sof = {.rhport = event->rhport, .event_id = DCD_EVENT_SOF, .sof.fra
1291:SynaptiX_FDK/lib/tinyusb/src/device/usbd.c ****         queue_event(&event_sof, in_isr);
1292:SynaptiX_FDK/lib/tinyusb/src/device/usbd.c ****       }
1293:SynaptiX_FDK/lib/tinyusb/src/device/usbd.c ****       break;
1294:SynaptiX_FDK/lib/tinyusb/src/device/usbd.c **** 
1295:SynaptiX_FDK/lib/tinyusb/src/device/usbd.c ****     case DCD_EVENT_SETUP_RECEIVED:
1296:SynaptiX_FDK/lib/tinyusb/src/device/usbd.c ****       _usbd_queued_setup++;
1297:SynaptiX_FDK/lib/tinyusb/src/device/usbd.c ****       send = true;
1298:SynaptiX_FDK/lib/tinyusb/src/device/usbd.c ****       break;
1299:SynaptiX_FDK/lib/tinyusb/src/device/usbd.c **** 
1300:SynaptiX_FDK/lib/tinyusb/src/device/usbd.c ****     case DCD_EVENT_XFER_COMPLETE: {
1301:SynaptiX_FDK/lib/tinyusb/src/device/usbd.c ****       // Invoke the class callback associated with the endpoint address
1302:SynaptiX_FDK/lib/tinyusb/src/device/usbd.c ****       uint8_t const ep_addr = event->xfer_complete.ep_addr;
1303:SynaptiX_FDK/lib/tinyusb/src/device/usbd.c ****       uint8_t const epnum = tu_edpt_number(ep_addr);
1304:SynaptiX_FDK/lib/tinyusb/src/device/usbd.c ****       uint8_t const ep_dir = tu_edpt_dir(ep_addr);
1305:SynaptiX_FDK/lib/tinyusb/src/device/usbd.c **** 
1306:SynaptiX_FDK/lib/tinyusb/src/device/usbd.c ****       send = true;
1307:SynaptiX_FDK/lib/tinyusb/src/device/usbd.c ****       if(epnum > 0) {
1308:SynaptiX_FDK/lib/tinyusb/src/device/usbd.c ****         usbd_class_driver_t const* driver = get_driver(_usbd_dev.ep2drv[epnum][ep_dir]);
1309:SynaptiX_FDK/lib/tinyusb/src/device/usbd.c **** 
1310:SynaptiX_FDK/lib/tinyusb/src/device/usbd.c ****         if (driver && driver->xfer_isr) {
1311:SynaptiX_FDK/lib/tinyusb/src/device/usbd.c ****           _usbd_dev.ep_status[epnum][ep_dir].busy = 0;
1312:SynaptiX_FDK/lib/tinyusb/src/device/usbd.c ****           _usbd_dev.ep_status[epnum][ep_dir].claimed = 0;
1313:SynaptiX_FDK/lib/tinyusb/src/device/usbd.c **** 
1314:SynaptiX_FDK/lib/tinyusb/src/device/usbd.c ****           send = !driver->xfer_isr(event->rhport, ep_addr, (xfer_result_t) event->xfer_complete.res
1315:SynaptiX_FDK/lib/tinyusb/src/device/usbd.c **** 
1316:SynaptiX_FDK/lib/tinyusb/src/device/usbd.c ****           // xfer_isr() is deferred to xfer_cb(), revert busy/claimed status
1317:SynaptiX_FDK/lib/tinyusb/src/device/usbd.c ****           if (send) {
1318:SynaptiX_FDK/lib/tinyusb/src/device/usbd.c ****             _usbd_dev.ep_status[epnum][ep_dir].busy = 1;
1319:SynaptiX_FDK/lib/tinyusb/src/device/usbd.c ****             _usbd_dev.ep_status[epnum][ep_dir].claimed = 1;
1320:SynaptiX_FDK/lib/tinyusb/src/device/usbd.c ****           }
ARM GAS  C:\Users\DELL\AppData\Local\Temp\ccYJ4WIi.s 			page 29


1321:SynaptiX_FDK/lib/tinyusb/src/device/usbd.c ****         }
1322:SynaptiX_FDK/lib/tinyusb/src/device/usbd.c ****       }
1323:SynaptiX_FDK/lib/tinyusb/src/device/usbd.c ****       break;
1324:SynaptiX_FDK/lib/tinyusb/src/device/usbd.c ****     }
1325:SynaptiX_FDK/lib/tinyusb/src/device/usbd.c **** 
1326:SynaptiX_FDK/lib/tinyusb/src/device/usbd.c ****     default:
1327:SynaptiX_FDK/lib/tinyusb/src/device/usbd.c ****       send = true;
1328:SynaptiX_FDK/lib/tinyusb/src/device/usbd.c ****       break;
1329:SynaptiX_FDK/lib/tinyusb/src/device/usbd.c ****   }
1330:SynaptiX_FDK/lib/tinyusb/src/device/usbd.c **** 
1331:SynaptiX_FDK/lib/tinyusb/src/device/usbd.c ****   if (send) {
1332:SynaptiX_FDK/lib/tinyusb/src/device/usbd.c ****     queue_event(event, in_isr);
1333:SynaptiX_FDK/lib/tinyusb/src/device/usbd.c ****   }
1334:SynaptiX_FDK/lib/tinyusb/src/device/usbd.c **** }
1335:SynaptiX_FDK/lib/tinyusb/src/device/usbd.c **** 
1336:SynaptiX_FDK/lib/tinyusb/src/device/usbd.c **** //--------------------------------------------------------------------+
1337:SynaptiX_FDK/lib/tinyusb/src/device/usbd.c **** // USBD API For Class Driver
1338:SynaptiX_FDK/lib/tinyusb/src/device/usbd.c **** //--------------------------------------------------------------------+
1339:SynaptiX_FDK/lib/tinyusb/src/device/usbd.c **** 
1340:SynaptiX_FDK/lib/tinyusb/src/device/usbd.c **** void usbd_int_set(bool enabled) {
 238              		.loc 1 1340 33 is_stmt 1 view -0
 239              		.cfi_startproc
 240              		@ args = 0, pretend = 0, frame = 0
 241              		@ frame_needed = 0, uses_anonymous_args = 0
 242              		.loc 1 1340 33 is_stmt 0 view .LVU65
 243 0000 08B5     		push	{r3, lr}
 244              	.LCFI1:
 245              		.cfi_def_cfa_offset 8
 246              		.cfi_offset 3, -8
 247              		.cfi_offset 14, -4
1341:SynaptiX_FDK/lib/tinyusb/src/device/usbd.c ****   if (enabled) {
 248              		.loc 1 1341 3 is_stmt 1 view .LVU66
 249              		.loc 1 1341 6 is_stmt 0 view .LVU67
 250 0002 20B1     		cbz	r0, .L15
1342:SynaptiX_FDK/lib/tinyusb/src/device/usbd.c ****     dcd_int_enable(_usbd_rhport);
 251              		.loc 1 1342 5 is_stmt 1 view .LVU68
 252 0004 044B     		ldr	r3, .L18
 253 0006 1878     		ldrb	r0, [r3]	@ zero_extendqisi2
 254              	.LVL20:
 255              		.loc 1 1342 5 is_stmt 0 view .LVU69
 256 0008 FFF7FEFF 		bl	dcd_int_enable
 257              	.LVL21:
 258              	.L14:
1343:SynaptiX_FDK/lib/tinyusb/src/device/usbd.c ****   } else {
1344:SynaptiX_FDK/lib/tinyusb/src/device/usbd.c ****     dcd_int_disable(_usbd_rhport);
1345:SynaptiX_FDK/lib/tinyusb/src/device/usbd.c ****   }
1346:SynaptiX_FDK/lib/tinyusb/src/device/usbd.c **** }
 259              		.loc 1 1346 1 view .LVU70
 260 000c 08BD     		pop	{r3, pc}
 261              	.LVL22:
 262              	.L15:
1344:SynaptiX_FDK/lib/tinyusb/src/device/usbd.c ****   }
 263              		.loc 1 1344 5 is_stmt 1 view .LVU71
 264 000e 024B     		ldr	r3, .L18
 265 0010 1878     		ldrb	r0, [r3]	@ zero_extendqisi2
 266              	.LVL23:
1344:SynaptiX_FDK/lib/tinyusb/src/device/usbd.c ****   }
ARM GAS  C:\Users\DELL\AppData\Local\Temp\ccYJ4WIi.s 			page 30


 267              		.loc 1 1344 5 is_stmt 0 view .LVU72
 268 0012 FFF7FEFF 		bl	dcd_int_disable
 269              	.LVL24:
 270              		.loc 1 1346 1 view .LVU73
 271 0016 F9E7     		b	.L14
 272              	.L19:
 273              		.align	2
 274              	.L18:
 275 0018 00000000 		.word	_usbd_rhport
 276              		.cfi_endproc
 277              	.LFE492:
 279              		.section	.text.usbd_reset,"ax",%progbits
 280              		.align	1
 281              		.syntax unified
 282              		.thumb
 283              		.thumb_func
 285              	usbd_reset:
 286              	.LVL25:
 287              	.LFB484:
 648:SynaptiX_FDK/lib/tinyusb/src/device/usbd.c ****   configuration_reset(rhport);
 288              		.loc 1 648 40 is_stmt 1 view -0
 289              		.cfi_startproc
 290              		@ args = 0, pretend = 0, frame = 0
 291              		@ frame_needed = 0, uses_anonymous_args = 0
 648:SynaptiX_FDK/lib/tinyusb/src/device/usbd.c ****   configuration_reset(rhport);
 292              		.loc 1 648 40 is_stmt 0 view .LVU75
 293 0000 08B5     		push	{r3, lr}
 294              	.LCFI2:
 295              		.cfi_def_cfa_offset 8
 296              		.cfi_offset 3, -8
 297              		.cfi_offset 14, -4
 649:SynaptiX_FDK/lib/tinyusb/src/device/usbd.c ****   usbd_control_reset();
 298              		.loc 1 649 3 is_stmt 1 view .LVU76
 299 0002 FFF7FEFF 		bl	configuration_reset
 300              	.LVL26:
 650:SynaptiX_FDK/lib/tinyusb/src/device/usbd.c **** }
 301              		.loc 1 650 3 view .LVU77
 302 0006 FFF7FEFF 		bl	usbd_control_reset
 303              	.LVL27:
 651:SynaptiX_FDK/lib/tinyusb/src/device/usbd.c **** 
 304              		.loc 1 651 1 is_stmt 0 view .LVU78
 305 000a 08BD     		pop	{r3, pc}
 306              		.cfi_endproc
 307              	.LFE484:
 309              		.section	.text.invoke_class_control,"ax",%progbits
 310              		.align	1
 311              		.syntax unified
 312              		.thumb
 313              		.thumb_func
 315              	invoke_class_control:
 316              	.LVL28:
 317              	.LFB487:
 819:SynaptiX_FDK/lib/tinyusb/src/device/usbd.c ****   usbd_control_set_complete_callback(driver->control_xfer_cb);
 318              		.loc 1 819 126 is_stmt 1 view -0
 319              		.cfi_startproc
 320              		@ args = 0, pretend = 0, frame = 0
 321              		@ frame_needed = 0, uses_anonymous_args = 0
ARM GAS  C:\Users\DELL\AppData\Local\Temp\ccYJ4WIi.s 			page 31


 819:SynaptiX_FDK/lib/tinyusb/src/device/usbd.c ****   usbd_control_set_complete_callback(driver->control_xfer_cb);
 322              		.loc 1 819 126 is_stmt 0 view .LVU80
 323 0000 70B5     		push	{r4, r5, r6, lr}
 324              	.LCFI3:
 325              		.cfi_def_cfa_offset 16
 326              		.cfi_offset 4, -16
 327              		.cfi_offset 5, -12
 328              		.cfi_offset 6, -8
 329              		.cfi_offset 14, -4
 330 0002 0546     		mov	r5, r0
 331 0004 0C46     		mov	r4, r1
 332 0006 1646     		mov	r6, r2
 820:SynaptiX_FDK/lib/tinyusb/src/device/usbd.c ****   TU_LOG_USBD("  %s control request\r\n", driver->name);
 333              		.loc 1 820 3 is_stmt 1 view .LVU81
 334 0008 4869     		ldr	r0, [r1, #20]
 335              	.LVL29:
 820:SynaptiX_FDK/lib/tinyusb/src/device/usbd.c ****   TU_LOG_USBD("  %s control request\r\n", driver->name);
 336              		.loc 1 820 3 is_stmt 0 view .LVU82
 337 000a FFF7FEFF 		bl	usbd_control_set_complete_callback
 338              	.LVL30:
 821:SynaptiX_FDK/lib/tinyusb/src/device/usbd.c ****   return driver->control_xfer_cb(rhport, CONTROL_STAGE_SETUP, request);
 339              		.loc 1 821 56 is_stmt 1 view .LVU83
 822:SynaptiX_FDK/lib/tinyusb/src/device/usbd.c **** }
 340              		.loc 1 822 3 view .LVU84
 822:SynaptiX_FDK/lib/tinyusb/src/device/usbd.c **** }
 341              		.loc 1 822 16 is_stmt 0 view .LVU85
 342 000e 6369     		ldr	r3, [r4, #20]
 822:SynaptiX_FDK/lib/tinyusb/src/device/usbd.c **** }
 343              		.loc 1 822 10 view .LVU86
 344 0010 3246     		mov	r2, r6
 345 0012 0121     		movs	r1, #1
 346 0014 2846     		mov	r0, r5
 347 0016 9847     		blx	r3
 348              	.LVL31:
 823:SynaptiX_FDK/lib/tinyusb/src/device/usbd.c **** 
 349              		.loc 1 823 1 view .LVU87
 350 0018 70BD     		pop	{r4, r5, r6, pc}
 823:SynaptiX_FDK/lib/tinyusb/src/device/usbd.c **** 
 351              		.loc 1 823 1 view .LVU88
 352              		.cfi_endproc
 353              	.LFE487:
 355              		.section	.text.process_set_config,"ax",%progbits
 356              		.align	1
 357              		.syntax unified
 358              		.thumb
 359              		.thumb_func
 361              	process_set_config:
 362              	.LVL32:
 363              	.LFB489:
1098:SynaptiX_FDK/lib/tinyusb/src/device/usbd.c ****   // index is cfg_num-1
 364              		.loc 1 1098 65 is_stmt 1 view -0
 365              		.cfi_startproc
 366              		@ args = 0, pretend = 0, frame = 0
 367              		@ frame_needed = 0, uses_anonymous_args = 0
1098:SynaptiX_FDK/lib/tinyusb/src/device/usbd.c ****   // index is cfg_num-1
 368              		.loc 1 1098 65 is_stmt 0 view .LVU90
 369 0000 2DE9F043 		push	{r4, r5, r6, r7, r8, r9, lr}
ARM GAS  C:\Users\DELL\AppData\Local\Temp\ccYJ4WIi.s 			page 32


 370              	.LCFI4:
 371              		.cfi_def_cfa_offset 28
 372              		.cfi_offset 4, -28
 373              		.cfi_offset 5, -24
 374              		.cfi_offset 6, -20
 375              		.cfi_offset 7, -16
 376              		.cfi_offset 8, -12
 377              		.cfi_offset 9, -8
 378              		.cfi_offset 14, -4
 379 0004 83B0     		sub	sp, sp, #12
 380              	.LCFI5:
 381              		.cfi_def_cfa_offset 40
 382 0006 0646     		mov	r6, r0
1100:SynaptiX_FDK/lib/tinyusb/src/device/usbd.c ****     (const tusb_desc_configuration_t *)tud_descriptor_configuration_cb(cfg_num - 1);
 383              		.loc 1 1100 3 is_stmt 1 view .LVU91
1101:SynaptiX_FDK/lib/tinyusb/src/device/usbd.c ****   TU_ASSERT(desc_cfg != NULL && desc_cfg->bDescriptorType == TUSB_DESC_CONFIGURATION);
 384              		.loc 1 1101 40 is_stmt 0 view .LVU92
 385 0008 0139     		subs	r1, r1, #1
 386              	.LVL33:
1101:SynaptiX_FDK/lib/tinyusb/src/device/usbd.c ****   TU_ASSERT(desc_cfg != NULL && desc_cfg->bDescriptorType == TUSB_DESC_CONFIGURATION);
 387              		.loc 1 1101 40 view .LVU93
 388 000a C8B2     		uxtb	r0, r1
 389              	.LVL34:
1101:SynaptiX_FDK/lib/tinyusb/src/device/usbd.c ****   TU_ASSERT(desc_cfg != NULL && desc_cfg->bDescriptorType == TUSB_DESC_CONFIGURATION);
 390              		.loc 1 1101 40 view .LVU94
 391 000c FFF7FEFF 		bl	tud_descriptor_configuration_cb
 392              	.LVL35:
1102:SynaptiX_FDK/lib/tinyusb/src/device/usbd.c **** 
 393              		.loc 1 1102 3 is_stmt 1 view .LVU95
1102:SynaptiX_FDK/lib/tinyusb/src/device/usbd.c **** 
 394              		.loc 1 1102 3 view .LVU96
 395 0010 18B1     		cbz	r0, .L25
 396 0012 0346     		mov	r3, r0
1102:SynaptiX_FDK/lib/tinyusb/src/device/usbd.c **** 
 397              		.loc 1 1102 3 is_stmt 0 discriminator 2 view .LVU97
 398 0014 4278     		ldrb	r2, [r0, #1]	@ zero_extendqisi2
 399 0016 022A     		cmp	r2, #2
 400 0018 0BD0     		beq	.L26
 401              	.L25:
1102:SynaptiX_FDK/lib/tinyusb/src/device/usbd.c **** 
 402              		.loc 1 1102 3 is_stmt 1 discriminator 3 view .LVU98
1102:SynaptiX_FDK/lib/tinyusb/src/device/usbd.c **** 
 403              		.loc 1 1102 3 discriminator 3 view .LVU99
1102:SynaptiX_FDK/lib/tinyusb/src/device/usbd.c **** 
 404              		.loc 1 1102 3 discriminator 3 view .LVU100
1102:SynaptiX_FDK/lib/tinyusb/src/device/usbd.c **** 
 405              		.loc 1 1102 3 discriminator 3 view .LVU101
 406              	.LBB255:
1102:SynaptiX_FDK/lib/tinyusb/src/device/usbd.c **** 
 407              		.loc 1 1102 3 discriminator 3 view .LVU102
 408              	.LVL36:
1102:SynaptiX_FDK/lib/tinyusb/src/device/usbd.c **** 
 409              		.loc 1 1102 3 view .LVU103
1102:SynaptiX_FDK/lib/tinyusb/src/device/usbd.c **** 
 410              		.loc 1 1102 3 is_stmt 0 discriminator 3 view .LVU104
 411 001a 4FF0E023 		mov	r3, #-536813568
 412 001e D3F8F03D 		ldr	r3, [r3, #3568]
ARM GAS  C:\Users\DELL\AppData\Local\Temp\ccYJ4WIi.s 			page 33


 413 0022 13F0010F 		tst	r3, #1
 414 0026 00D0     		beq	.L27
1102:SynaptiX_FDK/lib/tinyusb/src/device/usbd.c **** 
 415              		.loc 1 1102 3 is_stmt 1 discriminator 4 view .LVU105
 416              		.syntax unified
 417              	@ 1102 "SynaptiX_FDK/lib/tinyusb/src/device/usbd.c" 1
 418 0028 00BE     		BKPT #0
 419              	
 420              	@ 0 "" 2
 421              		.thumb
 422              		.syntax unified
 423              	.L27:
 424              	.LBE255:
1102:SynaptiX_FDK/lib/tinyusb/src/device/usbd.c **** 
 425              		.loc 1 1102 3 discriminator 6 view .LVU106
1102:SynaptiX_FDK/lib/tinyusb/src/device/usbd.c **** 
 426              		.loc 1 1102 3 discriminator 6 view .LVU107
 427 002a 0020     		movs	r0, #0
 428              	.LVL37:
 429              	.L28:
1147:SynaptiX_FDK/lib/tinyusb/src/device/usbd.c **** 
 430              		.loc 1 1147 1 is_stmt 0 view .LVU108
 431 002c 03B0     		add	sp, sp, #12
 432              	.LCFI6:
 433              		.cfi_remember_state
 434              		.cfi_def_cfa_offset 28
 435              		@ sp needed
 436 002e BDE8F083 		pop	{r4, r5, r6, r7, r8, r9, pc}
 437              	.LVL38:
 438              	.L26:
 439              	.LCFI7:
 440              		.cfi_restore_state
1102:SynaptiX_FDK/lib/tinyusb/src/device/usbd.c **** 
 441              		.loc 1 1102 3 is_stmt 1 view .LVU109
1105:SynaptiX_FDK/lib/tinyusb/src/device/usbd.c **** 
 442              		.loc 1 1105 3 view .LVU110
1105:SynaptiX_FDK/lib/tinyusb/src/device/usbd.c **** 
 443              		.loc 1 1105 37 is_stmt 0 view .LVU111
 444 0032 C279     		ldrb	r2, [r0, #7]	@ zero_extendqisi2
1105:SynaptiX_FDK/lib/tinyusb/src/device/usbd.c **** 
 445              		.loc 1 1105 94 view .LVU112
 446 0034 C2F38012 		ubfx	r2, r2, #6, #1
1105:SynaptiX_FDK/lib/tinyusb/src/device/usbd.c **** 
 447              		.loc 1 1105 26 view .LVU113
 448 0038 4049     		ldr	r1, .L53
 449 003a C878     		ldrb	r0, [r1, #3]	@ zero_extendqisi2
 450              	.LVL39:
1105:SynaptiX_FDK/lib/tinyusb/src/device/usbd.c **** 
 451              		.loc 1 1105 26 view .LVU114
 452 003c 62F30000 		bfi	r0, r2, #0, #1
 453 0040 C870     		strb	r0, [r1, #3]
1108:SynaptiX_FDK/lib/tinyusb/src/device/usbd.c ****   const uint8_t *desc_end = ((const uint8_t *)desc_cfg) + tu_le16toh(desc_cfg->wTotalLength);
 454              		.loc 1 1108 3 is_stmt 1 view .LVU115
1108:SynaptiX_FDK/lib/tinyusb/src/device/usbd.c ****   const uint8_t *desc_end = ((const uint8_t *)desc_cfg) + tu_le16toh(desc_cfg->wTotalLength);
 455              		.loc 1 1108 18 is_stmt 0 view .LVU116
 456 0042 03F10908 		add	r8, r3, #9
 457              	.LVL40:
ARM GAS  C:\Users\DELL\AppData\Local\Temp\ccYJ4WIi.s 			page 34


1109:SynaptiX_FDK/lib/tinyusb/src/device/usbd.c **** 
 458              		.loc 1 1109 3 is_stmt 1 view .LVU117
1109:SynaptiX_FDK/lib/tinyusb/src/device/usbd.c **** 
 459              		.loc 1 1109 59 is_stmt 0 view .LVU118
 460 0046 5A88     		ldrh	r2, [r3, #2]	@ unaligned
1109:SynaptiX_FDK/lib/tinyusb/src/device/usbd.c **** 
 461              		.loc 1 1109 18 view .LVU119
 462 0048 9C18     		adds	r4, r3, r2
 463              	.LVL41:
1111:SynaptiX_FDK/lib/tinyusb/src/device/usbd.c ****     // Class will always start with Interface Association (if any) and then Interface descriptor
 464              		.loc 1 1111 3 is_stmt 1 view .LVU120
 465              	.L29:
 466              	.LBB256:
1143:SynaptiX_FDK/lib/tinyusb/src/device/usbd.c ****   }
 467              		.loc 1 1143 5 view .LVU121
 468              	.LBE256:
1111:SynaptiX_FDK/lib/tinyusb/src/device/usbd.c ****     // Class will always start with Interface Association (if any) and then Interface descriptor
 469              		.loc 1 1111 10 view .LVU122
 470              	.LBB269:
 471              	.LBI269:
 472              		.file 2 "SynaptiX_FDK/lib/tinyusb/src/common/tusb_common.h"
   1:SynaptiX_FDK/lib/tinyusb/src/common/tusb_common.h **** /*
   2:SynaptiX_FDK/lib/tinyusb/src/common/tusb_common.h ****  * The MIT License (MIT)
   3:SynaptiX_FDK/lib/tinyusb/src/common/tusb_common.h ****  *
   4:SynaptiX_FDK/lib/tinyusb/src/common/tusb_common.h ****  * Copyright (c) 2019 Ha Thach (tinyusb.org)
   5:SynaptiX_FDK/lib/tinyusb/src/common/tusb_common.h ****  *
   6:SynaptiX_FDK/lib/tinyusb/src/common/tusb_common.h ****  * Permission is hereby granted, free of charge, to any person obtaining a copy
   7:SynaptiX_FDK/lib/tinyusb/src/common/tusb_common.h ****  * of this software and associated documentation files (the "Software"), to deal
   8:SynaptiX_FDK/lib/tinyusb/src/common/tusb_common.h ****  * in the Software without restriction, including without limitation the rights
   9:SynaptiX_FDK/lib/tinyusb/src/common/tusb_common.h ****  * to use, copy, modify, merge, publish, distribute, sublicense, and/or sell
  10:SynaptiX_FDK/lib/tinyusb/src/common/tusb_common.h ****  * copies of the Software, and to permit persons to whom the Software is
  11:SynaptiX_FDK/lib/tinyusb/src/common/tusb_common.h ****  * furnished to do so, subject to the following conditions:
  12:SynaptiX_FDK/lib/tinyusb/src/common/tusb_common.h ****  *
  13:SynaptiX_FDK/lib/tinyusb/src/common/tusb_common.h ****  * The above copyright notice and this permission notice shall be included in
  14:SynaptiX_FDK/lib/tinyusb/src/common/tusb_common.h ****  * all copies or substantial portions of the Software.
  15:SynaptiX_FDK/lib/tinyusb/src/common/tusb_common.h ****  *
  16:SynaptiX_FDK/lib/tinyusb/src/common/tusb_common.h ****  * THE SOFTWARE IS PROVIDED "AS IS", WITHOUT WARRANTY OF ANY KIND, EXPRESS OR
  17:SynaptiX_FDK/lib/tinyusb/src/common/tusb_common.h ****  * IMPLIED, INCLUDING BUT NOT LIMITED TO THE WARRANTIES OF MERCHANTABILITY,
  18:SynaptiX_FDK/lib/tinyusb/src/common/tusb_common.h ****  * FITNESS FOR A PARTICULAR PURPOSE AND NONINFRINGEMENT. IN NO EVENT SHALL THE
  19:SynaptiX_FDK/lib/tinyusb/src/common/tusb_common.h ****  * AUTHORS OR COPYRIGHT HOLDERS BE LIABLE FOR ANY CLAIM, DAMAGES OR OTHER
  20:SynaptiX_FDK/lib/tinyusb/src/common/tusb_common.h ****  * LIABILITY, WHETHER IN AN ACTION OF CONTRACT, TORT OR OTHERWISE, ARISING FROM,
  21:SynaptiX_FDK/lib/tinyusb/src/common/tusb_common.h ****  * OUT OF OR IN CONNECTION WITH THE SOFTWARE OR THE USE OR OTHER DEALINGS IN
  22:SynaptiX_FDK/lib/tinyusb/src/common/tusb_common.h ****  * THE SOFTWARE.
  23:SynaptiX_FDK/lib/tinyusb/src/common/tusb_common.h ****  *
  24:SynaptiX_FDK/lib/tinyusb/src/common/tusb_common.h ****  * This file is part of the TinyUSB stack.
  25:SynaptiX_FDK/lib/tinyusb/src/common/tusb_common.h ****  */
  26:SynaptiX_FDK/lib/tinyusb/src/common/tusb_common.h **** 
  27:SynaptiX_FDK/lib/tinyusb/src/common/tusb_common.h **** #ifndef TUSB_COMMON_H_
  28:SynaptiX_FDK/lib/tinyusb/src/common/tusb_common.h **** #define TUSB_COMMON_H_
  29:SynaptiX_FDK/lib/tinyusb/src/common/tusb_common.h **** 
  30:SynaptiX_FDK/lib/tinyusb/src/common/tusb_common.h **** #ifdef __cplusplus
  31:SynaptiX_FDK/lib/tinyusb/src/common/tusb_common.h ****  extern "C" {
  32:SynaptiX_FDK/lib/tinyusb/src/common/tusb_common.h **** #endif
  33:SynaptiX_FDK/lib/tinyusb/src/common/tusb_common.h **** 
  34:SynaptiX_FDK/lib/tinyusb/src/common/tusb_common.h **** //--------------------------------------------------------------------+
  35:SynaptiX_FDK/lib/tinyusb/src/common/tusb_common.h **** // Macros Helper
  36:SynaptiX_FDK/lib/tinyusb/src/common/tusb_common.h **** //--------------------------------------------------------------------+
ARM GAS  C:\Users\DELL\AppData\Local\Temp\ccYJ4WIi.s 			page 35


  37:SynaptiX_FDK/lib/tinyusb/src/common/tusb_common.h **** #define TU_ARRAY_SIZE(_arr)           ( sizeof(_arr) / sizeof(_arr[0]) )
  38:SynaptiX_FDK/lib/tinyusb/src/common/tusb_common.h **** #define TU_FIELD_SIZE(_type, _field)  (sizeof(((_type *)0)->_field))
  39:SynaptiX_FDK/lib/tinyusb/src/common/tusb_common.h **** #define TU_MIN(_x, _y)                ( ( (_x) < (_y) ) ? (_x) : (_y) )
  40:SynaptiX_FDK/lib/tinyusb/src/common/tusb_common.h **** #define TU_MAX(_x, _y)                ( ( (_x) > (_y) ) ? (_x) : (_y) )
  41:SynaptiX_FDK/lib/tinyusb/src/common/tusb_common.h **** #define TU_DIV_CEIL(n, d)             (((n) + (d) - 1) / (d))
  42:SynaptiX_FDK/lib/tinyusb/src/common/tusb_common.h **** #define TU_DIV_ROUND_NEAREST(v, d)    (((v) + (d)/2) / (d) ) // round to nearest integer
  43:SynaptiX_FDK/lib/tinyusb/src/common/tusb_common.h **** 
  44:SynaptiX_FDK/lib/tinyusb/src/common/tusb_common.h **** #define TU_U16(_high, _low)           ((uint16_t) ((((uint16_t) (_high)) << 8) | ((uint16_t) (_low)
  45:SynaptiX_FDK/lib/tinyusb/src/common/tusb_common.h **** #define TU_U16_HIGH(_u16)             ((uint8_t) (((uint16_t) (_u16) >> 8) & 0x00ffu))
  46:SynaptiX_FDK/lib/tinyusb/src/common/tusb_common.h **** #define TU_U16_LOW(_u16)              ((uint8_t) ((uint16_t) (_u16) & 0x00ffu))
  47:SynaptiX_FDK/lib/tinyusb/src/common/tusb_common.h **** #define U16_TO_U8S_BE(_u16)           TU_U16_HIGH(_u16), TU_U16_LOW(_u16)
  48:SynaptiX_FDK/lib/tinyusb/src/common/tusb_common.h **** #define U16_TO_U8S_LE(_u16)           TU_U16_LOW(_u16), TU_U16_HIGH(_u16)
  49:SynaptiX_FDK/lib/tinyusb/src/common/tusb_common.h **** 
  50:SynaptiX_FDK/lib/tinyusb/src/common/tusb_common.h **** #define TU_U24(_high, _mid, _low)     ((uint32_t) ((((uint32_t) (_high)) << 16) | (((uint32_t) (_mi
  51:SynaptiX_FDK/lib/tinyusb/src/common/tusb_common.h **** #define TU_U24_HIGH(_u24)             ((uint8_t) (((uint32_t) (_u24) >> 16) & 0x0000ffu))
  52:SynaptiX_FDK/lib/tinyusb/src/common/tusb_common.h **** #define TU_U24_MID(_u24)              ((uint8_t) (((uint32_t) (_u24) >>  8) & 0x0000ffu))
  53:SynaptiX_FDK/lib/tinyusb/src/common/tusb_common.h **** #define TU_U24_LOW(_u24)              ((uint8_t) ((uint32_t) (_u24) & 0x0000ffu))
  54:SynaptiX_FDK/lib/tinyusb/src/common/tusb_common.h **** #define U24_TO_U8S_BE(_u24)           TU_U24_HIGH(_u24), TU_U24_MID(_u24), TU_U24_LOW(_u24)
  55:SynaptiX_FDK/lib/tinyusb/src/common/tusb_common.h **** #define U24_TO_U8S_LE(_u24)           TU_U24_LOW(_u24), TU_U24_MID(_u24), TU_U24_HIGH(_u24)
  56:SynaptiX_FDK/lib/tinyusb/src/common/tusb_common.h **** 
  57:SynaptiX_FDK/lib/tinyusb/src/common/tusb_common.h **** #define TU_U32_BYTE3(_u32)            ((uint8_t) ((((uint32_t) _u32) >> 24) & 0x000000ff)) // MSB
  58:SynaptiX_FDK/lib/tinyusb/src/common/tusb_common.h **** #define TU_U32_BYTE2(_u32)            ((uint8_t) ((((uint32_t) _u32) >> 16) & 0x000000ff))
  59:SynaptiX_FDK/lib/tinyusb/src/common/tusb_common.h **** #define TU_U32_BYTE1(_u32)            ((uint8_t) ((((uint32_t) _u32) >>  8) & 0x000000ff))
  60:SynaptiX_FDK/lib/tinyusb/src/common/tusb_common.h **** #define TU_U32_BYTE0(_u32)            ((uint8_t) (((uint32_t)  _u32)        & 0x000000ff)) // LSB
  61:SynaptiX_FDK/lib/tinyusb/src/common/tusb_common.h **** 
  62:SynaptiX_FDK/lib/tinyusb/src/common/tusb_common.h **** #define U32_TO_U8S_BE(_u32)           TU_U32_BYTE3(_u32), TU_U32_BYTE2(_u32), TU_U32_BYTE1(_u32), T
  63:SynaptiX_FDK/lib/tinyusb/src/common/tusb_common.h **** #define U32_TO_U8S_LE(_u32)           TU_U32_BYTE0(_u32), TU_U32_BYTE1(_u32), TU_U32_BYTE2(_u32), T
  64:SynaptiX_FDK/lib/tinyusb/src/common/tusb_common.h **** 
  65:SynaptiX_FDK/lib/tinyusb/src/common/tusb_common.h **** #define TU_BIT(n)                     (1UL << (n))
  66:SynaptiX_FDK/lib/tinyusb/src/common/tusb_common.h **** 
  67:SynaptiX_FDK/lib/tinyusb/src/common/tusb_common.h **** // Generate a mask with bit from high (31) to low (0) set, e.g TU_GENMASK(3, 0) = 0b1111
  68:SynaptiX_FDK/lib/tinyusb/src/common/tusb_common.h **** #define TU_GENMASK(h, l)              ( (UINT32_MAX << (l)) & (UINT32_MAX >> (31 - (h))) )
  69:SynaptiX_FDK/lib/tinyusb/src/common/tusb_common.h **** 
  70:SynaptiX_FDK/lib/tinyusb/src/common/tusb_common.h **** //--------------------------------------------------------------------+
  71:SynaptiX_FDK/lib/tinyusb/src/common/tusb_common.h **** // Includes
  72:SynaptiX_FDK/lib/tinyusb/src/common/tusb_common.h **** //--------------------------------------------------------------------+
  73:SynaptiX_FDK/lib/tinyusb/src/common/tusb_common.h **** 
  74:SynaptiX_FDK/lib/tinyusb/src/common/tusb_common.h **** // Standard Headers
  75:SynaptiX_FDK/lib/tinyusb/src/common/tusb_common.h **** #include <stdbool.h>
  76:SynaptiX_FDK/lib/tinyusb/src/common/tusb_common.h **** #include <stdint.h>
  77:SynaptiX_FDK/lib/tinyusb/src/common/tusb_common.h **** #include <inttypes.h>
  78:SynaptiX_FDK/lib/tinyusb/src/common/tusb_common.h **** #include <stddef.h>
  79:SynaptiX_FDK/lib/tinyusb/src/common/tusb_common.h **** #include <string.h>
  80:SynaptiX_FDK/lib/tinyusb/src/common/tusb_common.h **** 
  81:SynaptiX_FDK/lib/tinyusb/src/common/tusb_common.h **** // Tinyusb Common Headers
  82:SynaptiX_FDK/lib/tinyusb/src/common/tusb_common.h **** #include "tusb_option.h"
  83:SynaptiX_FDK/lib/tinyusb/src/common/tusb_common.h **** #include "tusb_compiler.h"
  84:SynaptiX_FDK/lib/tinyusb/src/common/tusb_common.h **** #include "tusb_verify.h"
  85:SynaptiX_FDK/lib/tinyusb/src/common/tusb_common.h **** #include "tusb_types.h"
  86:SynaptiX_FDK/lib/tinyusb/src/common/tusb_common.h **** #include "tusb_debug.h"
  87:SynaptiX_FDK/lib/tinyusb/src/common/tusb_common.h **** 
  88:SynaptiX_FDK/lib/tinyusb/src/common/tusb_common.h **** //--------------------------------------------------------------------+
  89:SynaptiX_FDK/lib/tinyusb/src/common/tusb_common.h **** // API implemented by application if needed
  90:SynaptiX_FDK/lib/tinyusb/src/common/tusb_common.h **** // TODO move to a more obvious place/file
  91:SynaptiX_FDK/lib/tinyusb/src/common/tusb_common.h **** //--------------------------------------------------------------------+
  92:SynaptiX_FDK/lib/tinyusb/src/common/tusb_common.h **** 
  93:SynaptiX_FDK/lib/tinyusb/src/common/tusb_common.h **** // Get current milliseconds, required by some port/configuration without RTOS
ARM GAS  C:\Users\DELL\AppData\Local\Temp\ccYJ4WIi.s 			page 36


  94:SynaptiX_FDK/lib/tinyusb/src/common/tusb_common.h **** extern uint32_t tusb_time_millis_api(void);
  95:SynaptiX_FDK/lib/tinyusb/src/common/tusb_common.h **** 
  96:SynaptiX_FDK/lib/tinyusb/src/common/tusb_common.h **** // Delay in milliseconds, use tusb_time_millis_api() by default. required by some port/configuratio
  97:SynaptiX_FDK/lib/tinyusb/src/common/tusb_common.h **** extern void tusb_time_delay_ms_api(uint32_t ms);
  98:SynaptiX_FDK/lib/tinyusb/src/common/tusb_common.h **** 
  99:SynaptiX_FDK/lib/tinyusb/src/common/tusb_common.h **** // flush data cache
 100:SynaptiX_FDK/lib/tinyusb/src/common/tusb_common.h **** extern void tusb_app_dcache_flush(uintptr_t addr, uint32_t data_size);
 101:SynaptiX_FDK/lib/tinyusb/src/common/tusb_common.h **** 
 102:SynaptiX_FDK/lib/tinyusb/src/common/tusb_common.h **** // invalidate data cache
 103:SynaptiX_FDK/lib/tinyusb/src/common/tusb_common.h **** extern void tusb_app_dcache_invalidate(uintptr_t addr, uint32_t data_size);
 104:SynaptiX_FDK/lib/tinyusb/src/common/tusb_common.h **** 
 105:SynaptiX_FDK/lib/tinyusb/src/common/tusb_common.h **** // Optional physical <-> virtual address translation
 106:SynaptiX_FDK/lib/tinyusb/src/common/tusb_common.h **** extern void* tusb_app_virt_to_phys(void *virt_addr);
 107:SynaptiX_FDK/lib/tinyusb/src/common/tusb_common.h **** extern void* tusb_app_phys_to_virt(void *phys_addr);
 108:SynaptiX_FDK/lib/tinyusb/src/common/tusb_common.h **** 
 109:SynaptiX_FDK/lib/tinyusb/src/common/tusb_common.h **** //--------------------------------------------------------------------+
 110:SynaptiX_FDK/lib/tinyusb/src/common/tusb_common.h **** // Internal Inline Functions
 111:SynaptiX_FDK/lib/tinyusb/src/common/tusb_common.h **** //--------------------------------------------------------------------+
 112:SynaptiX_FDK/lib/tinyusb/src/common/tusb_common.h **** 
 113:SynaptiX_FDK/lib/tinyusb/src/common/tusb_common.h **** //------------- Mem -------------//
 114:SynaptiX_FDK/lib/tinyusb/src/common/tusb_common.h **** #define tu_memclr(buffer, size)  (void) memset((buffer), 0, (size))
 115:SynaptiX_FDK/lib/tinyusb/src/common/tusb_common.h **** #define tu_varclr(_var)          tu_memclr(_var, sizeof(*(_var)))
 116:SynaptiX_FDK/lib/tinyusb/src/common/tusb_common.h **** 
 117:SynaptiX_FDK/lib/tinyusb/src/common/tusb_common.h **** // This is a backport of memset_s from c11
 118:SynaptiX_FDK/lib/tinyusb/src/common/tusb_common.h **** TU_ATTR_ALWAYS_INLINE static inline int tu_memset_s(void *dest, size_t destsz, int ch, size_t count
 119:SynaptiX_FDK/lib/tinyusb/src/common/tusb_common.h ****   // Validate parameters
 120:SynaptiX_FDK/lib/tinyusb/src/common/tusb_common.h ****   if (dest == NULL) {
 121:SynaptiX_FDK/lib/tinyusb/src/common/tusb_common.h ****     return -1;
 122:SynaptiX_FDK/lib/tinyusb/src/common/tusb_common.h ****   }
 123:SynaptiX_FDK/lib/tinyusb/src/common/tusb_common.h **** 
 124:SynaptiX_FDK/lib/tinyusb/src/common/tusb_common.h ****   if (count == 0u) {
 125:SynaptiX_FDK/lib/tinyusb/src/common/tusb_common.h ****     return 0;
 126:SynaptiX_FDK/lib/tinyusb/src/common/tusb_common.h ****   }
 127:SynaptiX_FDK/lib/tinyusb/src/common/tusb_common.h **** 
 128:SynaptiX_FDK/lib/tinyusb/src/common/tusb_common.h ****   if (count > destsz) {
 129:SynaptiX_FDK/lib/tinyusb/src/common/tusb_common.h ****     return -1;
 130:SynaptiX_FDK/lib/tinyusb/src/common/tusb_common.h ****   }
 131:SynaptiX_FDK/lib/tinyusb/src/common/tusb_common.h **** 
 132:SynaptiX_FDK/lib/tinyusb/src/common/tusb_common.h ****   (void) memset(dest, ch, count);
 133:SynaptiX_FDK/lib/tinyusb/src/common/tusb_common.h ****   return 0;
 134:SynaptiX_FDK/lib/tinyusb/src/common/tusb_common.h **** }
 135:SynaptiX_FDK/lib/tinyusb/src/common/tusb_common.h **** 
 136:SynaptiX_FDK/lib/tinyusb/src/common/tusb_common.h **** // This is a backport of memcpy_s from c11
 137:SynaptiX_FDK/lib/tinyusb/src/common/tusb_common.h **** TU_ATTR_ALWAYS_INLINE static inline int tu_memcpy_s(void *dest, size_t destsz, const void *src, siz
 138:SynaptiX_FDK/lib/tinyusb/src/common/tusb_common.h ****   if (dest == NULL) {
 139:SynaptiX_FDK/lib/tinyusb/src/common/tusb_common.h ****     return -1;
 140:SynaptiX_FDK/lib/tinyusb/src/common/tusb_common.h ****   }
 141:SynaptiX_FDK/lib/tinyusb/src/common/tusb_common.h **** 
 142:SynaptiX_FDK/lib/tinyusb/src/common/tusb_common.h ****   if (count == 0u) {
 143:SynaptiX_FDK/lib/tinyusb/src/common/tusb_common.h ****     return 0;
 144:SynaptiX_FDK/lib/tinyusb/src/common/tusb_common.h ****   }
 145:SynaptiX_FDK/lib/tinyusb/src/common/tusb_common.h **** 
 146:SynaptiX_FDK/lib/tinyusb/src/common/tusb_common.h ****   if (src == NULL) {
 147:SynaptiX_FDK/lib/tinyusb/src/common/tusb_common.h ****     return -1;
 148:SynaptiX_FDK/lib/tinyusb/src/common/tusb_common.h ****   }
 149:SynaptiX_FDK/lib/tinyusb/src/common/tusb_common.h **** 
 150:SynaptiX_FDK/lib/tinyusb/src/common/tusb_common.h ****   if (count > destsz) {
ARM GAS  C:\Users\DELL\AppData\Local\Temp\ccYJ4WIi.s 			page 37


 151:SynaptiX_FDK/lib/tinyusb/src/common/tusb_common.h ****     return -1;
 152:SynaptiX_FDK/lib/tinyusb/src/common/tusb_common.h ****   }
 153:SynaptiX_FDK/lib/tinyusb/src/common/tusb_common.h **** 
 154:SynaptiX_FDK/lib/tinyusb/src/common/tusb_common.h ****   (void) memcpy(dest, src, count);
 155:SynaptiX_FDK/lib/tinyusb/src/common/tusb_common.h ****   return 0;
 156:SynaptiX_FDK/lib/tinyusb/src/common/tusb_common.h **** }
 157:SynaptiX_FDK/lib/tinyusb/src/common/tusb_common.h **** 
 158:SynaptiX_FDK/lib/tinyusb/src/common/tusb_common.h **** TU_ATTR_ALWAYS_INLINE static inline bool tu_mem_is_zero(const void *buffer, size_t size) {
 159:SynaptiX_FDK/lib/tinyusb/src/common/tusb_common.h ****   const uint8_t* buf8 = (const uint8_t*) buffer;
 160:SynaptiX_FDK/lib/tinyusb/src/common/tusb_common.h ****   for (size_t i = 0; i < size; i++) {
 161:SynaptiX_FDK/lib/tinyusb/src/common/tusb_common.h ****     if (buf8[i] != 0) { return false; }
 162:SynaptiX_FDK/lib/tinyusb/src/common/tusb_common.h ****   }
 163:SynaptiX_FDK/lib/tinyusb/src/common/tusb_common.h ****   return true;
 164:SynaptiX_FDK/lib/tinyusb/src/common/tusb_common.h **** }
 165:SynaptiX_FDK/lib/tinyusb/src/common/tusb_common.h **** 
 166:SynaptiX_FDK/lib/tinyusb/src/common/tusb_common.h **** TU_ATTR_ALWAYS_INLINE static inline bool tu_mem_is_ff(const void *buffer, size_t size) {
 167:SynaptiX_FDK/lib/tinyusb/src/common/tusb_common.h ****   const uint8_t* buf8 = (const uint8_t*) buffer;
 168:SynaptiX_FDK/lib/tinyusb/src/common/tusb_common.h ****   for (size_t i = 0; i < size; i++) {
 169:SynaptiX_FDK/lib/tinyusb/src/common/tusb_common.h ****     if (buf8[i] != 0xff) { return false; }
 170:SynaptiX_FDK/lib/tinyusb/src/common/tusb_common.h ****   }
 171:SynaptiX_FDK/lib/tinyusb/src/common/tusb_common.h ****   return true;
 172:SynaptiX_FDK/lib/tinyusb/src/common/tusb_common.h **** }
 173:SynaptiX_FDK/lib/tinyusb/src/common/tusb_common.h **** 
 174:SynaptiX_FDK/lib/tinyusb/src/common/tusb_common.h **** 
 175:SynaptiX_FDK/lib/tinyusb/src/common/tusb_common.h **** //------------- Bytes -------------//
 176:SynaptiX_FDK/lib/tinyusb/src/common/tusb_common.h **** TU_ATTR_ALWAYS_INLINE static inline uint32_t tu_u32(uint8_t b3, uint8_t b2, uint8_t b1, uint8_t b0)
 177:SynaptiX_FDK/lib/tinyusb/src/common/tusb_common.h ****   return (((uint32_t)b3) << 24) | (((uint32_t)b2) << 16) | (((uint32_t)b1) << 8) | b0;
 178:SynaptiX_FDK/lib/tinyusb/src/common/tusb_common.h **** }
 179:SynaptiX_FDK/lib/tinyusb/src/common/tusb_common.h **** 
 180:SynaptiX_FDK/lib/tinyusb/src/common/tusb_common.h **** TU_ATTR_ALWAYS_INLINE static inline uint32_t tu_u32_from_u16(uint16_t high, uint16_t low) {
 181:SynaptiX_FDK/lib/tinyusb/src/common/tusb_common.h ****   return (((uint32_t)high) << 16) | low;
 182:SynaptiX_FDK/lib/tinyusb/src/common/tusb_common.h **** }
 183:SynaptiX_FDK/lib/tinyusb/src/common/tusb_common.h **** 
 184:SynaptiX_FDK/lib/tinyusb/src/common/tusb_common.h **** TU_ATTR_ALWAYS_INLINE static inline uint16_t tu_u16(uint8_t high, uint8_t low) {
 185:SynaptiX_FDK/lib/tinyusb/src/common/tusb_common.h ****   return (uint16_t)((((uint16_t)high) << 8) | low);
 186:SynaptiX_FDK/lib/tinyusb/src/common/tusb_common.h **** }
 187:SynaptiX_FDK/lib/tinyusb/src/common/tusb_common.h **** 
 188:SynaptiX_FDK/lib/tinyusb/src/common/tusb_common.h **** TU_ATTR_ALWAYS_INLINE static inline uint8_t tu_u32_byte3(uint32_t ui32) { return TU_U32_BYTE3(ui32)
 189:SynaptiX_FDK/lib/tinyusb/src/common/tusb_common.h **** TU_ATTR_ALWAYS_INLINE static inline uint8_t tu_u32_byte2(uint32_t ui32) { return TU_U32_BYTE2(ui32)
 190:SynaptiX_FDK/lib/tinyusb/src/common/tusb_common.h **** TU_ATTR_ALWAYS_INLINE static inline uint8_t tu_u32_byte1(uint32_t ui32) { return TU_U32_BYTE1(ui32)
 191:SynaptiX_FDK/lib/tinyusb/src/common/tusb_common.h **** TU_ATTR_ALWAYS_INLINE static inline uint8_t tu_u32_byte0(uint32_t ui32) { return TU_U32_BYTE0(ui32)
 192:SynaptiX_FDK/lib/tinyusb/src/common/tusb_common.h **** 
 193:SynaptiX_FDK/lib/tinyusb/src/common/tusb_common.h **** TU_ATTR_ALWAYS_INLINE static inline uint16_t tu_u32_high16(uint32_t ui32) { return (uint16_t) (ui32
 194:SynaptiX_FDK/lib/tinyusb/src/common/tusb_common.h **** TU_ATTR_ALWAYS_INLINE static inline uint16_t tu_u32_low16 (uint32_t ui32) { return (uint16_t) (ui32
 195:SynaptiX_FDK/lib/tinyusb/src/common/tusb_common.h **** 
 196:SynaptiX_FDK/lib/tinyusb/src/common/tusb_common.h **** TU_ATTR_ALWAYS_INLINE static inline uint8_t tu_u16_high(uint16_t ui16) { return TU_U16_HIGH(ui16); 
 197:SynaptiX_FDK/lib/tinyusb/src/common/tusb_common.h **** TU_ATTR_ALWAYS_INLINE static inline uint8_t tu_u16_low (uint16_t ui16) { return TU_U16_LOW(ui16); }
 198:SynaptiX_FDK/lib/tinyusb/src/common/tusb_common.h **** 
 199:SynaptiX_FDK/lib/tinyusb/src/common/tusb_common.h **** //------------- Bits -------------//
 200:SynaptiX_FDK/lib/tinyusb/src/common/tusb_common.h **** TU_ATTR_ALWAYS_INLINE static inline uint32_t tu_bit_set  (uint32_t value, uint8_t pos) { return val
 201:SynaptiX_FDK/lib/tinyusb/src/common/tusb_common.h **** TU_ATTR_ALWAYS_INLINE static inline uint32_t tu_bit_clear(uint32_t value, uint8_t pos) { return val
 202:SynaptiX_FDK/lib/tinyusb/src/common/tusb_common.h **** TU_ATTR_ALWAYS_INLINE static inline bool     tu_bit_test (uint32_t value, uint8_t pos) { return (va
 203:SynaptiX_FDK/lib/tinyusb/src/common/tusb_common.h **** 
 204:SynaptiX_FDK/lib/tinyusb/src/common/tusb_common.h **** //------------- Min -------------//
 205:SynaptiX_FDK/lib/tinyusb/src/common/tusb_common.h **** TU_ATTR_ALWAYS_INLINE static inline uint8_t  tu_min8  (uint8_t  x, uint8_t y ) { return (x < y) ? x
 206:SynaptiX_FDK/lib/tinyusb/src/common/tusb_common.h **** TU_ATTR_ALWAYS_INLINE static inline uint16_t tu_min16 (uint16_t x, uint16_t y) { return (x < y) ? x
 207:SynaptiX_FDK/lib/tinyusb/src/common/tusb_common.h **** TU_ATTR_ALWAYS_INLINE static inline uint32_t tu_min32 (uint32_t x, uint32_t y) { return (x < y) ? x
ARM GAS  C:\Users\DELL\AppData\Local\Temp\ccYJ4WIi.s 			page 38


 208:SynaptiX_FDK/lib/tinyusb/src/common/tusb_common.h **** 
 209:SynaptiX_FDK/lib/tinyusb/src/common/tusb_common.h **** //------------- Max -------------//
 210:SynaptiX_FDK/lib/tinyusb/src/common/tusb_common.h **** TU_ATTR_ALWAYS_INLINE static inline uint8_t  tu_max8  (uint8_t  x, uint8_t y ) { return (x > y) ? x
 211:SynaptiX_FDK/lib/tinyusb/src/common/tusb_common.h **** TU_ATTR_ALWAYS_INLINE static inline uint16_t tu_max16 (uint16_t x, uint16_t y) { return (x > y) ? x
 212:SynaptiX_FDK/lib/tinyusb/src/common/tusb_common.h **** TU_ATTR_ALWAYS_INLINE static inline uint32_t tu_max32 (uint32_t x, uint32_t y) { return (x > y) ? x
 213:SynaptiX_FDK/lib/tinyusb/src/common/tusb_common.h **** 
 214:SynaptiX_FDK/lib/tinyusb/src/common/tusb_common.h **** //------------- Align -------------//
 215:SynaptiX_FDK/lib/tinyusb/src/common/tusb_common.h **** TU_ATTR_ALWAYS_INLINE static inline uint32_t tu_align(uint32_t value, uint32_t alignment) {
 216:SynaptiX_FDK/lib/tinyusb/src/common/tusb_common.h ****   return value & ((uint32_t) ~(alignment-1));
 217:SynaptiX_FDK/lib/tinyusb/src/common/tusb_common.h **** }
 218:SynaptiX_FDK/lib/tinyusb/src/common/tusb_common.h **** 
 219:SynaptiX_FDK/lib/tinyusb/src/common/tusb_common.h **** TU_ATTR_ALWAYS_INLINE static inline uint32_t tu_align4  (uint32_t value) { return (value & 0xFFFFFF
 220:SynaptiX_FDK/lib/tinyusb/src/common/tusb_common.h **** TU_ATTR_ALWAYS_INLINE static inline uint32_t tu_align8  (uint32_t value) { return (value & 0xFFFFFF
 221:SynaptiX_FDK/lib/tinyusb/src/common/tusb_common.h **** TU_ATTR_ALWAYS_INLINE static inline uint32_t tu_align16 (uint32_t value) { return (value & 0xFFFFFF
 222:SynaptiX_FDK/lib/tinyusb/src/common/tusb_common.h **** TU_ATTR_ALWAYS_INLINE static inline uint32_t tu_align32 (uint32_t value) { return (value & 0xFFFFFF
 223:SynaptiX_FDK/lib/tinyusb/src/common/tusb_common.h **** TU_ATTR_ALWAYS_INLINE static inline uint32_t tu_align4k (uint32_t value) { return (value & 0xFFFFF0
 224:SynaptiX_FDK/lib/tinyusb/src/common/tusb_common.h **** TU_ATTR_ALWAYS_INLINE static inline uint32_t tu_offset4k(uint32_t value) { return (value & 0xFFFUL)
 225:SynaptiX_FDK/lib/tinyusb/src/common/tusb_common.h **** 
 226:SynaptiX_FDK/lib/tinyusb/src/common/tusb_common.h **** TU_ATTR_ALWAYS_INLINE static inline bool tu_is_aligned32(uint32_t value) { return (value & 0x1FUL) 
 227:SynaptiX_FDK/lib/tinyusb/src/common/tusb_common.h **** TU_ATTR_ALWAYS_INLINE static inline bool tu_is_aligned64(uint64_t value) { return (value & 0x3FUL) 
 228:SynaptiX_FDK/lib/tinyusb/src/common/tusb_common.h **** 
 229:SynaptiX_FDK/lib/tinyusb/src/common/tusb_common.h **** //------------- Mathematics -------------//
 230:SynaptiX_FDK/lib/tinyusb/src/common/tusb_common.h **** TU_ATTR_ALWAYS_INLINE static inline uint32_t tu_div_ceil(uint32_t v, uint32_t d) { return TU_DIV_CE
 231:SynaptiX_FDK/lib/tinyusb/src/common/tusb_common.h **** TU_ATTR_ALWAYS_INLINE static inline uint32_t tu_div_round_nearest(uint32_t v, uint32_t d) { return 
 232:SynaptiX_FDK/lib/tinyusb/src/common/tusb_common.h **** 
 233:SynaptiX_FDK/lib/tinyusb/src/common/tusb_common.h **** TU_ATTR_ALWAYS_INLINE static inline uint32_t tu_round_up(uint32_t v, uint32_t f) { return tu_div_ce
 234:SynaptiX_FDK/lib/tinyusb/src/common/tusb_common.h **** 
 235:SynaptiX_FDK/lib/tinyusb/src/common/tusb_common.h **** // log2 of a value is its MSB's position
 236:SynaptiX_FDK/lib/tinyusb/src/common/tusb_common.h **** // TODO use clz TODO remove
 237:SynaptiX_FDK/lib/tinyusb/src/common/tusb_common.h **** TU_ATTR_ALWAYS_INLINE static inline uint8_t tu_log2(uint32_t value) {
 238:SynaptiX_FDK/lib/tinyusb/src/common/tusb_common.h ****   uint8_t result = 0;
 239:SynaptiX_FDK/lib/tinyusb/src/common/tusb_common.h ****   while ((value >>= 1u) != 0u) {
 240:SynaptiX_FDK/lib/tinyusb/src/common/tusb_common.h ****     result++;
 241:SynaptiX_FDK/lib/tinyusb/src/common/tusb_common.h ****   }
 242:SynaptiX_FDK/lib/tinyusb/src/common/tusb_common.h ****   return result;
 243:SynaptiX_FDK/lib/tinyusb/src/common/tusb_common.h **** }
 244:SynaptiX_FDK/lib/tinyusb/src/common/tusb_common.h **** 
 245:SynaptiX_FDK/lib/tinyusb/src/common/tusb_common.h **** //static inline uint8_t tu_log2(uint32_t value)
 246:SynaptiX_FDK/lib/tinyusb/src/common/tusb_common.h **** //{
 247:SynaptiX_FDK/lib/tinyusb/src/common/tusb_common.h **** //   return sizeof(uint32_t) * CHAR_BIT - __builtin_clz(x) - 1;
 248:SynaptiX_FDK/lib/tinyusb/src/common/tusb_common.h **** //}
 249:SynaptiX_FDK/lib/tinyusb/src/common/tusb_common.h **** 
 250:SynaptiX_FDK/lib/tinyusb/src/common/tusb_common.h **** TU_ATTR_ALWAYS_INLINE static inline bool tu_is_power_of_two(uint32_t value) {
 251:SynaptiX_FDK/lib/tinyusb/src/common/tusb_common.h ****    return (value != 0) && ((value & (value - 1)) == 0);
 252:SynaptiX_FDK/lib/tinyusb/src/common/tusb_common.h **** }
 253:SynaptiX_FDK/lib/tinyusb/src/common/tusb_common.h **** 
 254:SynaptiX_FDK/lib/tinyusb/src/common/tusb_common.h **** //------------- Unaligned Access -------------//
 255:SynaptiX_FDK/lib/tinyusb/src/common/tusb_common.h **** #if TUP_ARCH_STRICT_ALIGN
 256:SynaptiX_FDK/lib/tinyusb/src/common/tusb_common.h **** 
 257:SynaptiX_FDK/lib/tinyusb/src/common/tusb_common.h **** // Rely on compiler to generate correct code for unaligned access
 258:SynaptiX_FDK/lib/tinyusb/src/common/tusb_common.h **** typedef struct { uint16_t val; } TU_ATTR_PACKED tu_unaligned_uint16_t;
 259:SynaptiX_FDK/lib/tinyusb/src/common/tusb_common.h **** typedef struct { uint32_t val; } TU_ATTR_PACKED tu_unaligned_uint32_t;
 260:SynaptiX_FDK/lib/tinyusb/src/common/tusb_common.h **** 
 261:SynaptiX_FDK/lib/tinyusb/src/common/tusb_common.h **** TU_ATTR_ALWAYS_INLINE static inline uint32_t tu_unaligned_read32(const void *mem) {
 262:SynaptiX_FDK/lib/tinyusb/src/common/tusb_common.h ****   tu_unaligned_uint32_t const *ua32 = (tu_unaligned_uint32_t const *) mem;
 263:SynaptiX_FDK/lib/tinyusb/src/common/tusb_common.h ****   return ua32->val;
 264:SynaptiX_FDK/lib/tinyusb/src/common/tusb_common.h **** }
ARM GAS  C:\Users\DELL\AppData\Local\Temp\ccYJ4WIi.s 			page 39


 265:SynaptiX_FDK/lib/tinyusb/src/common/tusb_common.h **** 
 266:SynaptiX_FDK/lib/tinyusb/src/common/tusb_common.h **** TU_ATTR_ALWAYS_INLINE static inline void tu_unaligned_write32(void *mem, uint32_t value) {
 267:SynaptiX_FDK/lib/tinyusb/src/common/tusb_common.h ****   tu_unaligned_uint32_t *ua32 = (tu_unaligned_uint32_t *) mem;
 268:SynaptiX_FDK/lib/tinyusb/src/common/tusb_common.h ****   ua32->val = value;
 269:SynaptiX_FDK/lib/tinyusb/src/common/tusb_common.h **** }
 270:SynaptiX_FDK/lib/tinyusb/src/common/tusb_common.h **** 
 271:SynaptiX_FDK/lib/tinyusb/src/common/tusb_common.h **** TU_ATTR_ALWAYS_INLINE static inline uint16_t tu_unaligned_read16(const void *mem) {
 272:SynaptiX_FDK/lib/tinyusb/src/common/tusb_common.h ****   tu_unaligned_uint16_t const *ua16 = (tu_unaligned_uint16_t const *) mem;
 273:SynaptiX_FDK/lib/tinyusb/src/common/tusb_common.h ****   return ua16->val;
 274:SynaptiX_FDK/lib/tinyusb/src/common/tusb_common.h **** }
 275:SynaptiX_FDK/lib/tinyusb/src/common/tusb_common.h **** 
 276:SynaptiX_FDK/lib/tinyusb/src/common/tusb_common.h **** TU_ATTR_ALWAYS_INLINE static inline void tu_unaligned_write16(void *mem, uint16_t value) {
 277:SynaptiX_FDK/lib/tinyusb/src/common/tusb_common.h ****   tu_unaligned_uint16_t *ua16 = (tu_unaligned_uint16_t *) mem;
 278:SynaptiX_FDK/lib/tinyusb/src/common/tusb_common.h ****   ua16->val = value;
 279:SynaptiX_FDK/lib/tinyusb/src/common/tusb_common.h **** }
 280:SynaptiX_FDK/lib/tinyusb/src/common/tusb_common.h **** 
 281:SynaptiX_FDK/lib/tinyusb/src/common/tusb_common.h **** #elif TUP_MCU_STRICT_ALIGN
 282:SynaptiX_FDK/lib/tinyusb/src/common/tusb_common.h **** 
 283:SynaptiX_FDK/lib/tinyusb/src/common/tusb_common.h **** // MCU such as LPC_IP3511 Highspeed cannot access unaligned memory on USB_RAM although it is ARM M4
 284:SynaptiX_FDK/lib/tinyusb/src/common/tusb_common.h **** // We have to manually pick up bytes since tu_unaligned_uint32_t will still generate unaligned code
 285:SynaptiX_FDK/lib/tinyusb/src/common/tusb_common.h **** // NOTE: volatile cast to memory to prevent compiler to optimize and generate unaligned code
 286:SynaptiX_FDK/lib/tinyusb/src/common/tusb_common.h **** // TODO Big Endian may need minor changes
 287:SynaptiX_FDK/lib/tinyusb/src/common/tusb_common.h **** TU_ATTR_ALWAYS_INLINE static inline uint32_t tu_unaligned_read32(const void* mem) {
 288:SynaptiX_FDK/lib/tinyusb/src/common/tusb_common.h ****   volatile uint8_t const* buf8 = (uint8_t const*) mem;
 289:SynaptiX_FDK/lib/tinyusb/src/common/tusb_common.h ****   return tu_u32(buf8[3], buf8[2], buf8[1], buf8[0]);
 290:SynaptiX_FDK/lib/tinyusb/src/common/tusb_common.h **** }
 291:SynaptiX_FDK/lib/tinyusb/src/common/tusb_common.h **** 
 292:SynaptiX_FDK/lib/tinyusb/src/common/tusb_common.h **** TU_ATTR_ALWAYS_INLINE static inline void tu_unaligned_write32(void* mem, uint32_t value) {
 293:SynaptiX_FDK/lib/tinyusb/src/common/tusb_common.h ****   volatile uint8_t* buf8 = (uint8_t*) mem;
 294:SynaptiX_FDK/lib/tinyusb/src/common/tusb_common.h ****   buf8[0] = tu_u32_byte0(value);
 295:SynaptiX_FDK/lib/tinyusb/src/common/tusb_common.h ****   buf8[1] = tu_u32_byte1(value);
 296:SynaptiX_FDK/lib/tinyusb/src/common/tusb_common.h ****   buf8[2] = tu_u32_byte2(value);
 297:SynaptiX_FDK/lib/tinyusb/src/common/tusb_common.h ****   buf8[3] = tu_u32_byte3(value);
 298:SynaptiX_FDK/lib/tinyusb/src/common/tusb_common.h **** }
 299:SynaptiX_FDK/lib/tinyusb/src/common/tusb_common.h **** 
 300:SynaptiX_FDK/lib/tinyusb/src/common/tusb_common.h **** TU_ATTR_ALWAYS_INLINE static inline uint16_t tu_unaligned_read16(const void* mem) {
 301:SynaptiX_FDK/lib/tinyusb/src/common/tusb_common.h ****   volatile uint8_t const* buf8 = (uint8_t const*) mem;
 302:SynaptiX_FDK/lib/tinyusb/src/common/tusb_common.h ****   return tu_u16(buf8[1], buf8[0]);
 303:SynaptiX_FDK/lib/tinyusb/src/common/tusb_common.h **** }
 304:SynaptiX_FDK/lib/tinyusb/src/common/tusb_common.h **** 
 305:SynaptiX_FDK/lib/tinyusb/src/common/tusb_common.h **** TU_ATTR_ALWAYS_INLINE static inline void tu_unaligned_write16(void* mem, uint16_t value) {
 306:SynaptiX_FDK/lib/tinyusb/src/common/tusb_common.h ****   volatile uint8_t* buf8 = (uint8_t*) mem;
 307:SynaptiX_FDK/lib/tinyusb/src/common/tusb_common.h ****   buf8[0] = tu_u16_low(value);
 308:SynaptiX_FDK/lib/tinyusb/src/common/tusb_common.h ****   buf8[1] = tu_u16_high(value);
 309:SynaptiX_FDK/lib/tinyusb/src/common/tusb_common.h **** }
 310:SynaptiX_FDK/lib/tinyusb/src/common/tusb_common.h **** 
 311:SynaptiX_FDK/lib/tinyusb/src/common/tusb_common.h **** #else
 312:SynaptiX_FDK/lib/tinyusb/src/common/tusb_common.h **** 
 313:SynaptiX_FDK/lib/tinyusb/src/common/tusb_common.h **** // MCU that could access unaligned memory natively
 314:SynaptiX_FDK/lib/tinyusb/src/common/tusb_common.h **** TU_ATTR_ALWAYS_INLINE static inline uint32_t tu_unaligned_read32(const void *mem) {
 315:SynaptiX_FDK/lib/tinyusb/src/common/tusb_common.h ****   return *((uint32_t const *) mem);
 316:SynaptiX_FDK/lib/tinyusb/src/common/tusb_common.h **** }
 317:SynaptiX_FDK/lib/tinyusb/src/common/tusb_common.h **** 
 318:SynaptiX_FDK/lib/tinyusb/src/common/tusb_common.h **** TU_ATTR_ALWAYS_INLINE static inline uint16_t tu_unaligned_read16(const void *mem) {
 319:SynaptiX_FDK/lib/tinyusb/src/common/tusb_common.h ****   return *((uint16_t const *) mem);
 320:SynaptiX_FDK/lib/tinyusb/src/common/tusb_common.h **** }
 321:SynaptiX_FDK/lib/tinyusb/src/common/tusb_common.h **** 
ARM GAS  C:\Users\DELL\AppData\Local\Temp\ccYJ4WIi.s 			page 40


 322:SynaptiX_FDK/lib/tinyusb/src/common/tusb_common.h **** TU_ATTR_ALWAYS_INLINE static inline void tu_unaligned_write32(void *mem, uint32_t value) {
 323:SynaptiX_FDK/lib/tinyusb/src/common/tusb_common.h ****   *((uint32_t *) mem) = value;
 324:SynaptiX_FDK/lib/tinyusb/src/common/tusb_common.h **** }
 325:SynaptiX_FDK/lib/tinyusb/src/common/tusb_common.h **** 
 326:SynaptiX_FDK/lib/tinyusb/src/common/tusb_common.h **** TU_ATTR_ALWAYS_INLINE static inline void tu_unaligned_write16(void *mem, uint16_t value) {
 327:SynaptiX_FDK/lib/tinyusb/src/common/tusb_common.h ****   *((uint16_t *) mem) = value;
 328:SynaptiX_FDK/lib/tinyusb/src/common/tusb_common.h **** }
 329:SynaptiX_FDK/lib/tinyusb/src/common/tusb_common.h **** 
 330:SynaptiX_FDK/lib/tinyusb/src/common/tusb_common.h **** #endif
 331:SynaptiX_FDK/lib/tinyusb/src/common/tusb_common.h **** 
 332:SynaptiX_FDK/lib/tinyusb/src/common/tusb_common.h **** // scatter read 4 bytes from two buffers (LE). Parameter are not checked
 333:SynaptiX_FDK/lib/tinyusb/src/common/tusb_common.h **** TU_ATTR_ALWAYS_INLINE static inline uint32_t tu_scatter_read32(const uint8_t *buf1, uint8_t len1, c
 334:SynaptiX_FDK/lib/tinyusb/src/common/tusb_common.h ****                                                                uint8_t len2) {
 335:SynaptiX_FDK/lib/tinyusb/src/common/tusb_common.h ****   uint32_t result = 0;
 336:SynaptiX_FDK/lib/tinyusb/src/common/tusb_common.h ****   uint8_t  shift  = 0;
 337:SynaptiX_FDK/lib/tinyusb/src/common/tusb_common.h **** 
 338:SynaptiX_FDK/lib/tinyusb/src/common/tusb_common.h ****   for (uint8_t i = 0; i < len1; ++i) {
 339:SynaptiX_FDK/lib/tinyusb/src/common/tusb_common.h ****     result |= ((uint32_t)buf1[i]) << shift;
 340:SynaptiX_FDK/lib/tinyusb/src/common/tusb_common.h ****     shift += 8;
 341:SynaptiX_FDK/lib/tinyusb/src/common/tusb_common.h ****   }
 342:SynaptiX_FDK/lib/tinyusb/src/common/tusb_common.h **** 
 343:SynaptiX_FDK/lib/tinyusb/src/common/tusb_common.h ****   for (uint8_t i = 0; i < len2; ++i) {
 344:SynaptiX_FDK/lib/tinyusb/src/common/tusb_common.h ****     result |= ((uint32_t)buf2[i]) << shift;
 345:SynaptiX_FDK/lib/tinyusb/src/common/tusb_common.h ****     shift += 8;
 346:SynaptiX_FDK/lib/tinyusb/src/common/tusb_common.h ****   }
 347:SynaptiX_FDK/lib/tinyusb/src/common/tusb_common.h **** 
 348:SynaptiX_FDK/lib/tinyusb/src/common/tusb_common.h ****   return result;
 349:SynaptiX_FDK/lib/tinyusb/src/common/tusb_common.h **** }
 350:SynaptiX_FDK/lib/tinyusb/src/common/tusb_common.h **** 
 351:SynaptiX_FDK/lib/tinyusb/src/common/tusb_common.h **** // scatter write 4 bytes (LE) to two buffers. Parameter are not checked
 352:SynaptiX_FDK/lib/tinyusb/src/common/tusb_common.h **** TU_ATTR_ALWAYS_INLINE static inline void tu_scatter_write32(uint32_t value, uint8_t *buf1, uint8_t 
 353:SynaptiX_FDK/lib/tinyusb/src/common/tusb_common.h ****                                                             uint8_t *buf2, uint8_t len2) {
 354:SynaptiX_FDK/lib/tinyusb/src/common/tusb_common.h ****   for (uint8_t i = 0; i < len1; ++i) {
 355:SynaptiX_FDK/lib/tinyusb/src/common/tusb_common.h ****     buf1[i] = (uint8_t)(value & 0xFF);
 356:SynaptiX_FDK/lib/tinyusb/src/common/tusb_common.h ****     value >>= 8;
 357:SynaptiX_FDK/lib/tinyusb/src/common/tusb_common.h ****   }
 358:SynaptiX_FDK/lib/tinyusb/src/common/tusb_common.h **** 
 359:SynaptiX_FDK/lib/tinyusb/src/common/tusb_common.h ****   for (uint8_t i = 0; i < len2; ++i) {
 360:SynaptiX_FDK/lib/tinyusb/src/common/tusb_common.h ****     buf2[i] = (uint8_t)(value & 0xFF);
 361:SynaptiX_FDK/lib/tinyusb/src/common/tusb_common.h ****     value >>= 8;
 362:SynaptiX_FDK/lib/tinyusb/src/common/tusb_common.h ****   }
 363:SynaptiX_FDK/lib/tinyusb/src/common/tusb_common.h **** }
 364:SynaptiX_FDK/lib/tinyusb/src/common/tusb_common.h **** 
 365:SynaptiX_FDK/lib/tinyusb/src/common/tusb_common.h **** //--------------------------------------------------------------------+
 366:SynaptiX_FDK/lib/tinyusb/src/common/tusb_common.h **** // Descriptor helper
 367:SynaptiX_FDK/lib/tinyusb/src/common/tusb_common.h **** //--------------------------------------------------------------------+
 368:SynaptiX_FDK/lib/tinyusb/src/common/tusb_common.h **** 
 369:SynaptiX_FDK/lib/tinyusb/src/common/tusb_common.h **** // return next descriptor
 370:SynaptiX_FDK/lib/tinyusb/src/common/tusb_common.h **** TU_ATTR_ALWAYS_INLINE static inline uint8_t const * tu_desc_next(void const* desc) {
 371:SynaptiX_FDK/lib/tinyusb/src/common/tusb_common.h ****   uint8_t const* desc8 = (uint8_t const*) desc;
 372:SynaptiX_FDK/lib/tinyusb/src/common/tusb_common.h ****   return desc8 + desc8[DESC_OFFSET_LEN];
 373:SynaptiX_FDK/lib/tinyusb/src/common/tusb_common.h **** }
 374:SynaptiX_FDK/lib/tinyusb/src/common/tusb_common.h **** 
 375:SynaptiX_FDK/lib/tinyusb/src/common/tusb_common.h **** // get descriptor length
 376:SynaptiX_FDK/lib/tinyusb/src/common/tusb_common.h **** TU_ATTR_ALWAYS_INLINE static inline uint8_t tu_desc_len(void const* desc) {
 377:SynaptiX_FDK/lib/tinyusb/src/common/tusb_common.h ****   return ((uint8_t const*) desc)[DESC_OFFSET_LEN];
 378:SynaptiX_FDK/lib/tinyusb/src/common/tusb_common.h **** }
ARM GAS  C:\Users\DELL\AppData\Local\Temp\ccYJ4WIi.s 			page 41


 379:SynaptiX_FDK/lib/tinyusb/src/common/tusb_common.h **** 
 380:SynaptiX_FDK/lib/tinyusb/src/common/tusb_common.h **** // get descriptor type
 381:SynaptiX_FDK/lib/tinyusb/src/common/tusb_common.h **** TU_ATTR_ALWAYS_INLINE static inline uint8_t tu_desc_type(void const* desc) {
 382:SynaptiX_FDK/lib/tinyusb/src/common/tusb_common.h ****   return ((uint8_t const*) desc)[DESC_OFFSET_TYPE];
 383:SynaptiX_FDK/lib/tinyusb/src/common/tusb_common.h **** }
 384:SynaptiX_FDK/lib/tinyusb/src/common/tusb_common.h **** 
 385:SynaptiX_FDK/lib/tinyusb/src/common/tusb_common.h **** // get descriptor subtype
 386:SynaptiX_FDK/lib/tinyusb/src/common/tusb_common.h **** TU_ATTR_ALWAYS_INLINE static inline uint8_t tu_desc_subtype(void const* desc) {
 387:SynaptiX_FDK/lib/tinyusb/src/common/tusb_common.h ****   return ((uint8_t const*) desc)[DESC_OFFSET_SUBTYPE];
 388:SynaptiX_FDK/lib/tinyusb/src/common/tusb_common.h **** }
 389:SynaptiX_FDK/lib/tinyusb/src/common/tusb_common.h **** 
 390:SynaptiX_FDK/lib/tinyusb/src/common/tusb_common.h **** TU_ATTR_ALWAYS_INLINE static inline bool tu_desc_in_bounds(const uint8_t *p_desc, const uint8_t *de
 473              		.loc 2 390 42 view .LVU123
 474              	.LBB270:
 391:SynaptiX_FDK/lib/tinyusb/src/common/tusb_common.h ****   return p_desc < desc_end && tu_desc_next(p_desc) <= desc_end;
 475              		.loc 2 391 3 view .LVU124
 476              		.loc 2 391 28 is_stmt 0 view .LVU125
 477 004a A045     		cmp	r8, r4
 478 004c 72D2     		bcs	.L45
 479              	.LVL42:
 480              	.LBB271:
 481              	.LBI271:
 370:SynaptiX_FDK/lib/tinyusb/src/common/tusb_common.h ****   uint8_t const* desc8 = (uint8_t const*) desc;
 482              		.loc 2 370 53 is_stmt 1 view .LVU126
 483              	.LBB272:
 371:SynaptiX_FDK/lib/tinyusb/src/common/tusb_common.h ****   return desc8 + desc8[DESC_OFFSET_LEN];
 484              		.loc 2 371 3 view .LVU127
 372:SynaptiX_FDK/lib/tinyusb/src/common/tusb_common.h **** }
 485              		.loc 2 372 3 view .LVU128
 372:SynaptiX_FDK/lib/tinyusb/src/common/tusb_common.h **** }
 486              		.loc 2 372 23 is_stmt 0 view .LVU129
 487 004e 98F80050 		ldrb	r5, [r8]	@ zero_extendqisi2
 372:SynaptiX_FDK/lib/tinyusb/src/common/tusb_common.h **** }
 488              		.loc 2 372 16 view .LVU130
 489 0052 4544     		add	r5, r5, r8
 490              	.LVL43:
 372:SynaptiX_FDK/lib/tinyusb/src/common/tusb_common.h **** }
 491              		.loc 2 372 16 view .LVU131
 492              	.LBE272:
 493              	.LBE271:
 494              		.loc 2 391 28 discriminator 1 view .LVU132
 495 0054 AC42     		cmp	r4, r5
 496 0056 6FD3     		bcc	.L46
 497              	.LVL44:
 498              		.loc 2 391 28 discriminator 1 view .LVU133
 499              	.LBE270:
 500              	.LBE269:
 501              	.LBB273:
1113:SynaptiX_FDK/lib/tinyusb/src/device/usbd.c ****       p_desc = tu_desc_next(p_desc); // next to Interface
 502              		.loc 1 1113 5 is_stmt 1 view .LVU134
 503              	.LBB257:
 504              	.LBI257:
 381:SynaptiX_FDK/lib/tinyusb/src/common/tusb_common.h ****   return ((uint8_t const*) desc)[DESC_OFFSET_TYPE];
 505              		.loc 2 381 45 view .LVU135
 506              	.LBB258:
 382:SynaptiX_FDK/lib/tinyusb/src/common/tusb_common.h **** }
 507              		.loc 2 382 3 view .LVU136
ARM GAS  C:\Users\DELL\AppData\Local\Temp\ccYJ4WIi.s 			page 42


 382:SynaptiX_FDK/lib/tinyusb/src/common/tusb_common.h **** }
 508              		.loc 2 382 33 is_stmt 0 view .LVU137
 509 0058 98F80130 		ldrb	r3, [r8, #1]	@ zero_extendqisi2
 510              	.LVL45:
 382:SynaptiX_FDK/lib/tinyusb/src/common/tusb_common.h **** }
 511              		.loc 2 382 33 view .LVU138
 512              	.LBE258:
 513              	.LBE257:
1113:SynaptiX_FDK/lib/tinyusb/src/device/usbd.c ****       p_desc = tu_desc_next(p_desc); // next to Interface
 514              		.loc 1 1113 8 discriminator 1 view .LVU139
 515 005c 0B2B     		cmp	r3, #11
 516 005e 5DD0     		beq	.L42
1118:SynaptiX_FDK/lib/tinyusb/src/device/usbd.c ****     const tusb_desc_interface_t *desc_itf = (const tusb_desc_interface_t *)p_desc;
 517              		.loc 1 1118 5 is_stmt 1 view .LVU140
1118:SynaptiX_FDK/lib/tinyusb/src/device/usbd.c ****     const tusb_desc_interface_t *desc_itf = (const tusb_desc_interface_t *)p_desc;
 518              		.loc 1 1118 5 view .LVU141
1118:SynaptiX_FDK/lib/tinyusb/src/device/usbd.c ****     const tusb_desc_interface_t *desc_itf = (const tusb_desc_interface_t *)p_desc;
 519              		.loc 1 1118 5 is_stmt 0 discriminator 1 view .LVU142
 520 0060 042B     		cmp	r3, #4
 521 0062 05D1     		bne	.L49
1118:SynaptiX_FDK/lib/tinyusb/src/device/usbd.c ****     const tusb_desc_interface_t *desc_itf = (const tusb_desc_interface_t *)p_desc;
 522              		.loc 1 1118 5 is_stmt 1 view .LVU143
1119:SynaptiX_FDK/lib/tinyusb/src/device/usbd.c **** 
 523              		.loc 1 1119 5 view .LVU144
 524              	.LVL46:
1122:SynaptiX_FDK/lib/tinyusb/src/device/usbd.c ****     uint8_t        drv_id;
 525              		.loc 1 1122 5 view .LVU145
1122:SynaptiX_FDK/lib/tinyusb/src/device/usbd.c ****     uint8_t        drv_id;
 526              		.loc 1 1122 56 is_stmt 0 view .LVU146
 527 0064 A4EB0809 		sub	r9, r4, r8
1122:SynaptiX_FDK/lib/tinyusb/src/device/usbd.c ****     uint8_t        drv_id;
 528              		.loc 1 1122 20 view .LVU147
 529 0068 1FFA89F9 		uxth	r9, r9
 530              	.LVL47:
1123:SynaptiX_FDK/lib/tinyusb/src/device/usbd.c ****     for (drv_id = 0; drv_id < TOTAL_DRIVER_COUNT; drv_id++) {
 531              		.loc 1 1123 5 is_stmt 1 view .LVU148
1124:SynaptiX_FDK/lib/tinyusb/src/device/usbd.c ****       const usbd_class_driver_t *driver = get_driver(drv_id);
 532              		.loc 1 1124 5 view .LVU149
1124:SynaptiX_FDK/lib/tinyusb/src/device/usbd.c ****       const usbd_class_driver_t *driver = get_driver(drv_id);
 533              		.loc 1 1124 17 is_stmt 0 view .LVU150
 534 006c 0027     		movs	r7, #0
1124:SynaptiX_FDK/lib/tinyusb/src/device/usbd.c ****       const usbd_class_driver_t *driver = get_driver(drv_id);
 535              		.loc 1 1124 5 view .LVU151
 536 006e 28E0     		b	.L32
 537              	.LVL48:
 538              	.L49:
1118:SynaptiX_FDK/lib/tinyusb/src/device/usbd.c ****     const tusb_desc_interface_t *desc_itf = (const tusb_desc_interface_t *)p_desc;
 539              		.loc 1 1118 5 is_stmt 1 discriminator 1 view .LVU152
1118:SynaptiX_FDK/lib/tinyusb/src/device/usbd.c ****     const tusb_desc_interface_t *desc_itf = (const tusb_desc_interface_t *)p_desc;
 540              		.loc 1 1118 5 discriminator 1 view .LVU153
1118:SynaptiX_FDK/lib/tinyusb/src/device/usbd.c ****     const tusb_desc_interface_t *desc_itf = (const tusb_desc_interface_t *)p_desc;
 541              		.loc 1 1118 5 discriminator 1 view .LVU154
1118:SynaptiX_FDK/lib/tinyusb/src/device/usbd.c ****     const tusb_desc_interface_t *desc_itf = (const tusb_desc_interface_t *)p_desc;
 542              		.loc 1 1118 5 discriminator 1 view .LVU155
 543              	.LBB259:
1118:SynaptiX_FDK/lib/tinyusb/src/device/usbd.c ****     const tusb_desc_interface_t *desc_itf = (const tusb_desc_interface_t *)p_desc;
 544              		.loc 1 1118 5 discriminator 1 view .LVU156
ARM GAS  C:\Users\DELL\AppData\Local\Temp\ccYJ4WIi.s 			page 43


1118:SynaptiX_FDK/lib/tinyusb/src/device/usbd.c ****     const tusb_desc_interface_t *desc_itf = (const tusb_desc_interface_t *)p_desc;
 545              		.loc 1 1118 5 view .LVU157
1118:SynaptiX_FDK/lib/tinyusb/src/device/usbd.c ****     const tusb_desc_interface_t *desc_itf = (const tusb_desc_interface_t *)p_desc;
 546              		.loc 1 1118 5 is_stmt 0 discriminator 1 view .LVU158
 547 0070 4FF0E023 		mov	r3, #-536813568
 548 0074 D3F8F03D 		ldr	r3, [r3, #3568]
 549 0078 13F0010F 		tst	r3, #1
 550 007c 00D0     		beq	.L31
1118:SynaptiX_FDK/lib/tinyusb/src/device/usbd.c ****     const tusb_desc_interface_t *desc_itf = (const tusb_desc_interface_t *)p_desc;
 551              		.loc 1 1118 5 is_stmt 1 discriminator 2 view .LVU159
 552              		.syntax unified
 553              	@ 1118 "SynaptiX_FDK/lib/tinyusb/src/device/usbd.c" 1
 554 007e 00BE     		BKPT #0
 555              	
 556              	@ 0 "" 2
 557              		.thumb
 558              		.syntax unified
 559              	.L31:
 560              	.LBE259:
1118:SynaptiX_FDK/lib/tinyusb/src/device/usbd.c ****     const tusb_desc_interface_t *desc_itf = (const tusb_desc_interface_t *)p_desc;
 561              		.loc 1 1118 5 discriminator 4 view .LVU160
1118:SynaptiX_FDK/lib/tinyusb/src/device/usbd.c ****     const tusb_desc_interface_t *desc_itf = (const tusb_desc_interface_t *)p_desc;
 562              		.loc 1 1118 5 discriminator 4 view .LVU161
 563 0080 0020     		movs	r0, #0
1118:SynaptiX_FDK/lib/tinyusb/src/device/usbd.c ****     const tusb_desc_interface_t *desc_itf = (const tusb_desc_interface_t *)p_desc;
 564              		.loc 1 1118 5 is_stmt 0 view .LVU162
 565 0082 D3E7     		b	.L28
 566              	.LVL49:
 567              	.L33:
 568              	.LBB260:
 569              	.LBB261:
 570              	.LBB262:
 368:SynaptiX_FDK/lib/tinyusb/src/device/usbd.c ****     if (drvid < BUILTIN_DRIVER_COUNT) {
 571              		.loc 1 368 5 is_stmt 1 view .LVU163
 368:SynaptiX_FDK/lib/tinyusb/src/device/usbd.c ****     if (drvid < BUILTIN_DRIVER_COUNT) {
 572              		.loc 1 368 11 is_stmt 0 view .LVU164
 573 0084 FB1A     		subs	r3, r7, r3
 574 0086 DBB2     		uxtb	r3, r3
 575              	.LVL50:
 369:SynaptiX_FDK/lib/tinyusb/src/device/usbd.c ****       driver = &_usbd_driver[drvid];
 576              		.loc 1 369 5 is_stmt 1 view .LVU165
 369:SynaptiX_FDK/lib/tinyusb/src/device/usbd.c ****       driver = &_usbd_driver[drvid];
 577              		.loc 1 369 8 is_stmt 0 view .LVU166
 578 0088 012B     		cmp	r3, #1
 579 008a 05D8     		bhi	.L34
 370:SynaptiX_FDK/lib/tinyusb/src/device/usbd.c ****     }
 580              		.loc 1 370 7 is_stmt 1 view .LVU167
 370:SynaptiX_FDK/lib/tinyusb/src/device/usbd.c ****     }
 581              		.loc 1 370 14 is_stmt 0 view .LVU168
 582 008c 03EBC303 		add	r3, r3, r3, lsl #3
 583              	.LVL51:
 370:SynaptiX_FDK/lib/tinyusb/src/device/usbd.c ****     }
 584              		.loc 1 370 14 view .LVU169
 585 0090 2B4A     		ldr	r2, .L53+4
 586 0092 02EB8303 		add	r3, r2, r3, lsl #2
 587              	.LVL52:
 374:SynaptiX_FDK/lib/tinyusb/src/device/usbd.c **** }
ARM GAS  C:\Users\DELL\AppData\Local\Temp\ccYJ4WIi.s 			page 44


 588              		.loc 1 374 3 is_stmt 1 view .LVU170
 374:SynaptiX_FDK/lib/tinyusb/src/device/usbd.c **** }
 589              		.loc 1 374 3 is_stmt 0 view .LVU171
 590              	.LBE262:
 591              	.LBE261:
1126:SynaptiX_FDK/lib/tinyusb/src/device/usbd.c ****       const uint16_t drv_len = driver->open(rhport, desc_itf, remaining_len);
 592              		.loc 1 1126 7 is_stmt 1 view .LVU172
1126:SynaptiX_FDK/lib/tinyusb/src/device/usbd.c ****       const uint16_t drv_len = driver->open(rhport, desc_itf, remaining_len);
 593              		.loc 1 1126 7 view .LVU173
 594 0096 23E0     		b	.L35
 595              	.LVL53:
 596              	.L34:
1126:SynaptiX_FDK/lib/tinyusb/src/device/usbd.c ****       const uint16_t drv_len = driver->open(rhport, desc_itf, remaining_len);
 597              		.loc 1 1126 7 discriminator 1 view .LVU174
1126:SynaptiX_FDK/lib/tinyusb/src/device/usbd.c ****       const uint16_t drv_len = driver->open(rhport, desc_itf, remaining_len);
 598              		.loc 1 1126 7 discriminator 1 view .LVU175
1126:SynaptiX_FDK/lib/tinyusb/src/device/usbd.c ****       const uint16_t drv_len = driver->open(rhport, desc_itf, remaining_len);
 599              		.loc 1 1126 7 discriminator 1 view .LVU176
1126:SynaptiX_FDK/lib/tinyusb/src/device/usbd.c ****       const uint16_t drv_len = driver->open(rhport, desc_itf, remaining_len);
 600              		.loc 1 1126 7 discriminator 1 view .LVU177
 601              	.LBB264:
1126:SynaptiX_FDK/lib/tinyusb/src/device/usbd.c ****       const uint16_t drv_len = driver->open(rhport, desc_itf, remaining_len);
 602              		.loc 1 1126 7 discriminator 1 view .LVU178
1126:SynaptiX_FDK/lib/tinyusb/src/device/usbd.c ****       const uint16_t drv_len = driver->open(rhport, desc_itf, remaining_len);
 603              		.loc 1 1126 7 view .LVU179
1126:SynaptiX_FDK/lib/tinyusb/src/device/usbd.c ****       const uint16_t drv_len = driver->open(rhport, desc_itf, remaining_len);
 604              		.loc 1 1126 7 is_stmt 0 discriminator 1 view .LVU180
 605 0098 4FF0E023 		mov	r3, #-536813568
 606 009c D3F8F03D 		ldr	r3, [r3, #3568]
 607 00a0 13F0010F 		tst	r3, #1
 608 00a4 00D0     		beq	.L36
1126:SynaptiX_FDK/lib/tinyusb/src/device/usbd.c ****       const uint16_t drv_len = driver->open(rhport, desc_itf, remaining_len);
 609              		.loc 1 1126 7 is_stmt 1 discriminator 2 view .LVU181
 610              		.syntax unified
 611              	@ 1126 "SynaptiX_FDK/lib/tinyusb/src/device/usbd.c" 1
 612 00a6 00BE     		BKPT #0
 613              	
 614              	@ 0 "" 2
 615              		.thumb
 616              		.syntax unified
 617              	.L36:
 618              	.LBE264:
1126:SynaptiX_FDK/lib/tinyusb/src/device/usbd.c ****       const uint16_t drv_len = driver->open(rhport, desc_itf, remaining_len);
 619              		.loc 1 1126 7 discriminator 4 view .LVU182
1126:SynaptiX_FDK/lib/tinyusb/src/device/usbd.c ****       const uint16_t drv_len = driver->open(rhport, desc_itf, remaining_len);
 620              		.loc 1 1126 7 discriminator 4 view .LVU183
 621 00a8 0020     		movs	r0, #0
1126:SynaptiX_FDK/lib/tinyusb/src/device/usbd.c ****       const uint16_t drv_len = driver->open(rhport, desc_itf, remaining_len);
 622              		.loc 1 1126 7 is_stmt 0 view .LVU184
 623 00aa BFE7     		b	.L28
 624              	.LVL54:
 625              	.L51:
1134:SynaptiX_FDK/lib/tinyusb/src/device/usbd.c ****                                            drv_len));
 626              		.loc 1 1134 9 is_stmt 1 discriminator 1 view .LVU185
1134:SynaptiX_FDK/lib/tinyusb/src/device/usbd.c ****                                            drv_len));
 627              		.loc 1 1134 9 discriminator 1 view .LVU186
1134:SynaptiX_FDK/lib/tinyusb/src/device/usbd.c ****                                            drv_len));
ARM GAS  C:\Users\DELL\AppData\Local\Temp\ccYJ4WIi.s 			page 45


 628              		.loc 1 1134 9 discriminator 1 view .LVU187
1134:SynaptiX_FDK/lib/tinyusb/src/device/usbd.c ****                                            drv_len));
 629              		.loc 1 1134 9 discriminator 1 view .LVU188
 630              	.LBB265:
1134:SynaptiX_FDK/lib/tinyusb/src/device/usbd.c ****                                            drv_len));
 631              		.loc 1 1134 9 discriminator 1 view .LVU189
1134:SynaptiX_FDK/lib/tinyusb/src/device/usbd.c ****                                            drv_len));
 632              		.loc 1 1134 9 view .LVU190
1134:SynaptiX_FDK/lib/tinyusb/src/device/usbd.c ****                                            drv_len));
 633              		.loc 1 1134 9 is_stmt 0 discriminator 1 view .LVU191
 634 00ac 4FF0E023 		mov	r3, #-536813568
 635 00b0 D3F8F03D 		ldr	r3, [r3, #3568]
 636 00b4 13F0010F 		tst	r3, #1
 637 00b8 B8D0     		beq	.L28
1134:SynaptiX_FDK/lib/tinyusb/src/device/usbd.c ****                                            drv_len));
 638              		.loc 1 1134 9 is_stmt 1 discriminator 2 view .LVU192
 639              		.syntax unified
 640              	@ 1134 "SynaptiX_FDK/lib/tinyusb/src/device/usbd.c" 1
 641 00ba 00BE     		BKPT #0
 642              	
 643              	@ 0 "" 2
 644              		.thumb
 645              		.syntax unified
 646              	.LBE265:
1134:SynaptiX_FDK/lib/tinyusb/src/device/usbd.c ****                                            drv_len));
 647              		.loc 1 1134 9 discriminator 4 view .LVU193
1134:SynaptiX_FDK/lib/tinyusb/src/device/usbd.c ****                                            drv_len));
 648              		.loc 1 1134 9 discriminator 4 view .LVU194
1134:SynaptiX_FDK/lib/tinyusb/src/device/usbd.c ****                                            drv_len));
 649              		.loc 1 1134 9 is_stmt 0 view .LVU195
 650 00bc B6E7     		b	.L28
 651              	.LVL55:
 652              	.L37:
1134:SynaptiX_FDK/lib/tinyusb/src/device/usbd.c ****                                            drv_len));
 653              		.loc 1 1134 9 view .LVU196
 654              	.LBE260:
1124:SynaptiX_FDK/lib/tinyusb/src/device/usbd.c ****       const usbd_class_driver_t *driver = get_driver(drv_id);
 655              		.loc 1 1124 57 is_stmt 1 discriminator 2 view .LVU197
 656 00be 0137     		adds	r7, r7, #1
 657              	.LVL56:
1124:SynaptiX_FDK/lib/tinyusb/src/device/usbd.c ****       const usbd_class_driver_t *driver = get_driver(drv_id);
 658              		.loc 1 1124 57 is_stmt 0 discriminator 2 view .LVU198
 659 00c0 FFB2     		uxtb	r7, r7
 660              	.LVL57:
 661              	.L32:
1124:SynaptiX_FDK/lib/tinyusb/src/device/usbd.c ****       const usbd_class_driver_t *driver = get_driver(drv_id);
 662              		.loc 1 1124 29 is_stmt 1 discriminator 1 view .LVU199
1124:SynaptiX_FDK/lib/tinyusb/src/device/usbd.c ****       const usbd_class_driver_t *driver = get_driver(drv_id);
 663              		.loc 1 1124 31 is_stmt 0 discriminator 1 view .LVU200
 664 00c2 204B     		ldr	r3, .L53+8
 665 00c4 1B78     		ldrb	r3, [r3]	@ zero_extendqisi2
 666 00c6 9A1C     		adds	r2, r3, #2
 667 00c8 D2B2     		uxtb	r2, r2
1124:SynaptiX_FDK/lib/tinyusb/src/device/usbd.c ****       const usbd_class_driver_t *driver = get_driver(drv_id);
 668              		.loc 1 1124 29 discriminator 1 view .LVU201
 669 00ca BA42     		cmp	r2, r7
 670 00cc 1FD9     		bls	.L50
ARM GAS  C:\Users\DELL\AppData\Local\Temp\ccYJ4WIi.s 			page 46


 671              	.LBB267:
1125:SynaptiX_FDK/lib/tinyusb/src/device/usbd.c ****       TU_ASSERT(driver);
 672              		.loc 1 1125 7 is_stmt 1 view .LVU202
 673              	.LVL58:
 674              	.LBB266:
 675              	.LBI261:
 362:SynaptiX_FDK/lib/tinyusb/src/device/usbd.c ****   usbd_class_driver_t const *driver = NULL;
 676              		.loc 1 362 65 view .LVU203
 677              	.LBB263:
 363:SynaptiX_FDK/lib/tinyusb/src/device/usbd.c ****   if (drvid < _app_driver_count) {
 678              		.loc 1 363 3 view .LVU204
 364:SynaptiX_FDK/lib/tinyusb/src/device/usbd.c ****     // Application drivers
 679              		.loc 1 364 3 view .LVU205
 364:SynaptiX_FDK/lib/tinyusb/src/device/usbd.c ****     // Application drivers
 680              		.loc 1 364 6 is_stmt 0 view .LVU206
 681 00ce BB42     		cmp	r3, r7
 682 00d0 D8D9     		bls	.L33
 366:SynaptiX_FDK/lib/tinyusb/src/device/usbd.c ****   } else{
 683              		.loc 1 366 5 is_stmt 1 view .LVU207
 366:SynaptiX_FDK/lib/tinyusb/src/device/usbd.c ****   } else{
 684              		.loc 1 366 14 is_stmt 0 view .LVU208
 685 00d2 1D4B     		ldr	r3, .L53+12
 686 00d4 1B68     		ldr	r3, [r3]
 366:SynaptiX_FDK/lib/tinyusb/src/device/usbd.c ****   } else{
 687              		.loc 1 366 26 view .LVU209
 688 00d6 07EBC702 		add	r2, r7, r7, lsl #3
 689              	.LVL59:
 374:SynaptiX_FDK/lib/tinyusb/src/device/usbd.c **** }
 690              		.loc 1 374 3 is_stmt 1 view .LVU210
 374:SynaptiX_FDK/lib/tinyusb/src/device/usbd.c **** }
 691              		.loc 1 374 3 is_stmt 0 view .LVU211
 692              	.LBE263:
 693              	.LBE266:
1126:SynaptiX_FDK/lib/tinyusb/src/device/usbd.c ****       const uint16_t drv_len = driver->open(rhport, desc_itf, remaining_len);
 694              		.loc 1 1126 7 is_stmt 1 view .LVU212
1126:SynaptiX_FDK/lib/tinyusb/src/device/usbd.c ****       const uint16_t drv_len = driver->open(rhport, desc_itf, remaining_len);
 695              		.loc 1 1126 7 view .LVU213
 696 00da 13EB8203 		adds	r3, r3, r2, lsl #2
 697              	.LVL60:
1126:SynaptiX_FDK/lib/tinyusb/src/device/usbd.c ****       const uint16_t drv_len = driver->open(rhport, desc_itf, remaining_len);
 698              		.loc 1 1126 7 is_stmt 0 view .LVU214
 699 00de DBD0     		beq	.L34
 700              	.LVL61:
 701              	.L35:
1126:SynaptiX_FDK/lib/tinyusb/src/device/usbd.c ****       const uint16_t drv_len = driver->open(rhport, desc_itf, remaining_len);
 702              		.loc 1 1126 7 is_stmt 1 view .LVU215
1127:SynaptiX_FDK/lib/tinyusb/src/device/usbd.c **** 
 703              		.loc 1 1127 7 view .LVU216
1127:SynaptiX_FDK/lib/tinyusb/src/device/usbd.c **** 
 704              		.loc 1 1127 38 is_stmt 0 view .LVU217
 705 00e0 1B69     		ldr	r3, [r3, #16]
1127:SynaptiX_FDK/lib/tinyusb/src/device/usbd.c **** 
 706              		.loc 1 1127 32 view .LVU218
 707 00e2 4A46     		mov	r2, r9
 708 00e4 4146     		mov	r1, r8
 709 00e6 3046     		mov	r0, r6
 710 00e8 9847     		blx	r3
ARM GAS  C:\Users\DELL\AppData\Local\Temp\ccYJ4WIi.s 			page 47


 711              	.LVL62:
 712 00ea 0546     		mov	r5, r0
 713              	.LVL63:
1129:SynaptiX_FDK/lib/tinyusb/src/device/usbd.c ****         // Open successfully
 714              		.loc 1 1129 7 is_stmt 1 view .LVU219
1129:SynaptiX_FDK/lib/tinyusb/src/device/usbd.c ****         // Open successfully
 715              		.loc 1 1129 10 is_stmt 0 view .LVU220
 716 00ec 0828     		cmp	r0, #8
 717 00ee E6D9     		bls	.L37
1129:SynaptiX_FDK/lib/tinyusb/src/device/usbd.c ****         // Open successfully
 718              		.loc 1 1129 54 discriminator 1 view .LVU221
 719 00f0 8145     		cmp	r9, r0
 720 00f2 E4D3     		bcc	.L37
1131:SynaptiX_FDK/lib/tinyusb/src/device/usbd.c **** 
 721              		.loc 1 1131 53 is_stmt 1 view .LVU222
1134:SynaptiX_FDK/lib/tinyusb/src/device/usbd.c ****                                            drv_len));
 722              		.loc 1 1134 9 view .LVU223
1134:SynaptiX_FDK/lib/tinyusb/src/device/usbd.c ****                                            drv_len));
 723              		.loc 1 1134 9 view .LVU224
 724 00f4 154A     		ldr	r2, .L53+16
 725 00f6 0190     		str	r0, [sp, #4]
 726 00f8 CDF80080 		str	r8, [sp]
 727 00fc 1023     		movs	r3, #16
 728 00fe D118     		adds	r1, r2, r3
 729 0100 3846     		mov	r0, r7
 730              	.LVL64:
1134:SynaptiX_FDK/lib/tinyusb/src/device/usbd.c ****                                            drv_len));
 731              		.loc 1 1134 9 is_stmt 0 view .LVU225
 732 0102 FFF7FEFF 		bl	tu_bind_driver_to_ep_itf
 733              	.LVL65:
1134:SynaptiX_FDK/lib/tinyusb/src/device/usbd.c ****                                            drv_len));
 734              		.loc 1 1134 9 discriminator 1 view .LVU226
 735 0106 0028     		cmp	r0, #0
 736 0108 D0D0     		beq	.L51
1134:SynaptiX_FDK/lib/tinyusb/src/device/usbd.c ****                                            drv_len));
 737              		.loc 1 1134 9 is_stmt 1 view .LVU227
1137:SynaptiX_FDK/lib/tinyusb/src/device/usbd.c ****         break; // exit driver find loop
 738              		.loc 1 1137 9 view .LVU228
1137:SynaptiX_FDK/lib/tinyusb/src/device/usbd.c ****         break; // exit driver find loop
 739              		.loc 1 1137 16 is_stmt 0 view .LVU229
 740 010a 4544     		add	r5, r5, r8
 741              	.LVL66:
1138:SynaptiX_FDK/lib/tinyusb/src/device/usbd.c ****       }
 742              		.loc 1 1138 9 is_stmt 1 view .LVU230
 743 010c 00E0     		b	.L40
 744              	.LVL67:
 745              	.L50:
1138:SynaptiX_FDK/lib/tinyusb/src/device/usbd.c ****       }
 746              		.loc 1 1138 9 is_stmt 0 view .LVU231
 747              	.LBE267:
 748 010e 4546     		mov	r5, r8
 749              	.LVL68:
 750              	.L40:
1143:SynaptiX_FDK/lib/tinyusb/src/device/usbd.c ****   }
 751              		.loc 1 1143 5 is_stmt 1 view .LVU232
1143:SynaptiX_FDK/lib/tinyusb/src/device/usbd.c ****   }
 752              		.loc 1 1143 5 view .LVU233
ARM GAS  C:\Users\DELL\AppData\Local\Temp\ccYJ4WIi.s 			page 48


 753 0110 0C4B     		ldr	r3, .L53+8
 754 0112 1B78     		ldrb	r3, [r3]	@ zero_extendqisi2
 755 0114 0233     		adds	r3, r3, #2
 756 0116 DBB2     		uxtb	r3, r3
 757 0118 BB42     		cmp	r3, r7
 758 011a 01D9     		bls	.L52
 759              	.LVL69:
 760              	.L42:
1143:SynaptiX_FDK/lib/tinyusb/src/device/usbd.c ****   }
 761              		.loc 1 1143 5 is_stmt 0 view .LVU234
 762 011c A846     		mov	r8, r5
 763              	.LVL70:
1143:SynaptiX_FDK/lib/tinyusb/src/device/usbd.c ****   }
 764              		.loc 1 1143 5 view .LVU235
 765 011e 94E7     		b	.L29
 766              	.LVL71:
 767              	.L52:
1143:SynaptiX_FDK/lib/tinyusb/src/device/usbd.c ****   }
 768              		.loc 1 1143 5 is_stmt 1 discriminator 1 view .LVU236
1143:SynaptiX_FDK/lib/tinyusb/src/device/usbd.c ****   }
 769              		.loc 1 1143 5 discriminator 1 view .LVU237
1143:SynaptiX_FDK/lib/tinyusb/src/device/usbd.c ****   }
 770              		.loc 1 1143 5 discriminator 1 view .LVU238
1143:SynaptiX_FDK/lib/tinyusb/src/device/usbd.c ****   }
 771              		.loc 1 1143 5 discriminator 1 view .LVU239
 772              	.LBB268:
1143:SynaptiX_FDK/lib/tinyusb/src/device/usbd.c ****   }
 773              		.loc 1 1143 5 discriminator 1 view .LVU240
1143:SynaptiX_FDK/lib/tinyusb/src/device/usbd.c ****   }
 774              		.loc 1 1143 5 view .LVU241
1143:SynaptiX_FDK/lib/tinyusb/src/device/usbd.c ****   }
 775              		.loc 1 1143 5 is_stmt 0 discriminator 1 view .LVU242
 776 0120 4FF0E023 		mov	r3, #-536813568
 777 0124 D3F8F03D 		ldr	r3, [r3, #3568]
 778 0128 13F0010F 		tst	r3, #1
 779 012c 00D0     		beq	.L43
1143:SynaptiX_FDK/lib/tinyusb/src/device/usbd.c ****   }
 780              		.loc 1 1143 5 is_stmt 1 discriminator 2 view .LVU243
 781              		.syntax unified
 782              	@ 1143 "SynaptiX_FDK/lib/tinyusb/src/device/usbd.c" 1
 783 012e 00BE     		BKPT #0
 784              	
 785              	@ 0 "" 2
 786              		.thumb
 787              		.syntax unified
 788              	.L43:
 789              	.LBE268:
1143:SynaptiX_FDK/lib/tinyusb/src/device/usbd.c ****   }
 790              		.loc 1 1143 5 discriminator 4 view .LVU244
1143:SynaptiX_FDK/lib/tinyusb/src/device/usbd.c ****   }
 791              		.loc 1 1143 5 discriminator 4 view .LVU245
 792 0130 0020     		movs	r0, #0
1143:SynaptiX_FDK/lib/tinyusb/src/device/usbd.c ****   }
 793              		.loc 1 1143 5 is_stmt 0 view .LVU246
 794 0132 7BE7     		b	.L28
 795              	.LVL72:
 796              	.L45:
ARM GAS  C:\Users\DELL\AppData\Local\Temp\ccYJ4WIi.s 			page 49


1143:SynaptiX_FDK/lib/tinyusb/src/device/usbd.c ****   }
 797              		.loc 1 1143 5 view .LVU247
 798              	.LBE273:
1146:SynaptiX_FDK/lib/tinyusb/src/device/usbd.c **** }
 799              		.loc 1 1146 10 view .LVU248
 800 0134 0120     		movs	r0, #1
 801 0136 79E7     		b	.L28
 802              	.LVL73:
 803              	.L46:
1146:SynaptiX_FDK/lib/tinyusb/src/device/usbd.c **** }
 804              		.loc 1 1146 10 view .LVU249
 805 0138 0120     		movs	r0, #1
 806 013a 77E7     		b	.L28
 807              	.L54:
 808              		.align	2
 809              	.L53:
 810 013c 00000000 		.word	_usbd_dev
 811 0140 00000000 		.word	_usbd_driver
 812 0144 00000000 		.word	_app_driver_count
 813 0148 00000000 		.word	_app_driver
 814 014c 07000000 		.word	_usbd_dev+7
 815              		.cfi_endproc
 816              	.LFE489:
 818              		.section	.text.sx_gettick,"ax",%progbits
 819              		.align	1
 820              		.global	sx_gettick
 821              		.syntax unified
 822              		.thumb
 823              		.thumb_func
 825              	sx_gettick:
 826              	.LFB336:
 827              		.file 3 "SynaptiX_FDK/board/sx_board.h"
   1:SynaptiX_FDK/board/sx_board.h **** #ifndef SX_BOARD_H
   2:SynaptiX_FDK/board/sx_board.h **** #define SX_BOARD_H
   3:SynaptiX_FDK/board/sx_board.h **** 
   4:SynaptiX_FDK/board/sx_board.h **** #ifdef __cplusplus
   5:SynaptiX_FDK/board/sx_board.h **** extern "C" {
   6:SynaptiX_FDK/board/sx_board.h **** #endif
   7:SynaptiX_FDK/board/sx_board.h **** 
   8:SynaptiX_FDK/board/sx_board.h **** #include <stdint.h>
   9:SynaptiX_FDK/board/sx_board.h **** #include "main.h"
  10:SynaptiX_FDK/board/sx_board.h **** #include "usart.h"
  11:SynaptiX_FDK/board/sx_board.h **** #include "gpio.h"
  12:SynaptiX_FDK/board/sx_board.h **** #include "app_config.h"
  13:SynaptiX_FDK/board/sx_board.h **** #include "sx_spi.h"
  14:SynaptiX_FDK/board/sx_board.h **** #include "sx_gpio.h"
  15:SynaptiX_FDK/board/sx_board.h **** #include "sx_uart.h"
  16:SynaptiX_FDK/board/sx_board.h **** #include "gps.h"
  17:SynaptiX_FDK/board/sx_board.h **** #include "a7677s.h"
  18:SynaptiX_FDK/board/sx_board.h **** #include "modem_ops.h"
  19:SynaptiX_FDK/board/sx_board.h **** #include "sx_delay.h"
  20:SynaptiX_FDK/board/sx_board.h **** #include "sx_W25Q128.h"
  21:SynaptiX_FDK/board/sx_board.h **** #include "sx_ex_storage.h"
  22:SynaptiX_FDK/board/sx_board.h **** #include "sx_usb_tiny_cdc.h"
  23:SynaptiX_FDK/board/sx_board.h **** // #include "adc.h"
  24:SynaptiX_FDK/board/sx_board.h **** #include "spi.h"
  25:SynaptiX_FDK/board/sx_board.h **** #include "i2c.h"
ARM GAS  C:\Users\DELL\AppData\Local\Temp\ccYJ4WIi.s 			page 50


  26:SynaptiX_FDK/board/sx_board.h **** #include "sx_ex_rtc.h"
  27:SynaptiX_FDK/board/sx_board.h **** #include "bno055.h"
  28:SynaptiX_FDK/board/sx_board.h **** #include "sx_filter.h"
  29:SynaptiX_FDK/board/sx_board.h **** #include "sx_read_bat.h"
  30:SynaptiX_FDK/board/sx_board.h **** #include "sensirion_uart_hal.h"
  31:SynaptiX_FDK/board/sx_board.h **** #include "sht3x.h"
  32:SynaptiX_FDK/board/sx_board.h **** #include "ze12a.h"
  33:SynaptiX_FDK/board/sx_board.h **** #include "ads1115.h"
  34:SynaptiX_FDK/board/sx_board.h **** 
  35:SynaptiX_FDK/board/sx_board.h **** typedef struct {
  36:SynaptiX_FDK/board/sx_board.h ****     volatile uint32_t raw_adc;
  37:SynaptiX_FDK/board/sx_board.h ****     volatile float v_adc;
  38:SynaptiX_FDK/board/sx_board.h ****     volatile float v_bat;
  39:SynaptiX_FDK/board/sx_board.h **** }voltage_t;
  40:SynaptiX_FDK/board/sx_board.h **** 
  41:SynaptiX_FDK/board/sx_board.h **** typedef struct Board{
  42:SynaptiX_FDK/board/sx_board.h ****     /* Concrete driver instance + the modem_ops_t handle service/app layers
  43:SynaptiX_FDK/board/sx_board.h ****      * actually use (sx_mqtt.c, sx_user_mqtt.c, sx_sleep_manager.c — see
  44:SynaptiX_FDK/board/sx_board.h ****      * modem_ops.h). Swapping to a different modem module later means
  45:SynaptiX_FDK/board/sx_board.h ****      * replacing a7677s below with the new driver's type and pointing
  46:SynaptiX_FDK/board/sx_board.h ****      * modem.ops/modem.ctx at it — nothing outside this file changes. */
  47:SynaptiX_FDK/board/sx_board.h ****     a7677s_t        a7677s;
  48:SynaptiX_FDK/board/sx_board.h ****     modem_handle_t  modem;
  49:SynaptiX_FDK/board/sx_board.h ****     sx_gps_t gps;
  50:SynaptiX_FDK/board/sx_board.h ****     sx_uart_t log_uart;
  51:SynaptiX_FDK/board/sx_board.h ****     #if USE_READ_PIN
  52:SynaptiX_FDK/board/sx_board.h ****     voltage_t voltage;
  53:SynaptiX_FDK/board/sx_board.h ****     #endif
  54:SynaptiX_FDK/board/sx_board.h ****     sx_usb_tiny_t usb;
  55:SynaptiX_FDK/board/sx_board.h ****     sx_W25Q128_t  q128;
  56:SynaptiX_FDK/board/sx_board.h ****     sx_usb_tiny_config_t usb_cfg;
  57:SynaptiX_FDK/board/sx_board.h ****     sx_storage_cfg_t    storage_cfg;
  58:SynaptiX_FDK/board/sx_board.h ****     sx_i2c_t            i2c1;
  59:SynaptiX_FDK/board/sx_board.h ****     rx8130ce_t          rtc;
  60:SynaptiX_FDK/board/sx_board.h ****     sx_i2c_t    rtc_i2c;
  61:SynaptiX_FDK/board/sx_board.h ****     bno055_t    imu;
  62:SynaptiX_FDK/board/sx_board.h ****     #if USE_READ_PIN
  63:SynaptiX_FDK/board/sx_board.h ****     sx_adc_reader_t s_adc_reader;
  64:SynaptiX_FDK/board/sx_board.h ****     #endif
  65:SynaptiX_FDK/board/sx_board.h ****     /* SPS30 (UART_DUST): the Sensirion HAL layer (sensirion_uart_hal.c)
  66:SynaptiX_FDK/board/sx_board.h ****      * only needs a UartDescr = sx_uart_t* to talk over, so a concrete
  67:SynaptiX_FDK/board/sx_board.h ****      * sx_uart_t instance is owned here and its address passed to
  68:SynaptiX_FDK/board/sx_board.h ****      * sensirion_uart_hal_init(). See sensirion_uart_portdescriptor.h. */
  69:SynaptiX_FDK/board/sx_board.h ****     sx_uart_t   sps30_uart;
  70:SynaptiX_FDK/board/sx_board.h ****     SHT3X_T     sht3x;
  71:SynaptiX_FDK/board/sx_board.h ****     /* ZE12A (gas_sensor / UART_EXTEND): its UART instance and mux-select
  72:SynaptiX_FDK/board/sx_board.h ****      * GPIOs are owned as private statics inside ze12a.c (s_comm,
  73:SynaptiX_FDK/board/sx_board.h ****      * s_mux_s0, s_mux_s1) — gas_sensor_init() takes the raw config/pin
  74:SynaptiX_FDK/board/sx_board.h ****      * descriptors below and wires them up internally, so no field is
  75:SynaptiX_FDK/board/sx_board.h ****      * needed here. */
  76:SynaptiX_FDK/board/sx_board.h ****     /* ADS1115 (shared I2C1, no dedicated GPIO — no ALERT/RDY pin wired
  77:SynaptiX_FDK/board/sx_board.h ****      * per this board's .ioc, so this driver only ever polls the OS bit,
  78:SynaptiX_FDK/board/sx_board.h ****      * never uses the comparator/alert function).
  79:SynaptiX_FDK/board/sx_board.h ****      *
  80:SynaptiX_FDK/board/sx_board.h ****      * AIN1 = adc_current (current-sense input, via INA180A1 U2, gain
  81:SynaptiX_FDK/board/sx_board.h ****      *   20V/V per TI's Device Comparison table — SOT23-5, pinout A).
  82:SynaptiX_FDK/board/sx_board.h ****      *   IN+/IN- sense the voltage drop across shunt resistor R16 (in
ARM GAS  C:\Users\DELL\AppData\Local\Temp\ccYJ4WIi.s 			page 51


  83:SynaptiX_FDK/board/sx_board.h ****      *   series on the +12V rail, before the rest of the board); OUT
  84:SynaptiX_FDK/board/sx_board.h ****      *   feeds AIN1 through R9 (0R per schematic — a series link/isolation
  85:SynaptiX_FDK/board/sx_board.h ****      *   resistor, not the shunt itself).
  86:SynaptiX_FDK/board/sx_board.h ****      *   *** OPEN QUESTION, UNRESOLVED as of this commit — do not assume
  87:SynaptiX_FDK/board/sx_board.h ****      *   an answer: R16's actual resistance value has not been confirmed.
  88:SynaptiX_FDK/board/sx_board.h ****      *   User initially said "0 ohm" for this discussion, but Vout = Gain
  89:SynaptiX_FDK/board/sx_board.h ****      *   x I x R_shunt means R_shunt=0 would force AIN1's reading to 0V
  90:SynaptiX_FDK/board/sx_board.h ****      *   for any current — i.e. the current-sense channel would never
  91:SynaptiX_FDK/board/sx_board.h ****      *   read anything. This is very likely a mix-up with R9 (which
  92:SynaptiX_FDK/board/sx_board.h ****      *   legitimately is 0R on the schematic, but sits on the output
  93:SynaptiX_FDK/board/sx_board.h ****      *   side, not the shunt). User said they'd confirm this in a future
  94:SynaptiX_FDK/board/sx_board.h ****      *   conversation. Until R16's real value is confirmed:
  95:SynaptiX_FDK/board/sx_board.h ****      *     - PGA left at ADS1115_PGA_TWO as a placeholder only, matching
  96:SynaptiX_FDK/board/sx_board.h ****      *       AIN2 for now — NOT derived from any confirmed R16 value.
  97:SynaptiX_FDK/board/sx_board.h ****      *     - Treat every AIN1/adc_current reading as unverified — do not
  98:SynaptiX_FDK/board/sx_board.h ****      *       trust it for any real current measurement or safety logic
  99:SynaptiX_FDK/board/sx_board.h ****      *       (e.g. overcurrent cutoff) until this is resolved.
 100:SynaptiX_FDK/board/sx_board.h ****      *
 101:SynaptiX_FDK/board/sx_board.h ****      * AIN2 = adc_vol (voltage-sense input, 12V rail through a resistor
 102:SynaptiX_FDK/board/sx_board.h ****      *   divider: R14=100K top / R15=20K bottom per schematic, confirmed
 103:SynaptiX_FDK/board/sx_board.h ****      *   with user — the divider node feeds AIN2 directly).
 104:SynaptiX_FDK/board/sx_board.h ****      *   Vout = Vin * 20k/(100k+20k) = Vin/6 -> 2.0V at 12V nominal,
 105:SynaptiX_FDK/board/sx_board.h ****      *   2.5V at a 15V worst-case rail — comfortably under both this
 106:SynaptiX_FDK/board/sx_board.h ****      *   board's VDD (3.3V) and the ADS1115's absolute maximum analog
 107:SynaptiX_FDK/board/sx_board.h ****      *   input rating of VDD+0.3V=3.6V (Documents/ads1115.pdf, Absolute
 108:SynaptiX_FDK/board/sx_board.h ****      *   Maximum Ratings table). ADS1115_PGA_TWO (FSR +-2.048V) matches
 109:SynaptiX_FDK/board/sx_board.h ****      *   this range well. */
 110:SynaptiX_FDK/board/sx_board.h ****     ADS1115_T   ads1115;
 111:SynaptiX_FDK/board/sx_board.h **** }Board_t;
 112:SynaptiX_FDK/board/sx_board.h **** 
 113:SynaptiX_FDK/board/sx_board.h **** typedef enum{
 114:SynaptiX_FDK/board/sx_board.h ****     UART_LTE = 0,
 115:SynaptiX_FDK/board/sx_board.h ****     UART_GPS,
 116:SynaptiX_FDK/board/sx_board.h ****     UART_RS485,
 117:SynaptiX_FDK/board/sx_board.h ****     UART_DUST,
 118:SynaptiX_FDK/board/sx_board.h ****     UART_EXTEND, // gas sensor ZE12A
 119:SynaptiX_FDK/board/sx_board.h ****     UART_LOG
 120:SynaptiX_FDK/board/sx_board.h **** }BSP_NUM_UART;
 121:SynaptiX_FDK/board/sx_board.h **** 
 122:SynaptiX_FDK/board/sx_board.h **** #define NUM_UART                6
 123:SynaptiX_FDK/board/sx_board.h **** 
 124:SynaptiX_FDK/board/sx_board.h **** /*  MODE USB    */
 125:SynaptiX_FDK/board/sx_board.h **** #define BOARD_USE_CDC           1
 126:SynaptiX_FDK/board/sx_board.h **** #define BOARD_USE_MSC           1
 127:SynaptiX_FDK/board/sx_board.h **** 
 128:SynaptiX_FDK/board/sx_board.h **** /*  LTE GPIO    */   
 129:SynaptiX_FDK/board/sx_board.h **** #define LTE_PWRKEY_Port         GPIOD
 130:SynaptiX_FDK/board/sx_board.h **** #define LTE_PWRKEY_Pin          GPIO_PIN_12
 131:SynaptiX_FDK/board/sx_board.h **** #define LTE_RESET_Port          GPIOD
 132:SynaptiX_FDK/board/sx_board.h **** #define LTE_RESET_Pin           GPIO_PIN_11
 133:SynaptiX_FDK/board/sx_board.h **** 
 134:SynaptiX_FDK/board/sx_board.h **** /*  GPS GPIO    */
 135:SynaptiX_FDK/board/sx_board.h **** #define GPS_PPS_Port            GPIOC
 136:SynaptiX_FDK/board/sx_board.h **** #define GPS_PPS_Pin             GPIO_PIN_11
 137:SynaptiX_FDK/board/sx_board.h **** #define GPS_CPW_Port            GPIOC
 138:SynaptiX_FDK/board/sx_board.h **** #define GPS_CPW_Pin             GPIO_PIN_12
 139:SynaptiX_FDK/board/sx_board.h **** #define GPS_RST_Port            GPIOC
ARM GAS  C:\Users\DELL\AppData\Local\Temp\ccYJ4WIi.s 			page 52


 140:SynaptiX_FDK/board/sx_board.h **** #define GPS_RST_Pin             GPIO_PIN_13
 141:SynaptiX_FDK/board/sx_board.h **** 
 142:SynaptiX_FDK/board/sx_board.h **** /*  I2C PIN    */
 143:SynaptiX_FDK/board/sx_board.h **** #define I2C1_RESET_Port         GPIOB
 144:SynaptiX_FDK/board/sx_board.h **** #define I2C1_RESET_Pin          GPIO_PIN_8
 145:SynaptiX_FDK/board/sx_board.h **** 
 146:SynaptiX_FDK/board/sx_board.h **** /*  SPI */
 147:SynaptiX_FDK/board/sx_board.h **** #define SPI_CS_Port             GPIOC
 148:SynaptiX_FDK/board/sx_board.h **** #define SPI_CS_Pin              GPIO_PIN_12
 149:SynaptiX_FDK/board/sx_board.h **** 
 150:SynaptiX_FDK/board/sx_board.h **** /*  RS485 DE    */
 151:SynaptiX_FDK/board/sx_board.h **** #define RS485_RDE_Port          GPIOB
 152:SynaptiX_FDK/board/sx_board.h **** #define RS485_RDE_Pin           GPIO_PIN_2
 153:SynaptiX_FDK/board/sx_board.h **** 
 154:SynaptiX_FDK/board/sx_board.h **** /*  SPS30 power enable (EN_PW_DUST, per schematic)
 155:SynaptiX_FDK/board/sx_board.h ****  *  Active-HIGH: MCU drives this HIGH -> opto OP3's internal LED conducts
 156:SynaptiX_FDK/board/sx_board.h ****  *  (12V side) -> its output phototransistor turns on -> forms a divider
 157:SynaptiX_FDK/board/sx_board.h ****  *  with R11/R19 that pulls G1 of the AO4828 N-channel MOSFET high enough
 158:SynaptiX_FDK/board/sx_board.h ****  *  (VG > VS) -> MOSFET conducts D1(+5V) -> S1 -> feeds +5V to the SPS30
 159:SynaptiX_FDK/board/sx_board.h ****  *  (connector SENSOR pin 4) through D4/C20/C25 filtering. MCU LOW (also
 160:SynaptiX_FDK/board/sx_board.h ****  *  the default/idle state) -> opto off -> R19 pulls G1 back down -> MOSFET
 161:SynaptiX_FDK/board/sx_board.h ****  *  off -> SPS30 unpowered. Confirmed against the schematic, not assumed. */
 162:SynaptiX_FDK/board/sx_board.h **** #define EN_PW_DUST_Port         GPIOA
 163:SynaptiX_FDK/board/sx_board.h **** #define EN_PW_DUST_Pin          GPIO_PIN_9
 164:SynaptiX_FDK/board/sx_board.h **** 
 165:SynaptiX_FDK/board/sx_board.h **** /*  ZE12A mux select (TMUX4052 A0/A1) — see ze12a.c for the channel
 166:SynaptiX_FDK/board/sx_board.h ****  *  truth table (A1=0,A0=0 -> SR1; 0,1 -> SR2; 1,0 -> SR3; 1,1 -> unused).
 167:SynaptiX_FDK/board/sx_board.h ****  *  Pin assignment per CubeMX-generated Core/Inc/main.h. */
 168:SynaptiX_FDK/board/sx_board.h **** #define UART5_S0_Port           GPIOA
 169:SynaptiX_FDK/board/sx_board.h **** #define UART5_S0_Pin            GPIO_PIN_7
 170:SynaptiX_FDK/board/sx_board.h **** #define UART5_S1_Port           GPIOC
 171:SynaptiX_FDK/board/sx_board.h **** #define UART5_S1_Pin            GPIO_PIN_4
 172:SynaptiX_FDK/board/sx_board.h **** 
 173:SynaptiX_FDK/board/sx_board.h **** /* USB */
 174:SynaptiX_FDK/board/sx_board.h **** void dcd_fs_msp_init(uint8_t rhport);
 175:SynaptiX_FDK/board/sx_board.h **** void USB_DRD_FS_IRQHandler(void);
 176:SynaptiX_FDK/board/sx_board.h **** 
 177:SynaptiX_FDK/board/sx_board.h **** /* Board */
 178:SynaptiX_FDK/board/sx_board.h **** void sx_board_init(void);
 179:SynaptiX_FDK/board/sx_board.h **** void read_vol_pin(uint32_t time_stamp);
 180:SynaptiX_FDK/board/sx_board.h **** void gps_it_handle(void);
 181:SynaptiX_FDK/board/sx_board.h **** void sim_it_handle(void);
 182:SynaptiX_FDK/board/sx_board.h **** void board_gps_uart_resume_it(void);
 183:SynaptiX_FDK/board/sx_board.h **** void board_sim_uart_resume_it(void);
 184:SynaptiX_FDK/board/sx_board.h **** 
 185:SynaptiX_FDK/board/sx_board.h **** inline void sx_delay(uint32_t time_delay_ms){HAL_Delay(time_delay_ms);}
 186:SynaptiX_FDK/board/sx_board.h **** inline uint32_t sx_gettick(void){return HAL_GetTick();}
 828              		.loc 3 186 33 is_stmt 1 view -0
 829              		.cfi_startproc
 830              		@ args = 0, pretend = 0, frame = 0
 831              		@ frame_needed = 0, uses_anonymous_args = 0
 832 0000 08B5     		push	{r3, lr}
 833              	.LCFI8:
 834              		.cfi_def_cfa_offset 8
 835              		.cfi_offset 3, -8
 836              		.cfi_offset 14, -4
 837              		.loc 3 186 34 view .LVU251
ARM GAS  C:\Users\DELL\AppData\Local\Temp\ccYJ4WIi.s 			page 53


 838              		.loc 3 186 41 is_stmt 0 view .LVU252
 839 0002 FFF7FEFF 		bl	HAL_GetTick
 840              	.LVL74:
 841              		.loc 3 186 55 view .LVU253
 842 0006 08BD     		pop	{r3, pc}
 843              		.cfi_endproc
 844              	.LFE336:
 846              		.section	.text.tud_event_hook_cb,"ax",%progbits
 847              		.align	1
 848              		.weak	tud_event_hook_cb
 849              		.syntax unified
 850              		.thumb
 851              		.thumb_func
 853              	tud_event_hook_cb:
 854              	.LVL75:
 855              	.LFB450:
  48:SynaptiX_FDK/lib/tinyusb/src/device/usbd.c ****   (void) rhport; (void) eventid; (void) in_isr;
 856              		.loc 1 48 84 is_stmt 1 view -0
 857              		.cfi_startproc
 858              		@ args = 0, pretend = 0, frame = 0
 859              		@ frame_needed = 0, uses_anonymous_args = 0
 860              		@ link register save eliminated.
  49:SynaptiX_FDK/lib/tinyusb/src/device/usbd.c **** }
 861              		.loc 1 49 3 view .LVU255
  49:SynaptiX_FDK/lib/tinyusb/src/device/usbd.c **** }
 862              		.loc 1 49 18 view .LVU256
  49:SynaptiX_FDK/lib/tinyusb/src/device/usbd.c **** }
 863              		.loc 1 49 34 view .LVU257
  50:SynaptiX_FDK/lib/tinyusb/src/device/usbd.c **** 
 864              		.loc 1 50 1 is_stmt 0 view .LVU258
 865 0000 7047     		bx	lr
 866              		.cfi_endproc
 867              	.LFE450:
 869              		.section	.text.tud_sof_cb,"ax",%progbits
 870              		.align	1
 871              		.weak	tud_sof_cb
 872              		.syntax unified
 873              		.thumb
 874              		.thumb_func
 876              	tud_sof_cb:
 877              	.LVL76:
 878              	.LFB451:
  52:SynaptiX_FDK/lib/tinyusb/src/device/usbd.c ****   (void) frame_count;
 879              		.loc 1 52 52 is_stmt 1 view -0
 880              		.cfi_startproc
 881              		@ args = 0, pretend = 0, frame = 0
 882              		@ frame_needed = 0, uses_anonymous_args = 0
 883              		@ link register save eliminated.
  53:SynaptiX_FDK/lib/tinyusb/src/device/usbd.c **** }
 884              		.loc 1 53 3 view .LVU260
  54:SynaptiX_FDK/lib/tinyusb/src/device/usbd.c **** 
 885              		.loc 1 54 1 is_stmt 0 view .LVU261
 886 0000 7047     		bx	lr
 887              		.cfi_endproc
 888              	.LFE451:
 890              		.section	.text.tud_descriptor_bos_cb,"ax",%progbits
 891              		.align	1
ARM GAS  C:\Users\DELL\AppData\Local\Temp\ccYJ4WIi.s 			page 54


 892              		.weak	tud_descriptor_bos_cb
 893              		.syntax unified
 894              		.thumb
 895              		.thumb_func
 897              	tud_descriptor_bos_cb:
 898              	.LFB452:
  56:SynaptiX_FDK/lib/tinyusb/src/device/usbd.c ****   return NULL;
 899              		.loc 1 56 57 is_stmt 1 view -0
 900              		.cfi_startproc
 901              		@ args = 0, pretend = 0, frame = 0
 902              		@ frame_needed = 0, uses_anonymous_args = 0
 903              		@ link register save eliminated.
  57:SynaptiX_FDK/lib/tinyusb/src/device/usbd.c **** }
 904              		.loc 1 57 3 view .LVU263
  58:SynaptiX_FDK/lib/tinyusb/src/device/usbd.c **** 
 905              		.loc 1 58 1 is_stmt 0 view .LVU264
 906 0000 0020     		movs	r0, #0
 907 0002 7047     		bx	lr
 908              		.cfi_endproc
 909              	.LFE452:
 911              		.section	.text.tud_descriptor_device_qualifier_cb,"ax",%progbits
 912              		.align	1
 913              		.weak	tud_descriptor_device_qualifier_cb
 914              		.syntax unified
 915              		.thumb
 916              		.thumb_func
 918              	tud_descriptor_device_qualifier_cb:
 919              	.LFB453:
  60:SynaptiX_FDK/lib/tinyusb/src/device/usbd.c ****   return NULL;
 920              		.loc 1 60 70 is_stmt 1 view -0
 921              		.cfi_startproc
 922              		@ args = 0, pretend = 0, frame = 0
 923              		@ frame_needed = 0, uses_anonymous_args = 0
 924              		@ link register save eliminated.
  61:SynaptiX_FDK/lib/tinyusb/src/device/usbd.c **** }
 925              		.loc 1 61 3 view .LVU266
  62:SynaptiX_FDK/lib/tinyusb/src/device/usbd.c **** 
 926              		.loc 1 62 1 is_stmt 0 view .LVU267
 927 0000 0020     		movs	r0, #0
 928 0002 7047     		bx	lr
 929              		.cfi_endproc
 930              	.LFE453:
 932              		.section	.text.tud_descriptor_other_speed_configuration_cb,"ax",%progbits
 933              		.align	1
 934              		.weak	tud_descriptor_other_speed_configuration_cb
 935              		.syntax unified
 936              		.thumb
 937              		.thumb_func
 939              	tud_descriptor_other_speed_configuration_cb:
 940              	.LVL77:
 941              	.LFB454:
  64:SynaptiX_FDK/lib/tinyusb/src/device/usbd.c ****   (void) index;
 942              		.loc 1 64 88 is_stmt 1 view -0
 943              		.cfi_startproc
 944              		@ args = 0, pretend = 0, frame = 0
 945              		@ frame_needed = 0, uses_anonymous_args = 0
 946              		@ link register save eliminated.
ARM GAS  C:\Users\DELL\AppData\Local\Temp\ccYJ4WIi.s 			page 55


  65:SynaptiX_FDK/lib/tinyusb/src/device/usbd.c ****   return NULL;
 947              		.loc 1 65 3 view .LVU269
  66:SynaptiX_FDK/lib/tinyusb/src/device/usbd.c **** }
 948              		.loc 1 66 3 view .LVU270
  67:SynaptiX_FDK/lib/tinyusb/src/device/usbd.c **** 
 949              		.loc 1 67 1 is_stmt 0 view .LVU271
 950 0000 0020     		movs	r0, #0
 951              	.LVL78:
  67:SynaptiX_FDK/lib/tinyusb/src/device/usbd.c **** 
 952              		.loc 1 67 1 view .LVU272
 953 0002 7047     		bx	lr
 954              		.cfi_endproc
 955              	.LFE454:
 957              		.section	.text.process_get_descriptor,"ax",%progbits
 958              		.align	1
 959              		.syntax unified
 960              		.thumb
 961              		.thumb_func
 963              	process_get_descriptor:
 964              	.LVL79:
 965              	.LFB490:
1151:SynaptiX_FDK/lib/tinyusb/src/device/usbd.c ****   tusb_desc_type_t const desc_type = (tusb_desc_type_t) tu_u16_high(p_request->wValue);
 966              		.loc 1 1151 1 is_stmt 1 view -0
 967              		.cfi_startproc
 968              		@ args = 0, pretend = 0, frame = 0
 969              		@ frame_needed = 0, uses_anonymous_args = 0
1151:SynaptiX_FDK/lib/tinyusb/src/device/usbd.c ****   tusb_desc_type_t const desc_type = (tusb_desc_type_t) tu_u16_high(p_request->wValue);
 970              		.loc 1 1151 1 is_stmt 0 view .LVU274
 971 0000 38B5     		push	{r3, r4, r5, lr}
 972              	.LCFI9:
 973              		.cfi_def_cfa_offset 16
 974              		.cfi_offset 3, -16
 975              		.cfi_offset 4, -12
 976              		.cfi_offset 5, -8
 977              		.cfi_offset 14, -4
 978 0002 0546     		mov	r5, r0
 979 0004 0C46     		mov	r4, r1
1152:SynaptiX_FDK/lib/tinyusb/src/device/usbd.c ****   uint8_t const desc_index = tu_u16_low( p_request->wValue );
 980              		.loc 1 1152 3 is_stmt 1 view .LVU275
1152:SynaptiX_FDK/lib/tinyusb/src/device/usbd.c ****   uint8_t const desc_index = tu_u16_low( p_request->wValue );
 981              		.loc 1 1152 78 is_stmt 0 view .LVU276
 982 0006 4B88     		ldrh	r3, [r1, #2]	@ unaligned
 983              	.LVL80:
 984              	.LBB274:
 985              	.LBI274:
 196:SynaptiX_FDK/lib/tinyusb/src/common/tusb_common.h **** TU_ATTR_ALWAYS_INLINE static inline uint8_t tu_u16_low (uint16_t ui16) { return TU_U16_LOW(ui16); }
 986              		.loc 2 196 45 is_stmt 1 view .LVU277
 987              	.LBB275:
 196:SynaptiX_FDK/lib/tinyusb/src/common/tusb_common.h **** TU_ATTR_ALWAYS_INLINE static inline uint8_t tu_u16_low (uint16_t ui16) { return TU_U16_LOW(ui16); }
 988              		.loc 2 196 74 view .LVU278
 196:SynaptiX_FDK/lib/tinyusb/src/common/tusb_common.h **** TU_ATTR_ALWAYS_INLINE static inline uint8_t tu_u16_low (uint16_t ui16) { return TU_U16_LOW(ui16); }
 989              		.loc 2 196 81 is_stmt 0 view .LVU279
 990 0008 1A0A     		lsrs	r2, r3, #8
 991              	.LVL81:
 196:SynaptiX_FDK/lib/tinyusb/src/common/tusb_common.h **** TU_ATTR_ALWAYS_INLINE static inline uint8_t tu_u16_low (uint16_t ui16) { return TU_U16_LOW(ui16); }
 992              		.loc 2 196 81 view .LVU280
 993              	.LBE275:
ARM GAS  C:\Users\DELL\AppData\Local\Temp\ccYJ4WIi.s 			page 56


 994              	.LBE274:
1153:SynaptiX_FDK/lib/tinyusb/src/device/usbd.c **** 
 995              		.loc 1 1153 3 is_stmt 1 view .LVU281
 996              	.LBB276:
 997              	.LBI276:
 197:SynaptiX_FDK/lib/tinyusb/src/common/tusb_common.h **** 
 998              		.loc 2 197 45 view .LVU282
 999              	.LBB277:
 197:SynaptiX_FDK/lib/tinyusb/src/common/tusb_common.h **** 
 1000              		.loc 2 197 74 view .LVU283
 197:SynaptiX_FDK/lib/tinyusb/src/common/tusb_common.h **** 
 1001              		.loc 2 197 81 is_stmt 0 view .LVU284
 1002 000a D8B2     		uxtb	r0, r3
 1003              	.LVL82:
 197:SynaptiX_FDK/lib/tinyusb/src/common/tusb_common.h **** 
 1004              		.loc 2 197 81 view .LVU285
 1005              	.LBE277:
 1006              	.LBE276:
1155:SynaptiX_FDK/lib/tinyusb/src/device/usbd.c ****     case TUSB_DESC_DEVICE: {
 1007              		.loc 1 1155 3 is_stmt 1 view .LVU286
 1008 000c 531E     		subs	r3, r2, #1
 1009 000e 0E2B     		cmp	r3, #14
 1010 0010 58D8     		bhi	.L75
 1011 0012 DFE803F0 		tbb	[pc, r3]
 1012              	.LVL83:
 1013              	.L65:
 1014 0016 08       		.byte	(.L69-.L65)/2
 1015 0017 27       		.byte	(.L66-.L65)/2
 1016 0018 42       		.byte	(.L68-.L65)/2
 1017 0019 57       		.byte	(.L75-.L65)/2
 1018 001a 57       		.byte	(.L75-.L65)/2
 1019 001b 4D       		.byte	(.L67-.L65)/2
 1020 001c 27       		.byte	(.L66-.L65)/2
 1021 001d 57       		.byte	(.L75-.L65)/2
 1022 001e 57       		.byte	(.L75-.L65)/2
 1023 001f 57       		.byte	(.L75-.L65)/2
 1024 0020 57       		.byte	(.L75-.L65)/2
 1025 0021 57       		.byte	(.L75-.L65)/2
 1026 0022 57       		.byte	(.L75-.L65)/2
 1027 0023 57       		.byte	(.L75-.L65)/2
 1028 0024 1C       		.byte	(.L64-.L65)/2
 1029 0025 00       		.p2align 1
 1030              	.L69:
 1031              	.LBB278:
1157:SynaptiX_FDK/lib/tinyusb/src/device/usbd.c **** 
 1032              		.loc 1 1157 33 view .LVU287
1159:SynaptiX_FDK/lib/tinyusb/src/device/usbd.c ****       TU_ASSERT(desc_device);
 1033              		.loc 1 1159 7 view .LVU288
1159:SynaptiX_FDK/lib/tinyusb/src/device/usbd.c ****       TU_ASSERT(desc_device);
 1034              		.loc 1 1159 47 is_stmt 0 view .LVU289
 1035 0026 FFF7FEFF 		bl	tud_descriptor_device_cb
 1036              	.LVL84:
1160:SynaptiX_FDK/lib/tinyusb/src/device/usbd.c **** 
 1037              		.loc 1 1160 7 is_stmt 1 view .LVU290
1160:SynaptiX_FDK/lib/tinyusb/src/device/usbd.c **** 
 1038              		.loc 1 1160 7 view .LVU291
 1039 002a 0246     		mov	r2, r0
ARM GAS  C:\Users\DELL\AppData\Local\Temp\ccYJ4WIi.s 			page 57


 1040 002c 28B1     		cbz	r0, .L81
1160:SynaptiX_FDK/lib/tinyusb/src/device/usbd.c **** 
 1041              		.loc 1 1160 7 view .LVU292
1164:SynaptiX_FDK/lib/tinyusb/src/device/usbd.c ****           ((tusb_control_request_t const*) p_request)->wLength > sizeof(tusb_desc_device_t)) {
 1042              		.loc 1 1164 7 view .LVU293
1173:SynaptiX_FDK/lib/tinyusb/src/device/usbd.c ****       }
 1043              		.loc 1 1173 9 view .LVU294
1173:SynaptiX_FDK/lib/tinyusb/src/device/usbd.c ****       }
 1044              		.loc 1 1173 16 is_stmt 0 view .LVU295
 1045 002e 1223     		movs	r3, #18
 1046 0030 2146     		mov	r1, r4
 1047 0032 2846     		mov	r0, r5
 1048              	.LVL85:
1173:SynaptiX_FDK/lib/tinyusb/src/device/usbd.c ****       }
 1049              		.loc 1 1173 16 view .LVU296
 1050 0034 FFF7FEFF 		bl	tud_control_xfer
 1051              	.LVL86:
1173:SynaptiX_FDK/lib/tinyusb/src/device/usbd.c ****       }
 1052              		.loc 1 1173 16 view .LVU297
 1053 0038 45E0     		b	.L63
 1054              	.LVL87:
 1055              	.L81:
1160:SynaptiX_FDK/lib/tinyusb/src/device/usbd.c **** 
 1056              		.loc 1 1160 7 is_stmt 1 discriminator 1 view .LVU298
1160:SynaptiX_FDK/lib/tinyusb/src/device/usbd.c **** 
 1057              		.loc 1 1160 7 discriminator 1 view .LVU299
1160:SynaptiX_FDK/lib/tinyusb/src/device/usbd.c **** 
 1058              		.loc 1 1160 7 discriminator 1 view .LVU300
1160:SynaptiX_FDK/lib/tinyusb/src/device/usbd.c **** 
 1059              		.loc 1 1160 7 discriminator 1 view .LVU301
 1060              	.LBB279:
1160:SynaptiX_FDK/lib/tinyusb/src/device/usbd.c **** 
 1061              		.loc 1 1160 7 discriminator 1 view .LVU302
1160:SynaptiX_FDK/lib/tinyusb/src/device/usbd.c **** 
 1062              		.loc 1 1160 7 view .LVU303
1160:SynaptiX_FDK/lib/tinyusb/src/device/usbd.c **** 
 1063              		.loc 1 1160 7 is_stmt 0 discriminator 1 view .LVU304
 1064 003a 4FF0E023 		mov	r3, #-536813568
 1065 003e D3F8F03D 		ldr	r3, [r3, #3568]
 1066 0042 13F0010F 		tst	r3, #1
 1067 0046 00D0     		beq	.L71
1160:SynaptiX_FDK/lib/tinyusb/src/device/usbd.c **** 
 1068              		.loc 1 1160 7 is_stmt 1 discriminator 2 view .LVU305
 1069              		.syntax unified
 1070              	@ 1160 "SynaptiX_FDK/lib/tinyusb/src/device/usbd.c" 1
 1071 0048 00BE     		BKPT #0
 1072              	
 1073              	@ 0 "" 2
 1074              		.thumb
 1075              		.syntax unified
 1076              	.L71:
 1077              	.LBE279:
1160:SynaptiX_FDK/lib/tinyusb/src/device/usbd.c **** 
 1078              		.loc 1 1160 7 discriminator 4 view .LVU306
1160:SynaptiX_FDK/lib/tinyusb/src/device/usbd.c **** 
 1079              		.loc 1 1160 7 discriminator 4 view .LVU307
 1080 004a 0020     		movs	r0, #0
ARM GAS  C:\Users\DELL\AppData\Local\Temp\ccYJ4WIi.s 			page 58


 1081              	.LVL88:
1160:SynaptiX_FDK/lib/tinyusb/src/device/usbd.c **** 
 1082              		.loc 1 1160 7 is_stmt 0 view .LVU308
 1083 004c 3BE0     		b	.L63
 1084              	.LVL89:
 1085              	.L64:
1160:SynaptiX_FDK/lib/tinyusb/src/device/usbd.c **** 
 1086              		.loc 1 1160 7 view .LVU309
 1087              	.LBE278:
 1088              	.LBB280:
1179:SynaptiX_FDK/lib/tinyusb/src/device/usbd.c **** 
 1089              		.loc 1 1179 30 is_stmt 1 view .LVU310
1182:SynaptiX_FDK/lib/tinyusb/src/device/usbd.c ****       TU_VERIFY(desc_bos != 0);
 1090              		.loc 1 1182 7 view .LVU311
1182:SynaptiX_FDK/lib/tinyusb/src/device/usbd.c ****       TU_VERIFY(desc_bos != 0);
 1091              		.loc 1 1182 40 is_stmt 0 view .LVU312
 1092 004e FFF7FEFF 		bl	tud_descriptor_bos_cb
 1093              	.LVL90:
1183:SynaptiX_FDK/lib/tinyusb/src/device/usbd.c **** 
 1094              		.loc 1 1183 7 is_stmt 1 view .LVU313
1183:SynaptiX_FDK/lib/tinyusb/src/device/usbd.c **** 
 1095              		.loc 1 1183 7 view .LVU314
 1096 0052 0246     		mov	r2, r0
 1097 0054 0028     		cmp	r0, #0
 1098 0056 37D0     		beq	.L76
1183:SynaptiX_FDK/lib/tinyusb/src/device/usbd.c **** 
 1099              		.loc 1 1183 7 view .LVU315
1186:SynaptiX_FDK/lib/tinyusb/src/device/usbd.c **** 
 1100              		.loc 1 1186 7 view .LVU316
 1101              	.LVL91:
 1102              	.LBB281:
 1103              	.LBI281:
 318:SynaptiX_FDK/lib/tinyusb/src/common/tusb_common.h ****   return *((uint16_t const *) mem);
 1104              		.loc 2 318 46 view .LVU317
 1105              	.LBB282:
 319:SynaptiX_FDK/lib/tinyusb/src/common/tusb_common.h **** }
 1106              		.loc 2 319 3 view .LVU318
 319:SynaptiX_FDK/lib/tinyusb/src/common/tusb_common.h **** }
 1107              		.loc 2 319 3 is_stmt 0 view .LVU319
 1108              	.LBE282:
 1109              	.LBE281:
1188:SynaptiX_FDK/lib/tinyusb/src/device/usbd.c ****     }
 1110              		.loc 1 1188 7 is_stmt 1 view .LVU320
1188:SynaptiX_FDK/lib/tinyusb/src/device/usbd.c ****     }
 1111              		.loc 1 1188 14 is_stmt 0 view .LVU321
 1112 0058 4388     		ldrh	r3, [r0, #2]
 1113 005a 2146     		mov	r1, r4
 1114 005c 2846     		mov	r0, r5
 1115              	.LVL92:
1188:SynaptiX_FDK/lib/tinyusb/src/device/usbd.c ****     }
 1116              		.loc 1 1188 14 view .LVU322
 1117 005e FFF7FEFF 		bl	tud_control_xfer
 1118              	.LVL93:
1188:SynaptiX_FDK/lib/tinyusb/src/device/usbd.c ****     }
 1119              		.loc 1 1188 14 view .LVU323
 1120 0062 30E0     		b	.L63
 1121              	.LVL94:
ARM GAS  C:\Users\DELL\AppData\Local\Temp\ccYJ4WIi.s 			page 59


 1122              	.L66:
1188:SynaptiX_FDK/lib/tinyusb/src/device/usbd.c ****     }
 1123              		.loc 1 1188 14 view .LVU324
 1124              	.LBE280:
 1125              	.LBB283:
1194:SynaptiX_FDK/lib/tinyusb/src/device/usbd.c **** 
 1126              		.loc 1 1194 7 is_stmt 1 view .LVU325
1196:SynaptiX_FDK/lib/tinyusb/src/device/usbd.c ****         TU_LOG_USBD(" Configuration[%u]\r\n", desc_index);
 1127              		.loc 1 1196 7 view .LVU326
1196:SynaptiX_FDK/lib/tinyusb/src/device/usbd.c ****         TU_LOG_USBD(" Configuration[%u]\r\n", desc_index);
 1128              		.loc 1 1196 10 is_stmt 0 view .LVU327
 1129 0064 022A     		cmp	r2, #2
 1130 0066 09D0     		beq	.L82
1202:SynaptiX_FDK/lib/tinyusb/src/device/usbd.c ****         desc_config = (uintptr_t) tud_descriptor_other_speed_configuration_cb(desc_index);
 1131              		.loc 1 1202 54 is_stmt 1 view .LVU328
1203:SynaptiX_FDK/lib/tinyusb/src/device/usbd.c ****         TU_VERIFY(desc_config != 0);
 1132              		.loc 1 1203 9 view .LVU329
1203:SynaptiX_FDK/lib/tinyusb/src/device/usbd.c ****         TU_VERIFY(desc_config != 0);
 1133              		.loc 1 1203 35 is_stmt 0 view .LVU330
 1134 0068 FFF7FEFF 		bl	tud_descriptor_other_speed_configuration_cb
 1135              	.LVL95:
1204:SynaptiX_FDK/lib/tinyusb/src/device/usbd.c ****       }
 1136              		.loc 1 1204 9 is_stmt 1 view .LVU331
1204:SynaptiX_FDK/lib/tinyusb/src/device/usbd.c ****       }
 1137              		.loc 1 1204 9 view .LVU332
 1138 006c 0246     		mov	r2, r0
 1139 006e 68B3     		cbz	r0, .L77
 1140              	.L73:
1204:SynaptiX_FDK/lib/tinyusb/src/device/usbd.c ****       }
 1141              		.loc 1 1204 9 view .LVU333
1208:SynaptiX_FDK/lib/tinyusb/src/device/usbd.c **** 
 1142              		.loc 1 1208 7 view .LVU334
 1143              	.LVL96:
 1144              	.LBB284:
 1145              	.LBI284:
 318:SynaptiX_FDK/lib/tinyusb/src/common/tusb_common.h ****   return *((uint16_t const *) mem);
 1146              		.loc 2 318 46 view .LVU335
 1147              	.LBB285:
 319:SynaptiX_FDK/lib/tinyusb/src/common/tusb_common.h **** }
 1148              		.loc 2 319 3 view .LVU336
 319:SynaptiX_FDK/lib/tinyusb/src/common/tusb_common.h **** }
 1149              		.loc 2 319 3 is_stmt 0 view .LVU337
 1150              	.LBE285:
 1151              	.LBE284:
1210:SynaptiX_FDK/lib/tinyusb/src/device/usbd.c ****     }
 1152              		.loc 1 1210 7 is_stmt 1 view .LVU338
1210:SynaptiX_FDK/lib/tinyusb/src/device/usbd.c ****     }
 1153              		.loc 1 1210 14 is_stmt 0 view .LVU339
 1154 0070 5388     		ldrh	r3, [r2, #2]
 1155 0072 2146     		mov	r1, r4
 1156 0074 2846     		mov	r0, r5
 1157              	.LVL97:
1210:SynaptiX_FDK/lib/tinyusb/src/device/usbd.c ****     }
 1158              		.loc 1 1210 14 view .LVU340
 1159 0076 FFF7FEFF 		bl	tud_control_xfer
 1160              	.LVL98:
1210:SynaptiX_FDK/lib/tinyusb/src/device/usbd.c ****     }
ARM GAS  C:\Users\DELL\AppData\Local\Temp\ccYJ4WIi.s 			page 60


 1161              		.loc 1 1210 14 view .LVU341
 1162 007a 24E0     		b	.L63
 1163              	.LVL99:
 1164              	.L82:
1197:SynaptiX_FDK/lib/tinyusb/src/device/usbd.c ****         desc_config = (uintptr_t) tud_descriptor_configuration_cb(desc_index);
 1165              		.loc 1 1197 58 is_stmt 1 view .LVU342
1198:SynaptiX_FDK/lib/tinyusb/src/device/usbd.c ****         TU_ASSERT(desc_config != 0);
 1166              		.loc 1 1198 9 view .LVU343
1198:SynaptiX_FDK/lib/tinyusb/src/device/usbd.c ****         TU_ASSERT(desc_config != 0);
 1167              		.loc 1 1198 35 is_stmt 0 view .LVU344
 1168 007c FFF7FEFF 		bl	tud_descriptor_configuration_cb
 1169              	.LVL100:
1199:SynaptiX_FDK/lib/tinyusb/src/device/usbd.c ****       }else {
 1170              		.loc 1 1199 9 is_stmt 1 view .LVU345
1199:SynaptiX_FDK/lib/tinyusb/src/device/usbd.c ****       }else {
 1171              		.loc 1 1199 9 view .LVU346
 1172 0080 0246     		mov	r2, r0
 1173 0082 0028     		cmp	r0, #0
 1174 0084 F4D1     		bne	.L73
1199:SynaptiX_FDK/lib/tinyusb/src/device/usbd.c ****       }else {
 1175              		.loc 1 1199 9 discriminator 1 view .LVU347
1199:SynaptiX_FDK/lib/tinyusb/src/device/usbd.c ****       }else {
 1176              		.loc 1 1199 9 discriminator 1 view .LVU348
1199:SynaptiX_FDK/lib/tinyusb/src/device/usbd.c ****       }else {
 1177              		.loc 1 1199 9 discriminator 1 view .LVU349
1199:SynaptiX_FDK/lib/tinyusb/src/device/usbd.c ****       }else {
 1178              		.loc 1 1199 9 discriminator 1 view .LVU350
 1179              	.LBB286:
1199:SynaptiX_FDK/lib/tinyusb/src/device/usbd.c ****       }else {
 1180              		.loc 1 1199 9 discriminator 1 view .LVU351
 1181              	.LVL101:
1199:SynaptiX_FDK/lib/tinyusb/src/device/usbd.c ****       }else {
 1182              		.loc 1 1199 9 view .LVU352
1199:SynaptiX_FDK/lib/tinyusb/src/device/usbd.c ****       }else {
 1183              		.loc 1 1199 9 is_stmt 0 discriminator 1 view .LVU353
 1184 0086 4FF0E023 		mov	r3, #-536813568
 1185 008a D3F8F03D 		ldr	r3, [r3, #3568]
 1186 008e 13F0010F 		tst	r3, #1
 1187 0092 00D0     		beq	.L74
1199:SynaptiX_FDK/lib/tinyusb/src/device/usbd.c ****       }else {
 1188              		.loc 1 1199 9 is_stmt 1 discriminator 2 view .LVU354
 1189              		.syntax unified
 1190              	@ 1199 "SynaptiX_FDK/lib/tinyusb/src/device/usbd.c" 1
 1191 0094 00BE     		BKPT #0
 1192              	
 1193              	@ 0 "" 2
 1194              		.thumb
 1195              		.syntax unified
 1196              	.L74:
 1197              	.LBE286:
1199:SynaptiX_FDK/lib/tinyusb/src/device/usbd.c ****       }else {
 1198              		.loc 1 1199 9 discriminator 4 view .LVU355
1199:SynaptiX_FDK/lib/tinyusb/src/device/usbd.c ****       }else {
 1199              		.loc 1 1199 9 discriminator 4 view .LVU356
 1200 0096 0020     		movs	r0, #0
 1201              	.LVL102:
1199:SynaptiX_FDK/lib/tinyusb/src/device/usbd.c ****       }else {
ARM GAS  C:\Users\DELL\AppData\Local\Temp\ccYJ4WIi.s 			page 61


 1202              		.loc 1 1199 9 is_stmt 0 view .LVU357
 1203 0098 15E0     		b	.L63
 1204              	.LVL103:
 1205              	.L68:
1199:SynaptiX_FDK/lib/tinyusb/src/device/usbd.c ****       }else {
 1206              		.loc 1 1199 9 view .LVU358
 1207              	.LBE283:
 1208              	.LBB287:
1215:SynaptiX_FDK/lib/tinyusb/src/device/usbd.c **** 
 1209              		.loc 1 1215 49 is_stmt 1 view .LVU359
1218:SynaptiX_FDK/lib/tinyusb/src/device/usbd.c ****       TU_VERIFY(desc_str);
 1210              		.loc 1 1218 7 view .LVU360
1218:SynaptiX_FDK/lib/tinyusb/src/device/usbd.c ****       TU_VERIFY(desc_str);
 1211              		.loc 1 1218 50 is_stmt 0 view .LVU361
 1212 009a A188     		ldrh	r1, [r4, #4]	@ unaligned
 1213 009c FFF7FEFF 		bl	tud_descriptor_string_cb
 1214              	.LVL104:
1219:SynaptiX_FDK/lib/tinyusb/src/device/usbd.c **** 
 1215              		.loc 1 1219 7 is_stmt 1 view .LVU362
1219:SynaptiX_FDK/lib/tinyusb/src/device/usbd.c **** 
 1216              		.loc 1 1219 7 view .LVU363
 1217 00a0 0246     		mov	r2, r0
 1218 00a2 A8B1     		cbz	r0, .L78
1219:SynaptiX_FDK/lib/tinyusb/src/device/usbd.c **** 
 1219              		.loc 1 1219 7 view .LVU364
1222:SynaptiX_FDK/lib/tinyusb/src/device/usbd.c ****     }
